
exercise14_15.elf:     file format elf32-littlenios2
exercise14_15.elf
architecture: nios2, flags 0x00000112:
EXEC_P, HAS_SYMS, D_PAGED
start address 0x010001b4

Program Header:
    LOAD off    0x00001000 vaddr 0x01000000 paddr 0x01000000 align 2**12
         filesz 0x00000020 memsz 0x00000020 flags r-x
    LOAD off    0x00001020 vaddr 0x01000020 paddr 0x01000020 align 2**12
         filesz 0x0000ee58 memsz 0x0000ee58 flags r-x
    LOAD off    0x0000fe78 vaddr 0x0100ee78 paddr 0x01010970 align 2**12
         filesz 0x00001af8 memsz 0x00001af8 flags rw-
    LOAD off    0x00012468 vaddr 0x01012468 paddr 0x01012468 align 2**12
         filesz 0x00000000 memsz 0x000002ec flags rw-

Sections:
Idx Name          Size      VMA       LMA       File off  Algn
  0 .entry        00000020  01000000  01000000  00001000  2**5
                  CONTENTS, ALLOC, LOAD, READONLY, CODE
  1 .exceptions   00000194  01000020  01000020  00001020  2**2
                  CONTENTS, ALLOC, LOAD, READONLY, CODE
  2 .text         0000e7a4  010001b4  010001b4  000011b4  2**2
                  CONTENTS, ALLOC, LOAD, READONLY, CODE
  3 .rodata       00000520  0100e958  0100e958  0000f958  2**2
                  CONTENTS, ALLOC, LOAD, READONLY, DATA
  4 .rwdata       00001af8  0100ee78  01010970  0000fe78  2**2
                  CONTENTS, ALLOC, LOAD, DATA, SMALL_DATA
  5 .bss          000002ec  01012468  01012468  00012468  2**2
                  ALLOC, SMALL_DATA
  6 .comment      00000026  00000000  00000000  00011970  2**0
                  CONTENTS, READONLY
  7 .debug_aranges 00000cd8  00000000  00000000  00011998  2**3
                  CONTENTS, READONLY, DEBUGGING
  8 .debug_pubnames 0000175b  00000000  00000000  00012670  2**0
                  CONTENTS, READONLY, DEBUGGING
  9 .debug_info   000259e4  00000000  00000000  00013dcb  2**0
                  CONTENTS, READONLY, DEBUGGING
 10 .debug_abbrev 00007edd  00000000  00000000  000397af  2**0
                  CONTENTS, READONLY, DEBUGGING
 11 .debug_line   00014a70  00000000  00000000  0004168c  2**0
                  CONTENTS, READONLY, DEBUGGING
 12 .debug_frame  00001c2c  00000000  00000000  000560fc  2**2
                  CONTENTS, READONLY, DEBUGGING
 13 .debug_str    00002564  00000000  00000000  00057d28  2**0
                  CONTENTS, READONLY, DEBUGGING
 14 .debug_loc    0000c341  00000000  00000000  0005a28c  2**0
                  CONTENTS, READONLY, DEBUGGING
 15 .debug_alt_sim_info 00000010  00000000  00000000  000665d0  2**2
                  CONTENTS, READONLY, DEBUGGING
 16 .debug_ranges 000009e0  00000000  00000000  000665e0  2**3
                  CONTENTS, READONLY, DEBUGGING
 17 .thread_model 00000003  00000000  00000000  0006a559  2**0
                  CONTENTS, READONLY
 18 .cpu          0000000c  00000000  00000000  0006a55c  2**0
                  CONTENTS, READONLY
 19 .qsys         00000001  00000000  00000000  0006a568  2**0
                  CONTENTS, READONLY
 20 .simulation_enabled 00000001  00000000  00000000  0006a569  2**0
                  CONTENTS, READONLY
 21 .stderr_dev   0000000b  00000000  00000000  0006a56a  2**0
                  CONTENTS, READONLY
 22 .stdin_dev    0000000b  00000000  00000000  0006a575  2**0
                  CONTENTS, READONLY
 23 .stdout_dev   0000000b  00000000  00000000  0006a580  2**0
                  CONTENTS, READONLY
 24 .sopc_system_name 0000000b  00000000  00000000  0006a58b  2**0
                  CONTENTS, READONLY
 25 .quartus_project_dir 0000002e  00000000  00000000  0006a596  2**0
                  CONTENTS, READONLY
 26 .sopcinfo     0006949d  00000000  00000000  0006a5c4  2**0
                  CONTENTS, READONLY
SYMBOL TABLE:
01000000 l    d  .entry	00000000 .entry
01000020 l    d  .exceptions	00000000 .exceptions
010001b4 l    d  .text	00000000 .text
0100e958 l    d  .rodata	00000000 .rodata
0100ee78 l    d  .rwdata	00000000 .rwdata
01012468 l    d  .bss	00000000 .bss
00000000 l    d  .comment	00000000 .comment
00000000 l    d  .debug_aranges	00000000 .debug_aranges
00000000 l    d  .debug_pubnames	00000000 .debug_pubnames
00000000 l    d  .debug_info	00000000 .debug_info
00000000 l    d  .debug_abbrev	00000000 .debug_abbrev
00000000 l    d  .debug_line	00000000 .debug_line
00000000 l    d  .debug_frame	00000000 .debug_frame
00000000 l    d  .debug_str	00000000 .debug_str
00000000 l    d  .debug_loc	00000000 .debug_loc
00000000 l    d  .debug_alt_sim_info	00000000 .debug_alt_sim_info
00000000 l    d  .debug_ranges	00000000 .debug_ranges
010001ec l       .text	00000000 alt_after_alt_main
00000000 l    df *ABS*	00000000 alt_irq_handler.c
00000000 l    df *ABS*	00000000 VGA_Screen.cpp
00000000 l    df *ABS*	00000000 hello_world.cpp
00000000 l    df *ABS*	00000000 lib2-divmod.c
010009d8 l     F .text	0000007c udivmodsi4
00000000 l    df *ABS*	00000000 printf.c
00000000 l    df *ABS*	00000000 puts.c
00000000 l    df *ABS*	00000000 rand.c
00000000 l    df *ABS*	00000000 strlen.c
00000000 l    df *ABS*	00000000 vfprintf.c
01000d58 l     F .text	00000058 __sprint_r
0100eb3a l     O .rodata	00000010 blanks.3452
0100eb2a l     O .rodata	00000010 zeroes.3453
00000000 l    df *ABS*	00000000 wsetup.c
00000000 l    df *ABS*	00000000 dtoa.c
01002dd4 l     F .text	00000244 quorem
00000000 l    df *ABS*	00000000 fflush.c
00000000 l    df *ABS*	00000000 findfp.c
010047fc l     F .text	00000058 std
01004908 l     F .text	00000008 __fp_lock
01004910 l     F .text	00000008 __fp_unlock
00000000 l    df *ABS*	00000000 mallocr.c
00000000 l    df *ABS*	00000000 fvwrite.c
00000000 l    df *ABS*	00000000 fwalk.c
00000000 l    df *ABS*	00000000 impure.c
0100ee78 l     O .rwdata	00000400 impure_data
00000000 l    df *ABS*	00000000 locale.c
0101093c l     O .rwdata	00000004 charset
0100eb70 l     O .rodata	00000030 lconv
00000000 l    df *ABS*	00000000 makebuf.c
00000000 l    df *ABS*	00000000 mallocr.c
00000000 l    df *ABS*	00000000 memchr.c
00000000 l    df *ABS*	00000000 memcpy.c
00000000 l    df *ABS*	00000000 memmove.c
00000000 l    df *ABS*	00000000 memset.c
00000000 l    df *ABS*	00000000 mprec.c
0100ecb8 l     O .rodata	0000000c p05.2458
00000000 l    df *ABS*	00000000 mallocr.c
00000000 l    df *ABS*	00000000 s_isinfd.c
00000000 l    df *ABS*	00000000 s_isnand.c
00000000 l    df *ABS*	00000000 sbrkr.c
00000000 l    df *ABS*	00000000 stdio.c
00000000 l    df *ABS*	00000000 strcmp.c
00000000 l    df *ABS*	00000000 writer.c
00000000 l    df *ABS*	00000000 mallocr.c
00000000 l    df *ABS*	00000000 closer.c
00000000 l    df *ABS*	00000000 fclose.c
00000000 l    df *ABS*	00000000 fstatr.c
00000000 l    df *ABS*	00000000 int_errno.c
00000000 l    df *ABS*	00000000 isattyr.c
00000000 l    df *ABS*	00000000 lseekr.c
00000000 l    df *ABS*	00000000 readr.c
00000000 l    df *ABS*	00000000 libgcc2.c
00000000 l    df *ABS*	00000000 libgcc2.c
00000000 l    df *ABS*	00000000 libgcc2.c
00000000 l    df *ABS*	00000000 dp-bit.c
01008de0 l     F .text	00000410 _fpadd_parts
00000000 l    df *ABS*	00000000 dp-bit.c
00000000 l    df *ABS*	00000000 dp-bit.c
00000000 l    df *ABS*	00000000 dp-bit.c
00000000 l    df *ABS*	00000000 dp-bit.c
00000000 l    df *ABS*	00000000 dp-bit.c
00000000 l    df *ABS*	00000000 dp-bit.c
00000000 l    df *ABS*	00000000 dp-bit.c
00000000 l    df *ABS*	00000000 dp-bit.c
00000000 l    df *ABS*	00000000 dp-bit.c
00000000 l    df *ABS*	00000000 dp-bit.c
00000000 l    df *ABS*	00000000 dp-bit.c
00000000 l    df *ABS*	00000000 lib2-mul.c
00000000 l    df *ABS*	00000000 libgcc2.c
00000000 l    df *ABS*	00000000 libgcc2.c
00000000 l    df *ABS*	00000000 dp-bit.c
00000000 l    df *ABS*	00000000 dp-bit.c
00000000 l    df *ABS*	00000000 dp-bit.c
00000000 l    df *ABS*	00000000 alt_close.c
0100a5d8 l     F .text	00000060 alt_get_errno
00000000 l    df *ABS*	00000000 alt_dev.c
0100a638 l     F .text	0000002c alt_dev_null_write
00000000 l    df *ABS*	00000000 alt_errno.c
00000000 l    df *ABS*	00000000 alt_fstat.c
0100a73c l     F .text	00000060 alt_get_errno
00000000 l    df *ABS*	00000000 alt_isatty.c
0100a860 l     F .text	00000060 alt_get_errno
00000000 l    df *ABS*	00000000 alt_load.c
0100a940 l     F .text	0000006c alt_load_section
00000000 l    df *ABS*	00000000 alt_lseek.c
0100aaa0 l     F .text	00000060 alt_get_errno
00000000 l    df *ABS*	00000000 alt_main.c
00000000 l    df *ABS*	00000000 alt_malloc_lock.c
00000000 l    df *ABS*	00000000 alt_read.c
0100acd0 l     F .text	00000060 alt_get_errno
00000000 l    df *ABS*	00000000 alt_release_fd.c
00000000 l    df *ABS*	00000000 alt_sbrk.c
01010960 l     O .rwdata	00000004 heap_end
00000000 l    df *ABS*	00000000 alt_write.c
0100af88 l     F .text	00000060 alt_get_errno
00000000 l    df *ABS*	00000000 alt_sys_init.c
0100f834 l     O .rwdata	00001060 jtag_uart_0
01010894 l     O .rwdata	00000048 video_character_buffer_with_dma_0
010108dc l     O .rwdata	00000054 buffer_dma
0100b314 l     F .text	00000038 alt_dev_reg
00000000 l    df *ABS*	00000000 altera_avalon_jtag_uart_fd.c
00000000 l    df *ABS*	00000000 altera_avalon_jtag_uart_init.c
0100b554 l     F .text	00000228 altera_avalon_jtag_uart_irq
0100b77c l     F .text	000000b0 altera_avalon_jtag_uart_timeout
00000000 l    df *ABS*	00000000 altera_avalon_jtag_uart_ioctl.c
00000000 l    df *ABS*	00000000 altera_avalon_jtag_uart_read.c
00000000 l    df *ABS*	00000000 altera_avalon_jtag_uart_write.c
00000000 l    df *ABS*	00000000 altera_up_avalon_video_character_buffer_with_dma.c
00000000 l    df *ABS*	00000000 altera_up_avalon_video_pixel_buffer_dma.c
00000000 l    df *ABS*	00000000 alt_alarm_start.c
00000000 l    df *ABS*	00000000 alt_dcache_flush_all.c
00000000 l    df *ABS*	00000000 alt_dev_llist_insert.c
0100d8c0 l     F .text	00000060 alt_get_errno
00000000 l    df *ABS*	00000000 alt_do_ctors.c
00000000 l    df *ABS*	00000000 alt_do_dtors.c
00000000 l    df *ABS*	00000000 alt_find_dev.c
00000000 l    df *ABS*	00000000 alt_icache_flush_all.c
00000000 l    df *ABS*	00000000 alt_iic.c
00000000 l    df *ABS*	00000000 alt_iic_isr_register.c
00000000 l    df *ABS*	00000000 alt_io_redirect.c
0100dd64 l     F .text	000000d8 alt_open_fd
00000000 l    df *ABS*	00000000 alt_irq_vars.c
00000000 l    df *ABS*	00000000 alt_open.c
0100deb4 l     F .text	000000f8 alt_file_locked
0100e138 l     F .text	00000060 alt_get_errno
00000000 l    df *ABS*	00000000 alt_tick.c
00000000 l    df *ABS*	00000000 altera_nios2_qsys_irq.c
00000000 l    df *ABS*	00000000 alt_find_file.c
00000000 l    df *ABS*	00000000 alt_get_fd.c
00000000 l    df *ABS*	00000000 atexit.c
00000000 l    df *ABS*	00000000 exit.c
00000000 l    df *ABS*	00000000 memcmp.c
00000000 l    df *ABS*	00000000 __atexit.c
00000000 l    df *ABS*	00000000 __call_atexit.c
0100e740 l     F .text	00000004 register_fini
00000000 l    df *ABS*	00000000 alt_exit.c
0100e8f4 l     F .text	00000040 alt_sim_halt
010065ec g     F .text	00000094 _mprec_log10
010066d8 g     F .text	00000088 __any_on
01007e90 g     F .text	00000070 _isatty_r
0100ec90 g     O .rodata	00000028 __mprec_tinytens
0100ab00 g     F .text	0000006c alt_main
0100cd8c g     F .text	000003d8 alt_up_pixel_buffer_dma_draw_vline
01000b9c g     F .text	000000a0 _puts_r
010124c4 g     O .bss	00000100 alt_irq
01007f00 g     F .text	00000078 _lseek_r
01010970 g       *ABS*	00000000 __flash_rwdata_start
01009900 g     F .text	00000088 __eqdf2
01012754 g       *ABS*	00000000 __alt_heap_start
01000b24 g     F .text	00000044 printf
01000684 g     F .text	00000088 _Z8junkcodev
01007948 g     F .text	00000068 __sseek
01004864 g     F .text	000000a4 __sinit
01000224 g     F .text	00000034 _ZN10VGA_Screen17init_pixel_bufferEv
0100bf8c g     F .text	00000114 alt_up_char_buffer_string
01005570 g     F .text	00000084 _setlocale_r
01004964 g     F .text	0000009c __sfmoreglue
0100ab8c g     F .text	00000020 __malloc_unlock
0100bebc g     F .text	000000d0 alt_up_char_buffer_draw
01006068 g     F .text	000000e0 memmove
01004954 g     F .text	00000010 _cleanup
01006760 g     F .text	000000bc _Balloc
0100c13c g     F .text	000001ac alt_up_pixel_buffer_dma_draw
01009a10 g     F .text	00000088 __gtdf2
00000000  w      *UND*	00000000 __errno
0100c0fc g     F .text	00000040 alt_up_pixel_buffer_dma_open_dev
01000000 g     F .entry	0000000c __reset
01000290 g     F .text	00000038 _ZN10VGA_Screen10draw_boxesEP27alt_up_pixel_buffer_dma_dev
01000020 g       *ABS*	00000000 __flash_exceptions_start
01007e1c g     F .text	00000074 _fstat_r
01012480 g     O .bss	00000004 errno
01012488 g     O .bss	00000004 alt_argv
01018930 g       *ABS*	00000000 _gp
0100c2e8 g     F .text	00000058 alt_up_pixel_buffer_dma_change_back_buffer_address
010002c8 g     F .text	00000038 _ZN10VGA_Screen18draw_diagonal_lineEP27alt_up_pixel_buffer_dma_dev
0100f6b4 g     O .rwdata	00000180 alt_fd_list
0100d9e8 g     F .text	00000094 alt_find_dev
01005fc8 g     F .text	000000a0 memcpy
0100c0a0 g     F .text	0000005c alt_up_char_buffer_clear
01004948 g     F .text	0000000c _cleanup_r
01009ba8 g     F .text	000000f8 __floatsidf
0100de3c g     F .text	00000078 alt_io_redirect
01009b20 g     F .text	00000088 __ltdf2
0100e958 g       *ABS*	00000000 __DTOR_END__
01000338 g     F .text	00000034 _ZN10VGA_Screen4initEv
01000c3c g     F .text	00000014 puts
0100653c g     F .text	000000b0 __ratio
0100c398 g     F .text	00000034 alt_up_pixel_buffer_dma_check_swap_buffers_status
0100b994 g     F .text	00000224 altera_avalon_jtag_uart_read
00000000  w      *UND*	00000000 malloc
01000b68 g     F .text	00000034 _printf_r
00000000 g       *ABS*	00000000 __alt_mem_onchip_memory2_0
01000b14 g     F .text	00000008 __udivsi3
0100a79c g     F .text	000000c4 isatty
0100eba0 g     O .rodata	000000c8 __mprec_tens
0100ca34 g     F .text	00000358 alt_up_pixel_buffer_dma_draw_hline
0100554c g     F .text	00000008 __locale_charset
01012474 g     O .bss	00000004 __malloc_top_pad
01010938 g     O .rwdata	00000004 __mb_cur_max
01005554 g     F .text	0000000c _localeconv_r
01006ec4 g     F .text	0000003c __i2b
01004f30 g     F .text	0000049c __sfvwrite_r
010078d0 g     F .text	00000070 _sbrk_r
0100d228 g     F .text	000000d8 helper_plot_pixel
01007f78 g     F .text	00000078 _read_r
0100f278 g     O .rwdata	0000000c __lc_ctype
01010958 g     O .rwdata	00000004 alt_max_fd
0100a2d8 g     F .text	00000138 __unpack_d
01007cf8 g     F .text	00000110 _fclose_r
010047c8 g     F .text	00000034 fflush
01012478 g     O .bss	00000004 __malloc_max_sbrked_mem
0100064c g     F .text	00000038 _Z17init_pixel_bufferv
01009270 g     F .text	00000074 __adddf3
0100641c g     F .text	00000120 __b2d
0100c3cc g     F .text	0000016c alt_up_pixel_buffer_dma_clear_screen
01008780 g     F .text	00000660 __umoddi3
0100a9ac g     F .text	000000f4 lseek
01010934 g     O .rwdata	00000004 _global_impure_ptr
0100726c g     F .text	000005f4 _realloc_r
01000258 g     F .text	00000038 _ZN10VGA_Screen12clear_screenEP27alt_up_pixel_buffer_dma_dev
01012754 g       *ABS*	00000000 __bss_end
0100dc6c g     F .text	000000f8 alt_iic_isr_register
0100c538 g     F .text	000004fc alt_up_pixel_buffer_dma_draw_box
0100e230 g     F .text	0000010c alt_tick
01008114 g     F .text	0000066c __udivdi3
0100ec68 g     O .rodata	00000028 __mprec_bigtens
0100714c g     F .text	00000120 __s2b
01009d78 g     F .text	00000194 __floatunsidf
0100633c g     F .text	00000060 __mcmp
01004930 g     F .text	00000018 __fp_lock_all
0100dc24 g     F .text	00000048 alt_ic_irq_enabled
0100036c g     F .text	00000048 _ZN10VGA_ScreenC1Ev
0100e198 g     F .text	00000098 alt_alarm_stop
01012490 g     O .bss	00000004 alt_irq_active
010000ec g     F .exceptions	000000c8 alt_irq_handler
0100f68c g     O .rwdata	00000028 alt_dev_null
0100d7f0 g     F .text	0000001c alt_dcache_flush_all
01006208 g     F .text	00000070 __hi0bits
0100d164 g     F .text	000000c4 alt_up_pixel_buffer_dma_draw_rectangle
01009ca0 g     F .text	000000d8 __fixdfsi
01010970 g       *ABS*	00000000 __ram_rwdata_end
01010950 g     O .rwdata	00000008 alt_dev_list
0100ae64 g     F .text	00000124 write
01000300 g     F .text	00000038 _ZN10VGA_Screen14draw_characterEP22alt_up_char_buffer_dev
0100d300 g     F .text	0000039c alt_up_pixel_buffer_dma_draw_line
0100ee78 g       *ABS*	00000000 __ram_rodata_end
0100a664 g     F .text	000000d8 fstat
0100702c g     F .text	00000120 __pow5mult
01012468 g     O .bss	00000004 __nlocale_changed
01000b1c g     F .text	00000008 __umodsi3
01012754 g       *ABS*	00000000 end
0100bdf8 g     F .text	00000084 alt_up_char_buffer_init
0100b494 g     F .text	000000c0 altera_avalon_jtag_uart_init
0100093c g     F .text	0000009c _Z3ex4v
0100e954 g       *ABS*	00000000 __CTOR_LIST__
01800000 g       *ABS*	00000000 __alt_stack_pointer
01009f44 g     F .text	00000080 __clzsi2
0100bbb8 g     F .text	00000240 altera_avalon_jtag_uart_write
01004854 g     F .text	00000004 __sfp_lock_acquire
01005ee4 g     F .text	000000e4 memchr
01000db0 g     F .text	00001ec4 ___vfprintf_internal_r
01004c1c g     F .text	00000314 _free_r
0100e744 g     F .text	000001b0 __call_exitprocs
0101246c g     O .bss	00000004 __mlocale_changed
01010944 g     O .rwdata	00000004 __malloc_sbrk_base
010001b4 g     F .text	0000003c _start
01012494 g     O .bss	00000004 _alt_tick_rate
0100060c g     F .text	00000040 _Z16init_char_bufferv
01000c6c g     F .text	00000078 rand
01006b24 g     F .text	0000014c __lshift
01012498 g     O .bss	00000004 _alt_nticks
0100abac g     F .text	00000124 read
0100b01c g     F .text	000002f8 alt_sys_init
0100e60c g     F .text	00000134 __register_exitproc
01006c70 g     F .text	00000254 __multiply
0100b82c g     F .text	00000074 altera_avalon_jtag_uart_close
01009f0c g     F .text	00000038 __mulsi3
0100ee78 g       *ABS*	00000000 __ram_rwdata_start
0100e958 g       *ABS*	00000000 __ram_rodata_start
0101249c g     O .bss	00000028 __malloc_current_mallinfo
0100681c g     F .text	0000017c __d2b
0100b34c g     F .text	00000058 altera_avalon_jtag_uart_read_fd
0100e47c g     F .text	000000d0 alt_get_fd
0100a410 g     F .text	000000c8 __fpcmp_parts_d
01007c88 g     F .text	00000070 _close_r
010003b4 g     F .text	00000048 _ZN10VGA_ScreenC2Ev
0100e598 g     F .text	00000074 memcmp
0100b3fc g     F .text	00000048 altera_avalon_jtag_uart_close_fd
01012754 g       *ABS*	00000000 __alt_stack_base
0100b444 g     F .text	00000050 altera_avalon_jtag_uart_ioctl_fd
01002c98 g     F .text	0000013c __swsetup_r
010096a8 g     F .text	00000258 __divdf3
01004a00 g     F .text	000000f0 __sfp
01006680 g     F .text	00000058 __copybits
0100f284 g     O .rwdata	00000408 __malloc_av_
01004860 g     F .text	00000004 __sinit_lock_release
010092e4 g     F .text	000003c4 __muldf3
01007a2c g     F .text	00000060 __sread
0100e35c g     F .text	00000120 alt_find_file
0100d80c g     F .text	000000b4 alt_dev_llist_insert
0100ab6c g     F .text	00000020 __malloc_lock
0100ada8 g     F .text	000000bc sbrk
010045cc g     F .text	000001fc _fflush_r
01007bc0 g     F .text	000000c8 _calloc_r
01012468 g       *ABS*	00000000 __bss_start
01006148 g     F .text	00000098 memset
01000430 g     F .text	00000038 main
0101248c g     O .bss	00000004 alt_envp
0101247c g     O .bss	00000004 __malloc_max_total_mem
0100c340 g     F .text	00000058 alt_up_pixel_buffer_dma_swap_buffers
0100be7c g     F .text	00000040 alt_up_char_buffer_open_dev
0100b3a4 g     F .text	00000058 altera_avalon_jtag_uart_write_fd
01000c50 g     F .text	0000001c srand
01007940 g     F .text	00000008 __sclose
01800000 g       *ABS*	00000000 __alt_heap_limit
01007e08 g     F .text	00000014 fclose
010125c4 g     O .bss	00000190 _atexit0
01003018 g     F .text	000015b4 _dtoa_r
010057a4 g     F .text	00000740 _malloc_r
0101095c g     O .rwdata	00000004 alt_errno
01005494 g     F .text	000000b8 _fwalk
01000a54 g     F .text	00000060 __divsi3
0100ecc4 g     O .rodata	00000014 __thenan_df
01004af0 g     F .text	0000012c _malloc_trim_r
0100e958 g       *ABS*	00000000 __CTOR_END__
01007a8c g     F .text	000000bc strcmp
0100e958 g       *ABS*	00000000 __flash_rodata_start
0100e958 g       *ABS*	00000000 __DTOR_LIST__
01009988 g     F .text	00000088 __nedf2
0100afe8 g     F .text	00000034 alt_irq_init
0100ad30 g     F .text	00000078 alt_release_fd
0100ecd8 g     O .rodata	00000100 __clz_tab
01012470 g     O .bss	00000004 _PathLocale
0100e54c g     F .text	00000014 atexit
01007b48 g     F .text	00000078 _write_r
0100070c g     F .text	00000230 _Z3ex5v
010055f4 g     F .text	0000001c setlocale
01010930 g     O .rwdata	00000004 _impure_ptr
01012484 g     O .bss	00000004 alt_argc
0100d984 g     F .text	00000064 _do_dtors
01000020 g       .exceptions	00000000 alt_irq_entry
0100639c g     F .text	00000080 __ulp
01007860 g     F .text	00000040 __isinfd
01004918 g     F .text	00000018 __fp_unlock_all
01010948 g     O .rwdata	00000008 alt_fs_list
01000020 g       *ABS*	00000000 __ram_exceptions_start
0100057c g     F .text	00000050 _Z18draw_diagonal_lineP27alt_up_pixel_buffer_dma_dev
01005560 g     F .text	00000010 localeconv
010001f0 g     F .text	00000034 _ZN10VGA_Screen16init_char_bufferEv
0100da98 g     F .text	00000050 alt_ic_isr_register
01010970 g       *ABS*	00000000 _edata
01012754 g       *ABS*	00000000 _end
010001b4 g       *ABS*	00000000 __ram_exceptions_end
0100b8a0 g     F .text	000000f4 altera_avalon_jtag_uart_ioctl
0100db84 g     F .text	000000a0 alt_ic_irq_disable
010079b0 g     F .text	0000007c __swrite
01010940 g     O .rwdata	00000004 __malloc_trim_threshold
0100e33c g     F .text	00000020 altera_nios2_qsys_irq_init
0100e560 g     F .text	00000038 exit
010053cc g     F .text	000000c8 _fwalk_reent
01006998 g     F .text	0000018c __mdiff
01000ab4 g     F .text	00000060 __modsi3
01800000 g       *ABS*	00000000 __alt_data_end
01000020 g     F .exceptions	00000000 alt_exception
01004858 g     F .text	00000004 __sfp_lock_release
01000000 g       *ABS*	00000000 __alt_mem_sdram
0100e934 g     F .text	00000020 _exit
010078a0 g     F .text	00000030 __isnand
0100d69c g     F .text	00000154 alt_alarm_start
01007ff0 g     F .text	00000124 __muldi3
01005610 g     F .text	00000194 __smakebuf_r
01000ce4 g     F .text	00000074 strlen
0100dfac g     F .text	0000018c open
01009a98 g     F .text	00000088 __gedf2
0100da7c g     F .text	0000001c alt_icache_flush_all
01010964 g     O .rwdata	00000004 alt_priority_mask
010005cc g     F .text	00000040 _Z14draw_characterP22alt_up_char_buffer_dev
0100dae8 g     F .text	0000009c alt_ic_irq_enable
01002c74 g     F .text	00000024 __vfprintf_internal
010003fc g     F .text	00000034 _Z12clear_screenP27alt_up_pixel_buffer_dma_dev
010091f0 g     F .text	00000080 __subdf3
01006278 g     F .text	000000c4 __lo0bits
01010968 g     O .rwdata	00000008 alt_alarm_list
0100d920 g     F .text	00000064 _do_ctors
0100a4d8 g     F .text	00000100 close
0100a8c0 g     F .text	00000080 alt_load
01009fc4 g     F .text	00000314 __pack_d
00000000  w      *UND*	00000000 free
0100485c g     F .text	00000004 __sinit_lock_acquire
01006f00 g     F .text	0000012c __multadd
010061e0 g     F .text	00000028 _Bfree
01000468 g     F .text	00000114 _Z10draw_boxesP27alt_up_pixel_buffer_dma_dev



Disassembly of section .entry:

01000000 <__reset>:
 * Jump to the _start entry point in the .text section if reset code
 * is allowed or if optimizing for RTL simulation.
 */
#if defined(ALT_ALLOW_CODE_AT_RESET) || defined(ALT_SIM_OPTIMIZE)
    /* Jump to the _start entry point in the .text section. */
    movhi r1, %hi(_start)
 1000000:	00404034 	movhi	at,256
    ori r1, r1, %lo(_start)
 1000004:	08406d14 	ori	at,at,436
    jmp r1
 1000008:	0800683a 	jmp	at
	...

Disassembly of section .exceptions:

01000020 <alt_exception>:
         * Process an exception.  For all exceptions we must preserve all
         * caller saved registers on the stack (See the Nios2 ABI
         * documentation for details).
         */

        addi  sp, sp, -76
 1000020:	deffed04 	addi	sp,sp,-76

#endif

#endif

        stw   ra,  0(sp)
 1000024:	dfc00015 	stw	ra,0(sp)
        /*
         * Leave a gap in the stack frame at 4(sp) for the muldiv handler to
         * store zero into.
         */

        stw   r1,   8(sp)
 1000028:	d8400215 	stw	at,8(sp)
        stw   r2,  12(sp)
 100002c:	d8800315 	stw	r2,12(sp)
        stw   r3,  16(sp)
 1000030:	d8c00415 	stw	r3,16(sp)
        stw   r4,  20(sp)
 1000034:	d9000515 	stw	r4,20(sp)
        stw   r5,  24(sp)
 1000038:	d9400615 	stw	r5,24(sp)
        stw   r6,  28(sp)
 100003c:	d9800715 	stw	r6,28(sp)
        stw   r7,  32(sp)
 1000040:	d9c00815 	stw	r7,32(sp)

        rdctl r5, estatus
 1000044:	000b307a 	rdctl	r5,estatus

        stw   r8,  36(sp)
 1000048:	da000915 	stw	r8,36(sp)
        stw   r9,  40(sp)
 100004c:	da400a15 	stw	r9,40(sp)
        stw   r10, 44(sp)
 1000050:	da800b15 	stw	r10,44(sp)
        stw   r11, 48(sp)
 1000054:	dac00c15 	stw	r11,48(sp)
        stw   r12, 52(sp)
 1000058:	db000d15 	stw	r12,52(sp)
        stw   r13, 56(sp)
 100005c:	db400e15 	stw	r13,56(sp)
        stw   r14, 60(sp)
 1000060:	db800f15 	stw	r14,60(sp)
        stw   r15, 64(sp)
 1000064:	dbc01015 	stw	r15,64(sp)
        /*
         * ea-4 contains the address of the instruction being executed
         * when the exception occured. For interrupt exceptions, we will
         * will be re-issue the isntruction. Store it in 72(sp)
         */
        stw   r5,  68(sp)  /* estatus */
 1000068:	d9401115 	stw	r5,68(sp)
        addi  r15, ea, -4  /* instruction that caused exception */
 100006c:	ebffff04 	addi	r15,ea,-4
        stw   r15,  72(sp)
 1000070:	dbc01215 	stw	r15,72(sp)
#else
        /*
         * Test to see if the exception was a software exception or caused 
         * by an external interrupt, and vector accordingly.
         */
        rdctl r4, ipending
 1000074:	0009313a 	rdctl	r4,ipending
        andi  r2, r5, 1
 1000078:	2880004c 	andi	r2,r5,1
        beq   r2, zero, .Lnot_irq
 100007c:	10000326 	beq	r2,zero,100008c <alt_exception+0x6c>
        beq   r4, zero, .Lnot_irq
 1000080:	20000226 	beq	r4,zero,100008c <alt_exception+0x6c>
        /*
         * Now that all necessary registers have been preserved, call 
         * alt_irq_handler() to process the interrupts.
         */

        call alt_irq_handler
 1000084:	10000ec0 	call	10000ec <alt_irq_handler>

        .section .exceptions.irqreturn, "xa"

        br    .Lexception_exit
 1000088:	00000306 	br	1000098 <alt_exception+0x78>
         * upon completion, so we write ea (address of instruction *after*
         * the one where the exception occured) into 72(sp). The actual
         * instruction that caused the exception is written in r2, which these
         * handlers will utilize.
         */
        stw   ea,  72(sp)  /* Don't re-issue */
 100008c:	df401215 	stw	ea,72(sp)
        ldw   r2, -4(ea)   /* Instruction that caused exception */
 1000090:	e8bfff17 	ldw	r2,-4(ea)
#ifdef NIOS2_HAS_DEBUG_STUB
       /*
        *  Either tell the user now (if there is a debugger attached) or go into
        *  the debug monitor which will loop until a debugger is attached.
        */
        break
 1000094:	003da03a 	break	0
        /* 
         * Restore the saved registers, so that all general purpose registers 
         * have been restored to their state at the time the interrupt occured.
         */

        ldw   r5,  68(sp)
 1000098:	d9401117 	ldw	r5,68(sp)
        ldw   ea,  72(sp)  /* This becomes the PC once eret is executed */
 100009c:	df401217 	ldw	ea,72(sp)
        ldw   ra,   0(sp)
 10000a0:	dfc00017 	ldw	ra,0(sp)

        wrctl estatus, r5
 10000a4:	2801707a 	wrctl	estatus,r5

        ldw   r1,   8(sp)
 10000a8:	d8400217 	ldw	at,8(sp)
        ldw   r2,  12(sp)
 10000ac:	d8800317 	ldw	r2,12(sp)
        ldw   r3,  16(sp)
 10000b0:	d8c00417 	ldw	r3,16(sp)
        ldw   r4,  20(sp)
 10000b4:	d9000517 	ldw	r4,20(sp)
        ldw   r5,  24(sp)
 10000b8:	d9400617 	ldw	r5,24(sp)
        ldw   r6,  28(sp)
 10000bc:	d9800717 	ldw	r6,28(sp)
        ldw   r7,  32(sp)
 10000c0:	d9c00817 	ldw	r7,32(sp)
#ifdef ALT_STACK_CHECK
        ldw   et, %gprel(alt_exception_old_stack_limit)(gp)
#endif
#endif

        ldw   r8,  36(sp)
 10000c4:	da000917 	ldw	r8,36(sp)
        ldw   r9,  40(sp)
 10000c8:	da400a17 	ldw	r9,40(sp)
        ldw   r10, 44(sp)
 10000cc:	da800b17 	ldw	r10,44(sp)
        ldw   r11, 48(sp)
 10000d0:	dac00c17 	ldw	r11,48(sp)
        ldw   r12, 52(sp)
 10000d4:	db000d17 	ldw	r12,52(sp)
        ldw   r13, 56(sp)
 10000d8:	db400e17 	ldw	r13,56(sp)
        ldw   r14, 60(sp)
 10000dc:	db800f17 	ldw	r14,60(sp)
        ldw   r15, 64(sp)
 10000e0:	dbc01017 	ldw	r15,64(sp)
#endif

        ldw   sp,  76(sp)

#else
        addi  sp, sp, 76
 10000e4:	dec01304 	addi	sp,sp,76

        /*
         * Return to the interrupted instruction.
         */

        eret
 10000e8:	ef80083a 	eret

010000ec <alt_irq_handler>:
 * instruction is present if the macro ALT_CI_INTERRUPT_VECTOR defined.
 */

void alt_irq_handler (void) __attribute__ ((section (".exceptions")));
void alt_irq_handler (void)
{
 10000ec:	defff904 	addi	sp,sp,-28
 10000f0:	dfc00615 	stw	ra,24(sp)
 10000f4:	df000515 	stw	fp,20(sp)
 10000f8:	df000504 	addi	fp,sp,20
#ifndef NIOS2_EIC_PRESENT
static ALT_INLINE alt_u32 ALT_ALWAYS_INLINE alt_irq_pending (void)
{
  alt_u32 active;

  NIOS2_READ_IPENDING (active);
 10000fc:	0005313a 	rdctl	r2,ipending
 1000100:	e0bffc15 	stw	r2,-16(fp)

  return active;
 1000104:	e0bffc17 	ldw	r2,-16(fp)
   * Consider the case where the high priority interupt is asserted during
   * the interrupt entry sequence for a lower priority interrupt to see why
   * this is the case.
   */

  active = alt_irq_pending ();
 1000108:	e0bfff15 	stw	r2,-4(fp)

  do
  {
    i = 0;
 100010c:	e03ffd15 	stw	zero,-12(fp)
    mask = 1;
 1000110:	00800044 	movi	r2,1
 1000114:	e0bffe15 	stw	r2,-8(fp)
     * called to clear the interrupt condition.
     */

    do
    {
      if (active & mask)
 1000118:	e0ffff17 	ldw	r3,-4(fp)
 100011c:	e0bffe17 	ldw	r2,-8(fp)
 1000120:	1884703a 	and	r2,r3,r2
 1000124:	1005003a 	cmpeq	r2,r2,zero
 1000128:	1000161e 	bne	r2,zero,1000184 <alt_irq_handler+0x98>
      { 
#ifdef ALT_ENHANCED_INTERRUPT_API_PRESENT
        alt_irq[i].handler(alt_irq[i].context); 
 100012c:	e0bffd17 	ldw	r2,-12(fp)
 1000130:	00c04074 	movhi	r3,257
 1000134:	18c93104 	addi	r3,r3,9412
 1000138:	100490fa 	slli	r2,r2,3
 100013c:	10c5883a 	add	r2,r2,r3
 1000140:	11400017 	ldw	r5,0(r2)
 1000144:	e0bffd17 	ldw	r2,-12(fp)
 1000148:	00c04074 	movhi	r3,257
 100014c:	18c93104 	addi	r3,r3,9412
 1000150:	100490fa 	slli	r2,r2,3
 1000154:	10c5883a 	add	r2,r2,r3
 1000158:	10800104 	addi	r2,r2,4
 100015c:	11000017 	ldw	r4,0(r2)
 1000160:	283ee83a 	callr	r5
#ifndef NIOS2_EIC_PRESENT
static ALT_INLINE alt_u32 ALT_ALWAYS_INLINE alt_irq_pending (void)
{
  alt_u32 active;

  NIOS2_READ_IPENDING (active);
 1000164:	0005313a 	rdctl	r2,ipending
 1000168:	e0bffb15 	stw	r2,-20(fp)

  return active;
 100016c:	e0bffb17 	ldw	r2,-20(fp)
      mask <<= 1;
      i++;

    } while (1);

    active = alt_irq_pending ();
 1000170:	e0bfff15 	stw	r2,-4(fp)
    
  } while (active);
 1000174:	e0bfff17 	ldw	r2,-4(fp)
 1000178:	1004c03a 	cmpne	r2,r2,zero
 100017c:	103fe31e 	bne	r2,zero,100010c <alt_irq_handler+0x20>
 1000180:	00000706 	br	10001a0 <alt_irq_handler+0xb4>
#else
        alt_irq[i].handler(alt_irq[i].context, i); 
#endif
        break;
      }
      mask <<= 1;
 1000184:	e0bffe17 	ldw	r2,-8(fp)
 1000188:	1085883a 	add	r2,r2,r2
 100018c:	e0bffe15 	stw	r2,-8(fp)
      i++;
 1000190:	e0bffd17 	ldw	r2,-12(fp)
 1000194:	10800044 	addi	r2,r2,1
 1000198:	e0bffd15 	stw	r2,-12(fp)

    } while (1);
 100019c:	003fde06 	br	1000118 <alt_irq_handler+0x2c>
  /*
   * Notify the operating system that interrupt processing is complete.
   */ 

  ALT_OS_INT_EXIT();
}
 10001a0:	e037883a 	mov	sp,fp
 10001a4:	dfc00117 	ldw	ra,4(sp)
 10001a8:	df000017 	ldw	fp,0(sp)
 10001ac:	dec00204 	addi	sp,sp,8
 10001b0:	f800283a 	ret

Disassembly of section .text:

010001b4 <_start>:
#if (NIOS2_NUM_OF_SHADOW_REG_SETS == 0)    
    /*
     * Now that the caches are initialized, set up the stack pointer.
     * The value provided by the linker is assumed to be correctly aligned.
     */
    movhi sp, %hi(__alt_stack_pointer)
 10001b4:	06c06034 	movhi	sp,384
    ori sp, sp, %lo(__alt_stack_pointer)
 10001b8:	dec00014 	ori	sp,sp,0

    /* Set up the global pointer. */
    movhi gp, %hi(_gp)
 10001bc:	06804074 	movhi	gp,257
    ori gp, gp, %lo(_gp)
 10001c0:	d6a24c14 	ori	gp,gp,35120
 */
#ifndef ALT_SIM_OPTIMIZE
    /* Log that the BSS is about to be cleared. */
    ALT_LOG_PUTS(alt_log_msg_bss)

    movhi r2, %hi(__bss_start)
 10001c4:	00804074 	movhi	r2,257
    ori r2, r2, %lo(__bss_start)
 10001c8:	10891a14 	ori	r2,r2,9320

    movhi r3, %hi(__bss_end)
 10001cc:	00c04074 	movhi	r3,257
    ori r3, r3, %lo(__bss_end)
 10001d0:	18c9d514 	ori	r3,r3,10068

    beq r2, r3, 1f
 10001d4:	10c00326 	beq	r2,r3,10001e4 <_start+0x30>

0:
    stw zero, (r2)
 10001d8:	10000015 	stw	zero,0(r2)
    addi r2, r2, 4
 10001dc:	10800104 	addi	r2,r2,4
    bltu r2, r3, 0b
 10001e0:	10fffd36 	bltu	r2,r3,10001d8 <_start+0x24>
     * section aren't defined until alt_load() has been called).
     */
    mov   et, zero
#endif

    call alt_load
 10001e4:	100a8c00 	call	100a8c0 <alt_load>

    /* Log that alt_main is about to be called. */
    ALT_LOG_PUTS(alt_log_msg_alt_main)

    /* Call the C entry point. It should never return. */
    call alt_main
 10001e8:	100ab000 	call	100ab00 <alt_main>

010001ec <alt_after_alt_main>:

    /* Wait in infinite loop in case alt_main does return. */
alt_after_alt_main:
    br alt_after_alt_main
 10001ec:	003fff06 	br	10001ec <alt_after_alt_main>

010001f0 <_ZN10VGA_Screen16init_char_bufferEv>:
alt_up_pixel_buffer_dma_dev* VGA_Screen::init_pixel_buffer(){
	printf("Initializing Pixel Buffer");
}


alt_up_char_buffer_dev* VGA_Screen::init_char_buffer(){
 10001f0:	defffd04 	addi	sp,sp,-12
 10001f4:	dfc00215 	stw	ra,8(sp)
 10001f8:	df000115 	stw	fp,4(sp)
 10001fc:	df000104 	addi	fp,sp,4
 1000200:	e13fff15 	stw	r4,-4(fp)
	printf("Initializing Char Buffer");
 1000204:	01004074 	movhi	r4,257
 1000208:	213a5604 	addi	r4,r4,-5800
 100020c:	1000b240 	call	1000b24 <printf>
}
 1000210:	e037883a 	mov	sp,fp
 1000214:	dfc00117 	ldw	ra,4(sp)
 1000218:	df000017 	ldw	fp,0(sp)
 100021c:	dec00204 	addi	sp,sp,8
 1000220:	f800283a 	ret

01000224 <_ZN10VGA_Screen17init_pixel_bufferEv>:
void VGA_Screen::clear_screen(alt_up_pixel_buffer_dma_dev* pixel_buffer){
	printf("Clearing Screen");
}

//Private Methods
alt_up_pixel_buffer_dma_dev* VGA_Screen::init_pixel_buffer(){
 1000224:	defffd04 	addi	sp,sp,-12
 1000228:	dfc00215 	stw	ra,8(sp)
 100022c:	df000115 	stw	fp,4(sp)
 1000230:	df000104 	addi	fp,sp,4
 1000234:	e13fff15 	stw	r4,-4(fp)
	printf("Initializing Pixel Buffer");
 1000238:	01004074 	movhi	r4,257
 100023c:	213a5d04 	addi	r4,r4,-5772
 1000240:	1000b240 	call	1000b24 <printf>
}
 1000244:	e037883a 	mov	sp,fp
 1000248:	dfc00117 	ldw	ra,4(sp)
 100024c:	df000017 	ldw	fp,0(sp)
 1000250:	dec00204 	addi	sp,sp,8
 1000254:	f800283a 	ret

01000258 <_ZN10VGA_Screen12clear_screenEP27alt_up_pixel_buffer_dma_dev>:

void VGA_Screen::draw_boxes(alt_up_pixel_buffer_dma_dev* pixel_buffer){
	printf("Drawing Boxes");
}

void VGA_Screen::clear_screen(alt_up_pixel_buffer_dma_dev* pixel_buffer){
 1000258:	defffc04 	addi	sp,sp,-16
 100025c:	dfc00315 	stw	ra,12(sp)
 1000260:	df000215 	stw	fp,8(sp)
 1000264:	df000204 	addi	fp,sp,8
 1000268:	e13ffe15 	stw	r4,-8(fp)
 100026c:	e17fff15 	stw	r5,-4(fp)
	printf("Clearing Screen");
 1000270:	01004074 	movhi	r4,257
 1000274:	213a6404 	addi	r4,r4,-5744
 1000278:	1000b240 	call	1000b24 <printf>
}
 100027c:	e037883a 	mov	sp,fp
 1000280:	dfc00117 	ldw	ra,4(sp)
 1000284:	df000017 	ldw	fp,0(sp)
 1000288:	dec00204 	addi	sp,sp,8
 100028c:	f800283a 	ret

01000290 <_ZN10VGA_Screen10draw_boxesEP27alt_up_pixel_buffer_dma_dev>:

void VGA_Screen::draw_diagonal_line(alt_up_pixel_buffer_dma_dev* pixel_buffer){
	printf("Drawing Diagonal Line");
}

void VGA_Screen::draw_boxes(alt_up_pixel_buffer_dma_dev* pixel_buffer){
 1000290:	defffc04 	addi	sp,sp,-16
 1000294:	dfc00315 	stw	ra,12(sp)
 1000298:	df000215 	stw	fp,8(sp)
 100029c:	df000204 	addi	fp,sp,8
 10002a0:	e13ffe15 	stw	r4,-8(fp)
 10002a4:	e17fff15 	stw	r5,-4(fp)
	printf("Drawing Boxes");
 10002a8:	01004074 	movhi	r4,257
 10002ac:	213a6804 	addi	r4,r4,-5728
 10002b0:	1000b240 	call	1000b24 <printf>
}
 10002b4:	e037883a 	mov	sp,fp
 10002b8:	dfc00117 	ldw	ra,4(sp)
 10002bc:	df000017 	ldw	fp,0(sp)
 10002c0:	dec00204 	addi	sp,sp,8
 10002c4:	f800283a 	ret

010002c8 <_ZN10VGA_Screen18draw_diagonal_lineEP27alt_up_pixel_buffer_dma_dev>:

void VGA_Screen::draw_character(alt_up_char_buffer_dev* char_buffer){
	printf("Drawing Character");
}

void VGA_Screen::draw_diagonal_line(alt_up_pixel_buffer_dma_dev* pixel_buffer){
 10002c8:	defffc04 	addi	sp,sp,-16
 10002cc:	dfc00315 	stw	ra,12(sp)
 10002d0:	df000215 	stw	fp,8(sp)
 10002d4:	df000204 	addi	fp,sp,8
 10002d8:	e13ffe15 	stw	r4,-8(fp)
 10002dc:	e17fff15 	stw	r5,-4(fp)
	printf("Drawing Diagonal Line");
 10002e0:	01004074 	movhi	r4,257
 10002e4:	213a6c04 	addi	r4,r4,-5712
 10002e8:	1000b240 	call	1000b24 <printf>
}
 10002ec:	e037883a 	mov	sp,fp
 10002f0:	dfc00117 	ldw	ra,4(sp)
 10002f4:	df000017 	ldw	fp,0(sp)
 10002f8:	dec00204 	addi	sp,sp,8
 10002fc:	f800283a 	ret

01000300 <_ZN10VGA_Screen14draw_characterEP22alt_up_char_buffer_dev>:
void VGA_Screen::init(){
	printf("Initializing VGA Screen");

}

void VGA_Screen::draw_character(alt_up_char_buffer_dev* char_buffer){
 1000300:	defffc04 	addi	sp,sp,-16
 1000304:	dfc00315 	stw	ra,12(sp)
 1000308:	df000215 	stw	fp,8(sp)
 100030c:	df000204 	addi	fp,sp,8
 1000310:	e13ffe15 	stw	r4,-8(fp)
 1000314:	e17fff15 	stw	r5,-4(fp)
	printf("Drawing Character");
 1000318:	01004074 	movhi	r4,257
 100031c:	213a7204 	addi	r4,r4,-5688
 1000320:	1000b240 	call	1000b24 <printf>
}
 1000324:	e037883a 	mov	sp,fp
 1000328:	dfc00117 	ldw	ra,4(sp)
 100032c:	df000017 	ldw	fp,0(sp)
 1000330:	dec00204 	addi	sp,sp,8
 1000334:	f800283a 	ret

01000338 <_ZN10VGA_Screen4initEv>:
VGA_Screen::VGA_Screen(){
	printf("Constructing VGA Screen \n");
	pixel_buffer = init_pixel_buffer();
}

void VGA_Screen::init(){
 1000338:	defffd04 	addi	sp,sp,-12
 100033c:	dfc00215 	stw	ra,8(sp)
 1000340:	df000115 	stw	fp,4(sp)
 1000344:	df000104 	addi	fp,sp,4
 1000348:	e13fff15 	stw	r4,-4(fp)
	printf("Initializing VGA Screen");
 100034c:	01004074 	movhi	r4,257
 1000350:	213a7704 	addi	r4,r4,-5668
 1000354:	1000b240 	call	1000b24 <printf>

}
 1000358:	e037883a 	mov	sp,fp
 100035c:	dfc00117 	ldw	ra,4(sp)
 1000360:	df000017 	ldw	fp,0(sp)
 1000364:	dec00204 	addi	sp,sp,8
 1000368:	f800283a 	ret

0100036c <_ZN10VGA_ScreenC1Ev>:
 */

#include "VGA_Screen.h"

//Public Methods
VGA_Screen::VGA_Screen(){
 100036c:	defffd04 	addi	sp,sp,-12
 1000370:	dfc00215 	stw	ra,8(sp)
 1000374:	df000115 	stw	fp,4(sp)
 1000378:	df000104 	addi	fp,sp,4
 100037c:	e13fff15 	stw	r4,-4(fp)
	printf("Constructing VGA Screen \n");
 1000380:	01004074 	movhi	r4,257
 1000384:	213a7d04 	addi	r4,r4,-5644
 1000388:	1000c3c0 	call	1000c3c <puts>
	pixel_buffer = init_pixel_buffer();
 100038c:	e13fff17 	ldw	r4,-4(fp)
 1000390:	10002240 	call	1000224 <_ZN10VGA_Screen17init_pixel_bufferEv>
 1000394:	1007883a 	mov	r3,r2
 1000398:	e0bfff17 	ldw	r2,-4(fp)
 100039c:	10c00015 	stw	r3,0(r2)
}
 10003a0:	e037883a 	mov	sp,fp
 10003a4:	dfc00117 	ldw	ra,4(sp)
 10003a8:	df000017 	ldw	fp,0(sp)
 10003ac:	dec00204 	addi	sp,sp,8
 10003b0:	f800283a 	ret

010003b4 <_ZN10VGA_ScreenC2Ev>:
 */

#include "VGA_Screen.h"

//Public Methods
VGA_Screen::VGA_Screen(){
 10003b4:	defffd04 	addi	sp,sp,-12
 10003b8:	dfc00215 	stw	ra,8(sp)
 10003bc:	df000115 	stw	fp,4(sp)
 10003c0:	df000104 	addi	fp,sp,4
 10003c4:	e13fff15 	stw	r4,-4(fp)
	printf("Constructing VGA Screen \n");
 10003c8:	01004074 	movhi	r4,257
 10003cc:	213a7d04 	addi	r4,r4,-5644
 10003d0:	1000c3c0 	call	1000c3c <puts>
	pixel_buffer = init_pixel_buffer();
 10003d4:	e13fff17 	ldw	r4,-4(fp)
 10003d8:	10002240 	call	1000224 <_ZN10VGA_Screen17init_pixel_bufferEv>
 10003dc:	1007883a 	mov	r3,r2
 10003e0:	e0bfff17 	ldw	r2,-4(fp)
 10003e4:	10c00015 	stw	r3,0(r2)
}
 10003e8:	e037883a 	mov	sp,fp
 10003ec:	dfc00117 	ldw	ra,4(sp)
 10003f0:	df000017 	ldw	fp,0(sp)
 10003f4:	dec00204 	addi	sp,sp,8
 10003f8:	f800283a 	ret

010003fc <_Z12clear_screenP27alt_up_pixel_buffer_dma_dev>:
			"/dev/video_character_buffer_with_dma_0");
	alt_up_char_buffer_init(char_buffer);
	return char_buffer;
}

void clear_screen(alt_up_pixel_buffer_dma_dev* pixel_buffer) {
 10003fc:	defffd04 	addi	sp,sp,-12
 1000400:	dfc00215 	stw	ra,8(sp)
 1000404:	df000115 	stw	fp,4(sp)
 1000408:	df000104 	addi	fp,sp,4
 100040c:	e13fff15 	stw	r4,-4(fp)
	alt_up_pixel_buffer_dma_clear_screen(pixel_buffer, 0);
 1000410:	e13fff17 	ldw	r4,-4(fp)
 1000414:	000b883a 	mov	r5,zero
 1000418:	100c3cc0 	call	100c3cc <alt_up_pixel_buffer_dma_clear_screen>
}
 100041c:	e037883a 	mov	sp,fp
 1000420:	dfc00117 	ldw	ra,4(sp)
 1000424:	df000017 	ldw	fp,0(sp)
 1000428:	dec00204 	addi	sp,sp,8
 100042c:	f800283a 	ret

01000430 <main>:
		}
	}

}

int main() {
 1000430:	defffd04 	addi	sp,sp,-12
 1000434:	dfc00215 	stw	ra,8(sp)
 1000438:	df000115 	stw	fp,4(sp)
 100043c:	df000104 	addi	fp,sp,4
	VGA_Screen vga_screen;
 1000440:	e13fff04 	addi	r4,fp,-4
 1000444:	100036c0 	call	100036c <_ZN10VGA_ScreenC1Ev>
	vga_screen.init();
 1000448:	e13fff04 	addi	r4,fp,-4
 100044c:	10003380 	call	1000338 <_ZN10VGA_Screen4initEv>
 1000450:	0005883a 	mov	r2,zero
}
 1000454:	e037883a 	mov	sp,fp
 1000458:	dfc00117 	ldw	ra,4(sp)
 100045c:	df000017 	ldw	fp,0(sp)
 1000460:	dec00204 	addi	sp,sp,8
 1000464:	f800283a 	ret

01000468 <_Z10draw_boxesP27alt_up_pixel_buffer_dma_dev>:

	// Draw a white line to the foreground buffer
	alt_up_pixel_buffer_dma_draw_line(pixel_buffer, 0, 0, 320, 240, 0x00ff, 0);
}

void draw_boxes(alt_up_pixel_buffer_dma_dev* pixel_buffer) {
 1000468:	defff904 	addi	sp,sp,-28
 100046c:	dfc00615 	stw	ra,24(sp)
 1000470:	df000515 	stw	fp,20(sp)
 1000474:	df000504 	addi	fp,sp,20
 1000478:	e13fff15 	stw	r4,-4(fp)

	alt_up_pixel_buffer_dma_change_back_buffer_address(pixel_buffer,
			PIXEL_BUFFER_BASE);
 100047c:	e13fff17 	ldw	r4,-4(fp)
 1000480:	01400234 	movhi	r5,8
 1000484:	100c2e80 	call	100c2e8 <alt_up_pixel_buffer_dma_change_back_buffer_address>
	alt_up_pixel_buffer_dma_swap_buffers(pixel_buffer);
 1000488:	e13fff17 	ldw	r4,-4(fp)
 100048c:	100c3400 	call	100c340 <alt_up_pixel_buffer_dma_swap_buffers>
	while (alt_up_pixel_buffer_dma_check_swap_buffers_status(pixel_buffer))
 1000490:	e13fff17 	ldw	r4,-4(fp)
 1000494:	100c3980 	call	100c398 <alt_up_pixel_buffer_dma_check_swap_buffers_status>
 1000498:	1004c03a 	cmpne	r2,r2,zero
 100049c:	10803fcc 	andi	r2,r2,255
 10004a0:	1004c03a 	cmpne	r2,r2,zero
 10004a4:	103ffa1e 	bne	r2,zero,1000490 <_Z10draw_boxesP27alt_up_pixel_buffer_dma_dev+0x28>
		;
	alt_up_pixel_buffer_dma_clear_screen(pixel_buffer, 0);
 10004a8:	e13fff17 	ldw	r4,-4(fp)
 10004ac:	000b883a 	mov	r5,zero
 10004b0:	100c3cc0 	call	100c3cc <alt_up_pixel_buffer_dma_clear_screen>
	int hw = 0;
 10004b4:	e03ffe15 	stw	zero,-8(fp)
	if (hw) {
 10004b8:	e0bffe17 	ldw	r2,-8(fp)
 10004bc:	1005003a 	cmpeq	r2,r2,zero
 10004c0:	10001c1e 	bne	r2,zero,1000534 <_Z10draw_boxesP27alt_up_pixel_buffer_dma_dev+0xcc>
		printf("test");
 10004c4:	01004074 	movhi	r4,257
 10004c8:	213a8404 	addi	r4,r4,-5616
 10004cc:	1000b240 	call	1000b24 <printf>
		IOWR_32DIRECT(drawer_base, 0, 10);
 10004d0:	00c84004 	movi	r3,8448
 10004d4:	00800284 	movi	r2,10
 10004d8:	18800035 	stwio	r2,0(r3)
		// Set x1
		IOWR_32DIRECT(drawer_base, 4, 20);
 10004dc:	00c84104 	movi	r3,8452
 10004e0:	00800504 	movi	r2,20
 10004e4:	18800035 	stwio	r2,0(r3)
		// Set y1
		IOWR_32DIRECT(drawer_base, 8, 50);
 10004e8:	00c84204 	movi	r3,8456
 10004ec:	00800c84 	movi	r2,50
 10004f0:	18800035 	stwio	r2,0(r3)
		// Set x2
		IOWR_32DIRECT(drawer_base, 12, 60);
 10004f4:	00c84304 	movi	r3,8460
 10004f8:	00800f04 	movi	r2,60
 10004fc:	18800035 	stwio	r2,0(r3)
		// Set y2
		IOWR_32DIRECT(drawer_base, 16, 0x0110);
 1000500:	00c84404 	movi	r3,8464
 1000504:	00804404 	movi	r2,272
 1000508:	18800035 	stwio	r2,0(r3)
		// Set colour
		IOWR_32DIRECT(drawer_base, 20, 1);
 100050c:	00c84504 	movi	r3,8468
 1000510:	00800044 	movi	r2,1
 1000514:	18800035 	stwio	r2,0(r3)
		// Start drawing
		while (IORD_32DIRECT(drawer_base,20) == 0)
 1000518:	00884504 	movi	r2,8468
 100051c:	10800037 	ldwio	r2,0(r2)
 1000520:	1005003a 	cmpeq	r2,r2,zero
 1000524:	10803fcc 	andi	r2,r2,255
 1000528:	1004c03a 	cmpne	r2,r2,zero
 100052c:	103ffa1e 	bne	r2,zero,1000518 <_Z10draw_boxesP27alt_up_pixel_buffer_dma_dev+0xb0>
 1000530:	00000d06 	br	1000568 <_Z10draw_boxesP27alt_up_pixel_buffer_dma_dev+0x100>
			; // wait until done
	} else {
		printf("test2");
 1000534:	01004074 	movhi	r4,257
 1000538:	213a8604 	addi	r4,r4,-5608
 100053c:	1000b240 	call	1000b24 <printf>
		alt_up_pixel_buffer_dma_draw_box(pixel_buffer, 10, 20, 50, 60, 0x0101,
				0);
 1000540:	00800f04 	movi	r2,60
 1000544:	d8800015 	stw	r2,0(sp)
 1000548:	00804044 	movi	r2,257
 100054c:	d8800115 	stw	r2,4(sp)
 1000550:	d8000215 	stw	zero,8(sp)
 1000554:	e13fff17 	ldw	r4,-4(fp)
 1000558:	01400284 	movi	r5,10
 100055c:	01800504 	movi	r6,20
 1000560:	01c00c84 	movi	r7,50
 1000564:	100c5380 	call	100c538 <alt_up_pixel_buffer_dma_draw_box>
	}
}
 1000568:	e037883a 	mov	sp,fp
 100056c:	dfc00117 	ldw	ra,4(sp)
 1000570:	df000017 	ldw	fp,0(sp)
 1000574:	dec00204 	addi	sp,sp,8
 1000578:	f800283a 	ret

0100057c <_Z18draw_diagonal_lineP27alt_up_pixel_buffer_dma_dev>:

	alt_up_char_buffer_string(char_buffer, "eece381", 40, 30);

}

void draw_diagonal_line(alt_up_pixel_buffer_dma_dev* pixel_buffer) {
 100057c:	defffa04 	addi	sp,sp,-24
 1000580:	dfc00515 	stw	ra,20(sp)
 1000584:	df000415 	stw	fp,16(sp)
 1000588:	df000404 	addi	fp,sp,16
 100058c:	e13fff15 	stw	r4,-4(fp)

	// Draw a white line to the foreground buffer
	alt_up_pixel_buffer_dma_draw_line(pixel_buffer, 0, 0, 320, 240, 0x00ff, 0);
 1000590:	00803c04 	movi	r2,240
 1000594:	d8800015 	stw	r2,0(sp)
 1000598:	00803fc4 	movi	r2,255
 100059c:	d8800115 	stw	r2,4(sp)
 10005a0:	d8000215 	stw	zero,8(sp)
 10005a4:	e13fff17 	ldw	r4,-4(fp)
 10005a8:	000b883a 	mov	r5,zero
 10005ac:	000d883a 	mov	r6,zero
 10005b0:	01c05004 	movi	r7,320
 10005b4:	100d3000 	call	100d300 <alt_up_pixel_buffer_dma_draw_line>
}
 10005b8:	e037883a 	mov	sp,fp
 10005bc:	dfc00117 	ldw	ra,4(sp)
 10005c0:	df000017 	ldw	fp,0(sp)
 10005c4:	dec00204 	addi	sp,sp,8
 10005c8:	f800283a 	ret

010005cc <_Z14draw_characterP22alt_up_char_buffer_dev>:

void clear_screen(alt_up_pixel_buffer_dma_dev* pixel_buffer) {
	alt_up_pixel_buffer_dma_clear_screen(pixel_buffer, 0);
}

void draw_character(alt_up_char_buffer_dev *char_buffer) {
 10005cc:	defffd04 	addi	sp,sp,-12
 10005d0:	dfc00215 	stw	ra,8(sp)
 10005d4:	df000115 	stw	fp,4(sp)
 10005d8:	df000104 	addi	fp,sp,4
 10005dc:	e13fff15 	stw	r4,-4(fp)

	alt_up_char_buffer_string(char_buffer, "eece381", 40, 30);
 10005e0:	e13fff17 	ldw	r4,-4(fp)
 10005e4:	01404074 	movhi	r5,257
 10005e8:	297a8804 	addi	r5,r5,-5600
 10005ec:	01800a04 	movi	r6,40
 10005f0:	01c00784 	movi	r7,30
 10005f4:	100bf8c0 	call	100bf8c <alt_up_char_buffer_string>

}
 10005f8:	e037883a 	mov	sp,fp
 10005fc:	dfc00117 	ldw	ra,4(sp)
 1000600:	df000017 	ldw	fp,0(sp)
 1000604:	dec00204 	addi	sp,sp,8
 1000608:	f800283a 	ret

0100060c <_Z16init_char_bufferv>:
	alt_up_pixel_buffer_dma_dev* pixel_buffer;
	pixel_buffer = alt_up_pixel_buffer_dma_open_dev("/dev/buffer_dma");
	return pixel_buffer;
}

alt_up_char_buffer_dev* init_char_buffer() {
 100060c:	defffd04 	addi	sp,sp,-12
 1000610:	dfc00215 	stw	ra,8(sp)
 1000614:	df000115 	stw	fp,4(sp)
 1000618:	df000104 	addi	fp,sp,4
	alt_up_char_buffer_dev* char_buffer;
	char_buffer = alt_up_char_buffer_open_dev(
			"/dev/video_character_buffer_with_dma_0");
 100061c:	01004074 	movhi	r4,257
 1000620:	213a8a04 	addi	r4,r4,-5592
 1000624:	100be7c0 	call	100be7c <alt_up_char_buffer_open_dev>
 1000628:	e0bfff15 	stw	r2,-4(fp)
	alt_up_char_buffer_init(char_buffer);
 100062c:	e13fff17 	ldw	r4,-4(fp)
 1000630:	100bdf80 	call	100bdf8 <alt_up_char_buffer_init>
	return char_buffer;
 1000634:	e0bfff17 	ldw	r2,-4(fp)
}
 1000638:	e037883a 	mov	sp,fp
 100063c:	dfc00117 	ldw	ra,4(sp)
 1000640:	df000017 	ldw	fp,0(sp)
 1000644:	dec00204 	addi	sp,sp,8
 1000648:	f800283a 	ret

0100064c <_Z17init_pixel_bufferv>:
	alt_up_char_buffer_dev* char_buffer = init_char_buffer();
	//clear_screen(pixel_buffer);
	draw_character(char_buffer);
}

alt_up_pixel_buffer_dma_dev* init_pixel_buffer() {
 100064c:	defffd04 	addi	sp,sp,-12
 1000650:	dfc00215 	stw	ra,8(sp)
 1000654:	df000115 	stw	fp,4(sp)
 1000658:	df000104 	addi	fp,sp,4
	alt_up_pixel_buffer_dma_dev* pixel_buffer;
	pixel_buffer = alt_up_pixel_buffer_dma_open_dev("/dev/buffer_dma");
 100065c:	01004074 	movhi	r4,257
 1000660:	213a9404 	addi	r4,r4,-5552
 1000664:	100c0fc0 	call	100c0fc <alt_up_pixel_buffer_dma_open_dev>
 1000668:	e0bfff15 	stw	r2,-4(fp)
	return pixel_buffer;
 100066c:	e0bfff17 	ldw	r2,-4(fp)
}
 1000670:	e037883a 	mov	sp,fp
 1000674:	dfc00117 	ldw	ra,4(sp)
 1000678:	df000017 	ldw	fp,0(sp)
 100067c:	dec00204 	addi	sp,sp,8
 1000680:	f800283a 	ret

01000684 <_Z8junkcodev>:
int main() {
	VGA_Screen vga_screen;
	vga_screen.init();
}

void junkcode(){
 1000684:	defffd04 	addi	sp,sp,-12
 1000688:	dfc00215 	stw	ra,8(sp)
 100068c:	df000115 	stw	fp,4(sp)
 1000690:	df000104 	addi	fp,sp,4
	printf("eclipse is a bitch");
 1000694:	01004074 	movhi	r4,257
 1000698:	213a9804 	addi	r4,r4,-5536
 100069c:	1000b240 	call	1000b24 <printf>
		alt_up_pixel_buffer_dma_dev *pixel_buffer = init_pixel_buffer();
 10006a0:	100064c0 	call	100064c <_Z17init_pixel_bufferv>
 10006a4:	e0bfff15 	stw	r2,-4(fp)
		if (pixel_buffer == 0) {
 10006a8:	e0bfff17 	ldw	r2,-4(fp)
 10006ac:	1004c03a 	cmpne	r2,r2,zero
 10006b0:	1000031e 	bne	r2,zero,10006c0 <_Z8junkcodev+0x3c>
			printf(
					"error initializing pixel buffer (check name in alt_up_pixel_buffer_dma_open_dev)\n");
 10006b4:	01004074 	movhi	r4,257
 10006b8:	213a9d04 	addi	r4,r4,-5516
 10006bc:	1000c3c0 	call	1000c3c <puts>
		}
		alt_up_pixel_buffer_dma_change_back_buffer_address(pixel_buffer,
				PIXEL_BUFFER_BASE);
 10006c0:	e13fff17 	ldw	r4,-4(fp)
 10006c4:	01400234 	movhi	r5,8
 10006c8:	100c2e80 	call	100c2e8 <alt_up_pixel_buffer_dma_change_back_buffer_address>
		alt_up_pixel_buffer_dma_swap_buffers(pixel_buffer);
 10006cc:	e13fff17 	ldw	r4,-4(fp)
 10006d0:	100c3400 	call	100c340 <alt_up_pixel_buffer_dma_swap_buffers>
		while (alt_up_pixel_buffer_dma_check_swap_buffers_status(pixel_buffer))
 10006d4:	e13fff17 	ldw	r4,-4(fp)
 10006d8:	100c3980 	call	100c398 <alt_up_pixel_buffer_dma_check_swap_buffers_status>
 10006dc:	1004c03a 	cmpne	r2,r2,zero
 10006e0:	10803fcc 	andi	r2,r2,255
 10006e4:	1004c03a 	cmpne	r2,r2,zero
 10006e8:	103ffa1e 	bne	r2,zero,10006d4 <_Z8junkcodev+0x50>
			;
		alt_up_pixel_buffer_dma_clear_screen(pixel_buffer, 0);
 10006ec:	e13fff17 	ldw	r4,-4(fp)
 10006f0:	000b883a 	mov	r5,zero
 10006f4:	100c3cc0 	call	100c3cc <alt_up_pixel_buffer_dma_clear_screen>
}
 10006f8:	e037883a 	mov	sp,fp
 10006fc:	dfc00117 	ldw	ra,4(sp)
 1000700:	df000017 	ldw	fp,0(sp)
 1000704:	dec00204 	addi	sp,sp,8
 1000708:	f800283a 	ret

0100070c <_Z3ex5v>:
		alt_up_pixel_buffer_dma_draw_box(pixel_buffer, 10, 20, 50, 60, 0x0101,
				0);
	}
}

void ex5() {
 100070c:	defff304 	addi	sp,sp,-52
 1000710:	dfc00c15 	stw	ra,48(sp)
 1000714:	df000b15 	stw	fp,44(sp)
 1000718:	df000b04 	addi	fp,sp,44

	alt_up_pixel_buffer_dma_dev *pixel_buffer = init_pixel_buffer();
 100071c:	100064c0 	call	100064c <_Z17init_pixel_bufferv>
 1000720:	e0bff915 	stw	r2,-28(fp)
	if (pixel_buffer == 0) {
 1000724:	e0bff917 	ldw	r2,-28(fp)
 1000728:	1004c03a 	cmpne	r2,r2,zero
 100072c:	1000031e 	bne	r2,zero,100073c <_Z3ex5v+0x30>
		printf(
				"error initializing pixel buffer (check name in alt_up_pixel_buffer_dma_open_dev)\n");
 1000730:	01004074 	movhi	r4,257
 1000734:	213a9d04 	addi	r4,r4,-5516
 1000738:	1000c3c0 	call	1000c3c <puts>
	}
	alt_up_pixel_buffer_dma_change_back_buffer_address(pixel_buffer,
			PIXEL_BUFFER_BASE);
 100073c:	e13ff917 	ldw	r4,-28(fp)
 1000740:	01400234 	movhi	r5,8
 1000744:	100c2e80 	call	100c2e8 <alt_up_pixel_buffer_dma_change_back_buffer_address>
	alt_up_pixel_buffer_dma_swap_buffers(pixel_buffer);
 1000748:	e13ff917 	ldw	r4,-28(fp)
 100074c:	100c3400 	call	100c340 <alt_up_pixel_buffer_dma_swap_buffers>
	while (alt_up_pixel_buffer_dma_check_swap_buffers_status(pixel_buffer))
 1000750:	e13ff917 	ldw	r4,-28(fp)
 1000754:	100c3980 	call	100c398 <alt_up_pixel_buffer_dma_check_swap_buffers_status>
 1000758:	1004c03a 	cmpne	r2,r2,zero
 100075c:	10803fcc 	andi	r2,r2,255
 1000760:	1004c03a 	cmpne	r2,r2,zero
 1000764:	103ffa1e 	bne	r2,zero,1000750 <_Z3ex5v+0x44>
		;
	alt_up_pixel_buffer_dma_clear_screen(pixel_buffer, 0);
 1000768:	e13ff917 	ldw	r4,-28(fp)
 100076c:	000b883a 	mov	r5,zero
 1000770:	100c3cc0 	call	100c3cc <alt_up_pixel_buffer_dma_clear_screen>

	int hw = 1;
 1000774:	00800044 	movi	r2,1
 1000778:	e0bff815 	stw	r2,-32(fp)
 100077c:	00000006 	br	1000780 <_Z3ex5v+0x74>
	while (1) {
		if (hw) {
 1000780:	e0bff817 	ldw	r2,-32(fp)
 1000784:	1005003a 	cmpeq	r2,r2,zero
 1000788:	10003b1e 	bne	r2,zero,1000878 <_Z3ex5v+0x16c>

			IOWR_32DIRECT(drawer_base, 0, rand()%320);
 100078c:	1000c6c0 	call	1000c6c <rand>
 1000790:	1009883a 	mov	r4,r2
 1000794:	01405004 	movi	r5,320
 1000798:	1000ab40 	call	1000ab4 <__modsi3>
 100079c:	1007883a 	mov	r3,r2
 10007a0:	00884004 	movi	r2,8448
 10007a4:	10c00035 	stwio	r3,0(r2)
			// Set x1
			IOWR_32DIRECT(drawer_base, 4, rand()%240);
 10007a8:	1000c6c0 	call	1000c6c <rand>
 10007ac:	1009883a 	mov	r4,r2
 10007b0:	01403c04 	movi	r5,240
 10007b4:	1000ab40 	call	1000ab4 <__modsi3>
 10007b8:	1007883a 	mov	r3,r2
 10007bc:	00884104 	movi	r2,8452
 10007c0:	10c00035 	stwio	r3,0(r2)
			// Set y1
			IOWR_32DIRECT(drawer_base, 8, rand()%320);
 10007c4:	1000c6c0 	call	1000c6c <rand>
 10007c8:	1009883a 	mov	r4,r2
 10007cc:	01405004 	movi	r5,320
 10007d0:	1000ab40 	call	1000ab4 <__modsi3>
 10007d4:	1007883a 	mov	r3,r2
 10007d8:	00884204 	movi	r2,8456
 10007dc:	10c00035 	stwio	r3,0(r2)
			// Set x2
			IOWR_32DIRECT(drawer_base, 12, rand()%320);
 10007e0:	1000c6c0 	call	1000c6c <rand>
 10007e4:	1009883a 	mov	r4,r2
 10007e8:	01405004 	movi	r5,320
 10007ec:	1000ab40 	call	1000ab4 <__modsi3>
 10007f0:	1007883a 	mov	r3,r2
 10007f4:	00884304 	movi	r2,8460
 10007f8:	10c00035 	stwio	r3,0(r2)
			// Set y2
			IOWR_32DIRECT(drawer_base, 16, rand()%0x10000);
 10007fc:	1000c6c0 	call	1000c6c <rand>
 1000800:	1007883a 	mov	r3,r2
 1000804:	00a00074 	movhi	r2,32769
 1000808:	10bfffc4 	addi	r2,r2,-1
 100080c:	1886703a 	and	r3,r3,r2
 1000810:	e0fffe15 	stw	r3,-8(fp)
 1000814:	e0fffe17 	ldw	r3,-8(fp)
 1000818:	1804403a 	cmpge	r2,r3,zero
 100081c:	1000091e 	bne	r2,zero,1000844 <_Z3ex5v+0x138>
 1000820:	e0bffe17 	ldw	r2,-8(fp)
 1000824:	10bfffc4 	addi	r2,r2,-1
 1000828:	e0bffe15 	stw	r2,-8(fp)
 100082c:	e0fffe17 	ldw	r3,-8(fp)
 1000830:	18fffff4 	orhi	r3,r3,65535
 1000834:	e0fffe15 	stw	r3,-8(fp)
 1000838:	e0bffe17 	ldw	r2,-8(fp)
 100083c:	10800044 	addi	r2,r2,1
 1000840:	e0bffe15 	stw	r2,-8(fp)
 1000844:	e0fffe17 	ldw	r3,-8(fp)
 1000848:	00884404 	movi	r2,8464
 100084c:	10c00035 	stwio	r3,0(r2)
			// Set colour
			IOWR_32DIRECT(drawer_base, 20, 1);
 1000850:	00c84504 	movi	r3,8468
 1000854:	00800044 	movi	r2,1
 1000858:	18800035 	stwio	r2,0(r3)
			// Start drawing
			while (IORD_32DIRECT(drawer_base,20) == 0)
 100085c:	00884504 	movi	r2,8468
 1000860:	10800037 	ldwio	r2,0(r2)
 1000864:	1005003a 	cmpeq	r2,r2,zero
 1000868:	10803fcc 	andi	r2,r2,255
 100086c:	1004c03a 	cmpne	r2,r2,zero
 1000870:	103ffa1e 	bne	r2,zero,100085c <_Z3ex5v+0x150>
 1000874:	003fc206 	br	1000780 <_Z3ex5v+0x74>
				; // wait until done
		} else {
			alt_up_pixel_buffer_dma_draw_box(pixel_buffer, rand() % 320,
					rand() % 240, rand() % 320, rand() % 320, rand() % 0x10000,
					0);
 1000878:	1000c6c0 	call	1000c6c <rand>
 100087c:	1009883a 	mov	r4,r2
 1000880:	01405004 	movi	r5,320
 1000884:	1000ab40 	call	1000ab4 <__modsi3>
 1000888:	e0bffd15 	stw	r2,-12(fp)
 100088c:	1000c6c0 	call	1000c6c <rand>
 1000890:	1009883a 	mov	r4,r2
 1000894:	01403c04 	movi	r5,240
 1000898:	1000ab40 	call	1000ab4 <__modsi3>
 100089c:	e0bffc15 	stw	r2,-16(fp)
 10008a0:	1000c6c0 	call	1000c6c <rand>
 10008a4:	1009883a 	mov	r4,r2
 10008a8:	01405004 	movi	r5,320
 10008ac:	1000ab40 	call	1000ab4 <__modsi3>
 10008b0:	e0bffb15 	stw	r2,-20(fp)
 10008b4:	1000c6c0 	call	1000c6c <rand>
 10008b8:	1009883a 	mov	r4,r2
 10008bc:	01405004 	movi	r5,320
 10008c0:	1000ab40 	call	1000ab4 <__modsi3>
 10008c4:	e0bffa15 	stw	r2,-24(fp)
 10008c8:	1000c6c0 	call	1000c6c <rand>
 10008cc:	1007883a 	mov	r3,r2
 10008d0:	00a00074 	movhi	r2,32769
 10008d4:	10bfffc4 	addi	r2,r2,-1
 10008d8:	1886703a 	and	r3,r3,r2
 10008dc:	e0ffff15 	stw	r3,-4(fp)
 10008e0:	e0ffff17 	ldw	r3,-4(fp)
 10008e4:	1804403a 	cmpge	r2,r3,zero
 10008e8:	1000091e 	bne	r2,zero,1000910 <_Z3ex5v+0x204>
 10008ec:	e0bfff17 	ldw	r2,-4(fp)
 10008f0:	10bfffc4 	addi	r2,r2,-1
 10008f4:	e0bfff15 	stw	r2,-4(fp)
 10008f8:	e0ffff17 	ldw	r3,-4(fp)
 10008fc:	18fffff4 	orhi	r3,r3,65535
 1000900:	e0ffff15 	stw	r3,-4(fp)
 1000904:	e0bfff17 	ldw	r2,-4(fp)
 1000908:	10800044 	addi	r2,r2,1
 100090c:	e0bfff15 	stw	r2,-4(fp)
 1000910:	e0bfff17 	ldw	r2,-4(fp)
 1000914:	e0fffa17 	ldw	r3,-24(fp)
 1000918:	d8c00015 	stw	r3,0(sp)
 100091c:	d8800115 	stw	r2,4(sp)
 1000920:	d8000215 	stw	zero,8(sp)
 1000924:	e13ff917 	ldw	r4,-28(fp)
 1000928:	e17ffd17 	ldw	r5,-12(fp)
 100092c:	e1bffc17 	ldw	r6,-16(fp)
 1000930:	e1fffb17 	ldw	r7,-20(fp)
 1000934:	100c5380 	call	100c538 <alt_up_pixel_buffer_dma_draw_box>
	while (alt_up_pixel_buffer_dma_check_swap_buffers_status(pixel_buffer))
		;
	alt_up_pixel_buffer_dma_clear_screen(pixel_buffer, 0);

	int hw = 1;
	while (1) {
 1000938:	003f9106 	br	1000780 <_Z3ex5v+0x74>

0100093c <_Z3ex4v>:
void clear_screen(alt_up_pixel_buffer_dma_dev* pixel_buffer);
alt_up_char_buffer_dev* init_char_buffer();
void ex4();
void ex5();

void ex4() {
 100093c:	defffc04 	addi	sp,sp,-16
 1000940:	dfc00315 	stw	ra,12(sp)
 1000944:	df000215 	stw	fp,8(sp)
 1000948:	df000204 	addi	fp,sp,8
	alt_up_pixel_buffer_dma_dev* pixel_buffer;
	pixel_buffer = alt_up_pixel_buffer_dma_open_dev("/dev/buffer_dma");
 100094c:	01004074 	movhi	r4,257
 1000950:	213a9404 	addi	r4,r4,-5552
 1000954:	100c0fc0 	call	100c0fc <alt_up_pixel_buffer_dma_open_dev>
 1000958:	e0bfff15 	stw	r2,-4(fp)
	if (pixel_buffer == 0) {
 100095c:	e0bfff17 	ldw	r2,-4(fp)
 1000960:	1004c03a 	cmpne	r2,r2,zero
 1000964:	1000031e 	bne	r2,zero,1000974 <_Z3ex4v+0x38>
		printf(
				"error initializing pixel buffer (check name in alt_up_pixel_buffer_dma_open_dev)\n");
 1000968:	01004074 	movhi	r4,257
 100096c:	213a9d04 	addi	r4,r4,-5516
 1000970:	1000c3c0 	call	1000c3c <puts>
	}
	alt_up_pixel_buffer_dma_change_back_buffer_address(pixel_buffer,
			PIXEL_BUFFER_BASE);
 1000974:	e13fff17 	ldw	r4,-4(fp)
 1000978:	01400234 	movhi	r5,8
 100097c:	100c2e80 	call	100c2e8 <alt_up_pixel_buffer_dma_change_back_buffer_address>
	// Swap background and foreground buffers
	alt_up_pixel_buffer_dma_swap_buffers(pixel_buffer);
 1000980:	e13fff17 	ldw	r4,-4(fp)
 1000984:	100c3400 	call	100c340 <alt_up_pixel_buffer_dma_swap_buffers>

	while (alt_up_pixel_buffer_dma_check_swap_buffers_status(pixel_buffer))
 1000988:	e13fff17 	ldw	r4,-4(fp)
 100098c:	100c3980 	call	100c398 <alt_up_pixel_buffer_dma_check_swap_buffers_status>
 1000990:	1004c03a 	cmpne	r2,r2,zero
 1000994:	10803fcc 	andi	r2,r2,255
 1000998:	1004c03a 	cmpne	r2,r2,zero
 100099c:	103ffa1e 	bne	r2,zero,1000988 <_Z3ex4v+0x4c>
		;
	// Clear the screen
	alt_up_pixel_buffer_dma_clear_screen(pixel_buffer, 0);
 10009a0:	e13fff17 	ldw	r4,-4(fp)
 10009a4:	000b883a 	mov	r5,zero
 10009a8:	100c3cc0 	call	100c3cc <alt_up_pixel_buffer_dma_clear_screen>
	draw_diagonal_line(pixel_buffer);
 10009ac:	e13fff17 	ldw	r4,-4(fp)
 10009b0:	100057c0 	call	100057c <_Z18draw_diagonal_lineP27alt_up_pixel_buffer_dma_dev>
	alt_up_char_buffer_dev* char_buffer = init_char_buffer();
 10009b4:	100060c0 	call	100060c <_Z16init_char_bufferv>
 10009b8:	e0bffe15 	stw	r2,-8(fp)
	//clear_screen(pixel_buffer);
	draw_character(char_buffer);
 10009bc:	e13ffe17 	ldw	r4,-8(fp)
 10009c0:	10005cc0 	call	10005cc <_Z14draw_characterP22alt_up_char_buffer_dev>
}
 10009c4:	e037883a 	mov	sp,fp
 10009c8:	dfc00117 	ldw	ra,4(sp)
 10009cc:	df000017 	ldw	fp,0(sp)
 10009d0:	dec00204 	addi	sp,sp,8
 10009d4:	f800283a 	ret

010009d8 <udivmodsi4>:
 10009d8:	29001b2e 	bgeu	r5,r4,1000a48 <udivmodsi4+0x70>
 10009dc:	28001a16 	blt	r5,zero,1000a48 <udivmodsi4+0x70>
 10009e0:	00800044 	movi	r2,1
 10009e4:	0007883a 	mov	r3,zero
 10009e8:	01c007c4 	movi	r7,31
 10009ec:	00000306 	br	10009fc <udivmodsi4+0x24>
 10009f0:	19c01326 	beq	r3,r7,1000a40 <udivmodsi4+0x68>
 10009f4:	18c00044 	addi	r3,r3,1
 10009f8:	28000416 	blt	r5,zero,1000a0c <udivmodsi4+0x34>
 10009fc:	294b883a 	add	r5,r5,r5
 1000a00:	1085883a 	add	r2,r2,r2
 1000a04:	293ffa36 	bltu	r5,r4,10009f0 <udivmodsi4+0x18>
 1000a08:	10000d26 	beq	r2,zero,1000a40 <udivmodsi4+0x68>
 1000a0c:	0007883a 	mov	r3,zero
 1000a10:	21400236 	bltu	r4,r5,1000a1c <udivmodsi4+0x44>
 1000a14:	2149c83a 	sub	r4,r4,r5
 1000a18:	1886b03a 	or	r3,r3,r2
 1000a1c:	1004d07a 	srli	r2,r2,1
 1000a20:	280ad07a 	srli	r5,r5,1
 1000a24:	103ffa1e 	bne	r2,zero,1000a10 <udivmodsi4+0x38>
 1000a28:	30000226 	beq	r6,zero,1000a34 <udivmodsi4+0x5c>
 1000a2c:	2005883a 	mov	r2,r4
 1000a30:	f800283a 	ret
 1000a34:	1809883a 	mov	r4,r3
 1000a38:	2005883a 	mov	r2,r4
 1000a3c:	f800283a 	ret
 1000a40:	0007883a 	mov	r3,zero
 1000a44:	003ff806 	br	1000a28 <udivmodsi4+0x50>
 1000a48:	00800044 	movi	r2,1
 1000a4c:	0007883a 	mov	r3,zero
 1000a50:	003fef06 	br	1000a10 <udivmodsi4+0x38>

01000a54 <__divsi3>:
 1000a54:	defffe04 	addi	sp,sp,-8
 1000a58:	dc000015 	stw	r16,0(sp)
 1000a5c:	dfc00115 	stw	ra,4(sp)
 1000a60:	0021883a 	mov	r16,zero
 1000a64:	20000c16 	blt	r4,zero,1000a98 <__divsi3+0x44>
 1000a68:	000d883a 	mov	r6,zero
 1000a6c:	28000e16 	blt	r5,zero,1000aa8 <__divsi3+0x54>
 1000a70:	10009d80 	call	10009d8 <udivmodsi4>
 1000a74:	1007883a 	mov	r3,r2
 1000a78:	8005003a 	cmpeq	r2,r16,zero
 1000a7c:	1000011e 	bne	r2,zero,1000a84 <__divsi3+0x30>
 1000a80:	00c7c83a 	sub	r3,zero,r3
 1000a84:	1805883a 	mov	r2,r3
 1000a88:	dfc00117 	ldw	ra,4(sp)
 1000a8c:	dc000017 	ldw	r16,0(sp)
 1000a90:	dec00204 	addi	sp,sp,8
 1000a94:	f800283a 	ret
 1000a98:	0109c83a 	sub	r4,zero,r4
 1000a9c:	04000044 	movi	r16,1
 1000aa0:	000d883a 	mov	r6,zero
 1000aa4:	283ff20e 	bge	r5,zero,1000a70 <__divsi3+0x1c>
 1000aa8:	014bc83a 	sub	r5,zero,r5
 1000aac:	8021003a 	cmpeq	r16,r16,zero
 1000ab0:	003fef06 	br	1000a70 <__divsi3+0x1c>

01000ab4 <__modsi3>:
 1000ab4:	deffff04 	addi	sp,sp,-4
 1000ab8:	dfc00015 	stw	ra,0(sp)
 1000abc:	01800044 	movi	r6,1
 1000ac0:	2807883a 	mov	r3,r5
 1000ac4:	20000416 	blt	r4,zero,1000ad8 <__modsi3+0x24>
 1000ac8:	28000c16 	blt	r5,zero,1000afc <__modsi3+0x48>
 1000acc:	dfc00017 	ldw	ra,0(sp)
 1000ad0:	dec00104 	addi	sp,sp,4
 1000ad4:	10009d81 	jmpi	10009d8 <udivmodsi4>
 1000ad8:	0109c83a 	sub	r4,zero,r4
 1000adc:	28000b16 	blt	r5,zero,1000b0c <__modsi3+0x58>
 1000ae0:	180b883a 	mov	r5,r3
 1000ae4:	01800044 	movi	r6,1
 1000ae8:	10009d80 	call	10009d8 <udivmodsi4>
 1000aec:	0085c83a 	sub	r2,zero,r2
 1000af0:	dfc00017 	ldw	ra,0(sp)
 1000af4:	dec00104 	addi	sp,sp,4
 1000af8:	f800283a 	ret
 1000afc:	014bc83a 	sub	r5,zero,r5
 1000b00:	dfc00017 	ldw	ra,0(sp)
 1000b04:	dec00104 	addi	sp,sp,4
 1000b08:	10009d81 	jmpi	10009d8 <udivmodsi4>
 1000b0c:	0147c83a 	sub	r3,zero,r5
 1000b10:	003ff306 	br	1000ae0 <__modsi3+0x2c>

01000b14 <__udivsi3>:
 1000b14:	000d883a 	mov	r6,zero
 1000b18:	10009d81 	jmpi	10009d8 <udivmodsi4>

01000b1c <__umodsi3>:
 1000b1c:	01800044 	movi	r6,1
 1000b20:	10009d81 	jmpi	10009d8 <udivmodsi4>

01000b24 <printf>:
 1000b24:	defffb04 	addi	sp,sp,-20
 1000b28:	dfc00115 	stw	ra,4(sp)
 1000b2c:	d9400215 	stw	r5,8(sp)
 1000b30:	d9800315 	stw	r6,12(sp)
 1000b34:	d9c00415 	stw	r7,16(sp)
 1000b38:	00804074 	movhi	r2,257
 1000b3c:	10824c04 	addi	r2,r2,2352
 1000b40:	10c00017 	ldw	r3,0(r2)
 1000b44:	200b883a 	mov	r5,r4
 1000b48:	d8800204 	addi	r2,sp,8
 1000b4c:	19000217 	ldw	r4,8(r3)
 1000b50:	100d883a 	mov	r6,r2
 1000b54:	d8800015 	stw	r2,0(sp)
 1000b58:	1002c740 	call	1002c74 <__vfprintf_internal>
 1000b5c:	dfc00117 	ldw	ra,4(sp)
 1000b60:	dec00504 	addi	sp,sp,20
 1000b64:	f800283a 	ret

01000b68 <_printf_r>:
 1000b68:	defffc04 	addi	sp,sp,-16
 1000b6c:	dfc00115 	stw	ra,4(sp)
 1000b70:	d9800215 	stw	r6,8(sp)
 1000b74:	d9c00315 	stw	r7,12(sp)
 1000b78:	280d883a 	mov	r6,r5
 1000b7c:	21400217 	ldw	r5,8(r4)
 1000b80:	d8c00204 	addi	r3,sp,8
 1000b84:	180f883a 	mov	r7,r3
 1000b88:	d8c00015 	stw	r3,0(sp)
 1000b8c:	1000db00 	call	1000db0 <___vfprintf_internal_r>
 1000b90:	dfc00117 	ldw	ra,4(sp)
 1000b94:	dec00404 	addi	sp,sp,16
 1000b98:	f800283a 	ret

01000b9c <_puts_r>:
 1000b9c:	defff604 	addi	sp,sp,-40
 1000ba0:	dc400715 	stw	r17,28(sp)
 1000ba4:	2023883a 	mov	r17,r4
 1000ba8:	2809883a 	mov	r4,r5
 1000bac:	dfc00915 	stw	ra,36(sp)
 1000bb0:	dcc00815 	stw	r19,32(sp)
 1000bb4:	2827883a 	mov	r19,r5
 1000bb8:	1000ce40 	call	1000ce4 <strlen>
 1000bbc:	89400217 	ldw	r5,8(r17)
 1000bc0:	00c04074 	movhi	r3,257
 1000bc4:	18fab204 	addi	r3,r3,-5432
 1000bc8:	01c00044 	movi	r7,1
 1000bcc:	12000044 	addi	r8,r2,1
 1000bd0:	d8c00515 	stw	r3,20(sp)
 1000bd4:	d9c00615 	stw	r7,24(sp)
 1000bd8:	d8c00304 	addi	r3,sp,12
 1000bdc:	01c00084 	movi	r7,2
 1000be0:	8809883a 	mov	r4,r17
 1000be4:	d80d883a 	mov	r6,sp
 1000be8:	d8c00015 	stw	r3,0(sp)
 1000bec:	dcc00315 	stw	r19,12(sp)
 1000bf0:	da000215 	stw	r8,8(sp)
 1000bf4:	d9c00115 	stw	r7,4(sp)
 1000bf8:	d8800415 	stw	r2,16(sp)
 1000bfc:	1004f300 	call	1004f30 <__sfvwrite_r>
 1000c00:	00ffffc4 	movi	r3,-1
 1000c04:	10000626 	beq	r2,zero,1000c20 <_puts_r+0x84>
 1000c08:	1805883a 	mov	r2,r3
 1000c0c:	dfc00917 	ldw	ra,36(sp)
 1000c10:	dcc00817 	ldw	r19,32(sp)
 1000c14:	dc400717 	ldw	r17,28(sp)
 1000c18:	dec00a04 	addi	sp,sp,40
 1000c1c:	f800283a 	ret
 1000c20:	00c00284 	movi	r3,10
 1000c24:	1805883a 	mov	r2,r3
 1000c28:	dfc00917 	ldw	ra,36(sp)
 1000c2c:	dcc00817 	ldw	r19,32(sp)
 1000c30:	dc400717 	ldw	r17,28(sp)
 1000c34:	dec00a04 	addi	sp,sp,40
 1000c38:	f800283a 	ret

01000c3c <puts>:
 1000c3c:	00804074 	movhi	r2,257
 1000c40:	10824c04 	addi	r2,r2,2352
 1000c44:	200b883a 	mov	r5,r4
 1000c48:	11000017 	ldw	r4,0(r2)
 1000c4c:	1000b9c1 	jmpi	1000b9c <_puts_r>

01000c50 <srand>:
 1000c50:	00804074 	movhi	r2,257
 1000c54:	10824c04 	addi	r2,r2,2352
 1000c58:	11400017 	ldw	r5,0(r2)
 1000c5c:	0007883a 	mov	r3,zero
 1000c60:	28c02a15 	stw	r3,168(r5)
 1000c64:	29002915 	stw	r4,164(r5)
 1000c68:	f800283a 	ret

01000c6c <rand>:
 1000c6c:	defffe04 	addi	sp,sp,-8
 1000c70:	00804074 	movhi	r2,257
 1000c74:	10824c04 	addi	r2,r2,2352
 1000c78:	dc000015 	stw	r16,0(sp)
 1000c7c:	14000017 	ldw	r16,0(r2)
 1000c80:	dfc00115 	stw	ra,4(sp)
 1000c84:	00932574 	movhi	r2,19605
 1000c88:	109fcb44 	addi	r2,r2,32557
 1000c8c:	82002917 	ldw	r8,164(r16)
 1000c90:	82402a17 	ldw	r9,168(r16)
 1000c94:	00d614b4 	movhi	r3,22610
 1000c98:	18fd0b44 	addi	r3,r3,-3027
 1000c9c:	4009883a 	mov	r4,r8
 1000ca0:	180f883a 	mov	r7,r3
 1000ca4:	100d883a 	mov	r6,r2
 1000ca8:	480b883a 	mov	r5,r9
 1000cac:	1007ff00 	call	1007ff0 <__muldi3>
 1000cb0:	02000044 	movi	r8,1
 1000cb4:	1209883a 	add	r4,r2,r8
 1000cb8:	2095803a 	cmpltu	r10,r4,r2
 1000cbc:	50d5883a 	add	r10,r10,r3
 1000cc0:	81002915 	stw	r4,164(r16)
 1000cc4:	01200034 	movhi	r4,32768
 1000cc8:	213fffc4 	addi	r4,r4,-1
 1000ccc:	2284703a 	and	r2,r4,r10
 1000cd0:	82802a15 	stw	r10,168(r16)
 1000cd4:	dfc00117 	ldw	ra,4(sp)
 1000cd8:	dc000017 	ldw	r16,0(sp)
 1000cdc:	dec00204 	addi	sp,sp,8
 1000ce0:	f800283a 	ret

01000ce4 <strlen>:
 1000ce4:	208000cc 	andi	r2,r4,3
 1000ce8:	2011883a 	mov	r8,r4
 1000cec:	1000161e 	bne	r2,zero,1000d48 <strlen+0x64>
 1000cf0:	20c00017 	ldw	r3,0(r4)
 1000cf4:	017fbff4 	movhi	r5,65279
 1000cf8:	297fbfc4 	addi	r5,r5,-257
 1000cfc:	01e02074 	movhi	r7,32897
 1000d00:	39e02004 	addi	r7,r7,-32640
 1000d04:	1945883a 	add	r2,r3,r5
 1000d08:	11c4703a 	and	r2,r2,r7
 1000d0c:	00c6303a 	nor	r3,zero,r3
 1000d10:	1886703a 	and	r3,r3,r2
 1000d14:	18000c1e 	bne	r3,zero,1000d48 <strlen+0x64>
 1000d18:	280d883a 	mov	r6,r5
 1000d1c:	380b883a 	mov	r5,r7
 1000d20:	21000104 	addi	r4,r4,4
 1000d24:	20800017 	ldw	r2,0(r4)
 1000d28:	1187883a 	add	r3,r2,r6
 1000d2c:	1946703a 	and	r3,r3,r5
 1000d30:	0084303a 	nor	r2,zero,r2
 1000d34:	10c4703a 	and	r2,r2,r3
 1000d38:	103ff926 	beq	r2,zero,1000d20 <strlen+0x3c>
 1000d3c:	20800007 	ldb	r2,0(r4)
 1000d40:	10000326 	beq	r2,zero,1000d50 <strlen+0x6c>
 1000d44:	21000044 	addi	r4,r4,1
 1000d48:	20800007 	ldb	r2,0(r4)
 1000d4c:	103ffd1e 	bne	r2,zero,1000d44 <strlen+0x60>
 1000d50:	2205c83a 	sub	r2,r4,r8
 1000d54:	f800283a 	ret

01000d58 <__sprint_r>:
 1000d58:	30800217 	ldw	r2,8(r6)
 1000d5c:	defffe04 	addi	sp,sp,-8
 1000d60:	dc000015 	stw	r16,0(sp)
 1000d64:	dfc00115 	stw	ra,4(sp)
 1000d68:	3021883a 	mov	r16,r6
 1000d6c:	0007883a 	mov	r3,zero
 1000d70:	1000061e 	bne	r2,zero,1000d8c <__sprint_r+0x34>
 1000d74:	1805883a 	mov	r2,r3
 1000d78:	30000115 	stw	zero,4(r6)
 1000d7c:	dfc00117 	ldw	ra,4(sp)
 1000d80:	dc000017 	ldw	r16,0(sp)
 1000d84:	dec00204 	addi	sp,sp,8
 1000d88:	f800283a 	ret
 1000d8c:	1004f300 	call	1004f30 <__sfvwrite_r>
 1000d90:	1007883a 	mov	r3,r2
 1000d94:	1805883a 	mov	r2,r3
 1000d98:	80000115 	stw	zero,4(r16)
 1000d9c:	80000215 	stw	zero,8(r16)
 1000da0:	dfc00117 	ldw	ra,4(sp)
 1000da4:	dc000017 	ldw	r16,0(sp)
 1000da8:	dec00204 	addi	sp,sp,8
 1000dac:	f800283a 	ret

01000db0 <___vfprintf_internal_r>:
 1000db0:	defea404 	addi	sp,sp,-1392
 1000db4:	dd815815 	stw	r22,1376(sp)
 1000db8:	dc015215 	stw	r16,1352(sp)
 1000dbc:	d9c15115 	stw	r7,1348(sp)
 1000dc0:	dfc15b15 	stw	ra,1388(sp)
 1000dc4:	df015a15 	stw	fp,1384(sp)
 1000dc8:	ddc15915 	stw	r23,1380(sp)
 1000dcc:	dd415715 	stw	r21,1372(sp)
 1000dd0:	dd015615 	stw	r20,1368(sp)
 1000dd4:	dcc15515 	stw	r19,1364(sp)
 1000dd8:	dc815415 	stw	r18,1360(sp)
 1000ddc:	dc415315 	stw	r17,1356(sp)
 1000de0:	282d883a 	mov	r22,r5
 1000de4:	3021883a 	mov	r16,r6
 1000de8:	d9014f15 	stw	r4,1340(sp)
 1000dec:	10055540 	call	1005554 <_localeconv_r>
 1000df0:	10800017 	ldw	r2,0(r2)
 1000df4:	d9c15117 	ldw	r7,1348(sp)
 1000df8:	d8814915 	stw	r2,1316(sp)
 1000dfc:	d8814f17 	ldw	r2,1340(sp)
 1000e00:	10000226 	beq	r2,zero,1000e0c <___vfprintf_internal_r+0x5c>
 1000e04:	10800e17 	ldw	r2,56(r2)
 1000e08:	10020d26 	beq	r2,zero,1001640 <___vfprintf_internal_r+0x890>
 1000e0c:	b080030b 	ldhu	r2,12(r22)
 1000e10:	1080020c 	andi	r2,r2,8
 1000e14:	10020e26 	beq	r2,zero,1001650 <___vfprintf_internal_r+0x8a0>
 1000e18:	b0800417 	ldw	r2,16(r22)
 1000e1c:	10020c26 	beq	r2,zero,1001650 <___vfprintf_internal_r+0x8a0>
 1000e20:	b200030b 	ldhu	r8,12(r22)
 1000e24:	00800284 	movi	r2,10
 1000e28:	40c0068c 	andi	r3,r8,26
 1000e2c:	18802f1e 	bne	r3,r2,1000eec <___vfprintf_internal_r+0x13c>
 1000e30:	b080038f 	ldh	r2,14(r22)
 1000e34:	10002d16 	blt	r2,zero,1000eec <___vfprintf_internal_r+0x13c>
 1000e38:	b240038b 	ldhu	r9,14(r22)
 1000e3c:	b2800717 	ldw	r10,28(r22)
 1000e40:	b2c00917 	ldw	r11,36(r22)
 1000e44:	d9014f17 	ldw	r4,1340(sp)
 1000e48:	dc402904 	addi	r17,sp,164
 1000e4c:	d8804004 	addi	r2,sp,256
 1000e50:	00c10004 	movi	r3,1024
 1000e54:	423fff4c 	andi	r8,r8,65533
 1000e58:	800d883a 	mov	r6,r16
 1000e5c:	880b883a 	mov	r5,r17
 1000e60:	da002c0d 	sth	r8,176(sp)
 1000e64:	da402c8d 	sth	r9,178(sp)
 1000e68:	da803015 	stw	r10,192(sp)
 1000e6c:	dac03215 	stw	r11,200(sp)
 1000e70:	d8802d15 	stw	r2,180(sp)
 1000e74:	d8c02e15 	stw	r3,184(sp)
 1000e78:	d8802915 	stw	r2,164(sp)
 1000e7c:	d8c02b15 	stw	r3,172(sp)
 1000e80:	d8002f15 	stw	zero,188(sp)
 1000e84:	1000db00 	call	1000db0 <___vfprintf_internal_r>
 1000e88:	d8814b15 	stw	r2,1324(sp)
 1000e8c:	10000416 	blt	r2,zero,1000ea0 <___vfprintf_internal_r+0xf0>
 1000e90:	d9014f17 	ldw	r4,1340(sp)
 1000e94:	880b883a 	mov	r5,r17
 1000e98:	10045cc0 	call	10045cc <_fflush_r>
 1000e9c:	1002321e 	bne	r2,zero,1001768 <___vfprintf_internal_r+0x9b8>
 1000ea0:	d8802c0b 	ldhu	r2,176(sp)
 1000ea4:	1080100c 	andi	r2,r2,64
 1000ea8:	10000326 	beq	r2,zero,1000eb8 <___vfprintf_internal_r+0x108>
 1000eac:	b080030b 	ldhu	r2,12(r22)
 1000eb0:	10801014 	ori	r2,r2,64
 1000eb4:	b080030d 	sth	r2,12(r22)
 1000eb8:	d8814b17 	ldw	r2,1324(sp)
 1000ebc:	dfc15b17 	ldw	ra,1388(sp)
 1000ec0:	df015a17 	ldw	fp,1384(sp)
 1000ec4:	ddc15917 	ldw	r23,1380(sp)
 1000ec8:	dd815817 	ldw	r22,1376(sp)
 1000ecc:	dd415717 	ldw	r21,1372(sp)
 1000ed0:	dd015617 	ldw	r20,1368(sp)
 1000ed4:	dcc15517 	ldw	r19,1364(sp)
 1000ed8:	dc815417 	ldw	r18,1360(sp)
 1000edc:	dc415317 	ldw	r17,1356(sp)
 1000ee0:	dc015217 	ldw	r16,1352(sp)
 1000ee4:	dec15c04 	addi	sp,sp,1392
 1000ee8:	f800283a 	ret
 1000eec:	0005883a 	mov	r2,zero
 1000ef0:	0007883a 	mov	r3,zero
 1000ef4:	dd401904 	addi	r21,sp,100
 1000ef8:	d8814215 	stw	r2,1288(sp)
 1000efc:	802f883a 	mov	r23,r16
 1000f00:	d8c14315 	stw	r3,1292(sp)
 1000f04:	d8014b15 	stw	zero,1324(sp)
 1000f08:	d8014815 	stw	zero,1312(sp)
 1000f0c:	d8014415 	stw	zero,1296(sp)
 1000f10:	d8014715 	stw	zero,1308(sp)
 1000f14:	dd400c15 	stw	r21,48(sp)
 1000f18:	d8000e15 	stw	zero,56(sp)
 1000f1c:	d8000d15 	stw	zero,52(sp)
 1000f20:	b8800007 	ldb	r2,0(r23)
 1000f24:	10001926 	beq	r2,zero,1000f8c <___vfprintf_internal_r+0x1dc>
 1000f28:	00c00944 	movi	r3,37
 1000f2c:	10c01726 	beq	r2,r3,1000f8c <___vfprintf_internal_r+0x1dc>
 1000f30:	b821883a 	mov	r16,r23
 1000f34:	00000106 	br	1000f3c <___vfprintf_internal_r+0x18c>
 1000f38:	10c00326 	beq	r2,r3,1000f48 <___vfprintf_internal_r+0x198>
 1000f3c:	84000044 	addi	r16,r16,1
 1000f40:	80800007 	ldb	r2,0(r16)
 1000f44:	103ffc1e 	bne	r2,zero,1000f38 <___vfprintf_internal_r+0x188>
 1000f48:	85e7c83a 	sub	r19,r16,r23
 1000f4c:	98000e26 	beq	r19,zero,1000f88 <___vfprintf_internal_r+0x1d8>
 1000f50:	dc800e17 	ldw	r18,56(sp)
 1000f54:	dc400d17 	ldw	r17,52(sp)
 1000f58:	008001c4 	movi	r2,7
 1000f5c:	94e5883a 	add	r18,r18,r19
 1000f60:	8c400044 	addi	r17,r17,1
 1000f64:	adc00015 	stw	r23,0(r21)
 1000f68:	dc800e15 	stw	r18,56(sp)
 1000f6c:	acc00115 	stw	r19,4(r21)
 1000f70:	dc400d15 	stw	r17,52(sp)
 1000f74:	14428b16 	blt	r2,r17,10019a4 <___vfprintf_internal_r+0xbf4>
 1000f78:	ad400204 	addi	r21,r21,8
 1000f7c:	d9014b17 	ldw	r4,1324(sp)
 1000f80:	24c9883a 	add	r4,r4,r19
 1000f84:	d9014b15 	stw	r4,1324(sp)
 1000f88:	802f883a 	mov	r23,r16
 1000f8c:	b8800007 	ldb	r2,0(r23)
 1000f90:	10013c26 	beq	r2,zero,1001484 <___vfprintf_internal_r+0x6d4>
 1000f94:	bdc00044 	addi	r23,r23,1
 1000f98:	d8000405 	stb	zero,16(sp)
 1000f9c:	b8c00007 	ldb	r3,0(r23)
 1000fa0:	04ffffc4 	movi	r19,-1
 1000fa4:	d8014c15 	stw	zero,1328(sp)
 1000fa8:	d8014a15 	stw	zero,1320(sp)
 1000fac:	d8c14d15 	stw	r3,1332(sp)
 1000fb0:	bdc00044 	addi	r23,r23,1
 1000fb4:	d9414d17 	ldw	r5,1332(sp)
 1000fb8:	00801604 	movi	r2,88
 1000fbc:	28fff804 	addi	r3,r5,-32
 1000fc0:	10c06036 	bltu	r2,r3,1001144 <___vfprintf_internal_r+0x394>
 1000fc4:	18c5883a 	add	r2,r3,r3
 1000fc8:	1085883a 	add	r2,r2,r2
 1000fcc:	00c04034 	movhi	r3,256
 1000fd0:	18c3f804 	addi	r3,r3,4064
 1000fd4:	10c5883a 	add	r2,r2,r3
 1000fd8:	11000017 	ldw	r4,0(r2)
 1000fdc:	2000683a 	jmp	r4
 1000fe0:	01001f54 	movui	r4,125
 1000fe4:	01001144 	movi	r4,69
 1000fe8:	01001144 	movi	r4,69
 1000fec:	01001f40 	call	1001f4 <__alt_mem_onchip_memory2_0+0x1001f4>
 1000ff0:	01001144 	movi	r4,69
 1000ff4:	01001144 	movi	r4,69
 1000ff8:	01001144 	movi	r4,69
 1000ffc:	01001144 	movi	r4,69
 1001000:	01001144 	movi	r4,69
 1001004:	01001144 	movi	r4,69
 1001008:	01001d20 	cmpeqi	r4,zero,116
 100100c:	01001f30 	cmpltui	r4,zero,124
 1001010:	01001144 	movi	r4,69
 1001014:	01001d38 	rdprs	r4,zero,116
 1001018:	01001fd8 	cmpnei	r4,zero,127
 100101c:	01001144 	movi	r4,69
 1001020:	01001fc4 	movi	r4,127
 1001024:	01001f80 	call	1001f8 <__alt_mem_onchip_memory2_0+0x1001f8>
 1001028:	01001f80 	call	1001f8 <__alt_mem_onchip_memory2_0+0x1001f8>
 100102c:	01001f80 	call	1001f8 <__alt_mem_onchip_memory2_0+0x1001f8>
 1001030:	01001f80 	call	1001f8 <__alt_mem_onchip_memory2_0+0x1001f8>
 1001034:	01001f80 	call	1001f8 <__alt_mem_onchip_memory2_0+0x1001f8>
 1001038:	01001f80 	call	1001f8 <__alt_mem_onchip_memory2_0+0x1001f8>
 100103c:	01001f80 	call	1001f8 <__alt_mem_onchip_memory2_0+0x1001f8>
 1001040:	01001f80 	call	1001f8 <__alt_mem_onchip_memory2_0+0x1001f8>
 1001044:	01001f80 	call	1001f8 <__alt_mem_onchip_memory2_0+0x1001f8>
 1001048:	01001144 	movi	r4,69
 100104c:	01001144 	movi	r4,69
 1001050:	01001144 	movi	r4,69
 1001054:	01001144 	movi	r4,69
 1001058:	01001144 	movi	r4,69
 100105c:	01001144 	movi	r4,69
 1001060:	01001144 	movi	r4,69
 1001064:	01001144 	movi	r4,69
 1001068:	01001144 	movi	r4,69
 100106c:	01001144 	movi	r4,69
 1001070:	0100179c 	xori	r4,zero,94
 1001074:	01001e08 	cmpgei	r4,zero,120
 1001078:	01001144 	movi	r4,69
 100107c:	01001e08 	cmpgei	r4,zero,120
 1001080:	01001144 	movi	r4,69
 1001084:	01001144 	movi	r4,69
 1001088:	01001144 	movi	r4,69
 100108c:	01001144 	movi	r4,69
 1001090:	01001f6c 	andhi	r4,zero,125
 1001094:	01001144 	movi	r4,69
 1001098:	01001144 	movi	r4,69
 100109c:	01001850 	cmplti	r4,zero,97
 10010a0:	01001144 	movi	r4,69
 10010a4:	01001144 	movi	r4,69
 10010a8:	01001144 	movi	r4,69
 10010ac:	01001144 	movi	r4,69
 10010b0:	01001144 	movi	r4,69
 10010b4:	0100189c 	xori	r4,zero,98
 10010b8:	01001144 	movi	r4,69
 10010bc:	01001144 	movi	r4,69
 10010c0:	01001ebc 	xorhi	r4,zero,122
 10010c4:	01001144 	movi	r4,69
 10010c8:	01001144 	movi	r4,69
 10010cc:	01001144 	movi	r4,69
 10010d0:	01001144 	movi	r4,69
 10010d4:	01001144 	movi	r4,69
 10010d8:	01001144 	movi	r4,69
 10010dc:	01001144 	movi	r4,69
 10010e0:	01001144 	movi	r4,69
 10010e4:	01001144 	movi	r4,69
 10010e8:	01001144 	movi	r4,69
 10010ec:	01001e90 	cmplti	r4,zero,122
 10010f0:	010017a8 	cmpgeui	r4,zero,94
 10010f4:	01001e08 	cmpgei	r4,zero,120
 10010f8:	01001e08 	cmpgei	r4,zero,120
 10010fc:	01001e08 	cmpgei	r4,zero,120
 1001100:	01001df4 	movhi	r4,119
 1001104:	010017a8 	cmpgeui	r4,zero,94
 1001108:	01001144 	movi	r4,69
 100110c:	01001144 	movi	r4,69
 1001110:	01001d7c 	xorhi	r4,zero,117
 1001114:	01001144 	movi	r4,69
 1001118:	01001d4c 	andi	r4,zero,117
 100111c:	0100185c 	xori	r4,zero,97
 1001120:	01001dac 	andhi	r4,zero,118
 1001124:	01001d98 	cmpnei	r4,zero,118
 1001128:	01001144 	movi	r4,69
 100112c:	01002040 	call	100204 <__alt_mem_onchip_memory2_0+0x100204>
 1001130:	01001144 	movi	r4,69
 1001134:	010018a8 	cmpgeui	r4,zero,98
 1001138:	01001144 	movi	r4,69
 100113c:	01001144 	movi	r4,69
 1001140:	01001f20 	cmpeqi	r4,zero,124
 1001144:	d9014d17 	ldw	r4,1332(sp)
 1001148:	2000ce26 	beq	r4,zero,1001484 <___vfprintf_internal_r+0x6d4>
 100114c:	01400044 	movi	r5,1
 1001150:	d9800f04 	addi	r6,sp,60
 1001154:	d9c14015 	stw	r7,1280(sp)
 1001158:	d9414515 	stw	r5,1300(sp)
 100115c:	d9814115 	stw	r6,1284(sp)
 1001160:	280f883a 	mov	r7,r5
 1001164:	d9000f05 	stb	r4,60(sp)
 1001168:	d8000405 	stb	zero,16(sp)
 100116c:	d8014615 	stw	zero,1304(sp)
 1001170:	d8c14c17 	ldw	r3,1328(sp)
 1001174:	1880008c 	andi	r2,r3,2
 1001178:	1005003a 	cmpeq	r2,r2,zero
 100117c:	d8815015 	stw	r2,1344(sp)
 1001180:	1000031e 	bne	r2,zero,1001190 <___vfprintf_internal_r+0x3e0>
 1001184:	d9014517 	ldw	r4,1300(sp)
 1001188:	21000084 	addi	r4,r4,2
 100118c:	d9014515 	stw	r4,1300(sp)
 1001190:	d9414c17 	ldw	r5,1328(sp)
 1001194:	2940210c 	andi	r5,r5,132
 1001198:	d9414e15 	stw	r5,1336(sp)
 100119c:	28002d1e 	bne	r5,zero,1001254 <___vfprintf_internal_r+0x4a4>
 10011a0:	d9814a17 	ldw	r6,1320(sp)
 10011a4:	d8814517 	ldw	r2,1300(sp)
 10011a8:	30a1c83a 	sub	r16,r6,r2
 10011ac:	0400290e 	bge	zero,r16,1001254 <___vfprintf_internal_r+0x4a4>
 10011b0:	00800404 	movi	r2,16
 10011b4:	14045e0e 	bge	r2,r16,1002330 <___vfprintf_internal_r+0x1580>
 10011b8:	dc800e17 	ldw	r18,56(sp)
 10011bc:	dc400d17 	ldw	r17,52(sp)
 10011c0:	1027883a 	mov	r19,r2
 10011c4:	07004074 	movhi	fp,257
 10011c8:	e73ace84 	addi	fp,fp,-5318
 10011cc:	050001c4 	movi	r20,7
 10011d0:	00000306 	br	10011e0 <___vfprintf_internal_r+0x430>
 10011d4:	843ffc04 	addi	r16,r16,-16
 10011d8:	ad400204 	addi	r21,r21,8
 10011dc:	9c00130e 	bge	r19,r16,100122c <___vfprintf_internal_r+0x47c>
 10011e0:	94800404 	addi	r18,r18,16
 10011e4:	8c400044 	addi	r17,r17,1
 10011e8:	af000015 	stw	fp,0(r21)
 10011ec:	acc00115 	stw	r19,4(r21)
 10011f0:	dc800e15 	stw	r18,56(sp)
 10011f4:	dc400d15 	stw	r17,52(sp)
 10011f8:	a47ff60e 	bge	r20,r17,10011d4 <___vfprintf_internal_r+0x424>
 10011fc:	d9014f17 	ldw	r4,1340(sp)
 1001200:	b00b883a 	mov	r5,r22
 1001204:	d9800c04 	addi	r6,sp,48
 1001208:	d9c15115 	stw	r7,1348(sp)
 100120c:	1000d580 	call	1000d58 <__sprint_r>
 1001210:	d9c15117 	ldw	r7,1348(sp)
 1001214:	10009e1e 	bne	r2,zero,1001490 <___vfprintf_internal_r+0x6e0>
 1001218:	843ffc04 	addi	r16,r16,-16
 100121c:	dc800e17 	ldw	r18,56(sp)
 1001220:	dc400d17 	ldw	r17,52(sp)
 1001224:	dd401904 	addi	r21,sp,100
 1001228:	9c3fed16 	blt	r19,r16,10011e0 <___vfprintf_internal_r+0x430>
 100122c:	9425883a 	add	r18,r18,r16
 1001230:	8c400044 	addi	r17,r17,1
 1001234:	008001c4 	movi	r2,7
 1001238:	af000015 	stw	fp,0(r21)
 100123c:	ac000115 	stw	r16,4(r21)
 1001240:	dc800e15 	stw	r18,56(sp)
 1001244:	dc400d15 	stw	r17,52(sp)
 1001248:	1441f516 	blt	r2,r17,1001a20 <___vfprintf_internal_r+0xc70>
 100124c:	ad400204 	addi	r21,r21,8
 1001250:	00000206 	br	100125c <___vfprintf_internal_r+0x4ac>
 1001254:	dc800e17 	ldw	r18,56(sp)
 1001258:	dc400d17 	ldw	r17,52(sp)
 100125c:	d8800407 	ldb	r2,16(sp)
 1001260:	10000b26 	beq	r2,zero,1001290 <___vfprintf_internal_r+0x4e0>
 1001264:	00800044 	movi	r2,1
 1001268:	94800044 	addi	r18,r18,1
 100126c:	8c400044 	addi	r17,r17,1
 1001270:	a8800115 	stw	r2,4(r21)
 1001274:	d8c00404 	addi	r3,sp,16
 1001278:	008001c4 	movi	r2,7
 100127c:	a8c00015 	stw	r3,0(r21)
 1001280:	dc800e15 	stw	r18,56(sp)
 1001284:	dc400d15 	stw	r17,52(sp)
 1001288:	1441da16 	blt	r2,r17,10019f4 <___vfprintf_internal_r+0xc44>
 100128c:	ad400204 	addi	r21,r21,8
 1001290:	d9015017 	ldw	r4,1344(sp)
 1001294:	20000b1e 	bne	r4,zero,10012c4 <___vfprintf_internal_r+0x514>
 1001298:	d8800444 	addi	r2,sp,17
 100129c:	94800084 	addi	r18,r18,2
 10012a0:	8c400044 	addi	r17,r17,1
 10012a4:	a8800015 	stw	r2,0(r21)
 10012a8:	00c00084 	movi	r3,2
 10012ac:	008001c4 	movi	r2,7
 10012b0:	a8c00115 	stw	r3,4(r21)
 10012b4:	dc800e15 	stw	r18,56(sp)
 10012b8:	dc400d15 	stw	r17,52(sp)
 10012bc:	1441c216 	blt	r2,r17,10019c8 <___vfprintf_internal_r+0xc18>
 10012c0:	ad400204 	addi	r21,r21,8
 10012c4:	d9414e17 	ldw	r5,1336(sp)
 10012c8:	00802004 	movi	r2,128
 10012cc:	2880b126 	beq	r5,r2,1001594 <___vfprintf_internal_r+0x7e4>
 10012d0:	d8c14617 	ldw	r3,1304(sp)
 10012d4:	19e1c83a 	sub	r16,r3,r7
 10012d8:	0400260e 	bge	zero,r16,1001374 <___vfprintf_internal_r+0x5c4>
 10012dc:	00800404 	movi	r2,16
 10012e0:	1403cf0e 	bge	r2,r16,1002220 <___vfprintf_internal_r+0x1470>
 10012e4:	1027883a 	mov	r19,r2
 10012e8:	07004074 	movhi	fp,257
 10012ec:	e73aca84 	addi	fp,fp,-5334
 10012f0:	050001c4 	movi	r20,7
 10012f4:	00000306 	br	1001304 <___vfprintf_internal_r+0x554>
 10012f8:	843ffc04 	addi	r16,r16,-16
 10012fc:	ad400204 	addi	r21,r21,8
 1001300:	9c00130e 	bge	r19,r16,1001350 <___vfprintf_internal_r+0x5a0>
 1001304:	94800404 	addi	r18,r18,16
 1001308:	8c400044 	addi	r17,r17,1
 100130c:	af000015 	stw	fp,0(r21)
 1001310:	acc00115 	stw	r19,4(r21)
 1001314:	dc800e15 	stw	r18,56(sp)
 1001318:	dc400d15 	stw	r17,52(sp)
 100131c:	a47ff60e 	bge	r20,r17,10012f8 <___vfprintf_internal_r+0x548>
 1001320:	d9014f17 	ldw	r4,1340(sp)
 1001324:	b00b883a 	mov	r5,r22
 1001328:	d9800c04 	addi	r6,sp,48
 100132c:	d9c15115 	stw	r7,1348(sp)
 1001330:	1000d580 	call	1000d58 <__sprint_r>
 1001334:	d9c15117 	ldw	r7,1348(sp)
 1001338:	1000551e 	bne	r2,zero,1001490 <___vfprintf_internal_r+0x6e0>
 100133c:	843ffc04 	addi	r16,r16,-16
 1001340:	dc800e17 	ldw	r18,56(sp)
 1001344:	dc400d17 	ldw	r17,52(sp)
 1001348:	dd401904 	addi	r21,sp,100
 100134c:	9c3fed16 	blt	r19,r16,1001304 <___vfprintf_internal_r+0x554>
 1001350:	9425883a 	add	r18,r18,r16
 1001354:	8c400044 	addi	r17,r17,1
 1001358:	008001c4 	movi	r2,7
 100135c:	af000015 	stw	fp,0(r21)
 1001360:	ac000115 	stw	r16,4(r21)
 1001364:	dc800e15 	stw	r18,56(sp)
 1001368:	dc400d15 	stw	r17,52(sp)
 100136c:	14418216 	blt	r2,r17,1001978 <___vfprintf_internal_r+0xbc8>
 1001370:	ad400204 	addi	r21,r21,8
 1001374:	d9014c17 	ldw	r4,1328(sp)
 1001378:	2080400c 	andi	r2,r4,256
 100137c:	10004a1e 	bne	r2,zero,10014a8 <___vfprintf_internal_r+0x6f8>
 1001380:	d9414117 	ldw	r5,1284(sp)
 1001384:	91e5883a 	add	r18,r18,r7
 1001388:	8c400044 	addi	r17,r17,1
 100138c:	008001c4 	movi	r2,7
 1001390:	a9400015 	stw	r5,0(r21)
 1001394:	a9c00115 	stw	r7,4(r21)
 1001398:	dc800e15 	stw	r18,56(sp)
 100139c:	dc400d15 	stw	r17,52(sp)
 10013a0:	14416716 	blt	r2,r17,1001940 <___vfprintf_internal_r+0xb90>
 10013a4:	a8c00204 	addi	r3,r21,8
 10013a8:	d9814c17 	ldw	r6,1328(sp)
 10013ac:	3080010c 	andi	r2,r6,4
 10013b0:	10002826 	beq	r2,zero,1001454 <___vfprintf_internal_r+0x6a4>
 10013b4:	d8814a17 	ldw	r2,1320(sp)
 10013b8:	d9014517 	ldw	r4,1300(sp)
 10013bc:	1121c83a 	sub	r16,r2,r4
 10013c0:	0400240e 	bge	zero,r16,1001454 <___vfprintf_internal_r+0x6a4>
 10013c4:	00800404 	movi	r2,16
 10013c8:	1404550e 	bge	r2,r16,1002520 <___vfprintf_internal_r+0x1770>
 10013cc:	dc400d17 	ldw	r17,52(sp)
 10013d0:	1027883a 	mov	r19,r2
 10013d4:	07004074 	movhi	fp,257
 10013d8:	e73ace84 	addi	fp,fp,-5318
 10013dc:	050001c4 	movi	r20,7
 10013e0:	00000306 	br	10013f0 <___vfprintf_internal_r+0x640>
 10013e4:	843ffc04 	addi	r16,r16,-16
 10013e8:	18c00204 	addi	r3,r3,8
 10013ec:	9c00110e 	bge	r19,r16,1001434 <___vfprintf_internal_r+0x684>
 10013f0:	94800404 	addi	r18,r18,16
 10013f4:	8c400044 	addi	r17,r17,1
 10013f8:	1f000015 	stw	fp,0(r3)
 10013fc:	1cc00115 	stw	r19,4(r3)
 1001400:	dc800e15 	stw	r18,56(sp)
 1001404:	dc400d15 	stw	r17,52(sp)
 1001408:	a47ff60e 	bge	r20,r17,10013e4 <___vfprintf_internal_r+0x634>
 100140c:	d9014f17 	ldw	r4,1340(sp)
 1001410:	b00b883a 	mov	r5,r22
 1001414:	d9800c04 	addi	r6,sp,48
 1001418:	1000d580 	call	1000d58 <__sprint_r>
 100141c:	10001c1e 	bne	r2,zero,1001490 <___vfprintf_internal_r+0x6e0>
 1001420:	843ffc04 	addi	r16,r16,-16
 1001424:	dc800e17 	ldw	r18,56(sp)
 1001428:	dc400d17 	ldw	r17,52(sp)
 100142c:	d8c01904 	addi	r3,sp,100
 1001430:	9c3fef16 	blt	r19,r16,10013f0 <___vfprintf_internal_r+0x640>
 1001434:	9425883a 	add	r18,r18,r16
 1001438:	8c400044 	addi	r17,r17,1
 100143c:	008001c4 	movi	r2,7
 1001440:	1f000015 	stw	fp,0(r3)
 1001444:	1c000115 	stw	r16,4(r3)
 1001448:	dc800e15 	stw	r18,56(sp)
 100144c:	dc400d15 	stw	r17,52(sp)
 1001450:	1440cb16 	blt	r2,r17,1001780 <___vfprintf_internal_r+0x9d0>
 1001454:	d8814a17 	ldw	r2,1320(sp)
 1001458:	d9414517 	ldw	r5,1300(sp)
 100145c:	1140010e 	bge	r2,r5,1001464 <___vfprintf_internal_r+0x6b4>
 1001460:	2805883a 	mov	r2,r5
 1001464:	d9814b17 	ldw	r6,1324(sp)
 1001468:	308d883a 	add	r6,r6,r2
 100146c:	d9814b15 	stw	r6,1324(sp)
 1001470:	90013b1e 	bne	r18,zero,1001960 <___vfprintf_internal_r+0xbb0>
 1001474:	d9c14017 	ldw	r7,1280(sp)
 1001478:	dd401904 	addi	r21,sp,100
 100147c:	d8000d15 	stw	zero,52(sp)
 1001480:	003ea706 	br	1000f20 <___vfprintf_internal_r+0x170>
 1001484:	d8800e17 	ldw	r2,56(sp)
 1001488:	1005451e 	bne	r2,zero,10029a0 <___vfprintf_internal_r+0x1bf0>
 100148c:	d8000d15 	stw	zero,52(sp)
 1001490:	b080030b 	ldhu	r2,12(r22)
 1001494:	1080100c 	andi	r2,r2,64
 1001498:	103e8726 	beq	r2,zero,1000eb8 <___vfprintf_internal_r+0x108>
 100149c:	00bfffc4 	movi	r2,-1
 10014a0:	d8814b15 	stw	r2,1324(sp)
 10014a4:	003e8406 	br	1000eb8 <___vfprintf_internal_r+0x108>
 10014a8:	d9814d17 	ldw	r6,1332(sp)
 10014ac:	00801944 	movi	r2,101
 10014b0:	11806e16 	blt	r2,r6,100166c <___vfprintf_internal_r+0x8bc>
 10014b4:	d9414717 	ldw	r5,1308(sp)
 10014b8:	00c00044 	movi	r3,1
 10014bc:	1943490e 	bge	r3,r5,10021e4 <___vfprintf_internal_r+0x1434>
 10014c0:	d8814117 	ldw	r2,1284(sp)
 10014c4:	94800044 	addi	r18,r18,1
 10014c8:	8c400044 	addi	r17,r17,1
 10014cc:	a8800015 	stw	r2,0(r21)
 10014d0:	008001c4 	movi	r2,7
 10014d4:	a8c00115 	stw	r3,4(r21)
 10014d8:	dc800e15 	stw	r18,56(sp)
 10014dc:	dc400d15 	stw	r17,52(sp)
 10014e0:	1441ca16 	blt	r2,r17,1001c0c <___vfprintf_internal_r+0xe5c>
 10014e4:	a8c00204 	addi	r3,r21,8
 10014e8:	d9014917 	ldw	r4,1316(sp)
 10014ec:	00800044 	movi	r2,1
 10014f0:	94800044 	addi	r18,r18,1
 10014f4:	8c400044 	addi	r17,r17,1
 10014f8:	18800115 	stw	r2,4(r3)
 10014fc:	008001c4 	movi	r2,7
 1001500:	19000015 	stw	r4,0(r3)
 1001504:	dc800e15 	stw	r18,56(sp)
 1001508:	dc400d15 	stw	r17,52(sp)
 100150c:	1441b616 	blt	r2,r17,1001be8 <___vfprintf_internal_r+0xe38>
 1001510:	1cc00204 	addi	r19,r3,8
 1001514:	d9014217 	ldw	r4,1288(sp)
 1001518:	d9414317 	ldw	r5,1292(sp)
 100151c:	000d883a 	mov	r6,zero
 1001520:	000f883a 	mov	r7,zero
 1001524:	10099880 	call	1009988 <__nedf2>
 1001528:	10017426 	beq	r2,zero,1001afc <___vfprintf_internal_r+0xd4c>
 100152c:	d9414717 	ldw	r5,1308(sp)
 1001530:	d9814117 	ldw	r6,1284(sp)
 1001534:	8c400044 	addi	r17,r17,1
 1001538:	2c85883a 	add	r2,r5,r18
 100153c:	14bfffc4 	addi	r18,r2,-1
 1001540:	28bfffc4 	addi	r2,r5,-1
 1001544:	30c00044 	addi	r3,r6,1
 1001548:	98800115 	stw	r2,4(r19)
 100154c:	008001c4 	movi	r2,7
 1001550:	98c00015 	stw	r3,0(r19)
 1001554:	dc800e15 	stw	r18,56(sp)
 1001558:	dc400d15 	stw	r17,52(sp)
 100155c:	14418e16 	blt	r2,r17,1001b98 <___vfprintf_internal_r+0xde8>
 1001560:	9cc00204 	addi	r19,r19,8
 1001564:	d9414817 	ldw	r5,1312(sp)
 1001568:	d8800804 	addi	r2,sp,32
 100156c:	8c400044 	addi	r17,r17,1
 1001570:	9165883a 	add	r18,r18,r5
 1001574:	98800015 	stw	r2,0(r19)
 1001578:	008001c4 	movi	r2,7
 100157c:	99400115 	stw	r5,4(r19)
 1001580:	dc800e15 	stw	r18,56(sp)
 1001584:	dc400d15 	stw	r17,52(sp)
 1001588:	1440ed16 	blt	r2,r17,1001940 <___vfprintf_internal_r+0xb90>
 100158c:	98c00204 	addi	r3,r19,8
 1001590:	003f8506 	br	10013a8 <___vfprintf_internal_r+0x5f8>
 1001594:	d9814a17 	ldw	r6,1320(sp)
 1001598:	d8814517 	ldw	r2,1300(sp)
 100159c:	30a1c83a 	sub	r16,r6,r2
 10015a0:	043f4b0e 	bge	zero,r16,10012d0 <___vfprintf_internal_r+0x520>
 10015a4:	00800404 	movi	r2,16
 10015a8:	14043a0e 	bge	r2,r16,1002694 <___vfprintf_internal_r+0x18e4>
 10015ac:	1027883a 	mov	r19,r2
 10015b0:	07004074 	movhi	fp,257
 10015b4:	e73aca84 	addi	fp,fp,-5334
 10015b8:	050001c4 	movi	r20,7
 10015bc:	00000306 	br	10015cc <___vfprintf_internal_r+0x81c>
 10015c0:	843ffc04 	addi	r16,r16,-16
 10015c4:	ad400204 	addi	r21,r21,8
 10015c8:	9c00130e 	bge	r19,r16,1001618 <___vfprintf_internal_r+0x868>
 10015cc:	94800404 	addi	r18,r18,16
 10015d0:	8c400044 	addi	r17,r17,1
 10015d4:	af000015 	stw	fp,0(r21)
 10015d8:	acc00115 	stw	r19,4(r21)
 10015dc:	dc800e15 	stw	r18,56(sp)
 10015e0:	dc400d15 	stw	r17,52(sp)
 10015e4:	a47ff60e 	bge	r20,r17,10015c0 <___vfprintf_internal_r+0x810>
 10015e8:	d9014f17 	ldw	r4,1340(sp)
 10015ec:	b00b883a 	mov	r5,r22
 10015f0:	d9800c04 	addi	r6,sp,48
 10015f4:	d9c15115 	stw	r7,1348(sp)
 10015f8:	1000d580 	call	1000d58 <__sprint_r>
 10015fc:	d9c15117 	ldw	r7,1348(sp)
 1001600:	103fa31e 	bne	r2,zero,1001490 <___vfprintf_internal_r+0x6e0>
 1001604:	843ffc04 	addi	r16,r16,-16
 1001608:	dc800e17 	ldw	r18,56(sp)
 100160c:	dc400d17 	ldw	r17,52(sp)
 1001610:	dd401904 	addi	r21,sp,100
 1001614:	9c3fed16 	blt	r19,r16,10015cc <___vfprintf_internal_r+0x81c>
 1001618:	9425883a 	add	r18,r18,r16
 100161c:	8c400044 	addi	r17,r17,1
 1001620:	008001c4 	movi	r2,7
 1001624:	af000015 	stw	fp,0(r21)
 1001628:	ac000115 	stw	r16,4(r21)
 100162c:	dc800e15 	stw	r18,56(sp)
 1001630:	dc400d15 	stw	r17,52(sp)
 1001634:	14416116 	blt	r2,r17,1001bbc <___vfprintf_internal_r+0xe0c>
 1001638:	ad400204 	addi	r21,r21,8
 100163c:	003f2406 	br	10012d0 <___vfprintf_internal_r+0x520>
 1001640:	d9014f17 	ldw	r4,1340(sp)
 1001644:	10048640 	call	1004864 <__sinit>
 1001648:	d9c15117 	ldw	r7,1348(sp)
 100164c:	003def06 	br	1000e0c <___vfprintf_internal_r+0x5c>
 1001650:	d9014f17 	ldw	r4,1340(sp)
 1001654:	b00b883a 	mov	r5,r22
 1001658:	d9c15115 	stw	r7,1348(sp)
 100165c:	1002c980 	call	1002c98 <__swsetup_r>
 1001660:	d9c15117 	ldw	r7,1348(sp)
 1001664:	103dee26 	beq	r2,zero,1000e20 <___vfprintf_internal_r+0x70>
 1001668:	003f8c06 	br	100149c <___vfprintf_internal_r+0x6ec>
 100166c:	d9014217 	ldw	r4,1288(sp)
 1001670:	d9414317 	ldw	r5,1292(sp)
 1001674:	000d883a 	mov	r6,zero
 1001678:	000f883a 	mov	r7,zero
 100167c:	10099000 	call	1009900 <__eqdf2>
 1001680:	1000f21e 	bne	r2,zero,1001a4c <___vfprintf_internal_r+0xc9c>
 1001684:	00804074 	movhi	r2,257
 1001688:	10baca04 	addi	r2,r2,-5336
 100168c:	94800044 	addi	r18,r18,1
 1001690:	8c400044 	addi	r17,r17,1
 1001694:	a8800015 	stw	r2,0(r21)
 1001698:	00c00044 	movi	r3,1
 100169c:	008001c4 	movi	r2,7
 10016a0:	a8c00115 	stw	r3,4(r21)
 10016a4:	dc800e15 	stw	r18,56(sp)
 10016a8:	dc400d15 	stw	r17,52(sp)
 10016ac:	14430016 	blt	r2,r17,10022b0 <___vfprintf_internal_r+0x1500>
 10016b0:	a8c00204 	addi	r3,r21,8
 10016b4:	d8800517 	ldw	r2,20(sp)
 10016b8:	d9014717 	ldw	r4,1308(sp)
 10016bc:	11015c0e 	bge	r2,r4,1001c30 <___vfprintf_internal_r+0xe80>
 10016c0:	dc400d17 	ldw	r17,52(sp)
 10016c4:	d9814917 	ldw	r6,1316(sp)
 10016c8:	00800044 	movi	r2,1
 10016cc:	94800044 	addi	r18,r18,1
 10016d0:	8c400044 	addi	r17,r17,1
 10016d4:	18800115 	stw	r2,4(r3)
 10016d8:	008001c4 	movi	r2,7
 10016dc:	19800015 	stw	r6,0(r3)
 10016e0:	dc800e15 	stw	r18,56(sp)
 10016e4:	dc400d15 	stw	r17,52(sp)
 10016e8:	14431616 	blt	r2,r17,1002344 <___vfprintf_internal_r+0x1594>
 10016ec:	18c00204 	addi	r3,r3,8
 10016f0:	d8814717 	ldw	r2,1308(sp)
 10016f4:	143fffc4 	addi	r16,r2,-1
 10016f8:	043f2b0e 	bge	zero,r16,10013a8 <___vfprintf_internal_r+0x5f8>
 10016fc:	00800404 	movi	r2,16
 1001700:	1402a80e 	bge	r2,r16,10021a4 <___vfprintf_internal_r+0x13f4>
 1001704:	dc400d17 	ldw	r17,52(sp)
 1001708:	1027883a 	mov	r19,r2
 100170c:	07004074 	movhi	fp,257
 1001710:	e73aca84 	addi	fp,fp,-5334
 1001714:	050001c4 	movi	r20,7
 1001718:	00000306 	br	1001728 <___vfprintf_internal_r+0x978>
 100171c:	18c00204 	addi	r3,r3,8
 1001720:	843ffc04 	addi	r16,r16,-16
 1001724:	9c02a20e 	bge	r19,r16,10021b0 <___vfprintf_internal_r+0x1400>
 1001728:	94800404 	addi	r18,r18,16
 100172c:	8c400044 	addi	r17,r17,1
 1001730:	1f000015 	stw	fp,0(r3)
 1001734:	1cc00115 	stw	r19,4(r3)
 1001738:	dc800e15 	stw	r18,56(sp)
 100173c:	dc400d15 	stw	r17,52(sp)
 1001740:	a47ff60e 	bge	r20,r17,100171c <___vfprintf_internal_r+0x96c>
 1001744:	d9014f17 	ldw	r4,1340(sp)
 1001748:	b00b883a 	mov	r5,r22
 100174c:	d9800c04 	addi	r6,sp,48
 1001750:	1000d580 	call	1000d58 <__sprint_r>
 1001754:	103f4e1e 	bne	r2,zero,1001490 <___vfprintf_internal_r+0x6e0>
 1001758:	dc800e17 	ldw	r18,56(sp)
 100175c:	dc400d17 	ldw	r17,52(sp)
 1001760:	d8c01904 	addi	r3,sp,100
 1001764:	003fee06 	br	1001720 <___vfprintf_internal_r+0x970>
 1001768:	d8802c0b 	ldhu	r2,176(sp)
 100176c:	00ffffc4 	movi	r3,-1
 1001770:	d8c14b15 	stw	r3,1324(sp)
 1001774:	1080100c 	andi	r2,r2,64
 1001778:	103dcc1e 	bne	r2,zero,1000eac <___vfprintf_internal_r+0xfc>
 100177c:	003dce06 	br	1000eb8 <___vfprintf_internal_r+0x108>
 1001780:	d9014f17 	ldw	r4,1340(sp)
 1001784:	b00b883a 	mov	r5,r22
 1001788:	d9800c04 	addi	r6,sp,48
 100178c:	1000d580 	call	1000d58 <__sprint_r>
 1001790:	103f3f1e 	bne	r2,zero,1001490 <___vfprintf_internal_r+0x6e0>
 1001794:	dc800e17 	ldw	r18,56(sp)
 1001798:	003f2e06 	br	1001454 <___vfprintf_internal_r+0x6a4>
 100179c:	d9414c17 	ldw	r5,1328(sp)
 10017a0:	29400414 	ori	r5,r5,16
 10017a4:	d9414c15 	stw	r5,1328(sp)
 10017a8:	d9814c17 	ldw	r6,1328(sp)
 10017ac:	3080080c 	andi	r2,r6,32
 10017b0:	10014f1e 	bne	r2,zero,1001cf0 <___vfprintf_internal_r+0xf40>
 10017b4:	d8c14c17 	ldw	r3,1328(sp)
 10017b8:	1880040c 	andi	r2,r3,16
 10017bc:	1002f01e 	bne	r2,zero,1002380 <___vfprintf_internal_r+0x15d0>
 10017c0:	d9014c17 	ldw	r4,1328(sp)
 10017c4:	2080100c 	andi	r2,r4,64
 10017c8:	1002ed26 	beq	r2,zero,1002380 <___vfprintf_internal_r+0x15d0>
 10017cc:	3880000f 	ldh	r2,0(r7)
 10017d0:	39c00104 	addi	r7,r7,4
 10017d4:	d9c14015 	stw	r7,1280(sp)
 10017d8:	1023d7fa 	srai	r17,r2,31
 10017dc:	1021883a 	mov	r16,r2
 10017e0:	88037816 	blt	r17,zero,10025c4 <___vfprintf_internal_r+0x1814>
 10017e4:	01000044 	movi	r4,1
 10017e8:	98000416 	blt	r19,zero,10017fc <___vfprintf_internal_r+0xa4c>
 10017ec:	d8c14c17 	ldw	r3,1328(sp)
 10017f0:	00bfdfc4 	movi	r2,-129
 10017f4:	1886703a 	and	r3,r3,r2
 10017f8:	d8c14c15 	stw	r3,1328(sp)
 10017fc:	8444b03a 	or	r2,r16,r17
 1001800:	10022c1e 	bne	r2,zero,10020b4 <___vfprintf_internal_r+0x1304>
 1001804:	98022b1e 	bne	r19,zero,10020b4 <___vfprintf_internal_r+0x1304>
 1001808:	20803fcc 	andi	r2,r4,255
 100180c:	1002a126 	beq	r2,zero,1002294 <___vfprintf_internal_r+0x14e4>
 1001810:	d8c01904 	addi	r3,sp,100
 1001814:	dd000f04 	addi	r20,sp,60
 1001818:	d8c14115 	stw	r3,1284(sp)
 100181c:	d8c14117 	ldw	r3,1284(sp)
 1001820:	dcc14515 	stw	r19,1300(sp)
 1001824:	a0c5c83a 	sub	r2,r20,r3
 1001828:	11c00a04 	addi	r7,r2,40
 100182c:	99c0010e 	bge	r19,r7,1001834 <___vfprintf_internal_r+0xa84>
 1001830:	d9c14515 	stw	r7,1300(sp)
 1001834:	dcc14615 	stw	r19,1304(sp)
 1001838:	d8800407 	ldb	r2,16(sp)
 100183c:	103e4c26 	beq	r2,zero,1001170 <___vfprintf_internal_r+0x3c0>
 1001840:	d8814517 	ldw	r2,1300(sp)
 1001844:	10800044 	addi	r2,r2,1
 1001848:	d8814515 	stw	r2,1300(sp)
 100184c:	003e4806 	br	1001170 <___vfprintf_internal_r+0x3c0>
 1001850:	d9814c17 	ldw	r6,1328(sp)
 1001854:	31800414 	ori	r6,r6,16
 1001858:	d9814c15 	stw	r6,1328(sp)
 100185c:	d8c14c17 	ldw	r3,1328(sp)
 1001860:	1880080c 	andi	r2,r3,32
 1001864:	1001271e 	bne	r2,zero,1001d04 <___vfprintf_internal_r+0xf54>
 1001868:	d9414c17 	ldw	r5,1328(sp)
 100186c:	2880040c 	andi	r2,r5,16
 1001870:	1002bc1e 	bne	r2,zero,1002364 <___vfprintf_internal_r+0x15b4>
 1001874:	d9814c17 	ldw	r6,1328(sp)
 1001878:	3080100c 	andi	r2,r6,64
 100187c:	1002b926 	beq	r2,zero,1002364 <___vfprintf_internal_r+0x15b4>
 1001880:	3c00000b 	ldhu	r16,0(r7)
 1001884:	0009883a 	mov	r4,zero
 1001888:	39c00104 	addi	r7,r7,4
 100188c:	0023883a 	mov	r17,zero
 1001890:	d9c14015 	stw	r7,1280(sp)
 1001894:	d8000405 	stb	zero,16(sp)
 1001898:	003fd306 	br	10017e8 <___vfprintf_internal_r+0xa38>
 100189c:	d9014c17 	ldw	r4,1328(sp)
 10018a0:	21000414 	ori	r4,r4,16
 10018a4:	d9014c15 	stw	r4,1328(sp)
 10018a8:	d9414c17 	ldw	r5,1328(sp)
 10018ac:	2880080c 	andi	r2,r5,32
 10018b0:	1001081e 	bne	r2,zero,1001cd4 <___vfprintf_internal_r+0xf24>
 10018b4:	d8c14c17 	ldw	r3,1328(sp)
 10018b8:	1880040c 	andi	r2,r3,16
 10018bc:	1002b61e 	bne	r2,zero,1002398 <___vfprintf_internal_r+0x15e8>
 10018c0:	d9014c17 	ldw	r4,1328(sp)
 10018c4:	2080100c 	andi	r2,r4,64
 10018c8:	1002b326 	beq	r2,zero,1002398 <___vfprintf_internal_r+0x15e8>
 10018cc:	3c00000b 	ldhu	r16,0(r7)
 10018d0:	01000044 	movi	r4,1
 10018d4:	39c00104 	addi	r7,r7,4
 10018d8:	0023883a 	mov	r17,zero
 10018dc:	d9c14015 	stw	r7,1280(sp)
 10018e0:	d8000405 	stb	zero,16(sp)
 10018e4:	003fc006 	br	10017e8 <___vfprintf_internal_r+0xa38>
 10018e8:	d9014f17 	ldw	r4,1340(sp)
 10018ec:	b00b883a 	mov	r5,r22
 10018f0:	d9800c04 	addi	r6,sp,48
 10018f4:	1000d580 	call	1000d58 <__sprint_r>
 10018f8:	103ee51e 	bne	r2,zero,1001490 <___vfprintf_internal_r+0x6e0>
 10018fc:	dc800e17 	ldw	r18,56(sp)
 1001900:	d8c01904 	addi	r3,sp,100
 1001904:	d9814c17 	ldw	r6,1328(sp)
 1001908:	3080004c 	andi	r2,r6,1
 100190c:	1005003a 	cmpeq	r2,r2,zero
 1001910:	103ea51e 	bne	r2,zero,10013a8 <___vfprintf_internal_r+0x5f8>
 1001914:	00800044 	movi	r2,1
 1001918:	dc400d17 	ldw	r17,52(sp)
 100191c:	18800115 	stw	r2,4(r3)
 1001920:	d8814917 	ldw	r2,1316(sp)
 1001924:	94800044 	addi	r18,r18,1
 1001928:	8c400044 	addi	r17,r17,1
 100192c:	18800015 	stw	r2,0(r3)
 1001930:	008001c4 	movi	r2,7
 1001934:	dc800e15 	stw	r18,56(sp)
 1001938:	dc400d15 	stw	r17,52(sp)
 100193c:	1442240e 	bge	r2,r17,10021d0 <___vfprintf_internal_r+0x1420>
 1001940:	d9014f17 	ldw	r4,1340(sp)
 1001944:	b00b883a 	mov	r5,r22
 1001948:	d9800c04 	addi	r6,sp,48
 100194c:	1000d580 	call	1000d58 <__sprint_r>
 1001950:	103ecf1e 	bne	r2,zero,1001490 <___vfprintf_internal_r+0x6e0>
 1001954:	dc800e17 	ldw	r18,56(sp)
 1001958:	d8c01904 	addi	r3,sp,100
 100195c:	003e9206 	br	10013a8 <___vfprintf_internal_r+0x5f8>
 1001960:	d9014f17 	ldw	r4,1340(sp)
 1001964:	b00b883a 	mov	r5,r22
 1001968:	d9800c04 	addi	r6,sp,48
 100196c:	1000d580 	call	1000d58 <__sprint_r>
 1001970:	103ec026 	beq	r2,zero,1001474 <___vfprintf_internal_r+0x6c4>
 1001974:	003ec606 	br	1001490 <___vfprintf_internal_r+0x6e0>
 1001978:	d9014f17 	ldw	r4,1340(sp)
 100197c:	b00b883a 	mov	r5,r22
 1001980:	d9800c04 	addi	r6,sp,48
 1001984:	d9c15115 	stw	r7,1348(sp)
 1001988:	1000d580 	call	1000d58 <__sprint_r>
 100198c:	d9c15117 	ldw	r7,1348(sp)
 1001990:	103ebf1e 	bne	r2,zero,1001490 <___vfprintf_internal_r+0x6e0>
 1001994:	dc800e17 	ldw	r18,56(sp)
 1001998:	dc400d17 	ldw	r17,52(sp)
 100199c:	dd401904 	addi	r21,sp,100
 10019a0:	003e7406 	br	1001374 <___vfprintf_internal_r+0x5c4>
 10019a4:	d9014f17 	ldw	r4,1340(sp)
 10019a8:	b00b883a 	mov	r5,r22
 10019ac:	d9800c04 	addi	r6,sp,48
 10019b0:	d9c15115 	stw	r7,1348(sp)
 10019b4:	1000d580 	call	1000d58 <__sprint_r>
 10019b8:	d9c15117 	ldw	r7,1348(sp)
 10019bc:	103eb41e 	bne	r2,zero,1001490 <___vfprintf_internal_r+0x6e0>
 10019c0:	dd401904 	addi	r21,sp,100
 10019c4:	003d6d06 	br	1000f7c <___vfprintf_internal_r+0x1cc>
 10019c8:	d9014f17 	ldw	r4,1340(sp)
 10019cc:	b00b883a 	mov	r5,r22
 10019d0:	d9800c04 	addi	r6,sp,48
 10019d4:	d9c15115 	stw	r7,1348(sp)
 10019d8:	1000d580 	call	1000d58 <__sprint_r>
 10019dc:	d9c15117 	ldw	r7,1348(sp)
 10019e0:	103eab1e 	bne	r2,zero,1001490 <___vfprintf_internal_r+0x6e0>
 10019e4:	dc800e17 	ldw	r18,56(sp)
 10019e8:	dc400d17 	ldw	r17,52(sp)
 10019ec:	dd401904 	addi	r21,sp,100
 10019f0:	003e3406 	br	10012c4 <___vfprintf_internal_r+0x514>
 10019f4:	d9014f17 	ldw	r4,1340(sp)
 10019f8:	b00b883a 	mov	r5,r22
 10019fc:	d9800c04 	addi	r6,sp,48
 1001a00:	d9c15115 	stw	r7,1348(sp)
 1001a04:	1000d580 	call	1000d58 <__sprint_r>
 1001a08:	d9c15117 	ldw	r7,1348(sp)
 1001a0c:	103ea01e 	bne	r2,zero,1001490 <___vfprintf_internal_r+0x6e0>
 1001a10:	dc800e17 	ldw	r18,56(sp)
 1001a14:	dc400d17 	ldw	r17,52(sp)
 1001a18:	dd401904 	addi	r21,sp,100
 1001a1c:	003e1c06 	br	1001290 <___vfprintf_internal_r+0x4e0>
 1001a20:	d9014f17 	ldw	r4,1340(sp)
 1001a24:	b00b883a 	mov	r5,r22
 1001a28:	d9800c04 	addi	r6,sp,48
 1001a2c:	d9c15115 	stw	r7,1348(sp)
 1001a30:	1000d580 	call	1000d58 <__sprint_r>
 1001a34:	d9c15117 	ldw	r7,1348(sp)
 1001a38:	103e951e 	bne	r2,zero,1001490 <___vfprintf_internal_r+0x6e0>
 1001a3c:	dc800e17 	ldw	r18,56(sp)
 1001a40:	dc400d17 	ldw	r17,52(sp)
 1001a44:	dd401904 	addi	r21,sp,100
 1001a48:	003e0406 	br	100125c <___vfprintf_internal_r+0x4ac>
 1001a4c:	d9000517 	ldw	r4,20(sp)
 1001a50:	0102580e 	bge	zero,r4,10023b4 <___vfprintf_internal_r+0x1604>
 1001a54:	d9814717 	ldw	r6,1308(sp)
 1001a58:	21807a16 	blt	r4,r6,1001c44 <___vfprintf_internal_r+0xe94>
 1001a5c:	d8814117 	ldw	r2,1284(sp)
 1001a60:	91a5883a 	add	r18,r18,r6
 1001a64:	8c400044 	addi	r17,r17,1
 1001a68:	a8800015 	stw	r2,0(r21)
 1001a6c:	008001c4 	movi	r2,7
 1001a70:	a9800115 	stw	r6,4(r21)
 1001a74:	dc800e15 	stw	r18,56(sp)
 1001a78:	dc400d15 	stw	r17,52(sp)
 1001a7c:	1442fc16 	blt	r2,r17,1002670 <___vfprintf_internal_r+0x18c0>
 1001a80:	a8c00204 	addi	r3,r21,8
 1001a84:	d9414717 	ldw	r5,1308(sp)
 1001a88:	2161c83a 	sub	r16,r4,r5
 1001a8c:	043f9d0e 	bge	zero,r16,1001904 <___vfprintf_internal_r+0xb54>
 1001a90:	00800404 	movi	r2,16
 1001a94:	1402190e 	bge	r2,r16,10022fc <___vfprintf_internal_r+0x154c>
 1001a98:	dc400d17 	ldw	r17,52(sp)
 1001a9c:	1027883a 	mov	r19,r2
 1001aa0:	07004074 	movhi	fp,257
 1001aa4:	e73aca84 	addi	fp,fp,-5334
 1001aa8:	050001c4 	movi	r20,7
 1001aac:	00000306 	br	1001abc <___vfprintf_internal_r+0xd0c>
 1001ab0:	18c00204 	addi	r3,r3,8
 1001ab4:	843ffc04 	addi	r16,r16,-16
 1001ab8:	9c02130e 	bge	r19,r16,1002308 <___vfprintf_internal_r+0x1558>
 1001abc:	94800404 	addi	r18,r18,16
 1001ac0:	8c400044 	addi	r17,r17,1
 1001ac4:	1f000015 	stw	fp,0(r3)
 1001ac8:	1cc00115 	stw	r19,4(r3)
 1001acc:	dc800e15 	stw	r18,56(sp)
 1001ad0:	dc400d15 	stw	r17,52(sp)
 1001ad4:	a47ff60e 	bge	r20,r17,1001ab0 <___vfprintf_internal_r+0xd00>
 1001ad8:	d9014f17 	ldw	r4,1340(sp)
 1001adc:	b00b883a 	mov	r5,r22
 1001ae0:	d9800c04 	addi	r6,sp,48
 1001ae4:	1000d580 	call	1000d58 <__sprint_r>
 1001ae8:	103e691e 	bne	r2,zero,1001490 <___vfprintf_internal_r+0x6e0>
 1001aec:	dc800e17 	ldw	r18,56(sp)
 1001af0:	dc400d17 	ldw	r17,52(sp)
 1001af4:	d8c01904 	addi	r3,sp,100
 1001af8:	003fee06 	br	1001ab4 <___vfprintf_internal_r+0xd04>
 1001afc:	d8814717 	ldw	r2,1308(sp)
 1001b00:	143fffc4 	addi	r16,r2,-1
 1001b04:	043e970e 	bge	zero,r16,1001564 <___vfprintf_internal_r+0x7b4>
 1001b08:	00800404 	movi	r2,16
 1001b0c:	1400180e 	bge	r2,r16,1001b70 <___vfprintf_internal_r+0xdc0>
 1001b10:	1029883a 	mov	r20,r2
 1001b14:	07004074 	movhi	fp,257
 1001b18:	e73aca84 	addi	fp,fp,-5334
 1001b1c:	054001c4 	movi	r21,7
 1001b20:	00000306 	br	1001b30 <___vfprintf_internal_r+0xd80>
 1001b24:	9cc00204 	addi	r19,r19,8
 1001b28:	843ffc04 	addi	r16,r16,-16
 1001b2c:	a400120e 	bge	r20,r16,1001b78 <___vfprintf_internal_r+0xdc8>
 1001b30:	94800404 	addi	r18,r18,16
 1001b34:	8c400044 	addi	r17,r17,1
 1001b38:	9f000015 	stw	fp,0(r19)
 1001b3c:	9d000115 	stw	r20,4(r19)
 1001b40:	dc800e15 	stw	r18,56(sp)
 1001b44:	dc400d15 	stw	r17,52(sp)
 1001b48:	ac7ff60e 	bge	r21,r17,1001b24 <___vfprintf_internal_r+0xd74>
 1001b4c:	d9014f17 	ldw	r4,1340(sp)
 1001b50:	b00b883a 	mov	r5,r22
 1001b54:	d9800c04 	addi	r6,sp,48
 1001b58:	1000d580 	call	1000d58 <__sprint_r>
 1001b5c:	103e4c1e 	bne	r2,zero,1001490 <___vfprintf_internal_r+0x6e0>
 1001b60:	dc800e17 	ldw	r18,56(sp)
 1001b64:	dc400d17 	ldw	r17,52(sp)
 1001b68:	dcc01904 	addi	r19,sp,100
 1001b6c:	003fee06 	br	1001b28 <___vfprintf_internal_r+0xd78>
 1001b70:	07004074 	movhi	fp,257
 1001b74:	e73aca84 	addi	fp,fp,-5334
 1001b78:	9425883a 	add	r18,r18,r16
 1001b7c:	8c400044 	addi	r17,r17,1
 1001b80:	008001c4 	movi	r2,7
 1001b84:	9f000015 	stw	fp,0(r19)
 1001b88:	9c000115 	stw	r16,4(r19)
 1001b8c:	dc800e15 	stw	r18,56(sp)
 1001b90:	dc400d15 	stw	r17,52(sp)
 1001b94:	147e720e 	bge	r2,r17,1001560 <___vfprintf_internal_r+0x7b0>
 1001b98:	d9014f17 	ldw	r4,1340(sp)
 1001b9c:	b00b883a 	mov	r5,r22
 1001ba0:	d9800c04 	addi	r6,sp,48
 1001ba4:	1000d580 	call	1000d58 <__sprint_r>
 1001ba8:	103e391e 	bne	r2,zero,1001490 <___vfprintf_internal_r+0x6e0>
 1001bac:	dc800e17 	ldw	r18,56(sp)
 1001bb0:	dc400d17 	ldw	r17,52(sp)
 1001bb4:	dcc01904 	addi	r19,sp,100
 1001bb8:	003e6a06 	br	1001564 <___vfprintf_internal_r+0x7b4>
 1001bbc:	d9014f17 	ldw	r4,1340(sp)
 1001bc0:	b00b883a 	mov	r5,r22
 1001bc4:	d9800c04 	addi	r6,sp,48
 1001bc8:	d9c15115 	stw	r7,1348(sp)
 1001bcc:	1000d580 	call	1000d58 <__sprint_r>
 1001bd0:	d9c15117 	ldw	r7,1348(sp)
 1001bd4:	103e2e1e 	bne	r2,zero,1001490 <___vfprintf_internal_r+0x6e0>
 1001bd8:	dc800e17 	ldw	r18,56(sp)
 1001bdc:	dc400d17 	ldw	r17,52(sp)
 1001be0:	dd401904 	addi	r21,sp,100
 1001be4:	003dba06 	br	10012d0 <___vfprintf_internal_r+0x520>
 1001be8:	d9014f17 	ldw	r4,1340(sp)
 1001bec:	b00b883a 	mov	r5,r22
 1001bf0:	d9800c04 	addi	r6,sp,48
 1001bf4:	1000d580 	call	1000d58 <__sprint_r>
 1001bf8:	103e251e 	bne	r2,zero,1001490 <___vfprintf_internal_r+0x6e0>
 1001bfc:	dc800e17 	ldw	r18,56(sp)
 1001c00:	dc400d17 	ldw	r17,52(sp)
 1001c04:	dcc01904 	addi	r19,sp,100
 1001c08:	003e4206 	br	1001514 <___vfprintf_internal_r+0x764>
 1001c0c:	d9014f17 	ldw	r4,1340(sp)
 1001c10:	b00b883a 	mov	r5,r22
 1001c14:	d9800c04 	addi	r6,sp,48
 1001c18:	1000d580 	call	1000d58 <__sprint_r>
 1001c1c:	103e1c1e 	bne	r2,zero,1001490 <___vfprintf_internal_r+0x6e0>
 1001c20:	dc800e17 	ldw	r18,56(sp)
 1001c24:	dc400d17 	ldw	r17,52(sp)
 1001c28:	d8c01904 	addi	r3,sp,100
 1001c2c:	003e2e06 	br	10014e8 <___vfprintf_internal_r+0x738>
 1001c30:	d9414c17 	ldw	r5,1328(sp)
 1001c34:	2880004c 	andi	r2,r5,1
 1001c38:	1005003a 	cmpeq	r2,r2,zero
 1001c3c:	103dda1e 	bne	r2,zero,10013a8 <___vfprintf_internal_r+0x5f8>
 1001c40:	003e9f06 	br	10016c0 <___vfprintf_internal_r+0x910>
 1001c44:	d8c14117 	ldw	r3,1284(sp)
 1001c48:	9125883a 	add	r18,r18,r4
 1001c4c:	8c400044 	addi	r17,r17,1
 1001c50:	008001c4 	movi	r2,7
 1001c54:	a8c00015 	stw	r3,0(r21)
 1001c58:	a9000115 	stw	r4,4(r21)
 1001c5c:	dc800e15 	stw	r18,56(sp)
 1001c60:	dc400d15 	stw	r17,52(sp)
 1001c64:	14426c16 	blt	r2,r17,1002618 <___vfprintf_internal_r+0x1868>
 1001c68:	a8c00204 	addi	r3,r21,8
 1001c6c:	d9414917 	ldw	r5,1316(sp)
 1001c70:	00800044 	movi	r2,1
 1001c74:	94800044 	addi	r18,r18,1
 1001c78:	8c400044 	addi	r17,r17,1
 1001c7c:	18800115 	stw	r2,4(r3)
 1001c80:	008001c4 	movi	r2,7
 1001c84:	19400015 	stw	r5,0(r3)
 1001c88:	dc800e15 	stw	r18,56(sp)
 1001c8c:	dc400d15 	stw	r17,52(sp)
 1001c90:	2021883a 	mov	r16,r4
 1001c94:	14425616 	blt	r2,r17,10025f0 <___vfprintf_internal_r+0x1840>
 1001c98:	19400204 	addi	r5,r3,8
 1001c9c:	d9814717 	ldw	r6,1308(sp)
 1001ca0:	8c400044 	addi	r17,r17,1
 1001ca4:	dc400d15 	stw	r17,52(sp)
 1001ca8:	3107c83a 	sub	r3,r6,r4
 1001cac:	d9014117 	ldw	r4,1284(sp)
 1001cb0:	90e5883a 	add	r18,r18,r3
 1001cb4:	28c00115 	stw	r3,4(r5)
 1001cb8:	8105883a 	add	r2,r16,r4
 1001cbc:	28800015 	stw	r2,0(r5)
 1001cc0:	008001c4 	movi	r2,7
 1001cc4:	dc800e15 	stw	r18,56(sp)
 1001cc8:	147f1d16 	blt	r2,r17,1001940 <___vfprintf_internal_r+0xb90>
 1001ccc:	28c00204 	addi	r3,r5,8
 1001cd0:	003db506 	br	10013a8 <___vfprintf_internal_r+0x5f8>
 1001cd4:	3c000017 	ldw	r16,0(r7)
 1001cd8:	3c400117 	ldw	r17,4(r7)
 1001cdc:	39800204 	addi	r6,r7,8
 1001ce0:	01000044 	movi	r4,1
 1001ce4:	d9814015 	stw	r6,1280(sp)
 1001ce8:	d8000405 	stb	zero,16(sp)
 1001cec:	003ebe06 	br	10017e8 <___vfprintf_internal_r+0xa38>
 1001cf0:	3c000017 	ldw	r16,0(r7)
 1001cf4:	3c400117 	ldw	r17,4(r7)
 1001cf8:	38800204 	addi	r2,r7,8
 1001cfc:	d8814015 	stw	r2,1280(sp)
 1001d00:	003eb706 	br	10017e0 <___vfprintf_internal_r+0xa30>
 1001d04:	3c000017 	ldw	r16,0(r7)
 1001d08:	3c400117 	ldw	r17,4(r7)
 1001d0c:	39000204 	addi	r4,r7,8
 1001d10:	d9014015 	stw	r4,1280(sp)
 1001d14:	0009883a 	mov	r4,zero
 1001d18:	d8000405 	stb	zero,16(sp)
 1001d1c:	003eb206 	br	10017e8 <___vfprintf_internal_r+0xa38>
 1001d20:	38c00017 	ldw	r3,0(r7)
 1001d24:	39c00104 	addi	r7,r7,4
 1001d28:	d8c14a15 	stw	r3,1320(sp)
 1001d2c:	1800d70e 	bge	r3,zero,100208c <___vfprintf_internal_r+0x12dc>
 1001d30:	00c7c83a 	sub	r3,zero,r3
 1001d34:	d8c14a15 	stw	r3,1320(sp)
 1001d38:	d9014c17 	ldw	r4,1328(sp)
 1001d3c:	b8c00007 	ldb	r3,0(r23)
 1001d40:	21000114 	ori	r4,r4,4
 1001d44:	d9014c15 	stw	r4,1328(sp)
 1001d48:	003c9806 	br	1000fac <___vfprintf_internal_r+0x1fc>
 1001d4c:	d9814c17 	ldw	r6,1328(sp)
 1001d50:	3080080c 	andi	r2,r6,32
 1001d54:	1001f626 	beq	r2,zero,1002530 <___vfprintf_internal_r+0x1780>
 1001d58:	d9014b17 	ldw	r4,1324(sp)
 1001d5c:	38800017 	ldw	r2,0(r7)
 1001d60:	39c00104 	addi	r7,r7,4
 1001d64:	d9c14015 	stw	r7,1280(sp)
 1001d68:	2007d7fa 	srai	r3,r4,31
 1001d6c:	d9c14017 	ldw	r7,1280(sp)
 1001d70:	11000015 	stw	r4,0(r2)
 1001d74:	10c00115 	stw	r3,4(r2)
 1001d78:	003c6906 	br	1000f20 <___vfprintf_internal_r+0x170>
 1001d7c:	b8c00007 	ldb	r3,0(r23)
 1001d80:	00801b04 	movi	r2,108
 1001d84:	18825526 	beq	r3,r2,10026dc <___vfprintf_internal_r+0x192c>
 1001d88:	d9414c17 	ldw	r5,1328(sp)
 1001d8c:	29400414 	ori	r5,r5,16
 1001d90:	d9414c15 	stw	r5,1328(sp)
 1001d94:	003c8506 	br	1000fac <___vfprintf_internal_r+0x1fc>
 1001d98:	d9814c17 	ldw	r6,1328(sp)
 1001d9c:	b8c00007 	ldb	r3,0(r23)
 1001da0:	31800814 	ori	r6,r6,32
 1001da4:	d9814c15 	stw	r6,1328(sp)
 1001da8:	003c8006 	br	1000fac <___vfprintf_internal_r+0x1fc>
 1001dac:	d8814c17 	ldw	r2,1328(sp)
 1001db0:	3c000017 	ldw	r16,0(r7)
 1001db4:	00c01e04 	movi	r3,120
 1001db8:	10800094 	ori	r2,r2,2
 1001dbc:	d8814c15 	stw	r2,1328(sp)
 1001dc0:	39c00104 	addi	r7,r7,4
 1001dc4:	01404074 	movhi	r5,257
 1001dc8:	297ab304 	addi	r5,r5,-5428
 1001dcc:	00800c04 	movi	r2,48
 1001dd0:	0023883a 	mov	r17,zero
 1001dd4:	01000084 	movi	r4,2
 1001dd8:	d9c14015 	stw	r7,1280(sp)
 1001ddc:	d8c14d15 	stw	r3,1332(sp)
 1001de0:	d9414415 	stw	r5,1296(sp)
 1001de4:	d8800445 	stb	r2,17(sp)
 1001de8:	d8c00485 	stb	r3,18(sp)
 1001dec:	d8000405 	stb	zero,16(sp)
 1001df0:	003e7d06 	br	10017e8 <___vfprintf_internal_r+0xa38>
 1001df4:	d8814c17 	ldw	r2,1328(sp)
 1001df8:	b8c00007 	ldb	r3,0(r23)
 1001dfc:	10801014 	ori	r2,r2,64
 1001e00:	d8814c15 	stw	r2,1328(sp)
 1001e04:	003c6906 	br	1000fac <___vfprintf_internal_r+0x1fc>
 1001e08:	d9414c17 	ldw	r5,1328(sp)
 1001e0c:	2880020c 	andi	r2,r5,8
 1001e10:	1001e526 	beq	r2,zero,10025a8 <___vfprintf_internal_r+0x17f8>
 1001e14:	39800017 	ldw	r6,0(r7)
 1001e18:	38800204 	addi	r2,r7,8
 1001e1c:	d8814015 	stw	r2,1280(sp)
 1001e20:	d9814215 	stw	r6,1288(sp)
 1001e24:	39c00117 	ldw	r7,4(r7)
 1001e28:	d9c14315 	stw	r7,1292(sp)
 1001e2c:	d9014217 	ldw	r4,1288(sp)
 1001e30:	d9414317 	ldw	r5,1292(sp)
 1001e34:	10078600 	call	1007860 <__isinfd>
 1001e38:	10021d26 	beq	r2,zero,10026b0 <___vfprintf_internal_r+0x1900>
 1001e3c:	d9014217 	ldw	r4,1288(sp)
 1001e40:	d9414317 	ldw	r5,1292(sp)
 1001e44:	000d883a 	mov	r6,zero
 1001e48:	000f883a 	mov	r7,zero
 1001e4c:	1009b200 	call	1009b20 <__ltdf2>
 1001e50:	1002d016 	blt	r2,zero,1002994 <___vfprintf_internal_r+0x1be4>
 1001e54:	d9414d17 	ldw	r5,1332(sp)
 1001e58:	008011c4 	movi	r2,71
 1001e5c:	11421016 	blt	r2,r5,10026a0 <___vfprintf_internal_r+0x18f0>
 1001e60:	01804074 	movhi	r6,257
 1001e64:	31bab804 	addi	r6,r6,-5408
 1001e68:	d9814115 	stw	r6,1284(sp)
 1001e6c:	d9014c17 	ldw	r4,1328(sp)
 1001e70:	00c000c4 	movi	r3,3
 1001e74:	00bfdfc4 	movi	r2,-129
 1001e78:	2088703a 	and	r4,r4,r2
 1001e7c:	180f883a 	mov	r7,r3
 1001e80:	d8c14515 	stw	r3,1300(sp)
 1001e84:	d9014c15 	stw	r4,1328(sp)
 1001e88:	d8014615 	stw	zero,1304(sp)
 1001e8c:	003e6a06 	br	1001838 <___vfprintf_internal_r+0xa88>
 1001e90:	38800017 	ldw	r2,0(r7)
 1001e94:	00c00044 	movi	r3,1
 1001e98:	39c00104 	addi	r7,r7,4
 1001e9c:	d9c14015 	stw	r7,1280(sp)
 1001ea0:	d9000f04 	addi	r4,sp,60
 1001ea4:	180f883a 	mov	r7,r3
 1001ea8:	d8c14515 	stw	r3,1300(sp)
 1001eac:	d9014115 	stw	r4,1284(sp)
 1001eb0:	d8800f05 	stb	r2,60(sp)
 1001eb4:	d8000405 	stb	zero,16(sp)
 1001eb8:	003cac06 	br	100116c <___vfprintf_internal_r+0x3bc>
 1001ebc:	01404074 	movhi	r5,257
 1001ec0:	297abe04 	addi	r5,r5,-5384
 1001ec4:	d9414415 	stw	r5,1296(sp)
 1001ec8:	d9814c17 	ldw	r6,1328(sp)
 1001ecc:	3080080c 	andi	r2,r6,32
 1001ed0:	1000ff26 	beq	r2,zero,10022d0 <___vfprintf_internal_r+0x1520>
 1001ed4:	3c000017 	ldw	r16,0(r7)
 1001ed8:	3c400117 	ldw	r17,4(r7)
 1001edc:	38800204 	addi	r2,r7,8
 1001ee0:	d8814015 	stw	r2,1280(sp)
 1001ee4:	d9414c17 	ldw	r5,1328(sp)
 1001ee8:	2880004c 	andi	r2,r5,1
 1001eec:	1005003a 	cmpeq	r2,r2,zero
 1001ef0:	1000b91e 	bne	r2,zero,10021d8 <___vfprintf_internal_r+0x1428>
 1001ef4:	8444b03a 	or	r2,r16,r17
 1001ef8:	1000b726 	beq	r2,zero,10021d8 <___vfprintf_internal_r+0x1428>
 1001efc:	d9814d17 	ldw	r6,1332(sp)
 1001f00:	29400094 	ori	r5,r5,2
 1001f04:	00800c04 	movi	r2,48
 1001f08:	01000084 	movi	r4,2
 1001f0c:	d9414c15 	stw	r5,1328(sp)
 1001f10:	d8800445 	stb	r2,17(sp)
 1001f14:	d9800485 	stb	r6,18(sp)
 1001f18:	d8000405 	stb	zero,16(sp)
 1001f1c:	003e3206 	br	10017e8 <___vfprintf_internal_r+0xa38>
 1001f20:	01804074 	movhi	r6,257
 1001f24:	31bab304 	addi	r6,r6,-5428
 1001f28:	d9814415 	stw	r6,1296(sp)
 1001f2c:	003fe606 	br	1001ec8 <___vfprintf_internal_r+0x1118>
 1001f30:	00800ac4 	movi	r2,43
 1001f34:	d8800405 	stb	r2,16(sp)
 1001f38:	b8c00007 	ldb	r3,0(r23)
 1001f3c:	003c1b06 	br	1000fac <___vfprintf_internal_r+0x1fc>
 1001f40:	d8814c17 	ldw	r2,1328(sp)
 1001f44:	b8c00007 	ldb	r3,0(r23)
 1001f48:	10800054 	ori	r2,r2,1
 1001f4c:	d8814c15 	stw	r2,1328(sp)
 1001f50:	003c1606 	br	1000fac <___vfprintf_internal_r+0x1fc>
 1001f54:	d8800407 	ldb	r2,16(sp)
 1001f58:	10004c1e 	bne	r2,zero,100208c <___vfprintf_internal_r+0x12dc>
 1001f5c:	00800804 	movi	r2,32
 1001f60:	d8800405 	stb	r2,16(sp)
 1001f64:	b8c00007 	ldb	r3,0(r23)
 1001f68:	003c1006 	br	1000fac <___vfprintf_internal_r+0x1fc>
 1001f6c:	d9814c17 	ldw	r6,1328(sp)
 1001f70:	b8c00007 	ldb	r3,0(r23)
 1001f74:	31800214 	ori	r6,r6,8
 1001f78:	d9814c15 	stw	r6,1328(sp)
 1001f7c:	003c0b06 	br	1000fac <___vfprintf_internal_r+0x1fc>
 1001f80:	0009883a 	mov	r4,zero
 1001f84:	04000244 	movi	r16,9
 1001f88:	01400284 	movi	r5,10
 1001f8c:	d9c15115 	stw	r7,1348(sp)
 1001f90:	1009f0c0 	call	1009f0c <__mulsi3>
 1001f94:	b9000007 	ldb	r4,0(r23)
 1001f98:	d8c14d17 	ldw	r3,1332(sp)
 1001f9c:	bdc00044 	addi	r23,r23,1
 1001fa0:	d9014d15 	stw	r4,1332(sp)
 1001fa4:	d9414d17 	ldw	r5,1332(sp)
 1001fa8:	1885883a 	add	r2,r3,r2
 1001fac:	113ff404 	addi	r4,r2,-48
 1001fb0:	28bff404 	addi	r2,r5,-48
 1001fb4:	d9c15117 	ldw	r7,1348(sp)
 1001fb8:	80bff32e 	bgeu	r16,r2,1001f88 <___vfprintf_internal_r+0x11d8>
 1001fbc:	d9014a15 	stw	r4,1320(sp)
 1001fc0:	003bfc06 	br	1000fb4 <___vfprintf_internal_r+0x204>
 1001fc4:	d8814c17 	ldw	r2,1328(sp)
 1001fc8:	b8c00007 	ldb	r3,0(r23)
 1001fcc:	10802014 	ori	r2,r2,128
 1001fd0:	d8814c15 	stw	r2,1328(sp)
 1001fd4:	003bf506 	br	1000fac <___vfprintf_internal_r+0x1fc>
 1001fd8:	b8c00007 	ldb	r3,0(r23)
 1001fdc:	00800a84 	movi	r2,42
 1001fe0:	bdc00044 	addi	r23,r23,1
 1001fe4:	18831826 	beq	r3,r2,1002c48 <___vfprintf_internal_r+0x1e98>
 1001fe8:	d8c14d15 	stw	r3,1332(sp)
 1001fec:	18bff404 	addi	r2,r3,-48
 1001ff0:	00c00244 	movi	r3,9
 1001ff4:	18827b36 	bltu	r3,r2,10029e4 <___vfprintf_internal_r+0x1c34>
 1001ff8:	1821883a 	mov	r16,r3
 1001ffc:	0009883a 	mov	r4,zero
 1002000:	01400284 	movi	r5,10
 1002004:	d9c15115 	stw	r7,1348(sp)
 1002008:	1009f0c0 	call	1009f0c <__mulsi3>
 100200c:	d9414d17 	ldw	r5,1332(sp)
 1002010:	b9800007 	ldb	r6,0(r23)
 1002014:	d9c15117 	ldw	r7,1348(sp)
 1002018:	1145883a 	add	r2,r2,r5
 100201c:	113ff404 	addi	r4,r2,-48
 1002020:	30bff404 	addi	r2,r6,-48
 1002024:	d9814d15 	stw	r6,1332(sp)
 1002028:	bdc00044 	addi	r23,r23,1
 100202c:	80bff42e 	bgeu	r16,r2,1002000 <___vfprintf_internal_r+0x1250>
 1002030:	2027883a 	mov	r19,r4
 1002034:	203bdf0e 	bge	r4,zero,1000fb4 <___vfprintf_internal_r+0x204>
 1002038:	04ffffc4 	movi	r19,-1
 100203c:	003bdd06 	br	1000fb4 <___vfprintf_internal_r+0x204>
 1002040:	d8000405 	stb	zero,16(sp)
 1002044:	39800017 	ldw	r6,0(r7)
 1002048:	39c00104 	addi	r7,r7,4
 100204c:	d9c14015 	stw	r7,1280(sp)
 1002050:	d9814115 	stw	r6,1284(sp)
 1002054:	3001c926 	beq	r6,zero,100277c <___vfprintf_internal_r+0x19cc>
 1002058:	98000e16 	blt	r19,zero,1002094 <___vfprintf_internal_r+0x12e4>
 100205c:	d9014117 	ldw	r4,1284(sp)
 1002060:	000b883a 	mov	r5,zero
 1002064:	980d883a 	mov	r6,r19
 1002068:	1005ee40 	call	1005ee4 <memchr>
 100206c:	10025926 	beq	r2,zero,10029d4 <___vfprintf_internal_r+0x1c24>
 1002070:	d8c14117 	ldw	r3,1284(sp)
 1002074:	10cfc83a 	sub	r7,r2,r3
 1002078:	99c19e16 	blt	r19,r7,10026f4 <___vfprintf_internal_r+0x1944>
 100207c:	d9c14515 	stw	r7,1300(sp)
 1002080:	38000916 	blt	r7,zero,10020a8 <___vfprintf_internal_r+0x12f8>
 1002084:	d8014615 	stw	zero,1304(sp)
 1002088:	003deb06 	br	1001838 <___vfprintf_internal_r+0xa88>
 100208c:	b8c00007 	ldb	r3,0(r23)
 1002090:	003bc606 	br	1000fac <___vfprintf_internal_r+0x1fc>
 1002094:	d9014117 	ldw	r4,1284(sp)
 1002098:	1000ce40 	call	1000ce4 <strlen>
 100209c:	d8814515 	stw	r2,1300(sp)
 10020a0:	100f883a 	mov	r7,r2
 10020a4:	103ff70e 	bge	r2,zero,1002084 <___vfprintf_internal_r+0x12d4>
 10020a8:	d8014515 	stw	zero,1300(sp)
 10020ac:	d8014615 	stw	zero,1304(sp)
 10020b0:	003de106 	br	1001838 <___vfprintf_internal_r+0xa88>
 10020b4:	20c03fcc 	andi	r3,r4,255
 10020b8:	00800044 	movi	r2,1
 10020bc:	18802d26 	beq	r3,r2,1002174 <___vfprintf_internal_r+0x13c4>
 10020c0:	18800e36 	bltu	r3,r2,10020fc <___vfprintf_internal_r+0x134c>
 10020c4:	00800084 	movi	r2,2
 10020c8:	1880fa26 	beq	r3,r2,10024b4 <___vfprintf_internal_r+0x1704>
 10020cc:	01004074 	movhi	r4,257
 10020d0:	213ac304 	addi	r4,r4,-5364
 10020d4:	1000ce40 	call	1000ce4 <strlen>
 10020d8:	100f883a 	mov	r7,r2
 10020dc:	dcc14515 	stw	r19,1300(sp)
 10020e0:	9880010e 	bge	r19,r2,10020e8 <___vfprintf_internal_r+0x1338>
 10020e4:	d8814515 	stw	r2,1300(sp)
 10020e8:	00804074 	movhi	r2,257
 10020ec:	10bac304 	addi	r2,r2,-5364
 10020f0:	dcc14615 	stw	r19,1304(sp)
 10020f4:	d8814115 	stw	r2,1284(sp)
 10020f8:	003dcf06 	br	1001838 <___vfprintf_internal_r+0xa88>
 10020fc:	d9401904 	addi	r5,sp,100
 1002100:	dd000f04 	addi	r20,sp,60
 1002104:	d9414115 	stw	r5,1284(sp)
 1002108:	880a977a 	slli	r5,r17,29
 100210c:	d9814117 	ldw	r6,1284(sp)
 1002110:	8004d0fa 	srli	r2,r16,3
 1002114:	8806d0fa 	srli	r3,r17,3
 1002118:	810001cc 	andi	r4,r16,7
 100211c:	2884b03a 	or	r2,r5,r2
 1002120:	31bfffc4 	addi	r6,r6,-1
 1002124:	21000c04 	addi	r4,r4,48
 1002128:	d9814115 	stw	r6,1284(sp)
 100212c:	10cab03a 	or	r5,r2,r3
 1002130:	31000005 	stb	r4,0(r6)
 1002134:	1021883a 	mov	r16,r2
 1002138:	1823883a 	mov	r17,r3
 100213c:	283ff21e 	bne	r5,zero,1002108 <___vfprintf_internal_r+0x1358>
 1002140:	d8c14c17 	ldw	r3,1328(sp)
 1002144:	1880004c 	andi	r2,r3,1
 1002148:	1005003a 	cmpeq	r2,r2,zero
 100214c:	103db31e 	bne	r2,zero,100181c <___vfprintf_internal_r+0xa6c>
 1002150:	20803fcc 	andi	r2,r4,255
 1002154:	1080201c 	xori	r2,r2,128
 1002158:	10bfe004 	addi	r2,r2,-128
 100215c:	00c00c04 	movi	r3,48
 1002160:	10fdae26 	beq	r2,r3,100181c <___vfprintf_internal_r+0xa6c>
 1002164:	31bfffc4 	addi	r6,r6,-1
 1002168:	d9814115 	stw	r6,1284(sp)
 100216c:	30c00005 	stb	r3,0(r6)
 1002170:	003daa06 	br	100181c <___vfprintf_internal_r+0xa6c>
 1002174:	88800068 	cmpgeui	r2,r17,1
 1002178:	10002c1e 	bne	r2,zero,100222c <___vfprintf_internal_r+0x147c>
 100217c:	8800021e 	bne	r17,zero,1002188 <___vfprintf_internal_r+0x13d8>
 1002180:	00800244 	movi	r2,9
 1002184:	14002936 	bltu	r2,r16,100222c <___vfprintf_internal_r+0x147c>
 1002188:	d90018c4 	addi	r4,sp,99
 100218c:	dd000f04 	addi	r20,sp,60
 1002190:	d9014115 	stw	r4,1284(sp)
 1002194:	d9014117 	ldw	r4,1284(sp)
 1002198:	80800c04 	addi	r2,r16,48
 100219c:	20800005 	stb	r2,0(r4)
 10021a0:	003d9e06 	br	100181c <___vfprintf_internal_r+0xa6c>
 10021a4:	dc400d17 	ldw	r17,52(sp)
 10021a8:	07004074 	movhi	fp,257
 10021ac:	e73aca84 	addi	fp,fp,-5334
 10021b0:	9425883a 	add	r18,r18,r16
 10021b4:	8c400044 	addi	r17,r17,1
 10021b8:	008001c4 	movi	r2,7
 10021bc:	1f000015 	stw	fp,0(r3)
 10021c0:	1c000115 	stw	r16,4(r3)
 10021c4:	dc800e15 	stw	r18,56(sp)
 10021c8:	dc400d15 	stw	r17,52(sp)
 10021cc:	147ddc16 	blt	r2,r17,1001940 <___vfprintf_internal_r+0xb90>
 10021d0:	18c00204 	addi	r3,r3,8
 10021d4:	003c7406 	br	10013a8 <___vfprintf_internal_r+0x5f8>
 10021d8:	01000084 	movi	r4,2
 10021dc:	d8000405 	stb	zero,16(sp)
 10021e0:	003d8106 	br	10017e8 <___vfprintf_internal_r+0xa38>
 10021e4:	d9814c17 	ldw	r6,1328(sp)
 10021e8:	30c4703a 	and	r2,r6,r3
 10021ec:	1005003a 	cmpeq	r2,r2,zero
 10021f0:	103cb326 	beq	r2,zero,10014c0 <___vfprintf_internal_r+0x710>
 10021f4:	d9014117 	ldw	r4,1284(sp)
 10021f8:	94800044 	addi	r18,r18,1
 10021fc:	8c400044 	addi	r17,r17,1
 1002200:	008001c4 	movi	r2,7
 1002204:	a9000015 	stw	r4,0(r21)
 1002208:	a8c00115 	stw	r3,4(r21)
 100220c:	dc800e15 	stw	r18,56(sp)
 1002210:	dc400d15 	stw	r17,52(sp)
 1002214:	147e6016 	blt	r2,r17,1001b98 <___vfprintf_internal_r+0xde8>
 1002218:	acc00204 	addi	r19,r21,8
 100221c:	003cd106 	br	1001564 <___vfprintf_internal_r+0x7b4>
 1002220:	07004074 	movhi	fp,257
 1002224:	e73aca84 	addi	fp,fp,-5334
 1002228:	003c4906 	br	1001350 <___vfprintf_internal_r+0x5a0>
 100222c:	dd000f04 	addi	r20,sp,60
 1002230:	dc801904 	addi	r18,sp,100
 1002234:	8009883a 	mov	r4,r16
 1002238:	880b883a 	mov	r5,r17
 100223c:	01800284 	movi	r6,10
 1002240:	000f883a 	mov	r7,zero
 1002244:	10087800 	call	1008780 <__umoddi3>
 1002248:	12000c04 	addi	r8,r2,48
 100224c:	94bfffc4 	addi	r18,r18,-1
 1002250:	8009883a 	mov	r4,r16
 1002254:	880b883a 	mov	r5,r17
 1002258:	01800284 	movi	r6,10
 100225c:	000f883a 	mov	r7,zero
 1002260:	92000005 	stb	r8,0(r18)
 1002264:	10081140 	call	1008114 <__udivdi3>
 1002268:	1009883a 	mov	r4,r2
 100226c:	1021883a 	mov	r16,r2
 1002270:	18800068 	cmpgeui	r2,r3,1
 1002274:	1823883a 	mov	r17,r3
 1002278:	103fee1e 	bne	r2,zero,1002234 <___vfprintf_internal_r+0x1484>
 100227c:	1800021e 	bne	r3,zero,1002288 <___vfprintf_internal_r+0x14d8>
 1002280:	00800244 	movi	r2,9
 1002284:	113feb36 	bltu	r2,r4,1002234 <___vfprintf_internal_r+0x1484>
 1002288:	94bfffc4 	addi	r18,r18,-1
 100228c:	dc814115 	stw	r18,1284(sp)
 1002290:	003fc006 	br	1002194 <___vfprintf_internal_r+0x13e4>
 1002294:	d9014c17 	ldw	r4,1328(sp)
 1002298:	2080004c 	andi	r2,r4,1
 100229c:	10009a1e 	bne	r2,zero,1002508 <___vfprintf_internal_r+0x1758>
 10022a0:	d9401904 	addi	r5,sp,100
 10022a4:	dd000f04 	addi	r20,sp,60
 10022a8:	d9414115 	stw	r5,1284(sp)
 10022ac:	003d5b06 	br	100181c <___vfprintf_internal_r+0xa6c>
 10022b0:	d9014f17 	ldw	r4,1340(sp)
 10022b4:	b00b883a 	mov	r5,r22
 10022b8:	d9800c04 	addi	r6,sp,48
 10022bc:	1000d580 	call	1000d58 <__sprint_r>
 10022c0:	103c731e 	bne	r2,zero,1001490 <___vfprintf_internal_r+0x6e0>
 10022c4:	dc800e17 	ldw	r18,56(sp)
 10022c8:	d8c01904 	addi	r3,sp,100
 10022cc:	003cf906 	br	10016b4 <___vfprintf_internal_r+0x904>
 10022d0:	d8c14c17 	ldw	r3,1328(sp)
 10022d4:	1880040c 	andi	r2,r3,16
 10022d8:	1000711e 	bne	r2,zero,10024a0 <___vfprintf_internal_r+0x16f0>
 10022dc:	d9014c17 	ldw	r4,1328(sp)
 10022e0:	2080100c 	andi	r2,r4,64
 10022e4:	10006e26 	beq	r2,zero,10024a0 <___vfprintf_internal_r+0x16f0>
 10022e8:	3c00000b 	ldhu	r16,0(r7)
 10022ec:	0023883a 	mov	r17,zero
 10022f0:	39c00104 	addi	r7,r7,4
 10022f4:	d9c14015 	stw	r7,1280(sp)
 10022f8:	003efa06 	br	1001ee4 <___vfprintf_internal_r+0x1134>
 10022fc:	dc400d17 	ldw	r17,52(sp)
 1002300:	07004074 	movhi	fp,257
 1002304:	e73aca84 	addi	fp,fp,-5334
 1002308:	9425883a 	add	r18,r18,r16
 100230c:	8c400044 	addi	r17,r17,1
 1002310:	008001c4 	movi	r2,7
 1002314:	1f000015 	stw	fp,0(r3)
 1002318:	1c000115 	stw	r16,4(r3)
 100231c:	dc800e15 	stw	r18,56(sp)
 1002320:	dc400d15 	stw	r17,52(sp)
 1002324:	147d7016 	blt	r2,r17,10018e8 <___vfprintf_internal_r+0xb38>
 1002328:	18c00204 	addi	r3,r3,8
 100232c:	003d7506 	br	1001904 <___vfprintf_internal_r+0xb54>
 1002330:	dc800e17 	ldw	r18,56(sp)
 1002334:	dc400d17 	ldw	r17,52(sp)
 1002338:	07004074 	movhi	fp,257
 100233c:	e73ace84 	addi	fp,fp,-5318
 1002340:	003bba06 	br	100122c <___vfprintf_internal_r+0x47c>
 1002344:	d9014f17 	ldw	r4,1340(sp)
 1002348:	b00b883a 	mov	r5,r22
 100234c:	d9800c04 	addi	r6,sp,48
 1002350:	1000d580 	call	1000d58 <__sprint_r>
 1002354:	103c4e1e 	bne	r2,zero,1001490 <___vfprintf_internal_r+0x6e0>
 1002358:	dc800e17 	ldw	r18,56(sp)
 100235c:	d8c01904 	addi	r3,sp,100
 1002360:	003ce306 	br	10016f0 <___vfprintf_internal_r+0x940>
 1002364:	3c000017 	ldw	r16,0(r7)
 1002368:	0009883a 	mov	r4,zero
 100236c:	39c00104 	addi	r7,r7,4
 1002370:	0023883a 	mov	r17,zero
 1002374:	d9c14015 	stw	r7,1280(sp)
 1002378:	d8000405 	stb	zero,16(sp)
 100237c:	003d1a06 	br	10017e8 <___vfprintf_internal_r+0xa38>
 1002380:	38800017 	ldw	r2,0(r7)
 1002384:	39c00104 	addi	r7,r7,4
 1002388:	d9c14015 	stw	r7,1280(sp)
 100238c:	1023d7fa 	srai	r17,r2,31
 1002390:	1021883a 	mov	r16,r2
 1002394:	003d1206 	br	10017e0 <___vfprintf_internal_r+0xa30>
 1002398:	3c000017 	ldw	r16,0(r7)
 100239c:	01000044 	movi	r4,1
 10023a0:	39c00104 	addi	r7,r7,4
 10023a4:	0023883a 	mov	r17,zero
 10023a8:	d9c14015 	stw	r7,1280(sp)
 10023ac:	d8000405 	stb	zero,16(sp)
 10023b0:	003d0d06 	br	10017e8 <___vfprintf_internal_r+0xa38>
 10023b4:	00804074 	movhi	r2,257
 10023b8:	10baca04 	addi	r2,r2,-5336
 10023bc:	94800044 	addi	r18,r18,1
 10023c0:	8c400044 	addi	r17,r17,1
 10023c4:	a8800015 	stw	r2,0(r21)
 10023c8:	00c00044 	movi	r3,1
 10023cc:	008001c4 	movi	r2,7
 10023d0:	a8c00115 	stw	r3,4(r21)
 10023d4:	dc800e15 	stw	r18,56(sp)
 10023d8:	dc400d15 	stw	r17,52(sp)
 10023dc:	1440ca16 	blt	r2,r17,1002708 <___vfprintf_internal_r+0x1958>
 10023e0:	a8c00204 	addi	r3,r21,8
 10023e4:	2000061e 	bne	r4,zero,1002400 <___vfprintf_internal_r+0x1650>
 10023e8:	d9414717 	ldw	r5,1308(sp)
 10023ec:	2800041e 	bne	r5,zero,1002400 <___vfprintf_internal_r+0x1650>
 10023f0:	d9814c17 	ldw	r6,1328(sp)
 10023f4:	3080004c 	andi	r2,r6,1
 10023f8:	1005003a 	cmpeq	r2,r2,zero
 10023fc:	103bea1e 	bne	r2,zero,10013a8 <___vfprintf_internal_r+0x5f8>
 1002400:	00800044 	movi	r2,1
 1002404:	dc400d17 	ldw	r17,52(sp)
 1002408:	18800115 	stw	r2,4(r3)
 100240c:	d8814917 	ldw	r2,1316(sp)
 1002410:	94800044 	addi	r18,r18,1
 1002414:	8c400044 	addi	r17,r17,1
 1002418:	18800015 	stw	r2,0(r3)
 100241c:	008001c4 	movi	r2,7
 1002420:	dc800e15 	stw	r18,56(sp)
 1002424:	dc400d15 	stw	r17,52(sp)
 1002428:	1440ca16 	blt	r2,r17,1002754 <___vfprintf_internal_r+0x19a4>
 100242c:	18c00204 	addi	r3,r3,8
 1002430:	0121c83a 	sub	r16,zero,r4
 1002434:	0400500e 	bge	zero,r16,1002578 <___vfprintf_internal_r+0x17c8>
 1002438:	00800404 	movi	r2,16
 100243c:	1400800e 	bge	r2,r16,1002640 <___vfprintf_internal_r+0x1890>
 1002440:	1027883a 	mov	r19,r2
 1002444:	07004074 	movhi	fp,257
 1002448:	e73aca84 	addi	fp,fp,-5334
 100244c:	050001c4 	movi	r20,7
 1002450:	00000306 	br	1002460 <___vfprintf_internal_r+0x16b0>
 1002454:	18c00204 	addi	r3,r3,8
 1002458:	843ffc04 	addi	r16,r16,-16
 100245c:	9c007a0e 	bge	r19,r16,1002648 <___vfprintf_internal_r+0x1898>
 1002460:	94800404 	addi	r18,r18,16
 1002464:	8c400044 	addi	r17,r17,1
 1002468:	1f000015 	stw	fp,0(r3)
 100246c:	1cc00115 	stw	r19,4(r3)
 1002470:	dc800e15 	stw	r18,56(sp)
 1002474:	dc400d15 	stw	r17,52(sp)
 1002478:	a47ff60e 	bge	r20,r17,1002454 <___vfprintf_internal_r+0x16a4>
 100247c:	d9014f17 	ldw	r4,1340(sp)
 1002480:	b00b883a 	mov	r5,r22
 1002484:	d9800c04 	addi	r6,sp,48
 1002488:	1000d580 	call	1000d58 <__sprint_r>
 100248c:	103c001e 	bne	r2,zero,1001490 <___vfprintf_internal_r+0x6e0>
 1002490:	dc800e17 	ldw	r18,56(sp)
 1002494:	dc400d17 	ldw	r17,52(sp)
 1002498:	d8c01904 	addi	r3,sp,100
 100249c:	003fee06 	br	1002458 <___vfprintf_internal_r+0x16a8>
 10024a0:	3c000017 	ldw	r16,0(r7)
 10024a4:	0023883a 	mov	r17,zero
 10024a8:	39c00104 	addi	r7,r7,4
 10024ac:	d9c14015 	stw	r7,1280(sp)
 10024b0:	003e8c06 	br	1001ee4 <___vfprintf_internal_r+0x1134>
 10024b4:	d9401904 	addi	r5,sp,100
 10024b8:	dd000f04 	addi	r20,sp,60
 10024bc:	d9414115 	stw	r5,1284(sp)
 10024c0:	d9814417 	ldw	r6,1296(sp)
 10024c4:	880a973a 	slli	r5,r17,28
 10024c8:	8004d13a 	srli	r2,r16,4
 10024cc:	810003cc 	andi	r4,r16,15
 10024d0:	3109883a 	add	r4,r6,r4
 10024d4:	2884b03a 	or	r2,r5,r2
 10024d8:	21400003 	ldbu	r5,0(r4)
 10024dc:	d9014117 	ldw	r4,1284(sp)
 10024e0:	8806d13a 	srli	r3,r17,4
 10024e4:	1021883a 	mov	r16,r2
 10024e8:	213fffc4 	addi	r4,r4,-1
 10024ec:	d9014115 	stw	r4,1284(sp)
 10024f0:	d9814117 	ldw	r6,1284(sp)
 10024f4:	10c8b03a 	or	r4,r2,r3
 10024f8:	1823883a 	mov	r17,r3
 10024fc:	31400005 	stb	r5,0(r6)
 1002500:	203fef1e 	bne	r4,zero,10024c0 <___vfprintf_internal_r+0x1710>
 1002504:	003cc506 	br	100181c <___vfprintf_internal_r+0xa6c>
 1002508:	00800c04 	movi	r2,48
 100250c:	d98018c4 	addi	r6,sp,99
 1002510:	dd000f04 	addi	r20,sp,60
 1002514:	d88018c5 	stb	r2,99(sp)
 1002518:	d9814115 	stw	r6,1284(sp)
 100251c:	003cbf06 	br	100181c <___vfprintf_internal_r+0xa6c>
 1002520:	dc400d17 	ldw	r17,52(sp)
 1002524:	07004074 	movhi	fp,257
 1002528:	e73ace84 	addi	fp,fp,-5318
 100252c:	003bc106 	br	1001434 <___vfprintf_internal_r+0x684>
 1002530:	d9414c17 	ldw	r5,1328(sp)
 1002534:	2880040c 	andi	r2,r5,16
 1002538:	10007c26 	beq	r2,zero,100272c <___vfprintf_internal_r+0x197c>
 100253c:	38800017 	ldw	r2,0(r7)
 1002540:	39c00104 	addi	r7,r7,4
 1002544:	d9c14015 	stw	r7,1280(sp)
 1002548:	d9814b17 	ldw	r6,1324(sp)
 100254c:	d9c14017 	ldw	r7,1280(sp)
 1002550:	11800015 	stw	r6,0(r2)
 1002554:	003a7206 	br	1000f20 <___vfprintf_internal_r+0x170>
 1002558:	d9014f17 	ldw	r4,1340(sp)
 100255c:	b00b883a 	mov	r5,r22
 1002560:	d9800c04 	addi	r6,sp,48
 1002564:	1000d580 	call	1000d58 <__sprint_r>
 1002568:	103bc91e 	bne	r2,zero,1001490 <___vfprintf_internal_r+0x6e0>
 100256c:	dc800e17 	ldw	r18,56(sp)
 1002570:	dc400d17 	ldw	r17,52(sp)
 1002574:	d8c01904 	addi	r3,sp,100
 1002578:	d9014717 	ldw	r4,1308(sp)
 100257c:	d9414117 	ldw	r5,1284(sp)
 1002580:	8c400044 	addi	r17,r17,1
 1002584:	9125883a 	add	r18,r18,r4
 1002588:	008001c4 	movi	r2,7
 100258c:	19400015 	stw	r5,0(r3)
 1002590:	19000115 	stw	r4,4(r3)
 1002594:	dc800e15 	stw	r18,56(sp)
 1002598:	dc400d15 	stw	r17,52(sp)
 100259c:	147ce816 	blt	r2,r17,1001940 <___vfprintf_internal_r+0xb90>
 10025a0:	18c00204 	addi	r3,r3,8
 10025a4:	003b8006 	br	10013a8 <___vfprintf_internal_r+0x5f8>
 10025a8:	38c00017 	ldw	r3,0(r7)
 10025ac:	39000204 	addi	r4,r7,8
 10025b0:	d9014015 	stw	r4,1280(sp)
 10025b4:	d8c14215 	stw	r3,1288(sp)
 10025b8:	39c00117 	ldw	r7,4(r7)
 10025bc:	d9c14315 	stw	r7,1292(sp)
 10025c0:	003e1a06 	br	1001e2c <___vfprintf_internal_r+0x107c>
 10025c4:	0005883a 	mov	r2,zero
 10025c8:	1409c83a 	sub	r4,r2,r16
 10025cc:	1105803a 	cmpltu	r2,r2,r4
 10025d0:	044bc83a 	sub	r5,zero,r17
 10025d4:	2885c83a 	sub	r2,r5,r2
 10025d8:	2021883a 	mov	r16,r4
 10025dc:	1023883a 	mov	r17,r2
 10025e0:	01000044 	movi	r4,1
 10025e4:	00800b44 	movi	r2,45
 10025e8:	d8800405 	stb	r2,16(sp)
 10025ec:	003c7e06 	br	10017e8 <___vfprintf_internal_r+0xa38>
 10025f0:	d9014f17 	ldw	r4,1340(sp)
 10025f4:	b00b883a 	mov	r5,r22
 10025f8:	d9800c04 	addi	r6,sp,48
 10025fc:	1000d580 	call	1000d58 <__sprint_r>
 1002600:	103ba31e 	bne	r2,zero,1001490 <___vfprintf_internal_r+0x6e0>
 1002604:	dc800e17 	ldw	r18,56(sp)
 1002608:	dc400d17 	ldw	r17,52(sp)
 100260c:	d9000517 	ldw	r4,20(sp)
 1002610:	d9401904 	addi	r5,sp,100
 1002614:	003da106 	br	1001c9c <___vfprintf_internal_r+0xeec>
 1002618:	d9014f17 	ldw	r4,1340(sp)
 100261c:	b00b883a 	mov	r5,r22
 1002620:	d9800c04 	addi	r6,sp,48
 1002624:	1000d580 	call	1000d58 <__sprint_r>
 1002628:	103b991e 	bne	r2,zero,1001490 <___vfprintf_internal_r+0x6e0>
 100262c:	dc800e17 	ldw	r18,56(sp)
 1002630:	dc400d17 	ldw	r17,52(sp)
 1002634:	d9000517 	ldw	r4,20(sp)
 1002638:	d8c01904 	addi	r3,sp,100
 100263c:	003d8b06 	br	1001c6c <___vfprintf_internal_r+0xebc>
 1002640:	07004074 	movhi	fp,257
 1002644:	e73aca84 	addi	fp,fp,-5334
 1002648:	9425883a 	add	r18,r18,r16
 100264c:	8c400044 	addi	r17,r17,1
 1002650:	008001c4 	movi	r2,7
 1002654:	1f000015 	stw	fp,0(r3)
 1002658:	1c000115 	stw	r16,4(r3)
 100265c:	dc800e15 	stw	r18,56(sp)
 1002660:	dc400d15 	stw	r17,52(sp)
 1002664:	147fbc16 	blt	r2,r17,1002558 <___vfprintf_internal_r+0x17a8>
 1002668:	18c00204 	addi	r3,r3,8
 100266c:	003fc206 	br	1002578 <___vfprintf_internal_r+0x17c8>
 1002670:	d9014f17 	ldw	r4,1340(sp)
 1002674:	b00b883a 	mov	r5,r22
 1002678:	d9800c04 	addi	r6,sp,48
 100267c:	1000d580 	call	1000d58 <__sprint_r>
 1002680:	103b831e 	bne	r2,zero,1001490 <___vfprintf_internal_r+0x6e0>
 1002684:	dc800e17 	ldw	r18,56(sp)
 1002688:	d9000517 	ldw	r4,20(sp)
 100268c:	d8c01904 	addi	r3,sp,100
 1002690:	003cfc06 	br	1001a84 <___vfprintf_internal_r+0xcd4>
 1002694:	07004074 	movhi	fp,257
 1002698:	e73aca84 	addi	fp,fp,-5334
 100269c:	003bde06 	br	1001618 <___vfprintf_internal_r+0x868>
 10026a0:	00804074 	movhi	r2,257
 10026a4:	10bab904 	addi	r2,r2,-5404
 10026a8:	d8814115 	stw	r2,1284(sp)
 10026ac:	003def06 	br	1001e6c <___vfprintf_internal_r+0x10bc>
 10026b0:	d9014217 	ldw	r4,1288(sp)
 10026b4:	d9414317 	ldw	r5,1292(sp)
 10026b8:	10078a00 	call	10078a0 <__isnand>
 10026bc:	10003926 	beq	r2,zero,10027a4 <___vfprintf_internal_r+0x19f4>
 10026c0:	d9414d17 	ldw	r5,1332(sp)
 10026c4:	008011c4 	movi	r2,71
 10026c8:	1140ce16 	blt	r2,r5,1002a04 <___vfprintf_internal_r+0x1c54>
 10026cc:	01804074 	movhi	r6,257
 10026d0:	31baba04 	addi	r6,r6,-5400
 10026d4:	d9814115 	stw	r6,1284(sp)
 10026d8:	003de406 	br	1001e6c <___vfprintf_internal_r+0x10bc>
 10026dc:	d9014c17 	ldw	r4,1328(sp)
 10026e0:	bdc00044 	addi	r23,r23,1
 10026e4:	b8c00007 	ldb	r3,0(r23)
 10026e8:	21000814 	ori	r4,r4,32
 10026ec:	d9014c15 	stw	r4,1328(sp)
 10026f0:	003a2e06 	br	1000fac <___vfprintf_internal_r+0x1fc>
 10026f4:	dcc14515 	stw	r19,1300(sp)
 10026f8:	98011016 	blt	r19,zero,1002b3c <___vfprintf_internal_r+0x1d8c>
 10026fc:	980f883a 	mov	r7,r19
 1002700:	d8014615 	stw	zero,1304(sp)
 1002704:	003c4c06 	br	1001838 <___vfprintf_internal_r+0xa88>
 1002708:	d9014f17 	ldw	r4,1340(sp)
 100270c:	b00b883a 	mov	r5,r22
 1002710:	d9800c04 	addi	r6,sp,48
 1002714:	1000d580 	call	1000d58 <__sprint_r>
 1002718:	103b5d1e 	bne	r2,zero,1001490 <___vfprintf_internal_r+0x6e0>
 100271c:	dc800e17 	ldw	r18,56(sp)
 1002720:	d9000517 	ldw	r4,20(sp)
 1002724:	d8c01904 	addi	r3,sp,100
 1002728:	003f2e06 	br	10023e4 <___vfprintf_internal_r+0x1634>
 100272c:	d8c14c17 	ldw	r3,1328(sp)
 1002730:	1880100c 	andi	r2,r3,64
 1002734:	1000a026 	beq	r2,zero,10029b8 <___vfprintf_internal_r+0x1c08>
 1002738:	38800017 	ldw	r2,0(r7)
 100273c:	39c00104 	addi	r7,r7,4
 1002740:	d9c14015 	stw	r7,1280(sp)
 1002744:	d9014b17 	ldw	r4,1324(sp)
 1002748:	d9c14017 	ldw	r7,1280(sp)
 100274c:	1100000d 	sth	r4,0(r2)
 1002750:	0039f306 	br	1000f20 <___vfprintf_internal_r+0x170>
 1002754:	d9014f17 	ldw	r4,1340(sp)
 1002758:	b00b883a 	mov	r5,r22
 100275c:	d9800c04 	addi	r6,sp,48
 1002760:	1000d580 	call	1000d58 <__sprint_r>
 1002764:	103b4a1e 	bne	r2,zero,1001490 <___vfprintf_internal_r+0x6e0>
 1002768:	dc800e17 	ldw	r18,56(sp)
 100276c:	dc400d17 	ldw	r17,52(sp)
 1002770:	d9000517 	ldw	r4,20(sp)
 1002774:	d8c01904 	addi	r3,sp,100
 1002778:	003f2d06 	br	1002430 <___vfprintf_internal_r+0x1680>
 100277c:	00800184 	movi	r2,6
 1002780:	14c09a36 	bltu	r2,r19,10029ec <___vfprintf_internal_r+0x1c3c>
 1002784:	dcc14515 	stw	r19,1300(sp)
 1002788:	9800010e 	bge	r19,zero,1002790 <___vfprintf_internal_r+0x19e0>
 100278c:	d8014515 	stw	zero,1300(sp)
 1002790:	00804074 	movhi	r2,257
 1002794:	10babc04 	addi	r2,r2,-5392
 1002798:	980f883a 	mov	r7,r19
 100279c:	d8814115 	stw	r2,1284(sp)
 10027a0:	003a7206 	br	100116c <___vfprintf_internal_r+0x3bc>
 10027a4:	00bfffc4 	movi	r2,-1
 10027a8:	9880e226 	beq	r19,r2,1002b34 <___vfprintf_internal_r+0x1d84>
 10027ac:	d9414d17 	ldw	r5,1332(sp)
 10027b0:	008019c4 	movi	r2,103
 10027b4:	2880dc26 	beq	r5,r2,1002b28 <___vfprintf_internal_r+0x1d78>
 10027b8:	008011c4 	movi	r2,71
 10027bc:	2880da26 	beq	r5,r2,1002b28 <___vfprintf_internal_r+0x1d78>
 10027c0:	d9414c17 	ldw	r5,1328(sp)
 10027c4:	d9014317 	ldw	r4,1292(sp)
 10027c8:	d9814217 	ldw	r6,1288(sp)
 10027cc:	29404014 	ori	r5,r5,256
 10027d0:	d9414c15 	stw	r5,1328(sp)
 10027d4:	2000cc16 	blt	r4,zero,1002b08 <___vfprintf_internal_r+0x1d58>
 10027d8:	3021883a 	mov	r16,r6
 10027dc:	2023883a 	mov	r17,r4
 10027e0:	0039883a 	mov	fp,zero
 10027e4:	d9414d17 	ldw	r5,1332(sp)
 10027e8:	00801984 	movi	r2,102
 10027ec:	2880b726 	beq	r5,r2,1002acc <___vfprintf_internal_r+0x1d1c>
 10027f0:	00801184 	movi	r2,70
 10027f4:	2880b526 	beq	r5,r2,1002acc <___vfprintf_internal_r+0x1d1c>
 10027f8:	00801944 	movi	r2,101
 10027fc:	2880c826 	beq	r5,r2,1002b20 <___vfprintf_internal_r+0x1d70>
 1002800:	00801144 	movi	r2,69
 1002804:	2880c626 	beq	r5,r2,1002b20 <___vfprintf_internal_r+0x1d70>
 1002808:	9829883a 	mov	r20,r19
 100280c:	d9014f17 	ldw	r4,1340(sp)
 1002810:	d8800504 	addi	r2,sp,20
 1002814:	880d883a 	mov	r6,r17
 1002818:	d8800115 	stw	r2,4(sp)
 100281c:	d8c00604 	addi	r3,sp,24
 1002820:	d8800704 	addi	r2,sp,28
 1002824:	800b883a 	mov	r5,r16
 1002828:	01c00084 	movi	r7,2
 100282c:	d8c00215 	stw	r3,8(sp)
 1002830:	d8800315 	stw	r2,12(sp)
 1002834:	dd000015 	stw	r20,0(sp)
 1002838:	10030180 	call	1003018 <_dtoa_r>
 100283c:	d9814d17 	ldw	r6,1332(sp)
 1002840:	d8814115 	stw	r2,1284(sp)
 1002844:	008019c4 	movi	r2,103
 1002848:	30809526 	beq	r6,r2,1002aa0 <___vfprintf_internal_r+0x1cf0>
 100284c:	d8c14d17 	ldw	r3,1332(sp)
 1002850:	008011c4 	movi	r2,71
 1002854:	18809226 	beq	r3,r2,1002aa0 <___vfprintf_internal_r+0x1cf0>
 1002858:	d9414117 	ldw	r5,1284(sp)
 100285c:	d9814d17 	ldw	r6,1332(sp)
 1002860:	00801984 	movi	r2,102
 1002864:	2d25883a 	add	r18,r5,r20
 1002868:	30808626 	beq	r6,r2,1002a84 <___vfprintf_internal_r+0x1cd4>
 100286c:	00801184 	movi	r2,70
 1002870:	30808426 	beq	r6,r2,1002a84 <___vfprintf_internal_r+0x1cd4>
 1002874:	000d883a 	mov	r6,zero
 1002878:	000f883a 	mov	r7,zero
 100287c:	880b883a 	mov	r5,r17
 1002880:	8009883a 	mov	r4,r16
 1002884:	10099000 	call	1009900 <__eqdf2>
 1002888:	1000751e 	bne	r2,zero,1002a60 <___vfprintf_internal_r+0x1cb0>
 100288c:	9005883a 	mov	r2,r18
 1002890:	dc800715 	stw	r18,28(sp)
 1002894:	d9014117 	ldw	r4,1284(sp)
 1002898:	d9414d17 	ldw	r5,1332(sp)
 100289c:	00c019c4 	movi	r3,103
 10028a0:	1125c83a 	sub	r18,r2,r4
 10028a4:	28c06826 	beq	r5,r3,1002a48 <___vfprintf_internal_r+0x1c98>
 10028a8:	008011c4 	movi	r2,71
 10028ac:	28806626 	beq	r5,r2,1002a48 <___vfprintf_internal_r+0x1c98>
 10028b0:	d9000517 	ldw	r4,20(sp)
 10028b4:	d8c14d17 	ldw	r3,1332(sp)
 10028b8:	00801944 	movi	r2,101
 10028bc:	10c05516 	blt	r2,r3,1002a14 <___vfprintf_internal_r+0x1c64>
 10028c0:	213fffc4 	addi	r4,r4,-1
 10028c4:	d9000515 	stw	r4,20(sp)
 10028c8:	d8c00805 	stb	r3,32(sp)
 10028cc:	2021883a 	mov	r16,r4
 10028d0:	2000c116 	blt	r4,zero,1002bd8 <___vfprintf_internal_r+0x1e28>
 10028d4:	00800ac4 	movi	r2,43
 10028d8:	d8800845 	stb	r2,33(sp)
 10028dc:	00800244 	movi	r2,9
 10028e0:	1400af0e 	bge	r2,r16,1002ba0 <___vfprintf_internal_r+0x1df0>
 10028e4:	1027883a 	mov	r19,r2
 10028e8:	dc400b84 	addi	r17,sp,46
 10028ec:	8009883a 	mov	r4,r16
 10028f0:	01400284 	movi	r5,10
 10028f4:	1000ab40 	call	1000ab4 <__modsi3>
 10028f8:	10800c04 	addi	r2,r2,48
 10028fc:	8c7fffc4 	addi	r17,r17,-1
 1002900:	8009883a 	mov	r4,r16
 1002904:	01400284 	movi	r5,10
 1002908:	88800005 	stb	r2,0(r17)
 100290c:	1000a540 	call	1000a54 <__divsi3>
 1002910:	1021883a 	mov	r16,r2
 1002914:	98bff516 	blt	r19,r2,10028ec <___vfprintf_internal_r+0x1b3c>
 1002918:	10c00c04 	addi	r3,r2,48
 100291c:	d88009c4 	addi	r2,sp,39
 1002920:	108001c4 	addi	r2,r2,7
 1002924:	897fffc4 	addi	r5,r17,-1
 1002928:	88ffffc5 	stb	r3,-1(r17)
 100292c:	2880a72e 	bgeu	r5,r2,1002bcc <___vfprintf_internal_r+0x1e1c>
 1002930:	1009883a 	mov	r4,r2
 1002934:	d9800804 	addi	r6,sp,32
 1002938:	d8c00884 	addi	r3,sp,34
 100293c:	28800003 	ldbu	r2,0(r5)
 1002940:	29400044 	addi	r5,r5,1
 1002944:	18800005 	stb	r2,0(r3)
 1002948:	18c00044 	addi	r3,r3,1
 100294c:	293ffb36 	bltu	r5,r4,100293c <___vfprintf_internal_r+0x1b8c>
 1002950:	1987c83a 	sub	r3,r3,r6
 1002954:	00800044 	movi	r2,1
 1002958:	d8c14815 	stw	r3,1312(sp)
 100295c:	90cf883a 	add	r7,r18,r3
 1002960:	1480960e 	bge	r2,r18,1002bbc <___vfprintf_internal_r+0x1e0c>
 1002964:	39c00044 	addi	r7,r7,1
 1002968:	d9c14515 	stw	r7,1300(sp)
 100296c:	38003416 	blt	r7,zero,1002a40 <___vfprintf_internal_r+0x1c90>
 1002970:	e0803fcc 	andi	r2,fp,255
 1002974:	1080201c 	xori	r2,r2,128
 1002978:	10bfe004 	addi	r2,r2,-128
 100297c:	10004e26 	beq	r2,zero,1002ab8 <___vfprintf_internal_r+0x1d08>
 1002980:	00800b44 	movi	r2,45
 1002984:	dc814715 	stw	r18,1308(sp)
 1002988:	d8014615 	stw	zero,1304(sp)
 100298c:	d8800405 	stb	r2,16(sp)
 1002990:	003bab06 	br	1001840 <___vfprintf_internal_r+0xa90>
 1002994:	00800b44 	movi	r2,45
 1002998:	d8800405 	stb	r2,16(sp)
 100299c:	003d2d06 	br	1001e54 <___vfprintf_internal_r+0x10a4>
 10029a0:	d9014f17 	ldw	r4,1340(sp)
 10029a4:	b00b883a 	mov	r5,r22
 10029a8:	d9800c04 	addi	r6,sp,48
 10029ac:	1000d580 	call	1000d58 <__sprint_r>
 10029b0:	103ab71e 	bne	r2,zero,1001490 <___vfprintf_internal_r+0x6e0>
 10029b4:	003ab506 	br	100148c <___vfprintf_internal_r+0x6dc>
 10029b8:	38800017 	ldw	r2,0(r7)
 10029bc:	39c00104 	addi	r7,r7,4
 10029c0:	d9c14015 	stw	r7,1280(sp)
 10029c4:	d9414b17 	ldw	r5,1324(sp)
 10029c8:	d9c14017 	ldw	r7,1280(sp)
 10029cc:	11400015 	stw	r5,0(r2)
 10029d0:	00395306 	br	1000f20 <___vfprintf_internal_r+0x170>
 10029d4:	980f883a 	mov	r7,r19
 10029d8:	dcc14515 	stw	r19,1300(sp)
 10029dc:	d8014615 	stw	zero,1304(sp)
 10029e0:	003b9506 	br	1001838 <___vfprintf_internal_r+0xa88>
 10029e4:	0027883a 	mov	r19,zero
 10029e8:	00397206 	br	1000fb4 <___vfprintf_internal_r+0x204>
 10029ec:	00c04074 	movhi	r3,257
 10029f0:	18fabc04 	addi	r3,r3,-5392
 10029f4:	100f883a 	mov	r7,r2
 10029f8:	d8814515 	stw	r2,1300(sp)
 10029fc:	d8c14115 	stw	r3,1284(sp)
 1002a00:	0039da06 	br	100116c <___vfprintf_internal_r+0x3bc>
 1002a04:	00804074 	movhi	r2,257
 1002a08:	10babb04 	addi	r2,r2,-5396
 1002a0c:	d8814115 	stw	r2,1284(sp)
 1002a10:	003d1606 	br	1001e6c <___vfprintf_internal_r+0x10bc>
 1002a14:	d9414d17 	ldw	r5,1332(sp)
 1002a18:	00801984 	movi	r2,102
 1002a1c:	28804926 	beq	r5,r2,1002b44 <___vfprintf_internal_r+0x1d94>
 1002a20:	200f883a 	mov	r7,r4
 1002a24:	24805716 	blt	r4,r18,1002b84 <___vfprintf_internal_r+0x1dd4>
 1002a28:	d9414c17 	ldw	r5,1328(sp)
 1002a2c:	2880004c 	andi	r2,r5,1
 1002a30:	10000126 	beq	r2,zero,1002a38 <___vfprintf_internal_r+0x1c88>
 1002a34:	21c00044 	addi	r7,r4,1
 1002a38:	d9c14515 	stw	r7,1300(sp)
 1002a3c:	383fcc0e 	bge	r7,zero,1002970 <___vfprintf_internal_r+0x1bc0>
 1002a40:	d8014515 	stw	zero,1300(sp)
 1002a44:	003fca06 	br	1002970 <___vfprintf_internal_r+0x1bc0>
 1002a48:	d9000517 	ldw	r4,20(sp)
 1002a4c:	00bfff04 	movi	r2,-4
 1002a50:	1100480e 	bge	r2,r4,1002b74 <___vfprintf_internal_r+0x1dc4>
 1002a54:	99004716 	blt	r19,r4,1002b74 <___vfprintf_internal_r+0x1dc4>
 1002a58:	d8c14d15 	stw	r3,1332(sp)
 1002a5c:	003ff006 	br	1002a20 <___vfprintf_internal_r+0x1c70>
 1002a60:	d8800717 	ldw	r2,28(sp)
 1002a64:	14bf8b2e 	bgeu	r2,r18,1002894 <___vfprintf_internal_r+0x1ae4>
 1002a68:	9007883a 	mov	r3,r18
 1002a6c:	01000c04 	movi	r4,48
 1002a70:	11000005 	stb	r4,0(r2)
 1002a74:	10800044 	addi	r2,r2,1
 1002a78:	d8800715 	stw	r2,28(sp)
 1002a7c:	18bffc1e 	bne	r3,r2,1002a70 <___vfprintf_internal_r+0x1cc0>
 1002a80:	003f8406 	br	1002894 <___vfprintf_internal_r+0x1ae4>
 1002a84:	d8814117 	ldw	r2,1284(sp)
 1002a88:	10c00007 	ldb	r3,0(r2)
 1002a8c:	00800c04 	movi	r2,48
 1002a90:	18805b26 	beq	r3,r2,1002c00 <___vfprintf_internal_r+0x1e50>
 1002a94:	d9000517 	ldw	r4,20(sp)
 1002a98:	9125883a 	add	r18,r18,r4
 1002a9c:	003f7506 	br	1002874 <___vfprintf_internal_r+0x1ac4>
 1002aa0:	d9014c17 	ldw	r4,1328(sp)
 1002aa4:	2080004c 	andi	r2,r4,1
 1002aa8:	1005003a 	cmpeq	r2,r2,zero
 1002aac:	103f6a26 	beq	r2,zero,1002858 <___vfprintf_internal_r+0x1aa8>
 1002ab0:	d8800717 	ldw	r2,28(sp)
 1002ab4:	003f7706 	br	1002894 <___vfprintf_internal_r+0x1ae4>
 1002ab8:	d9c14515 	stw	r7,1300(sp)
 1002abc:	38004d16 	blt	r7,zero,1002bf4 <___vfprintf_internal_r+0x1e44>
 1002ac0:	dc814715 	stw	r18,1308(sp)
 1002ac4:	d8014615 	stw	zero,1304(sp)
 1002ac8:	003b5b06 	br	1001838 <___vfprintf_internal_r+0xa88>
 1002acc:	d9014f17 	ldw	r4,1340(sp)
 1002ad0:	d8800504 	addi	r2,sp,20
 1002ad4:	d8800115 	stw	r2,4(sp)
 1002ad8:	d8c00604 	addi	r3,sp,24
 1002adc:	d8800704 	addi	r2,sp,28
 1002ae0:	800b883a 	mov	r5,r16
 1002ae4:	880d883a 	mov	r6,r17
 1002ae8:	01c000c4 	movi	r7,3
 1002aec:	d8c00215 	stw	r3,8(sp)
 1002af0:	d8800315 	stw	r2,12(sp)
 1002af4:	dcc00015 	stw	r19,0(sp)
 1002af8:	9829883a 	mov	r20,r19
 1002afc:	10030180 	call	1003018 <_dtoa_r>
 1002b00:	d8814115 	stw	r2,1284(sp)
 1002b04:	003f5106 	br	100284c <___vfprintf_internal_r+0x1a9c>
 1002b08:	d8c14217 	ldw	r3,1288(sp)
 1002b0c:	d9014317 	ldw	r4,1292(sp)
 1002b10:	07000b44 	movi	fp,45
 1002b14:	1821883a 	mov	r16,r3
 1002b18:	2460003c 	xorhi	r17,r4,32768
 1002b1c:	003f3106 	br	10027e4 <___vfprintf_internal_r+0x1a34>
 1002b20:	9d000044 	addi	r20,r19,1
 1002b24:	003f3906 	br	100280c <___vfprintf_internal_r+0x1a5c>
 1002b28:	983f251e 	bne	r19,zero,10027c0 <___vfprintf_internal_r+0x1a10>
 1002b2c:	04c00044 	movi	r19,1
 1002b30:	003f2306 	br	10027c0 <___vfprintf_internal_r+0x1a10>
 1002b34:	04c00184 	movi	r19,6
 1002b38:	003f2106 	br	10027c0 <___vfprintf_internal_r+0x1a10>
 1002b3c:	d8014515 	stw	zero,1300(sp)
 1002b40:	003eee06 	br	10026fc <___vfprintf_internal_r+0x194c>
 1002b44:	200f883a 	mov	r7,r4
 1002b48:	0100370e 	bge	zero,r4,1002c28 <___vfprintf_internal_r+0x1e78>
 1002b4c:	9800031e 	bne	r19,zero,1002b5c <___vfprintf_internal_r+0x1dac>
 1002b50:	d9814c17 	ldw	r6,1328(sp)
 1002b54:	3080004c 	andi	r2,r6,1
 1002b58:	103fb726 	beq	r2,zero,1002a38 <___vfprintf_internal_r+0x1c88>
 1002b5c:	20800044 	addi	r2,r4,1
 1002b60:	98a7883a 	add	r19,r19,r2
 1002b64:	dcc14515 	stw	r19,1300(sp)
 1002b68:	980f883a 	mov	r7,r19
 1002b6c:	983f800e 	bge	r19,zero,1002970 <___vfprintf_internal_r+0x1bc0>
 1002b70:	003fb306 	br	1002a40 <___vfprintf_internal_r+0x1c90>
 1002b74:	d9814d17 	ldw	r6,1332(sp)
 1002b78:	31bfff84 	addi	r6,r6,-2
 1002b7c:	d9814d15 	stw	r6,1332(sp)
 1002b80:	003f4c06 	br	10028b4 <___vfprintf_internal_r+0x1b04>
 1002b84:	0100180e 	bge	zero,r4,1002be8 <___vfprintf_internal_r+0x1e38>
 1002b88:	00800044 	movi	r2,1
 1002b8c:	1485883a 	add	r2,r2,r18
 1002b90:	d8814515 	stw	r2,1300(sp)
 1002b94:	100f883a 	mov	r7,r2
 1002b98:	103f750e 	bge	r2,zero,1002970 <___vfprintf_internal_r+0x1bc0>
 1002b9c:	003fa806 	br	1002a40 <___vfprintf_internal_r+0x1c90>
 1002ba0:	80c00c04 	addi	r3,r16,48
 1002ba4:	00800c04 	movi	r2,48
 1002ba8:	d8c008c5 	stb	r3,35(sp)
 1002bac:	d9800804 	addi	r6,sp,32
 1002bb0:	d8c00904 	addi	r3,sp,36
 1002bb4:	d8800885 	stb	r2,34(sp)
 1002bb8:	003f6506 	br	1002950 <___vfprintf_internal_r+0x1ba0>
 1002bbc:	d9014c17 	ldw	r4,1328(sp)
 1002bc0:	2084703a 	and	r2,r4,r2
 1002bc4:	103f9c26 	beq	r2,zero,1002a38 <___vfprintf_internal_r+0x1c88>
 1002bc8:	003f6606 	br	1002964 <___vfprintf_internal_r+0x1bb4>
 1002bcc:	d9800804 	addi	r6,sp,32
 1002bd0:	d8c00884 	addi	r3,sp,34
 1002bd4:	003f5e06 	br	1002950 <___vfprintf_internal_r+0x1ba0>
 1002bd8:	00800b44 	movi	r2,45
 1002bdc:	0121c83a 	sub	r16,zero,r4
 1002be0:	d8800845 	stb	r2,33(sp)
 1002be4:	003f3d06 	br	10028dc <___vfprintf_internal_r+0x1b2c>
 1002be8:	00800084 	movi	r2,2
 1002bec:	1105c83a 	sub	r2,r2,r4
 1002bf0:	003fe606 	br	1002b8c <___vfprintf_internal_r+0x1ddc>
 1002bf4:	d8014515 	stw	zero,1300(sp)
 1002bf8:	dc814715 	stw	r18,1308(sp)
 1002bfc:	003fb106 	br	1002ac4 <___vfprintf_internal_r+0x1d14>
 1002c00:	000d883a 	mov	r6,zero
 1002c04:	000f883a 	mov	r7,zero
 1002c08:	8009883a 	mov	r4,r16
 1002c0c:	880b883a 	mov	r5,r17
 1002c10:	10099880 	call	1009988 <__nedf2>
 1002c14:	103f9f26 	beq	r2,zero,1002a94 <___vfprintf_internal_r+0x1ce4>
 1002c18:	00800044 	movi	r2,1
 1002c1c:	1509c83a 	sub	r4,r2,r20
 1002c20:	d9000515 	stw	r4,20(sp)
 1002c24:	003f9b06 	br	1002a94 <___vfprintf_internal_r+0x1ce4>
 1002c28:	98000d1e 	bne	r19,zero,1002c60 <___vfprintf_internal_r+0x1eb0>
 1002c2c:	d8c14c17 	ldw	r3,1328(sp)
 1002c30:	1880004c 	andi	r2,r3,1
 1002c34:	10000a1e 	bne	r2,zero,1002c60 <___vfprintf_internal_r+0x1eb0>
 1002c38:	01000044 	movi	r4,1
 1002c3c:	200f883a 	mov	r7,r4
 1002c40:	d9014515 	stw	r4,1300(sp)
 1002c44:	003f4a06 	br	1002970 <___vfprintf_internal_r+0x1bc0>
 1002c48:	3cc00017 	ldw	r19,0(r7)
 1002c4c:	39c00104 	addi	r7,r7,4
 1002c50:	983d0e0e 	bge	r19,zero,100208c <___vfprintf_internal_r+0x12dc>
 1002c54:	b8c00007 	ldb	r3,0(r23)
 1002c58:	04ffffc4 	movi	r19,-1
 1002c5c:	0038d306 	br	1000fac <___vfprintf_internal_r+0x1fc>
 1002c60:	9cc00084 	addi	r19,r19,2
 1002c64:	dcc14515 	stw	r19,1300(sp)
 1002c68:	980f883a 	mov	r7,r19
 1002c6c:	983f400e 	bge	r19,zero,1002970 <___vfprintf_internal_r+0x1bc0>
 1002c70:	003f7306 	br	1002a40 <___vfprintf_internal_r+0x1c90>

01002c74 <__vfprintf_internal>:
 1002c74:	00804074 	movhi	r2,257
 1002c78:	10824c04 	addi	r2,r2,2352
 1002c7c:	2013883a 	mov	r9,r4
 1002c80:	11000017 	ldw	r4,0(r2)
 1002c84:	2805883a 	mov	r2,r5
 1002c88:	300f883a 	mov	r7,r6
 1002c8c:	480b883a 	mov	r5,r9
 1002c90:	100d883a 	mov	r6,r2
 1002c94:	1000db01 	jmpi	1000db0 <___vfprintf_internal_r>

01002c98 <__swsetup_r>:
 1002c98:	00804074 	movhi	r2,257
 1002c9c:	10824c04 	addi	r2,r2,2352
 1002ca0:	10c00017 	ldw	r3,0(r2)
 1002ca4:	defffd04 	addi	sp,sp,-12
 1002ca8:	dc400115 	stw	r17,4(sp)
 1002cac:	dc000015 	stw	r16,0(sp)
 1002cb0:	dfc00215 	stw	ra,8(sp)
 1002cb4:	2023883a 	mov	r17,r4
 1002cb8:	2821883a 	mov	r16,r5
 1002cbc:	18000226 	beq	r3,zero,1002cc8 <__swsetup_r+0x30>
 1002cc0:	18800e17 	ldw	r2,56(r3)
 1002cc4:	10001f26 	beq	r2,zero,1002d44 <__swsetup_r+0xac>
 1002cc8:	8100030b 	ldhu	r4,12(r16)
 1002ccc:	2080020c 	andi	r2,r4,8
 1002cd0:	10002826 	beq	r2,zero,1002d74 <__swsetup_r+0xdc>
 1002cd4:	81400417 	ldw	r5,16(r16)
 1002cd8:	28001d26 	beq	r5,zero,1002d50 <__swsetup_r+0xb8>
 1002cdc:	2080004c 	andi	r2,r4,1
 1002ce0:	1005003a 	cmpeq	r2,r2,zero
 1002ce4:	10000b26 	beq	r2,zero,1002d14 <__swsetup_r+0x7c>
 1002ce8:	2080008c 	andi	r2,r4,2
 1002cec:	10001226 	beq	r2,zero,1002d38 <__swsetup_r+0xa0>
 1002cf0:	0005883a 	mov	r2,zero
 1002cf4:	80800215 	stw	r2,8(r16)
 1002cf8:	28000b26 	beq	r5,zero,1002d28 <__swsetup_r+0x90>
 1002cfc:	0005883a 	mov	r2,zero
 1002d00:	dfc00217 	ldw	ra,8(sp)
 1002d04:	dc400117 	ldw	r17,4(sp)
 1002d08:	dc000017 	ldw	r16,0(sp)
 1002d0c:	dec00304 	addi	sp,sp,12
 1002d10:	f800283a 	ret
 1002d14:	80800517 	ldw	r2,20(r16)
 1002d18:	80000215 	stw	zero,8(r16)
 1002d1c:	0085c83a 	sub	r2,zero,r2
 1002d20:	80800615 	stw	r2,24(r16)
 1002d24:	283ff51e 	bne	r5,zero,1002cfc <__swsetup_r+0x64>
 1002d28:	2080200c 	andi	r2,r4,128
 1002d2c:	103ff326 	beq	r2,zero,1002cfc <__swsetup_r+0x64>
 1002d30:	00bfffc4 	movi	r2,-1
 1002d34:	003ff206 	br	1002d00 <__swsetup_r+0x68>
 1002d38:	80800517 	ldw	r2,20(r16)
 1002d3c:	80800215 	stw	r2,8(r16)
 1002d40:	003fed06 	br	1002cf8 <__swsetup_r+0x60>
 1002d44:	1809883a 	mov	r4,r3
 1002d48:	10048640 	call	1004864 <__sinit>
 1002d4c:	003fde06 	br	1002cc8 <__swsetup_r+0x30>
 1002d50:	20c0a00c 	andi	r3,r4,640
 1002d54:	00808004 	movi	r2,512
 1002d58:	18bfe026 	beq	r3,r2,1002cdc <__swsetup_r+0x44>
 1002d5c:	8809883a 	mov	r4,r17
 1002d60:	800b883a 	mov	r5,r16
 1002d64:	10056100 	call	1005610 <__smakebuf_r>
 1002d68:	8100030b 	ldhu	r4,12(r16)
 1002d6c:	81400417 	ldw	r5,16(r16)
 1002d70:	003fda06 	br	1002cdc <__swsetup_r+0x44>
 1002d74:	2080040c 	andi	r2,r4,16
 1002d78:	103fed26 	beq	r2,zero,1002d30 <__swsetup_r+0x98>
 1002d7c:	2080010c 	andi	r2,r4,4
 1002d80:	10001226 	beq	r2,zero,1002dcc <__swsetup_r+0x134>
 1002d84:	81400c17 	ldw	r5,48(r16)
 1002d88:	28000526 	beq	r5,zero,1002da0 <__swsetup_r+0x108>
 1002d8c:	80801004 	addi	r2,r16,64
 1002d90:	28800226 	beq	r5,r2,1002d9c <__swsetup_r+0x104>
 1002d94:	8809883a 	mov	r4,r17
 1002d98:	1004c1c0 	call	1004c1c <_free_r>
 1002d9c:	80000c15 	stw	zero,48(r16)
 1002da0:	8080030b 	ldhu	r2,12(r16)
 1002da4:	81400417 	ldw	r5,16(r16)
 1002da8:	80000115 	stw	zero,4(r16)
 1002dac:	10bff6cc 	andi	r2,r2,65499
 1002db0:	8080030d 	sth	r2,12(r16)
 1002db4:	81400015 	stw	r5,0(r16)
 1002db8:	8080030b 	ldhu	r2,12(r16)
 1002dbc:	10800214 	ori	r2,r2,8
 1002dc0:	113fffcc 	andi	r4,r2,65535
 1002dc4:	8080030d 	sth	r2,12(r16)
 1002dc8:	003fc306 	br	1002cd8 <__swsetup_r+0x40>
 1002dcc:	81400417 	ldw	r5,16(r16)
 1002dd0:	003ff906 	br	1002db8 <__swsetup_r+0x120>

01002dd4 <quorem>:
 1002dd4:	28c00417 	ldw	r3,16(r5)
 1002dd8:	20800417 	ldw	r2,16(r4)
 1002ddc:	defff104 	addi	sp,sp,-60
 1002de0:	dfc00e15 	stw	ra,56(sp)
 1002de4:	df000d15 	stw	fp,52(sp)
 1002de8:	ddc00c15 	stw	r23,48(sp)
 1002dec:	dd800b15 	stw	r22,44(sp)
 1002df0:	dd400a15 	stw	r21,40(sp)
 1002df4:	dd000915 	stw	r20,36(sp)
 1002df8:	dcc00815 	stw	r19,32(sp)
 1002dfc:	dc800715 	stw	r18,28(sp)
 1002e00:	dc400615 	stw	r17,24(sp)
 1002e04:	dc000515 	stw	r16,20(sp)
 1002e08:	d9000315 	stw	r4,12(sp)
 1002e0c:	d9400415 	stw	r5,16(sp)
 1002e10:	10c07f16 	blt	r2,r3,1003010 <quorem+0x23c>
 1002e14:	1d3fffc4 	addi	r20,r3,-1
 1002e18:	d8c00417 	ldw	r3,16(sp)
 1002e1c:	d9000317 	ldw	r4,12(sp)
 1002e20:	a505883a 	add	r2,r20,r20
 1002e24:	1085883a 	add	r2,r2,r2
 1002e28:	1cc00504 	addi	r19,r3,20
 1002e2c:	25c00504 	addi	r23,r4,20
 1002e30:	98ad883a 	add	r22,r19,r2
 1002e34:	15c7883a 	add	r3,r2,r23
 1002e38:	b1400017 	ldw	r5,0(r22)
 1002e3c:	19000017 	ldw	r4,0(r3)
 1002e40:	d8c00015 	stw	r3,0(sp)
 1002e44:	29400044 	addi	r5,r5,1
 1002e48:	d9000215 	stw	r4,8(sp)
 1002e4c:	1000b140 	call	1000b14 <__udivsi3>
 1002e50:	1039883a 	mov	fp,r2
 1002e54:	10003d1e 	bne	r2,zero,1002f4c <quorem+0x178>
 1002e58:	d9400417 	ldw	r5,16(sp)
 1002e5c:	d9000317 	ldw	r4,12(sp)
 1002e60:	100633c0 	call	100633c <__mcmp>
 1002e64:	10002c16 	blt	r2,zero,1002f18 <quorem+0x144>
 1002e68:	e7000044 	addi	fp,fp,1
 1002e6c:	b80f883a 	mov	r7,r23
 1002e70:	0011883a 	mov	r8,zero
 1002e74:	0009883a 	mov	r4,zero
 1002e78:	99400017 	ldw	r5,0(r19)
 1002e7c:	38c00017 	ldw	r3,0(r7)
 1002e80:	9cc00104 	addi	r19,r19,4
 1002e84:	28bfffcc 	andi	r2,r5,65535
 1002e88:	2085883a 	add	r2,r4,r2
 1002e8c:	11bfffcc 	andi	r6,r2,65535
 1002e90:	193fffcc 	andi	r4,r3,65535
 1002e94:	1004d43a 	srli	r2,r2,16
 1002e98:	280ad43a 	srli	r5,r5,16
 1002e9c:	2189c83a 	sub	r4,r4,r6
 1002ea0:	2209883a 	add	r4,r4,r8
 1002ea4:	1806d43a 	srli	r3,r3,16
 1002ea8:	288b883a 	add	r5,r5,r2
 1002eac:	200dd43a 	srai	r6,r4,16
 1002eb0:	28bfffcc 	andi	r2,r5,65535
 1002eb4:	1887c83a 	sub	r3,r3,r2
 1002eb8:	1987883a 	add	r3,r3,r6
 1002ebc:	3900000d 	sth	r4,0(r7)
 1002ec0:	38c0008d 	sth	r3,2(r7)
 1002ec4:	2808d43a 	srli	r4,r5,16
 1002ec8:	39c00104 	addi	r7,r7,4
 1002ecc:	1811d43a 	srai	r8,r3,16
 1002ed0:	b4ffe92e 	bgeu	r22,r19,1002e78 <quorem+0xa4>
 1002ed4:	a505883a 	add	r2,r20,r20
 1002ed8:	1085883a 	add	r2,r2,r2
 1002edc:	b885883a 	add	r2,r23,r2
 1002ee0:	10c00017 	ldw	r3,0(r2)
 1002ee4:	18000c1e 	bne	r3,zero,1002f18 <quorem+0x144>
 1002ee8:	113fff04 	addi	r4,r2,-4
 1002eec:	b900082e 	bgeu	r23,r4,1002f10 <quorem+0x13c>
 1002ef0:	10bfff17 	ldw	r2,-4(r2)
 1002ef4:	10000326 	beq	r2,zero,1002f04 <quorem+0x130>
 1002ef8:	00000506 	br	1002f10 <quorem+0x13c>
 1002efc:	20800017 	ldw	r2,0(r4)
 1002f00:	1000031e 	bne	r2,zero,1002f10 <quorem+0x13c>
 1002f04:	213fff04 	addi	r4,r4,-4
 1002f08:	a53fffc4 	addi	r20,r20,-1
 1002f0c:	b93ffb36 	bltu	r23,r4,1002efc <quorem+0x128>
 1002f10:	d9000317 	ldw	r4,12(sp)
 1002f14:	25000415 	stw	r20,16(r4)
 1002f18:	e005883a 	mov	r2,fp
 1002f1c:	dfc00e17 	ldw	ra,56(sp)
 1002f20:	df000d17 	ldw	fp,52(sp)
 1002f24:	ddc00c17 	ldw	r23,48(sp)
 1002f28:	dd800b17 	ldw	r22,44(sp)
 1002f2c:	dd400a17 	ldw	r21,40(sp)
 1002f30:	dd000917 	ldw	r20,36(sp)
 1002f34:	dcc00817 	ldw	r19,32(sp)
 1002f38:	dc800717 	ldw	r18,28(sp)
 1002f3c:	dc400617 	ldw	r17,24(sp)
 1002f40:	dc000517 	ldw	r16,20(sp)
 1002f44:	dec00f04 	addi	sp,sp,60
 1002f48:	f800283a 	ret
 1002f4c:	b823883a 	mov	r17,r23
 1002f50:	9825883a 	mov	r18,r19
 1002f54:	d8000115 	stw	zero,4(sp)
 1002f58:	002b883a 	mov	r21,zero
 1002f5c:	94000017 	ldw	r16,0(r18)
 1002f60:	e009883a 	mov	r4,fp
 1002f64:	94800104 	addi	r18,r18,4
 1002f68:	817fffcc 	andi	r5,r16,65535
 1002f6c:	1009f0c0 	call	1009f0c <__mulsi3>
 1002f70:	800ad43a 	srli	r5,r16,16
 1002f74:	e009883a 	mov	r4,fp
 1002f78:	a8a1883a 	add	r16,r21,r2
 1002f7c:	1009f0c0 	call	1009f0c <__mulsi3>
 1002f80:	89000017 	ldw	r4,0(r17)
 1002f84:	80ffffcc 	andi	r3,r16,65535
 1002f88:	8020d43a 	srli	r16,r16,16
 1002f8c:	217fffcc 	andi	r5,r4,65535
 1002f90:	28cbc83a 	sub	r5,r5,r3
 1002f94:	d8c00117 	ldw	r3,4(sp)
 1002f98:	2008d43a 	srli	r4,r4,16
 1002f9c:	1405883a 	add	r2,r2,r16
 1002fa0:	28cb883a 	add	r5,r5,r3
 1002fa4:	280dd43a 	srai	r6,r5,16
 1002fa8:	10ffffcc 	andi	r3,r2,65535
 1002fac:	20c9c83a 	sub	r4,r4,r3
 1002fb0:	2189883a 	add	r4,r4,r6
 1002fb4:	8900008d 	sth	r4,2(r17)
 1002fb8:	2009d43a 	srai	r4,r4,16
 1002fbc:	8940000d 	sth	r5,0(r17)
 1002fc0:	102ad43a 	srli	r21,r2,16
 1002fc4:	8c400104 	addi	r17,r17,4
 1002fc8:	d9000115 	stw	r4,4(sp)
 1002fcc:	b4bfe32e 	bgeu	r22,r18,1002f5c <quorem+0x188>
 1002fd0:	d9000217 	ldw	r4,8(sp)
 1002fd4:	203fa01e 	bne	r4,zero,1002e58 <quorem+0x84>
 1002fd8:	d8800017 	ldw	r2,0(sp)
 1002fdc:	10ffff04 	addi	r3,r2,-4
 1002fe0:	b8c0082e 	bgeu	r23,r3,1003004 <quorem+0x230>
 1002fe4:	10bfff17 	ldw	r2,-4(r2)
 1002fe8:	10000326 	beq	r2,zero,1002ff8 <quorem+0x224>
 1002fec:	00000506 	br	1003004 <quorem+0x230>
 1002ff0:	18800017 	ldw	r2,0(r3)
 1002ff4:	1000031e 	bne	r2,zero,1003004 <quorem+0x230>
 1002ff8:	18ffff04 	addi	r3,r3,-4
 1002ffc:	a53fffc4 	addi	r20,r20,-1
 1003000:	b8fffb36 	bltu	r23,r3,1002ff0 <quorem+0x21c>
 1003004:	d8c00317 	ldw	r3,12(sp)
 1003008:	1d000415 	stw	r20,16(r3)
 100300c:	003f9206 	br	1002e58 <quorem+0x84>
 1003010:	0005883a 	mov	r2,zero
 1003014:	003fc106 	br	1002f1c <quorem+0x148>

01003018 <_dtoa_r>:
 1003018:	22001017 	ldw	r8,64(r4)
 100301c:	deffda04 	addi	sp,sp,-152
 1003020:	dd402115 	stw	r21,132(sp)
 1003024:	dd002015 	stw	r20,128(sp)
 1003028:	dc801e15 	stw	r18,120(sp)
 100302c:	dc401d15 	stw	r17,116(sp)
 1003030:	dfc02515 	stw	ra,148(sp)
 1003034:	df002415 	stw	fp,144(sp)
 1003038:	ddc02315 	stw	r23,140(sp)
 100303c:	dd802215 	stw	r22,136(sp)
 1003040:	dcc01f15 	stw	r19,124(sp)
 1003044:	dc001c15 	stw	r16,112(sp)
 1003048:	d9001615 	stw	r4,88(sp)
 100304c:	3023883a 	mov	r17,r6
 1003050:	2829883a 	mov	r20,r5
 1003054:	d9c01715 	stw	r7,92(sp)
 1003058:	dc802817 	ldw	r18,160(sp)
 100305c:	302b883a 	mov	r21,r6
 1003060:	40000a26 	beq	r8,zero,100308c <_dtoa_r+0x74>
 1003064:	20801117 	ldw	r2,68(r4)
 1003068:	400b883a 	mov	r5,r8
 100306c:	40800115 	stw	r2,4(r8)
 1003070:	20c01117 	ldw	r3,68(r4)
 1003074:	00800044 	movi	r2,1
 1003078:	10c4983a 	sll	r2,r2,r3
 100307c:	40800215 	stw	r2,8(r8)
 1003080:	10061e00 	call	10061e0 <_Bfree>
 1003084:	d8c01617 	ldw	r3,88(sp)
 1003088:	18001015 	stw	zero,64(r3)
 100308c:	8800a316 	blt	r17,zero,100331c <_dtoa_r+0x304>
 1003090:	90000015 	stw	zero,0(r18)
 1003094:	a8dffc2c 	andhi	r3,r21,32752
 1003098:	009ffc34 	movhi	r2,32752
 100309c:	18809126 	beq	r3,r2,10032e4 <_dtoa_r+0x2cc>
 10030a0:	000d883a 	mov	r6,zero
 10030a4:	000f883a 	mov	r7,zero
 10030a8:	a009883a 	mov	r4,r20
 10030ac:	a80b883a 	mov	r5,r21
 10030b0:	dd001215 	stw	r20,72(sp)
 10030b4:	dd401315 	stw	r21,76(sp)
 10030b8:	10099880 	call	1009988 <__nedf2>
 10030bc:	1000171e 	bne	r2,zero,100311c <_dtoa_r+0x104>
 10030c0:	d9802717 	ldw	r6,156(sp)
 10030c4:	00800044 	movi	r2,1
 10030c8:	30800015 	stw	r2,0(r6)
 10030cc:	d8802917 	ldw	r2,164(sp)
 10030d0:	10029b26 	beq	r2,zero,1003b40 <_dtoa_r+0xb28>
 10030d4:	d9002917 	ldw	r4,164(sp)
 10030d8:	00804074 	movhi	r2,257
 10030dc:	10baca44 	addi	r2,r2,-5335
 10030e0:	10ffffc4 	addi	r3,r2,-1
 10030e4:	20800015 	stw	r2,0(r4)
 10030e8:	1805883a 	mov	r2,r3
 10030ec:	dfc02517 	ldw	ra,148(sp)
 10030f0:	df002417 	ldw	fp,144(sp)
 10030f4:	ddc02317 	ldw	r23,140(sp)
 10030f8:	dd802217 	ldw	r22,136(sp)
 10030fc:	dd402117 	ldw	r21,132(sp)
 1003100:	dd002017 	ldw	r20,128(sp)
 1003104:	dcc01f17 	ldw	r19,124(sp)
 1003108:	dc801e17 	ldw	r18,120(sp)
 100310c:	dc401d17 	ldw	r17,116(sp)
 1003110:	dc001c17 	ldw	r16,112(sp)
 1003114:	dec02604 	addi	sp,sp,152
 1003118:	f800283a 	ret
 100311c:	d9001617 	ldw	r4,88(sp)
 1003120:	d9401217 	ldw	r5,72(sp)
 1003124:	d8800104 	addi	r2,sp,4
 1003128:	a80d883a 	mov	r6,r21
 100312c:	d9c00204 	addi	r7,sp,8
 1003130:	d8800015 	stw	r2,0(sp)
 1003134:	100681c0 	call	100681c <__d2b>
 1003138:	d8800715 	stw	r2,28(sp)
 100313c:	a804d53a 	srli	r2,r21,20
 1003140:	1101ffcc 	andi	r4,r2,2047
 1003144:	20008626 	beq	r4,zero,1003360 <_dtoa_r+0x348>
 1003148:	d8c01217 	ldw	r3,72(sp)
 100314c:	00800434 	movhi	r2,16
 1003150:	10bfffc4 	addi	r2,r2,-1
 1003154:	ddc00117 	ldw	r23,4(sp)
 1003158:	a884703a 	and	r2,r21,r2
 100315c:	1811883a 	mov	r8,r3
 1003160:	124ffc34 	orhi	r9,r2,16368
 1003164:	25bf0044 	addi	r22,r4,-1023
 1003168:	d8000815 	stw	zero,32(sp)
 100316c:	0005883a 	mov	r2,zero
 1003170:	00cffe34 	movhi	r3,16376
 1003174:	480b883a 	mov	r5,r9
 1003178:	4009883a 	mov	r4,r8
 100317c:	180f883a 	mov	r7,r3
 1003180:	100d883a 	mov	r6,r2
 1003184:	10091f00 	call	10091f0 <__subdf3>
 1003188:	0218dbf4 	movhi	r8,25455
 100318c:	4210d844 	addi	r8,r8,17249
 1003190:	024ff4f4 	movhi	r9,16339
 1003194:	4a61e9c4 	addi	r9,r9,-30809
 1003198:	480f883a 	mov	r7,r9
 100319c:	400d883a 	mov	r6,r8
 10031a0:	180b883a 	mov	r5,r3
 10031a4:	1009883a 	mov	r4,r2
 10031a8:	10092e40 	call	10092e4 <__muldf3>
 10031ac:	0222d874 	movhi	r8,35681
 10031b0:	42322cc4 	addi	r8,r8,-14157
 10031b4:	024ff1f4 	movhi	r9,16327
 10031b8:	4a628a04 	addi	r9,r9,-30168
 10031bc:	480f883a 	mov	r7,r9
 10031c0:	400d883a 	mov	r6,r8
 10031c4:	180b883a 	mov	r5,r3
 10031c8:	1009883a 	mov	r4,r2
 10031cc:	10092700 	call	1009270 <__adddf3>
 10031d0:	b009883a 	mov	r4,r22
 10031d4:	1021883a 	mov	r16,r2
 10031d8:	1823883a 	mov	r17,r3
 10031dc:	1009ba80 	call	1009ba8 <__floatsidf>
 10031e0:	021427f4 	movhi	r8,20639
 10031e4:	421e7ec4 	addi	r8,r8,31227
 10031e8:	024ff4f4 	movhi	r9,16339
 10031ec:	4a5104c4 	addi	r9,r9,17427
 10031f0:	480f883a 	mov	r7,r9
 10031f4:	400d883a 	mov	r6,r8
 10031f8:	180b883a 	mov	r5,r3
 10031fc:	1009883a 	mov	r4,r2
 1003200:	10092e40 	call	10092e4 <__muldf3>
 1003204:	180f883a 	mov	r7,r3
 1003208:	880b883a 	mov	r5,r17
 100320c:	100d883a 	mov	r6,r2
 1003210:	8009883a 	mov	r4,r16
 1003214:	10092700 	call	1009270 <__adddf3>
 1003218:	1009883a 	mov	r4,r2
 100321c:	180b883a 	mov	r5,r3
 1003220:	1021883a 	mov	r16,r2
 1003224:	1823883a 	mov	r17,r3
 1003228:	1009ca00 	call	1009ca0 <__fixdfsi>
 100322c:	000d883a 	mov	r6,zero
 1003230:	000f883a 	mov	r7,zero
 1003234:	8009883a 	mov	r4,r16
 1003238:	880b883a 	mov	r5,r17
 100323c:	d8800d15 	stw	r2,52(sp)
 1003240:	1009b200 	call	1009b20 <__ltdf2>
 1003244:	10031716 	blt	r2,zero,1003ea4 <_dtoa_r+0xe8c>
 1003248:	d8c00d17 	ldw	r3,52(sp)
 100324c:	00800584 	movi	r2,22
 1003250:	10c1482e 	bgeu	r2,r3,1003774 <_dtoa_r+0x75c>
 1003254:	01000044 	movi	r4,1
 1003258:	d9000c15 	stw	r4,48(sp)
 100325c:	bd85c83a 	sub	r2,r23,r22
 1003260:	11bfffc4 	addi	r6,r2,-1
 1003264:	30030b16 	blt	r6,zero,1003e94 <_dtoa_r+0xe7c>
 1003268:	d9800a15 	stw	r6,40(sp)
 100326c:	d8001115 	stw	zero,68(sp)
 1003270:	d8c00d17 	ldw	r3,52(sp)
 1003274:	1802ff16 	blt	r3,zero,1003e74 <_dtoa_r+0xe5c>
 1003278:	d9000a17 	ldw	r4,40(sp)
 100327c:	d8c00915 	stw	r3,36(sp)
 1003280:	d8001015 	stw	zero,64(sp)
 1003284:	20c9883a 	add	r4,r4,r3
 1003288:	d9000a15 	stw	r4,40(sp)
 100328c:	d9001717 	ldw	r4,92(sp)
 1003290:	00800244 	movi	r2,9
 1003294:	11004636 	bltu	r2,r4,10033b0 <_dtoa_r+0x398>
 1003298:	00800144 	movi	r2,5
 100329c:	11020416 	blt	r2,r4,1003ab0 <_dtoa_r+0xa98>
 10032a0:	04400044 	movi	r17,1
 10032a4:	d8c01717 	ldw	r3,92(sp)
 10032a8:	00800144 	movi	r2,5
 10032ac:	10c1ed36 	bltu	r2,r3,1003a64 <_dtoa_r+0xa4c>
 10032b0:	18c5883a 	add	r2,r3,r3
 10032b4:	1085883a 	add	r2,r2,r2
 10032b8:	00c04034 	movhi	r3,256
 10032bc:	18ccb304 	addi	r3,r3,13004
 10032c0:	10c5883a 	add	r2,r2,r3
 10032c4:	11000017 	ldw	r4,0(r2)
 10032c8:	2000683a 	jmp	r4
 10032cc:	010033b8 	rdprs	r4,zero,206
 10032d0:	010033b8 	rdprs	r4,zero,206
 10032d4:	01003db8 	rdprs	r4,zero,246
 10032d8:	01003d90 	cmplti	r4,zero,246
 10032dc:	01003dd4 	movui	r4,247
 10032e0:	01003de0 	cmpeqi	r4,zero,247
 10032e4:	d9002717 	ldw	r4,156(sp)
 10032e8:	0089c3c4 	movi	r2,9999
 10032ec:	20800015 	stw	r2,0(r4)
 10032f0:	a0001026 	beq	r20,zero,1003334 <_dtoa_r+0x31c>
 10032f4:	00c04074 	movhi	r3,257
 10032f8:	18fad604 	addi	r3,r3,-5288
 10032fc:	d9802917 	ldw	r6,164(sp)
 1003300:	303f7926 	beq	r6,zero,10030e8 <_dtoa_r+0xd0>
 1003304:	188000c7 	ldb	r2,3(r3)
 1003308:	190000c4 	addi	r4,r3,3
 100330c:	1000101e 	bne	r2,zero,1003350 <_dtoa_r+0x338>
 1003310:	d8802917 	ldw	r2,164(sp)
 1003314:	11000015 	stw	r4,0(r2)
 1003318:	003f7306 	br	10030e8 <_dtoa_r+0xd0>
 100331c:	00a00034 	movhi	r2,32768
 1003320:	10bfffc4 	addi	r2,r2,-1
 1003324:	00c00044 	movi	r3,1
 1003328:	88aa703a 	and	r21,r17,r2
 100332c:	90c00015 	stw	r3,0(r18)
 1003330:	003f5806 	br	1003094 <_dtoa_r+0x7c>
 1003334:	00800434 	movhi	r2,16
 1003338:	10bfffc4 	addi	r2,r2,-1
 100333c:	a884703a 	and	r2,r21,r2
 1003340:	103fec1e 	bne	r2,zero,10032f4 <_dtoa_r+0x2dc>
 1003344:	00c04074 	movhi	r3,257
 1003348:	18fad304 	addi	r3,r3,-5300
 100334c:	003feb06 	br	10032fc <_dtoa_r+0x2e4>
 1003350:	d8802917 	ldw	r2,164(sp)
 1003354:	19000204 	addi	r4,r3,8
 1003358:	11000015 	stw	r4,0(r2)
 100335c:	003f6206 	br	10030e8 <_dtoa_r+0xd0>
 1003360:	ddc00117 	ldw	r23,4(sp)
 1003364:	d8800217 	ldw	r2,8(sp)
 1003368:	01000804 	movi	r4,32
 100336c:	b8c10c84 	addi	r3,r23,1074
 1003370:	18a3883a 	add	r17,r3,r2
 1003374:	2441b80e 	bge	r4,r17,1003a58 <_dtoa_r+0xa40>
 1003378:	00c01004 	movi	r3,64
 100337c:	1c47c83a 	sub	r3,r3,r17
 1003380:	88bff804 	addi	r2,r17,-32
 1003384:	a8c6983a 	sll	r3,r21,r3
 1003388:	a084d83a 	srl	r2,r20,r2
 100338c:	1888b03a 	or	r4,r3,r2
 1003390:	1009d780 	call	1009d78 <__floatunsidf>
 1003394:	1011883a 	mov	r8,r2
 1003398:	00bf8434 	movhi	r2,65040
 100339c:	01000044 	movi	r4,1
 10033a0:	10d3883a 	add	r9,r2,r3
 10033a4:	8dbef344 	addi	r22,r17,-1075
 10033a8:	d9000815 	stw	r4,32(sp)
 10033ac:	003f6f06 	br	100316c <_dtoa_r+0x154>
 10033b0:	d8001715 	stw	zero,92(sp)
 10033b4:	04400044 	movi	r17,1
 10033b8:	00bfffc4 	movi	r2,-1
 10033bc:	00c00044 	movi	r3,1
 10033c0:	d8800e15 	stw	r2,56(sp)
 10033c4:	d8002615 	stw	zero,152(sp)
 10033c8:	d8800f15 	stw	r2,60(sp)
 10033cc:	d8c00b15 	stw	r3,44(sp)
 10033d0:	1021883a 	mov	r16,r2
 10033d4:	d8801617 	ldw	r2,88(sp)
 10033d8:	10001115 	stw	zero,68(r2)
 10033dc:	d8801617 	ldw	r2,88(sp)
 10033e0:	11401117 	ldw	r5,68(r2)
 10033e4:	1009883a 	mov	r4,r2
 10033e8:	10067600 	call	1006760 <_Balloc>
 10033ec:	d8c01617 	ldw	r3,88(sp)
 10033f0:	d8800515 	stw	r2,20(sp)
 10033f4:	18801015 	stw	r2,64(r3)
 10033f8:	00800384 	movi	r2,14
 10033fc:	14006836 	bltu	r2,r16,10035a0 <_dtoa_r+0x588>
 1003400:	8805003a 	cmpeq	r2,r17,zero
 1003404:	1000661e 	bne	r2,zero,10035a0 <_dtoa_r+0x588>
 1003408:	d9000d17 	ldw	r4,52(sp)
 100340c:	0102300e 	bge	zero,r4,1003cd0 <_dtoa_r+0xcb8>
 1003410:	208003cc 	andi	r2,r4,15
 1003414:	100490fa 	slli	r2,r2,3
 1003418:	2025d13a 	srai	r18,r4,4
 100341c:	00c04074 	movhi	r3,257
 1003420:	18fae804 	addi	r3,r3,-5216
 1003424:	10c5883a 	add	r2,r2,r3
 1003428:	90c0040c 	andi	r3,r18,16
 100342c:	14000017 	ldw	r16,0(r2)
 1003430:	14400117 	ldw	r17,4(r2)
 1003434:	18036a1e 	bne	r3,zero,10041e0 <_dtoa_r+0x11c8>
 1003438:	05800084 	movi	r22,2
 100343c:	90001026 	beq	r18,zero,1003480 <_dtoa_r+0x468>
 1003440:	04c04074 	movhi	r19,257
 1003444:	9cfb1a04 	addi	r19,r19,-5016
 1003448:	9080004c 	andi	r2,r18,1
 100344c:	1005003a 	cmpeq	r2,r2,zero
 1003450:	1000081e 	bne	r2,zero,1003474 <_dtoa_r+0x45c>
 1003454:	99800017 	ldw	r6,0(r19)
 1003458:	99c00117 	ldw	r7,4(r19)
 100345c:	880b883a 	mov	r5,r17
 1003460:	8009883a 	mov	r4,r16
 1003464:	10092e40 	call	10092e4 <__muldf3>
 1003468:	1021883a 	mov	r16,r2
 100346c:	b5800044 	addi	r22,r22,1
 1003470:	1823883a 	mov	r17,r3
 1003474:	9025d07a 	srai	r18,r18,1
 1003478:	9cc00204 	addi	r19,r19,8
 100347c:	903ff21e 	bne	r18,zero,1003448 <_dtoa_r+0x430>
 1003480:	a80b883a 	mov	r5,r21
 1003484:	a009883a 	mov	r4,r20
 1003488:	880f883a 	mov	r7,r17
 100348c:	800d883a 	mov	r6,r16
 1003490:	10096a80 	call	10096a8 <__divdf3>
 1003494:	1029883a 	mov	r20,r2
 1003498:	182b883a 	mov	r21,r3
 100349c:	d8c00c17 	ldw	r3,48(sp)
 10034a0:	1805003a 	cmpeq	r2,r3,zero
 10034a4:	1000081e 	bne	r2,zero,10034c8 <_dtoa_r+0x4b0>
 10034a8:	0005883a 	mov	r2,zero
 10034ac:	00cffc34 	movhi	r3,16368
 10034b0:	180f883a 	mov	r7,r3
 10034b4:	a009883a 	mov	r4,r20
 10034b8:	a80b883a 	mov	r5,r21
 10034bc:	100d883a 	mov	r6,r2
 10034c0:	1009b200 	call	1009b20 <__ltdf2>
 10034c4:	1003fe16 	blt	r2,zero,10044c0 <_dtoa_r+0x14a8>
 10034c8:	b009883a 	mov	r4,r22
 10034cc:	1009ba80 	call	1009ba8 <__floatsidf>
 10034d0:	180b883a 	mov	r5,r3
 10034d4:	1009883a 	mov	r4,r2
 10034d8:	a00d883a 	mov	r6,r20
 10034dc:	a80f883a 	mov	r7,r21
 10034e0:	10092e40 	call	10092e4 <__muldf3>
 10034e4:	0011883a 	mov	r8,zero
 10034e8:	02500734 	movhi	r9,16412
 10034ec:	1009883a 	mov	r4,r2
 10034f0:	180b883a 	mov	r5,r3
 10034f4:	480f883a 	mov	r7,r9
 10034f8:	400d883a 	mov	r6,r8
 10034fc:	10092700 	call	1009270 <__adddf3>
 1003500:	d9000f17 	ldw	r4,60(sp)
 1003504:	102d883a 	mov	r22,r2
 1003508:	00bf3034 	movhi	r2,64704
 100350c:	18b9883a 	add	fp,r3,r2
 1003510:	e02f883a 	mov	r23,fp
 1003514:	20028f1e 	bne	r4,zero,1003f54 <_dtoa_r+0xf3c>
 1003518:	0005883a 	mov	r2,zero
 100351c:	00d00534 	movhi	r3,16404
 1003520:	a009883a 	mov	r4,r20
 1003524:	a80b883a 	mov	r5,r21
 1003528:	180f883a 	mov	r7,r3
 100352c:	100d883a 	mov	r6,r2
 1003530:	10091f00 	call	10091f0 <__subdf3>
 1003534:	1009883a 	mov	r4,r2
 1003538:	e00f883a 	mov	r7,fp
 100353c:	180b883a 	mov	r5,r3
 1003540:	b00d883a 	mov	r6,r22
 1003544:	1025883a 	mov	r18,r2
 1003548:	1827883a 	mov	r19,r3
 100354c:	1009a100 	call	1009a10 <__gtdf2>
 1003550:	00834f16 	blt	zero,r2,1004290 <_dtoa_r+0x1278>
 1003554:	e0e0003c 	xorhi	r3,fp,32768
 1003558:	9009883a 	mov	r4,r18
 100355c:	980b883a 	mov	r5,r19
 1003560:	180f883a 	mov	r7,r3
 1003564:	b00d883a 	mov	r6,r22
 1003568:	1009b200 	call	1009b20 <__ltdf2>
 100356c:	1000080e 	bge	r2,zero,1003590 <_dtoa_r+0x578>
 1003570:	0027883a 	mov	r19,zero
 1003574:	0025883a 	mov	r18,zero
 1003578:	d8802617 	ldw	r2,152(sp)
 100357c:	df000517 	ldw	fp,20(sp)
 1003580:	d8000615 	stw	zero,24(sp)
 1003584:	0084303a 	nor	r2,zero,r2
 1003588:	d8800d15 	stw	r2,52(sp)
 100358c:	00019b06 	br	1003bfc <_dtoa_r+0xbe4>
 1003590:	d9801217 	ldw	r6,72(sp)
 1003594:	d8801317 	ldw	r2,76(sp)
 1003598:	3029883a 	mov	r20,r6
 100359c:	102b883a 	mov	r21,r2
 10035a0:	d8c00217 	ldw	r3,8(sp)
 10035a4:	18008516 	blt	r3,zero,10037bc <_dtoa_r+0x7a4>
 10035a8:	d9000d17 	ldw	r4,52(sp)
 10035ac:	00800384 	movi	r2,14
 10035b0:	11008216 	blt	r2,r4,10037bc <_dtoa_r+0x7a4>
 10035b4:	200490fa 	slli	r2,r4,3
 10035b8:	d9802617 	ldw	r6,152(sp)
 10035bc:	00c04074 	movhi	r3,257
 10035c0:	18fae804 	addi	r3,r3,-5216
 10035c4:	10c5883a 	add	r2,r2,r3
 10035c8:	14800017 	ldw	r18,0(r2)
 10035cc:	14c00117 	ldw	r19,4(r2)
 10035d0:	30031e16 	blt	r6,zero,100424c <_dtoa_r+0x1234>
 10035d4:	d9000517 	ldw	r4,20(sp)
 10035d8:	d8c00f17 	ldw	r3,60(sp)
 10035dc:	a823883a 	mov	r17,r21
 10035e0:	a021883a 	mov	r16,r20
 10035e4:	192b883a 	add	r21,r3,r4
 10035e8:	2039883a 	mov	fp,r4
 10035ec:	00000f06 	br	100362c <_dtoa_r+0x614>
 10035f0:	0005883a 	mov	r2,zero
 10035f4:	00d00934 	movhi	r3,16420
 10035f8:	5009883a 	mov	r4,r10
 10035fc:	580b883a 	mov	r5,r11
 1003600:	180f883a 	mov	r7,r3
 1003604:	100d883a 	mov	r6,r2
 1003608:	10092e40 	call	10092e4 <__muldf3>
 100360c:	180b883a 	mov	r5,r3
 1003610:	000d883a 	mov	r6,zero
 1003614:	000f883a 	mov	r7,zero
 1003618:	1009883a 	mov	r4,r2
 100361c:	1021883a 	mov	r16,r2
 1003620:	1823883a 	mov	r17,r3
 1003624:	10099880 	call	1009988 <__nedf2>
 1003628:	10004526 	beq	r2,zero,1003740 <_dtoa_r+0x728>
 100362c:	900d883a 	mov	r6,r18
 1003630:	980f883a 	mov	r7,r19
 1003634:	8009883a 	mov	r4,r16
 1003638:	880b883a 	mov	r5,r17
 100363c:	10096a80 	call	10096a8 <__divdf3>
 1003640:	180b883a 	mov	r5,r3
 1003644:	1009883a 	mov	r4,r2
 1003648:	1009ca00 	call	1009ca0 <__fixdfsi>
 100364c:	1009883a 	mov	r4,r2
 1003650:	1029883a 	mov	r20,r2
 1003654:	1009ba80 	call	1009ba8 <__floatsidf>
 1003658:	180f883a 	mov	r7,r3
 100365c:	9009883a 	mov	r4,r18
 1003660:	980b883a 	mov	r5,r19
 1003664:	100d883a 	mov	r6,r2
 1003668:	10092e40 	call	10092e4 <__muldf3>
 100366c:	180f883a 	mov	r7,r3
 1003670:	880b883a 	mov	r5,r17
 1003674:	8009883a 	mov	r4,r16
 1003678:	100d883a 	mov	r6,r2
 100367c:	10091f00 	call	10091f0 <__subdf3>
 1003680:	1015883a 	mov	r10,r2
 1003684:	a0800c04 	addi	r2,r20,48
 1003688:	e0800005 	stb	r2,0(fp)
 100368c:	e7000044 	addi	fp,fp,1
 1003690:	1817883a 	mov	r11,r3
 1003694:	e57fd61e 	bne	fp,r21,10035f0 <_dtoa_r+0x5d8>
 1003698:	500d883a 	mov	r6,r10
 100369c:	180f883a 	mov	r7,r3
 10036a0:	5009883a 	mov	r4,r10
 10036a4:	180b883a 	mov	r5,r3
 10036a8:	10092700 	call	1009270 <__adddf3>
 10036ac:	100d883a 	mov	r6,r2
 10036b0:	9009883a 	mov	r4,r18
 10036b4:	980b883a 	mov	r5,r19
 10036b8:	180f883a 	mov	r7,r3
 10036bc:	1021883a 	mov	r16,r2
 10036c0:	1823883a 	mov	r17,r3
 10036c4:	1009b200 	call	1009b20 <__ltdf2>
 10036c8:	10000816 	blt	r2,zero,10036ec <_dtoa_r+0x6d4>
 10036cc:	980b883a 	mov	r5,r19
 10036d0:	800d883a 	mov	r6,r16
 10036d4:	880f883a 	mov	r7,r17
 10036d8:	9009883a 	mov	r4,r18
 10036dc:	10099000 	call	1009900 <__eqdf2>
 10036e0:	1000171e 	bne	r2,zero,1003740 <_dtoa_r+0x728>
 10036e4:	a080004c 	andi	r2,r20,1
 10036e8:	10001526 	beq	r2,zero,1003740 <_dtoa_r+0x728>
 10036ec:	d8800d17 	ldw	r2,52(sp)
 10036f0:	d8800415 	stw	r2,16(sp)
 10036f4:	e009883a 	mov	r4,fp
 10036f8:	213fffc4 	addi	r4,r4,-1
 10036fc:	20c00007 	ldb	r3,0(r4)
 1003700:	00800e44 	movi	r2,57
 1003704:	1880081e 	bne	r3,r2,1003728 <_dtoa_r+0x710>
 1003708:	d8800517 	ldw	r2,20(sp)
 100370c:	113ffa1e 	bne	r2,r4,10036f8 <_dtoa_r+0x6e0>
 1003710:	d8c00417 	ldw	r3,16(sp)
 1003714:	d9800517 	ldw	r6,20(sp)
 1003718:	00800c04 	movi	r2,48
 100371c:	18c00044 	addi	r3,r3,1
 1003720:	d8c00415 	stw	r3,16(sp)
 1003724:	30800005 	stb	r2,0(r6)
 1003728:	20800003 	ldbu	r2,0(r4)
 100372c:	d8c00417 	ldw	r3,16(sp)
 1003730:	27000044 	addi	fp,r4,1
 1003734:	10800044 	addi	r2,r2,1
 1003738:	d8c00d15 	stw	r3,52(sp)
 100373c:	20800005 	stb	r2,0(r4)
 1003740:	d9001617 	ldw	r4,88(sp)
 1003744:	d9400717 	ldw	r5,28(sp)
 1003748:	10061e00 	call	10061e0 <_Bfree>
 100374c:	e0000005 	stb	zero,0(fp)
 1003750:	d9800d17 	ldw	r6,52(sp)
 1003754:	d8c02717 	ldw	r3,156(sp)
 1003758:	d9002917 	ldw	r4,164(sp)
 100375c:	30800044 	addi	r2,r6,1
 1003760:	18800015 	stw	r2,0(r3)
 1003764:	20029c26 	beq	r4,zero,10041d8 <_dtoa_r+0x11c0>
 1003768:	d8c00517 	ldw	r3,20(sp)
 100376c:	27000015 	stw	fp,0(r4)
 1003770:	003e5d06 	br	10030e8 <_dtoa_r+0xd0>
 1003774:	d9800d17 	ldw	r6,52(sp)
 1003778:	00c04074 	movhi	r3,257
 100377c:	18fae804 	addi	r3,r3,-5216
 1003780:	d9001217 	ldw	r4,72(sp)
 1003784:	300490fa 	slli	r2,r6,3
 1003788:	d9401317 	ldw	r5,76(sp)
 100378c:	10c5883a 	add	r2,r2,r3
 1003790:	12000017 	ldw	r8,0(r2)
 1003794:	12400117 	ldw	r9,4(r2)
 1003798:	400d883a 	mov	r6,r8
 100379c:	480f883a 	mov	r7,r9
 10037a0:	1009b200 	call	1009b20 <__ltdf2>
 10037a4:	1000030e 	bge	r2,zero,10037b4 <_dtoa_r+0x79c>
 10037a8:	d8800d17 	ldw	r2,52(sp)
 10037ac:	10bfffc4 	addi	r2,r2,-1
 10037b0:	d8800d15 	stw	r2,52(sp)
 10037b4:	d8000c15 	stw	zero,48(sp)
 10037b8:	003ea806 	br	100325c <_dtoa_r+0x244>
 10037bc:	d9000b17 	ldw	r4,44(sp)
 10037c0:	202cc03a 	cmpne	r22,r4,zero
 10037c4:	b000c71e 	bne	r22,zero,1003ae4 <_dtoa_r+0xacc>
 10037c8:	dc001117 	ldw	r16,68(sp)
 10037cc:	dc801017 	ldw	r18,64(sp)
 10037d0:	0027883a 	mov	r19,zero
 10037d4:	04000b0e 	bge	zero,r16,1003804 <_dtoa_r+0x7ec>
 10037d8:	d8c00a17 	ldw	r3,40(sp)
 10037dc:	00c0090e 	bge	zero,r3,1003804 <_dtoa_r+0x7ec>
 10037e0:	8005883a 	mov	r2,r16
 10037e4:	1c011316 	blt	r3,r16,1003c34 <_dtoa_r+0xc1c>
 10037e8:	d9000a17 	ldw	r4,40(sp)
 10037ec:	d9801117 	ldw	r6,68(sp)
 10037f0:	80a1c83a 	sub	r16,r16,r2
 10037f4:	2089c83a 	sub	r4,r4,r2
 10037f8:	308dc83a 	sub	r6,r6,r2
 10037fc:	d9000a15 	stw	r4,40(sp)
 1003800:	d9801115 	stw	r6,68(sp)
 1003804:	d8801017 	ldw	r2,64(sp)
 1003808:	0080150e 	bge	zero,r2,1003860 <_dtoa_r+0x848>
 100380c:	d8c00b17 	ldw	r3,44(sp)
 1003810:	1805003a 	cmpeq	r2,r3,zero
 1003814:	1001c91e 	bne	r2,zero,1003f3c <_dtoa_r+0xf24>
 1003818:	04800e0e 	bge	zero,r18,1003854 <_dtoa_r+0x83c>
 100381c:	d9001617 	ldw	r4,88(sp)
 1003820:	980b883a 	mov	r5,r19
 1003824:	900d883a 	mov	r6,r18
 1003828:	100702c0 	call	100702c <__pow5mult>
 100382c:	d9001617 	ldw	r4,88(sp)
 1003830:	d9800717 	ldw	r6,28(sp)
 1003834:	100b883a 	mov	r5,r2
 1003838:	1027883a 	mov	r19,r2
 100383c:	1006c700 	call	1006c70 <__multiply>
 1003840:	d9001617 	ldw	r4,88(sp)
 1003844:	d9400717 	ldw	r5,28(sp)
 1003848:	1023883a 	mov	r17,r2
 100384c:	10061e00 	call	10061e0 <_Bfree>
 1003850:	dc400715 	stw	r17,28(sp)
 1003854:	d9001017 	ldw	r4,64(sp)
 1003858:	248dc83a 	sub	r6,r4,r18
 100385c:	30010e1e 	bne	r6,zero,1003c98 <_dtoa_r+0xc80>
 1003860:	d9001617 	ldw	r4,88(sp)
 1003864:	04400044 	movi	r17,1
 1003868:	880b883a 	mov	r5,r17
 100386c:	1006ec40 	call	1006ec4 <__i2b>
 1003870:	d9800917 	ldw	r6,36(sp)
 1003874:	1025883a 	mov	r18,r2
 1003878:	0180040e 	bge	zero,r6,100388c <_dtoa_r+0x874>
 100387c:	d9001617 	ldw	r4,88(sp)
 1003880:	100b883a 	mov	r5,r2
 1003884:	100702c0 	call	100702c <__pow5mult>
 1003888:	1025883a 	mov	r18,r2
 100388c:	d8801717 	ldw	r2,92(sp)
 1003890:	8880f30e 	bge	r17,r2,1003c60 <_dtoa_r+0xc48>
 1003894:	0023883a 	mov	r17,zero
 1003898:	d9800917 	ldw	r6,36(sp)
 100389c:	30019e1e 	bne	r6,zero,1003f18 <_dtoa_r+0xf00>
 10038a0:	00c00044 	movi	r3,1
 10038a4:	d9000a17 	ldw	r4,40(sp)
 10038a8:	20c5883a 	add	r2,r4,r3
 10038ac:	10c007cc 	andi	r3,r2,31
 10038b0:	1800841e 	bne	r3,zero,1003ac4 <_dtoa_r+0xaac>
 10038b4:	00800704 	movi	r2,28
 10038b8:	d9000a17 	ldw	r4,40(sp)
 10038bc:	d9801117 	ldw	r6,68(sp)
 10038c0:	80a1883a 	add	r16,r16,r2
 10038c4:	2089883a 	add	r4,r4,r2
 10038c8:	308d883a 	add	r6,r6,r2
 10038cc:	d9000a15 	stw	r4,40(sp)
 10038d0:	d9801115 	stw	r6,68(sp)
 10038d4:	d8801117 	ldw	r2,68(sp)
 10038d8:	0080050e 	bge	zero,r2,10038f0 <_dtoa_r+0x8d8>
 10038dc:	d9400717 	ldw	r5,28(sp)
 10038e0:	d9001617 	ldw	r4,88(sp)
 10038e4:	100d883a 	mov	r6,r2
 10038e8:	1006b240 	call	1006b24 <__lshift>
 10038ec:	d8800715 	stw	r2,28(sp)
 10038f0:	d8c00a17 	ldw	r3,40(sp)
 10038f4:	00c0050e 	bge	zero,r3,100390c <_dtoa_r+0x8f4>
 10038f8:	d9001617 	ldw	r4,88(sp)
 10038fc:	900b883a 	mov	r5,r18
 1003900:	180d883a 	mov	r6,r3
 1003904:	1006b240 	call	1006b24 <__lshift>
 1003908:	1025883a 	mov	r18,r2
 100390c:	d9000c17 	ldw	r4,48(sp)
 1003910:	2005003a 	cmpeq	r2,r4,zero
 1003914:	10016f26 	beq	r2,zero,1003ed4 <_dtoa_r+0xebc>
 1003918:	d9000f17 	ldw	r4,60(sp)
 100391c:	0102170e 	bge	zero,r4,100417c <_dtoa_r+0x1164>
 1003920:	d9800b17 	ldw	r6,44(sp)
 1003924:	3005003a 	cmpeq	r2,r6,zero
 1003928:	1000881e 	bne	r2,zero,1003b4c <_dtoa_r+0xb34>
 100392c:	0400050e 	bge	zero,r16,1003944 <_dtoa_r+0x92c>
 1003930:	d9001617 	ldw	r4,88(sp)
 1003934:	980b883a 	mov	r5,r19
 1003938:	800d883a 	mov	r6,r16
 100393c:	1006b240 	call	1006b24 <__lshift>
 1003940:	1027883a 	mov	r19,r2
 1003944:	8804c03a 	cmpne	r2,r17,zero
 1003948:	1002541e 	bne	r2,zero,100429c <_dtoa_r+0x1284>
 100394c:	980b883a 	mov	r5,r19
 1003950:	dd800517 	ldw	r22,20(sp)
 1003954:	dcc00615 	stw	r19,24(sp)
 1003958:	a700004c 	andi	fp,r20,1
 100395c:	2827883a 	mov	r19,r5
 1003960:	d9000717 	ldw	r4,28(sp)
 1003964:	900b883a 	mov	r5,r18
 1003968:	1002dd40 	call	1002dd4 <quorem>
 100396c:	d9000717 	ldw	r4,28(sp)
 1003970:	d9400617 	ldw	r5,24(sp)
 1003974:	1023883a 	mov	r17,r2
 1003978:	8dc00c04 	addi	r23,r17,48
 100397c:	100633c0 	call	100633c <__mcmp>
 1003980:	d9001617 	ldw	r4,88(sp)
 1003984:	900b883a 	mov	r5,r18
 1003988:	980d883a 	mov	r6,r19
 100398c:	1029883a 	mov	r20,r2
 1003990:	10069980 	call	1006998 <__mdiff>
 1003994:	102b883a 	mov	r21,r2
 1003998:	10800317 	ldw	r2,12(r2)
 100399c:	1001281e 	bne	r2,zero,1003e40 <_dtoa_r+0xe28>
 10039a0:	d9000717 	ldw	r4,28(sp)
 10039a4:	a80b883a 	mov	r5,r21
 10039a8:	100633c0 	call	100633c <__mcmp>
 10039ac:	d9001617 	ldw	r4,88(sp)
 10039b0:	1021883a 	mov	r16,r2
 10039b4:	a80b883a 	mov	r5,r21
 10039b8:	10061e00 	call	10061e0 <_Bfree>
 10039bc:	8000041e 	bne	r16,zero,10039d0 <_dtoa_r+0x9b8>
 10039c0:	d8801717 	ldw	r2,92(sp)
 10039c4:	1000021e 	bne	r2,zero,10039d0 <_dtoa_r+0x9b8>
 10039c8:	e004c03a 	cmpne	r2,fp,zero
 10039cc:	10011726 	beq	r2,zero,1003e2c <_dtoa_r+0xe14>
 10039d0:	a0010616 	blt	r20,zero,1003dec <_dtoa_r+0xdd4>
 10039d4:	a000041e 	bne	r20,zero,10039e8 <_dtoa_r+0x9d0>
 10039d8:	d8c01717 	ldw	r3,92(sp)
 10039dc:	1800021e 	bne	r3,zero,10039e8 <_dtoa_r+0x9d0>
 10039e0:	e004c03a 	cmpne	r2,fp,zero
 10039e4:	10010126 	beq	r2,zero,1003dec <_dtoa_r+0xdd4>
 10039e8:	04023d16 	blt	zero,r16,10042e0 <_dtoa_r+0x12c8>
 10039ec:	b5c00005 	stb	r23,0(r22)
 10039f0:	d9800517 	ldw	r6,20(sp)
 10039f4:	d9000f17 	ldw	r4,60(sp)
 10039f8:	b5800044 	addi	r22,r22,1
 10039fc:	3105883a 	add	r2,r6,r4
 1003a00:	b0806526 	beq	r22,r2,1003b98 <_dtoa_r+0xb80>
 1003a04:	d9400717 	ldw	r5,28(sp)
 1003a08:	d9001617 	ldw	r4,88(sp)
 1003a0c:	01800284 	movi	r6,10
 1003a10:	000f883a 	mov	r7,zero
 1003a14:	1006f000 	call	1006f00 <__multadd>
 1003a18:	d8800715 	stw	r2,28(sp)
 1003a1c:	d8800617 	ldw	r2,24(sp)
 1003a20:	14c10c26 	beq	r2,r19,1003e54 <_dtoa_r+0xe3c>
 1003a24:	d9400617 	ldw	r5,24(sp)
 1003a28:	d9001617 	ldw	r4,88(sp)
 1003a2c:	01800284 	movi	r6,10
 1003a30:	000f883a 	mov	r7,zero
 1003a34:	1006f000 	call	1006f00 <__multadd>
 1003a38:	d9001617 	ldw	r4,88(sp)
 1003a3c:	980b883a 	mov	r5,r19
 1003a40:	01800284 	movi	r6,10
 1003a44:	000f883a 	mov	r7,zero
 1003a48:	d8800615 	stw	r2,24(sp)
 1003a4c:	1006f000 	call	1006f00 <__multadd>
 1003a50:	1027883a 	mov	r19,r2
 1003a54:	003fc206 	br	1003960 <_dtoa_r+0x948>
 1003a58:	2445c83a 	sub	r2,r4,r17
 1003a5c:	a088983a 	sll	r4,r20,r2
 1003a60:	003e4b06 	br	1003390 <_dtoa_r+0x378>
 1003a64:	01bfffc4 	movi	r6,-1
 1003a68:	00800044 	movi	r2,1
 1003a6c:	d9800e15 	stw	r6,56(sp)
 1003a70:	d9800f15 	stw	r6,60(sp)
 1003a74:	d8800b15 	stw	r2,44(sp)
 1003a78:	d8c01617 	ldw	r3,88(sp)
 1003a7c:	008005c4 	movi	r2,23
 1003a80:	18001115 	stw	zero,68(r3)
 1003a84:	1580082e 	bgeu	r2,r22,1003aa8 <_dtoa_r+0xa90>
 1003a88:	00c00104 	movi	r3,4
 1003a8c:	0009883a 	mov	r4,zero
 1003a90:	18c7883a 	add	r3,r3,r3
 1003a94:	18800504 	addi	r2,r3,20
 1003a98:	21000044 	addi	r4,r4,1
 1003a9c:	b0bffc2e 	bgeu	r22,r2,1003a90 <_dtoa_r+0xa78>
 1003aa0:	d9801617 	ldw	r6,88(sp)
 1003aa4:	31001115 	stw	r4,68(r6)
 1003aa8:	dc000f17 	ldw	r16,60(sp)
 1003aac:	003e4b06 	br	10033dc <_dtoa_r+0x3c4>
 1003ab0:	d9801717 	ldw	r6,92(sp)
 1003ab4:	0023883a 	mov	r17,zero
 1003ab8:	31bfff04 	addi	r6,r6,-4
 1003abc:	d9801715 	stw	r6,92(sp)
 1003ac0:	003df806 	br	10032a4 <_dtoa_r+0x28c>
 1003ac4:	00800804 	movi	r2,32
 1003ac8:	10c9c83a 	sub	r4,r2,r3
 1003acc:	00c00104 	movi	r3,4
 1003ad0:	19005a16 	blt	r3,r4,1003c3c <_dtoa_r+0xc24>
 1003ad4:	008000c4 	movi	r2,3
 1003ad8:	113f7e16 	blt	r2,r4,10038d4 <_dtoa_r+0x8bc>
 1003adc:	20800704 	addi	r2,r4,28
 1003ae0:	003f7506 	br	10038b8 <_dtoa_r+0x8a0>
 1003ae4:	d9801717 	ldw	r6,92(sp)
 1003ae8:	00800044 	movi	r2,1
 1003aec:	1180a10e 	bge	r2,r6,1003d74 <_dtoa_r+0xd5c>
 1003af0:	d9800f17 	ldw	r6,60(sp)
 1003af4:	d8c01017 	ldw	r3,64(sp)
 1003af8:	30bfffc4 	addi	r2,r6,-1
 1003afc:	1881c616 	blt	r3,r2,1004218 <_dtoa_r+0x1200>
 1003b00:	18a5c83a 	sub	r18,r3,r2
 1003b04:	d8800f17 	ldw	r2,60(sp)
 1003b08:	10026216 	blt	r2,zero,1004494 <_dtoa_r+0x147c>
 1003b0c:	dc001117 	ldw	r16,68(sp)
 1003b10:	1007883a 	mov	r3,r2
 1003b14:	d9800a17 	ldw	r6,40(sp)
 1003b18:	d8801117 	ldw	r2,68(sp)
 1003b1c:	d9001617 	ldw	r4,88(sp)
 1003b20:	30cd883a 	add	r6,r6,r3
 1003b24:	10c5883a 	add	r2,r2,r3
 1003b28:	01400044 	movi	r5,1
 1003b2c:	d9800a15 	stw	r6,40(sp)
 1003b30:	d8801115 	stw	r2,68(sp)
 1003b34:	1006ec40 	call	1006ec4 <__i2b>
 1003b38:	1027883a 	mov	r19,r2
 1003b3c:	003f2506 	br	10037d4 <_dtoa_r+0x7bc>
 1003b40:	00c04074 	movhi	r3,257
 1003b44:	18faca04 	addi	r3,r3,-5336
 1003b48:	003d6706 	br	10030e8 <_dtoa_r+0xd0>
 1003b4c:	dd800517 	ldw	r22,20(sp)
 1003b50:	04000044 	movi	r16,1
 1003b54:	00000706 	br	1003b74 <_dtoa_r+0xb5c>
 1003b58:	d9400717 	ldw	r5,28(sp)
 1003b5c:	d9001617 	ldw	r4,88(sp)
 1003b60:	01800284 	movi	r6,10
 1003b64:	000f883a 	mov	r7,zero
 1003b68:	1006f000 	call	1006f00 <__multadd>
 1003b6c:	d8800715 	stw	r2,28(sp)
 1003b70:	84000044 	addi	r16,r16,1
 1003b74:	d9000717 	ldw	r4,28(sp)
 1003b78:	900b883a 	mov	r5,r18
 1003b7c:	1002dd40 	call	1002dd4 <quorem>
 1003b80:	15c00c04 	addi	r23,r2,48
 1003b84:	b5c00005 	stb	r23,0(r22)
 1003b88:	d8c00f17 	ldw	r3,60(sp)
 1003b8c:	b5800044 	addi	r22,r22,1
 1003b90:	80fff116 	blt	r16,r3,1003b58 <_dtoa_r+0xb40>
 1003b94:	d8000615 	stw	zero,24(sp)
 1003b98:	d9400717 	ldw	r5,28(sp)
 1003b9c:	d9001617 	ldw	r4,88(sp)
 1003ba0:	01800044 	movi	r6,1
 1003ba4:	1006b240 	call	1006b24 <__lshift>
 1003ba8:	1009883a 	mov	r4,r2
 1003bac:	900b883a 	mov	r5,r18
 1003bb0:	d8800715 	stw	r2,28(sp)
 1003bb4:	100633c0 	call	100633c <__mcmp>
 1003bb8:	00803c0e 	bge	zero,r2,1003cac <_dtoa_r+0xc94>
 1003bbc:	b009883a 	mov	r4,r22
 1003bc0:	213fffc4 	addi	r4,r4,-1
 1003bc4:	21400003 	ldbu	r5,0(r4)
 1003bc8:	00800e44 	movi	r2,57
 1003bcc:	28c03fcc 	andi	r3,r5,255
 1003bd0:	18c0201c 	xori	r3,r3,128
 1003bd4:	18ffe004 	addi	r3,r3,-128
 1003bd8:	1881981e 	bne	r3,r2,100423c <_dtoa_r+0x1224>
 1003bdc:	d9800517 	ldw	r6,20(sp)
 1003be0:	21bff71e 	bne	r4,r6,1003bc0 <_dtoa_r+0xba8>
 1003be4:	d8800d17 	ldw	r2,52(sp)
 1003be8:	37000044 	addi	fp,r6,1
 1003bec:	10800044 	addi	r2,r2,1
 1003bf0:	d8800d15 	stw	r2,52(sp)
 1003bf4:	00800c44 	movi	r2,49
 1003bf8:	30800005 	stb	r2,0(r6)
 1003bfc:	d9001617 	ldw	r4,88(sp)
 1003c00:	900b883a 	mov	r5,r18
 1003c04:	10061e00 	call	10061e0 <_Bfree>
 1003c08:	983ecd26 	beq	r19,zero,1003740 <_dtoa_r+0x728>
 1003c0c:	d8c00617 	ldw	r3,24(sp)
 1003c10:	18000426 	beq	r3,zero,1003c24 <_dtoa_r+0xc0c>
 1003c14:	1cc00326 	beq	r3,r19,1003c24 <_dtoa_r+0xc0c>
 1003c18:	d9001617 	ldw	r4,88(sp)
 1003c1c:	180b883a 	mov	r5,r3
 1003c20:	10061e00 	call	10061e0 <_Bfree>
 1003c24:	d9001617 	ldw	r4,88(sp)
 1003c28:	980b883a 	mov	r5,r19
 1003c2c:	10061e00 	call	10061e0 <_Bfree>
 1003c30:	003ec306 	br	1003740 <_dtoa_r+0x728>
 1003c34:	1805883a 	mov	r2,r3
 1003c38:	003eeb06 	br	10037e8 <_dtoa_r+0x7d0>
 1003c3c:	d9800a17 	ldw	r6,40(sp)
 1003c40:	d8c01117 	ldw	r3,68(sp)
 1003c44:	20bfff04 	addi	r2,r4,-4
 1003c48:	308d883a 	add	r6,r6,r2
 1003c4c:	1887883a 	add	r3,r3,r2
 1003c50:	80a1883a 	add	r16,r16,r2
 1003c54:	d9800a15 	stw	r6,40(sp)
 1003c58:	d8c01115 	stw	r3,68(sp)
 1003c5c:	003f1d06 	br	10038d4 <_dtoa_r+0x8bc>
 1003c60:	a03f0c1e 	bne	r20,zero,1003894 <_dtoa_r+0x87c>
 1003c64:	00800434 	movhi	r2,16
 1003c68:	10bfffc4 	addi	r2,r2,-1
 1003c6c:	a884703a 	and	r2,r21,r2
 1003c70:	103f081e 	bne	r2,zero,1003894 <_dtoa_r+0x87c>
 1003c74:	a89ffc2c 	andhi	r2,r21,32752
 1003c78:	103f0626 	beq	r2,zero,1003894 <_dtoa_r+0x87c>
 1003c7c:	d8c01117 	ldw	r3,68(sp)
 1003c80:	d9000a17 	ldw	r4,40(sp)
 1003c84:	18c00044 	addi	r3,r3,1
 1003c88:	21000044 	addi	r4,r4,1
 1003c8c:	d8c01115 	stw	r3,68(sp)
 1003c90:	d9000a15 	stw	r4,40(sp)
 1003c94:	003f0006 	br	1003898 <_dtoa_r+0x880>
 1003c98:	d9400717 	ldw	r5,28(sp)
 1003c9c:	d9001617 	ldw	r4,88(sp)
 1003ca0:	100702c0 	call	100702c <__pow5mult>
 1003ca4:	d8800715 	stw	r2,28(sp)
 1003ca8:	003eed06 	br	1003860 <_dtoa_r+0x848>
 1003cac:	1000021e 	bne	r2,zero,1003cb8 <_dtoa_r+0xca0>
 1003cb0:	b880004c 	andi	r2,r23,1
 1003cb4:	103fc11e 	bne	r2,zero,1003bbc <_dtoa_r+0xba4>
 1003cb8:	b5bfffc4 	addi	r22,r22,-1
 1003cbc:	b0c00007 	ldb	r3,0(r22)
 1003cc0:	00800c04 	movi	r2,48
 1003cc4:	18bffc26 	beq	r3,r2,1003cb8 <_dtoa_r+0xca0>
 1003cc8:	b7000044 	addi	fp,r22,1
 1003ccc:	003fcb06 	br	1003bfc <_dtoa_r+0xbe4>
 1003cd0:	d9800d17 	ldw	r6,52(sp)
 1003cd4:	018fc83a 	sub	r7,zero,r6
 1003cd8:	3801f726 	beq	r7,zero,10044b8 <_dtoa_r+0x14a0>
 1003cdc:	398003cc 	andi	r6,r7,15
 1003ce0:	300c90fa 	slli	r6,r6,3
 1003ce4:	01404074 	movhi	r5,257
 1003ce8:	297ae804 	addi	r5,r5,-5216
 1003cec:	d9001217 	ldw	r4,72(sp)
 1003cf0:	314d883a 	add	r6,r6,r5
 1003cf4:	30c00117 	ldw	r3,4(r6)
 1003cf8:	30800017 	ldw	r2,0(r6)
 1003cfc:	d9401317 	ldw	r5,76(sp)
 1003d00:	3821d13a 	srai	r16,r7,4
 1003d04:	100d883a 	mov	r6,r2
 1003d08:	180f883a 	mov	r7,r3
 1003d0c:	10092e40 	call	10092e4 <__muldf3>
 1003d10:	1011883a 	mov	r8,r2
 1003d14:	1813883a 	mov	r9,r3
 1003d18:	1029883a 	mov	r20,r2
 1003d1c:	182b883a 	mov	r21,r3
 1003d20:	8001e526 	beq	r16,zero,10044b8 <_dtoa_r+0x14a0>
 1003d24:	05800084 	movi	r22,2
 1003d28:	04404074 	movhi	r17,257
 1003d2c:	8c7b1a04 	addi	r17,r17,-5016
 1003d30:	8080004c 	andi	r2,r16,1
 1003d34:	1005003a 	cmpeq	r2,r2,zero
 1003d38:	1000081e 	bne	r2,zero,1003d5c <_dtoa_r+0xd44>
 1003d3c:	89800017 	ldw	r6,0(r17)
 1003d40:	89c00117 	ldw	r7,4(r17)
 1003d44:	480b883a 	mov	r5,r9
 1003d48:	4009883a 	mov	r4,r8
 1003d4c:	10092e40 	call	10092e4 <__muldf3>
 1003d50:	1011883a 	mov	r8,r2
 1003d54:	b5800044 	addi	r22,r22,1
 1003d58:	1813883a 	mov	r9,r3
 1003d5c:	8021d07a 	srai	r16,r16,1
 1003d60:	8c400204 	addi	r17,r17,8
 1003d64:	803ff21e 	bne	r16,zero,1003d30 <_dtoa_r+0xd18>
 1003d68:	4029883a 	mov	r20,r8
 1003d6c:	482b883a 	mov	r21,r9
 1003d70:	003dca06 	br	100349c <_dtoa_r+0x484>
 1003d74:	d9000817 	ldw	r4,32(sp)
 1003d78:	2005003a 	cmpeq	r2,r4,zero
 1003d7c:	1001f61e 	bne	r2,zero,1004558 <_dtoa_r+0x1540>
 1003d80:	dc001117 	ldw	r16,68(sp)
 1003d84:	dc801017 	ldw	r18,64(sp)
 1003d88:	18c10cc4 	addi	r3,r3,1075
 1003d8c:	003f6106 	br	1003b14 <_dtoa_r+0xafc>
 1003d90:	d8000b15 	stw	zero,44(sp)
 1003d94:	d9802617 	ldw	r6,152(sp)
 1003d98:	d8c00d17 	ldw	r3,52(sp)
 1003d9c:	30800044 	addi	r2,r6,1
 1003da0:	18ad883a 	add	r22,r3,r2
 1003da4:	b13fffc4 	addi	r4,r22,-1
 1003da8:	d9000e15 	stw	r4,56(sp)
 1003dac:	0581f60e 	bge	zero,r22,1004588 <_dtoa_r+0x1570>
 1003db0:	dd800f15 	stw	r22,60(sp)
 1003db4:	003f3006 	br	1003a78 <_dtoa_r+0xa60>
 1003db8:	d8000b15 	stw	zero,44(sp)
 1003dbc:	d9002617 	ldw	r4,152(sp)
 1003dc0:	0101eb0e 	bge	zero,r4,1004570 <_dtoa_r+0x1558>
 1003dc4:	202d883a 	mov	r22,r4
 1003dc8:	d9000e15 	stw	r4,56(sp)
 1003dcc:	d9000f15 	stw	r4,60(sp)
 1003dd0:	003f2906 	br	1003a78 <_dtoa_r+0xa60>
 1003dd4:	01800044 	movi	r6,1
 1003dd8:	d9800b15 	stw	r6,44(sp)
 1003ddc:	003ff706 	br	1003dbc <_dtoa_r+0xda4>
 1003de0:	01000044 	movi	r4,1
 1003de4:	d9000b15 	stw	r4,44(sp)
 1003de8:	003fea06 	br	1003d94 <_dtoa_r+0xd7c>
 1003dec:	04000c0e 	bge	zero,r16,1003e20 <_dtoa_r+0xe08>
 1003df0:	d9400717 	ldw	r5,28(sp)
 1003df4:	d9001617 	ldw	r4,88(sp)
 1003df8:	01800044 	movi	r6,1
 1003dfc:	1006b240 	call	1006b24 <__lshift>
 1003e00:	1009883a 	mov	r4,r2
 1003e04:	900b883a 	mov	r5,r18
 1003e08:	d8800715 	stw	r2,28(sp)
 1003e0c:	100633c0 	call	100633c <__mcmp>
 1003e10:	0081e00e 	bge	zero,r2,1004594 <_dtoa_r+0x157c>
 1003e14:	bdc00044 	addi	r23,r23,1
 1003e18:	00800e84 	movi	r2,58
 1003e1c:	b881a226 	beq	r23,r2,10044a8 <_dtoa_r+0x1490>
 1003e20:	b7000044 	addi	fp,r22,1
 1003e24:	b5c00005 	stb	r23,0(r22)
 1003e28:	003f7406 	br	1003bfc <_dtoa_r+0xbe4>
 1003e2c:	00800e44 	movi	r2,57
 1003e30:	b8819d26 	beq	r23,r2,10044a8 <_dtoa_r+0x1490>
 1003e34:	053ffa0e 	bge	zero,r20,1003e20 <_dtoa_r+0xe08>
 1003e38:	8dc00c44 	addi	r23,r17,49
 1003e3c:	003ff806 	br	1003e20 <_dtoa_r+0xe08>
 1003e40:	d9001617 	ldw	r4,88(sp)
 1003e44:	a80b883a 	mov	r5,r21
 1003e48:	04000044 	movi	r16,1
 1003e4c:	10061e00 	call	10061e0 <_Bfree>
 1003e50:	003edf06 	br	10039d0 <_dtoa_r+0x9b8>
 1003e54:	d9001617 	ldw	r4,88(sp)
 1003e58:	980b883a 	mov	r5,r19
 1003e5c:	01800284 	movi	r6,10
 1003e60:	000f883a 	mov	r7,zero
 1003e64:	1006f000 	call	1006f00 <__multadd>
 1003e68:	1027883a 	mov	r19,r2
 1003e6c:	d8800615 	stw	r2,24(sp)
 1003e70:	003ebb06 	br	1003960 <_dtoa_r+0x948>
 1003e74:	d9801117 	ldw	r6,68(sp)
 1003e78:	d8800d17 	ldw	r2,52(sp)
 1003e7c:	d8000915 	stw	zero,36(sp)
 1003e80:	308dc83a 	sub	r6,r6,r2
 1003e84:	0087c83a 	sub	r3,zero,r2
 1003e88:	d9801115 	stw	r6,68(sp)
 1003e8c:	d8c01015 	stw	r3,64(sp)
 1003e90:	003cfe06 	br	100328c <_dtoa_r+0x274>
 1003e94:	018dc83a 	sub	r6,zero,r6
 1003e98:	d9801115 	stw	r6,68(sp)
 1003e9c:	d8000a15 	stw	zero,40(sp)
 1003ea0:	003cf306 	br	1003270 <_dtoa_r+0x258>
 1003ea4:	d9000d17 	ldw	r4,52(sp)
 1003ea8:	1009ba80 	call	1009ba8 <__floatsidf>
 1003eac:	880b883a 	mov	r5,r17
 1003eb0:	8009883a 	mov	r4,r16
 1003eb4:	180f883a 	mov	r7,r3
 1003eb8:	100d883a 	mov	r6,r2
 1003ebc:	10099880 	call	1009988 <__nedf2>
 1003ec0:	103ce126 	beq	r2,zero,1003248 <_dtoa_r+0x230>
 1003ec4:	d9800d17 	ldw	r6,52(sp)
 1003ec8:	31bfffc4 	addi	r6,r6,-1
 1003ecc:	d9800d15 	stw	r6,52(sp)
 1003ed0:	003cdd06 	br	1003248 <_dtoa_r+0x230>
 1003ed4:	d9000717 	ldw	r4,28(sp)
 1003ed8:	900b883a 	mov	r5,r18
 1003edc:	100633c0 	call	100633c <__mcmp>
 1003ee0:	103e8d0e 	bge	r2,zero,1003918 <_dtoa_r+0x900>
 1003ee4:	d9400717 	ldw	r5,28(sp)
 1003ee8:	d9001617 	ldw	r4,88(sp)
 1003eec:	01800284 	movi	r6,10
 1003ef0:	000f883a 	mov	r7,zero
 1003ef4:	1006f000 	call	1006f00 <__multadd>
 1003ef8:	d9800d17 	ldw	r6,52(sp)
 1003efc:	d8800715 	stw	r2,28(sp)
 1003f00:	31bfffc4 	addi	r6,r6,-1
 1003f04:	d9800d15 	stw	r6,52(sp)
 1003f08:	b001a71e 	bne	r22,zero,10045a8 <_dtoa_r+0x1590>
 1003f0c:	d8800e17 	ldw	r2,56(sp)
 1003f10:	d8800f15 	stw	r2,60(sp)
 1003f14:	003e8006 	br	1003918 <_dtoa_r+0x900>
 1003f18:	90800417 	ldw	r2,16(r18)
 1003f1c:	1085883a 	add	r2,r2,r2
 1003f20:	1085883a 	add	r2,r2,r2
 1003f24:	1485883a 	add	r2,r2,r18
 1003f28:	11000417 	ldw	r4,16(r2)
 1003f2c:	10062080 	call	1006208 <__hi0bits>
 1003f30:	00c00804 	movi	r3,32
 1003f34:	1887c83a 	sub	r3,r3,r2
 1003f38:	003e5a06 	br	10038a4 <_dtoa_r+0x88c>
 1003f3c:	d9400717 	ldw	r5,28(sp)
 1003f40:	d9801017 	ldw	r6,64(sp)
 1003f44:	d9001617 	ldw	r4,88(sp)
 1003f48:	100702c0 	call	100702c <__pow5mult>
 1003f4c:	d8800715 	stw	r2,28(sp)
 1003f50:	003e4306 	br	1003860 <_dtoa_r+0x848>
 1003f54:	d9800f17 	ldw	r6,60(sp)
 1003f58:	d8800d17 	ldw	r2,52(sp)
 1003f5c:	d9800315 	stw	r6,12(sp)
 1003f60:	d8800415 	stw	r2,16(sp)
 1003f64:	d8c00b17 	ldw	r3,44(sp)
 1003f68:	1805003a 	cmpeq	r2,r3,zero
 1003f6c:	1000e21e 	bne	r2,zero,10042f8 <_dtoa_r+0x12e0>
 1003f70:	d9000317 	ldw	r4,12(sp)
 1003f74:	0005883a 	mov	r2,zero
 1003f78:	00cff834 	movhi	r3,16352
 1003f7c:	200c90fa 	slli	r6,r4,3
 1003f80:	01004074 	movhi	r4,257
 1003f84:	213ae804 	addi	r4,r4,-5216
 1003f88:	180b883a 	mov	r5,r3
 1003f8c:	310d883a 	add	r6,r6,r4
 1003f90:	327fff17 	ldw	r9,-4(r6)
 1003f94:	323ffe17 	ldw	r8,-8(r6)
 1003f98:	1009883a 	mov	r4,r2
 1003f9c:	480f883a 	mov	r7,r9
 1003fa0:	400d883a 	mov	r6,r8
 1003fa4:	10096a80 	call	10096a8 <__divdf3>
 1003fa8:	180b883a 	mov	r5,r3
 1003fac:	b00d883a 	mov	r6,r22
 1003fb0:	b80f883a 	mov	r7,r23
 1003fb4:	1009883a 	mov	r4,r2
 1003fb8:	10091f00 	call	10091f0 <__subdf3>
 1003fbc:	a80b883a 	mov	r5,r21
 1003fc0:	a009883a 	mov	r4,r20
 1003fc4:	d8c01915 	stw	r3,100(sp)
 1003fc8:	d8801815 	stw	r2,96(sp)
 1003fcc:	1009ca00 	call	1009ca0 <__fixdfsi>
 1003fd0:	1009883a 	mov	r4,r2
 1003fd4:	1027883a 	mov	r19,r2
 1003fd8:	1009ba80 	call	1009ba8 <__floatsidf>
 1003fdc:	a80b883a 	mov	r5,r21
 1003fe0:	a009883a 	mov	r4,r20
 1003fe4:	180f883a 	mov	r7,r3
 1003fe8:	100d883a 	mov	r6,r2
 1003fec:	10091f00 	call	10091f0 <__subdf3>
 1003ff0:	d9801817 	ldw	r6,96(sp)
 1003ff4:	1823883a 	mov	r17,r3
 1003ff8:	d8801415 	stw	r2,80(sp)
 1003ffc:	302d883a 	mov	r22,r6
 1004000:	d9800517 	ldw	r6,20(sp)
 1004004:	9cc00c04 	addi	r19,r19,48
 1004008:	dc401515 	stw	r17,84(sp)
 100400c:	d8c01917 	ldw	r3,100(sp)
 1004010:	34c00005 	stb	r19,0(r6)
 1004014:	d8800517 	ldw	r2,20(sp)
 1004018:	d9401917 	ldw	r5,100(sp)
 100401c:	d9801417 	ldw	r6,80(sp)
 1004020:	b009883a 	mov	r4,r22
 1004024:	880f883a 	mov	r7,r17
 1004028:	182f883a 	mov	r23,r3
 100402c:	17000044 	addi	fp,r2,1
 1004030:	1009a100 	call	1009a10 <__gtdf2>
 1004034:	00804e16 	blt	zero,r2,1004170 <_dtoa_r+0x1158>
 1004038:	d9801417 	ldw	r6,80(sp)
 100403c:	0005883a 	mov	r2,zero
 1004040:	00cffc34 	movhi	r3,16368
 1004044:	180b883a 	mov	r5,r3
 1004048:	880f883a 	mov	r7,r17
 100404c:	1009883a 	mov	r4,r2
 1004050:	10091f00 	call	10091f0 <__subdf3>
 1004054:	d9401917 	ldw	r5,100(sp)
 1004058:	180f883a 	mov	r7,r3
 100405c:	b009883a 	mov	r4,r22
 1004060:	100d883a 	mov	r6,r2
 1004064:	1009a100 	call	1009a10 <__gtdf2>
 1004068:	00bda216 	blt	zero,r2,10036f4 <_dtoa_r+0x6dc>
 100406c:	d8c00317 	ldw	r3,12(sp)
 1004070:	00800044 	movi	r2,1
 1004074:	10c01216 	blt	r2,r3,10040c0 <_dtoa_r+0x10a8>
 1004078:	003d4506 	br	1003590 <_dtoa_r+0x578>
 100407c:	d9801417 	ldw	r6,80(sp)
 1004080:	0005883a 	mov	r2,zero
 1004084:	00cffc34 	movhi	r3,16368
 1004088:	180b883a 	mov	r5,r3
 100408c:	880f883a 	mov	r7,r17
 1004090:	1009883a 	mov	r4,r2
 1004094:	10091f00 	call	10091f0 <__subdf3>
 1004098:	d9c01b17 	ldw	r7,108(sp)
 100409c:	180b883a 	mov	r5,r3
 10040a0:	1009883a 	mov	r4,r2
 10040a4:	b00d883a 	mov	r6,r22
 10040a8:	1009b200 	call	1009b20 <__ltdf2>
 10040ac:	103d9116 	blt	r2,zero,10036f4 <_dtoa_r+0x6dc>
 10040b0:	d9800517 	ldw	r6,20(sp)
 10040b4:	d9000317 	ldw	r4,12(sp)
 10040b8:	3105883a 	add	r2,r6,r4
 10040bc:	e0bd3426 	beq	fp,r2,1003590 <_dtoa_r+0x578>
 10040c0:	04500934 	movhi	r17,16420
 10040c4:	0021883a 	mov	r16,zero
 10040c8:	b80b883a 	mov	r5,r23
 10040cc:	b009883a 	mov	r4,r22
 10040d0:	800d883a 	mov	r6,r16
 10040d4:	880f883a 	mov	r7,r17
 10040d8:	10092e40 	call	10092e4 <__muldf3>
 10040dc:	d9401517 	ldw	r5,84(sp)
 10040e0:	d9001417 	ldw	r4,80(sp)
 10040e4:	880f883a 	mov	r7,r17
 10040e8:	000d883a 	mov	r6,zero
 10040ec:	d8801a15 	stw	r2,104(sp)
 10040f0:	d8c01b15 	stw	r3,108(sp)
 10040f4:	10092e40 	call	10092e4 <__muldf3>
 10040f8:	180b883a 	mov	r5,r3
 10040fc:	1009883a 	mov	r4,r2
 1004100:	1823883a 	mov	r17,r3
 1004104:	1021883a 	mov	r16,r2
 1004108:	1009ca00 	call	1009ca0 <__fixdfsi>
 100410c:	1009883a 	mov	r4,r2
 1004110:	102b883a 	mov	r21,r2
 1004114:	1009ba80 	call	1009ba8 <__floatsidf>
 1004118:	880b883a 	mov	r5,r17
 100411c:	8009883a 	mov	r4,r16
 1004120:	180f883a 	mov	r7,r3
 1004124:	100d883a 	mov	r6,r2
 1004128:	10091f00 	call	10091f0 <__subdf3>
 100412c:	1021883a 	mov	r16,r2
 1004130:	d9001b17 	ldw	r4,108(sp)
 1004134:	1823883a 	mov	r17,r3
 1004138:	dc001415 	stw	r16,80(sp)
 100413c:	ad400c04 	addi	r21,r21,48
 1004140:	dc401515 	stw	r17,84(sp)
 1004144:	d8801a17 	ldw	r2,104(sp)
 1004148:	e5400005 	stb	r21,0(fp)
 100414c:	202f883a 	mov	r23,r4
 1004150:	d9c01b17 	ldw	r7,108(sp)
 1004154:	d9001417 	ldw	r4,80(sp)
 1004158:	880b883a 	mov	r5,r17
 100415c:	100d883a 	mov	r6,r2
 1004160:	102d883a 	mov	r22,r2
 1004164:	e7000044 	addi	fp,fp,1
 1004168:	1009b200 	call	1009b20 <__ltdf2>
 100416c:	103fc30e 	bge	r2,zero,100407c <_dtoa_r+0x1064>
 1004170:	d9000417 	ldw	r4,16(sp)
 1004174:	d9000d15 	stw	r4,52(sp)
 1004178:	003d7106 	br	1003740 <_dtoa_r+0x728>
 100417c:	d9801717 	ldw	r6,92(sp)
 1004180:	00800084 	movi	r2,2
 1004184:	11bde60e 	bge	r2,r6,1003920 <_dtoa_r+0x908>
 1004188:	203cfb1e 	bne	r4,zero,1003578 <_dtoa_r+0x560>
 100418c:	d9001617 	ldw	r4,88(sp)
 1004190:	900b883a 	mov	r5,r18
 1004194:	01800144 	movi	r6,5
 1004198:	000f883a 	mov	r7,zero
 100419c:	1006f000 	call	1006f00 <__multadd>
 10041a0:	d9000717 	ldw	r4,28(sp)
 10041a4:	100b883a 	mov	r5,r2
 10041a8:	1025883a 	mov	r18,r2
 10041ac:	100633c0 	call	100633c <__mcmp>
 10041b0:	00bcf10e 	bge	zero,r2,1003578 <_dtoa_r+0x560>
 10041b4:	d8c00d17 	ldw	r3,52(sp)
 10041b8:	d9000517 	ldw	r4,20(sp)
 10041bc:	d8000615 	stw	zero,24(sp)
 10041c0:	18c00044 	addi	r3,r3,1
 10041c4:	d8c00d15 	stw	r3,52(sp)
 10041c8:	00800c44 	movi	r2,49
 10041cc:	27000044 	addi	fp,r4,1
 10041d0:	20800005 	stb	r2,0(r4)
 10041d4:	003e8906 	br	1003bfc <_dtoa_r+0xbe4>
 10041d8:	d8c00517 	ldw	r3,20(sp)
 10041dc:	003bc206 	br	10030e8 <_dtoa_r+0xd0>
 10041e0:	01804074 	movhi	r6,257
 10041e4:	31bb1a04 	addi	r6,r6,-5016
 10041e8:	30c00917 	ldw	r3,36(r6)
 10041ec:	30800817 	ldw	r2,32(r6)
 10041f0:	d9001217 	ldw	r4,72(sp)
 10041f4:	d9401317 	ldw	r5,76(sp)
 10041f8:	180f883a 	mov	r7,r3
 10041fc:	100d883a 	mov	r6,r2
 1004200:	10096a80 	call	10096a8 <__divdf3>
 1004204:	948003cc 	andi	r18,r18,15
 1004208:	058000c4 	movi	r22,3
 100420c:	1029883a 	mov	r20,r2
 1004210:	182b883a 	mov	r21,r3
 1004214:	003c8906 	br	100343c <_dtoa_r+0x424>
 1004218:	d9001017 	ldw	r4,64(sp)
 100421c:	d9800917 	ldw	r6,36(sp)
 1004220:	0025883a 	mov	r18,zero
 1004224:	1105c83a 	sub	r2,r2,r4
 1004228:	2089883a 	add	r4,r4,r2
 100422c:	308d883a 	add	r6,r6,r2
 1004230:	d9001015 	stw	r4,64(sp)
 1004234:	d9800915 	stw	r6,36(sp)
 1004238:	003e3206 	br	1003b04 <_dtoa_r+0xaec>
 100423c:	28800044 	addi	r2,r5,1
 1004240:	27000044 	addi	fp,r4,1
 1004244:	20800005 	stb	r2,0(r4)
 1004248:	003e6c06 	br	1003bfc <_dtoa_r+0xbe4>
 100424c:	d8800f17 	ldw	r2,60(sp)
 1004250:	00bce016 	blt	zero,r2,10035d4 <_dtoa_r+0x5bc>
 1004254:	d9800f17 	ldw	r6,60(sp)
 1004258:	303cc51e 	bne	r6,zero,1003570 <_dtoa_r+0x558>
 100425c:	0005883a 	mov	r2,zero
 1004260:	00d00534 	movhi	r3,16404
 1004264:	980b883a 	mov	r5,r19
 1004268:	180f883a 	mov	r7,r3
 100426c:	9009883a 	mov	r4,r18
 1004270:	100d883a 	mov	r6,r2
 1004274:	10092e40 	call	10092e4 <__muldf3>
 1004278:	180b883a 	mov	r5,r3
 100427c:	a80f883a 	mov	r7,r21
 1004280:	1009883a 	mov	r4,r2
 1004284:	a00d883a 	mov	r6,r20
 1004288:	1009a980 	call	1009a98 <__gedf2>
 100428c:	103cb80e 	bge	r2,zero,1003570 <_dtoa_r+0x558>
 1004290:	0027883a 	mov	r19,zero
 1004294:	0025883a 	mov	r18,zero
 1004298:	003fc606 	br	10041b4 <_dtoa_r+0x119c>
 100429c:	99400117 	ldw	r5,4(r19)
 10042a0:	d9001617 	ldw	r4,88(sp)
 10042a4:	10067600 	call	1006760 <_Balloc>
 10042a8:	99800417 	ldw	r6,16(r19)
 10042ac:	11000304 	addi	r4,r2,12
 10042b0:	99400304 	addi	r5,r19,12
 10042b4:	318d883a 	add	r6,r6,r6
 10042b8:	318d883a 	add	r6,r6,r6
 10042bc:	31800204 	addi	r6,r6,8
 10042c0:	1023883a 	mov	r17,r2
 10042c4:	1005fc80 	call	1005fc8 <memcpy>
 10042c8:	d9001617 	ldw	r4,88(sp)
 10042cc:	880b883a 	mov	r5,r17
 10042d0:	01800044 	movi	r6,1
 10042d4:	1006b240 	call	1006b24 <__lshift>
 10042d8:	100b883a 	mov	r5,r2
 10042dc:	003d9c06 	br	1003950 <_dtoa_r+0x938>
 10042e0:	00800e44 	movi	r2,57
 10042e4:	b8807026 	beq	r23,r2,10044a8 <_dtoa_r+0x1490>
 10042e8:	b8800044 	addi	r2,r23,1
 10042ec:	b7000044 	addi	fp,r22,1
 10042f0:	b0800005 	stb	r2,0(r22)
 10042f4:	003e4106 	br	1003bfc <_dtoa_r+0xbe4>
 10042f8:	d8800317 	ldw	r2,12(sp)
 10042fc:	01804074 	movhi	r6,257
 1004300:	31bae804 	addi	r6,r6,-5216
 1004304:	b009883a 	mov	r4,r22
 1004308:	100e90fa 	slli	r7,r2,3
 100430c:	b80b883a 	mov	r5,r23
 1004310:	398f883a 	add	r7,r7,r6
 1004314:	38bffe17 	ldw	r2,-8(r7)
 1004318:	d9800517 	ldw	r6,20(sp)
 100431c:	38ffff17 	ldw	r3,-4(r7)
 1004320:	37000044 	addi	fp,r6,1
 1004324:	180f883a 	mov	r7,r3
 1004328:	100d883a 	mov	r6,r2
 100432c:	10092e40 	call	10092e4 <__muldf3>
 1004330:	a80b883a 	mov	r5,r21
 1004334:	a009883a 	mov	r4,r20
 1004338:	182f883a 	mov	r23,r3
 100433c:	102d883a 	mov	r22,r2
 1004340:	1009ca00 	call	1009ca0 <__fixdfsi>
 1004344:	1009883a 	mov	r4,r2
 1004348:	1027883a 	mov	r19,r2
 100434c:	1009ba80 	call	1009ba8 <__floatsidf>
 1004350:	a80b883a 	mov	r5,r21
 1004354:	a009883a 	mov	r4,r20
 1004358:	180f883a 	mov	r7,r3
 100435c:	100d883a 	mov	r6,r2
 1004360:	10091f00 	call	10091f0 <__subdf3>
 1004364:	180b883a 	mov	r5,r3
 1004368:	d8c00517 	ldw	r3,20(sp)
 100436c:	9cc00c04 	addi	r19,r19,48
 1004370:	1009883a 	mov	r4,r2
 1004374:	1cc00005 	stb	r19,0(r3)
 1004378:	2021883a 	mov	r16,r4
 100437c:	d9000317 	ldw	r4,12(sp)
 1004380:	00800044 	movi	r2,1
 1004384:	2823883a 	mov	r17,r5
 1004388:	20802226 	beq	r4,r2,1004414 <_dtoa_r+0x13fc>
 100438c:	1029883a 	mov	r20,r2
 1004390:	0005883a 	mov	r2,zero
 1004394:	00d00934 	movhi	r3,16420
 1004398:	180f883a 	mov	r7,r3
 100439c:	100d883a 	mov	r6,r2
 10043a0:	880b883a 	mov	r5,r17
 10043a4:	8009883a 	mov	r4,r16
 10043a8:	10092e40 	call	10092e4 <__muldf3>
 10043ac:	180b883a 	mov	r5,r3
 10043b0:	1009883a 	mov	r4,r2
 10043b4:	1823883a 	mov	r17,r3
 10043b8:	1021883a 	mov	r16,r2
 10043bc:	1009ca00 	call	1009ca0 <__fixdfsi>
 10043c0:	1009883a 	mov	r4,r2
 10043c4:	102b883a 	mov	r21,r2
 10043c8:	1009ba80 	call	1009ba8 <__floatsidf>
 10043cc:	880b883a 	mov	r5,r17
 10043d0:	8009883a 	mov	r4,r16
 10043d4:	180f883a 	mov	r7,r3
 10043d8:	100d883a 	mov	r6,r2
 10043dc:	10091f00 	call	10091f0 <__subdf3>
 10043e0:	180b883a 	mov	r5,r3
 10043e4:	d8c00517 	ldw	r3,20(sp)
 10043e8:	1009883a 	mov	r4,r2
 10043ec:	ad400c04 	addi	r21,r21,48
 10043f0:	1d05883a 	add	r2,r3,r20
 10043f4:	15400005 	stb	r21,0(r2)
 10043f8:	2021883a 	mov	r16,r4
 10043fc:	d9000317 	ldw	r4,12(sp)
 1004400:	a5000044 	addi	r20,r20,1
 1004404:	2823883a 	mov	r17,r5
 1004408:	a13fe11e 	bne	r20,r4,1004390 <_dtoa_r+0x1378>
 100440c:	e505883a 	add	r2,fp,r20
 1004410:	173fffc4 	addi	fp,r2,-1
 1004414:	0025883a 	mov	r18,zero
 1004418:	04cff834 	movhi	r19,16352
 100441c:	b009883a 	mov	r4,r22
 1004420:	b80b883a 	mov	r5,r23
 1004424:	900d883a 	mov	r6,r18
 1004428:	980f883a 	mov	r7,r19
 100442c:	10092700 	call	1009270 <__adddf3>
 1004430:	180b883a 	mov	r5,r3
 1004434:	1009883a 	mov	r4,r2
 1004438:	800d883a 	mov	r6,r16
 100443c:	880f883a 	mov	r7,r17
 1004440:	1009b200 	call	1009b20 <__ltdf2>
 1004444:	103cab16 	blt	r2,zero,10036f4 <_dtoa_r+0x6dc>
 1004448:	0009883a 	mov	r4,zero
 100444c:	980b883a 	mov	r5,r19
 1004450:	b80f883a 	mov	r7,r23
 1004454:	b00d883a 	mov	r6,r22
 1004458:	10091f00 	call	10091f0 <__subdf3>
 100445c:	180b883a 	mov	r5,r3
 1004460:	880f883a 	mov	r7,r17
 1004464:	1009883a 	mov	r4,r2
 1004468:	800d883a 	mov	r6,r16
 100446c:	1009a100 	call	1009a10 <__gtdf2>
 1004470:	00bc470e 	bge	zero,r2,1003590 <_dtoa_r+0x578>
 1004474:	00c00c04 	movi	r3,48
 1004478:	e73fffc4 	addi	fp,fp,-1
 100447c:	e0800007 	ldb	r2,0(fp)
 1004480:	10fffd26 	beq	r2,r3,1004478 <_dtoa_r+0x1460>
 1004484:	d9800417 	ldw	r6,16(sp)
 1004488:	e7000044 	addi	fp,fp,1
 100448c:	d9800d15 	stw	r6,52(sp)
 1004490:	003cab06 	br	1003740 <_dtoa_r+0x728>
 1004494:	d8c00f17 	ldw	r3,60(sp)
 1004498:	d9001117 	ldw	r4,68(sp)
 100449c:	20e1c83a 	sub	r16,r4,r3
 10044a0:	0007883a 	mov	r3,zero
 10044a4:	003d9b06 	br	1003b14 <_dtoa_r+0xafc>
 10044a8:	00800e44 	movi	r2,57
 10044ac:	b0800005 	stb	r2,0(r22)
 10044b0:	b5800044 	addi	r22,r22,1
 10044b4:	003dc106 	br	1003bbc <_dtoa_r+0xba4>
 10044b8:	05800084 	movi	r22,2
 10044bc:	003bf706 	br	100349c <_dtoa_r+0x484>
 10044c0:	d9000f17 	ldw	r4,60(sp)
 10044c4:	013c000e 	bge	zero,r4,10034c8 <_dtoa_r+0x4b0>
 10044c8:	d9800e17 	ldw	r6,56(sp)
 10044cc:	01bc300e 	bge	zero,r6,1003590 <_dtoa_r+0x578>
 10044d0:	0005883a 	mov	r2,zero
 10044d4:	00d00934 	movhi	r3,16420
 10044d8:	a80b883a 	mov	r5,r21
 10044dc:	180f883a 	mov	r7,r3
 10044e0:	a009883a 	mov	r4,r20
 10044e4:	100d883a 	mov	r6,r2
 10044e8:	10092e40 	call	10092e4 <__muldf3>
 10044ec:	b1000044 	addi	r4,r22,1
 10044f0:	1021883a 	mov	r16,r2
 10044f4:	1823883a 	mov	r17,r3
 10044f8:	1009ba80 	call	1009ba8 <__floatsidf>
 10044fc:	880b883a 	mov	r5,r17
 1004500:	8009883a 	mov	r4,r16
 1004504:	180f883a 	mov	r7,r3
 1004508:	100d883a 	mov	r6,r2
 100450c:	10092e40 	call	10092e4 <__muldf3>
 1004510:	0011883a 	mov	r8,zero
 1004514:	02500734 	movhi	r9,16412
 1004518:	180b883a 	mov	r5,r3
 100451c:	480f883a 	mov	r7,r9
 1004520:	1009883a 	mov	r4,r2
 1004524:	400d883a 	mov	r6,r8
 1004528:	10092700 	call	1009270 <__adddf3>
 100452c:	102d883a 	mov	r22,r2
 1004530:	00bf3034 	movhi	r2,64704
 1004534:	10ef883a 	add	r23,r2,r3
 1004538:	d8800d17 	ldw	r2,52(sp)
 100453c:	d8c00e17 	ldw	r3,56(sp)
 1004540:	8029883a 	mov	r20,r16
 1004544:	10bfffc4 	addi	r2,r2,-1
 1004548:	882b883a 	mov	r21,r17
 100454c:	d8800415 	stw	r2,16(sp)
 1004550:	d8c00315 	stw	r3,12(sp)
 1004554:	003e8306 	br	1003f64 <_dtoa_r+0xf4c>
 1004558:	d8800117 	ldw	r2,4(sp)
 100455c:	dc001117 	ldw	r16,68(sp)
 1004560:	dc801017 	ldw	r18,64(sp)
 1004564:	00c00d84 	movi	r3,54
 1004568:	1887c83a 	sub	r3,r3,r2
 100456c:	003d6906 	br	1003b14 <_dtoa_r+0xafc>
 1004570:	01800044 	movi	r6,1
 1004574:	3021883a 	mov	r16,r6
 1004578:	d9800f15 	stw	r6,60(sp)
 100457c:	d9802615 	stw	r6,152(sp)
 1004580:	d9800e15 	stw	r6,56(sp)
 1004584:	003b9306 	br	10033d4 <_dtoa_r+0x3bc>
 1004588:	b021883a 	mov	r16,r22
 100458c:	dd800f15 	stw	r22,60(sp)
 1004590:	003b9006 	br	10033d4 <_dtoa_r+0x3bc>
 1004594:	103e221e 	bne	r2,zero,1003e20 <_dtoa_r+0xe08>
 1004598:	b880004c 	andi	r2,r23,1
 100459c:	1005003a 	cmpeq	r2,r2,zero
 10045a0:	103e1f1e 	bne	r2,zero,1003e20 <_dtoa_r+0xe08>
 10045a4:	003e1b06 	br	1003e14 <_dtoa_r+0xdfc>
 10045a8:	d9001617 	ldw	r4,88(sp)
 10045ac:	980b883a 	mov	r5,r19
 10045b0:	01800284 	movi	r6,10
 10045b4:	000f883a 	mov	r7,zero
 10045b8:	1006f000 	call	1006f00 <__multadd>
 10045bc:	d8c00e17 	ldw	r3,56(sp)
 10045c0:	1027883a 	mov	r19,r2
 10045c4:	d8c00f15 	stw	r3,60(sp)
 10045c8:	003cd306 	br	1003918 <_dtoa_r+0x900>

010045cc <_fflush_r>:
 10045cc:	defffb04 	addi	sp,sp,-20
 10045d0:	dcc00315 	stw	r19,12(sp)
 10045d4:	dc800215 	stw	r18,8(sp)
 10045d8:	dfc00415 	stw	ra,16(sp)
 10045dc:	dc400115 	stw	r17,4(sp)
 10045e0:	dc000015 	stw	r16,0(sp)
 10045e4:	2027883a 	mov	r19,r4
 10045e8:	2825883a 	mov	r18,r5
 10045ec:	20000226 	beq	r4,zero,10045f8 <_fflush_r+0x2c>
 10045f0:	20800e17 	ldw	r2,56(r4)
 10045f4:	10005626 	beq	r2,zero,1004750 <_fflush_r+0x184>
 10045f8:	9100030b 	ldhu	r4,12(r18)
 10045fc:	20ffffcc 	andi	r3,r4,65535
 1004600:	18e0001c 	xori	r3,r3,32768
 1004604:	18e00004 	addi	r3,r3,-32768
 1004608:	1880020c 	andi	r2,r3,8
 100460c:	1000261e 	bne	r2,zero,10046a8 <_fflush_r+0xdc>
 1004610:	90c00117 	ldw	r3,4(r18)
 1004614:	20820014 	ori	r2,r4,2048
 1004618:	9080030d 	sth	r2,12(r18)
 100461c:	1009883a 	mov	r4,r2
 1004620:	00c0400e 	bge	zero,r3,1004724 <_fflush_r+0x158>
 1004624:	92000a17 	ldw	r8,40(r18)
 1004628:	40004026 	beq	r8,zero,100472c <_fflush_r+0x160>
 100462c:	2084000c 	andi	r2,r4,4096
 1004630:	10005326 	beq	r2,zero,1004780 <_fflush_r+0x1b4>
 1004634:	94001417 	ldw	r16,80(r18)
 1004638:	9080030b 	ldhu	r2,12(r18)
 100463c:	1080010c 	andi	r2,r2,4
 1004640:	1000481e 	bne	r2,zero,1004764 <_fflush_r+0x198>
 1004644:	91400717 	ldw	r5,28(r18)
 1004648:	9809883a 	mov	r4,r19
 100464c:	800d883a 	mov	r6,r16
 1004650:	000f883a 	mov	r7,zero
 1004654:	403ee83a 	callr	r8
 1004658:	8080261e 	bne	r16,r2,10046f4 <_fflush_r+0x128>
 100465c:	9080030b 	ldhu	r2,12(r18)
 1004660:	91000417 	ldw	r4,16(r18)
 1004664:	90000115 	stw	zero,4(r18)
 1004668:	10bdffcc 	andi	r2,r2,63487
 100466c:	10ffffcc 	andi	r3,r2,65535
 1004670:	18c4000c 	andi	r3,r3,4096
 1004674:	9080030d 	sth	r2,12(r18)
 1004678:	91000015 	stw	r4,0(r18)
 100467c:	18002b26 	beq	r3,zero,100472c <_fflush_r+0x160>
 1004680:	0007883a 	mov	r3,zero
 1004684:	1805883a 	mov	r2,r3
 1004688:	94001415 	stw	r16,80(r18)
 100468c:	dfc00417 	ldw	ra,16(sp)
 1004690:	dcc00317 	ldw	r19,12(sp)
 1004694:	dc800217 	ldw	r18,8(sp)
 1004698:	dc400117 	ldw	r17,4(sp)
 100469c:	dc000017 	ldw	r16,0(sp)
 10046a0:	dec00504 	addi	sp,sp,20
 10046a4:	f800283a 	ret
 10046a8:	94400417 	ldw	r17,16(r18)
 10046ac:	88001f26 	beq	r17,zero,100472c <_fflush_r+0x160>
 10046b0:	90800017 	ldw	r2,0(r18)
 10046b4:	18c000cc 	andi	r3,r3,3
 10046b8:	94400015 	stw	r17,0(r18)
 10046bc:	1461c83a 	sub	r16,r2,r17
 10046c0:	18002526 	beq	r3,zero,1004758 <_fflush_r+0x18c>
 10046c4:	0005883a 	mov	r2,zero
 10046c8:	90800215 	stw	r2,8(r18)
 10046cc:	0400170e 	bge	zero,r16,100472c <_fflush_r+0x160>
 10046d0:	90c00917 	ldw	r3,36(r18)
 10046d4:	91400717 	ldw	r5,28(r18)
 10046d8:	880d883a 	mov	r6,r17
 10046dc:	800f883a 	mov	r7,r16
 10046e0:	9809883a 	mov	r4,r19
 10046e4:	183ee83a 	callr	r3
 10046e8:	88a3883a 	add	r17,r17,r2
 10046ec:	80a1c83a 	sub	r16,r16,r2
 10046f0:	00bff616 	blt	zero,r2,10046cc <_fflush_r+0x100>
 10046f4:	9080030b 	ldhu	r2,12(r18)
 10046f8:	00ffffc4 	movi	r3,-1
 10046fc:	10801014 	ori	r2,r2,64
 1004700:	9080030d 	sth	r2,12(r18)
 1004704:	1805883a 	mov	r2,r3
 1004708:	dfc00417 	ldw	ra,16(sp)
 100470c:	dcc00317 	ldw	r19,12(sp)
 1004710:	dc800217 	ldw	r18,8(sp)
 1004714:	dc400117 	ldw	r17,4(sp)
 1004718:	dc000017 	ldw	r16,0(sp)
 100471c:	dec00504 	addi	sp,sp,20
 1004720:	f800283a 	ret
 1004724:	90800f17 	ldw	r2,60(r18)
 1004728:	00bfbe16 	blt	zero,r2,1004624 <_fflush_r+0x58>
 100472c:	0007883a 	mov	r3,zero
 1004730:	1805883a 	mov	r2,r3
 1004734:	dfc00417 	ldw	ra,16(sp)
 1004738:	dcc00317 	ldw	r19,12(sp)
 100473c:	dc800217 	ldw	r18,8(sp)
 1004740:	dc400117 	ldw	r17,4(sp)
 1004744:	dc000017 	ldw	r16,0(sp)
 1004748:	dec00504 	addi	sp,sp,20
 100474c:	f800283a 	ret
 1004750:	10048640 	call	1004864 <__sinit>
 1004754:	003fa806 	br	10045f8 <_fflush_r+0x2c>
 1004758:	90800517 	ldw	r2,20(r18)
 100475c:	90800215 	stw	r2,8(r18)
 1004760:	003fda06 	br	10046cc <_fflush_r+0x100>
 1004764:	90800117 	ldw	r2,4(r18)
 1004768:	90c00c17 	ldw	r3,48(r18)
 100476c:	80a1c83a 	sub	r16,r16,r2
 1004770:	183fb426 	beq	r3,zero,1004644 <_fflush_r+0x78>
 1004774:	90800f17 	ldw	r2,60(r18)
 1004778:	80a1c83a 	sub	r16,r16,r2
 100477c:	003fb106 	br	1004644 <_fflush_r+0x78>
 1004780:	91400717 	ldw	r5,28(r18)
 1004784:	9809883a 	mov	r4,r19
 1004788:	000d883a 	mov	r6,zero
 100478c:	01c00044 	movi	r7,1
 1004790:	403ee83a 	callr	r8
 1004794:	1021883a 	mov	r16,r2
 1004798:	00bfffc4 	movi	r2,-1
 100479c:	80800226 	beq	r16,r2,10047a8 <_fflush_r+0x1dc>
 10047a0:	92000a17 	ldw	r8,40(r18)
 10047a4:	003fa406 	br	1004638 <_fflush_r+0x6c>
 10047a8:	98c00017 	ldw	r3,0(r19)
 10047ac:	00800744 	movi	r2,29
 10047b0:	18bfde26 	beq	r3,r2,100472c <_fflush_r+0x160>
 10047b4:	9080030b 	ldhu	r2,12(r18)
 10047b8:	8007883a 	mov	r3,r16
 10047bc:	10801014 	ori	r2,r2,64
 10047c0:	9080030d 	sth	r2,12(r18)
 10047c4:	003fcf06 	br	1004704 <_fflush_r+0x138>

010047c8 <fflush>:
 10047c8:	01404034 	movhi	r5,256
 10047cc:	29517304 	addi	r5,r5,17868
 10047d0:	2007883a 	mov	r3,r4
 10047d4:	20000526 	beq	r4,zero,10047ec <fflush+0x24>
 10047d8:	00804074 	movhi	r2,257
 10047dc:	10824c04 	addi	r2,r2,2352
 10047e0:	11000017 	ldw	r4,0(r2)
 10047e4:	180b883a 	mov	r5,r3
 10047e8:	10045cc1 	jmpi	10045cc <_fflush_r>
 10047ec:	00804074 	movhi	r2,257
 10047f0:	10824d04 	addi	r2,r2,2356
 10047f4:	11000017 	ldw	r4,0(r2)
 10047f8:	10053cc1 	jmpi	10053cc <_fwalk_reent>

010047fc <std>:
 10047fc:	00804034 	movhi	r2,256
 1004800:	109e5004 	addi	r2,r2,31040
 1004804:	20800b15 	stw	r2,44(r4)
 1004808:	00804034 	movhi	r2,256
 100480c:	109e8b04 	addi	r2,r2,31276
 1004810:	20800815 	stw	r2,32(r4)
 1004814:	00c04034 	movhi	r3,256
 1004818:	18de6c04 	addi	r3,r3,31152
 100481c:	00804034 	movhi	r2,256
 1004820:	109e5204 	addi	r2,r2,31048
 1004824:	2140030d 	sth	r5,12(r4)
 1004828:	2180038d 	sth	r6,14(r4)
 100482c:	20c00915 	stw	r3,36(r4)
 1004830:	20800a15 	stw	r2,40(r4)
 1004834:	20000015 	stw	zero,0(r4)
 1004838:	20000115 	stw	zero,4(r4)
 100483c:	20000215 	stw	zero,8(r4)
 1004840:	20000415 	stw	zero,16(r4)
 1004844:	20000515 	stw	zero,20(r4)
 1004848:	20000615 	stw	zero,24(r4)
 100484c:	21000715 	stw	r4,28(r4)
 1004850:	f800283a 	ret

01004854 <__sfp_lock_acquire>:
 1004854:	f800283a 	ret

01004858 <__sfp_lock_release>:
 1004858:	f800283a 	ret

0100485c <__sinit_lock_acquire>:
 100485c:	f800283a 	ret

01004860 <__sinit_lock_release>:
 1004860:	f800283a 	ret

01004864 <__sinit>:
 1004864:	20800e17 	ldw	r2,56(r4)
 1004868:	defffd04 	addi	sp,sp,-12
 100486c:	dc400115 	stw	r17,4(sp)
 1004870:	dc000015 	stw	r16,0(sp)
 1004874:	dfc00215 	stw	ra,8(sp)
 1004878:	04400044 	movi	r17,1
 100487c:	01400104 	movi	r5,4
 1004880:	000d883a 	mov	r6,zero
 1004884:	2021883a 	mov	r16,r4
 1004888:	2200bb04 	addi	r8,r4,748
 100488c:	200f883a 	mov	r7,r4
 1004890:	10000526 	beq	r2,zero,10048a8 <__sinit+0x44>
 1004894:	dfc00217 	ldw	ra,8(sp)
 1004898:	dc400117 	ldw	r17,4(sp)
 100489c:	dc000017 	ldw	r16,0(sp)
 10048a0:	dec00304 	addi	sp,sp,12
 10048a4:	f800283a 	ret
 10048a8:	21000117 	ldw	r4,4(r4)
 10048ac:	00804034 	movhi	r2,256
 10048b0:	10925204 	addi	r2,r2,18760
 10048b4:	00c000c4 	movi	r3,3
 10048b8:	80800f15 	stw	r2,60(r16)
 10048bc:	80c0b915 	stw	r3,740(r16)
 10048c0:	8200ba15 	stw	r8,744(r16)
 10048c4:	84400e15 	stw	r17,56(r16)
 10048c8:	8000b815 	stw	zero,736(r16)
 10048cc:	10047fc0 	call	10047fc <std>
 10048d0:	81000217 	ldw	r4,8(r16)
 10048d4:	880d883a 	mov	r6,r17
 10048d8:	800f883a 	mov	r7,r16
 10048dc:	01400284 	movi	r5,10
 10048e0:	10047fc0 	call	10047fc <std>
 10048e4:	81000317 	ldw	r4,12(r16)
 10048e8:	800f883a 	mov	r7,r16
 10048ec:	01400484 	movi	r5,18
 10048f0:	01800084 	movi	r6,2
 10048f4:	dfc00217 	ldw	ra,8(sp)
 10048f8:	dc400117 	ldw	r17,4(sp)
 10048fc:	dc000017 	ldw	r16,0(sp)
 1004900:	dec00304 	addi	sp,sp,12
 1004904:	10047fc1 	jmpi	10047fc <std>

01004908 <__fp_lock>:
 1004908:	0005883a 	mov	r2,zero
 100490c:	f800283a 	ret

01004910 <__fp_unlock>:
 1004910:	0005883a 	mov	r2,zero
 1004914:	f800283a 	ret

01004918 <__fp_unlock_all>:
 1004918:	00804074 	movhi	r2,257
 100491c:	10824c04 	addi	r2,r2,2352
 1004920:	11000017 	ldw	r4,0(r2)
 1004924:	01404034 	movhi	r5,256
 1004928:	29524404 	addi	r5,r5,18704
 100492c:	10054941 	jmpi	1005494 <_fwalk>

01004930 <__fp_lock_all>:
 1004930:	00804074 	movhi	r2,257
 1004934:	10824c04 	addi	r2,r2,2352
 1004938:	11000017 	ldw	r4,0(r2)
 100493c:	01404034 	movhi	r5,256
 1004940:	29524204 	addi	r5,r5,18696
 1004944:	10054941 	jmpi	1005494 <_fwalk>

01004948 <_cleanup_r>:
 1004948:	01404034 	movhi	r5,256
 100494c:	295f8204 	addi	r5,r5,32264
 1004950:	10054941 	jmpi	1005494 <_fwalk>

01004954 <_cleanup>:
 1004954:	00804074 	movhi	r2,257
 1004958:	10824d04 	addi	r2,r2,2356
 100495c:	11000017 	ldw	r4,0(r2)
 1004960:	10049481 	jmpi	1004948 <_cleanup_r>

01004964 <__sfmoreglue>:
 1004964:	defffc04 	addi	sp,sp,-16
 1004968:	dc000015 	stw	r16,0(sp)
 100496c:	2821883a 	mov	r16,r5
 1004970:	dc400115 	stw	r17,4(sp)
 1004974:	01401704 	movi	r5,92
 1004978:	2023883a 	mov	r17,r4
 100497c:	8009883a 	mov	r4,r16
 1004980:	dfc00315 	stw	ra,12(sp)
 1004984:	dcc00215 	stw	r19,8(sp)
 1004988:	1009f0c0 	call	1009f0c <__mulsi3>
 100498c:	11400304 	addi	r5,r2,12
 1004990:	8809883a 	mov	r4,r17
 1004994:	1027883a 	mov	r19,r2
 1004998:	10057a40 	call	10057a4 <_malloc_r>
 100499c:	10c00304 	addi	r3,r2,12
 10049a0:	1023883a 	mov	r17,r2
 10049a4:	1809883a 	mov	r4,r3
 10049a8:	980d883a 	mov	r6,r19
 10049ac:	000b883a 	mov	r5,zero
 10049b0:	10000b26 	beq	r2,zero,10049e0 <__sfmoreglue+0x7c>
 10049b4:	14000115 	stw	r16,4(r2)
 10049b8:	10c00215 	stw	r3,8(r2)
 10049bc:	10000015 	stw	zero,0(r2)
 10049c0:	10061480 	call	1006148 <memset>
 10049c4:	8805883a 	mov	r2,r17
 10049c8:	dfc00317 	ldw	ra,12(sp)
 10049cc:	dcc00217 	ldw	r19,8(sp)
 10049d0:	dc400117 	ldw	r17,4(sp)
 10049d4:	dc000017 	ldw	r16,0(sp)
 10049d8:	dec00404 	addi	sp,sp,16
 10049dc:	f800283a 	ret
 10049e0:	0023883a 	mov	r17,zero
 10049e4:	8805883a 	mov	r2,r17
 10049e8:	dfc00317 	ldw	ra,12(sp)
 10049ec:	dcc00217 	ldw	r19,8(sp)
 10049f0:	dc400117 	ldw	r17,4(sp)
 10049f4:	dc000017 	ldw	r16,0(sp)
 10049f8:	dec00404 	addi	sp,sp,16
 10049fc:	f800283a 	ret

01004a00 <__sfp>:
 1004a00:	defffd04 	addi	sp,sp,-12
 1004a04:	00804074 	movhi	r2,257
 1004a08:	10824d04 	addi	r2,r2,2356
 1004a0c:	dc000015 	stw	r16,0(sp)
 1004a10:	14000017 	ldw	r16,0(r2)
 1004a14:	dc400115 	stw	r17,4(sp)
 1004a18:	dfc00215 	stw	ra,8(sp)
 1004a1c:	80800e17 	ldw	r2,56(r16)
 1004a20:	2023883a 	mov	r17,r4
 1004a24:	10002626 	beq	r2,zero,1004ac0 <__sfp+0xc0>
 1004a28:	8400b804 	addi	r16,r16,736
 1004a2c:	80800117 	ldw	r2,4(r16)
 1004a30:	81000217 	ldw	r4,8(r16)
 1004a34:	10ffffc4 	addi	r3,r2,-1
 1004a38:	18000916 	blt	r3,zero,1004a60 <__sfp+0x60>
 1004a3c:	2080030f 	ldh	r2,12(r4)
 1004a40:	10000b26 	beq	r2,zero,1004a70 <__sfp+0x70>
 1004a44:	017fffc4 	movi	r5,-1
 1004a48:	00000206 	br	1004a54 <__sfp+0x54>
 1004a4c:	2080030f 	ldh	r2,12(r4)
 1004a50:	10000726 	beq	r2,zero,1004a70 <__sfp+0x70>
 1004a54:	18ffffc4 	addi	r3,r3,-1
 1004a58:	21001704 	addi	r4,r4,92
 1004a5c:	197ffb1e 	bne	r3,r5,1004a4c <__sfp+0x4c>
 1004a60:	80800017 	ldw	r2,0(r16)
 1004a64:	10001926 	beq	r2,zero,1004acc <__sfp+0xcc>
 1004a68:	1021883a 	mov	r16,r2
 1004a6c:	003fef06 	br	1004a2c <__sfp+0x2c>
 1004a70:	00bfffc4 	movi	r2,-1
 1004a74:	00c00044 	movi	r3,1
 1004a78:	2080038d 	sth	r2,14(r4)
 1004a7c:	20c0030d 	sth	r3,12(r4)
 1004a80:	20000015 	stw	zero,0(r4)
 1004a84:	20000215 	stw	zero,8(r4)
 1004a88:	20000115 	stw	zero,4(r4)
 1004a8c:	20000415 	stw	zero,16(r4)
 1004a90:	20000515 	stw	zero,20(r4)
 1004a94:	20000615 	stw	zero,24(r4)
 1004a98:	20000c15 	stw	zero,48(r4)
 1004a9c:	20000d15 	stw	zero,52(r4)
 1004aa0:	20001115 	stw	zero,68(r4)
 1004aa4:	20001215 	stw	zero,72(r4)
 1004aa8:	2005883a 	mov	r2,r4
 1004aac:	dfc00217 	ldw	ra,8(sp)
 1004ab0:	dc400117 	ldw	r17,4(sp)
 1004ab4:	dc000017 	ldw	r16,0(sp)
 1004ab8:	dec00304 	addi	sp,sp,12
 1004abc:	f800283a 	ret
 1004ac0:	8009883a 	mov	r4,r16
 1004ac4:	10048640 	call	1004864 <__sinit>
 1004ac8:	003fd706 	br	1004a28 <__sfp+0x28>
 1004acc:	8809883a 	mov	r4,r17
 1004ad0:	01400104 	movi	r5,4
 1004ad4:	10049640 	call	1004964 <__sfmoreglue>
 1004ad8:	80800015 	stw	r2,0(r16)
 1004adc:	103fe21e 	bne	r2,zero,1004a68 <__sfp+0x68>
 1004ae0:	00800304 	movi	r2,12
 1004ae4:	0009883a 	mov	r4,zero
 1004ae8:	88800015 	stw	r2,0(r17)
 1004aec:	003fee06 	br	1004aa8 <__sfp+0xa8>

01004af0 <_malloc_trim_r>:
 1004af0:	defffb04 	addi	sp,sp,-20
 1004af4:	dcc00315 	stw	r19,12(sp)
 1004af8:	04c04074 	movhi	r19,257
 1004afc:	9cfca104 	addi	r19,r19,-3452
 1004b00:	dc800215 	stw	r18,8(sp)
 1004b04:	dc400115 	stw	r17,4(sp)
 1004b08:	dc000015 	stw	r16,0(sp)
 1004b0c:	2823883a 	mov	r17,r5
 1004b10:	2025883a 	mov	r18,r4
 1004b14:	dfc00415 	stw	ra,16(sp)
 1004b18:	100ab6c0 	call	100ab6c <__malloc_lock>
 1004b1c:	98800217 	ldw	r2,8(r19)
 1004b20:	9009883a 	mov	r4,r18
 1004b24:	000b883a 	mov	r5,zero
 1004b28:	10c00117 	ldw	r3,4(r2)
 1004b2c:	00bfff04 	movi	r2,-4
 1004b30:	18a0703a 	and	r16,r3,r2
 1004b34:	8463c83a 	sub	r17,r16,r17
 1004b38:	8c43fbc4 	addi	r17,r17,4079
 1004b3c:	8822d33a 	srli	r17,r17,12
 1004b40:	0083ffc4 	movi	r2,4095
 1004b44:	8c7fffc4 	addi	r17,r17,-1
 1004b48:	8822933a 	slli	r17,r17,12
 1004b4c:	1440060e 	bge	r2,r17,1004b68 <_malloc_trim_r+0x78>
 1004b50:	10078d00 	call	10078d0 <_sbrk_r>
 1004b54:	98c00217 	ldw	r3,8(r19)
 1004b58:	9009883a 	mov	r4,r18
 1004b5c:	044bc83a 	sub	r5,zero,r17
 1004b60:	80c7883a 	add	r3,r16,r3
 1004b64:	10c00926 	beq	r2,r3,1004b8c <_malloc_trim_r+0x9c>
 1004b68:	100ab8c0 	call	100ab8c <__malloc_unlock>
 1004b6c:	0005883a 	mov	r2,zero
 1004b70:	dfc00417 	ldw	ra,16(sp)
 1004b74:	dcc00317 	ldw	r19,12(sp)
 1004b78:	dc800217 	ldw	r18,8(sp)
 1004b7c:	dc400117 	ldw	r17,4(sp)
 1004b80:	dc000017 	ldw	r16,0(sp)
 1004b84:	dec00504 	addi	sp,sp,20
 1004b88:	f800283a 	ret
 1004b8c:	9009883a 	mov	r4,r18
 1004b90:	10078d00 	call	10078d0 <_sbrk_r>
 1004b94:	844dc83a 	sub	r6,r16,r17
 1004b98:	00ffffc4 	movi	r3,-1
 1004b9c:	9009883a 	mov	r4,r18
 1004ba0:	000b883a 	mov	r5,zero
 1004ba4:	01c04074 	movhi	r7,257
 1004ba8:	39c92704 	addi	r7,r7,9372
 1004bac:	31800054 	ori	r6,r6,1
 1004bb0:	10c00926 	beq	r2,r3,1004bd8 <_malloc_trim_r+0xe8>
 1004bb4:	38800017 	ldw	r2,0(r7)
 1004bb8:	98c00217 	ldw	r3,8(r19)
 1004bbc:	9009883a 	mov	r4,r18
 1004bc0:	1445c83a 	sub	r2,r2,r17
 1004bc4:	38800015 	stw	r2,0(r7)
 1004bc8:	19800115 	stw	r6,4(r3)
 1004bcc:	100ab8c0 	call	100ab8c <__malloc_unlock>
 1004bd0:	00800044 	movi	r2,1
 1004bd4:	003fe606 	br	1004b70 <_malloc_trim_r+0x80>
 1004bd8:	10078d00 	call	10078d0 <_sbrk_r>
 1004bdc:	99800217 	ldw	r6,8(r19)
 1004be0:	100f883a 	mov	r7,r2
 1004be4:	9009883a 	mov	r4,r18
 1004be8:	1187c83a 	sub	r3,r2,r6
 1004bec:	008003c4 	movi	r2,15
 1004bf0:	19400054 	ori	r5,r3,1
 1004bf4:	10ffdc0e 	bge	r2,r3,1004b68 <_malloc_trim_r+0x78>
 1004bf8:	00804074 	movhi	r2,257
 1004bfc:	10825104 	addi	r2,r2,2372
 1004c00:	10c00017 	ldw	r3,0(r2)
 1004c04:	00804074 	movhi	r2,257
 1004c08:	10892704 	addi	r2,r2,9372
 1004c0c:	31400115 	stw	r5,4(r6)
 1004c10:	38c7c83a 	sub	r3,r7,r3
 1004c14:	10c00015 	stw	r3,0(r2)
 1004c18:	003fd306 	br	1004b68 <_malloc_trim_r+0x78>

01004c1c <_free_r>:
 1004c1c:	defffd04 	addi	sp,sp,-12
 1004c20:	dc400115 	stw	r17,4(sp)
 1004c24:	dc000015 	stw	r16,0(sp)
 1004c28:	dfc00215 	stw	ra,8(sp)
 1004c2c:	2821883a 	mov	r16,r5
 1004c30:	2023883a 	mov	r17,r4
 1004c34:	28005a26 	beq	r5,zero,1004da0 <_free_r+0x184>
 1004c38:	100ab6c0 	call	100ab6c <__malloc_lock>
 1004c3c:	823ffe04 	addi	r8,r16,-8
 1004c40:	41400117 	ldw	r5,4(r8)
 1004c44:	00bfff84 	movi	r2,-2
 1004c48:	02804074 	movhi	r10,257
 1004c4c:	52bca104 	addi	r10,r10,-3452
 1004c50:	288e703a 	and	r7,r5,r2
 1004c54:	41cd883a 	add	r6,r8,r7
 1004c58:	30c00117 	ldw	r3,4(r6)
 1004c5c:	51000217 	ldw	r4,8(r10)
 1004c60:	00bfff04 	movi	r2,-4
 1004c64:	1892703a 	and	r9,r3,r2
 1004c68:	5017883a 	mov	r11,r10
 1004c6c:	31006726 	beq	r6,r4,1004e0c <_free_r+0x1f0>
 1004c70:	2880004c 	andi	r2,r5,1
 1004c74:	1005003a 	cmpeq	r2,r2,zero
 1004c78:	32400115 	stw	r9,4(r6)
 1004c7c:	10001a1e 	bne	r2,zero,1004ce8 <_free_r+0xcc>
 1004c80:	000b883a 	mov	r5,zero
 1004c84:	3247883a 	add	r3,r6,r9
 1004c88:	18800117 	ldw	r2,4(r3)
 1004c8c:	1080004c 	andi	r2,r2,1
 1004c90:	1000231e 	bne	r2,zero,1004d20 <_free_r+0x104>
 1004c94:	280ac03a 	cmpne	r5,r5,zero
 1004c98:	3a4f883a 	add	r7,r7,r9
 1004c9c:	2800451e 	bne	r5,zero,1004db4 <_free_r+0x198>
 1004ca0:	31000217 	ldw	r4,8(r6)
 1004ca4:	00804074 	movhi	r2,257
 1004ca8:	10bca304 	addi	r2,r2,-3444
 1004cac:	20807b26 	beq	r4,r2,1004e9c <_free_r+0x280>
 1004cb0:	30800317 	ldw	r2,12(r6)
 1004cb4:	3a07883a 	add	r3,r7,r8
 1004cb8:	19c00015 	stw	r7,0(r3)
 1004cbc:	11000215 	stw	r4,8(r2)
 1004cc0:	20800315 	stw	r2,12(r4)
 1004cc4:	38800054 	ori	r2,r7,1
 1004cc8:	40800115 	stw	r2,4(r8)
 1004ccc:	28001a26 	beq	r5,zero,1004d38 <_free_r+0x11c>
 1004cd0:	8809883a 	mov	r4,r17
 1004cd4:	dfc00217 	ldw	ra,8(sp)
 1004cd8:	dc400117 	ldw	r17,4(sp)
 1004cdc:	dc000017 	ldw	r16,0(sp)
 1004ce0:	dec00304 	addi	sp,sp,12
 1004ce4:	100ab8c1 	jmpi	100ab8c <__malloc_unlock>
 1004ce8:	80bffe17 	ldw	r2,-8(r16)
 1004cec:	50c00204 	addi	r3,r10,8
 1004cf0:	4091c83a 	sub	r8,r8,r2
 1004cf4:	41000217 	ldw	r4,8(r8)
 1004cf8:	388f883a 	add	r7,r7,r2
 1004cfc:	20c06126 	beq	r4,r3,1004e84 <_free_r+0x268>
 1004d00:	40800317 	ldw	r2,12(r8)
 1004d04:	3247883a 	add	r3,r6,r9
 1004d08:	000b883a 	mov	r5,zero
 1004d0c:	11000215 	stw	r4,8(r2)
 1004d10:	20800315 	stw	r2,12(r4)
 1004d14:	18800117 	ldw	r2,4(r3)
 1004d18:	1080004c 	andi	r2,r2,1
 1004d1c:	103fdd26 	beq	r2,zero,1004c94 <_free_r+0x78>
 1004d20:	38800054 	ori	r2,r7,1
 1004d24:	3a07883a 	add	r3,r7,r8
 1004d28:	280ac03a 	cmpne	r5,r5,zero
 1004d2c:	40800115 	stw	r2,4(r8)
 1004d30:	19c00015 	stw	r7,0(r3)
 1004d34:	283fe61e 	bne	r5,zero,1004cd0 <_free_r+0xb4>
 1004d38:	00807fc4 	movi	r2,511
 1004d3c:	11c01f2e 	bgeu	r2,r7,1004dbc <_free_r+0x1a0>
 1004d40:	3806d27a 	srli	r3,r7,9
 1004d44:	1800481e 	bne	r3,zero,1004e68 <_free_r+0x24c>
 1004d48:	3804d0fa 	srli	r2,r7,3
 1004d4c:	100690fa 	slli	r3,r2,3
 1004d50:	1acd883a 	add	r6,r3,r11
 1004d54:	31400217 	ldw	r5,8(r6)
 1004d58:	31405926 	beq	r6,r5,1004ec0 <_free_r+0x2a4>
 1004d5c:	28800117 	ldw	r2,4(r5)
 1004d60:	00ffff04 	movi	r3,-4
 1004d64:	10c4703a 	and	r2,r2,r3
 1004d68:	3880022e 	bgeu	r7,r2,1004d74 <_free_r+0x158>
 1004d6c:	29400217 	ldw	r5,8(r5)
 1004d70:	317ffa1e 	bne	r6,r5,1004d5c <_free_r+0x140>
 1004d74:	29800317 	ldw	r6,12(r5)
 1004d78:	41800315 	stw	r6,12(r8)
 1004d7c:	41400215 	stw	r5,8(r8)
 1004d80:	8809883a 	mov	r4,r17
 1004d84:	2a000315 	stw	r8,12(r5)
 1004d88:	32000215 	stw	r8,8(r6)
 1004d8c:	dfc00217 	ldw	ra,8(sp)
 1004d90:	dc400117 	ldw	r17,4(sp)
 1004d94:	dc000017 	ldw	r16,0(sp)
 1004d98:	dec00304 	addi	sp,sp,12
 1004d9c:	100ab8c1 	jmpi	100ab8c <__malloc_unlock>
 1004da0:	dfc00217 	ldw	ra,8(sp)
 1004da4:	dc400117 	ldw	r17,4(sp)
 1004da8:	dc000017 	ldw	r16,0(sp)
 1004dac:	dec00304 	addi	sp,sp,12
 1004db0:	f800283a 	ret
 1004db4:	31000217 	ldw	r4,8(r6)
 1004db8:	003fbd06 	br	1004cb0 <_free_r+0x94>
 1004dbc:	3806d0fa 	srli	r3,r7,3
 1004dc0:	00800044 	movi	r2,1
 1004dc4:	51400117 	ldw	r5,4(r10)
 1004dc8:	180890fa 	slli	r4,r3,3
 1004dcc:	1807d0ba 	srai	r3,r3,2
 1004dd0:	22c9883a 	add	r4,r4,r11
 1004dd4:	21800217 	ldw	r6,8(r4)
 1004dd8:	10c4983a 	sll	r2,r2,r3
 1004ddc:	41000315 	stw	r4,12(r8)
 1004de0:	41800215 	stw	r6,8(r8)
 1004de4:	288ab03a 	or	r5,r5,r2
 1004de8:	22000215 	stw	r8,8(r4)
 1004dec:	8809883a 	mov	r4,r17
 1004df0:	51400115 	stw	r5,4(r10)
 1004df4:	32000315 	stw	r8,12(r6)
 1004df8:	dfc00217 	ldw	ra,8(sp)
 1004dfc:	dc400117 	ldw	r17,4(sp)
 1004e00:	dc000017 	ldw	r16,0(sp)
 1004e04:	dec00304 	addi	sp,sp,12
 1004e08:	100ab8c1 	jmpi	100ab8c <__malloc_unlock>
 1004e0c:	2880004c 	andi	r2,r5,1
 1004e10:	3a4d883a 	add	r6,r7,r9
 1004e14:	1000071e 	bne	r2,zero,1004e34 <_free_r+0x218>
 1004e18:	80bffe17 	ldw	r2,-8(r16)
 1004e1c:	4091c83a 	sub	r8,r8,r2
 1004e20:	41000317 	ldw	r4,12(r8)
 1004e24:	40c00217 	ldw	r3,8(r8)
 1004e28:	308d883a 	add	r6,r6,r2
 1004e2c:	20c00215 	stw	r3,8(r4)
 1004e30:	19000315 	stw	r4,12(r3)
 1004e34:	00804074 	movhi	r2,257
 1004e38:	10825004 	addi	r2,r2,2368
 1004e3c:	11000017 	ldw	r4,0(r2)
 1004e40:	30c00054 	ori	r3,r6,1
 1004e44:	52000215 	stw	r8,8(r10)
 1004e48:	40c00115 	stw	r3,4(r8)
 1004e4c:	313fa036 	bltu	r6,r4,1004cd0 <_free_r+0xb4>
 1004e50:	00804074 	movhi	r2,257
 1004e54:	10891d04 	addi	r2,r2,9332
 1004e58:	11400017 	ldw	r5,0(r2)
 1004e5c:	8809883a 	mov	r4,r17
 1004e60:	1004af00 	call	1004af0 <_malloc_trim_r>
 1004e64:	003f9a06 	br	1004cd0 <_free_r+0xb4>
 1004e68:	00800104 	movi	r2,4
 1004e6c:	10c0072e 	bgeu	r2,r3,1004e8c <_free_r+0x270>
 1004e70:	00800504 	movi	r2,20
 1004e74:	10c01936 	bltu	r2,r3,1004edc <_free_r+0x2c0>
 1004e78:	188016c4 	addi	r2,r3,91
 1004e7c:	100690fa 	slli	r3,r2,3
 1004e80:	003fb306 	br	1004d50 <_free_r+0x134>
 1004e84:	01400044 	movi	r5,1
 1004e88:	003f7e06 	br	1004c84 <_free_r+0x68>
 1004e8c:	3804d1ba 	srli	r2,r7,6
 1004e90:	10800e04 	addi	r2,r2,56
 1004e94:	100690fa 	slli	r3,r2,3
 1004e98:	003fad06 	br	1004d50 <_free_r+0x134>
 1004e9c:	22000315 	stw	r8,12(r4)
 1004ea0:	22000215 	stw	r8,8(r4)
 1004ea4:	3a05883a 	add	r2,r7,r8
 1004ea8:	38c00054 	ori	r3,r7,1
 1004eac:	11c00015 	stw	r7,0(r2)
 1004eb0:	41000215 	stw	r4,8(r8)
 1004eb4:	40c00115 	stw	r3,4(r8)
 1004eb8:	41000315 	stw	r4,12(r8)
 1004ebc:	003f8406 	br	1004cd0 <_free_r+0xb4>
 1004ec0:	1005d0ba 	srai	r2,r2,2
 1004ec4:	00c00044 	movi	r3,1
 1004ec8:	51000117 	ldw	r4,4(r10)
 1004ecc:	1886983a 	sll	r3,r3,r2
 1004ed0:	20c8b03a 	or	r4,r4,r3
 1004ed4:	51000115 	stw	r4,4(r10)
 1004ed8:	003fa706 	br	1004d78 <_free_r+0x15c>
 1004edc:	00801504 	movi	r2,84
 1004ee0:	10c00436 	bltu	r2,r3,1004ef4 <_free_r+0x2d8>
 1004ee4:	3804d33a 	srli	r2,r7,12
 1004ee8:	10801b84 	addi	r2,r2,110
 1004eec:	100690fa 	slli	r3,r2,3
 1004ef0:	003f9706 	br	1004d50 <_free_r+0x134>
 1004ef4:	00805504 	movi	r2,340
 1004ef8:	10c00436 	bltu	r2,r3,1004f0c <_free_r+0x2f0>
 1004efc:	3804d3fa 	srli	r2,r7,15
 1004f00:	10801dc4 	addi	r2,r2,119
 1004f04:	100690fa 	slli	r3,r2,3
 1004f08:	003f9106 	br	1004d50 <_free_r+0x134>
 1004f0c:	00815504 	movi	r2,1364
 1004f10:	10c0032e 	bgeu	r2,r3,1004f20 <_free_r+0x304>
 1004f14:	00801f84 	movi	r2,126
 1004f18:	00c0fc04 	movi	r3,1008
 1004f1c:	003f8c06 	br	1004d50 <_free_r+0x134>
 1004f20:	3804d4ba 	srli	r2,r7,18
 1004f24:	10801f04 	addi	r2,r2,124
 1004f28:	100690fa 	slli	r3,r2,3
 1004f2c:	003f8806 	br	1004d50 <_free_r+0x134>

01004f30 <__sfvwrite_r>:
 1004f30:	30800217 	ldw	r2,8(r6)
 1004f34:	defff504 	addi	sp,sp,-44
 1004f38:	df000915 	stw	fp,36(sp)
 1004f3c:	dd800715 	stw	r22,28(sp)
 1004f40:	dc800315 	stw	r18,12(sp)
 1004f44:	dfc00a15 	stw	ra,40(sp)
 1004f48:	ddc00815 	stw	r23,32(sp)
 1004f4c:	dd400615 	stw	r21,24(sp)
 1004f50:	dd000515 	stw	r20,20(sp)
 1004f54:	dcc00415 	stw	r19,16(sp)
 1004f58:	dc400215 	stw	r17,8(sp)
 1004f5c:	dc000115 	stw	r16,4(sp)
 1004f60:	302d883a 	mov	r22,r6
 1004f64:	2039883a 	mov	fp,r4
 1004f68:	2825883a 	mov	r18,r5
 1004f6c:	10001c26 	beq	r2,zero,1004fe0 <__sfvwrite_r+0xb0>
 1004f70:	29c0030b 	ldhu	r7,12(r5)
 1004f74:	3880020c 	andi	r2,r7,8
 1004f78:	10002726 	beq	r2,zero,1005018 <__sfvwrite_r+0xe8>
 1004f7c:	28800417 	ldw	r2,16(r5)
 1004f80:	10002526 	beq	r2,zero,1005018 <__sfvwrite_r+0xe8>
 1004f84:	3880008c 	andi	r2,r7,2
 1004f88:	b5400017 	ldw	r21,0(r22)
 1004f8c:	10002826 	beq	r2,zero,1005030 <__sfvwrite_r+0x100>
 1004f90:	0021883a 	mov	r16,zero
 1004f94:	0023883a 	mov	r17,zero
 1004f98:	880d883a 	mov	r6,r17
 1004f9c:	e009883a 	mov	r4,fp
 1004fa0:	00810004 	movi	r2,1024
 1004fa4:	80006e26 	beq	r16,zero,1005160 <__sfvwrite_r+0x230>
 1004fa8:	800f883a 	mov	r7,r16
 1004fac:	91400717 	ldw	r5,28(r18)
 1004fb0:	1400012e 	bgeu	r2,r16,1004fb8 <__sfvwrite_r+0x88>
 1004fb4:	100f883a 	mov	r7,r2
 1004fb8:	90c00917 	ldw	r3,36(r18)
 1004fbc:	183ee83a 	callr	r3
 1004fc0:	1007883a 	mov	r3,r2
 1004fc4:	80a1c83a 	sub	r16,r16,r2
 1004fc8:	88a3883a 	add	r17,r17,r2
 1004fcc:	00806d0e 	bge	zero,r2,1005184 <__sfvwrite_r+0x254>
 1004fd0:	b0800217 	ldw	r2,8(r22)
 1004fd4:	10c5c83a 	sub	r2,r2,r3
 1004fd8:	b0800215 	stw	r2,8(r22)
 1004fdc:	103fee1e 	bne	r2,zero,1004f98 <__sfvwrite_r+0x68>
 1004fe0:	0009883a 	mov	r4,zero
 1004fe4:	2005883a 	mov	r2,r4
 1004fe8:	dfc00a17 	ldw	ra,40(sp)
 1004fec:	df000917 	ldw	fp,36(sp)
 1004ff0:	ddc00817 	ldw	r23,32(sp)
 1004ff4:	dd800717 	ldw	r22,28(sp)
 1004ff8:	dd400617 	ldw	r21,24(sp)
 1004ffc:	dd000517 	ldw	r20,20(sp)
 1005000:	dcc00417 	ldw	r19,16(sp)
 1005004:	dc800317 	ldw	r18,12(sp)
 1005008:	dc400217 	ldw	r17,8(sp)
 100500c:	dc000117 	ldw	r16,4(sp)
 1005010:	dec00b04 	addi	sp,sp,44
 1005014:	f800283a 	ret
 1005018:	1002c980 	call	1002c98 <__swsetup_r>
 100501c:	1000e41e 	bne	r2,zero,10053b0 <__sfvwrite_r+0x480>
 1005020:	91c0030b 	ldhu	r7,12(r18)
 1005024:	b5400017 	ldw	r21,0(r22)
 1005028:	3880008c 	andi	r2,r7,2
 100502c:	103fd81e 	bne	r2,zero,1004f90 <__sfvwrite_r+0x60>
 1005030:	3880004c 	andi	r2,r7,1
 1005034:	1005003a 	cmpeq	r2,r2,zero
 1005038:	10005726 	beq	r2,zero,1005198 <__sfvwrite_r+0x268>
 100503c:	0029883a 	mov	r20,zero
 1005040:	002f883a 	mov	r23,zero
 1005044:	a0004226 	beq	r20,zero,1005150 <__sfvwrite_r+0x220>
 1005048:	3880800c 	andi	r2,r7,512
 100504c:	94000217 	ldw	r16,8(r18)
 1005050:	10008b26 	beq	r2,zero,1005280 <__sfvwrite_r+0x350>
 1005054:	800d883a 	mov	r6,r16
 1005058:	a400a536 	bltu	r20,r16,10052f0 <__sfvwrite_r+0x3c0>
 100505c:	3881200c 	andi	r2,r7,1152
 1005060:	10002726 	beq	r2,zero,1005100 <__sfvwrite_r+0x1d0>
 1005064:	90800517 	ldw	r2,20(r18)
 1005068:	92000417 	ldw	r8,16(r18)
 100506c:	91400017 	ldw	r5,0(r18)
 1005070:	1087883a 	add	r3,r2,r2
 1005074:	1887883a 	add	r3,r3,r2
 1005078:	1808d7fa 	srli	r4,r3,31
 100507c:	2a21c83a 	sub	r16,r5,r8
 1005080:	80800044 	addi	r2,r16,1
 1005084:	20c9883a 	add	r4,r4,r3
 1005088:	2027d07a 	srai	r19,r4,1
 100508c:	a085883a 	add	r2,r20,r2
 1005090:	980d883a 	mov	r6,r19
 1005094:	9880022e 	bgeu	r19,r2,10050a0 <__sfvwrite_r+0x170>
 1005098:	1027883a 	mov	r19,r2
 100509c:	100d883a 	mov	r6,r2
 10050a0:	3881000c 	andi	r2,r7,1024
 10050a4:	1000b826 	beq	r2,zero,1005388 <__sfvwrite_r+0x458>
 10050a8:	300b883a 	mov	r5,r6
 10050ac:	e009883a 	mov	r4,fp
 10050b0:	10057a40 	call	10057a4 <_malloc_r>
 10050b4:	10003126 	beq	r2,zero,100517c <__sfvwrite_r+0x24c>
 10050b8:	91400417 	ldw	r5,16(r18)
 10050bc:	1009883a 	mov	r4,r2
 10050c0:	800d883a 	mov	r6,r16
 10050c4:	1023883a 	mov	r17,r2
 10050c8:	1005fc80 	call	1005fc8 <memcpy>
 10050cc:	90c0030b 	ldhu	r3,12(r18)
 10050d0:	00beffc4 	movi	r2,-1025
 10050d4:	1886703a 	and	r3,r3,r2
 10050d8:	18c02014 	ori	r3,r3,128
 10050dc:	90c0030d 	sth	r3,12(r18)
 10050e0:	9c07c83a 	sub	r3,r19,r16
 10050e4:	8c05883a 	add	r2,r17,r16
 10050e8:	a00d883a 	mov	r6,r20
 10050ec:	a021883a 	mov	r16,r20
 10050f0:	90800015 	stw	r2,0(r18)
 10050f4:	90c00215 	stw	r3,8(r18)
 10050f8:	94400415 	stw	r17,16(r18)
 10050fc:	94c00515 	stw	r19,20(r18)
 1005100:	91000017 	ldw	r4,0(r18)
 1005104:	b80b883a 	mov	r5,r23
 1005108:	a023883a 	mov	r17,r20
 100510c:	10060680 	call	1006068 <memmove>
 1005110:	90c00217 	ldw	r3,8(r18)
 1005114:	90800017 	ldw	r2,0(r18)
 1005118:	a027883a 	mov	r19,r20
 100511c:	1c07c83a 	sub	r3,r3,r16
 1005120:	1405883a 	add	r2,r2,r16
 1005124:	90c00215 	stw	r3,8(r18)
 1005128:	a021883a 	mov	r16,r20
 100512c:	90800015 	stw	r2,0(r18)
 1005130:	b0800217 	ldw	r2,8(r22)
 1005134:	1405c83a 	sub	r2,r2,r16
 1005138:	b0800215 	stw	r2,8(r22)
 100513c:	103fa826 	beq	r2,zero,1004fe0 <__sfvwrite_r+0xb0>
 1005140:	a469c83a 	sub	r20,r20,r17
 1005144:	91c0030b 	ldhu	r7,12(r18)
 1005148:	bcef883a 	add	r23,r23,r19
 100514c:	a03fbe1e 	bne	r20,zero,1005048 <__sfvwrite_r+0x118>
 1005150:	adc00017 	ldw	r23,0(r21)
 1005154:	ad000117 	ldw	r20,4(r21)
 1005158:	ad400204 	addi	r21,r21,8
 100515c:	003fb906 	br	1005044 <__sfvwrite_r+0x114>
 1005160:	ac400017 	ldw	r17,0(r21)
 1005164:	ac000117 	ldw	r16,4(r21)
 1005168:	ad400204 	addi	r21,r21,8
 100516c:	003f8a06 	br	1004f98 <__sfvwrite_r+0x68>
 1005170:	91400417 	ldw	r5,16(r18)
 1005174:	e009883a 	mov	r4,fp
 1005178:	1004c1c0 	call	1004c1c <_free_r>
 100517c:	00800304 	movi	r2,12
 1005180:	e0800015 	stw	r2,0(fp)
 1005184:	9080030b 	ldhu	r2,12(r18)
 1005188:	013fffc4 	movi	r4,-1
 100518c:	10801014 	ori	r2,r2,64
 1005190:	9080030d 	sth	r2,12(r18)
 1005194:	003f9306 	br	1004fe4 <__sfvwrite_r+0xb4>
 1005198:	0027883a 	mov	r19,zero
 100519c:	002f883a 	mov	r23,zero
 10051a0:	d8000015 	stw	zero,0(sp)
 10051a4:	0029883a 	mov	r20,zero
 10051a8:	98001e26 	beq	r19,zero,1005224 <__sfvwrite_r+0x2f4>
 10051ac:	d8c00017 	ldw	r3,0(sp)
 10051b0:	1804c03a 	cmpne	r2,r3,zero
 10051b4:	10005e26 	beq	r2,zero,1005330 <__sfvwrite_r+0x400>
 10051b8:	9821883a 	mov	r16,r19
 10051bc:	a4c0012e 	bgeu	r20,r19,10051c4 <__sfvwrite_r+0x294>
 10051c0:	a021883a 	mov	r16,r20
 10051c4:	91000017 	ldw	r4,0(r18)
 10051c8:	90800417 	ldw	r2,16(r18)
 10051cc:	91800217 	ldw	r6,8(r18)
 10051d0:	91c00517 	ldw	r7,20(r18)
 10051d4:	1100022e 	bgeu	r2,r4,10051e0 <__sfvwrite_r+0x2b0>
 10051d8:	31e3883a 	add	r17,r6,r7
 10051dc:	8c001616 	blt	r17,r16,1005238 <__sfvwrite_r+0x308>
 10051e0:	81c03816 	blt	r16,r7,10052c4 <__sfvwrite_r+0x394>
 10051e4:	90c00917 	ldw	r3,36(r18)
 10051e8:	91400717 	ldw	r5,28(r18)
 10051ec:	e009883a 	mov	r4,fp
 10051f0:	b80d883a 	mov	r6,r23
 10051f4:	183ee83a 	callr	r3
 10051f8:	1023883a 	mov	r17,r2
 10051fc:	00bfe10e 	bge	zero,r2,1005184 <__sfvwrite_r+0x254>
 1005200:	a469c83a 	sub	r20,r20,r17
 1005204:	a0001826 	beq	r20,zero,1005268 <__sfvwrite_r+0x338>
 1005208:	b0800217 	ldw	r2,8(r22)
 100520c:	1445c83a 	sub	r2,r2,r17
 1005210:	b0800215 	stw	r2,8(r22)
 1005214:	103f7226 	beq	r2,zero,1004fe0 <__sfvwrite_r+0xb0>
 1005218:	9c67c83a 	sub	r19,r19,r17
 100521c:	bc6f883a 	add	r23,r23,r17
 1005220:	983fe21e 	bne	r19,zero,10051ac <__sfvwrite_r+0x27c>
 1005224:	adc00017 	ldw	r23,0(r21)
 1005228:	acc00117 	ldw	r19,4(r21)
 100522c:	ad400204 	addi	r21,r21,8
 1005230:	d8000015 	stw	zero,0(sp)
 1005234:	003fdc06 	br	10051a8 <__sfvwrite_r+0x278>
 1005238:	b80b883a 	mov	r5,r23
 100523c:	880d883a 	mov	r6,r17
 1005240:	10060680 	call	1006068 <memmove>
 1005244:	90c00017 	ldw	r3,0(r18)
 1005248:	e009883a 	mov	r4,fp
 100524c:	900b883a 	mov	r5,r18
 1005250:	1c47883a 	add	r3,r3,r17
 1005254:	90c00015 	stw	r3,0(r18)
 1005258:	10045cc0 	call	10045cc <_fflush_r>
 100525c:	103fc91e 	bne	r2,zero,1005184 <__sfvwrite_r+0x254>
 1005260:	a469c83a 	sub	r20,r20,r17
 1005264:	a03fe81e 	bne	r20,zero,1005208 <__sfvwrite_r+0x2d8>
 1005268:	e009883a 	mov	r4,fp
 100526c:	900b883a 	mov	r5,r18
 1005270:	10045cc0 	call	10045cc <_fflush_r>
 1005274:	103fc31e 	bne	r2,zero,1005184 <__sfvwrite_r+0x254>
 1005278:	d8000015 	stw	zero,0(sp)
 100527c:	003fe206 	br	1005208 <__sfvwrite_r+0x2d8>
 1005280:	91000017 	ldw	r4,0(r18)
 1005284:	90800417 	ldw	r2,16(r18)
 1005288:	1100022e 	bgeu	r2,r4,1005294 <__sfvwrite_r+0x364>
 100528c:	8023883a 	mov	r17,r16
 1005290:	85003136 	bltu	r16,r20,1005358 <__sfvwrite_r+0x428>
 1005294:	91c00517 	ldw	r7,20(r18)
 1005298:	a1c01836 	bltu	r20,r7,10052fc <__sfvwrite_r+0x3cc>
 100529c:	90c00917 	ldw	r3,36(r18)
 10052a0:	91400717 	ldw	r5,28(r18)
 10052a4:	e009883a 	mov	r4,fp
 10052a8:	b80d883a 	mov	r6,r23
 10052ac:	183ee83a 	callr	r3
 10052b0:	1021883a 	mov	r16,r2
 10052b4:	00bfb30e 	bge	zero,r2,1005184 <__sfvwrite_r+0x254>
 10052b8:	1023883a 	mov	r17,r2
 10052bc:	1027883a 	mov	r19,r2
 10052c0:	003f9b06 	br	1005130 <__sfvwrite_r+0x200>
 10052c4:	b80b883a 	mov	r5,r23
 10052c8:	800d883a 	mov	r6,r16
 10052cc:	10060680 	call	1006068 <memmove>
 10052d0:	90c00217 	ldw	r3,8(r18)
 10052d4:	90800017 	ldw	r2,0(r18)
 10052d8:	8023883a 	mov	r17,r16
 10052dc:	1c07c83a 	sub	r3,r3,r16
 10052e0:	1405883a 	add	r2,r2,r16
 10052e4:	90c00215 	stw	r3,8(r18)
 10052e8:	90800015 	stw	r2,0(r18)
 10052ec:	003fc406 	br	1005200 <__sfvwrite_r+0x2d0>
 10052f0:	a00d883a 	mov	r6,r20
 10052f4:	a021883a 	mov	r16,r20
 10052f8:	003f8106 	br	1005100 <__sfvwrite_r+0x1d0>
 10052fc:	b80b883a 	mov	r5,r23
 1005300:	a00d883a 	mov	r6,r20
 1005304:	10060680 	call	1006068 <memmove>
 1005308:	90c00217 	ldw	r3,8(r18)
 100530c:	90800017 	ldw	r2,0(r18)
 1005310:	a021883a 	mov	r16,r20
 1005314:	1d07c83a 	sub	r3,r3,r20
 1005318:	1505883a 	add	r2,r2,r20
 100531c:	a023883a 	mov	r17,r20
 1005320:	a027883a 	mov	r19,r20
 1005324:	90c00215 	stw	r3,8(r18)
 1005328:	90800015 	stw	r2,0(r18)
 100532c:	003f8006 	br	1005130 <__sfvwrite_r+0x200>
 1005330:	b809883a 	mov	r4,r23
 1005334:	01400284 	movi	r5,10
 1005338:	980d883a 	mov	r6,r19
 100533c:	1005ee40 	call	1005ee4 <memchr>
 1005340:	10001726 	beq	r2,zero,10053a0 <__sfvwrite_r+0x470>
 1005344:	15c5c83a 	sub	r2,r2,r23
 1005348:	15000044 	addi	r20,r2,1
 100534c:	00800044 	movi	r2,1
 1005350:	d8800015 	stw	r2,0(sp)
 1005354:	003f9806 	br	10051b8 <__sfvwrite_r+0x288>
 1005358:	b80b883a 	mov	r5,r23
 100535c:	800d883a 	mov	r6,r16
 1005360:	10060680 	call	1006068 <memmove>
 1005364:	90c00017 	ldw	r3,0(r18)
 1005368:	e009883a 	mov	r4,fp
 100536c:	900b883a 	mov	r5,r18
 1005370:	1c07883a 	add	r3,r3,r16
 1005374:	90c00015 	stw	r3,0(r18)
 1005378:	8027883a 	mov	r19,r16
 100537c:	10045cc0 	call	10045cc <_fflush_r>
 1005380:	103f6b26 	beq	r2,zero,1005130 <__sfvwrite_r+0x200>
 1005384:	003f7f06 	br	1005184 <__sfvwrite_r+0x254>
 1005388:	400b883a 	mov	r5,r8
 100538c:	e009883a 	mov	r4,fp
 1005390:	100726c0 	call	100726c <_realloc_r>
 1005394:	103f7626 	beq	r2,zero,1005170 <__sfvwrite_r+0x240>
 1005398:	1023883a 	mov	r17,r2
 100539c:	003f5006 	br	10050e0 <__sfvwrite_r+0x1b0>
 10053a0:	00c00044 	movi	r3,1
 10053a4:	9d000044 	addi	r20,r19,1
 10053a8:	d8c00015 	stw	r3,0(sp)
 10053ac:	003f8206 	br	10051b8 <__sfvwrite_r+0x288>
 10053b0:	9080030b 	ldhu	r2,12(r18)
 10053b4:	00c00244 	movi	r3,9
 10053b8:	013fffc4 	movi	r4,-1
 10053bc:	10801014 	ori	r2,r2,64
 10053c0:	9080030d 	sth	r2,12(r18)
 10053c4:	e0c00015 	stw	r3,0(fp)
 10053c8:	003f0606 	br	1004fe4 <__sfvwrite_r+0xb4>

010053cc <_fwalk_reent>:
 10053cc:	defff704 	addi	sp,sp,-36
 10053d0:	dcc00315 	stw	r19,12(sp)
 10053d4:	24c0b804 	addi	r19,r4,736
 10053d8:	dd800615 	stw	r22,24(sp)
 10053dc:	dd400515 	stw	r21,20(sp)
 10053e0:	dfc00815 	stw	ra,32(sp)
 10053e4:	ddc00715 	stw	r23,28(sp)
 10053e8:	dd000415 	stw	r20,16(sp)
 10053ec:	dc800215 	stw	r18,8(sp)
 10053f0:	dc400115 	stw	r17,4(sp)
 10053f4:	dc000015 	stw	r16,0(sp)
 10053f8:	202b883a 	mov	r21,r4
 10053fc:	282d883a 	mov	r22,r5
 1005400:	10048540 	call	1004854 <__sfp_lock_acquire>
 1005404:	98002126 	beq	r19,zero,100548c <_fwalk_reent+0xc0>
 1005408:	002f883a 	mov	r23,zero
 100540c:	9c800117 	ldw	r18,4(r19)
 1005410:	9c000217 	ldw	r16,8(r19)
 1005414:	90bfffc4 	addi	r2,r18,-1
 1005418:	10000d16 	blt	r2,zero,1005450 <_fwalk_reent+0x84>
 100541c:	0023883a 	mov	r17,zero
 1005420:	053fffc4 	movi	r20,-1
 1005424:	8080030f 	ldh	r2,12(r16)
 1005428:	8c400044 	addi	r17,r17,1
 100542c:	10000626 	beq	r2,zero,1005448 <_fwalk_reent+0x7c>
 1005430:	8080038f 	ldh	r2,14(r16)
 1005434:	800b883a 	mov	r5,r16
 1005438:	a809883a 	mov	r4,r21
 100543c:	15000226 	beq	r2,r20,1005448 <_fwalk_reent+0x7c>
 1005440:	b03ee83a 	callr	r22
 1005444:	b8aeb03a 	or	r23,r23,r2
 1005448:	84001704 	addi	r16,r16,92
 100544c:	947ff51e 	bne	r18,r17,1005424 <_fwalk_reent+0x58>
 1005450:	9cc00017 	ldw	r19,0(r19)
 1005454:	983fed1e 	bne	r19,zero,100540c <_fwalk_reent+0x40>
 1005458:	10048580 	call	1004858 <__sfp_lock_release>
 100545c:	b805883a 	mov	r2,r23
 1005460:	dfc00817 	ldw	ra,32(sp)
 1005464:	ddc00717 	ldw	r23,28(sp)
 1005468:	dd800617 	ldw	r22,24(sp)
 100546c:	dd400517 	ldw	r21,20(sp)
 1005470:	dd000417 	ldw	r20,16(sp)
 1005474:	dcc00317 	ldw	r19,12(sp)
 1005478:	dc800217 	ldw	r18,8(sp)
 100547c:	dc400117 	ldw	r17,4(sp)
 1005480:	dc000017 	ldw	r16,0(sp)
 1005484:	dec00904 	addi	sp,sp,36
 1005488:	f800283a 	ret
 100548c:	002f883a 	mov	r23,zero
 1005490:	003ff106 	br	1005458 <_fwalk_reent+0x8c>

01005494 <_fwalk>:
 1005494:	defff804 	addi	sp,sp,-32
 1005498:	dcc00315 	stw	r19,12(sp)
 100549c:	24c0b804 	addi	r19,r4,736
 10054a0:	dd400515 	stw	r21,20(sp)
 10054a4:	dfc00715 	stw	ra,28(sp)
 10054a8:	dd800615 	stw	r22,24(sp)
 10054ac:	dd000415 	stw	r20,16(sp)
 10054b0:	dc800215 	stw	r18,8(sp)
 10054b4:	dc400115 	stw	r17,4(sp)
 10054b8:	dc000015 	stw	r16,0(sp)
 10054bc:	282b883a 	mov	r21,r5
 10054c0:	10048540 	call	1004854 <__sfp_lock_acquire>
 10054c4:	98001f26 	beq	r19,zero,1005544 <_fwalk+0xb0>
 10054c8:	002d883a 	mov	r22,zero
 10054cc:	9c800117 	ldw	r18,4(r19)
 10054d0:	9c000217 	ldw	r16,8(r19)
 10054d4:	90bfffc4 	addi	r2,r18,-1
 10054d8:	10000c16 	blt	r2,zero,100550c <_fwalk+0x78>
 10054dc:	0023883a 	mov	r17,zero
 10054e0:	053fffc4 	movi	r20,-1
 10054e4:	8080030f 	ldh	r2,12(r16)
 10054e8:	8c400044 	addi	r17,r17,1
 10054ec:	10000526 	beq	r2,zero,1005504 <_fwalk+0x70>
 10054f0:	8080038f 	ldh	r2,14(r16)
 10054f4:	8009883a 	mov	r4,r16
 10054f8:	15000226 	beq	r2,r20,1005504 <_fwalk+0x70>
 10054fc:	a83ee83a 	callr	r21
 1005500:	b0acb03a 	or	r22,r22,r2
 1005504:	84001704 	addi	r16,r16,92
 1005508:	947ff61e 	bne	r18,r17,10054e4 <_fwalk+0x50>
 100550c:	9cc00017 	ldw	r19,0(r19)
 1005510:	983fee1e 	bne	r19,zero,10054cc <_fwalk+0x38>
 1005514:	10048580 	call	1004858 <__sfp_lock_release>
 1005518:	b005883a 	mov	r2,r22
 100551c:	dfc00717 	ldw	ra,28(sp)
 1005520:	dd800617 	ldw	r22,24(sp)
 1005524:	dd400517 	ldw	r21,20(sp)
 1005528:	dd000417 	ldw	r20,16(sp)
 100552c:	dcc00317 	ldw	r19,12(sp)
 1005530:	dc800217 	ldw	r18,8(sp)
 1005534:	dc400117 	ldw	r17,4(sp)
 1005538:	dc000017 	ldw	r16,0(sp)
 100553c:	dec00804 	addi	sp,sp,32
 1005540:	f800283a 	ret
 1005544:	002d883a 	mov	r22,zero
 1005548:	003ff206 	br	1005514 <_fwalk+0x80>

0100554c <__locale_charset>:
 100554c:	d0a00317 	ldw	r2,-32756(gp)
 1005550:	f800283a 	ret

01005554 <_localeconv_r>:
 1005554:	00804074 	movhi	r2,257
 1005558:	10badc04 	addi	r2,r2,-5264
 100555c:	f800283a 	ret

01005560 <localeconv>:
 1005560:	00804074 	movhi	r2,257
 1005564:	10824c04 	addi	r2,r2,2352
 1005568:	11000017 	ldw	r4,0(r2)
 100556c:	10055541 	jmpi	1005554 <_localeconv_r>

01005570 <_setlocale_r>:
 1005570:	defffc04 	addi	sp,sp,-16
 1005574:	00c04074 	movhi	r3,257
 1005578:	18fad704 	addi	r3,r3,-5284
 100557c:	dc800215 	stw	r18,8(sp)
 1005580:	dc400115 	stw	r17,4(sp)
 1005584:	dc000015 	stw	r16,0(sp)
 1005588:	2023883a 	mov	r17,r4
 100558c:	2825883a 	mov	r18,r5
 1005590:	dfc00315 	stw	ra,12(sp)
 1005594:	3021883a 	mov	r16,r6
 1005598:	3009883a 	mov	r4,r6
 100559c:	180b883a 	mov	r5,r3
 10055a0:	30000926 	beq	r6,zero,10055c8 <_setlocale_r+0x58>
 10055a4:	1007a8c0 	call	1007a8c <strcmp>
 10055a8:	8009883a 	mov	r4,r16
 10055ac:	01404074 	movhi	r5,257
 10055b0:	297ac204 	addi	r5,r5,-5368
 10055b4:	10000b1e 	bne	r2,zero,10055e4 <_setlocale_r+0x74>
 10055b8:	8c000d15 	stw	r16,52(r17)
 10055bc:	8c800c15 	stw	r18,48(r17)
 10055c0:	00c04074 	movhi	r3,257
 10055c4:	18fad704 	addi	r3,r3,-5284
 10055c8:	1805883a 	mov	r2,r3
 10055cc:	dfc00317 	ldw	ra,12(sp)
 10055d0:	dc800217 	ldw	r18,8(sp)
 10055d4:	dc400117 	ldw	r17,4(sp)
 10055d8:	dc000017 	ldw	r16,0(sp)
 10055dc:	dec00404 	addi	sp,sp,16
 10055e0:	f800283a 	ret
 10055e4:	1007a8c0 	call	1007a8c <strcmp>
 10055e8:	0007883a 	mov	r3,zero
 10055ec:	103ff226 	beq	r2,zero,10055b8 <_setlocale_r+0x48>
 10055f0:	003ff506 	br	10055c8 <_setlocale_r+0x58>

010055f4 <setlocale>:
 10055f4:	01804074 	movhi	r6,257
 10055f8:	31824c04 	addi	r6,r6,2352
 10055fc:	2007883a 	mov	r3,r4
 1005600:	31000017 	ldw	r4,0(r6)
 1005604:	280d883a 	mov	r6,r5
 1005608:	180b883a 	mov	r5,r3
 100560c:	10055701 	jmpi	1005570 <_setlocale_r>

01005610 <__smakebuf_r>:
 1005610:	2880030b 	ldhu	r2,12(r5)
 1005614:	deffed04 	addi	sp,sp,-76
 1005618:	dc401015 	stw	r17,64(sp)
 100561c:	1080008c 	andi	r2,r2,2
 1005620:	dc000f15 	stw	r16,60(sp)
 1005624:	dfc01215 	stw	ra,72(sp)
 1005628:	dc801115 	stw	r18,68(sp)
 100562c:	2821883a 	mov	r16,r5
 1005630:	2023883a 	mov	r17,r4
 1005634:	10000b26 	beq	r2,zero,1005664 <__smakebuf_r+0x54>
 1005638:	28c010c4 	addi	r3,r5,67
 100563c:	00800044 	movi	r2,1
 1005640:	28800515 	stw	r2,20(r5)
 1005644:	28c00415 	stw	r3,16(r5)
 1005648:	28c00015 	stw	r3,0(r5)
