
exercise14_15.elf:     file format elf32-littlenios2
exercise14_15.elf
architecture: nios2, flags 0x00000112:
EXEC_P, HAS_SYMS, D_PAGED
start address 0x010001b4

Program Header:
    LOAD off    0x00001000 vaddr 0x01000000 paddr 0x01000000 align 2**12
         filesz 0x00000020 memsz 0x00000020 flags r-x
    LOAD off    0x00001020 vaddr 0x01000020 paddr 0x01000020 align 2**12
         filesz 0x0000ee58 memsz 0x0000ee58 flags r-x
    LOAD off    0x0000fe78 vaddr 0x0100ee78 paddr 0x01010970 align 2**12
         filesz 0x00001af8 memsz 0x00001af8 flags rw-
    LOAD off    0x00012468 vaddr 0x01012468 paddr 0x01012468 align 2**12
         filesz 0x00000000 memsz 0x000002ec flags rw-

Sections:
Idx Name          Size      VMA       LMA       File off  Algn
  0 .entry        00000020  01000000  01000000  00001000  2**5
                  CONTENTS, ALLOC, LOAD, READONLY, CODE
  1 .exceptions   00000194  01000020  01000020  00001020  2**2
                  CONTENTS, ALLOC, LOAD, READONLY, CODE
  2 .text         0000e7a4  010001b4  010001b4  000011b4  2**2
                  CONTENTS, ALLOC, LOAD, READONLY, CODE
  3 .rodata       00000520  0100e958  0100e958  0000f958  2**2
                  CONTENTS, ALLOC, LOAD, READONLY, DATA
  4 .rwdata       00001af8  0100ee78  01010970  0000fe78  2**2
                  CONTENTS, ALLOC, LOAD, DATA, SMALL_DATA
  5 .bss          000002ec  01012468  01012468  00012468  2**2
                  ALLOC, SMALL_DATA
  6 .comment      00000026  00000000  00000000  00011970  2**0
                  CONTENTS, READONLY
  7 .debug_aranges 00000cd8  00000000  00000000  00011998  2**3
                  CONTENTS, READONLY, DEBUGGING
  8 .debug_pubnames 0000175b  00000000  00000000  00012670  2**0
                  CONTENTS, READONLY, DEBUGGING
  9 .debug_info   000259e4  00000000  00000000  00013dcb  2**0
                  CONTENTS, READONLY, DEBUGGING
 10 .debug_abbrev 00007edd  00000000  00000000  000397af  2**0
                  CONTENTS, READONLY, DEBUGGING
 11 .debug_line   00014a70  00000000  00000000  0004168c  2**0
                  CONTENTS, READONLY, DEBUGGING
 12 .debug_frame  00001c2c  00000000  00000000  000560fc  2**2
                  CONTENTS, READONLY, DEBUGGING
 13 .debug_str    00002564  00000000  00000000  00057d28  2**0
                  CONTENTS, READONLY, DEBUGGING
 14 .debug_loc    0000c341  00000000  00000000  0005a28c  2**0
                  CONTENTS, READONLY, DEBUGGING
 15 .debug_alt_sim_info 00000010  00000000  00000000  000665d0  2**2
                  CONTENTS, READONLY, DEBUGGING
 16 .debug_ranges 000009e0  00000000  00000000  000665e0  2**3
                  CONTENTS, READONLY, DEBUGGING
 17 .thread_model 00000003  00000000  00000000  0006a559  2**0
                  CONTENTS, READONLY
 18 .cpu          0000000c  00000000  00000000  0006a55c  2**0
                  CONTENTS, READONLY
 19 .qsys         00000001  00000000  00000000  0006a568  2**0
                  CONTENTS, READONLY
 20 .simulation_enabled 00000001  00000000  00000000  0006a569  2**0
                  CONTENTS, READONLY
 21 .stderr_dev   0000000b  00000000  00000000  0006a56a  2**0
                  CONTENTS, READONLY
 22 .stdin_dev    0000000b  00000000  00000000  0006a575  2**0
                  CONTENTS, READONLY
 23 .stdout_dev   0000000b  00000000  00000000  0006a580  2**0
                  CONTENTS, READONLY
 24 .sopc_system_name 0000000b  00000000  00000000  0006a58b  2**0
                  CONTENTS, READONLY
 25 .quartus_project_dir 0000002e  00000000  00000000  0006a596  2**0
                  CONTENTS, READONLY
 26 .sopcinfo     0006949d  00000000  00000000  0006a5c4  2**0
                  CONTENTS, READONLY
SYMBOL TABLE:
01000000 l    d  .entry	00000000 .entry
01000020 l    d  .exceptions	00000000 .exceptions
010001b4 l    d  .text	00000000 .text
0100e958 l    d  .rodata	00000000 .rodata
0100ee78 l    d  .rwdata	00000000 .rwdata
01012468 l    d  .bss	00000000 .bss
00000000 l    d  .comment	00000000 .comment
00000000 l    d  .debug_aranges	00000000 .debug_aranges
00000000 l    d  .debug_pubnames	00000000 .debug_pubnames
00000000 l    d  .debug_info	00000000 .debug_info
00000000 l    d  .debug_abbrev	00000000 .debug_abbrev
00000000 l    d  .debug_line	00000000 .debug_line
00000000 l    d  .debug_frame	00000000 .debug_frame
00000000 l    d  .debug_str	00000000 .debug_str
00000000 l    d  .debug_loc	00000000 .debug_loc
00000000 l    d  .debug_alt_sim_info	00000000 .debug_alt_sim_info
00000000 l    d  .debug_ranges	00000000 .debug_ranges
010001ec l       .text	00000000 alt_after_alt_main
00000000 l    df *ABS*	00000000 alt_irq_handler.c
00000000 l    df *ABS*	00000000 VGA_Screen.cpp
00000000 l    df *ABS*	00000000 hello_world.cpp
00000000 l    df *ABS*	00000000 lib2-divmod.c
010009d8 l     F .text	0000007c udivmodsi4
00000000 l    df *ABS*	00000000 printf.c
00000000 l    df *ABS*	00000000 puts.c
00000000 l    df *ABS*	00000000 rand.c
00000000 l    df *ABS*	00000000 strlen.c
00000000 l    df *ABS*	00000000 vfprintf.c
01000d58 l     F .text	00000058 __sprint_r
0100eb3a l     O .rodata	00000010 blanks.3452
0100eb2a l     O .rodata	00000010 zeroes.3453
00000000 l    df *ABS*	00000000 wsetup.c
00000000 l    df *ABS*	00000000 dtoa.c
01002dd4 l     F .text	00000244 quorem
00000000 l    df *ABS*	00000000 fflush.c
00000000 l    df *ABS*	00000000 findfp.c
010047fc l     F .text	00000058 std
01004908 l     F .text	00000008 __fp_lock
01004910 l     F .text	00000008 __fp_unlock
00000000 l    df *ABS*	00000000 mallocr.c
00000000 l    df *ABS*	00000000 fvwrite.c
00000000 l    df *ABS*	00000000 fwalk.c
00000000 l    df *ABS*	00000000 impure.c
0100ee78 l     O .rwdata	00000400 impure_data
00000000 l    df *ABS*	00000000 locale.c
0101093c l     O .rwdata	00000004 charset
0100eb70 l     O .rodata	00000030 lconv
00000000 l    df *ABS*	00000000 makebuf.c
00000000 l    df *ABS*	00000000 mallocr.c
00000000 l    df *ABS*	00000000 memchr.c
00000000 l    df *ABS*	00000000 memcpy.c
00000000 l    df *ABS*	00000000 memmove.c
00000000 l    df *ABS*	00000000 memset.c
00000000 l    df *ABS*	00000000 mprec.c
0100ecb8 l     O .rodata	0000000c p05.2458
00000000 l    df *ABS*	00000000 mallocr.c
00000000 l    df *ABS*	00000000 s_isinfd.c
00000000 l    df *ABS*	00000000 s_isnand.c
00000000 l    df *ABS*	00000000 sbrkr.c
00000000 l    df *ABS*	00000000 stdio.c
00000000 l    df *ABS*	00000000 strcmp.c
00000000 l    df *ABS*	00000000 writer.c
00000000 l    df *ABS*	00000000 mallocr.c
00000000 l    df *ABS*	00000000 closer.c
00000000 l    df *ABS*	00000000 fclose.c
00000000 l    df *ABS*	00000000 fstatr.c
00000000 l    df *ABS*	00000000 int_errno.c
00000000 l    df *ABS*	00000000 isattyr.c
00000000 l    df *ABS*	00000000 lseekr.c
00000000 l    df *ABS*	00000000 readr.c
00000000 l    df *ABS*	00000000 libgcc2.c
00000000 l    df *ABS*	00000000 libgcc2.c
00000000 l    df *ABS*	00000000 libgcc2.c
00000000 l    df *ABS*	00000000 dp-bit.c
01008de0 l     F .text	00000410 _fpadd_parts
00000000 l    df *ABS*	00000000 dp-bit.c
00000000 l    df *ABS*	00000000 dp-bit.c
00000000 l    df *ABS*	00000000 dp-bit.c
00000000 l    df *ABS*	00000000 dp-bit.c
00000000 l    df *ABS*	00000000 dp-bit.c
00000000 l    df *ABS*	00000000 dp-bit.c
00000000 l    df *ABS*	00000000 dp-bit.c
00000000 l    df *ABS*	00000000 dp-bit.c
00000000 l    df *ABS*	00000000 dp-bit.c
00000000 l    df *ABS*	00000000 dp-bit.c
00000000 l    df *ABS*	00000000 dp-bit.c
00000000 l    df *ABS*	00000000 lib2-mul.c
00000000 l    df *ABS*	00000000 libgcc2.c
00000000 l    df *ABS*	00000000 libgcc2.c
00000000 l    df *ABS*	00000000 dp-bit.c
00000000 l    df *ABS*	00000000 dp-bit.c
00000000 l    df *ABS*	00000000 dp-bit.c
00000000 l    df *ABS*	00000000 alt_close.c
0100a5d8 l     F .text	00000060 alt_get_errno
00000000 l    df *ABS*	00000000 alt_dev.c
0100a638 l     F .text	0000002c alt_dev_null_write
00000000 l    df *ABS*	00000000 alt_errno.c
00000000 l    df *ABS*	00000000 alt_fstat.c
0100a73c l     F .text	00000060 alt_get_errno
00000000 l    df *ABS*	00000000 alt_isatty.c
0100a860 l     F .text	00000060 alt_get_errno
00000000 l    df *ABS*	00000000 alt_load.c
0100a940 l     F .text	0000006c alt_load_section
00000000 l    df *ABS*	00000000 alt_lseek.c
0100aaa0 l     F .text	00000060 alt_get_errno
00000000 l    df *ABS*	00000000 alt_main.c
00000000 l    df *ABS*	00000000 alt_malloc_lock.c
00000000 l    df *ABS*	00000000 alt_read.c
0100acd0 l     F .text	00000060 alt_get_errno
00000000 l    df *ABS*	00000000 alt_release_fd.c
00000000 l    df *ABS*	00000000 alt_sbrk.c
01010960 l     O .rwdata	00000004 heap_end
00000000 l    df *ABS*	00000000 alt_write.c
0100af88 l     F .text	00000060 alt_get_errno
00000000 l    df *ABS*	00000000 alt_sys_init.c
0100f834 l     O .rwdata	00001060 jtag_uart_0
01010894 l     O .rwdata	00000048 video_character_buffer_with_dma_0
010108dc l     O .rwdata	00000054 buffer_dma
0100b314 l     F .text	00000038 alt_dev_reg
00000000 l    df *ABS*	00000000 altera_avalon_jtag_uart_fd.c
00000000 l    df *ABS*	00000000 altera_avalon_jtag_uart_init.c
0100b554 l     F .text	00000228 altera_avalon_jtag_uart_irq
0100b77c l     F .text	000000b0 altera_avalon_jtag_uart_timeout
00000000 l    df *ABS*	00000000 altera_avalon_jtag_uart_ioctl.c
00000000 l    df *ABS*	00000000 altera_avalon_jtag_uart_read.c
00000000 l    df *ABS*	00000000 altera_avalon_jtag_uart_write.c
00000000 l    df *ABS*	00000000 altera_up_avalon_video_character_buffer_with_dma.c
00000000 l    df *ABS*	00000000 altera_up_avalon_video_pixel_buffer_dma.c
00000000 l    df *ABS*	00000000 alt_alarm_start.c
00000000 l    df *ABS*	00000000 alt_dcache_flush_all.c
00000000 l    df *ABS*	00000000 alt_dev_llist_insert.c
0100d8c0 l     F .text	00000060 alt_get_errno
00000000 l    df *ABS*	00000000 alt_do_ctors.c
00000000 l    df *ABS*	00000000 alt_do_dtors.c
00000000 l    df *ABS*	00000000 alt_find_dev.c
00000000 l    df *ABS*	00000000 alt_icache_flush_all.c
00000000 l    df *ABS*	00000000 alt_iic.c
00000000 l    df *ABS*	00000000 alt_iic_isr_register.c
00000000 l    df *ABS*	00000000 alt_io_redirect.c
0100dd64 l     F .text	000000d8 alt_open_fd
00000000 l    df *ABS*	00000000 alt_irq_vars.c
00000000 l    df *ABS*	00000000 alt_open.c
0100deb4 l     F .text	000000f8 alt_file_locked
0100e138 l     F .text	00000060 alt_get_errno
00000000 l    df *ABS*	00000000 alt_tick.c
00000000 l    df *ABS*	00000000 altera_nios2_qsys_irq.c
00000000 l    df *ABS*	00000000 alt_find_file.c
00000000 l    df *ABS*	00000000 alt_get_fd.c
00000000 l    df *ABS*	00000000 atexit.c
00000000 l    df *ABS*	00000000 exit.c
00000000 l    df *ABS*	00000000 memcmp.c
00000000 l    df *ABS*	00000000 __atexit.c
00000000 l    df *ABS*	00000000 __call_atexit.c
0100e740 l     F .text	00000004 register_fini
00000000 l    df *ABS*	00000000 alt_exit.c
0100e8f4 l     F .text	00000040 alt_sim_halt
010065ec g     F .text	00000094 _mprec_log10
010066d8 g     F .text	00000088 __any_on
01007e90 g     F .text	00000070 _isatty_r
0100ec90 g     O .rodata	00000028 __mprec_tinytens
0100ab00 g     F .text	0000006c alt_main
0100cd8c g     F .text	000003d8 alt_up_pixel_buffer_dma_draw_vline
01000b9c g     F .text	000000a0 _puts_r
010124c4 g     O .bss	00000100 alt_irq
01007f00 g     F .text	00000078 _lseek_r
01010970 g       *ABS*	00000000 __flash_rwdata_start
01009900 g     F .text	00000088 __eqdf2
01012754 g       *ABS*	00000000 __alt_heap_start
01000b24 g     F .text	00000044 printf
01000684 g     F .text	00000088 _Z8junkcodev
01007948 g     F .text	00000068 __sseek
01004864 g     F .text	000000a4 __sinit
01000224 g     F .text	00000034 _ZN10VGA_Screen17init_pixel_bufferEv
0100bf8c g     F .text	00000114 alt_up_char_buffer_string
01005570 g     F .text	00000084 _setlocale_r
01004964 g     F .text	0000009c __sfmoreglue
0100ab8c g     F .text	00000020 __malloc_unlock
0100bebc g     F .text	000000d0 alt_up_char_buffer_draw
01006068 g     F .text	000000e0 memmove
01004954 g     F .text	00000010 _cleanup
01006760 g     F .text	000000bc _Balloc
0100c13c g     F .text	000001ac alt_up_pixel_buffer_dma_draw
01009a10 g     F .text	00000088 __gtdf2
00000000  w      *UND*	00000000 __errno
0100c0fc g     F .text	00000040 alt_up_pixel_buffer_dma_open_dev
01000000 g     F .entry	0000000c __reset
01000290 g     F .text	00000038 _ZN10VGA_Screen10draw_boxesEP27alt_up_pixel_buffer_dma_dev
01000020 g       *ABS*	00000000 __flash_exceptions_start
01007e1c g     F .text	00000074 _fstat_r
01012480 g     O .bss	00000004 errno
01012488 g     O .bss	00000004 alt_argv
01018930 g       *ABS*	00000000 _gp
0100c2e8 g     F .text	00000058 alt_up_pixel_buffer_dma_change_back_buffer_address
010002c8 g     F .text	00000038 _ZN10VGA_Screen18draw_diagonal_lineEP27alt_up_pixel_buffer_dma_dev
0100f6b4 g     O .rwdata	00000180 alt_fd_list
0100d9e8 g     F .text	00000094 alt_find_dev
01005fc8 g     F .text	000000a0 memcpy
0100c0a0 g     F .text	0000005c alt_up_char_buffer_clear
01004948 g     F .text	0000000c _cleanup_r
01009ba8 g     F .text	000000f8 __floatsidf
0100de3c g     F .text	00000078 alt_io_redirect
01009b20 g     F .text	00000088 __ltdf2
0100e958 g       *ABS*	00000000 __DTOR_END__
01000338 g     F .text	00000034 _ZN10VGA_Screen4initEv
01000c3c g     F .text	00000014 puts
0100653c g     F .text	000000b0 __ratio
0100c398 g     F .text	00000034 alt_up_pixel_buffer_dma_check_swap_buffers_status
0100b994 g     F .text	00000224 altera_avalon_jtag_uart_read
00000000  w      *UND*	00000000 malloc
01000b68 g     F .text	00000034 _printf_r
00000000 g       *ABS*	00000000 __alt_mem_onchip_memory2_0
01000b14 g     F .text	00000008 __udivsi3
0100a79c g     F .text	000000c4 isatty
0100eba0 g     O .rodata	000000c8 __mprec_tens
0100ca34 g     F .text	00000358 alt_up_pixel_buffer_dma_draw_hline
0100554c g     F .text	00000008 __locale_charset
01012474 g     O .bss	00000004 __malloc_top_pad
01010938 g     O .rwdata	00000004 __mb_cur_max
01005554 g     F .text	0000000c _localeconv_r
01006ec4 g     F .text	0000003c __i2b
01004f30 g     F .text	0000049c __sfvwrite_r
010078d0 g     F .text	00000070 _sbrk_r
0100d228 g     F .text	000000d8 helper_plot_pixel
01007f78 g     F .text	00000078 _read_r
0100f278 g     O .rwdata	0000000c __lc_ctype
01010958 g     O .rwdata	00000004 alt_max_fd
0100a2d8 g     F .text	00000138 __unpack_d
01007cf8 g     F .text	00000110 _fclose_r
010047c8 g     F .text	00000034 fflush
01012478 g     O .bss	00000004 __malloc_max_sbrked_mem
0100064c g     F .text	00000038 _Z17init_pixel_bufferv
01009270 g     F .text	00000074 __adddf3
0100641c g     F .text	00000120 __b2d
0100c3cc g     F .text	0000016c alt_up_pixel_buffer_dma_clear_screen
01008780 g     F .text	00000660 __umoddi3
0100a9ac g     F .text	000000f4 lseek
01010934 g     O .rwdata	00000004 _global_impure_ptr
0100726c g     F .text	000005f4 _realloc_r
01000258 g     F .text	00000038 _ZN10VGA_Screen12clear_screenEP27alt_up_pixel_buffer_dma_dev
01012754 g       *ABS*	00000000 __bss_end
0100dc6c g     F .text	000000f8 alt_iic_isr_register
0100c538 g     F .text	000004fc alt_up_pixel_buffer_dma_draw_box
0100e230 g     F .text	0000010c alt_tick
01008114 g     F .text	0000066c __udivdi3
0100ec68 g     O .rodata	00000028 __mprec_bigtens
0100714c g     F .text	00000120 __s2b
01009d78 g     F .text	00000194 __floatunsidf
0100633c g     F .text	00000060 __mcmp
01004930 g     F .text	00000018 __fp_lock_all
0100dc24 g     F .text	00000048 alt_ic_irq_enabled
0100036c g     F .text	00000048 _ZN10VGA_ScreenC1Ev
0100e198 g     F .text	00000098 alt_alarm_stop
01012490 g     O .bss	00000004 alt_irq_active
010000ec g     F .exceptions	000000c8 alt_irq_handler
0100f68c g     O .rwdata	00000028 alt_dev_null
0100d7f0 g     F .text	0000001c alt_dcache_flush_all
01006208 g     F .text	00000070 __hi0bits
0100d164 g     F .text	000000c4 alt_up_pixel_buffer_dma_draw_rectangle
01009ca0 g     F .text	000000d8 __fixdfsi
01010970 g       *ABS*	00000000 __ram_rwdata_end
01010950 g     O .rwdata	00000008 alt_dev_list
0100ae64 g     F .text	00000124 write
01000300 g     F .text	00000038 _ZN10VGA_Screen14draw_characterEP22alt_up_char_buffer_dev
0100d300 g     F .text	0000039c alt_up_pixel_buffer_dma_draw_line
0100ee78 g       *ABS*	00000000 __ram_rodata_end
0100a664 g     F .text	000000d8 fstat
0100702c g     F .text	00000120 __pow5mult
01012468 g     O .bss	00000004 __nlocale_changed
01000b1c g     F .text	00000008 __umodsi3
01012754 g       *ABS*	00000000 end
0100bdf8 g     F .text	00000084 alt_up_char_buffer_init
0100b494 g     F .text	000000c0 altera_avalon_jtag_uart_init
0100093c g     F .text	0000009c _Z3ex4v
0100e954 g       *ABS*	00000000 __CTOR_LIST__
01800000 g       *ABS*	00000000 __alt_stack_pointer
01009f44 g     F .text	00000080 __clzsi2
0100bbb8 g     F .text	00000240 altera_avalon_jtag_uart_write
01004854 g     F .text	00000004 __sfp_lock_acquire
01005ee4 g     F .text	000000e4 memchr
01000db0 g     F .text	00001ec4 ___vfprintf_internal_r
01004c1c g     F .text	00000314 _free_r
0100e744 g     F .text	000001b0 __call_exitprocs
0101246c g     O .bss	00000004 __mlocale_changed
01010944 g     O .rwdata	00000004 __malloc_sbrk_base
010001b4 g     F .text	0000003c _start
01012494 g     O .bss	00000004 _alt_tick_rate
0100060c g     F .text	00000040 _Z16init_char_bufferv
01000c6c g     F .text	00000078 rand
01006b24 g     F .text	0000014c __lshift
01012498 g     O .bss	00000004 _alt_nticks
0100abac g     F .text	00000124 read
0100b01c g     F .text	000002f8 alt_sys_init
0100e60c g     F .text	00000134 __register_exitproc
01006c70 g     F .text	00000254 __multiply
0100b82c g     F .text	00000074 altera_avalon_jtag_uart_close
01009f0c g     F .text	00000038 __mulsi3
0100ee78 g       *ABS*	00000000 __ram_rwdata_start
0100e958 g       *ABS*	00000000 __ram_rodata_start
0101249c g     O .bss	00000028 __malloc_current_mallinfo
0100681c g     F .text	0000017c __d2b
0100b34c g     F .text	00000058 altera_avalon_jtag_uart_read_fd
0100e47c g     F .text	000000d0 alt_get_fd
0100a410 g     F .text	000000c8 __fpcmp_parts_d
01007c88 g     F .text	00000070 _close_r
010003b4 g     F .text	00000048 _ZN10VGA_ScreenC2Ev
0100e598 g     F .text	00000074 memcmp
0100b3fc g     F .text	00000048 altera_avalon_jtag_uart_close_fd
01012754 g       *ABS*	00000000 __alt_stack_base
0100b444 g     F .text	00000050 altera_avalon_jtag_uart_ioctl_fd
01002c98 g     F .text	0000013c __swsetup_r
010096a8 g     F .text	00000258 __divdf3
01004a00 g     F .text	000000f0 __sfp
01006680 g     F .text	00000058 __copybits
0100f284 g     O .rwdata	00000408 __malloc_av_
01004860 g     F .text	00000004 __sinit_lock_release
010092e4 g     F .text	000003c4 __muldf3
01007a2c g     F .text	00000060 __sread
0100e35c g     F .text	00000120 alt_find_file
0100d80c g     F .text	000000b4 alt_dev_llist_insert
0100ab6c g     F .text	00000020 __malloc_lock
0100ada8 g     F .text	000000bc sbrk
010045cc g     F .text	000001fc _fflush_r
01007bc0 g     F .text	000000c8 _calloc_r
01012468 g       *ABS*	00000000 __bss_start
01006148 g     F .text	00000098 memset
01000430 g     F .text	00000038 main
0101248c g     O .bss	00000004 alt_envp
0101247c g     O .bss	00000004 __malloc_max_total_mem
0100c340 g     F .text	00000058 alt_up_pixel_buffer_dma_swap_buffers
0100be7c g     F .text	00000040 alt_up_char_buffer_open_dev
0100b3a4 g     F .text	00000058 altera_avalon_jtag_uart_write_fd
01000c50 g     F .text	0000001c srand
01007940 g     F .text	00000008 __sclose
01800000 g       *ABS*	00000000 __alt_heap_limit
01007e08 g     F .text	00000014 fclose
010125c4 g     O .bss	00000190 _atexit0
01003018 g     F .text	000015b4 _dtoa_r
010057a4 g     F .text	00000740 _malloc_r
0101095c g     O .rwdata	00000004 alt_errno
01005494 g     F .text	000000b8 _fwalk
01000a54 g     F .text	00000060 __divsi3
0100ecc4 g     O .rodata	00000014 __thenan_df
01004af0 g     F .text	0000012c _malloc_trim_r
0100e958 g       *ABS*	00000000 __CTOR_END__
01007a8c g     F .text	000000bc strcmp
0100e958 g       *ABS*	00000000 __flash_rodata_start
0100e958 g       *ABS*	00000000 __DTOR_LIST__
01009988 g     F .text	00000088 __nedf2
0100afe8 g     F .text	00000034 alt_irq_init
0100ad30 g     F .text	00000078 alt_release_fd
0100ecd8 g     O .rodata	00000100 __clz_tab
01012470 g     O .bss	00000004 _PathLocale
0100e54c g     F .text	00000014 atexit
01007b48 g     F .text	00000078 _write_r
0100070c g     F .text	00000230 _Z3ex5v
010055f4 g     F .text	0000001c setlocale
01010930 g     O .rwdata	00000004 _impure_ptr
01012484 g     O .bss	00000004 alt_argc
0100d984 g     F .text	00000064 _do_dtors
01000020 g       .exceptions	00000000 alt_irq_entry
0100639c g     F .text	00000080 __ulp
01007860 g     F .text	00000040 __isinfd
01004918 g     F .text	00000018 __fp_unlock_all
01010948 g     O .rwdata	00000008 alt_fs_list
01000020 g       *ABS*	00000000 __ram_exceptions_start
0100057c g     F .text	00000050 _Z18draw_diagonal_lineP27alt_up_pixel_buffer_dma_dev
01005560 g     F .text	00000010 localeconv
010001f0 g     F .text	00000034 _ZN10VGA_Screen16init_char_bufferEv
0100da98 g     F .text	00000050 alt_ic_isr_register
01010970 g       *ABS*	00000000 _edata
01012754 g       *ABS*	00000000 _end
010001b4 g       *ABS*	00000000 __ram_exceptions_end
0100b8a0 g     F .text	000000f4 altera_avalon_jtag_uart_ioctl
0100db84 g     F .text	000000a0 alt_ic_irq_disable
010079b0 g     F .text	0000007c __swrite
01010940 g     O .rwdata	00000004 __malloc_trim_threshold
0100e33c g     F .text	00000020 altera_nios2_qsys_irq_init
0100e560 g     F .text	00000038 exit
010053cc g     F .text	000000c8 _fwalk_reent
01006998 g     F .text	0000018c __mdiff
01000ab4 g     F .text	00000060 __modsi3
01800000 g       *ABS*	00000000 __alt_data_end
01000020 g     F .exceptions	00000000 alt_exception
01004858 g     F .text	00000004 __sfp_lock_release
01000000 g       *ABS*	00000000 __alt_mem_sdram
0100e934 g     F .text	00000020 _exit
010078a0 g     F .text	00000030 __isnand
0100d69c g     F .text	00000154 alt_alarm_start
01007ff0 g     F .text	00000124 __muldi3
01005610 g     F .text	00000194 __smakebuf_r
01000ce4 g     F .text	00000074 strlen
0100dfac g     F .text	0000018c open
01009a98 g     F .text	00000088 __gedf2
0100da7c g     F .text	0000001c alt_icache_flush_all
01010964 g     O .rwdata	00000004 alt_priority_mask
010005cc g     F .text	00000040 _Z14draw_characterP22alt_up_char_buffer_dev
0100dae8 g     F .text	0000009c alt_ic_irq_enable
01002c74 g     F .text	00000024 __vfprintf_internal
010003fc g     F .text	00000034 _Z12clear_screenP27alt_up_pixel_buffer_dma_dev
010091f0 g     F .text	00000080 __subdf3
01006278 g     F .text	000000c4 __lo0bits
01010968 g     O .rwdata	00000008 alt_alarm_list
0100d920 g     F .text	00000064 _do_ctors
0100a4d8 g     F .text	00000100 close
0100a8c0 g     F .text	00000080 alt_load
01009fc4 g     F .text	00000314 __pack_d
00000000  w      *UND*	00000000 free
0100485c g     F .text	00000004 __sinit_lock_acquire
01006f00 g     F .text	0000012c __multadd
010061e0 g     F .text	00000028 _Bfree
01000468 g     F .text	00000114 _Z10draw_boxesP27alt_up_pixel_buffer_dma_dev



Disassembly of section .entry:

01000000 <__reset>:
 * Jump to the _start entry point in the .text section if reset code
 * is allowed or if optimizing for RTL simulation.
 */
#if defined(ALT_ALLOW_CODE_AT_RESET) || defined(ALT_SIM_OPTIMIZE)
    /* Jump to the _start entry point in the .text section. */
    movhi r1, %hi(_start)
 1000000:	00404034 	movhi	at,256
    ori r1, r1, %lo(_start)
 1000004:	08406d14 	ori	at,at,436
    jmp r1
 1000008:	0800683a 	jmp	at
	...

Disassembly of section .exceptions:

01000020 <alt_exception>:
         * Process an exception.  For all exceptions we must preserve all
         * caller saved registers on the stack (See the Nios2 ABI
         * documentation for details).
         */

        addi  sp, sp, -76
 1000020:	deffed04 	addi	sp,sp,-76

#endif

#endif

        stw   ra,  0(sp)
 1000024:	dfc00015 	stw	ra,0(sp)
        /*
         * Leave a gap in the stack frame at 4(sp) for the muldiv handler to
         * store zero into.
         */

        stw   r1,   8(sp)
 1000028:	d8400215 	stw	at,8(sp)
        stw   r2,  12(sp)
 100002c:	d8800315 	stw	r2,12(sp)
        stw   r3,  16(sp)
 1000030:	d8c00415 	stw	r3,16(sp)
        stw   r4,  20(sp)
 1000034:	d9000515 	stw	r4,20(sp)
        stw   r5,  24(sp)
 1000038:	d9400615 	stw	r5,24(sp)
        stw   r6,  28(sp)
 100003c:	d9800715 	stw	r6,28(sp)
        stw   r7,  32(sp)
 1000040:	d9c00815 	stw	r7,32(sp)

        rdctl r5, estatus
 1000044:	000b307a 	rdctl	r5,estatus

        stw   r8,  36(sp)
 1000048:	da000915 	stw	r8,36(sp)
        stw   r9,  40(sp)
 100004c:	da400a15 	stw	r9,40(sp)
        stw   r10, 44(sp)
 1000050:	da800b15 	stw	r10,44(sp)
        stw   r11, 48(sp)
 1000054:	dac00c15 	stw	r11,48(sp)
        stw   r12, 52(sp)
 1000058:	db000d15 	stw	r12,52(sp)
        stw   r13, 56(sp)
 100005c:	db400e15 	stw	r13,56(sp)
        stw   r14, 60(sp)
 1000060:	db800f15 	stw	r14,60(sp)
        stw   r15, 64(sp)
 1000064:	dbc01015 	stw	r15,64(sp)
        /*
         * ea-4 contains the address of the instruction being executed
         * when the exception occured. For interrupt exceptions, we will
         * will be re-issue the isntruction. Store it in 72(sp)
         */
        stw   r5,  68(sp)  /* estatus */
 1000068:	d9401115 	stw	r5,68(sp)
        addi  r15, ea, -4  /* instruction that caused exception */
 100006c:	ebffff04 	addi	r15,ea,-4
        stw   r15,  72(sp)
 1000070:	dbc01215 	stw	r15,72(sp)
#else
        /*
         * Test to see if the exception was a software exception or caused 
         * by an external interrupt, and vector accordingly.
         */
        rdctl r4, ipending
 1000074:	0009313a 	rdctl	r4,ipending
        andi  r2, r5, 1
 1000078:	2880004c 	andi	r2,r5,1
        beq   r2, zero, .Lnot_irq
 100007c:	10000326 	beq	r2,zero,100008c <alt_exception+0x6c>
        beq   r4, zero, .Lnot_irq
 1000080:	20000226 	beq	r4,zero,100008c <alt_exception+0x6c>
        /*
         * Now that all necessary registers have been preserved, call 
         * alt_irq_handler() to process the interrupts.
         */

        call alt_irq_handler
 1000084:	10000ec0 	call	10000ec <alt_irq_handler>

        .section .exceptions.irqreturn, "xa"

        br    .Lexception_exit
 1000088:	00000306 	br	1000098 <alt_exception+0x78>
         * upon completion, so we write ea (address of instruction *after*
         * the one where the exception occured) into 72(sp). The actual
         * instruction that caused the exception is written in r2, which these
         * handlers will utilize.
         */
        stw   ea,  72(sp)  /* Don't re-issue */
 100008c:	df401215 	stw	ea,72(sp)
        ldw   r2, -4(ea)   /* Instruction that caused exception */
 1000090:	e8bfff17 	ldw	r2,-4(ea)
#ifdef NIOS2_HAS_DEBUG_STUB
       /*
        *  Either tell the user now (if there is a debugger attached) or go into
        *  the debug monitor which will loop until a debugger is attached.
        */
        break
 1000094:	003da03a 	break	0
        /* 
         * Restore the saved registers, so that all general purpose registers 
         * have been restored to their state at the time the interrupt occured.
         */

        ldw   r5,  68(sp)
 1000098:	d9401117 	ldw	r5,68(sp)
        ldw   ea,  72(sp)  /* This becomes the PC once eret is executed */
 100009c:	df401217 	ldw	ea,72(sp)
        ldw   ra,   0(sp)
 10000a0:	dfc00017 	ldw	ra,0(sp)

        wrctl estatus, r5
 10000a4:	2801707a 	wrctl	estatus,r5

        ldw   r1,   8(sp)
 10000a8:	d8400217 	ldw	at,8(sp)
        ldw   r2,  12(sp)
 10000ac:	d8800317 	ldw	r2,12(sp)
        ldw   r3,  16(sp)
 10000b0:	d8c00417 	ldw	r3,16(sp)
        ldw   r4,  20(sp)
 10000b4:	d9000517 	ldw	r4,20(sp)
        ldw   r5,  24(sp)
 10000b8:	d9400617 	ldw	r5,24(sp)
        ldw   r6,  28(sp)
 10000bc:	d9800717 	ldw	r6,28(sp)
        ldw   r7,  32(sp)
 10000c0:	d9c00817 	ldw	r7,32(sp)
#ifdef ALT_STACK_CHECK
        ldw   et, %gprel(alt_exception_old_stack_limit)(gp)
#endif
#endif

        ldw   r8,  36(sp)
 10000c4:	da000917 	ldw	r8,36(sp)
        ldw   r9,  40(sp)
 10000c8:	da400a17 	ldw	r9,40(sp)
        ldw   r10, 44(sp)
 10000cc:	da800b17 	ldw	r10,44(sp)
        ldw   r11, 48(sp)
 10000d0:	dac00c17 	ldw	r11,48(sp)
        ldw   r12, 52(sp)
 10000d4:	db000d17 	ldw	r12,52(sp)
        ldw   r13, 56(sp)
 10000d8:	db400e17 	ldw	r13,56(sp)
        ldw   r14, 60(sp)
 10000dc:	db800f17 	ldw	r14,60(sp)
        ldw   r15, 64(sp)
 10000e0:	dbc01017 	ldw	r15,64(sp)
#endif

        ldw   sp,  76(sp)

#else
        addi  sp, sp, 76
 10000e4:	dec01304 	addi	sp,sp,76

        /*
         * Return to the interrupted instruction.
         */

        eret
 10000e8:	ef80083a 	eret

010000ec <alt_irq_handler>:
 * instruction is present if the macro ALT_CI_INTERRUPT_VECTOR defined.
 */

void alt_irq_handler (void) __attribute__ ((section (".exceptions")));
void alt_irq_handler (void)
{
 10000ec:	defff904 	addi	sp,sp,-28
 10000f0:	dfc00615 	stw	ra,24(sp)
 10000f4:	df000515 	stw	fp,20(sp)
 10000f8:	df000504 	addi	fp,sp,20
#ifndef NIOS2_EIC_PRESENT
static ALT_INLINE alt_u32 ALT_ALWAYS_INLINE alt_irq_pending (void)
{
  alt_u32 active;

  NIOS2_READ_IPENDING (active);
 10000fc:	0005313a 	rdctl	r2,ipending
 1000100:	e0bffc15 	stw	r2,-16(fp)

  return active;
 1000104:	e0bffc17 	ldw	r2,-16(fp)
   * Consider the case where the high priority interupt is asserted during
   * the interrupt entry sequence for a lower priority interrupt to see why
   * this is the case.
   */

  active = alt_irq_pending ();
 1000108:	e0bfff15 	stw	r2,-4(fp)

  do
  {
    i = 0;
 100010c:	e03ffd15 	stw	zero,-12(fp)
    mask = 1;
 1000110:	00800044 	movi	r2,1
 1000114:	e0bffe15 	stw	r2,-8(fp)
     * called to clear the interrupt condition.
     */

    do
    {
      if (active & mask)
 1000118:	e0ffff17 	ldw	r3,-4(fp)
 100011c:	e0bffe17 	ldw	r2,-8(fp)
 1000120:	1884703a 	and	r2,r3,r2
 1000124:	1005003a 	cmpeq	r2,r2,zero
 1000128:	1000161e 	bne	r2,zero,1000184 <alt_irq_handler+0x98>
      { 
#ifdef ALT_ENHANCED_INTERRUPT_API_PRESENT
        alt_irq[i].handler(alt_irq[i].context); 
 100012c:	e0bffd17 	ldw	r2,-12(fp)
 1000130:	00c04074 	movhi	r3,257
 1000134:	18c93104 	addi	r3,r3,9412
 1000138:	100490fa 	slli	r2,r2,3
 100013c:	10c5883a 	add	r2,r2,r3
 1000140:	11400017 	ldw	r5,0(r2)
 1000144:	e0bffd17 	ldw	r2,-12(fp)
 1000148:	00c04074 	movhi	r3,257
 100014c:	18c93104 	addi	r3,r3,9412
 1000150:	100490fa 	slli	r2,r2,3
 1000154:	10c5883a 	add	r2,r2,r3
 1000158:	10800104 	addi	r2,r2,4
 100015c:	11000017 	ldw	r4,0(r2)
 1000160:	283ee83a 	callr	r5
#ifndef NIOS2_EIC_PRESENT
static ALT_INLINE alt_u32 ALT_ALWAYS_INLINE alt_irq_pending (void)
{
  alt_u32 active;

  NIOS2_READ_IPENDING (active);
 1000164:	0005313a 	rdctl	r2,ipending
 1000168:	e0bffb15 	stw	r2,-20(fp)

  return active;
 100016c:	e0bffb17 	ldw	r2,-20(fp)
      mask <<= 1;
      i++;

    } while (1);

    active = alt_irq_pending ();
 1000170:	e0bfff15 	stw	r2,-4(fp)
    
  } while (active);
 1000174:	e0bfff17 	ldw	r2,-4(fp)
 1000178:	1004c03a 	cmpne	r2,r2,zero
 100017c:	103fe31e 	bne	r2,zero,100010c <alt_irq_handler+0x20>
 1000180:	00000706 	br	10001a0 <alt_irq_handler+0xb4>
#else
        alt_irq[i].handler(alt_irq[i].context, i); 
#endif
        break;
      }
      mask <<= 1;
 1000184:	e0bffe17 	ldw	r2,-8(fp)
 1000188:	1085883a 	add	r2,r2,r2
 100018c:	e0bffe15 	stw	r2,-8(fp)
      i++;
 1000190:	e0bffd17 	ldw	r2,-12(fp)
 1000194:	10800044 	addi	r2,r2,1
 1000198:	e0bffd15 	stw	r2,-12(fp)

    } while (1);
 100019c:	003fde06 	br	1000118 <alt_irq_handler+0x2c>
  /*
   * Notify the operating system that interrupt processing is complete.
   */ 

  ALT_OS_INT_EXIT();
}
 10001a0:	e037883a 	mov	sp,fp
 10001a4:	dfc00117 	ldw	ra,4(sp)
 10001a8:	df000017 	ldw	fp,0(sp)
 10001ac:	dec00204 	addi	sp,sp,8
 10001b0:	f800283a 	ret

Disassembly of section .text:

010001b4 <_start>:
#if (NIOS2_NUM_OF_SHADOW_REG_SETS == 0)    
    /*
     * Now that the caches are initialized, set up the stack pointer.
     * The value provided by the linker is assumed to be correctly aligned.
     */
    movhi sp, %hi(__alt_stack_pointer)
 10001b4:	06c06034 	movhi	sp,384
    ori sp, sp, %lo(__alt_stack_pointer)
 10001b8:	dec00014 	ori	sp,sp,0

    /* Set up the global pointer. */
    movhi gp, %hi(_gp)
 10001bc:	06804074 	movhi	gp,257
    ori gp, gp, %lo(_gp)
 10001c0:	d6a24c14 	ori	gp,gp,35120
 */
#ifndef ALT_SIM_OPTIMIZE
    /* Log that the BSS is about to be cleared. */
    ALT_LOG_PUTS(alt_log_msg_bss)

    movhi r2, %hi(__bss_start)
 10001c4:	00804074 	movhi	r2,257
    ori r2, r2, %lo(__bss_start)
 10001c8:	10891a14 	ori	r2,r2,9320

    movhi r3, %hi(__bss_end)
 10001cc:	00c04074 	movhi	r3,257
    ori r3, r3, %lo(__bss_end)
 10001d0:	18c9d514 	ori	r3,r3,10068

    beq r2, r3, 1f
 10001d4:	10c00326 	beq	r2,r3,10001e4 <_start+0x30>

0:
    stw zero, (r2)
 10001d8:	10000015 	stw	zero,0(r2)
    addi r2, r2, 4
 10001dc:	10800104 	addi	r2,r2,4
    bltu r2, r3, 0b
 10001e0:	10fffd36 	bltu	r2,r3,10001d8 <_start+0x24>
     * section aren't defined until alt_load() has been called).
     */
    mov   et, zero
#endif

    call alt_load
 10001e4:	100a8c00 	call	100a8c0 <alt_load>

    /* Log that alt_main is about to be called. */
    ALT_LOG_PUTS(alt_log_msg_alt_main)

    /* Call the C entry point. It should never return. */
    call alt_main
 10001e8:	100ab000 	call	100ab00 <alt_main>

010001ec <alt_after_alt_main>:

    /* Wait in infinite loop in case alt_main does return. */
alt_after_alt_main:
    br alt_after_alt_main
 10001ec:	003fff06 	br	10001ec <alt_after_alt_main>

010001f0 <_ZN10VGA_Screen16init_char_bufferEv>:
alt_up_pixel_buffer_dma_dev* VGA_Screen::init_pixel_buffer(){
	printf("Initializing Pixel Buffer");
}


alt_up_char_buffer_dev* VGA_Screen::init_char_buffer(){
 10001f0:	defffd04 	addi	sp,sp,-12
 10001f4:	dfc00215 	stw	ra,8(sp)
 10001f8:	df000115 	stw	fp,4(sp)
 10001fc:	df000104 	addi	fp,sp,4
 1000200:	e13fff15 	stw	r4,-4(fp)
	printf("Initializing Char Buffer");
 1000204:	01004074 	movhi	r4,257
 1000208:	213a5604 	addi	r4,r4,-5800
 100020c:	1000b240 	call	1000b24 <printf>
}
 1000210:	e037883a 	mov	sp,fp
 1000214:	dfc00117 	ldw	ra,4(sp)
 1000218:	df000017 	ldw	fp,0(sp)
 100021c:	dec00204 	addi	sp,sp,8
 1000220:	f800283a 	ret

01000224 <_ZN10VGA_Screen17init_pixel_bufferEv>:
void VGA_Screen::clear_screen(alt_up_pixel_buffer_dma_dev* pixel_buffer){
	printf("Clearing Screen");
}

//Private Methods
alt_up_pixel_buffer_dma_dev* VGA_Screen::init_pixel_buffer(){
 1000224:	defffd04 	addi	sp,sp,-12
 1000228:	dfc00215 	stw	ra,8(sp)
 100022c:	df000115 	stw	fp,4(sp)
 1000230:	df000104 	addi	fp,sp,4
 1000234:	e13fff15 	stw	r4,-4(fp)
	printf("Initializing Pixel Buffer");
 1000238:	01004074 	movhi	r4,257
 100023c:	213a5d04 	addi	r4,r4,-5772
 1000240:	1000b240 	call	1000b24 <printf>
}
 1000244:	e037883a 	mov	sp,fp
 1000248:	dfc00117 	ldw	ra,4(sp)
 100024c:	df000017 	ldw	fp,0(sp)
 1000250:	dec00204 	addi	sp,sp,8
 1000254:	f800283a 	ret

01000258 <_ZN10VGA_Screen12clear_screenEP27alt_up_pixel_buffer_dma_dev>:

void VGA_Screen::draw_boxes(alt_up_pixel_buffer_dma_dev* pixel_buffer){
	printf("Drawing Boxes");
}

void VGA_Screen::clear_screen(alt_up_pixel_buffer_dma_dev* pixel_buffer){
 1000258:	defffc04 	addi	sp,sp,-16
 100025c:	dfc00315 	stw	ra,12(sp)
 1000260:	df000215 	stw	fp,8(sp)
 1000264:	df000204 	addi	fp,sp,8
 1000268:	e13ffe15 	stw	r4,-8(fp)
 100026c:	e17fff15 	stw	r5,-4(fp)
	printf("Clearing Screen");
 1000270:	01004074 	movhi	r4,257
 1000274:	213a6404 	addi	r4,r4,-5744
 1000278:	1000b240 	call	1000b24 <printf>
}
 100027c:	e037883a 	mov	sp,fp
 1000280:	dfc00117 	ldw	ra,4(sp)
 1000284:	df000017 	ldw	fp,0(sp)
 1000288:	dec00204 	addi	sp,sp,8
 100028c:	f800283a 	ret

01000290 <_ZN10VGA_Screen10draw_boxesEP27alt_up_pixel_buffer_dma_dev>:

void VGA_Screen::draw_diagonal_line(alt_up_pixel_buffer_dma_dev* pixel_buffer){
	printf("Drawing Diagonal Line");
}

void VGA_Screen::draw_boxes(alt_up_pixel_buffer_dma_dev* pixel_buffer){
 1000290:	defffc04 	addi	sp,sp,-16
 1000294:	dfc00315 	stw	ra,12(sp)
 1000298:	df000215 	stw	fp,8(sp)
 100029c:	df000204 	addi	fp,sp,8
 10002a0:	e13ffe15 	stw	r4,-8(fp)
 10002a4:	e17fff15 	stw	r5,-4(fp)
	printf("Drawing Boxes");
 10002a8:	01004074 	movhi	r4,257
 10002ac:	213a6804 	addi	r4,r4,-5728
 10002b0:	1000b240 	call	1000b24 <printf>
}
 10002b4:	e037883a 	mov	sp,fp
 10002b8:	dfc00117 	ldw	ra,4(sp)
 10002bc:	df000017 	ldw	fp,0(sp)
 10002c0:	dec00204 	addi	sp,sp,8
 10002c4:	f800283a 	ret

010002c8 <_ZN10VGA_Screen18draw_diagonal_lineEP27alt_up_pixel_buffer_dma_dev>:

void VGA_Screen::draw_character(alt_up_char_buffer_dev* char_buffer){
	printf("Drawing Character");
}

void VGA_Screen::draw_diagonal_line(alt_up_pixel_buffer_dma_dev* pixel_buffer){
 10002c8:	defffc04 	addi	sp,sp,-16
 10002cc:	dfc00315 	stw	ra,12(sp)
 10002d0:	df000215 	stw	fp,8(sp)
 10002d4:	df000204 	addi	fp,sp,8
 10002d8:	e13ffe15 	stw	r4,-8(fp)
 10002dc:	e17fff15 	stw	r5,-4(fp)
	printf("Drawing Diagonal Line");
 10002e0:	01004074 	movhi	r4,257
 10002e4:	213a6c04 	addi	r4,r4,-5712
 10002e8:	1000b240 	call	1000b24 <printf>
}
 10002ec:	e037883a 	mov	sp,fp
 10002f0:	dfc00117 	ldw	ra,4(sp)
 10002f4:	df000017 	ldw	fp,0(sp)
 10002f8:	dec00204 	addi	sp,sp,8
 10002fc:	f800283a 	ret

01000300 <_ZN10VGA_Screen14draw_characterEP22alt_up_char_buffer_dev>:
void VGA_Screen::init(){
	printf("Initializing VGA Screen");

}

void VGA_Screen::draw_character(alt_up_char_buffer_dev* char_buffer){
 1000300:	defffc04 	addi	sp,sp,-16
 1000304:	dfc00315 	stw	ra,12(sp)
 1000308:	df000215 	stw	fp,8(sp)
 100030c:	df000204 	addi	fp,sp,8
 1000310:	e13ffe15 	stw	r4,-8(fp)
 1000314:	e17fff15 	stw	r5,-4(fp)
	printf("Drawing Character");
 1000318:	01004074 	movhi	r4,257
 100031c:	213a7204 	addi	r4,r4,-5688
 1000320:	1000b240 	call	1000b24 <printf>
}
 1000324:	e037883a 	mov	sp,fp
 1000328:	dfc00117 	ldw	ra,4(sp)
 100032c:	df000017 	ldw	fp,0(sp)
 1000330:	dec00204 	addi	sp,sp,8
 1000334:	f800283a 	ret

01000338 <_ZN10VGA_Screen4initEv>:
VGA_Screen::VGA_Screen(){
	printf("Constructing VGA Screen \n");
	pixel_buffer = init_pixel_buffer();
}

void VGA_Screen::init(){
 1000338:	defffd04 	addi	sp,sp,-12
 100033c:	dfc00215 	stw	ra,8(sp)
 1000340:	df000115 	stw	fp,4(sp)
 1000344:	df000104 	addi	fp,sp,4
 1000348:	e13fff15 	stw	r4,-4(fp)
	printf("Initializing VGA Screen");
 100034c:	01004074 	movhi	r4,257
 1000350:	213a7704 	addi	r4,r4,-5668
 1000354:	1000b240 	call	1000b24 <printf>

}
 1000358:	e037883a 	mov	sp,fp
 100035c:	dfc00117 	ldw	ra,4(sp)
 1000360:	df000017 	ldw	fp,0(sp)
 1000364:	dec00204 	addi	sp,sp,8
 1000368:	f800283a 	ret

0100036c <_ZN10VGA_ScreenC1Ev>:
 */

#include "VGA_Screen.h"

//Public Methods
VGA_Screen::VGA_Screen(){
 100036c:	defffd04 	addi	sp,sp,-12
 1000370:	dfc00215 	stw	ra,8(sp)
 1000374:	df000115 	stw	fp,4(sp)
 1000378:	df000104 	addi	fp,sp,4
 100037c:	e13fff15 	stw	r4,-4(fp)
	printf("Constructing VGA Screen \n");
 1000380:	01004074 	movhi	r4,257
 1000384:	213a7d04 	addi	r4,r4,-5644
 1000388:	1000c3c0 	call	1000c3c <puts>
	pixel_buffer = init_pixel_buffer();
 100038c:	e13fff17 	ldw	r4,-4(fp)
 1000390:	10002240 	call	1000224 <_ZN10VGA_Screen17init_pixel_bufferEv>
 1000394:	1007883a 	mov	r3,r2
 1000398:	e0bfff17 	ldw	r2,-4(fp)
 100039c:	10c00015 	stw	r3,0(r2)
}
 10003a0:	e037883a 	mov	sp,fp
 10003a4:	dfc00117 	ldw	ra,4(sp)
 10003a8:	df000017 	ldw	fp,0(sp)
 10003ac:	dec00204 	addi	sp,sp,8
 10003b0:	f800283a 	ret

010003b4 <_ZN10VGA_ScreenC2Ev>:
 */

#include "VGA_Screen.h"

//Public Methods
VGA_Screen::VGA_Screen(){
 10003b4:	defffd04 	addi	sp,sp,-12
 10003b8:	dfc00215 	stw	ra,8(sp)
 10003bc:	df000115 	stw	fp,4(sp)
 10003c0:	df000104 	addi	fp,sp,4
 10003c4:	e13fff15 	stw	r4,-4(fp)
	printf("Constructing VGA Screen \n");
 10003c8:	01004074 	movhi	r4,257
 10003cc:	213a7d04 	addi	r4,r4,-5644
 10003d0:	1000c3c0 	call	1000c3c <puts>
	pixel_buffer = init_pixel_buffer();
 10003d4:	e13fff17 	ldw	r4,-4(fp)
 10003d8:	10002240 	call	1000224 <_ZN10VGA_Screen17init_pixel_bufferEv>
 10003dc:	1007883a 	mov	r3,r2
 10003e0:	e0bfff17 	ldw	r2,-4(fp)
 10003e4:	10c00015 	stw	r3,0(r2)
}
 10003e8:	e037883a 	mov	sp,fp
 10003ec:	dfc00117 	ldw	ra,4(sp)
 10003f0:	df000017 	ldw	fp,0(sp)
 10003f4:	dec00204 	addi	sp,sp,8
 10003f8:	f800283a 	ret

010003fc <_Z12clear_screenP27alt_up_pixel_buffer_dma_dev>:
			"/dev/video_character_buffer_with_dma_0");
	alt_up_char_buffer_init(char_buffer);
	return char_buffer;
}

void clear_screen(alt_up_pixel_buffer_dma_dev* pixel_buffer) {
 10003fc:	defffd04 	addi	sp,sp,-12
 1000400:	dfc00215 	stw	ra,8(sp)
 1000404:	df000115 	stw	fp,4(sp)
 1000408:	df000104 	addi	fp,sp,4
 100040c:	e13fff15 	stw	r4,-4(fp)
	alt_up_pixel_buffer_dma_clear_screen(pixel_buffer, 0);
 1000410:	e13fff17 	ldw	r4,-4(fp)
 1000414:	000b883a 	mov	r5,zero
 1000418:	100c3cc0 	call	100c3cc <alt_up_pixel_buffer_dma_clear_screen>
}
 100041c:	e037883a 	mov	sp,fp
 1000420:	dfc00117 	ldw	ra,4(sp)
 1000424:	df000017 	ldw	fp,0(sp)
 1000428:	dec00204 	addi	sp,sp,8
 100042c:	f800283a 	ret

01000430 <main>:
		}
	}

}

int main() {
 1000430:	defffd04 	addi	sp,sp,-12
 1000434:	dfc00215 	stw	ra,8(sp)
 1000438:	df000115 	stw	fp,4(sp)
 100043c:	df000104 	addi	fp,sp,4
	VGA_Screen vga_screen;
 1000440:	e13fff04 	addi	r4,fp,-4
 1000444:	100036c0 	call	100036c <_ZN10VGA_ScreenC1Ev>
	vga_screen.init();
 1000448:	e13fff04 	addi	r4,fp,-4
 100044c:	10003380 	call	1000338 <_ZN10VGA_Screen4initEv>
 1000450:	0005883a 	mov	r2,zero
}
 1000454:	e037883a 	mov	sp,fp
 1000458:	dfc00117 	ldw	ra,4(sp)
 100045c:	df000017 	ldw	fp,0(sp)
 1000460:	dec00204 	addi	sp,sp,8
 1000464:	f800283a 	ret

01000468 <_Z10draw_boxesP27alt_up_pixel_buffer_dma_dev>:

	// Draw a white line to the foreground buffer
	alt_up_pixel_buffer_dma_draw_line(pixel_buffer, 0, 0, 320, 240, 0x00ff, 0);
}

void draw_boxes(alt_up_pixel_buffer_dma_dev* pixel_buffer) {
 1000468:	defff904 	addi	sp,sp,-28
 100046c:	dfc00615 	stw	ra,24(sp)
 1000470:	df000515 	stw	fp,20(sp)
 1000474:	df000504 	addi	fp,sp,20
 1000478:	e13fff15 	stw	r4,-4(fp)

	alt_up_pixel_buffer_dma_change_back_buffer_address(pixel_buffer,
			PIXEL_BUFFER_BASE);
 100047c:	e13fff17 	ldw	r4,-4(fp)
 1000480:	01400234 	movhi	r5,8
 1000484:	100c2e80 	call	100c2e8 <alt_up_pixel_buffer_dma_change_back_buffer_address>
	alt_up_pixel_buffer_dma_swap_buffers(pixel_buffer);
 1000488:	e13fff17 	ldw	r4,-4(fp)
 100048c:	100c3400 	call	100c340 <alt_up_pixel_buffer_dma_swap_buffers>
	while (alt_up_pixel_buffer_dma_check_swap_buffers_status(pixel_buffer))
 1000490:	e13fff17 	ldw	r4,-4(fp)
 1000494:	100c3980 	call	100c398 <alt_up_pixel_buffer_dma_check_swap_buffers_status>
 1000498:	1004c03a 	cmpne	r2,r2,zero
 100049c:	10803fcc 	andi	r2,r2,255
 10004a0:	1004c03a 	cmpne	r2,r2,zero
 10004a4:	103ffa1e 	bne	r2,zero,1000490 <_Z10draw_boxesP27alt_up_pixel_buffer_dma_dev+0x28>
		;
	alt_up_pixel_buffer_dma_clear_screen(pixel_buffer, 0);
 10004a8:	e13fff17 	ldw	r4,-4(fp)
 10004ac:	000b883a 	mov	r5,zero
 10004b0:	100c3cc0 	call	100c3cc <alt_up_pixel_buffer_dma_clear_screen>
	int hw = 0;
 10004b4:	e03ffe15 	stw	zero,-8(fp)
	if (hw) {
 10004b8:	e0bffe17 	ldw	r2,-8(fp)
 10004bc:	1005003a 	cmpeq	r2,r2,zero
 10004c0:	10001c1e 	bne	r2,zero,1000534 <_Z10draw_boxesP27alt_up_pixel_buffer_dma_dev+0xcc>
		printf("test");
 10004c4:	01004074 	movhi	r4,257
 10004c8:	213a8404 	addi	r4,r4,-5616
 10004cc:	1000b240 	call	1000b24 <printf>
		IOWR_32DIRECT(drawer_base, 0, 10);
 10004d0:	00c84004 	movi	r3,8448
 10004d4:	00800284 	movi	r2,10
 10004d8:	18800035 	stwio	r2,0(r3)
		// Set x1
		IOWR_32DIRECT(drawer_base, 4, 20);
 10004dc:	00c84104 	movi	r3,8452
 10004e0:	00800504 	movi	r2,20
 10004e4:	18800035 	stwio	r2,0(r3)
		// Set y1
		IOWR_32DIRECT(drawer_base, 8, 50);
 10004e8:	00c84204 	movi	r3,8456
 10004ec:	00800c84 	movi	r2,50
 10004f0:	18800035 	stwio	r2,0(r3)
		// Set x2
		IOWR_32DIRECT(drawer_base, 12, 60);
 10004f4:	00c84304 	movi	r3,8460
 10004f8:	00800f04 	movi	r2,60
 10004fc:	18800035 	stwio	r2,0(r3)
		// Set y2
		IOWR_32DIRECT(drawer_base, 16, 0x0110);
 1000500:	00c84404 	movi	r3,8464
 1000504:	00804404 	movi	r2,272
 1000508:	18800035 	stwio	r2,0(r3)
		// Set colour
		IOWR_32DIRECT(drawer_base, 20, 1);
 100050c:	00c84504 	movi	r3,8468
 1000510:	00800044 	movi	r2,1
 1000514:	18800035 	stwio	r2,0(r3)
		// Start drawing
		while (IORD_32DIRECT(drawer_base,20) == 0)
 1000518:	00884504 	movi	r2,8468
 100051c:	10800037 	ldwio	r2,0(r2)
 1000520:	1005003a 	cmpeq	r2,r2,zero
 1000524:	10803fcc 	andi	r2,r2,255
 1000528:	1004c03a 	cmpne	r2,r2,zero
 100052c:	103ffa1e 	bne	r2,zero,1000518 <_Z10draw_boxesP27alt_up_pixel_buffer_dma_dev+0xb0>
 1000530:	00000d06 	br	1000568 <_Z10draw_boxesP27alt_up_pixel_buffer_dma_dev+0x100>
			; // wait until done
	} else {
		printf("test2");
 1000534:	01004074 	movhi	r4,257
 1000538:	213a8604 	addi	r4,r4,-5608
 100053c:	1000b240 	call	1000b24 <printf>
		alt_up_pixel_buffer_dma_draw_box(pixel_buffer, 10, 20, 50, 60, 0x0101,
				0);
 1000540:	00800f04 	movi	r2,60
 1000544:	d8800015 	stw	r2,0(sp)
 1000548:	00804044 	movi	r2,257
 100054c:	d8800115 	stw	r2,4(sp)
 1000550:	d8000215 	stw	zero,8(sp)
 1000554:	e13fff17 	ldw	r4,-4(fp)
 1000558:	01400284 	movi	r5,10
 100055c:	01800504 	movi	r6,20
 1000560:	01c00c84 	movi	r7,50
 1000564:	100c5380 	call	100c538 <alt_up_pixel_buffer_dma_draw_box>
	}
}
 1000568:	e037883a 	mov	sp,fp
 100056c:	dfc00117 	ldw	ra,4(sp)
 1000570:	df000017 	ldw	fp,0(sp)
 1000574:	dec00204 	addi	sp,sp,8
 1000578:	f800283a 	ret

0100057c <_Z18draw_diagonal_lineP27alt_up_pixel_buffer_dma_dev>:

	alt_up_char_buffer_string(char_buffer, "eece381", 40, 30);

}

void draw_diagonal_line(alt_up_pixel_buffer_dma_dev* pixel_buffer) {
 100057c:	defffa04 	addi	sp,sp,-24
 1000580:	dfc00515 	stw	ra,20(sp)
 1000584:	df000415 	stw	fp,16(sp)
 1000588:	df000404 	addi	fp,sp,16
 100058c:	e13fff15 	stw	r4,-4(fp)

	// Draw a white line to the foreground buffer
	alt_up_pixel_buffer_dma_draw_line(pixel_buffer, 0, 0, 320, 240, 0x00ff, 0);
 1000590:	00803c04 	movi	r2,240
 1000594:	d8800015 	stw	r2,0(sp)
 1000598:	00803fc4 	movi	r2,255
 100059c:	d8800115 	stw	r2,4(sp)
 10005a0:	d8000215 	stw	zero,8(sp)
 10005a4:	e13fff17 	ldw	r4,-4(fp)
 10005a8:	000b883a 	mov	r5,zero
 10005ac:	000d883a 	mov	r6,zero
 10005b0:	01c05004 	movi	r7,320
 10005b4:	100d3000 	call	100d300 <alt_up_pixel_buffer_dma_draw_line>
}
 10005b8:	e037883a 	mov	sp,fp
 10005bc:	dfc00117 	ldw	ra,4(sp)
 10005c0:	df000017 	ldw	fp,0(sp)
 10005c4:	dec00204 	addi	sp,sp,8
 10005c8:	f800283a 	ret

010005cc <_Z14draw_characterP22alt_up_char_buffer_dev>:

void clear_screen(alt_up_pixel_buffer_dma_dev* pixel_buffer) {
	alt_up_pixel_buffer_dma_clear_screen(pixel_buffer, 0);
}

void draw_character(alt_up_char_buffer_dev *char_buffer) {
 10005cc:	defffd04 	addi	sp,sp,-12
 10005d0:	dfc00215 	stw	ra,8(sp)
 10005d4:	df000115 	stw	fp,4(sp)
 10005d8:	df000104 	addi	fp,sp,4
 10005dc:	e13fff15 	stw	r4,-4(fp)

	alt_up_char_buffer_string(char_buffer, "eece381", 40, 30);
 10005e0:	e13fff17 	ldw	r4,-4(fp)
 10005e4:	01404074 	movhi	r5,257
 10005e8:	297a8804 	addi	r5,r5,-5600
 10005ec:	01800a04 	movi	r6,40
 10005f0:	01c00784 	movi	r7,30
 10005f4:	100bf8c0 	call	100bf8c <alt_up_char_buffer_string>

}
 10005f8:	e037883a 	mov	sp,fp
 10005fc:	dfc00117 	ldw	ra,4(sp)
 1000600:	df000017 	ldw	fp,0(sp)
 1000604:	dec00204 	addi	sp,sp,8
 1000608:	f800283a 	ret

0100060c <_Z16init_char_bufferv>:
	alt_up_pixel_buffer_dma_dev* pixel_buffer;
	pixel_buffer = alt_up_pixel_buffer_dma_open_dev("/dev/buffer_dma");
	return pixel_buffer;
}

alt_up_char_buffer_dev* init_char_buffer() {
 100060c:	defffd04 	addi	sp,sp,-12
 1000610:	dfc00215 	stw	ra,8(sp)
 1000614:	df000115 	stw	fp,4(sp)
 1000618:	df000104 	addi	fp,sp,4
	alt_up_char_buffer_dev* char_buffer;
	char_buffer = alt_up_char_buffer_open_dev(
			"/dev/video_character_buffer_with_dma_0");
 100061c:	01004074 	movhi	r4,257
 1000620:	213a8a04 	addi	r4,r4,-5592
 1000624:	100be7c0 	call	100be7c <alt_up_char_buffer_open_dev>
 1000628:	e0bfff15 	stw	r2,-4(fp)
	alt_up_char_buffer_init(char_buffer);
 100062c:	e13fff17 	ldw	r4,-4(fp)
 1000630:	100bdf80 	call	100bdf8 <alt_up_char_buffer_init>
	return char_buffer;
 1000634:	e0bfff17 	ldw	r2,-4(fp)
}
 1000638:	e037883a 	mov	sp,fp
 100063c:	dfc00117 	ldw	ra,4(sp)
 1000640:	df000017 	ldw	fp,0(sp)
 1000644:	dec00204 	addi	sp,sp,8
 1000648:	f800283a 	ret

0100064c <_Z17init_pixel_bufferv>:
	alt_up_char_buffer_dev* char_buffer = init_char_buffer();
	//clear_screen(pixel_buffer);
	draw_character(char_buffer);
}

alt_up_pixel_buffer_dma_dev* init_pixel_buffer() {
 100064c:	defffd04 	addi	sp,sp,-12
 1000650:	dfc00215 	stw	ra,8(sp)
 1000654:	df000115 	stw	fp,4(sp)
 1000658:	df000104 	addi	fp,sp,4
	alt_up_pixel_buffer_dma_dev* pixel_buffer;
	pixel_buffer = alt_up_pixel_buffer_dma_open_dev("/dev/buffer_dma");
 100065c:	01004074 	movhi	r4,257
 1000660:	213a9404 	addi	r4,r4,-5552
 1000664:	100c0fc0 	call	100c0fc <alt_up_pixel_buffer_dma_open_dev>
 1000668:	e0bfff15 	stw	r2,-4(fp)
	return pixel_buffer;
 100066c:	e0bfff17 	ldw	r2,-4(fp)
}
 1000670:	e037883a 	mov	sp,fp
 1000674:	dfc00117 	ldw	ra,4(sp)
 1000678:	df000017 	ldw	fp,0(sp)
 100067c:	dec00204 	addi	sp,sp,8
 1000680:	f800283a 	ret

01000684 <_Z8junkcodev>:
int main() {
	VGA_Screen vga_screen;
	vga_screen.init();
}

void junkcode(){
 1000684:	defffd04 	addi	sp,sp,-12
 1000688:	dfc00215 	stw	ra,8(sp)
 100068c:	df000115 	stw	fp,4(sp)
 1000690:	df000104 	addi	fp,sp,4
	printf("eclipse is a bitch");
 1000694:	01004074 	movhi	r4,257
 1000698:	213a9804 	addi	r4,r4,-5536
 100069c:	1000b240 	call	1000b24 <printf>
		alt_up_pixel_buffer_dma_dev *pixel_buffer = init_pixel_buffer();
 10006a0:	100064c0 	call	100064c <_Z17init_pixel_bufferv>
 10006a4:	e0bfff15 	stw	r2,-4(fp)
		if (pixel_buffer == 0) {
 10006a8:	e0bfff17 	ldw	r2,-4(fp)
 10006ac:	1004c03a 	cmpne	r2,r2,zero
 10006b0:	1000031e 	bne	r2,zero,10006c0 <_Z8junkcodev+0x3c>
			printf(
					"error initializing pixel buffer (check name in alt_up_pixel_buffer_dma_open_dev)\n");
 10006b4:	01004074 	movhi	r4,257
 10006b8:	213a9d04 	addi	r4,r4,-5516
 10006bc:	1000c3c0 	call	1000c3c <puts>
		}
		alt_up_pixel_buffer_dma_change_back_buffer_address(pixel_buffer,
				PIXEL_BUFFER_BASE);
 10006c0:	e13fff17 	ldw	r4,-4(fp)
 10006c4:	01400234 	movhi	r5,8
 10006c8:	100c2e80 	call	100c2e8 <alt_up_pixel_buffer_dma_change_back_buffer_address>
		alt_up_pixel_buffer_dma_swap_buffers(pixel_buffer);
 10006cc:	e13fff17 	ldw	r4,-4(fp)
 10006d0:	100c3400 	call	100c340 <alt_up_pixel_buffer_dma_swap_buffers>
		while (alt_up_pixel_buffer_dma_check_swap_buffers_status(pixel_buffer))
 10006d4:	e13fff17 	ldw	r4,-4(fp)
 10006d8:	100c3980 	call	100c398 <alt_up_pixel_buffer_dma_check_swap_buffers_status>
 10006dc:	1004c03a 	cmpne	r2,r2,zero
 10006e0:	10803fcc 	andi	r2,r2,255
 10006e4:	1004c03a 	cmpne	r2,r2,zero
 10006e8:	103ffa1e 	bne	r2,zero,10006d4 <_Z8junkcodev+0x50>
			;
		alt_up_pixel_buffer_dma_clear_screen(pixel_buffer, 0);
 10006ec:	e13fff17 	ldw	r4,-4(fp)
 10006f0:	000b883a 	mov	r5,zero
 10006f4:	100c3cc0 	call	100c3cc <alt_up_pixel_buffer_dma_clear_screen>
}
 10006f8:	e037883a 	mov	sp,fp
 10006fc:	dfc00117 	ldw	ra,4(sp)
 1000700:	df000017 	ldw	fp,0(sp)
 1000704:	dec00204 	addi	sp,sp,8
 1000708:	f800283a 	ret

0100070c <_Z3ex5v>:
		alt_up_pixel_buffer_dma_draw_box(pixel_buffer, 10, 20, 50, 60, 0x0101,
				0);
	}
}

void ex5() {
 100070c:	defff304 	addi	sp,sp,-52
 1000710:	dfc00c15 	stw	ra,48(sp)
 1000714:	df000b15 	stw	fp,44(sp)
 1000718:	df000b04 	addi	fp,sp,44

	alt_up_pixel_buffer_dma_dev *pixel_buffer = init_pixel_buffer();
 100071c:	100064c0 	call	100064c <_Z17init_pixel_bufferv>
 1000720:	e0bff915 	stw	r2,-28(fp)
	if (pixel_buffer == 0) {
 1000724:	e0bff917 	ldw	r2,-28(fp)
 1000728:	1004c03a 	cmpne	r2,r2,zero
 100072c:	1000031e 	bne	r2,zero,100073c <_Z3ex5v+0x30>
		printf(
				"error initializing pixel buffer (check name in alt_up_pixel_buffer_dma_open_dev)\n");
 1000730:	01004074 	movhi	r4,257
 1000734:	213a9d04 	addi	r4,r4,-5516
 1000738:	1000c3c0 	call	1000c3c <puts>
	}
	alt_up_pixel_buffer_dma_change_back_buffer_address(pixel_buffer,
			PIXEL_BUFFER_BASE);
 100073c:	e13ff917 	ldw	r4,-28(fp)
 1000740:	01400234 	movhi	r5,8
 1000744:	100c2e80 	call	100c2e8 <alt_up_pixel_buffer_dma_change_back_buffer_address>
	alt_up_pixel_buffer_dma_swap_buffers(pixel_buffer);
 1000748:	e13ff917 	ldw	r4,-28(fp)
 100074c:	100c3400 	call	100c340 <alt_up_pixel_buffer_dma_swap_buffers>
	while (alt_up_pixel_buffer_dma_check_swap_buffers_status(pixel_buffer))
 1000750:	e13ff917 	ldw	r4,-28(fp)
 1000754:	100c3980 	call	100c398 <alt_up_pixel_buffer_dma_check_swap_buffers_status>
 1000758:	1004c03a 	cmpne	r2,r2,zero
 100075c:	10803fcc 	andi	r2,r2,255
 1000760:	1004c03a 	cmpne	r2,r2,zero
 1000764:	103ffa1e 	bne	r2,zero,1000750 <_Z3ex5v+0x44>
		;
	alt_up_pixel_buffer_dma_clear_screen(pixel_buffer, 0);
 1000768:	e13ff917 	ldw	r4,-28(fp)
 100076c:	000b883a 	mov	r5,zero
 1000770:	100c3cc0 	call	100c3cc <alt_up_pixel_buffer_dma_clear_screen>

	int hw = 1;
 1000774:	00800044 	movi	r2,1
 1000778:	e0bff815 	stw	r2,-32(fp)
 100077c:	00000006 	br	1000780 <_Z3ex5v+0x74>
	while (1) {
		if (hw) {
 1000780:	e0bff817 	ldw	r2,-32(fp)
 1000784:	1005003a 	cmpeq	r2,r2,zero
 1000788:	10003b1e 	bne	r2,zero,1000878 <_Z3ex5v+0x16c>

			IOWR_32DIRECT(drawer_base, 0, rand()%320);
 100078c:	1000c6c0 	call	1000c6c <rand>
 1000790:	1009883a 	mov	r4,r2
 1000794:	01405004 	movi	r5,320
 1000798:	1000ab40 	call	1000ab4 <__modsi3>
 100079c:	1007883a 	mov	r3,r2
 10007a0:	00884004 	movi	r2,8448
 10007a4:	10c00035 	stwio	r3,0(r2)
			// Set x1
			IOWR_32DIRECT(drawer_base, 4, rand()%240);
 10007a8:	1000c6c0 	call	1000c6c <rand>
 10007ac:	1009883a 	mov	r4,r2
 10007b0:	01403c04 	movi	r5,240
 10007b4:	1000ab40 	call	1000ab4 <__modsi3>
 10007b8:	1007883a 	mov	r3,r2
 10007bc:	00884104 	movi	r2,8452
 10007c0:	10c00035 	stwio	r3,0(r2)
			// Set y1
			IOWR_32DIRECT(drawer_base, 8, rand()%320);
 10007c4:	1000c6c0 	call	1000c6c <rand>
 10007c8:	1009883a 	mov	r4,r2
 10007cc:	01405004 	movi	r5,320
 10007d0:	1000ab40 	call	1000ab4 <__modsi3>
 10007d4:	1007883a 	mov	r3,r2
 10007d8:	00884204 	movi	r2,8456
 10007dc:	10c00035 	stwio	r3,0(r2)
			// Set x2
			IOWR_32DIRECT(drawer_base, 12, rand()%320);
 10007e0:	1000c6c0 	call	1000c6c <rand>
 10007e4:	1009883a 	mov	r4,r2
 10007e8:	01405004 	movi	r5,320
 10007ec:	1000ab40 	call	1000ab4 <__modsi3>
 10007f0:	1007883a 	mov	r3,r2
 10007f4:	00884304 	movi	r2,8460
 10007f8:	10c00035 	stwio	r3,0(r2)
			// Set y2
			IOWR_32DIRECT(drawer_base, 16, rand()%0x10000);
 10007fc:	1000c6c0 	call	1000c6c <rand>
 1000800:	1007883a 	mov	r3,r2
 1000804:	00a00074 	movhi	r2,32769
 1000808:	10bfffc4 	addi	r2,r2,-1
 100080c:	1886703a 	and	r3,r3,r2
 1000810:	e0fffe15 	stw	r3,-8(fp)
 1000814:	e0fffe17 	ldw	r3,-8(fp)
 1000818:	1804403a 	cmpge	r2,r3,zero
 100081c:	1000091e 	bne	r2,zero,1000844 <_Z3ex5v+0x138>
 1000820:	e0bffe17 	ldw	r2,-8(fp)
 1000824:	10bfffc4 	addi	r2,r2,-1
 1000828:	e0bffe15 	stw	r2,-8(fp)
 100082c:	e0fffe17 	ldw	r3,-8(fp)
 1000830:	18fffff4 	orhi	r3,r3,65535
 1000834:	e0fffe15 	stw	r3,-8(fp)
 1000838:	e0bffe17 	ldw	r2,-8(fp)
 100083c:	10800044 	addi	r2,r2,1
 1000840:	e0bffe15 	stw	r2,-8(fp)
 1000844:	e0fffe17 	ldw	r3,-8(fp)
 1000848:	00884404 	movi	r2,8464
 100084c:	10c00035 	stwio	r3,0(r2)
			// Set colour
			IOWR_32DIRECT(drawer_base, 20, 1);
 1000850:	00c84504 	movi	r3,8468
 1000854:	00800044 	movi	r2,1
 1000858:	18800035 	stwio	r2,0(r3)
			// Start drawing
			while (IORD_32DIRECT(drawer_base,20) == 0)
 100085c:	00884504 	movi	r2,8468
 1000860:	10800037 	ldwio	r2,0(r2)
 1000864:	1005003a 	cmpeq	r2,r2,zero
 1000868:	10803fcc 	andi	r2,r2,255
 100086c:	1004c03a 	cmpne	r2,r2,zero
 1000870:	103ffa1e 	bne	r2,zero,100085c <_Z3ex5v+0x150>
 1000874:	003fc206 	br	1000780 <_Z3ex5v+0x74>
				; // wait until done
		} else {
			alt_up_pixel_buffer_dma_draw_box(pixel_buffer, rand() % 320,
					rand() % 240, rand() % 320, rand() % 320, rand() % 0x10000,
					0);
 1000878:	1000c6c0 	call	1000c6c <rand>
 100087c:	1009883a 	mov	r4,r2
 1000880:	01405004 	movi	r5,320
 1000884:	1000ab40 	call	1000ab4 <__modsi3>
 1000888:	e0bffd15 	stw	r2,-12(fp)
 100088c:	1000c6c0 	call	1000c6c <rand>
 1000890:	1009883a 	mov	r4,r2
 1000894:	01403c04 	movi	r5,240
 1000898:	1000ab40 	call	1000ab4 <__modsi3>
 100089c:	e0bffc15 	stw	r2,-16(fp)
 10008a0:	1000c6c0 	call	1000c6c <rand>
 10008a4:	1009883a 	mov	r4,r2
 10008a8:	01405004 	movi	r5,320
 10008ac:	1000ab40 	call	1000ab4 <__modsi3>
 10008b0:	e0bffb15 	stw	r2,-20(fp)
 10008b4:	1000c6c0 	call	1000c6c <rand>
 10008b8:	1009883a 	mov	r4,r2
 10008bc:	01405004 	movi	r5,320
 10008c0:	1000ab40 	call	1000ab4 <__modsi3>
 10008c4:	e0bffa15 	stw	r2,-24(fp)
 10008c8:	1000c6c0 	call	1000c6c <rand>
 10008cc:	1007883a 	mov	r3,r2
 10008d0:	00a00074 	movhi	r2,32769
 10008d4:	10bfffc4 	addi	r2,r2,-1
 10008d8:	1886703a 	and	r3,r3,r2
 10008dc:	e0ffff15 	stw	r3,-4(fp)
 10008e0:	e0ffff17 	ldw	r3,-4(fp)
 10008e4:	1804403a 	cmpge	r2,r3,zero
 10008e8:	1000091e 	bne	r2,zero,1000910 <_Z3ex5v+0x204>
 10008ec:	e0bfff17 	ldw	r2,-4(fp)
 10008f0:	10bfffc4 	addi	r2,r2,-1
 10008f4:	e0bfff15 	stw	r2,-4(fp)
 10008f8:	e0ffff17 	ldw	r3,-4(fp)
 10008fc:	18fffff4 	orhi	r3,r3,65535
 1000900:	e0ffff15 	stw	r3,-4(fp)
 1000904:	e0bfff17 	ldw	r2,-4(fp)
 1000908:	10800044 	addi	r2,r2,1
 100090c:	e0bfff15 	stw	r2,-4(fp)
 1000910:	e0bfff17 	ldw	r2,-4(fp)
 1000914:	e0fffa17 	ldw	r3,-24(fp)
 1000918:	d8c00015 	stw	r3,0(sp)
 100091c:	d8800115 	stw	r2,4(sp)
 1000920:	d8000215 	stw	zero,8(sp)
 1000924:	e13ff917 	ldw	r4,-28(fp)
 1000928:	e17ffd17 	ldw	r5,-12(fp)
 100092c:	e1bffc17 	ldw	r6,-16(fp)
 1000930:	e1fffb17 	ldw	r7,-20(fp)
 1000934:	100c5380 	call	100c538 <alt_up_pixel_buffer_dma_draw_box>
	while (alt_up_pixel_buffer_dma_check_swap_buffers_status(pixel_buffer))
		;
	alt_up_pixel_buffer_dma_clear_screen(pixel_buffer, 0);

	int hw = 1;
	while (1) {
 1000938:	003f9106 	br	1000780 <_Z3ex5v+0x74>

0100093c <_Z3ex4v>:
void clear_screen(alt_up_pixel_buffer_dma_dev* pixel_buffer);
alt_up_char_buffer_dev* init_char_buffer();
void ex4();
void ex5();

void ex4() {
 100093c:	defffc04 	addi	sp,sp,-16
 1000940:	dfc00315 	stw	ra,12(sp)
 1000944:	df000215 	stw	fp,8(sp)
 1000948:	df000204 	addi	fp,sp,8
	alt_up_pixel_buffer_dma_dev* pixel_buffer;
	pixel_buffer = alt_up_pixel_buffer_dma_open_dev("/dev/buffer_dma");
 100094c:	01004074 	movhi	r4,257
 1000950:	213a9404 	addi	r4,r4,-5552
 1000954:	100c0fc0 	call	100c0fc <alt_up_pixel_buffer_dma_open_dev>
 1000958:	e0bfff15 	stw	r2,-4(fp)
	if (pixel_buffer == 0) {
 100095c:	e0bfff17 	ldw	r2,-4(fp)
 1000960:	1004c03a 	cmpne	r2,r2,zero
 1000964:	1000031e 	bne	r2,zero,1000974 <_Z3ex4v+0x38>
		printf(
				"error initializing pixel buffer (check name in alt_up_pixel_buffer_dma_open_dev)\n");
 1000968:	01004074 	movhi	r4,257
 100096c:	213a9d04 	addi	r4,r4,-5516
 1000970:	1000c3c0 	call	1000c3c <puts>
	}
	alt_up_pixel_buffer_dma_change_back_buffer_address(pixel_buffer,
			PIXEL_BUFFER_BASE);
 1000974:	e13fff17 	ldw	r4,-4(fp)
 1000978:	01400234 	movhi	r5,8
 100097c:	100c2e80 	call	100c2e8 <alt_up_pixel_buffer_dma_change_back_buffer_address>
	// Swap background and foreground buffers
	alt_up_pixel_buffer_dma_swap_buffers(pixel_buffer);
 1000980:	e13fff17 	ldw	r4,-4(fp)
 1000984:	100c3400 	call	100c340 <alt_up_pixel_buffer_dma_swap_buffers>

	while (alt_up_pixel_buffer_dma_check_swap_buffers_status(pixel_buffer))
 1000988:	e13fff17 	ldw	r4,-4(fp)
 100098c:	100c3980 	call	100c398 <alt_up_pixel_buffer_dma_check_swap_buffers_status>
 1000990:	1004c03a 	cmpne	r2,r2,zero
 1000994:	10803fcc 	andi	r2,r2,255
 1000998:	1004c03a 	cmpne	r2,r2,zero
 100099c:	103ffa1e 	bne	r2,zero,1000988 <_Z3ex4v+0x4c>
		;
	// Clear the screen
	alt_up_pixel_buffer_dma_clear_screen(pixel_buffer, 0);
 10009a0:	e13fff17 	ldw	r4,-4(fp)
 10009a4:	000b883a 	mov	r5,zero
 10009a8:	100c3cc0 	call	100c3cc <alt_up_pixel_buffer_dma_clear_screen>
	draw_diagonal_line(pixel_buffer);
 10009ac:	e13fff17 	ldw	r4,-4(fp)
 10009b0:	100057c0 	call	100057c <_Z18draw_diagonal_lineP27alt_up_pixel_buffer_dma_dev>
	alt_up_char_buffer_dev* char_buffer = init_char_buffer();
 10009b4:	100060c0 	call	100060c <_Z16init_char_bufferv>
 10009b8:	e0bffe15 	stw	r2,-8(fp)
	//clear_screen(pixel_buffer);
	draw_character(char_buffer);
 10009bc:	e13ffe17 	ldw	r4,-8(fp)
 10009c0:	10005cc0 	call	10005cc <_Z14draw_characterP22alt_up_char_buffer_dev>
}
 10009c4:	e037883a 	mov	sp,fp
 10009c8:	dfc00117 	ldw	ra,4(sp)
 10009cc:	df000017 	ldw	fp,0(sp)
 10009d0:	dec00204 	addi	sp,sp,8
 10009d4:	f800283a 	ret

010009d8 <udivmodsi4>:
 10009d8:	29001b2e 	bgeu	r5,r4,1000a48 <udivmodsi4+0x70>
 10009dc:	28001a16 	blt	r5,zero,1000a48 <udivmodsi4+0x70>
 10009e0:	00800044 	movi	r2,1
 10009e4:	0007883a 	mov	r3,zero
 10009e8:	01c007c4 	movi	r7,31
 10009ec:	00000306 	br	10009fc <udivmodsi4+0x24>
 10009f0:	19c01326 	beq	r3,r7,1000a40 <udivmodsi4+0x68>
 10009f4:	18c00044 	addi	r3,r3,1
 10009f8:	28000416 	blt	r5,zero,1000a0c <udivmodsi4+0x34>
 10009fc:	294b883a 	add	r5,r5,r5
 1000a00:	1085883a 	add	r2,r2,r2
 1000a04:	293ffa36 	bltu	r5,r4,10009f0 <udivmodsi4+0x18>
 1000a08:	10000d26 	beq	r2,zero,1000a40 <udivmodsi4+0x68>
 1000a0c:	0007883a 	mov	r3,zero
 1000a10:	21400236 	bltu	r4,r5,1000a1c <udivmodsi4+0x44>
 1000a14:	2149c83a 	sub	r4,r4,r5
 1000a18:	1886b03a 	or	r3,r3,r2
 1000a1c:	1004d07a 	srli	r2,r2,1
 1000a20:	280ad07a 	srli	r5,r5,1
 1000a24:	103ffa1e 	bne	r2,zero,1000a10 <udivmodsi4+0x38>
 1000a28:	30000226 	beq	r6,zero,1000a34 <udivmodsi4+0x5c>
 1000a2c:	2005883a 	mov	r2,r4
 1000a30:	f800283a 	ret
 1000a34:	1809883a 	mov	r4,r3
 1000a38:	2005883a 	mov	r2,r4
 1000a3c:	f800283a 	ret
 1000a40:	0007883a 	mov	r3,zero
 1000a44:	003ff806 	br	1000a28 <udivmodsi4+0x50>
 1000a48:	00800044 	movi	r2,1
 1000a4c:	0007883a 	mov	r3,zero
 1000a50:	003fef06 	br	1000a10 <udivmodsi4+0x38>

01000a54 <__divsi3>:
 1000a54:	defffe04 	addi	sp,sp,-8
 1000a58:	dc000015 	stw	r16,0(sp)
 1000a5c:	dfc00115 	stw	ra,4(sp)
 1000a60:	0021883a 	mov	r16,zero
 1000a64:	20000c16 	blt	r4,zero,1000a98 <__divsi3+0x44>
 1000a68:	000d883a 	mov	r6,zero
 1000a6c:	28000e16 	blt	r5,zero,1000aa8 <__divsi3+0x54>
 1000a70:	10009d80 	call	10009d8 <udivmodsi4>
 1000a74:	1007883a 	mov	r3,r2
 1000a78:	8005003a 	cmpeq	r2,r16,zero
 1000a7c:	1000011e 	bne	r2,zero,1000a84 <__divsi3+0x30>
 1000a80:	00c7c83a 	sub	r3,zero,r3
 1000a84:	1805883a 	mov	r2,r3
 1000a88:	dfc00117 	ldw	ra,4(sp)
 1000a8c:	dc000017 	ldw	r16,0(sp)
 1000a90:	dec00204 	addi	sp,sp,8
 1000a94:	f800283a 	ret
 1000a98:	0109c83a 	sub	r4,zero,r4
 1000a9c:	04000044 	movi	r16,1
 1000aa0:	000d883a 	mov	r6,zero
 1000aa4:	283ff20e 	bge	r5,zero,1000a70 <__divsi3+0x1c>
 1000aa8:	014bc83a 	sub	r5,zero,r5
 1000aac:	8021003a 	cmpeq	r16,r16,zero
 1000ab0:	003fef06 	br	1000a70 <__divsi3+0x1c>

01000ab4 <__modsi3>:
 1000ab4:	deffff04 	addi	sp,sp,-4
 1000ab8:	dfc00015 	stw	ra,0(sp)
 1000abc:	01800044 	movi	r6,1
 1000ac0:	2807883a 	mov	r3,r5
 1000ac4:	20000416 	blt	r4,zero,1000ad8 <__modsi3+0x24>
 1000ac8:	28000c16 	blt	r5,zero,1000afc <__modsi3+0x48>
 1000acc:	dfc00017 	ldw	ra,0(sp)
 1000ad0:	dec00104 	addi	sp,sp,4
 1000ad4:	10009d81 	jmpi	10009d8 <udivmodsi4>
 1000ad8:	0109c83a 	sub	r4,zero,r4
 1000adc:	28000b16 	blt	r5,zero,1000b0c <__modsi3+0x58>
 1000ae0:	180b883a 	mov	r5,r3
 1000ae4:	01800044 	movi	r6,1
 1000ae8:	10009d80 	call	10009d8 <udivmodsi4>
 1000aec:	0085c83a 	sub	r2,zero,r2
 1000af0:	dfc00017 	ldw	ra,0(sp)
 1000af4:	dec00104 	addi	sp,sp,4
 1000af8:	f800283a 	ret
 1000afc:	014bc83a 	sub	r5,zero,r5
 1000b00:	dfc00017 	ldw	ra,0(sp)
 1000b04:	dec00104 	addi	sp,sp,4
 1000b08:	10009d81 	jmpi	10009d8 <udivmodsi4>
 1000b0c:	0147c83a 	sub	r3,zero,r5
 1000b10:	003ff306 	br	1000ae0 <__modsi3+0x2c>

01000b14 <__udivsi3>:
 1000b14:	000d883a 	mov	r6,zero
 1000b18:	10009d81 	jmpi	10009d8 <udivmodsi4>

01000b1c <__umodsi3>:
 1000b1c:	01800044 	movi	r6,1
 1000b20:	10009d81 	jmpi	10009d8 <udivmodsi4>

01000b24 <printf>:
 1000b24:	defffb04 	addi	sp,sp,-20
 1000b28:	dfc00115 	stw	ra,4(sp)
 1000b2c:	d9400215 	stw	r5,8(sp)
 1000b30:	d9800315 	stw	r6,12(sp)
 1000b34:	d9c00415 	stw	r7,16(sp)
 1000b38:	00804074 	movhi	r2,257
 1000b3c:	10824c04 	addi	r2,r2,2352
 1000b40:	10c00017 	ldw	r3,0(r2)
 1000b44:	200b883a 	mov	r5,r4
 1000b48:	d8800204 	addi	r2,sp,8
 1000b4c:	19000217 	ldw	r4,8(r3)
 1000b50:	100d883a 	mov	r6,r2
 1000b54:	d8800015 	stw	r2,0(sp)
 1000b58:	1002c740 	call	1002c74 <__vfprintf_internal>
 1000b5c:	dfc00117 	ldw	ra,4(sp)
 1000b60:	dec00504 	addi	sp,sp,20
 1000b64:	f800283a 	ret

01000b68 <_printf_r>:
 1000b68:	defffc04 	addi	sp,sp,-16
 1000b6c:	dfc00115 	stw	ra,4(sp)
 1000b70:	d9800215 	stw	r6,8(sp)
 1000b74:	d9c00315 	stw	r7,12(sp)
 1000b78:	280d883a 	mov	r6,r5
 1000b7c:	21400217 	ldw	r5,8(r4)
 1000b80:	d8c00204 	addi	r3,sp,8
 1000b84:	180f883a 	mov	r7,r3
 1000b88:	d8c00015 	stw	r3,0(sp)
 1000b8c:	1000db00 	call	1000db0 <___vfprintf_internal_r>
 1000b90:	dfc00117 	ldw	ra,4(sp)
 1000b94:	dec00404 	addi	sp,sp,16
 1000b98:	f800283a 	ret

01000b9c <_puts_r>:
 1000b9c:	defff604 	addi	sp,sp,-40
 1000ba0:	dc400715 	stw	r17,28(sp)
 1000ba4:	2023883a 	mov	r17,r4
 1000ba8:	2809883a 	mov	r4,r5
 1000bac:	dfc00915 	stw	ra,36(sp)
 1000bb0:	dcc00815 	stw	r19,32(sp)
 1000bb4:	2827883a 	mov	r19,r5
 1000bb8:	1000ce40 	call	1000ce4 <strlen>
 1000bbc:	89400217 	ldw	r5,8(r17)
 1000bc0:	00c04074 	movhi	r3,257
 1000bc4:	18fab204 	addi	r3,r3,-5432
 1000bc8:	01c00044 	movi	r7,1
 1000bcc:	12000044 	addi	r8,r2,1
 1000bd0:	d8c00515 	stw	r3,20(sp)
 1000bd4:	d9c00615 	stw	r7,24(sp)
 1000bd8:	d8c00304 	addi	r3,sp,12
 1000bdc:	01c00084 	movi	r7,2
 1000be0:	8809883a 	mov	r4,r17
 1000be4:	d80d883a 	mov	r6,sp
 1000be8:	d8c00015 	stw	r3,0(sp)
 1000bec:	dcc00315 	stw	r19,12(sp)
 1000bf0:	da000215 	stw	r8,8(sp)
 1000bf4:	d9c00115 	stw	r7,4(sp)
 1000bf8:	d8800415 	stw	r2,16(sp)
 1000bfc:	1004f300 	call	1004f30 <__sfvwrite_r>
 1000c00:	00ffffc4 	movi	r3,-1
 1000c04:	10000626 	beq	r2,zero,1000c20 <_puts_r+0x84>
 1000c08:	1805883a 	mov	r2,r3
 1000c0c:	dfc00917 	ldw	ra,36(sp)
 1000c10:	dcc00817 	ldw	r19,32(sp)
 1000c14:	dc400717 	ldw	r17,28(sp)
 1000c18:	dec00a04 	addi	sp,sp,40
 1000c1c:	f800283a 	ret
 1000c20:	00c00284 	movi	r3,10
 1000c24:	1805883a 	mov	r2,r3
 1000c28:	dfc00917 	ldw	ra,36(sp)
 1000c2c:	dcc00817 	ldw	r19,32(sp)
 1000c30:	dc400717 	ldw	r17,28(sp)
 1000c34:	dec00a04 	addi	sp,sp,40
 1000c38:	f800283a 	ret

01000c3c <puts>:
 1000c3c:	00804074 	movhi	r2,257
 1000c40:	10824c04 	addi	r2,r2,2352
 1000c44:	200b883a 	mov	r5,r4
 1000c48:	11000017 	ldw	r4,0(r2)
 1000c4c:	1000b9c1 	jmpi	1000b9c <_puts_r>

01000c50 <srand>:
 1000c50:	00804074 	movhi	r2,257
 1000c54:	10824c04 	addi	r2,r2,2352
 1000c58:	11400017 	ldw	r5,0(r2)
 1000c5c:	0007883a 	mov	r3,zero
 1000c60:	28c02a15 	stw	r3,168(r5)
 1000c64:	29002915 	stw	r4,164(r5)
 1000c68:	f800283a 	ret

01000c6c <rand>:
 1000c6c:	defffe04 	addi	sp,sp,-8
 1000c70:	00804074 	movhi	r2,257
 1000c74:	10824c04 	addi	r2,r2,2352
 1000c78:	dc000015 	stw	r16,0(sp)
 1000c7c:	14000017 	ldw	r16,0(r2)
 1000c80:	dfc00115 	stw	ra,4(sp)
 1000c84:	00932574 	movhi	r2,19605
 1000c88:	109fcb44 	addi	r2,r2,32557
 1000c8c:	82002917 	ldw	r8,164(r16)
 1000c90:	82402a17 	ldw	r9,168(r16)
 1000c94:	00d614b4 	movhi	r3,22610
 1000c98:	18fd0b44 	addi	r3,r3,-3027
 1000c9c:	4009883a 	mov	r4,r8
 1000ca0:	180f883a 	mov	r7,r3
 1000ca4:	100d883a 	mov	r6,r2
 1000ca8:	480b883a 	mov	r5,r9
 1000cac:	1007ff00 	call	1007ff0 <__muldi3>
 1000cb0:	02000044 	movi	r8,1
 1000cb4:	1209883a 	add	r4,r2,r8
 1000cb8:	2095803a 	cmpltu	r10,r4,r2
 1000cbc:	50d5883a 	add	r10,r10,r3
 1000cc0:	81002915 	stw	r4,164(r16)
 1000cc4:	01200034 	movhi	r4,32768
 1000cc8:	213fffc4 	addi	r4,r4,-1
 1000ccc:	2284703a 	and	r2,r4,r10
 1000cd0:	82802a15 	stw	r10,168(r16)
 1000cd4:	dfc00117 	ldw	ra,4(sp)
 1000cd8:	dc000017 	ldw	r16,0(sp)
 1000cdc:	dec00204 	addi	sp,sp,8
 1000ce0:	f800283a 	ret

01000ce4 <strlen>:
 1000ce4:	208000cc 	andi	r2,r4,3
 1000ce8:	2011883a 	mov	r8,r4
 1000cec:	1000161e 	bne	r2,zero,1000d48 <strlen+0x64>
 1000cf0:	20c00017 	ldw	r3,0(r4)
 1000cf4:	017fbff4 	movhi	r5,65279
 1000cf8:	297fbfc4 	addi	r5,r5,-257
 1000cfc:	01e02074 	movhi	r7,32897
 1000d00:	39e02004 	addi	r7,r7,-32640
 1000d04:	1945883a 	add	r2,r3,r5
 1000d08:	11c4703a 	and	r2,r2,r7
 1000d0c:	00c6303a 	nor	r3,zero,r3
 1000d10:	1886703a 	and	r3,r3,r2
 1000d14:	18000c1e 	bne	r3,zero,1000d48 <strlen+0x64>
 1000d18:	280d883a 	mov	r6,r5
 1000d1c:	380b883a 	mov	r5,r7
 1000d20:	21000104 	addi	r4,r4,4
 1000d24:	20800017 	ldw	r2,0(r4)
 1000d28:	1187883a 	add	r3,r2,r6
 1000d2c:	1946703a 	and	r3,r3,r5
 1000d30:	0084303a 	nor	r2,zero,r2
 1000d34:	10c4703a 	and	r2,r2,r3
 1000d38:	103ff926 	beq	r2,zero,1000d20 <strlen+0x3c>
 1000d3c:	20800007 	ldb	r2,0(r4)
 1000d40:	10000326 	beq	r2,zero,1000d50 <strlen+0x6c>
 1000d44:	21000044 	addi	r4,r4,1
 1000d48:	20800007 	ldb	r2,0(r4)
 1000d4c:	103ffd1e 	bne	r2,zero,1000d44 <strlen+0x60>
 1000d50:	2205c83a 	sub	r2,r4,r8
 1000d54:	f800283a 	ret

01000d58 <__sprint_r>:
 1000d58:	30800217 	ldw	r2,8(r6)
 1000d5c:	defffe04 	addi	sp,sp,-8
 1000d60:	dc000015 	stw	r16,0(sp)
 1000d64:	dfc00115 	stw	ra,4(sp)
 1000d68:	3021883a 	mov	r16,r6
 1000d6c:	0007883a 	mov	r3,zero
 1000d70:	1000061e 	bne	r2,zero,1000d8c <__sprint_r+0x34>
 1000d74:	1805883a 	mov	r2,r3
 1000d78:	30000115 	stw	zero,4(r6)
 1000d7c:	dfc00117 	ldw	ra,4(sp)
 1000d80:	dc000017 	ldw	r16,0(sp)
 1000d84:	dec00204 	addi	sp,sp,8
 1000d88:	f800283a 	ret
 1000d8c:	1004f300 	call	1004f30 <__sfvwrite_r>
 1000d90:	1007883a 	mov	r3,r2
 1000d94:	1805883a 	mov	r2,r3
 1000d98:	80000115 	stw	zero,4(r16)
 1000d9c:	80000215 	stw	zero,8(r16)
 1000da0:	dfc00117 	ldw	ra,4(sp)
 1000da4:	dc000017 	ldw	r16,0(sp)
 1000da8:	dec00204 	addi	sp,sp,8
 1000dac:	f800283a 	ret

01000db0 <___vfprintf_internal_r>:
 1000db0:	defea404 	addi	sp,sp,-1392
 1000db4:	dd815815 	stw	r22,1376(sp)
 1000db8:	dc015215 	stw	r16,1352(sp)
 1000dbc:	d9c15115 	stw	r7,1348(sp)
 1000dc0:	dfc15b15 	stw	ra,1388(sp)
 1000dc4:	df015a15 	stw	fp,1384(sp)
 1000dc8:	ddc15915 	stw	r23,1380(sp)
 1000dcc:	dd415715 	stw	r21,1372(sp)
 1000dd0:	dd015615 	stw	r20,1368(sp)
 1000dd4:	dcc15515 	stw	r19,1364(sp)
 1000dd8:	dc815415 	stw	r18,1360(sp)
 1000ddc:	dc415315 	stw	r17,1356(sp)
 1000de0:	282d883a 	mov	r22,r5
 1000de4:	3021883a 	mov	r16,r6
 1000de8:	d9014f15 	stw	r4,1340(sp)
 1000dec:	10055540 	call	1005554 <_localeconv_r>
 1000df0:	10800017 	ldw	r2,0(r2)
 1000df4:	d9c15117 	ldw	r7,1348(sp)
 1000df8:	d8814915 	stw	r2,1316(sp)
 1000dfc:	d8814f17 	ldw	r2,1340(sp)
 1000e00:	10000226 	beq	r2,zero,1000e0c <___vfprintf_internal_r+0x5c>
 1000e04:	10800e17 	ldw	r2,56(r2)
 1000e08:	10020d26 	beq	r2,zero,1001640 <___vfprintf_internal_r+0x890>
 1000e0c:	b080030b 	ldhu	r2,12(r22)
 1000e10:	1080020c 	andi	r2,r2,8
 1000e14:	10020e26 	beq	r2,zero,1001650 <___vfprintf_internal_r+0x8a0>
 1000e18:	b0800417 	ldw	r2,16(r22)
 1000e1c:	10020c26 	beq	r2,zero,1001650 <___vfprintf_internal_r+0x8a0>
 1000e20:	b200030b 	ldhu	r8,12(r22)
 1000e24:	00800284 	movi	r2,10
 1000e28:	40c0068c 	andi	r3,r8,26
 1000e2c:	18802f1e 	bne	r3,r2,1000eec <___vfprintf_internal_r+0x13c>
 1000e30:	b080038f 	ldh	r2,14(r22)
 1000e34:	10002d16 	blt	r2,zero,1000eec <___vfprintf_internal_r+0x13c>
 1000e38:	b240038b 	ldhu	r9,14(r22)
 1000e3c:	b2800717 	ldw	r10,28(r22)
 1000e40:	b2c00917 	ldw	r11,36(r22)
 1000e44:	d9014f17 	ldw	r4,1340(sp)
 1000e48:	dc402904 	addi	r17,sp,164
 1000e4c:	d8804004 	addi	r2,sp,256
 1000e50:	00c10004 	movi	r3,1024
 1000e54:	423fff4c 	andi	r8,r8,65533
 1000e58:	800d883a 	mov	r6,r16
 1000e5c:	880b883a 	mov	r5,r17
 1000e60:	da002c0d 	sth	r8,176(sp)
 1000e64:	da402c8d 	sth	r9,178(sp)
 1000e68:	da803015 	stw	r10,192(sp)
 1000e6c:	dac03215 	stw	r11,200(sp)
 1000e70:	d8802d15 	stw	r2,180(sp)
 1000e74:	d8c02e15 	stw	r3,184(sp)
 1000e78:	d8802915 	stw	r2,164(sp)
 1000e7c:	d8c02b15 	stw	r3,172(sp)
 1000e80:	d8002f15 	stw	zero,188(sp)
 1000e84:	1000db00 	call	1000db0 <___vfprintf_internal_r>
 1000e88:	d8814b15 	stw	r2,1324(sp)
 1000e8c:	10000416 	blt	r2,zero,1000ea0 <___vfprintf_internal_r+0xf0>
 1000e90:	d9014f17 	ldw	r4,1340(sp)
 1000e94:	880b883a 	mov	r5,r17
 1000e98:	10045cc0 	call	10045cc <_fflush_r>
 1000e9c:	1002321e 	bne	r2,zero,1001768 <___vfprintf_internal_r+0x9b8>
 1000ea0:	d8802c0b 	ldhu	r2,176(sp)
 1000ea4:	1080100c 	andi	r2,r2,64
 1000ea8:	10000326 	beq	r2,zero,1000eb8 <___vfprintf_internal_r+0x108>
 1000eac:	b080030b 	ldhu	r2,12(r22)
 1000eb0:	10801014 	ori	r2,r2,64
 1000eb4:	b080030d 	sth	r2,12(r22)
 1000eb8:	d8814b17 	ldw	r2,1324(sp)
 1000ebc:	dfc15b17 	ldw	ra,1388(sp)
 1000ec0:	df015a17 	ldw	fp,1384(sp)
 1000ec4:	ddc15917 	ldw	r23,1380(sp)
 1000ec8:	dd815817 	ldw	r22,1376(sp)
 1000ecc:	dd415717 	ldw	r21,1372(sp)
 1000ed0:	dd015617 	ldw	r20,1368(sp)
 1000ed4:	dcc15517 	ldw	r19,1364(sp)
 1000ed8:	dc815417 	ldw	r18,1360(sp)
 1000edc:	dc415317 	ldw	r17,1356(sp)
 1000ee0:	dc015217 	ldw	r16,1352(sp)
 1000ee4:	dec15c04 	addi	sp,sp,1392
 1000ee8:	f800283a 	ret
 1000eec:	0005883a 	mov	r2,zero
 1000ef0:	0007883a 	mov	r3,zero
 1000ef4:	dd401904 	addi	r21,sp,100
 1000ef8:	d8814215 	stw	r2,1288(sp)
 1000efc:	802f883a 	mov	r23,r16
 1000f00:	d8c14315 	stw	r3,1292(sp)
 1000f04:	d8014b15 	stw	zero,1324(sp)
 1000f08:	d8014815 	stw	zero,1312(sp)
 1000f0c:	d8014415 	stw	zero,1296(sp)
 1000f10:	d8014715 	stw	zero,1308(sp)
 1000f14:	dd400c15 	stw	r21,48(sp)
 1000f18:	d8000e15 	stw	zero,56(sp)
 1000f1c:	d8000d15 	stw	zero,52(sp)
 1000f20:	b8800007 	ldb	r2,0(r23)
 1000f24:	10001926 	beq	r2,zero,1000f8c <___vfprintf_internal_r+0x1dc>
 1000f28:	00c00944 	movi	r3,37
 1000f2c:	10c01726 	beq	r2,r3,1000f8c <___vfprintf_internal_r+0x1dc>
 1000f30:	b821883a 	mov	r16,r23
 1000f34:	00000106 	br	1000f3c <___vfprintf_internal_r+0x18c>
 1000f38:	10c00326 	beq	r2,r3,1000f48 <___vfprintf_internal_r+0x198>
 1000f3c:	84000044 	addi	r16,r16,1
 1000f40:	80800007 	ldb	r2,0(r16)
 1000f44:	103ffc1e 	bne	r2,zero,1000f38 <___vfprintf_internal_r+0x188>
 1000f48:	85e7c83a 	sub	r19,r16,r23
 1000f4c:	98000e26 	beq	r19,zero,1000f88 <___vfprintf_internal_r+0x1d8>
 1000f50:	dc800e17 	ldw	r18,56(sp)
 1000f54:	dc400d17 	ldw	r17,52(sp)
 1000f58:	008001c4 	movi	r2,7
 1000f5c:	94e5883a 	add	r18,r18,r19
 1000f60:	8c400044 	addi	r17,r17,1
 1000f64:	adc00015 	stw	r23,0(r21)
 1000f68:	dc800e15 	stw	r18,56(sp)
 1000f6c:	acc00115 	stw	r19,4(r21)
 1000f70:	dc400d15 	stw	r17,52(sp)
 1000f74:	14428b16 	blt	r2,r17,10019a4 <___vfprintf_internal_r+0xbf4>
 1000f78:	ad400204 	addi	r21,r21,8
 1000f7c:	d9014b17 	ldw	r4,1324(sp)
 1000f80:	24c9883a 	add	r4,r4,r19
 1000f84:	d9014b15 	stw	r4,1324(sp)
 1000f88:	802f883a 	mov	r23,r16
 1000f8c:	b8800007 	ldb	r2,0(r23)
 1000f90:	10013c26 	beq	r2,zero,1001484 <___vfprintf_internal_r+0x6d4>
 1000f94:	bdc00044 	addi	r23,r23,1
 1000f98:	d8000405 	stb	zero,16(sp)
 1000f9c:	b8c00007 	ldb	r3,0(r23)
 1000fa0:	04ffffc4 	movi	r19,-1
 1000fa4:	d8014c15 	stw	zero,1328(sp)
 1000fa8:	d8014a15 	stw	zero,1320(sp)
 1000fac:	d8c14d15 	stw	r3,1332(sp)
 1000fb0:	bdc00044 	addi	r23,r23,1
 1000fb4:	d9414d17 	ldw	r5,1332(sp)
 1000fb8:	00801604 	movi	r2,88
 1000fbc:	28fff804 	addi	r3,r5,-32
 1000fc0:	10c06036 	bltu	r2,r3,1001144 <___vfprintf_internal_r+0x394>
 1000fc4:	18c5883a 	add	r2,r3,r3
 1000fc8:	1085883a 	add	r2,r2,r2
 1000fcc:	00c04034 	movhi	r3,256
 1000fd0:	18c3f804 	addi	r3,r3,4064
 1000fd4:	10c5883a 	add	r2,r2,r3
 1000fd8:	11000017 	ldw	r4,0(r2)
 1000fdc:	2000683a 	jmp	r4
 1000fe0:	01001f54 	movui	r4,125
 1000fe4:	01001144 	movi	r4,69
 1000fe8:	01001144 	movi	r4,69
 1000fec:	01001f40 	call	1001f4 <__alt_mem_onchip_memory2_0+0x1001f4>
 1000ff0:	01001144 	movi	r4,69
 1000ff4:	01001144 	movi	r4,69
 1000ff8:	01001144 	movi	r4,69
 1000ffc:	01001144 	movi	r4,69
 1001000:	01001144 	movi	r4,69
 1001004:	01001144 	movi	r4,69
 1001008:	01001d20 	cmpeqi	r4,zero,116
 100100c:	01001f30 	cmpltui	r4,zero,124
 1001010:	01001144 	movi	r4,69
 1001014:	01001d38 	rdprs	r4,zero,116
 1001018:	01001fd8 	cmpnei	r4,zero,127
 100101c:	01001144 	movi	r4,69
 1001020:	01001fc4 	movi	r4,127
 1001024:	01001f80 	call	1001f8 <__alt_mem_onchip_memory2_0+0x1001f8>
 1001028:	01001f80 	call	1001f8 <__alt_mem_onchip_memory2_0+0x1001f8>
 100102c:	01001f80 	call	1001f8 <__alt_mem_onchip_memory2_0+0x1001f8>
 1001030:	01001f80 	call	1001f8 <__alt_mem_onchip_memory2_0+0x1001f8>
 1001034:	01001f80 	call	1001f8 <__alt_mem_onchip_memory2_0+0x1001f8>
 1001038:	01001f80 	call	1001f8 <__alt_mem_onchip_memory2_0+0x1001f8>
 100103c:	01001f80 	call	1001f8 <__alt_mem_onchip_memory2_0+0x1001f8>
 1001040:	01001f80 	call	1001f8 <__alt_mem_onchip_memory2_0+0x1001f8>
 1001044:	01001f80 	call	1001f8 <__alt_mem_onchip_memory2_0+0x1001f8>
 1001048:	01001144 	movi	r4,69
 100104c:	01001144 	movi	r4,69
 1001050:	01001144 	movi	r4,69
 1001054:	01001144 	movi	r4,69
 1001058:	01001144 	movi	r4,69
 100105c:	01001144 	movi	r4,69
 1001060:	01001144 	movi	r4,69
 1001064:	01001144 	movi	r4,69
 1001068:	01001144 	movi	r4,69
 100106c:	01001144 	movi	r4,69
 1001070:	0100179c 	xori	r4,zero,94
 1001074:	01001e08 	cmpgei	r4,zero,120
 1001078:	01001144 	movi	r4,69
 100107c:	01001e08 	cmpgei	r4,zero,120
 1001080:	01001144 	movi	r4,69
 1001084:	01001144 	movi	r4,69
 1001088:	01001144 	movi	r4,69
 100108c:	01001144 	movi	r4,69
 1001090:	01001f6c 	andhi	r4,zero,125
 1001094:	01001144 	movi	r4,69
 1001098:	01001144 	movi	r4,69
 100109c:	01001850 	cmplti	r4,zero,97
 10010a0:	01001144 	movi	r4,69
 10010a4:	01001144 	movi	r4,69
 10010a8:	01001144 	movi	r4,69
 10010ac:	01001144 	movi	r4,69
 10010b0:	01001144 	movi	r4,69
 10010b4:	0100189c 	xori	r4,zero,98
 10010b8:	01001144 	movi	r4,69
 10010bc:	01001144 	movi	r4,69
 10010c0:	01001ebc 	xorhi	r4,zero,122
 10010c4:	01001144 	movi	r4,69
 10010c8:	01001144 	movi	r4,69
 10010cc:	01001144 	movi	r4,69
 10010d0:	01001144 	movi	r4,69
 10010d4:	01001144 	movi	r4,69
 10010d8:	01001144 	movi	r4,69
 10010dc:	01001144 	movi	r4,69
 10010e0:	01001144 	movi	r4,69
 10010e4:	01001144 	movi	r4,69
 10010e8:	01001144 	movi	r4,69
 10010ec:	01001e90 	cmplti	r4,zero,122
 10010f0:	010017a8 	cmpgeui	r4,zero,94
 10010f4:	01001e08 	cmpgei	r4,zero,120
 10010f8:	01001e08 	cmpgei	r4,zero,120
 10010fc:	01001e08 	cmpgei	r4,zero,120
 1001100:	01001df4 	movhi	r4,119
 1001104:	010017a8 	cmpgeui	r4,zero,94
 1001108:	01001144 	movi	r4,69
 100110c:	01001144 	movi	r4,69
 1001110:	01001d7c 	xorhi	r4,zero,117
 1001114:	01001144 	movi	r4,69
 1001118:	01001d4c 	andi	r4,zero,117
 100111c:	0100185c 	xori	r4,zero,97
 1001120:	01001dac 	andhi	r4,zero,118
 1001124:	01001d98 	cmpnei	r4,zero,118
 1001128:	01001144 	movi	r4,69
 100112c:	01002040 	call	100204 <__alt_mem_onchip_memory2_0+0x100204>
 1001130:	01001144 	movi	r4,69
 1001134:	010018a8 	cmpgeui	r4,zero,98
 1001138:	01001144 	movi	r4,69
 100113c:	01001144 	movi	r4,69
 1001140:	01001f20 	cmpeqi	r4,zero,124
 1001144:	d9014d17 	ldw	r4,1332(sp)
 1001148:	2000ce26 	beq	r4,zero,1001484 <___vfprintf_internal_r+0x6d4>
 100114c:	01400044 	movi	r5,1
 1001150:	d9800f04 	addi	r6,sp,60
 1001154:	d9c14015 	stw	r7,1280(sp)
 1001158:	d9414515 	stw	r5,1300(sp)
 100115c:	d9814115 	stw	r6,1284(sp)
 1001160:	280f883a 	mov	r7,r5
 1001164:	d9000f05 	stb	r4,60(sp)
 1001168:	d8000405 	stb	zero,16(sp)
 100116c:	d8014615 	stw	zero,1304(sp)
 1001170:	d8c14c17 	ldw	r3,1328(sp)
 1001174:	1880008c 	andi	r2,r3,2
 1001178:	1005003a 	cmpeq	r2,r2,zero
 100117c:	d8815015 	stw	r2,1344(sp)
 1001180:	1000031e 	bne	r2,zero,1001190 <___vfprintf_internal_r+0x3e0>
 1001184:	d9014517 	ldw	r4,1300(sp)
 1001188:	21000084 	addi	r4,r4,2
 100118c:	d9014515 	stw	r4,1300(sp)
 1001190:	d9414c17 	ldw	r5,1328(sp)
 1001194:	2940210c 	andi	r5,r5,132
 1001198:	d9414e15 	stw	r5,1336(sp)
 100119c:	28002d1e 	bne	r5,zero,1001254 <___vfprintf_internal_r+0x4a4>
 10011a0:	d9814a17 	ldw	r6,1320(sp)
 10011a4:	d8814517 	ldw	r2,1300(sp)
 10011a8:	30a1c83a 	sub	r16,r6,r2
 10011ac:	0400290e 	bge	zero,r16,1001254 <___vfprintf_internal_r+0x4a4>
 10011b0:	00800404 	movi	r2,16
 10011b4:	14045e0e 	bge	r2,r16,1002330 <___vfprintf_internal_r+0x1580>
 10011b8:	dc800e17 	ldw	r18,56(sp)
 10011bc:	dc400d17 	ldw	r17,52(sp)
 10011c0:	1027883a 	mov	r19,r2
 10011c4:	07004074 	movhi	fp,257
 10011c8:	e73ace84 	addi	fp,fp,-5318
 10011cc:	050001c4 	movi	r20,7
 10011d0:	00000306 	br	10011e0 <___vfprintf_internal_r+0x430>
 10011d4:	843ffc04 	addi	r16,r16,-16
 10011d8:	ad400204 	addi	r21,r21,8
 10011dc:	9c00130e 	bge	r19,r16,100122c <___vfprintf_internal_r+0x47c>
 10011e0:	94800404 	addi	r18,r18,16
 10011e4:	8c400044 	addi	r17,r17,1
 10011e8:	af000015 	stw	fp,0(r21)
 10011ec:	acc00115 	stw	r19,4(r21)
 10011f0:	dc800e15 	stw	r18,56(sp)
 10011f4:	dc400d15 	stw	r17,52(sp)
 10011f8:	a47ff60e 	bge	r20,r17,10011d4 <___vfprintf_internal_r+0x424>
 10011fc:	d9014f17 	ldw	r4,1340(sp)
 1001200:	b00b883a 	mov	r5,r22
 1001204:	d9800c04 	addi	r6,sp,48
 1001208:	d9c15115 	stw	r7,1348(sp)
 100120c:	1000d580 	call	1000d58 <__sprint_r>
 1001210:	d9c15117 	ldw	r7,1348(sp)
 1001214:	10009e1e 	bne	r2,zero,1001490 <___vfprintf_internal_r+0x6e0>
 1001218:	843ffc04 	addi	r16,r16,-16
 100121c:	dc800e17 	ldw	r18,56(sp)
 1001220:	dc400d17 	ldw	r17,52(sp)
 1001224:	dd401904 	addi	r21,sp,100
 1001228:	9c3fed16 	blt	r19,r16,10011e0 <___vfprintf_internal_r+0x430>
 100122c:	9425883a 	add	r18,r18,r16
 1001230:	8c400044 	addi	r17,r17,1
 1001234:	008001c4 	movi	r2,7
 1001238:	af000015 	stw	fp,0(r21)
 100123c:	ac000115 	stw	r16,4(r21)
 1001240:	dc800e15 	stw	r18,56(sp)
 1001244:	dc400d15 	stw	r17,52(sp)
 1001248:	1441f516 	blt	r2,r17,1001a20 <___vfprintf_internal_r+0xc70>
 100124c:	ad400204 	addi	r21,r21,8
 1001250:	00000206 	br	100125c <___vfprintf_internal_r+0x4ac>
 1001254:	dc800e17 	ldw	r18,56(sp)
 1001258:	dc400d17 	ldw	r17,52(sp)
 100125c:	d8800407 	ldb	r2,16(sp)
 1001260:	10000b26 	beq	r2,zero,1001290 <___vfprintf_internal_r+0x4e0>
 1001264:	00800044 	movi	r2,1
 1001268:	94800044 	addi	r18,r18,1
 100126c:	8c400044 	addi	r17,r17,1
 1001270:	a8800115 	stw	r2,4(r21)
 1001274:	d8c00404 	addi	r3,sp,16
 1001278:	008001c4 	movi	r2,7
 100127c:	a8c00015 	stw	r3,0(r21)
 1001280:	dc800e15 	stw	r18,56(sp)
 1001284:	dc400d15 	stw	r17,52(sp)
 1001288:	1441da16 	blt	r2,r17,10019f4 <___vfprintf_internal_r+0xc44>
 100128c:	ad400204 	addi	r21,r21,8
 1001290:	d9015017 	ldw	r4,1344(sp)
 1001294:	20000b1e 	bne	r4,zero,10012c4 <___vfprintf_internal_r+0x514>
 1001298:	d8800444 	addi	r2,sp,17
 100129c:	94800084 	addi	r18,r18,2
 10012a0:	8c400044 	addi	r17,r17,1
 10012a4:	a8800015 	stw	r2,0(r21)
 10012a8:	00c00084 	movi	r3,2
 10012ac:	008001c4 	movi	r2,7
 10012b0:	a8c00115 	stw	r3,4(r21)
 10012b4:	dc800e15 	stw	r18,56(sp)
 10012b8:	dc400d15 	stw	r17,52(sp)
 10012bc:	1441c216 	blt	r2,r17,10019c8 <___vfprintf_internal_r+0xc18>
 10012c0:	ad400204 	addi	r21,r21,8
 10012c4:	d9414e17 	ldw	r5,1336(sp)
 10012c8:	00802004 	movi	r2,128
 10012cc:	2880b126 	beq	r5,r2,1001594 <___vfprintf_internal_r+0x7e4>
 10012d0:	d8c14617 	ldw	r3,1304(sp)
 10012d4:	19e1c83a 	sub	r16,r3,r7
 10012d8:	0400260e 	bge	zero,r16,1001374 <___vfprintf_internal_r+0x5c4>
 10012dc:	00800404 	movi	r2,16
 10012e0:	1403cf0e 	bge	r2,r16,1002220 <___vfprintf_internal_r+0x1470>
 10012e4:	1027883a 	mov	r19,r2
 10012e8:	07004074 	movhi	fp,257
 10012ec:	e73aca84 	addi	fp,fp,-5334
 10012f0:	050001c4 	movi	r20,7
 10012f4:	00000306 	br	1001304 <___vfprintf_internal_r+0x554>
 10012f8:	843ffc04 	addi	r16,r16,-16
 10012fc:	ad400204 	addi	r21,r21,8
 1001300:	9c00130e 	bge	r19,r16,1001350 <___vfprintf_internal_r+0x5a0>
 1001304:	94800404 	addi	r18,r18,16
 1001308:	8c400044 	addi	r17,r17,1
 100130c:	af000015 	stw	fp,0(r21)
 1001310:	acc00115 	stw	r19,4(r21)
 1001314:	dc800e15 	stw	r18,56(sp)
 1001318:	dc400d15 	stw	r17,52(sp)
 100131c:	a47ff60e 	bge	r20,r17,10012f8 <___vfprintf_internal_r+0x548>
 1001320:	d9014f17 	ldw	r4,1340(sp)
 1001324:	b00b883a 	mov	r5,r22
 1001328:	d9800c04 	addi	r6,sp,48
 100132c:	d9c15115 	stw	r7,1348(sp)
 1001330:	1000d580 	call	1000d58 <__sprint_r>
 1001334:	d9c15117 	ldw	r7,1348(sp)
 1001338:	1000551e 	bne	r2,zero,1001490 <___vfprintf_internal_r+0x6e0>
 100133c:	843ffc04 	addi	r16,r16,-16
 1001340:	dc800e17 	ldw	r18,56(sp)
 1001344:	dc400d17 	ldw	r17,52(sp)
 1001348:	dd401904 	addi	r21,sp,100
 100134c:	9c3fed16 	blt	r19,r16,1001304 <___vfprintf_internal_r+0x554>
 1001350:	9425883a 	add	r18,r18,r16
 1001354:	8c400044 	addi	r17,r17,1
 1001358:	008001c4 	movi	r2,7
 100135c:	af000015 	stw	fp,0(r21)
 1001360:	ac000115 	stw	r16,4(r21)
 1001364:	dc800e15 	stw	r18,56(sp)
 1001368:	dc400d15 	stw	r17,52(sp)
 100136c:	14418216 	blt	r2,r17,1001978 <___vfprintf_internal_r+0xbc8>
 1001370:	ad400204 	addi	r21,r21,8
 1001374:	d9014c17 	ldw	r4,1328(sp)
 1001378:	2080400c 	andi	r2,r4,256
 100137c:	10004a1e 	bne	r2,zero,10014a8 <___vfprintf_internal_r+0x6f8>
 1001380:	d9414117 	ldw	r5,1284(sp)
 1001384:	91e5883a 	add	r18,r18,r7
 1001388:	8c400044 	addi	r17,r17,1
 100138c:	008001c4 	movi	r2,7
 1001390:	a9400015 	stw	r5,0(r21)
 1001394:	a9c00115 	stw	r7,4(r21)
 1001398:	dc800e15 	stw	r18,56(sp)
 100139c:	dc400d15 	stw	r17,52(sp)
 10013a0:	14416716 	blt	r2,r17,1001940 <___vfprintf_internal_r+0xb90>
 10013a4:	a8c00204 	addi	r3,r21,8
 10013a8:	d9814c17 	ldw	r6,1328(sp)
 10013ac:	3080010c 	andi	r2,r6,4
 10013b0:	10002826 	beq	r2,zero,1001454 <___vfprintf_internal_r+0x6a4>
 10013b4:	d8814a17 	ldw	r2,1320(sp)
 10013b8:	d9014517 	ldw	r4,1300(sp)
 10013bc:	1121c83a 	sub	r16,r2,r4
 10013c0:	0400240e 	bge	zero,r16,1001454 <___vfprintf_internal_r+0x6a4>
 10013c4:	00800404 	movi	r2,16
 10013c8:	1404550e 	bge	r2,r16,1002520 <___vfprintf_internal_r+0x1770>
 10013cc:	dc400d17 	ldw	r17,52(sp)
 10013d0:	1027883a 	mov	r19,r2
 10013d4:	07004074 	movhi	fp,257
 10013d8:	e73ace84 	addi	fp,fp,-5318
 10013dc:	050001c4 	movi	r20,7
 10013e0:	00000306 	br	10013f0 <___vfprintf_internal_r+0x640>
 10013e4:	843ffc04 	addi	r16,r16,-16
 10013e8:	18c00204 	addi	r3,r3,8
 10013ec:	9c00110e 	bge	r19,r16,1001434 <___vfprintf_internal_r+0x684>
 10013f0:	94800404 	addi	r18,r18,16
 10013f4:	8c400044 	addi	r17,r17,1
 10013f8:	1f000015 	stw	fp,0(r3)
 10013fc:	1cc00115 	stw	r19,4(r3)
 1001400:	dc800e15 	stw	r18,56(sp)
 1001404:	dc400d15 	stw	r17,52(sp)
 1001408:	a47ff60e 	bge	r20,r17,10013e4 <___vfprintf_internal_r+0x634>
 100140c:	d9014f17 	ldw	r4,1340(sp)
 1001410:	b00b883a 	mov	r5,r22
 1001414:	d9800c04 	addi	r6,sp,48
 1001418:	1000d580 	call	1000d58 <__sprint_r>
 100141c:	10001c1e 	bne	r2,zero,1001490 <___vfprintf_internal_r+0x6e0>
 1001420:	843ffc04 	addi	r16,r16,-16
 1001424:	dc800e17 	ldw	r18,56(sp)
 1001428:	dc400d17 	ldw	r17,52(sp)
 100142c:	d8c01904 	addi	r3,sp,100
 1001430:	9c3fef16 	blt	r19,r16,10013f0 <___vfprintf_internal_r+0x640>
 1001434:	9425883a 	add	r18,r18,r16
 1001438:	8c400044 	addi	r17,r17,1
 100143c:	008001c4 	movi	r2,7
 1001440:	1f000015 	stw	fp,0(r3)
 1001444:	1c000115 	stw	r16,4(r3)
 1001448:	dc800e15 	stw	r18,56(sp)
 100144c:	dc400d15 	stw	r17,52(sp)
 1001450:	1440cb16 	blt	r2,r17,1001780 <___vfprintf_internal_r+0x9d0>
 1001454:	d8814a17 	ldw	r2,1320(sp)
 1001458:	d9414517 	ldw	r5,1300(sp)
 100145c:	1140010e 	bge	r2,r5,1001464 <___vfprintf_internal_r+0x6b4>
 1001460:	2805883a 	mov	r2,r5
 1001464:	d9814b17 	ldw	r6,1324(sp)
 1001468:	308d883a 	add	r6,r6,r2
 100146c:	d9814b15 	stw	r6,1324(sp)
 1001470:	90013b1e 	bne	r18,zero,1001960 <___vfprintf_internal_r+0xbb0>
 1001474:	d9c14017 	ldw	r7,1280(sp)
 1001478:	dd401904 	addi	r21,sp,100
 100147c:	d8000d15 	stw	zero,52(sp)
 1001480:	003ea706 	br	1000f20 <___vfprintf_internal_r+0x170>
 1001484:	d8800e17 	ldw	r2,56(sp)
 1001488:	1005451e 	bne	r2,zero,10029a0 <___vfprintf_internal_r+0x1bf0>
 100148c:	d8000d15 	stw	zero,52(sp)
 1001490:	b080030b 	ldhu	r2,12(r22)
 1001494:	1080100c 	andi	r2,r2,64
 1001498:	103e8726 	beq	r2,zero,1000eb8 <___vfprintf_internal_r+0x108>
 100149c:	00bfffc4 	movi	r2,-1
 10014a0:	d8814b15 	stw	r2,1324(sp)
 10014a4:	003e8406 	br	1000eb8 <___vfprintf_internal_r+0x108>
 10014a8:	d9814d17 	ldw	r6,1332(sp)
 10014ac:	00801944 	movi	r2,101
 10014b0:	11806e16 	blt	r2,r6,100166c <___vfprintf_internal_r+0x8bc>
 10014b4:	d9414717 	ldw	r5,1308(sp)
 10014b8:	00c00044 	movi	r3,1
 10014bc:	1943490e 	bge	r3,r5,10021e4 <___vfprintf_internal_r+0x1434>
 10014c0:	d8814117 	ldw	r2,1284(sp)
 10014c4:	94800044 	addi	r18,r18,1
 10014c8:	8c400044 	addi	r17,r17,1
 10014cc:	a8800015 	stw	r2,0(r21)
 10014d0:	008001c4 	movi	r2,7
 10014d4:	a8c00115 	stw	r3,4(r21)
 10014d8:	dc800e15 	stw	r18,56(sp)
 10014dc:	dc400d15 	stw	r17,52(sp)
 10014e0:	1441ca16 	blt	r2,r17,1001c0c <___vfprintf_internal_r+0xe5c>
 10014e4:	a8c00204 	addi	r3,r21,8
 10014e8:	d9014917 	ldw	r4,1316(sp)
 10014ec:	00800044 	movi	r2,1
 10014f0:	94800044 	addi	r18,r18,1
 10014f4:	8c400044 	addi	r17,r17,1
 10014f8:	18800115 	stw	r2,4(r3)
 10014fc:	008001c4 	movi	r2,7
 1001500:	19000015 	stw	r4,0(r3)
 1001504:	dc800e15 	stw	r18,56(sp)
 1001508:	dc400d15 	stw	r17,52(sp)
 100150c:	1441b616 	blt	r2,r17,1001be8 <___vfprintf_internal_r+0xe38>
 1001510:	1cc00204 	addi	r19,r3,8
 1001514:	d9014217 	ldw	r4,1288(sp)
 1001518:	d9414317 	ldw	r5,1292(sp)
 100151c:	000d883a 	mov	r6,zero
 1001520:	000f883a 	mov	r7,zero
 1001524:	10099880 	call	1009988 <__nedf2>
 1001528:	10017426 	beq	r2,zero,1001afc <___vfprintf_internal_r+0xd4c>
 100152c:	d9414717 	ldw	r5,1308(sp)
 1001530:	d9814117 	ldw	r6,1284(sp)
 1001534:	8c400044 	addi	r17,r17,1
 1001538:	2c85883a 	add	r2,r5,r18
 100153c:	14bfffc4 	addi	r18,r2,-1
 1001540:	28bfffc4 	addi	r2,r5,-1
 1001544:	30c00044 	addi	r3,r6,1
 1001548:	98800115 	stw	r2,4(r19)
 100154c:	008001c4 	movi	r2,7
 1001550:	98c00015 	stw	r3,0(r19)
 1001554:	dc800e15 	stw	r18,56(sp)
 1001558:	dc400d15 	stw	r17,52(sp)
 100155c:	14418e16 	blt	r2,r17,1001b98 <___vfprintf_internal_r+0xde8>
 1001560:	9cc00204 	addi	r19,r19,8
 1001564:	d9414817 	ldw	r5,1312(sp)
 1001568:	d8800804 	addi	r2,sp,32
 100156c:	8c400044 	addi	r17,r17,1
 1001570:	9165883a 	add	r18,r18,r5
 1001574:	98800015 	stw	r2,0(r19)
 1001578:	008001c4 	movi	r2,7
 100157c:	99400115 	stw	r5,4(r19)
 1001580:	dc800e15 	stw	r18,56(sp)
 1001584:	dc400d15 	stw	r17,52(sp)
 1001588:	1440ed16 	blt	r2,r17,1001940 <___vfprintf_internal_r+0xb90>
 100158c:	98c00204 	addi	r3,r19,8
 1001590:	003f8506 	br	10013a8 <___vfprintf_internal_r+0x5f8>
 1001594:	d9814a17 	ldw	r6,1320(sp)
 1001598:	d8814517 	ldw	r2,1300(sp)
 100159c:	30a1c83a 	sub	r16,r6,r2
 10015a0:	043f4b0e 	bge	zero,r16,10012d0 <___vfprintf_internal_r+0x520>
 10015a4:	00800404 	movi	r2,16
 10015a8:	14043a0e 	bge	r2,r16,1002694 <___vfprintf_internal_r+0x18e4>
 10015ac:	1027883a 	mov	r19,r2
 10015b0:	07004074 	movhi	fp,257
 10015b4:	e73aca84 	addi	fp,fp,-5334
 10015b8:	050001c4 	movi	r20,7
 10015bc:	00000306 	br	10015cc <___vfprintf_internal_r+0x81c>
 10015c0:	843ffc04 	addi	r16,r16,-16
 10015c4:	ad400204 	addi	r21,r21,8
 10015c8:	9c00130e 	bge	r19,r16,1001618 <___vfprintf_internal_r+0x868>
 10015cc:	94800404 	addi	r18,r18,16
 10015d0:	8c400044 	addi	r17,r17,1
 10015d4:	af000015 	stw	fp,0(r21)
 10015d8:	acc00115 	stw	r19,4(r21)
 10015dc:	dc800e15 	stw	r18,56(sp)
 10015e0:	dc400d15 	stw	r17,52(sp)
 10015e4:	a47ff60e 	bge	r20,r17,10015c0 <___vfprintf_internal_r+0x810>
 10015e8:	d9014f17 	ldw	r4,1340(sp)
 10015ec:	b00b883a 	mov	r5,r22
 10015f0:	d9800c04 	addi	r6,sp,48
 10015f4:	d9c15115 	stw	r7,1348(sp)
 10015f8:	1000d580 	call	1000d58 <__sprint_r>
 10015fc:	d9c15117 	ldw	r7,1348(sp)
 1001600:	103fa31e 	bne	r2,zero,1001490 <___vfprintf_internal_r+0x6e0>
 1001604:	843ffc04 	addi	r16,r16,-16
 1001608:	dc800e17 	ldw	r18,56(sp)
 100160c:	dc400d17 	ldw	r17,52(sp)
 1001610:	dd401904 	addi	r21,sp,100
 1001614:	9c3fed16 	blt	r19,r16,10015cc <___vfprintf_internal_r+0x81c>
 1001618:	9425883a 	add	r18,r18,r16
 100161c:	8c400044 	addi	r17,r17,1
 1001620:	008001c4 	movi	r2,7
 1001624:	af000015 	stw	fp,0(r21)
 1001628:	ac000115 	stw	r16,4(r21)
 100162c:	dc800e15 	stw	r18,56(sp)
 1001630:	dc400d15 	stw	r17,52(sp)
 1001634:	14416116 	blt	r2,r17,1001bbc <___vfprintf_internal_r+0xe0c>
 1001638:	ad400204 	addi	r21,r21,8
 100163c:	003f2406 	br	10012d0 <___vfprintf_internal_r+0x520>
 1001640:	d9014f17 	ldw	r4,1340(sp)
 1001644:	10048640 	call	1004864 <__sinit>
 1001648:	d9c15117 	ldw	r7,1348(sp)
 100164c:	003def06 	br	1000e0c <___vfprintf_internal_r+0x5c>
 1001650:	d9014f17 	ldw	r4,1340(sp)
 1001654:	b00b883a 	mov	r5,r22
 1001658:	d9c15115 	stw	r7,1348(sp)
 100165c:	1002c980 	call	1002c98 <__swsetup_r>
 1001660:	d9c15117 	ldw	r7,1348(sp)
 1001664:	103dee26 	beq	r2,zero,1000e20 <___vfprintf_internal_r+0x70>
 1001668:	003f8c06 	br	100149c <___vfprintf_internal_r+0x6ec>
 100166c:	d9014217 	ldw	r4,1288(sp)
 1001670:	d9414317 	ldw	r5,1292(sp)
 1001674:	000d883a 	mov	r6,zero
 1001678:	000f883a 	mov	r7,zero
 100167c:	10099000 	call	1009900 <__eqdf2>
 1001680:	1000f21e 	bne	r2,zero,1001a4c <___vfprintf_internal_r+0xc9c>
 1001684:	00804074 	movhi	r2,257
 1001688:	10baca04 	addi	r2,r2,-5336
 100168c:	94800044 	addi	r18,r18,1
 1001690:	8c400044 	addi	r17,r17,1
 1001694:	a8800015 	stw	r2,0(r21)
 1001698:	00c00044 	movi	r3,1
 100169c:	008001c4 	movi	r2,7
 10016a0:	a8c00115 	stw	r3,4(r21)
 10016a4:	dc800e15 	stw	r18,56(sp)
 10016a8:	dc400d15 	stw	r17,52(sp)
 10016ac:	14430016 	blt	r2,r17,10022b0 <___vfprintf_internal_r+0x1500>
 10016b0:	a8c00204 	addi	r3,r21,8
 10016b4:	d8800517 	ldw	r2,20(sp)
 10016b8:	d9014717 	ldw	r4,1308(sp)
 10016bc:	11015c0e 	bge	r2,r4,1001c30 <___vfprintf_internal_r+0xe80>
 10016c0:	dc400d17 	ldw	r17,52(sp)
 10016c4:	d9814917 	ldw	r6,1316(sp)
 10016c8:	00800044 	movi	r2,1
 10016cc:	94800044 	addi	r18,r18,1
 10016d0:	8c400044 	addi	r17,r17,1
 10016d4:	18800115 	stw	r2,4(r3)
 10016d8:	008001c4 	movi	r2,7
 10016dc:	19800015 	stw	r6,0(r3)
 10016e0:	dc800e15 	stw	r18,56(sp)
 10016e4:	dc400d15 	stw	r17,52(sp)
 10016e8:	14431616 	blt	r2,r17,1002344 <___vfprintf_internal_r+0x1594>
 10016ec:	18c00204 	addi	r3,r3,8
 10016f0:	d8814717 	ldw	r2,1308(sp)
 10016f4:	143fffc4 	addi	r16,r2,-1
 10016f8:	043f2b0e 	bge	zero,r16,10013a8 <___vfprintf_internal_r+0x5f8>
 10016fc:	00800404 	movi	r2,16
 1001700:	1402a80e 	bge	r2,r16,10021a4 <___vfprintf_internal_r+0x13f4>
 1001704:	dc400d17 	ldw	r17,52(sp)
 1001708:	1027883a 	mov	r19,r2
 100170c:	07004074 	movhi	fp,257
 1001710:	e73aca84 	addi	fp,fp,-5334
 1001714:	050001c4 	movi	r20,7
 1001718:	00000306 	br	1001728 <___vfprintf_internal_r+0x978>
 100171c:	18c00204 	addi	r3,r3,8
 1001720:	843ffc04 	addi	r16,r16,-16
 1001724:	9c02a20e 	bge	r19,r16,10021b0 <___vfprintf_internal_r+0x1400>
 1001728:	94800404 	addi	r18,r18,16
 100172c:	8c400044 	addi	r17,r17,1
 1001730:	1f000015 	stw	fp,0(r3)
 1001734:	1cc00115 	stw	r19,4(r3)
 1001738:	dc800e15 	stw	r18,56(sp)
 100173c:	dc400d15 	stw	r17,52(sp)
 1001740:	a47ff60e 	bge	r20,r17,100171c <___vfprintf_internal_r+0x96c>
 1001744:	d9014f17 	ldw	r4,1340(sp)
 1001748:	b00b883a 	mov	r5,r22
 100174c:	d9800c04 	addi	r6,sp,48
 1001750:	1000d580 	call	1000d58 <__sprint_r>
 1001754:	103f4e1e 	bne	r2,zero,1001490 <___vfprintf_internal_r+0x6e0>
 1001758:	dc800e17 	ldw	r18,56(sp)
 100175c:	dc400d17 	ldw	r17,52(sp)
 1001760:	d8c01904 	addi	r3,sp,100
 1001764:	003fee06 	br	1001720 <___vfprintf_internal_r+0x970>
 1001768:	d8802c0b 	ldhu	r2,176(sp)
 100176c:	00ffffc4 	movi	r3,-1
 1001770:	d8c14b15 	stw	r3,1324(sp)
 1001774:	1080100c 	andi	r2,r2,64
 1001778:	103dcc1e 	bne	r2,zero,1000eac <___vfprintf_internal_r+0xfc>
 100177c:	003dce06 	br	1000eb8 <___vfprintf_internal_r+0x108>
 1001780:	d9014f17 	ldw	r4,1340(sp)
 1001784:	b00b883a 	mov	r5,r22
 1001788:	d9800c04 	addi	r6,sp,48
 100178c:	1000d580 	call	1000d58 <__sprint_r>
 1001790:	103f3f1e 	bne	r2,zero,1001490 <___vfprintf_internal_r+0x6e0>
 1001794:	dc800e17 	ldw	r18,56(sp)
 1001798:	003f2e06 	br	1001454 <___vfprintf_internal_r+0x6a4>
 100179c:	d9414c17 	ldw	r5,1328(sp)
 10017a0:	29400414 	ori	r5,r5,16
 10017a4:	d9414c15 	stw	r5,1328(sp)
 10017a8:	d9814c17 	ldw	r6,1328(sp)
 10017ac:	3080080c 	andi	r2,r6,32
 10017b0:	10014f1e 	bne	r2,zero,1001cf0 <___vfprintf_internal_r+0xf40>
 10017b4:	d8c14c17 	ldw	r3,1328(sp)
 10017b8:	1880040c 	andi	r2,r3,16
 10017bc:	1002f01e 	bne	r2,zero,1002380 <___vfprintf_internal_r+0x15d0>
 10017c0:	d9014c17 	ldw	r4,1328(sp)
 10017c4:	2080100c 	andi	r2,r4,64
 10017c8:	1002ed26 	beq	r2,zero,1002380 <___vfprintf_internal_r+0x15d0>
 10017cc:	3880000f 	ldh	r2,0(r7)
 10017d0:	39c00104 	addi	r7,r7,4
 10017d4:	d9c14015 	stw	r7,1280(sp)
 10017d8:	1023d7fa 	srai	r17,r2,31
 10017dc:	1021883a 	mov	r16,r2
 10017e0:	88037816 	blt	r17,zero,10025c4 <___vfprintf_internal_r+0x1814>
 10017e4:	01000044 	movi	r4,1
 10017e8:	98000416 	blt	r19,zero,10017fc <___vfprintf_internal_r+0xa4c>
 10017ec:	d8c14c17 	ldw	r3,1328(sp)
 10017f0:	00bfdfc4 	movi	r2,-129
 10017f4:	1886703a 	and	r3,r3,r2
 10017f8:	d8c14c15 	stw	r3,1328(sp)
 10017fc:	8444b03a 	or	r2,r16,r17
 1001800:	10022c1e 	bne	r2,zero,10020b4 <___vfprintf_internal_r+0x1304>
 1001804:	98022b1e 	bne	r19,zero,10020b4 <___vfprintf_internal_r+0x1304>
 1001808:	20803fcc 	andi	r2,r4,255
 100180c:	1002a126 	beq	r2,zero,1002294 <___vfprintf_internal_r+0x14e4>
 1001810:	d8c01904 	addi	r3,sp,100
 1001814:	dd000f04 	addi	r20,sp,60
 1001818:	d8c14115 	stw	r3,1284(sp)
 100181c:	d8c14117 	ldw	r3,1284(sp)
 1001820:	dcc14515 	stw	r19,1300(sp)
 1001824:	a0c5c83a 	sub	r2,r20,r3
 1001828:	11c00a04 	addi	r7,r2,40
 100182c:	99c0010e 	bge	r19,r7,1001834 <___vfprintf_internal_r+0xa84>
 1001830:	d9c14515 	stw	r7,1300(sp)
 1001834:	dcc14615 	stw	r19,1304(sp)
 1001838:	d8800407 	ldb	r2,16(sp)
 100183c:	103e4c26 	beq	r2,zero,1001170 <___vfprintf_internal_r+0x3c0>
 1001840:	d8814517 	ldw	r2,1300(sp)
 1001844:	10800044 	addi	r2,r2,1
 1001848:	d8814515 	stw	r2,1300(sp)
 100184c:	003e4806 	br	1001170 <___vfprintf_internal_r+0x3c0>
 1001850:	d9814c17 	ldw	r6,1328(sp)
 1001854:	31800414 	ori	r6,r6,16
 1001858:	d9814c15 	stw	r6,1328(sp)
 100185c:	d8c14c17 	ldw	r3,1328(sp)
 1001860:	1880080c 	andi	r2,r3,32
 1001864:	1001271e 	bne	r2,zero,1001d04 <___vfprintf_internal_r+0xf54>
 1001868:	d9414c17 	ldw	r5,1328(sp)
 100186c:	2880040c 	andi	r2,r5,16
 1001870:	1002bc1e 	bne	r2,zero,1002364 <___vfprintf_internal_r+0x15b4>
 1001874:	d9814c17 	ldw	r6,1328(sp)
 1001878:	3080100c 	andi	r2,r6,64
 100187c:	1002b926 	beq	r2,zero,1002364 <___vfprintf_internal_r+0x15b4>
 1001880:	3c00000b 	ldhu	r16,0(r7)
 1001884:	0009883a 	mov	r4,zero
 1001888:	39c00104 	addi	r7,r7,4
 100188c:	0023883a 	mov	r17,zero
 1001890:	d9c14015 	stw	r7,1280(sp)
 1001894:	d8000405 	stb	zero,16(sp)
 1001898:	003fd306 	br	10017e8 <___vfprintf_internal_r+0xa38>
 100189c:	d9014c17 	ldw	r4,1328(sp)
 10018a0:	21000414 	ori	r4,r4,16
 10018a4:	d9014c15 	stw	r4,1328(sp)
 10018a8:	d9414c17 	ldw	r5,1328(sp)
 10018ac:	2880080c 	andi	r2,r5,32
 10018b0:	1001081e 	bne	r2,zero,1001cd4 <___vfprintf_internal_r+0xf24>
 10018b4:	d8c14c17 	ldw	r3,1328(sp)
 10018b8:	1880040c 	andi	r2,r3,16
 10018bc:	1002b61e 	bne	r2,zero,1002398 <___vfprintf_internal_r+0x15e8>
 10018c0:	d9014c17 	ldw	r4,1328(sp)
 10018c4:	2080100c 	andi	r2,r4,64
 10018c8:	1002b326 	beq	r2,zero,1002398 <___vfprintf_internal_r+0x15e8>
 10018cc:	3c00000b 	ldhu	r16,0(r7)
 10018d0:	01000044 	movi	r4,1
 10018d4:	39c00104 	addi	r7,r7,4
 10018d8:	0023883a 	mov	r17,zero
 10018dc:	d9c14015 	stw	r7,1280(sp)
 10018e0:	d8000405 	stb	zero,16(sp)
 10018e4:	003fc006 	br	10017e8 <___vfprintf_internal_r+0xa38>
 10018e8:	d9014f17 	ldw	r4,1340(sp)
 10018ec:	b00b883a 	mov	r5,r22
 10018f0:	d9800c04 	addi	r6,sp,48
 10018f4:	1000d580 	call	1000d58 <__sprint_r>
 10018f8:	103ee51e 	bne	r2,zero,1001490 <___vfprintf_internal_r+0x6e0>
 10018fc:	dc800e17 	ldw	r18,56(sp)
 1001900:	d8c01904 	addi	r3,sp,100
 1001904:	d9814c17 	ldw	r6,1328(sp)
 1001908:	3080004c 	andi	r2,r6,1
 100190c:	1005003a 	cmpeq	r2,r2,zero
 1001910:	103ea51e 	bne	r2,zero,10013a8 <___vfprintf_internal_r+0x5f8>
 1001914:	00800044 	movi	r2,1
 1001918:	dc400d17 	ldw	r17,52(sp)
 100191c:	18800115 	stw	r2,4(r3)
 1001920:	d8814917 	ldw	r2,1316(sp)
 1001924:	94800044 	addi	r18,r18,1
 1001928:	8c400044 	addi	r17,r17,1
 100192c:	18800015 	stw	r2,0(r3)
 1001930:	008001c4 	movi	r2,7
 1001934:	dc800e15 	stw	r18,56(sp)
 1001938:	dc400d15 	stw	r17,52(sp)
 100193c:	1442240e 	bge	r2,r17,10021d0 <___vfprintf_internal_r+0x1420>
 1001940:	d9014f17 	ldw	r4,1340(sp)
 1001944:	b00b883a 	mov	r5,r22
 1001948:	d9800c04 	addi	r6,sp,48
 100194c:	1000d580 	call	1000d58 <__sprint_r>
 1001950:	103ecf1e 	bne	r2,zero,1001490 <___vfprintf_internal_r+0x6e0>
 1001954:	dc800e17 	ldw	r18,56(sp)
 1001958:	d8c01904 	addi	r3,sp,100
 100195c:	003e9206 	br	10013a8 <___vfprintf_internal_r+0x5f8>
 1001960:	d9014f17 	ldw	r4,1340(sp)
 1001964:	b00b883a 	mov	r5,r22
 1001968:	d9800c04 	addi	r6,sp,48
 100196c:	1000d580 	call	1000d58 <__sprint_r>
 1001970:	103ec026 	beq	r2,zero,1001474 <___vfprintf_internal_r+0x6c4>
 1001974:	003ec606 	br	1001490 <___vfprintf_internal_r+0x6e0>
 1001978:	d9014f17 	ldw	r4,1340(sp)
 100197c:	b00b883a 	mov	r5,r22
 1001980:	d9800c04 	addi	r6,sp,48
 1001984:	d9c15115 	stw	r7,1348(sp)
 1001988:	1000d580 	call	1000d58 <__sprint_r>
 100198c:	d9c15117 	ldw	r7,1348(sp)
 1001990:	103ebf1e 	bne	r2,zero,1001490 <___vfprintf_internal_r+0x6e0>
 1001994:	dc800e17 	ldw	r18,56(sp)
 1001998:	dc400d17 	ldw	r17,52(sp)
 100199c:	dd401904 	addi	r21,sp,100
 10019a0:	003e7406 	br	1001374 <___vfprintf_internal_r+0x5c4>
 10019a4:	d9014f17 	ldw	r4,1340(sp)
 10019a8:	b00b883a 	mov	r5,r22
 10019ac:	d9800c04 	addi	r6,sp,48
 10019b0:	d9c15115 	stw	r7,1348(sp)
 10019b4:	1000d580 	call	1000d58 <__sprint_r>
 10019b8:	d9c15117 	ldw	r7,1348(sp)
 10019bc:	103eb41e 	bne	r2,zero,1001490 <___vfprintf_internal_r+0x6e0>
 10019c0:	dd401904 	addi	r21,sp,100
 10019c4:	003d6d06 	br	1000f7c <___vfprintf_internal_r+0x1cc>
 10019c8:	d9014f17 	ldw	r4,1340(sp)
 10019cc:	b00b883a 	mov	r5,r22
 10019d0:	d9800c04 	addi	r6,sp,48
 10019d4:	d9c15115 	stw	r7,1348(sp)
 10019d8:	1000d580 	call	1000d58 <__sprint_r>
 10019dc:	d9c15117 	ldw	r7,1348(sp)
 10019e0:	103eab1e 	bne	r2,zero,1001490 <___vfprintf_internal_r+0x6e0>
 10019e4:	dc800e17 	ldw	r18,56(sp)
 10019e8:	dc400d17 	ldw	r17,52(sp)
 10019ec:	dd401904 	addi	r21,sp,100
 10019f0:	003e3406 	br	10012c4 <___vfprintf_internal_r+0x514>
 10019f4:	d9014f17 	ldw	r4,1340(sp)
 10019f8:	b00b883a 	mov	r5,r22
 10019fc:	d9800c04 	addi	r6,sp,48
 1001a00:	d9c15115 	stw	r7,1348(sp)
 1001a04:	1000d580 	call	1000d58 <__sprint_r>
 1001a08:	d9c15117 	ldw	r7,1348(sp)
 1001a0c:	103ea01e 	bne	r2,zero,1001490 <___vfprintf_internal_r+0x6e0>
 1001a10:	dc800e17 	ldw	r18,56(sp)
 1001a14:	dc400d17 	ldw	r17,52(sp)
 1001a18:	dd401904 	addi	r21,sp,100
 1001a1c:	003e1c06 	br	1001290 <___vfprintf_internal_r+0x4e0>
 1001a20:	d9014f17 	ldw	r4,1340(sp)
 1001a24:	b00b883a 	mov	r5,r22
 1001a28:	d9800c04 	addi	r6,sp,48
 1001a2c:	d9c15115 	stw	r7,1348(sp)
 1001a30:	1000d580 	call	1000d58 <__sprint_r>
 1001a34:	d9c15117 	ldw	r7,1348(sp)
 1001a38:	103e951e 	bne	r2,zero,1001490 <___vfprintf_internal_r+0x6e0>
 1001a3c:	dc800e17 	ldw	r18,56(sp)
 1001a40:	dc400d17 	ldw	r17,52(sp)
 1001a44:	dd401904 	addi	r21,sp,100
 1001a48:	003e0406 	br	100125c <___vfprintf_internal_r+0x4ac>
 1001a4c:	d9000517 	ldw	r4,20(sp)
 1001a50:	0102580e 	bge	zero,r4,10023b4 <___vfprintf_internal_r+0x1604>
 1001a54:	d9814717 	ldw	r6,1308(sp)
 1001a58:	21807a16 	blt	r4,r6,1001c44 <___vfprintf_internal_r+0xe94>
 1001a5c:	d8814117 	ldw	r2,1284(sp)
 1001a60:	91a5883a 	add	r18,r18,r6
 1001a64:	8c400044 	addi	r17,r17,1
 1001a68:	a8800015 	stw	r2,0(r21)
 1001a6c:	008001c4 	movi	r2,7
 1001a70:	a9800115 	stw	r6,4(r21)
 1001a74:	dc800e15 	stw	r18,56(sp)
 1001a78:	dc400d15 	stw	r17,52(sp)
 1001a7c:	1442fc16 	blt	r2,r17,1002670 <___vfprintf_internal_r+0x18c0>
 1001a80:	a8c00204 	addi	r3,r21,8
 1001a84:	d9414717 	ldw	r5,1308(sp)
 1001a88:	2161c83a 	sub	r16,r4,r5
 1001a8c:	043f9d0e 	bge	zero,r16,1001904 <___vfprintf_internal_r+0xb54>
 1001a90:	00800404 	movi	r2,16
 1001a94:	1402190e 	bge	r2,r16,10022fc <___vfprintf_internal_r+0x154c>
 1001a98:	dc400d17 	ldw	r17,52(sp)
 1001a9c:	1027883a 	mov	r19,r2
 1001aa0:	07004074 	movhi	fp,257
 1001aa4:	e73aca84 	addi	fp,fp,-5334
 1001aa8:	050001c4 	movi	r20,7
 1001aac:	00000306 	br	1001abc <___vfprintf_internal_r+0xd0c>
 1001ab0:	18c00204 	addi	r3,r3,8
 1001ab4:	843ffc04 	addi	r16,r16,-16
 1001ab8:	9c02130e 	bge	r19,r16,1002308 <___vfprintf_internal_r+0x1558>
 1001abc:	94800404 	addi	r18,r18,16
 1001ac0:	8c400044 	addi	r17,r17,1
 1001ac4:	1f000015 	stw	fp,0(r3)
 1001ac8:	1cc00115 	stw	r19,4(r3)
 1001acc:	dc800e15 	stw	r18,56(sp)
 1001ad0:	dc400d15 	stw	r17,52(sp)
 1001ad4:	a47ff60e 	bge	r20,r17,1001ab0 <___vfprintf_internal_r+0xd00>
 1001ad8:	d9014f17 	ldw	r4,1340(sp)
 1001adc:	b00b883a 	mov	r5,r22
 1001ae0:	d9800c04 	addi	r6,sp,48
 1001ae4:	1000d580 	call	1000d58 <__sprint_r>
 1001ae8:	103e691e 	bne	r2,zero,1001490 <___vfprintf_internal_r+0x6e0>
 1001aec:	dc800e17 	ldw	r18,56(sp)
 1001af0:	dc400d17 	ldw	r17,52(sp)
 1001af4:	d8c01904 	addi	r3,sp,100
 1001af8:	003fee06 	br	1001ab4 <___vfprintf_internal_r+0xd04>
 1001afc:	d8814717 	ldw	r2,1308(sp)
 1001b00:	143fffc4 	addi	r16,r2,-1
 1001b04:	043e970e 	bge	zero,r16,1001564 <___vfprintf_internal_r+0x7b4>
 1001b08:	00800404 	movi	r2,16
 1001b0c:	1400180e 	bge	r2,r16,1001b70 <___vfprintf_internal_r+0xdc0>
 1001b10:	1029883a 	mov	r20,r2
 1001b14:	07004074 	movhi	fp,257
 1001b18:	e73aca84 	addi	fp,fp,-5334
 1001b1c:	054001c4 	movi	r21,7
 1001b20:	00000306 	br	1001b30 <___vfprintf_internal_r+0xd80>
 1001b24:	9cc00204 	addi	r19,r19,8
 1001b28:	843ffc04 	addi	r16,r16,-16
 1001b2c:	a400120e 	bge	r20,r16,1001b78 <___vfprintf_internal_r+0xdc8>
 1001b30:	94800404 	addi	r18,r18,16
 1001b34:	8c400044 	addi	r17,r17,1
 1001b38:	9f000015 	stw	fp,0(r19)
 1001b3c:	9d000115 	stw	r20,4(r19)
 1001b40:	dc800e15 	stw	r18,56(sp)
 1001b44:	dc400d15 	stw	r17,52(sp)
 1001b48:	ac7ff60e 	bge	r21,r17,1001b24 <___vfprintf_internal_r+0xd74>
 1001b4c:	d9014f17 	ldw	r4,1340(sp)
 1001b50:	b00b883a 	mov	r5,r22
 1001b54:	d9800c04 	addi	r6,sp,48
 1001b58:	1000d580 	call	1000d58 <__sprint_r>
 1001b5c:	103e4c1e 	bne	r2,zero,1001490 <___vfprintf_internal_r+0x6e0>
 1001b60:	dc800e17 	ldw	r18,56(sp)
 1001b64:	dc400d17 	ldw	r17,52(sp)
 1001b68:	dcc01904 	addi	r19,sp,100
 1001b6c:	003fee06 	br	1001b28 <___vfprintf_internal_r+0xd78>
 1001b70:	07004074 	movhi	fp,257
 1001b74:	e73aca84 	addi	fp,fp,-5334
 1001b78:	9425883a 	add	r18,r18,r16
 1001b7c:	8c400044 	addi	r17,r17,1
 1001b80:	008001c4 	movi	r2,7
 1001b84:	9f000015 	stw	fp,0(r19)
 1001b88:	9c000115 	stw	r16,4(r19)
 1001b8c:	dc800e15 	stw	r18,56(sp)
 1001b90:	dc400d15 	stw	r17,52(sp)
 1001b94:	147e720e 	bge	r2,r17,1001560 <___vfprintf_internal_r+0x7b0>
 1001b98:	d9014f17 	ldw	r4,1340(sp)
 1001b9c:	b00b883a 	mov	r5,r22
 1001ba0:	d9800c04 	addi	r6,sp,48
 1001ba4:	1000d580 	call	1000d58 <__sprint_r>
 1001ba8:	103e391e 	bne	r2,zero,1001490 <___vfprintf_internal_r+0x6e0>
 1001bac:	dc800e17 	ldw	r18,56(sp)
 1001bb0:	dc400d17 	ldw	r17,52(sp)
 1001bb4:	dcc01904 	addi	r19,sp,100
 1001bb8:	003e6a06 	br	1001564 <___vfprintf_internal_r+0x7b4>
 1001bbc:	d9014f17 	ldw	r4,1340(sp)
 1001bc0:	b00b883a 	mov	r5,r22
 1001bc4:	d9800c04 	addi	r6,sp,48
 1001bc8:	d9c15115 	stw	r7,1348(sp)
 1001bcc:	1000d580 	call	1000d58 <__sprint_r>
 1001bd0:	d9c15117 	ldw	r7,1348(sp)
 1001bd4:	103e2e1e 	bne	r2,zero,1001490 <___vfprintf_internal_r+0x6e0>
 1001bd8:	dc800e17 	ldw	r18,56(sp)
 1001bdc:	dc400d17 	ldw	r17,52(sp)
 1001be0:	dd401904 	addi	r21,sp,100
 1001be4:	003dba06 	br	10012d0 <___vfprintf_internal_r+0x520>
 1001be8:	d9014f17 	ldw	r4,1340(sp)
 1001bec:	b00b883a 	mov	r5,r22
 1001bf0:	d9800c04 	addi	r6,sp,48
 1001bf4:	1000d580 	call	1000d58 <__sprint_r>
 1001bf8:	103e251e 	bne	r2,zero,1001490 <___vfprintf_internal_r+0x6e0>
 1001bfc:	dc800e17 	ldw	r18,56(sp)
 1001c00:	dc400d17 	ldw	r17,52(sp)
 1001c04:	dcc01904 	addi	r19,sp,100
 1001c08:	003e4206 	br	1001514 <___vfprintf_internal_r+0x764>
 1001c0c:	d9014f17 	ldw	r4,1340(sp)
 1001c10:	b00b883a 	mov	r5,r22
 1001c14:	d9800c04 	addi	r6,sp,48
 1001c18:	1000d580 	call	1000d58 <__sprint_r>
 1001c1c:	103e1c1e 	bne	r2,zero,1001490 <___vfprintf_internal_r+0x6e0>
 1001c20:	dc800e17 	ldw	r18,56(sp)
 1001c24:	dc400d17 	ldw	r17,52(sp)
 1001c28:	d8c01904 	addi	r3,sp,100
 1001c2c:	003e2e06 	br	10014e8 <___vfprintf_internal_r+0x738>
 1001c30:	d9414c17 	ldw	r5,1328(sp)
 1001c34:	2880004c 	andi	r2,r5,1
 1001c38:	1005003a 	cmpeq	r2,r2,zero
 1001c3c:	103dda1e 	bne	r2,zero,10013a8 <___vfprintf_internal_r+0x5f8>
 1001c40:	003e9f06 	br	10016c0 <___vfprintf_internal_r+0x910>
 1001c44:	d8c14117 	ldw	r3,1284(sp)
 1001c48:	9125883a 	add	r18,r18,r4
 1001c4c:	8c400044 	addi	r17,r17,1
 1001c50:	008001c4 	movi	r2,7
 1001c54:	a8c00015 	stw	r3,0(r21)
 1001c58:	a9000115 	stw	r4,4(r21)
 1001c5c:	dc800e15 	stw	r18,56(sp)
 1001c60:	dc400d15 	stw	r17,52(sp)
 1001c64:	14426c16 	blt	r2,r17,1002618 <___vfprintf_internal_r+0x1868>
 1001c68:	a8c00204 	addi	r3,r21,8
 1001c6c:	d9414917 	ldw	r5,1316(sp)
 1001c70:	00800044 	movi	r2,1
 1001c74:	94800044 	addi	r18,r18,1
 1001c78:	8c400044 	addi	r17,r17,1
 1001c7c:	18800115 	stw	r2,4(r3)
 1001c80:	008001c4 	movi	r2,7
 1001c84:	19400015 	stw	r5,0(r3)
 1001c88:	dc800e15 	stw	r18,56(sp)
 1001c8c:	dc400d15 	stw	r17,52(sp)
 1001c90:	2021883a 	mov	r16,r4
 1001c94:	14425616 	blt	r2,r17,10025f0 <___vfprintf_internal_r+0x1840>
 1001c98:	19400204 	addi	r5,r3,8
 1001c9c:	d9814717 	ldw	r6,1308(sp)
 1001ca0:	8c400044 	addi	r17,r17,1
 1001ca4:	dc400d15 	stw	r17,52(sp)
 1001ca8:	3107c83a 	sub	r3,r6,r4
 1001cac:	d9014117 	ldw	r4,1284(sp)
 1001cb0:	90e5883a 	add	r18,r18,r3
 1001cb4:	28c00115 	stw	r3,4(r5)
 1001cb8:	8105883a 	add	r2,r16,r4
 1001cbc:	28800015 	stw	r2,0(r5)
 1001cc0:	008001c4 	movi	r2,7
 1001cc4:	dc800e15 	stw	r18,56(sp)
 1001cc8:	147f1d16 	blt	r2,r17,1001940 <___vfprintf_internal_r+0xb90>
 1001ccc:	28c00204 	addi	r3,r5,8
 1001cd0:	003db506 	br	10013a8 <___vfprintf_internal_r+0x5f8>
 1001cd4:	3c000017 	ldw	r16,0(r7)
 1001cd8:	3c400117 	ldw	r17,4(r7)
 1001cdc:	39800204 	addi	r6,r7,8
 1001ce0:	01000044 	movi	r4,1
 1001ce4:	d9814015 	stw	r6,1280(sp)
 1001ce8:	d8000405 	stb	zero,16(sp)
 1001cec:	003ebe06 	br	10017e8 <___vfprintf_internal_r+0xa38>
 1001cf0:	3c000017 	ldw	r16,0(r7)
 1001cf4:	3c400117 	ldw	r17,4(r7)
 1001cf8:	38800204 	addi	r2,r7,8
 1001cfc:	d8814015 	stw	r2,1280(sp)
 1001d00:	003eb706 	br	10017e0 <___vfprintf_internal_r+0xa30>
 1001d04:	3c000017 	ldw	r16,0(r7)
 1001d08:	3c400117 	ldw	r17,4(r7)
 1001d0c:	39000204 	addi	r4,r7,8
 1001d10:	d9014015 	stw	r4,1280(sp)
 1001d14:	0009883a 	mov	r4,zero
 1001d18:	d8000405 	stb	zero,16(sp)
 1001d1c:	003eb206 	br	10017e8 <___vfprintf_internal_r+0xa38>
 1001d20:	38c00017 	ldw	r3,0(r7)
 1001d24:	39c00104 	addi	r7,r7,4
 1001d28:	d8c14a15 	stw	r3,1320(sp)
 1001d2c:	1800d70e 	bge	r3,zero,100208c <___vfprintf_internal_r+0x12dc>
 1001d30:	00c7c83a 	sub	r3,zero,r3
 1001d34:	d8c14a15 	stw	r3,1320(sp)
 1001d38:	d9014c17 	ldw	r4,1328(sp)
 1001d3c:	b8c00007 	ldb	r3,0(r23)
 1001d40:	21000114 	ori	r4,r4,4
 1001d44:	d9014c15 	stw	r4,1328(sp)
 1001d48:	003c9806 	br	1000fac <___vfprintf_internal_r+0x1fc>
 1001d4c:	d9814c17 	ldw	r6,1328(sp)
 1001d50:	3080080c 	andi	r2,r6,32
 1001d54:	1001f626 	beq	r2,zero,1002530 <___vfprintf_internal_r+0x1780>
 1001d58:	d9014b17 	ldw	r4,1324(sp)
 1001d5c:	38800017 	ldw	r2,0(r7)
 1001d60:	39c00104 	addi	r7,r7,4
 1001d64:	d9c14015 	stw	r7,1280(sp)
 1001d68:	2007d7fa 	srai	r3,r4,31
 1001d6c:	d9c14017 	ldw	r7,1280(sp)
 1001d70:	11000015 	stw	r4,0(r2)
 1001d74:	10c00115 	stw	r3,4(r2)
 1001d78:	003c6906 	br	1000f20 <___vfprintf_internal_r+0x170>
 1001d7c:	b8c00007 	ldb	r3,0(r23)
 1001d80:	00801b04 	movi	r2,108
 1001d84:	18825526 	beq	r3,r2,10026dc <___vfprintf_internal_r+0x192c>
 1001d88:	d9414c17 	ldw	r5,1328(sp)
 1001d8c:	29400414 	ori	r5,r5,16
 1001d90:	d9414c15 	stw	r5,1328(sp)
 1001d94:	003c8506 	br	1000fac <___vfprintf_internal_r+0x1fc>
 1001d98:	d9814c17 	ldw	r6,1328(sp)
 1001d9c:	b8c00007 	ldb	r3,0(r23)
 1001da0:	31800814 	ori	r6,r6,32
 1001da4:	d9814c15 	stw	r6,1328(sp)
 1001da8:	003c8006 	br	1000fac <___vfprintf_internal_r+0x1fc>
 1001dac:	d8814c17 	ldw	r2,1328(sp)
 1001db0:	3c000017 	ldw	r16,0(r7)
 1001db4:	00c01e04 	movi	r3,120
 1001db8:	10800094 	ori	r2,r2,2
 1001dbc:	d8814c15 	stw	r2,1328(sp)
 1001dc0:	39c00104 	addi	r7,r7,4
 1001dc4:	01404074 	movhi	r5,257
 1001dc8:	297ab304 	addi	r5,r5,-5428
 1001dcc:	00800c04 	movi	r2,48
 1001dd0:	0023883a 	mov	r17,zero
 1001dd4:	01000084 	movi	r4,2
 1001dd8:	d9c14015 	stw	r7,1280(sp)
 1001ddc:	d8c14d15 	stw	r3,1332(sp)
 1001de0:	d9414415 	stw	r5,1296(sp)
 1001de4:	d8800445 	stb	r2,17(sp)
 1001de8:	d8c00485 	stb	r3,18(sp)
 1001dec:	d8000405 	stb	zero,16(sp)
 1001df0:	003e7d06 	br	10017e8 <___vfprintf_internal_r+0xa38>
 1001df4:	d8814c17 	ldw	r2,1328(sp)
 1001df8:	b8c00007 	ldb	r3,0(r23)
 1001dfc:	10801014 	ori	r2,r2,64
 1001e00:	d8814c15 	stw	r2,1328(sp)
 1001e04:	003c6906 	br	1000fac <___vfprintf_internal_r+0x1fc>
 1001e08:	d9414c17 	ldw	r5,1328(sp)
 1001e0c:	2880020c 	andi	r2,r5,8
 1001e10:	1001e526 	beq	r2,zero,10025a8 <___vfprintf_internal_r+0x17f8>
 1001e14:	39800017 	ldw	r6,0(r7)
 1001e18:	38800204 	addi	r2,r7,8
 1001e1c:	d8814015 	stw	r2,1280(sp)
 1001e20:	d9814215 	stw	r6,1288(sp)
 1001e24:	39c00117 	ldw	r7,4(r7)
 1001e28:	d9c14315 	stw	r7,1292(sp)
 1001e2c:	d9014217 	ldw	r4,1288(sp)
 1001e30:	d9414317 	ldw	r5,1292(sp)
 1001e34:	10078600 	call	1007860 <__isinfd>
 1001e38:	10021d26 	beq	r2,zero,10026b0 <___vfprintf_internal_r+0x1900>
 1001e3c:	d9014217 	ldw	r4,1288(sp)
 1001e40:	d9414317 	ldw	r5,1292(sp)
 1001e44:	000d883a 	mov	r6,zero
 1001e48:	000f883a 	mov	r7,zero
 1001e4c:	1009b200 	call	1009b20 <__ltdf2>
 1001e50:	1002d016 	blt	r2,zero,1002994 <___vfprintf_internal_r+0x1be4>
 1001e54:	d9414d17 	ldw	r5,1332(sp)
 1001e58:	008011c4 	movi	r2,71
 1001e5c:	11421016 	blt	r2,r5,10026a0 <___vfprintf_internal_r+0x18f0>
 1001e60:	01804074 	movhi	r6,257
 1001e64:	31bab804 	addi	r6,r6,-5408
 1001e68:	d9814115 	stw	r6,1284(sp)
 1001e6c:	d9014c17 	ldw	r4,1328(sp)
 1001e70:	00c000c4 	movi	r3,3
 1001e74:	00bfdfc4 	movi	r2,-129
 1001e78:	2088703a 	and	r4,r4,r2
 1001e7c:	180f883a 	mov	r7,r3
 1001e80:	d8c14515 	stw	r3,1300(sp)
 1001e84:	d9014c15 	stw	r4,1328(sp)
 1001e88:	d8014615 	stw	zero,1304(sp)
 1001e8c:	003e6a06 	br	1001838 <___vfprintf_internal_r+0xa88>
 1001e90:	38800017 	ldw	r2,0(r7)
 1001e94:	00c00044 	movi	r3,1
 1001e98:	39c00104 	addi	r7,r7,4
 1001e9c:	d9c14015 	stw	r7,1280(sp)
 1001ea0:	d9000f04 	addi	r4,sp,60
 1001ea4:	180f883a 	mov	r7,r3
 1001ea8:	d8c14515 	stw	r3,1300(sp)
 1001eac:	d9014115 	stw	r4,1284(sp)
 1001eb0:	d8800f05 	stb	r2,60(sp)
 1001eb4:	d8000405 	stb	zero,16(sp)
 1001eb8:	003cac06 	br	100116c <___vfprintf_internal_r+0x3bc>
 1001ebc:	01404074 	movhi	r5,257
 1001ec0:	297abe04 	addi	r5,r5,-5384
 1001ec4:	d9414415 	stw	r5,1296(sp)
 1001ec8:	d9814c17 	ldw	r6,1328(sp)
 1001ecc:	3080080c 	andi	r2,r6,32
 1001ed0:	1000ff26 	beq	r2,zero,10022d0 <___vfprintf_internal_r+0x1520>
 1001ed4:	3c000017 	ldw	r16,0(r7)
 1001ed8:	3c400117 	ldw	r17,4(r7)
 1001edc:	38800204 	addi	r2,r7,8
 1001ee0:	d8814015 	stw	r2,1280(sp)
 1001ee4:	d9414c17 	ldw	r5,1328(sp)
 1001ee8:	2880004c 	andi	r2,r5,1
 1001eec:	1005003a 	cmpeq	r2,r2,zero
 1001ef0:	1000b91e 	bne	r2,zero,10021d8 <___vfprintf_internal_r+0x1428>
 1001ef4:	8444b03a 	or	r2,r16,r17
 1001ef8:	1000b726 	beq	r2,zero,10021d8 <___vfprintf_internal_r+0x1428>
 1001efc:	d9814d17 	ldw	r6,1332(sp)
 1001f00:	29400094 	ori	r5,r5,2
 1001f04:	00800c04 	movi	r2,48
 1001f08:	01000084 	movi	r4,2
 1001f0c:	d9414c15 	stw	r5,1328(sp)
 1001f10:	d8800445 	stb	r2,17(sp)
 1001f14:	d9800485 	stb	r6,18(sp)
 1001f18:	d8000405 	stb	zero,16(sp)
 1001f1c:	003e3206 	br	10017e8 <___vfprintf_internal_r+0xa38>
 1001f20:	01804074 	movhi	r6,257
 1001f24:	31bab304 	addi	r6,r6,-5428
 1001f28:	d9814415 	stw	r6,1296(sp)
 1001f2c:	003fe606 	br	1001ec8 <___vfprintf_internal_r+0x1118>
 1001f30:	00800ac4 	movi	r2,43
 1001f34:	d8800405 	stb	r2,16(sp)
 1001f38:	b8c00007 	ldb	r3,0(r23)
 1001f3c:	003c1b06 	br	1000fac <___vfprintf_internal_r+0x1fc>
 1001f40:	d8814c17 	ldw	r2,1328(sp)
 1001f44:	b8c00007 	ldb	r3,0(r23)
 1001f48:	10800054 	ori	r2,r2,1
 1001f4c:	d8814c15 	stw	r2,1328(sp)
 1001f50:	003c1606 	br	1000fac <___vfprintf_internal_r+0x1fc>
 1001f54:	d8800407 	ldb	r2,16(sp)
 1001f58:	10004c1e 	bne	r2,zero,100208c <___vfprintf_internal_r+0x12dc>
 1001f5c:	00800804 	movi	r2,32
 1001f60:	d8800405 	stb	r2,16(sp)
 1001f64:	b8c00007 	ldb	r3,0(r23)
 1001f68:	003c1006 	br	1000fac <___vfprintf_internal_r+0x1fc>
 1001f6c:	d9814c17 	ldw	r6,1328(sp)
 1001f70:	b8c00007 	ldb	r3,0(r23)
 1001f74:	31800214 	ori	r6,r6,8
 1001f78:	d9814c15 	stw	r6,1328(sp)
 1001f7c:	003c0b06 	br	1000fac <___vfprintf_internal_r+0x1fc>
 1001f80:	0009883a 	mov	r4,zero
 1001f84:	04000244 	movi	r16,9
 1001f88:	01400284 	movi	r5,10
 1001f8c:	d9c15115 	stw	r7,1348(sp)
 1001f90:	1009f0c0 	call	1009f0c <__mulsi3>
 1001f94:	b9000007 	ldb	r4,0(r23)
 1001f98:	d8c14d17 	ldw	r3,1332(sp)
 1001f9c:	bdc00044 	addi	r23,r23,1
 1001fa0:	d9014d15 	stw	r4,1332(sp)
 1001fa4:	d9414d17 	ldw	r5,1332(sp)
 1001fa8:	1885883a 	add	r2,r3,r2
 1001fac:	113ff404 	addi	r4,r2,-48
 1001fb0:	28bff404 	addi	r2,r5,-48
 1001fb4:	d9c15117 	ldw	r7,1348(sp)
 1001fb8:	80bff32e 	bgeu	r16,r2,1001f88 <___vfprintf_internal_r+0x11d8>
 1001fbc:	d9014a15 	stw	r4,1320(sp)
 1001fc0:	003bfc06 	br	1000fb4 <___vfprintf_internal_r+0x204>
 1001fc4:	d8814c17 	ldw	r2,1328(sp)
 1001fc8:	b8c00007 	ldb	r3,0(r23)
 1001fcc:	10802014 	ori	r2,r2,128
 1001fd0:	d8814c15 	stw	r2,1328(sp)
 1001fd4:	003bf506 	br	1000fac <___vfprintf_internal_r+0x1fc>
 1001fd8:	b8c00007 	ldb	r3,0(r23)
 1001fdc:	00800a84 	movi	r2,42
 1001fe0:	bdc00044 	addi	r23,r23,1
 1001fe4:	18831826 	beq	r3,r2,1002c48 <___vfprintf_internal_r+0x1e98>
 1001fe8:	d8c14d15 	stw	r3,1332(sp)
 1001fec:	18bff404 	addi	r2,r3,-48
 1001ff0:	00c00244 	movi	r3,9
 1001ff4:	18827b36 	bltu	r3,r2,10029e4 <___vfprintf_internal_r+0x1c34>
 1001ff8:	1821883a 	mov	r16,r3
 1001ffc:	0009883a 	mov	r4,zero
 1002000:	01400284 	movi	r5,10
 1002004:	d9c15115 	stw	r7,1348(sp)
 1002008:	1009f0c0 	call	1009f0c <__mulsi3>
 100200c:	d9414d17 	ldw	r5,1332(sp)
 1002010:	b9800007 	ldb	r6,0(r23)
 1002014:	d9c15117 	ldw	r7,1348(sp)
 1002018:	1145883a 	add	r2,r2,r5
 100201c:	113ff404 	addi	r4,r2,-48
 1002020:	30bff404 	addi	r2,r6,-48
 1002024:	d9814d15 	stw	r6,1332(sp)
 1002028:	bdc00044 	addi	r23,r23,1
 100202c:	80bff42e 	bgeu	r16,r2,1002000 <___vfprintf_internal_r+0x1250>
 1002030:	2027883a 	mov	r19,r4
 1002034:	203bdf0e 	bge	r4,zero,1000fb4 <___vfprintf_internal_r+0x204>
 1002038:	04ffffc4 	movi	r19,-1
 100203c:	003bdd06 	br	1000fb4 <___vfprintf_internal_r+0x204>
 1002040:	d8000405 	stb	zero,16(sp)
 1002044:	39800017 	ldw	r6,0(r7)
 1002048:	39c00104 	addi	r7,r7,4
 100204c:	d9c14015 	stw	r7,1280(sp)
 1002050:	d9814115 	stw	r6,1284(sp)
 1002054:	3001c926 	beq	r6,zero,100277c <___vfprintf_internal_r+0x19cc>
 1002058:	98000e16 	blt	r19,zero,1002094 <___vfprintf_internal_r+0x12e4>
 100205c:	d9014117 	ldw	r4,1284(sp)
 1002060:	000b883a 	mov	r5,zero
 1002064:	980d883a 	mov	r6,r19
 1002068:	1005ee40 	call	1005ee4 <memchr>
 100206c:	10025926 	beq	r2,zero,10029d4 <___vfprintf_internal_r+0x1c24>
 1002070:	d8c14117 	ldw	r3,1284(sp)
 1002074:	10cfc83a 	sub	r7,r2,r3
 1002078:	99c19e16 	blt	r19,r7,10026f4 <___vfprintf_internal_r+0x1944>
 100207c:	d9c14515 	stw	r7,1300(sp)
 1002080:	38000916 	blt	r7,zero,10020a8 <___vfprintf_internal_r+0x12f8>
 1002084:	d8014615 	stw	zero,1304(sp)
 1002088:	003deb06 	br	1001838 <___vfprintf_internal_r+0xa88>
 100208c:	b8c00007 	ldb	r3,0(r23)
 1002090:	003bc606 	br	1000fac <___vfprintf_internal_r+0x1fc>
 1002094:	d9014117 	ldw	r4,1284(sp)
 1002098:	1000ce40 	call	1000ce4 <strlen>
 100209c:	d8814515 	stw	r2,1300(sp)
 10020a0:	100f883a 	mov	r7,r2
 10020a4:	103ff70e 	bge	r2,zero,1002084 <___vfprintf_internal_r+0x12d4>
 10020a8:	d8014515 	stw	zero,1300(sp)
 10020ac:	d8014615 	stw	zero,1304(sp)
 10020b0:	003de106 	br	1001838 <___vfprintf_internal_r+0xa88>
 10020b4:	20c03fcc 	andi	r3,r4,255
 10020b8:	00800044 	movi	r2,1
 10020bc:	18802d26 	beq	r3,r2,1002174 <___vfprintf_internal_r+0x13c4>
 10020c0:	18800e36 	bltu	r3,r2,10020fc <___vfprintf_internal_r+0x134c>
 10020c4:	00800084 	movi	r2,2
 10020c8:	1880fa26 	beq	r3,r2,10024b4 <___vfprintf_internal_r+0x1704>
 10020cc:	01004074 	movhi	r4,257
 10020d0:	213ac304 	addi	r4,r4,-5364
 10020d4:	1000ce40 	call	1000ce4 <strlen>
 10020d8:	100f883a 	mov	r7,r2
 10020dc:	dcc14515 	stw	r19,1300(sp)
 10020e0:	9880010e 	bge	r19,r2,10020e8 <___vfprintf_internal_r+0x1338>
 10020e4:	d8814515 	stw	r2,1300(sp)
 10020e8:	00804074 	movhi	r2,257
 10020ec:	10bac304 	addi	r2,r2,-5364
 10020f0:	dcc14615 	stw	r19,1304(sp)
 10020f4:	d8814115 	stw	r2,1284(sp)
 10020f8:	003dcf06 	br	1001838 <___vfprintf_internal_r+0xa88>
 10020fc:	d9401904 	addi	r5,sp,100
 1002100:	dd000f04 	addi	r20,sp,60
 1002104:	d9414115 	stw	r5,1284(sp)
 1002108:	880a977a 	slli	r5,r17,29
 100210c:	d9814117 	ldw	r6,1284(sp)
 1002110:	8004d0fa 	srli	r2,r16,3
 1002114:	8806d0fa 	srli	r3,r17,3
 1002118:	810001cc 	andi	r4,r16,7
 100211c:	2884b03a 	or	r2,r5,r2
 1002120:	31bfffc4 	addi	r6,r6,-1
 1002124:	21000c04 	addi	r4,r4,48
 1002128:	d9814115 	stw	r6,1284(sp)
 100212c:	10cab03a 	or	r5,r2,r3
 1002130:	31000005 	stb	r4,0(r6)
 1002134:	1021883a 	mov	r16,r2
 1002138:	1823883a 	mov	r17,r3
 100213c:	283ff21e 	bne	r5,zero,1002108 <___vfprintf_internal_r+0x1358>
 1002140:	d8c14c17 	ldw	r3,1328(sp)
 1002144:	1880004c 	andi	r2,r3,1
 1002148:	1005003a 	cmpeq	r2,r2,zero
 100214c:	103db31e 	bne	r2,zero,100181c <___vfprintf_internal_r+0xa6c>
 1002150:	20803fcc 	andi	r2,r4,255
 1002154:	1080201c 	xori	r2,r2,128
 1002158:	10bfe004 	addi	r2,r2,-128
 100215c:	00c00c04 	movi	r3,48
 1002160:	10fdae26 	beq	r2,r3,100181c <___vfprintf_internal_r+0xa6c>
 1002164:	31bfffc4 	addi	r6,r6,-1
 1002168:	d9814115 	stw	r6,1284(sp)
 100216c:	30c00005 	stb	r3,0(r6)
 1002170:	003daa06 	br	100181c <___vfprintf_internal_r+0xa6c>
 1002174:	88800068 	cmpgeui	r2,r17,1
 1002178:	10002c1e 	bne	r2,zero,100222c <___vfprintf_internal_r+0x147c>
 100217c:	8800021e 	bne	r17,zero,1002188 <___vfprintf_internal_r+0x13d8>
 1002180:	00800244 	movi	r2,9
 1002184:	14002936 	bltu	r2,r16,100222c <___vfprintf_internal_r+0x147c>
 1002188:	d90018c4 	addi	r4,sp,99
 100218c:	dd000f04 	addi	r20,sp,60
 1002190:	d9014115 	stw	r4,1284(sp)
 1002194:	d9014117 	ldw	r4,1284(sp)
 1002198:	80800c04 	addi	r2,r16,48
 100219c:	20800005 	stb	r2,0(r4)
 10021a0:	003d9e06 	br	100181c <___vfprintf_internal_r+0xa6c>
 10021a4:	dc400d17 	ldw	r17,52(sp)
 10021a8:	07004074 	movhi	fp,257
 10021ac:	e73aca84 	addi	fp,fp,-5334
 10021b0:	9425883a 	add	r18,r18,r16
 10021b4:	8c400044 	addi	r17,r17,1
 10021b8:	008001c4 	movi	r2,7
 10021bc:	1f000015 	stw	fp,0(r3)
 10021c0:	1c000115 	stw	r16,4(r3)
 10021c4:	dc800e15 	stw	r18,56(sp)
 10021c8:	dc400d15 	stw	r17,52(sp)
 10021cc:	147ddc16 	blt	r2,r17,1001940 <___vfprintf_internal_r+0xb90>
 10021d0:	18c00204 	addi	r3,r3,8
 10021d4:	003c7406 	br	10013a8 <___vfprintf_internal_r+0x5f8>
 10021d8:	01000084 	movi	r4,2
 10021dc:	d8000405 	stb	zero,16(sp)
 10021e0:	003d8106 	br	10017e8 <___vfprintf_internal_r+0xa38>
 10021e4:	d9814c17 	ldw	r6,1328(sp)
 10021e8:	30c4703a 	and	r2,r6,r3
 10021ec:	1005003a 	cmpeq	r2,r2,zero
 10021f0:	103cb326 	beq	r2,zero,10014c0 <___vfprintf_internal_r+0x710>
 10021f4:	d9014117 	ldw	r4,1284(sp)
 10021f8:	94800044 	addi	r18,r18,1
 10021fc:	8c400044 	addi	r17,r17,1
 1002200:	008001c4 	movi	r2,7
 1002204:	a9000015 	stw	r4,0(r21)
 1002208:	a8c00115 	stw	r3,4(r21)
 100220c:	dc800e15 	stw	r18,56(sp)
 1002210:	dc400d15 	stw	r17,52(sp)
 1002214:	147e6016 	blt	r2,r17,1001b98 <___vfprintf_internal_r+0xde8>
 1002218:	acc00204 	addi	r19,r21,8
 100221c:	003cd106 	br	1001564 <___vfprintf_internal_r+0x7b4>
 1002220:	07004074 	movhi	fp,257
 1002224:	e73aca84 	addi	fp,fp,-5334
 1002228:	003c4906 	br	1001350 <___vfprintf_internal_r+0x5a0>
 100222c:	dd000f04 	addi	r20,sp,60
 1002230:	dc801904 	addi	r18,sp,100
 1002234:	8009883a 	mov	r4,r16
 1002238:	880b883a 	mov	r5,r17
 100223c:	01800284 	movi	r6,10
 1002240:	000f883a 	mov	r7,zero
 1002244:	10087800 	call	1008780 <__umoddi3>
 1002248:	12000c04 	addi	r8,r2,48
 100224c:	94bfffc4 	addi	r18,r18,-1
 1002250:	8009883a 	mov	r4,r16
 1002254:	880b883a 	mov	r5,r17
 1002258:	01800284 	movi	r6,10
 100225c:	000f883a 	mov	r7,zero
 1002260:	92000005 	stb	r8,0(r18)
 1002264:	10081140 	call	1008114 <__udivdi3>
 1002268:	1009883a 	mov	r4,r2
 100226c:	1021883a 	mov	r16,r2
 1002270:	18800068 	cmpgeui	r2,r3,1
 1002274:	1823883a 	mov	r17,r3
 1002278:	103fee1e 	bne	r2,zero,1002234 <___vfprintf_internal_r+0x1484>
 100227c:	1800021e 	bne	r3,zero,1002288 <___vfprintf_internal_r+0x14d8>
 1002280:	00800244 	movi	r2,9
 1002284:	113feb36 	bltu	r2,r4,1002234 <___vfprintf_internal_r+0x1484>
 1002288:	94bfffc4 	addi	r18,r18,-1
 100228c:	dc814115 	stw	r18,1284(sp)
 1002290:	003fc006 	br	1002194 <___vfprintf_internal_r+0x13e4>
 1002294:	d9014c17 	ldw	r4,1328(sp)
 1002298:	2080004c 	andi	r2,r4,1
 100229c:	10009a1e 	bne	r2,zero,1002508 <___vfprintf_internal_r+0x1758>
 10022a0:	d9401904 	addi	r5,sp,100
 10022a4:	dd000f04 	addi	r20,sp,60
 10022a8:	d9414115 	stw	r5,1284(sp)
 10022ac:	003d5b06 	br	100181c <___vfprintf_internal_r+0xa6c>
 10022b0:	d9014f17 	ldw	r4,1340(sp)
 10022b4:	b00b883a 	mov	r5,r22
 10022b8:	d9800c04 	addi	r6,sp,48
 10022bc:	1000d580 	call	1000d58 <__sprint_r>
 10022c0:	103c731e 	bne	r2,zero,1001490 <___vfprintf_internal_r+0x6e0>
 10022c4:	dc800e17 	ldw	r18,56(sp)
 10022c8:	d8c01904 	addi	r3,sp,100
 10022cc:	003cf906 	br	10016b4 <___vfprintf_internal_r+0x904>
 10022d0:	d8c14c17 	ldw	r3,1328(sp)
 10022d4:	1880040c 	andi	r2,r3,16
 10022d8:	1000711e 	bne	r2,zero,10024a0 <___vfprintf_internal_r+0x16f0>
 10022dc:	d9014c17 	ldw	r4,1328(sp)
 10022e0:	2080100c 	andi	r2,r4,64
 10022e4:	10006e26 	beq	r2,zero,10024a0 <___vfprintf_internal_r+0x16f0>
 10022e8:	3c00000b 	ldhu	r16,0(r7)
 10022ec:	0023883a 	mov	r17,zero
 10022f0:	39c00104 	addi	r7,r7,4
 10022f4:	d9c14015 	stw	r7,1280(sp)
 10022f8:	003efa06 	br	1001ee4 <___vfprintf_internal_r+0x1134>
 10022fc:	dc400d17 	ldw	r17,52(sp)
 1002300:	07004074 	movhi	fp,257
 1002304:	e73aca84 	addi	fp,fp,-5334
 1002308:	9425883a 	add	r18,r18,r16
 100230c:	8c400044 	addi	r17,r17,1
 1002310:	008001c4 	movi	r2,7
 1002314:	1f000015 	stw	fp,0(r3)
 1002318:	1c000115 	stw	r16,4(r3)
 100231c:	dc800e15 	stw	r18,56(sp)
 1002320:	dc400d15 	stw	r17,52(sp)
 1002324:	147d7016 	blt	r2,r17,10018e8 <___vfprintf_internal_r+0xb38>
 1002328:	18c00204 	addi	r3,r3,8
 100232c:	003d7506 	br	1001904 <___vfprintf_internal_r+0xb54>
 1002330:	dc800e17 	ldw	r18,56(sp)
 1002334:	dc400d17 	ldw	r17,52(sp)
 1002338:	07004074 	movhi	fp,257
 100233c:	e73ace84 	addi	fp,fp,-5318
 1002340:	003bba06 	br	100122c <___vfprintf_internal_r+0x47c>
 1002344:	d9014f17 	ldw	r4,1340(sp)
 1002348:	b00b883a 	mov	r5,r22
 100234c:	d9800c04 	addi	r6,sp,48
 1002350:	1000d580 	call	1000d58 <__sprint_r>
 1002354:	103c4e1e 	bne	r2,zero,1001490 <___vfprintf_internal_r+0x6e0>
 1002358:	dc800e17 	ldw	r18,56(sp)
 100235c:	d8c01904 	addi	r3,sp,100
 1002360:	003ce306 	br	10016f0 <___vfprintf_internal_r+0x940>
 1002364:	3c000017 	ldw	r16,0(r7)
 1002368:	0009883a 	mov	r4,zero
 100236c:	39c00104 	addi	r7,r7,4
 1002370:	0023883a 	mov	r17,zero
 1002374:	d9c14015 	stw	r7,1280(sp)
 1002378:	d8000405 	stb	zero,16(sp)
 100237c:	003d1a06 	br	10017e8 <___vfprintf_internal_r+0xa38>
 1002380:	38800017 	ldw	r2,0(r7)
 1002384:	39c00104 	addi	r7,r7,4
 1002388:	d9c14015 	stw	r7,1280(sp)
 100238c:	1023d7fa 	srai	r17,r2,31
 1002390:	1021883a 	mov	r16,r2
 1002394:	003d1206 	br	10017e0 <___vfprintf_internal_r+0xa30>
 1002398:	3c000017 	ldw	r16,0(r7)
 100239c:	01000044 	movi	r4,1
 10023a0:	39c00104 	addi	r7,r7,4
 10023a4:	0023883a 	mov	r17,zero
 10023a8:	d9c14015 	stw	r7,1280(sp)
 10023ac:	d8000405 	stb	zero,16(sp)
 10023b0:	003d0d06 	br	10017e8 <___vfprintf_internal_r+0xa38>
 10023b4:	00804074 	movhi	r2,257
 10023b8:	10baca04 	addi	r2,r2,-5336
 10023bc:	94800044 	addi	r18,r18,1
 10023c0:	8c400044 	addi	r17,r17,1
 10023c4:	a8800015 	stw	r2,0(r21)
 10023c8:	00c00044 	movi	r3,1
 10023cc:	008001c4 	movi	r2,7
 10023d0:	a8c00115 	stw	r3,4(r21)
 10023d4:	dc800e15 	stw	r18,56(sp)
 10023d8:	dc400d15 	stw	r17,52(sp)
 10023dc:	1440ca16 	blt	r2,r17,1002708 <___vfprintf_internal_r+0x1958>
 10023e0:	a8c00204 	addi	r3,r21,8
 10023e4:	2000061e 	bne	r4,zero,1002400 <___vfprintf_internal_r+0x1650>
 10023e8:	d9414717 	ldw	r5,1308(sp)
 10023ec:	2800041e 	bne	r5,zero,1002400 <___vfprintf_internal_r+0x1650>
 10023f0:	d9814c17 	ldw	r6,1328(sp)
 10023f4:	3080004c 	andi	r2,r6,1
 10023f8:	1005003a 	cmpeq	r2,r2,zero
 10023fc:	103bea1e 	bne	r2,zero,10013a8 <___vfprintf_internal_r+0x5f8>
 1002400:	00800044 	movi	r2,1
 1002404:	dc400d17 	ldw	r17,52(sp)
 1002408:	18800115 	stw	r2,4(r3)
 100240c:	d8814917 	ldw	r2,1316(sp)
 1002410:	94800044 	addi	r18,r18,1
 1002414:	8c400044 	addi	r17,r17,1
 1002418:	18800015 	stw	r2,0(r3)
 100241c:	008001c4 	movi	r2,7
 1002420:	dc800e15 	stw	r18,56(sp)
 1002424:	dc400d15 	stw	r17,52(sp)
 1002428:	1440ca16 	blt	r2,r17,1002754 <___vfprintf_internal_r+0x19a4>
 100242c:	18c00204 	addi	r3,r3,8
 1002430:	0121c83a 	sub	r16,zero,r4
 1002434:	0400500e 	bge	zero,r16,1002578 <___vfprintf_internal_r+0x17c8>
 1002438:	00800404 	movi	r2,16
 100243c:	1400800e 	bge	r2,r16,1002640 <___vfprintf_internal_r+0x1890>
 1002440:	1027883a 	mov	r19,r2
 1002444:	07004074 	movhi	fp,257
 1002448:	e73aca84 	addi	fp,fp,-5334
 100244c:	050001c4 	movi	r20,7
 1002450:	00000306 	br	1002460 <___vfprintf_internal_r+0x16b0>
 1002454:	18c00204 	addi	r3,r3,8
 1002458:	843ffc04 	addi	r16,r16,-16
 100245c:	9c007a0e 	bge	r19,r16,1002648 <___vfprintf_internal_r+0x1898>
 1002460:	94800404 	addi	r18,r18,16
 1002464:	8c400044 	addi	r17,r17,1
 1002468:	1f000015 	stw	fp,0(r3)
 100246c:	1cc00115 	stw	r19,4(r3)
 1002470:	dc800e15 	stw	r18,56(sp)
 1002474:	dc400d15 	stw	r17,52(sp)
 1002478:	a47ff60e 	bge	r20,r17,1002454 <___vfprintf_internal_r+0x16a4>
 100247c:	d9014f17 	ldw	r4,1340(sp)
 1002480:	b00b883a 	mov	r5,r22
 1002484:	d9800c04 	addi	r6,sp,48
 1002488:	1000d580 	call	1000d58 <__sprint_r>
 100248c:	103c001e 	bne	r2,zero,1001490 <___vfprintf_internal_r+0x6e0>
 1002490:	dc800e17 	ldw	r18,56(sp)
 1002494:	dc400d17 	ldw	r17,52(sp)
 1002498:	d8c01904 	addi	r3,sp,100
 100249c:	003fee06 	br	1002458 <___vfprintf_internal_r+0x16a8>
 10024a0:	3c000017 	ldw	r16,0(r7)
 10024a4:	0023883a 	mov	r17,zero
 10024a8:	39c00104 	addi	r7,r7,4
 10024ac:	d9c14015 	stw	r7,1280(sp)
 10024b0:	003e8c06 	br	1001ee4 <___vfprintf_internal_r+0x1134>
 10024b4:	d9401904 	addi	r5,sp,100
 10024b8:	dd000f04 	addi	r20,sp,60
 10024bc:	d9414115 	stw	r5,1284(sp)
 10024c0:	d9814417 	ldw	r6,1296(sp)
 10024c4:	880a973a 	slli	r5,r17,28
 10024c8:	8004d13a 	srli	r2,r16,4
 10024cc:	810003cc 	andi	r4,r16,15
 10024d0:	3109883a 	add	r4,r6,r4
 10024d4:	2884b03a 	or	r2,r5,r2
 10024d8:	21400003 	ldbu	r5,0(r4)
 10024dc:	d9014117 	ldw	r4,1284(sp)
 10024e0:	8806d13a 	srli	r3,r17,4
 10024e4:	1021883a 	mov	r16,r2
 10024e8:	213fffc4 	addi	r4,r4,-1
 10024ec:	d9014115 	stw	r4,1284(sp)
 10024f0:	d9814117 	ldw	r6,1284(sp)
 10024f4:	10c8b03a 	or	r4,r2,r3
 10024f8:	1823883a 	mov	r17,r3
 10024fc:	31400005 	stb	r5,0(r6)
 1002500:	203fef1e 	bne	r4,zero,10024c0 <___vfprintf_internal_r+0x1710>
 1002504:	003cc506 	br	100181c <___vfprintf_internal_r+0xa6c>
 1002508:	00800c04 	movi	r2,48
 100250c:	d98018c4 	addi	r6,sp,99
 1002510:	dd000f04 	addi	r20,sp,60
 1002514:	d88018c5 	stb	r2,99(sp)
 1002518:	d9814115 	stw	r6,1284(sp)
 100251c:	003cbf06 	br	100181c <___vfprintf_internal_r+0xa6c>
 1002520:	dc400d17 	ldw	r17,52(sp)
 1002524:	07004074 	movhi	fp,257
 1002528:	e73ace84 	addi	fp,fp,-5318
 100252c:	003bc106 	br	1001434 <___vfprintf_internal_r+0x684>
 1002530:	d9414c17 	ldw	r5,1328(sp)
 1002534:	2880040c 	andi	r2,r5,16
 1002538:	10007c26 	beq	r2,zero,100272c <___vfprintf_internal_r+0x197c>
 100253c:	38800017 	ldw	r2,0(r7)
 1002540:	39c00104 	addi	r7,r7,4
 1002544:	d9c14015 	stw	r7,1280(sp)
 1002548:	d9814b17 	ldw	r6,1324(sp)
 100254c:	d9c14017 	ldw	r7,1280(sp)
 1002550:	11800015 	stw	r6,0(r2)
 1002554:	003a7206 	br	1000f20 <___vfprintf_internal_r+0x170>
 1002558:	d9014f17 	ldw	r4,1340(sp)
 100255c:	b00b883a 	mov	r5,r22
 1002560:	d9800c04 	addi	r6,sp,48
 1002564:	1000d580 	call	1000d58 <__sprint_r>
 1002568:	103bc91e 	bne	r2,zero,1001490 <___vfprintf_internal_r+0x6e0>
 100256c:	dc800e17 	ldw	r18,56(sp)
 1002570:	dc400d17 	ldw	r17,52(sp)
 1002574:	d8c01904 	addi	r3,sp,100
 1002578:	d9014717 	ldw	r4,1308(sp)
 100257c:	d9414117 	ldw	r5,1284(sp)
 1002580:	8c400044 	addi	r17,r17,1
 1002584:	9125883a 	add	r18,r18,r4
 1002588:	008001c4 	movi	r2,7
 100258c:	19400015 	stw	r5,0(r3)
 1002590:	19000115 	stw	r4,4(r3)
 1002594:	dc800e15 	stw	r18,56(sp)
 1002598:	dc400d15 	stw	r17,52(sp)
 100259c:	147ce816 	blt	r2,r17,1001940 <___vfprintf_internal_r+0xb90>
 10025a0:	18c00204 	addi	r3,r3,8
 10025a4:	003b8006 	br	10013a8 <___vfprintf_internal_r+0x5f8>
 10025a8:	38c00017 	ldw	r3,0(r7)
 10025ac:	39000204 	addi	r4,r7,8
 10025b0:	d9014015 	stw	r4,1280(sp)
 10025b4:	d8c14215 	stw	r3,1288(sp)
 10025b8:	39c00117 	ldw	r7,4(r7)
 10025bc:	d9c14315 	stw	r7,1292(sp)
 10025c0:	003e1a06 	br	1001e2c <___vfprintf_internal_r+0x107c>
 10025c4:	0005883a 	mov	r2,zero
 10025c8:	1409c83a 	sub	r4,r2,r16
 10025cc:	1105803a 	cmpltu	r2,r2,r4
 10025d0:	044bc83a 	sub	r5,zero,r17
 10025d4:	2885c83a 	sub	r2,r5,r2
 10025d8:	2021883a 	mov	r16,r4
 10025dc:	1023883a 	mov	r17,r2
 10025e0:	01000044 	movi	r4,1
 10025e4:	00800b44 	movi	r2,45
 10025e8:	d8800405 	stb	r2,16(sp)
 10025ec:	003c7e06 	br	10017e8 <___vfprintf_internal_r+0xa38>
 10025f0:	d9014f17 	ldw	r4,1340(sp)
 10025f4:	b00b883a 	mov	r5,r22
 10025f8:	d9800c04 	addi	r6,sp,48
 10025fc:	1000d580 	call	1000d58 <__sprint_r>
 1002600:	103ba31e 	bne	r2,zero,1001490 <___vfprintf_internal_r+0x6e0>
 1002604:	dc800e17 	ldw	r18,56(sp)
 1002608:	dc400d17 	ldw	r17,52(sp)
 100260c:	d9000517 	ldw	r4,20(sp)
 1002610:	d9401904 	addi	r5,sp,100
 1002614:	003da106 	br	1001c9c <___vfprintf_internal_r+0xeec>
 1002618:	d9014f17 	ldw	r4,1340(sp)
 100261c:	b00b883a 	mov	r5,r22
 1002620:	d9800c04 	addi	r6,sp,48
 1002624:	1000d580 	call	1000d58 <__sprint_r>
 1002628:	103b991e 	bne	r2,zero,1001490 <___vfprintf_internal_r+0x6e0>
 100262c:	dc800e17 	ldw	r18,56(sp)
 1002630:	dc400d17 	ldw	r17,52(sp)
 1002634:	d9000517 	ldw	r4,20(sp)
 1002638:	d8c01904 	addi	r3,sp,100
 100263c:	003d8b06 	br	1001c6c <___vfprintf_internal_r+0xebc>
 1002640:	07004074 	movhi	fp,257
 1002644:	e73aca84 	addi	fp,fp,-5334
 1002648:	9425883a 	add	r18,r18,r16
 100264c:	8c400044 	addi	r17,r17,1
 1002650:	008001c4 	movi	r2,7
 1002654:	1f000015 	stw	fp,0(r3)
 1002658:	1c000115 	stw	r16,4(r3)
 100265c:	dc800e15 	stw	r18,56(sp)
 1002660:	dc400d15 	stw	r17,52(sp)
 1002664:	147fbc16 	blt	r2,r17,1002558 <___vfprintf_internal_r+0x17a8>
 1002668:	18c00204 	addi	r3,r3,8
 100266c:	003fc206 	br	1002578 <___vfprintf_internal_r+0x17c8>
 1002670:	d9014f17 	ldw	r4,1340(sp)
 1002674:	b00b883a 	mov	r5,r22
 1002678:	d9800c04 	addi	r6,sp,48
 100267c:	1000d580 	call	1000d58 <__sprint_r>
 1002680:	103b831e 	bne	r2,zero,1001490 <___vfprintf_internal_r+0x6e0>
 1002684:	dc800e17 	ldw	r18,56(sp)
 1002688:	d9000517 	ldw	r4,20(sp)
 100268c:	d8c01904 	addi	r3,sp,100
 1002690:	003cfc06 	br	1001a84 <___vfprintf_internal_r+0xcd4>
 1002694:	07004074 	movhi	fp,257
 1002698:	e73aca84 	addi	fp,fp,-5334
 100269c:	003bde06 	br	1001618 <___vfprintf_internal_r+0x868>
 10026a0:	00804074 	movhi	r2,257
 10026a4:	10bab904 	addi	r2,r2,-5404
 10026a8:	d8814115 	stw	r2,1284(sp)
 10026ac:	003def06 	br	1001e6c <___vfprintf_internal_r+0x10bc>
 10026b0:	d9014217 	ldw	r4,1288(sp)
 10026b4:	d9414317 	ldw	r5,1292(sp)
 10026b8:	10078a00 	call	10078a0 <__isnand>
 10026bc:	10003926 	beq	r2,zero,10027a4 <___vfprintf_internal_r+0x19f4>
 10026c0:	d9414d17 	ldw	r5,1332(sp)
 10026c4:	008011c4 	movi	r2,71
 10026c8:	1140ce16 	blt	r2,r5,1002a04 <___vfprintf_internal_r+0x1c54>
 10026cc:	01804074 	movhi	r6,257
 10026d0:	31baba04 	addi	r6,r6,-5400
 10026d4:	d9814115 	stw	r6,1284(sp)
 10026d8:	003de406 	br	1001e6c <___vfprintf_internal_r+0x10bc>
 10026dc:	d9014c17 	ldw	r4,1328(sp)
 10026e0:	bdc00044 	addi	r23,r23,1
 10026e4:	b8c00007 	ldb	r3,0(r23)
 10026e8:	21000814 	ori	r4,r4,32
 10026ec:	d9014c15 	stw	r4,1328(sp)
 10026f0:	003a2e06 	br	1000fac <___vfprintf_internal_r+0x1fc>
 10026f4:	dcc14515 	stw	r19,1300(sp)
 10026f8:	98011016 	blt	r19,zero,1002b3c <___vfprintf_internal_r+0x1d8c>
 10026fc:	980f883a 	mov	r7,r19
 1002700:	d8014615 	stw	zero,1304(sp)
 1002704:	003c4c06 	br	1001838 <___vfprintf_internal_r+0xa88>
 1002708:	d9014f17 	ldw	r4,1340(sp)
 100270c:	b00b883a 	mov	r5,r22
 1002710:	d9800c04 	addi	r6,sp,48
 1002714:	1000d580 	call	1000d58 <__sprint_r>
 1002718:	103b5d1e 	bne	r2,zero,1001490 <___vfprintf_internal_r+0x6e0>
 100271c:	dc800e17 	ldw	r18,56(sp)
 1002720:	d9000517 	ldw	r4,20(sp)
 1002724:	d8c01904 	addi	r3,sp,100
 1002728:	003f2e06 	br	10023e4 <___vfprintf_internal_r+0x1634>
 100272c:	d8c14c17 	ldw	r3,1328(sp)
 1002730:	1880100c 	andi	r2,r3,64
 1002734:	1000a026 	beq	r2,zero,10029b8 <___vfprintf_internal_r+0x1c08>
 1002738:	38800017 	ldw	r2,0(r7)
 100273c:	39c00104 	addi	r7,r7,4
 1002740:	d9c14015 	stw	r7,1280(sp)
 1002744:	d9014b17 	ldw	r4,1324(sp)
 1002748:	d9c14017 	ldw	r7,1280(sp)
 100274c:	1100000d 	sth	r4,0(r2)
 1002750:	0039f306 	br	1000f20 <___vfprintf_internal_r+0x170>
 1002754:	d9014f17 	ldw	r4,1340(sp)
 1002758:	b00b883a 	mov	r5,r22
 100275c:	d9800c04 	addi	r6,sp,48
 1002760:	1000d580 	call	1000d58 <__sprint_r>
 1002764:	103b4a1e 	bne	r2,zero,1001490 <___vfprintf_internal_r+0x6e0>
 1002768:	dc800e17 	ldw	r18,56(sp)
 100276c:	dc400d17 	ldw	r17,52(sp)
 1002770:	d9000517 	ldw	r4,20(sp)
 1002774:	d8c01904 	addi	r3,sp,100
 1002778:	003f2d06 	br	1002430 <___vfprintf_internal_r+0x1680>
 100277c:	00800184 	movi	r2,6
 1002780:	14c09a36 	bltu	r2,r19,10029ec <___vfprintf_internal_r+0x1c3c>
 1002784:	dcc14515 	stw	r19,1300(sp)
 1002788:	9800010e 	bge	r19,zero,1002790 <___vfprintf_internal_r+0x19e0>
 100278c:	d8014515 	stw	zero,1300(sp)
 1002790:	00804074 	movhi	r2,257
 1002794:	10babc04 	addi	r2,r2,-5392
 1002798:	980f883a 	mov	r7,r19
 100279c:	d8814115 	stw	r2,1284(sp)
 10027a0:	003a7206 	br	100116c <___vfprintf_internal_r+0x3bc>
 10027a4:	00bfffc4 	movi	r2,-1
 10027a8:	9880e226 	beq	r19,r2,1002b34 <___vfprintf_internal_r+0x1d84>
 10027ac:	d9414d17 	ldw	r5,1332(sp)
 10027b0:	008019c4 	movi	r2,103
 10027b4:	2880dc26 	beq	r5,r2,1002b28 <___vfprintf_internal_r+0x1d78>
 10027b8:	008011c4 	movi	r2,71
 10027bc:	2880da26 	beq	r5,r2,1002b28 <___vfprintf_internal_r+0x1d78>
 10027c0:	d9414c17 	ldw	r5,1328(sp)
 10027c4:	d9014317 	ldw	r4,1292(sp)
 10027c8:	d9814217 	ldw	r6,1288(sp)
 10027cc:	29404014 	ori	r5,r5,256
 10027d0:	d9414c15 	stw	r5,1328(sp)
 10027d4:	2000cc16 	blt	r4,zero,1002b08 <___vfprintf_internal_r+0x1d58>
 10027d8:	3021883a 	mov	r16,r6
 10027dc:	2023883a 	mov	r17,r4
 10027e0:	0039883a 	mov	fp,zero
 10027e4:	d9414d17 	ldw	r5,1332(sp)
 10027e8:	00801984 	movi	r2,102
 10027ec:	2880b726 	beq	r5,r2,1002acc <___vfprintf_internal_r+0x1d1c>
 10027f0:	00801184 	movi	r2,70
 10027f4:	2880b526 	beq	r5,r2,1002acc <___vfprintf_internal_r+0x1d1c>
 10027f8:	00801944 	movi	r2,101
 10027fc:	2880c826 	beq	r5,r2,1002b20 <___vfprintf_internal_r+0x1d70>
 1002800:	00801144 	movi	r2,69
 1002804:	2880c626 	beq	r5,r2,1002b20 <___vfprintf_internal_r+0x1d70>
 1002808:	9829883a 	mov	r20,r19
 100280c:	d9014f17 	ldw	r4,1340(sp)
 1002810:	d8800504 	addi	r2,sp,20
 1002814:	880d883a 	mov	r6,r17
 1002818:	d8800115 	stw	r2,4(sp)
 100281c:	d8c00604 	addi	r3,sp,24
 1002820:	d8800704 	addi	r2,sp,28
 1002824:	800b883a 	mov	r5,r16
 1002828:	01c00084 	movi	r7,2
 100282c:	d8c00215 	stw	r3,8(sp)
 1002830:	d8800315 	stw	r2,12(sp)
 1002834:	dd000015 	stw	r20,0(sp)
 1002838:	10030180 	call	1003018 <_dtoa_r>
 100283c:	d9814d17 	ldw	r6,1332(sp)
 1002840:	d8814115 	stw	r2,1284(sp)
 1002844:	008019c4 	movi	r2,103
 1002848:	30809526 	beq	r6,r2,1002aa0 <___vfprintf_internal_r+0x1cf0>
 100284c:	d8c14d17 	ldw	r3,1332(sp)
 1002850:	008011c4 	movi	r2,71
 1002854:	18809226 	beq	r3,r2,1002aa0 <___vfprintf_internal_r+0x1cf0>
 1002858:	d9414117 	ldw	r5,1284(sp)
 100285c:	d9814d17 	ldw	r6,1332(sp)
 1002860:	00801984 	movi	r2,102
 1002864:	2d25883a 	add	r18,r5,r20
 1002868:	30808626 	beq	r6,r2,1002a84 <___vfprintf_internal_r+0x1cd4>
 100286c:	00801184 	movi	r2,70
 1002870:	30808426 	beq	r6,r2,1002a84 <___vfprintf_internal_r+0x1cd4>
 1002874:	000d883a 	mov	r6,zero
 1002878:	000f883a 	mov	r7,zero
 100287c:	880b883a 	mov	r5,r17
 1002880:	8009883a 	mov	r4,r16
 1002884:	10099000 	call	1009900 <__eqdf2>
 1002888:	1000751e 	bne	r2,zero,1002a60 <___vfprintf_internal_r+0x1cb0>
 100288c:	9005883a 	mov	r2,r18
 1002890:	dc800715 	stw	r18,28(sp)
 1002894:	d9014117 	ldw	r4,1284(sp)
 1002898:	d9414d17 	ldw	r5,1332(sp)
 100289c:	00c019c4 	movi	r3,103
 10028a0:	1125c83a 	sub	r18,r2,r4
 10028a4:	28c06826 	beq	r5,r3,1002a48 <___vfprintf_internal_r+0x1c98>
 10028a8:	008011c4 	movi	r2,71
 10028ac:	28806626 	beq	r5,r2,1002a48 <___vfprintf_internal_r+0x1c98>
 10028b0:	d9000517 	ldw	r4,20(sp)
 10028b4:	d8c14d17 	ldw	r3,1332(sp)
 10028b8:	00801944 	movi	r2,101
 10028bc:	10c05516 	blt	r2,r3,1002a14 <___vfprintf_internal_r+0x1c64>
 10028c0:	213fffc4 	addi	r4,r4,-1
 10028c4:	d9000515 	stw	r4,20(sp)
 10028c8:	d8c00805 	stb	r3,32(sp)
 10028cc:	2021883a 	mov	r16,r4
 10028d0:	2000c116 	blt	r4,zero,1002bd8 <___vfprintf_internal_r+0x1e28>
 10028d4:	00800ac4 	movi	r2,43
 10028d8:	d8800845 	stb	r2,33(sp)
 10028dc:	00800244 	movi	r2,9
 10028e0:	1400af0e 	bge	r2,r16,1002ba0 <___vfprintf_internal_r+0x1df0>
 10028e4:	1027883a 	mov	r19,r2
 10028e8:	dc400b84 	addi	r17,sp,46
 10028ec:	8009883a 	mov	r4,r16
 10028f0:	01400284 	movi	r5,10
 10028f4:	1000ab40 	call	1000ab4 <__modsi3>
 10028f8:	10800c04 	addi	r2,r2,48
 10028fc:	8c7fffc4 	addi	r17,r17,-1
 1002900:	8009883a 	mov	r4,r16
 1002904:	01400284 	movi	r5,10
 1002908:	88800005 	stb	r2,0(r17)
 100290c:	1000a540 	call	1000a54 <__divsi3>
 1002910:	1021883a 	mov	r16,r2
 1002914:	98bff516 	blt	r19,r2,10028ec <___vfprintf_internal_r+0x1b3c>
 1002918:	10c00c04 	addi	r3,r2,48
 100291c:	d88009c4 	addi	r2,sp,39
 1002920:	108001c4 	addi	r2,r2,7
 1002924:	897fffc4 	addi	r5,r17,-1
 1002928:	88ffffc5 	stb	r3,-1(r17)
 100292c:	2880a72e 	bgeu	r5,r2,1002bcc <___vfprintf_internal_r+0x1e1c>
 1002930:	1009883a 	mov	r4,r2
 1002934:	d9800804 	addi	r6,sp,32
 1002938:	d8c00884 	addi	r3,sp,34
 100293c:	28800003 	ldbu	r2,0(r5)
 1002940:	29400044 	addi	r5,r5,1
 1002944:	18800005 	stb	r2,0(r3)
 1002948:	18c00044 	addi	r3,r3,1
 100294c:	293ffb36 	bltu	r5,r4,100293c <___vfprintf_internal_r+0x1b8c>
 1002950:	1987c83a 	sub	r3,r3,r6
 1002954:	00800044 	movi	r2,1
 1002958:	d8c14815 	stw	r3,1312(sp)
 100295c:	90cf883a 	add	r7,r18,r3
 1002960:	1480960e 	bge	r2,r18,1002bbc <___vfprintf_internal_r+0x1e0c>
 1002964:	39c00044 	addi	r7,r7,1
 1002968:	d9c14515 	stw	r7,1300(sp)
 100296c:	38003416 	blt	r7,zero,1002a40 <___vfprintf_internal_r+0x1c90>
 1002970:	e0803fcc 	andi	r2,fp,255
 1002974:	1080201c 	xori	r2,r2,128
 1002978:	10bfe004 	addi	r2,r2,-128
 100297c:	10004e26 	beq	r2,zero,1002ab8 <___vfprintf_internal_r+0x1d08>
 1002980:	00800b44 	movi	r2,45
 1002984:	dc814715 	stw	r18,1308(sp)
 1002988:	d8014615 	stw	zero,1304(sp)
 100298c:	d8800405 	stb	r2,16(sp)
 1002990:	003bab06 	br	1001840 <___vfprintf_internal_r+0xa90>
 1002994:	00800b44 	movi	r2,45
 1002998:	d8800405 	stb	r2,16(sp)
 100299c:	003d2d06 	br	1001e54 <___vfprintf_internal_r+0x10a4>
 10029a0:	d9014f17 	ldw	r4,1340(sp)
 10029a4:	b00b883a 	mov	r5,r22
 10029a8:	d9800c04 	addi	r6,sp,48
 10029ac:	1000d580 	call	1000d58 <__sprint_r>
 10029b0:	103ab71e 	bne	r2,zero,1001490 <___vfprintf_internal_r+0x6e0>
 10029b4:	003ab506 	br	100148c <___vfprintf_internal_r+0x6dc>
 10029b8:	38800017 	ldw	r2,0(r7)
 10029bc:	39c00104 	addi	r7,r7,4
 10029c0:	d9c14015 	stw	r7,1280(sp)
 10029c4:	d9414b17 	ldw	r5,1324(sp)
 10029c8:	d9c14017 	ldw	r7,1280(sp)
 10029cc:	11400015 	stw	r5,0(r2)
 10029d0:	00395306 	br	1000f20 <___vfprintf_internal_r+0x170>
 10029d4:	980f883a 	mov	r7,r19
 10029d8:	dcc14515 	stw	r19,1300(sp)
 10029dc:	d8014615 	stw	zero,1304(sp)
 10029e0:	003b9506 	br	1001838 <___vfprintf_internal_r+0xa88>
 10029e4:	0027883a 	mov	r19,zero
 10029e8:	00397206 	br	1000fb4 <___vfprintf_internal_r+0x204>
 10029ec:	00c04074 	movhi	r3,257
 10029f0:	18fabc04 	addi	r3,r3,-5392
 10029f4:	100f883a 	mov	r7,r2
 10029f8:	d8814515 	stw	r2,1300(sp)
 10029fc:	d8c14115 	stw	r3,1284(sp)
 1002a00:	0039da06 	br	100116c <___vfprintf_internal_r+0x3bc>
 1002a04:	00804074 	movhi	r2,257
 1002a08:	10babb04 	addi	r2,r2,-5396
 1002a0c:	d8814115 	stw	r2,1284(sp)
 1002a10:	003d1606 	br	1001e6c <___vfprintf_internal_r+0x10bc>
 1002a14:	d9414d17 	ldw	r5,1332(sp)
 1002a18:	00801984 	movi	r2,102
 1002a1c:	28804926 	beq	r5,r2,1002b44 <___vfprintf_internal_r+0x1d94>
 1002a20:	200f883a 	mov	r7,r4
 1002a24:	24805716 	blt	r4,r18,1002b84 <___vfprintf_internal_r+0x1dd4>
 1002a28:	d9414c17 	ldw	r5,1328(sp)
 1002a2c:	2880004c 	andi	r2,r5,1
 1002a30:	10000126 	beq	r2,zero,1002a38 <___vfprintf_internal_r+0x1c88>
 1002a34:	21c00044 	addi	r7,r4,1
 1002a38:	d9c14515 	stw	r7,1300(sp)
 1002a3c:	383fcc0e 	bge	r7,zero,1002970 <___vfprintf_internal_r+0x1bc0>
 1002a40:	d8014515 	stw	zero,1300(sp)
 1002a44:	003fca06 	br	1002970 <___vfprintf_internal_r+0x1bc0>
 1002a48:	d9000517 	ldw	r4,20(sp)
 1002a4c:	00bfff04 	movi	r2,-4
 1002a50:	1100480e 	bge	r2,r4,1002b74 <___vfprintf_internal_r+0x1dc4>
 1002a54:	99004716 	blt	r19,r4,1002b74 <___vfprintf_internal_r+0x1dc4>
 1002a58:	d8c14d15 	stw	r3,1332(sp)
 1002a5c:	003ff006 	br	1002a20 <___vfprintf_internal_r+0x1c70>
 1002a60:	d8800717 	ldw	r2,28(sp)
 1002a64:	14bf8b2e 	bgeu	r2,r18,1002894 <___vfprintf_internal_r+0x1ae4>
 1002a68:	9007883a 	mov	r3,r18
 1002a6c:	01000c04 	movi	r4,48
 1002a70:	11000005 	stb	r4,0(r2)
 1002a74:	10800044 	addi	r2,r2,1
 1002a78:	d8800715 	stw	r2,28(sp)
 1002a7c:	18bffc1e 	bne	r3,r2,1002a70 <___vfprintf_internal_r+0x1cc0>
 1002a80:	003f8406 	br	1002894 <___vfprintf_internal_r+0x1ae4>
 1002a84:	d8814117 	ldw	r2,1284(sp)
 1002a88:	10c00007 	ldb	r3,0(r2)
 1002a8c:	00800c04 	movi	r2,48
 1002a90:	18805b26 	beq	r3,r2,1002c00 <___vfprintf_internal_r+0x1e50>
 1002a94:	d9000517 	ldw	r4,20(sp)
 1002a98:	9125883a 	add	r18,r18,r4
 1002a9c:	003f7506 	br	1002874 <___vfprintf_internal_r+0x1ac4>
 1002aa0:	d9014c17 	ldw	r4,1328(sp)
 1002aa4:	2080004c 	andi	r2,r4,1
 1002aa8:	1005003a 	cmpeq	r2,r2,zero
 1002aac:	103f6a26 	beq	r2,zero,1002858 <___vfprintf_internal_r+0x1aa8>
 1002ab0:	d8800717 	ldw	r2,28(sp)
 1002ab4:	003f7706 	br	1002894 <___vfprintf_internal_r+0x1ae4>
 1002ab8:	d9c14515 	stw	r7,1300(sp)
 1002abc:	38004d16 	blt	r7,zero,1002bf4 <___vfprintf_internal_r+0x1e44>
 1002ac0:	dc814715 	stw	r18,1308(sp)
 1002ac4:	d8014615 	stw	zero,1304(sp)
 1002ac8:	003b5b06 	br	1001838 <___vfprintf_internal_r+0xa88>
 1002acc:	d9014f17 	ldw	r4,1340(sp)
 1002ad0:	d8800504 	addi	r2,sp,20
 1002ad4:	d8800115 	stw	r2,4(sp)
 1002ad8:	d8c00604 	addi	r3,sp,24
 1002adc:	d8800704 	addi	r2,sp,28
 1002ae0:	800b883a 	mov	r5,r16
 1002ae4:	880d883a 	mov	r6,r17
 1002ae8:	01c000c4 	movi	r7,3
 1002aec:	d8c00215 	stw	r3,8(sp)
 1002af0:	d8800315 	stw	r2,12(sp)
 1002af4:	dcc00015 	stw	r19,0(sp)
 1002af8:	9829883a 	mov	r20,r19
 1002afc:	10030180 	call	1003018 <_dtoa_r>
 1002b00:	d8814115 	stw	r2,1284(sp)
 1002b04:	003f5106 	br	100284c <___vfprintf_internal_r+0x1a9c>
 1002b08:	d8c14217 	ldw	r3,1288(sp)
 1002b0c:	d9014317 	ldw	r4,1292(sp)
 1002b10:	07000b44 	movi	fp,45
 1002b14:	1821883a 	mov	r16,r3
 1002b18:	2460003c 	xorhi	r17,r4,32768
 1002b1c:	003f3106 	br	10027e4 <___vfprintf_internal_r+0x1a34>
 1002b20:	9d000044 	addi	r20,r19,1
 1002b24:	003f3906 	br	100280c <___vfprintf_internal_r+0x1a5c>
 1002b28:	983f251e 	bne	r19,zero,10027c0 <___vfprintf_internal_r+0x1a10>
 1002b2c:	04c00044 	movi	r19,1
 1002b30:	003f2306 	br	10027c0 <___vfprintf_internal_r+0x1a10>
 1002b34:	04c00184 	movi	r19,6
 1002b38:	003f2106 	br	10027c0 <___vfprintf_internal_r+0x1a10>
 1002b3c:	d8014515 	stw	zero,1300(sp)
 1002b40:	003eee06 	br	10026fc <___vfprintf_internal_r+0x194c>
 1002b44:	200f883a 	mov	r7,r4
 1002b48:	0100370e 	bge	zero,r4,1002c28 <___vfprintf_internal_r+0x1e78>
 1002b4c:	9800031e 	bne	r19,zero,1002b5c <___vfprintf_internal_r+0x1dac>
 1002b50:	d9814c17 	ldw	r6,1328(sp)
 1002b54:	3080004c 	andi	r2,r6,1
 1002b58:	103fb726 	beq	r2,zero,1002a38 <___vfprintf_internal_r+0x1c88>
 1002b5c:	20800044 	addi	r2,r4,1
 1002b60:	98a7883a 	add	r19,r19,r2
 1002b64:	dcc14515 	stw	r19,1300(sp)
 1002b68:	980f883a 	mov	r7,r19
 1002b6c:	983f800e 	bge	r19,zero,1002970 <___vfprintf_internal_r+0x1bc0>
 1002b70:	003fb306 	br	1002a40 <___vfprintf_internal_r+0x1c90>
 1002b74:	d9814d17 	ldw	r6,1332(sp)
 1002b78:	31bfff84 	addi	r6,r6,-2
 1002b7c:	d9814d15 	stw	r6,1332(sp)
 1002b80:	003f4c06 	br	10028b4 <___vfprintf_internal_r+0x1b04>
 1002b84:	0100180e 	bge	zero,r4,1002be8 <___vfprintf_internal_r+0x1e38>
 1002b88:	00800044 	movi	r2,1
 1002b8c:	1485883a 	add	r2,r2,r18
 1002b90:	d8814515 	stw	r2,1300(sp)
 1002b94:	100f883a 	mov	r7,r2
 1002b98:	103f750e 	bge	r2,zero,1002970 <___vfprintf_internal_r+0x1bc0>
 1002b9c:	003fa806 	br	1002a40 <___vfprintf_internal_r+0x1c90>
 1002ba0:	80c00c04 	addi	r3,r16,48
 1002ba4:	00800c04 	movi	r2,48
 1002ba8:	d8c008c5 	stb	r3,35(sp)
 1002bac:	d9800804 	addi	r6,sp,32
 1002bb0:	d8c00904 	addi	r3,sp,36
 1002bb4:	d8800885 	stb	r2,34(sp)
 1002bb8:	003f6506 	br	1002950 <___vfprintf_internal_r+0x1ba0>
 1002bbc:	d9014c17 	ldw	r4,1328(sp)
 1002bc0:	2084703a 	and	r2,r4,r2
 1002bc4:	103f9c26 	beq	r2,zero,1002a38 <___vfprintf_internal_r+0x1c88>
 1002bc8:	003f6606 	br	1002964 <___vfprintf_internal_r+0x1bb4>
 1002bcc:	d9800804 	addi	r6,sp,32
 1002bd0:	d8c00884 	addi	r3,sp,34
 1002bd4:	003f5e06 	br	1002950 <___vfprintf_internal_r+0x1ba0>
 1002bd8:	00800b44 	movi	r2,45
 1002bdc:	0121c83a 	sub	r16,zero,r4
 1002be0:	d8800845 	stb	r2,33(sp)
 1002be4:	003f3d06 	br	10028dc <___vfprintf_internal_r+0x1b2c>
 1002be8:	00800084 	movi	r2,2
 1002bec:	1105c83a 	sub	r2,r2,r4
 1002bf0:	003fe606 	br	1002b8c <___vfprintf_internal_r+0x1ddc>
 1002bf4:	d8014515 	stw	zero,1300(sp)
 1002bf8:	dc814715 	stw	r18,1308(sp)
 1002bfc:	003fb106 	br	1002ac4 <___vfprintf_internal_r+0x1d14>
 1002c00:	000d883a 	mov	r6,zero
 1002c04:	000f883a 	mov	r7,zero
 1002c08:	8009883a 	mov	r4,r16
 1002c0c:	880b883a 	mov	r5,r17
 1002c10:	10099880 	call	1009988 <__nedf2>
 1002c14:	103f9f26 	beq	r2,zero,1002a94 <___vfprintf_internal_r+0x1ce4>
 1002c18:	00800044 	movi	r2,1
 1002c1c:	1509c83a 	sub	r4,r2,r20
 1002c20:	d9000515 	stw	r4,20(sp)
 1002c24:	003f9b06 	br	1002a94 <___vfprintf_internal_r+0x1ce4>
 1002c28:	98000d1e 	bne	r19,zero,1002c60 <___vfprintf_internal_r+0x1eb0>
 1002c2c:	d8c14c17 	ldw	r3,1328(sp)
 1002c30:	1880004c 	andi	r2,r3,1
 1002c34:	10000a1e 	bne	r2,zero,1002c60 <___vfprintf_internal_r+0x1eb0>
 1002c38:	01000044 	movi	r4,1
 1002c3c:	200f883a 	mov	r7,r4
 1002c40:	d9014515 	stw	r4,1300(sp)
 1002c44:	003f4a06 	br	1002970 <___vfprintf_internal_r+0x1bc0>
 1002c48:	3cc00017 	ldw	r19,0(r7)
 1002c4c:	39c00104 	addi	r7,r7,4
 1002c50:	983d0e0e 	bge	r19,zero,100208c <___vfprintf_internal_r+0x12dc>
 1002c54:	b8c00007 	ldb	r3,0(r23)
 1002c58:	04ffffc4 	movi	r19,-1
 1002c5c:	0038d306 	br	1000fac <___vfprintf_internal_r+0x1fc>
 1002c60:	9cc00084 	addi	r19,r19,2
 1002c64:	dcc14515 	stw	r19,1300(sp)
 1002c68:	980f883a 	mov	r7,r19
 1002c6c:	983f400e 	bge	r19,zero,1002970 <___vfprintf_internal_r+0x1bc0>
 1002c70:	003f7306 	br	1002a40 <___vfprintf_internal_r+0x1c90>

01002c74 <__vfprintf_internal>:
 1002c74:	00804074 	movhi	r2,257
 1002c78:	10824c04 	addi	r2,r2,2352
 1002c7c:	2013883a 	mov	r9,r4
 1002c80:	11000017 	ldw	r4,0(r2)
 1002c84:	2805883a 	mov	r2,r5
 1002c88:	300f883a 	mov	r7,r6
 1002c8c:	480b883a 	mov	r5,r9
 1002c90:	100d883a 	mov	r6,r2
 1002c94:	1000db01 	jmpi	1000db0 <___vfprintf_internal_r>

01002c98 <__swsetup_r>:
 1002c98:	00804074 	movhi	r2,257
 1002c9c:	10824c04 	addi	r2,r2,2352
 1002ca0:	10c00017 	ldw	r3,0(r2)
 1002ca4:	defffd04 	addi	sp,sp,-12
 1002ca8:	dc400115 	stw	r17,4(sp)
 1002cac:	dc000015 	stw	r16,0(sp)
 1002cb0:	dfc00215 	stw	ra,8(sp)
 1002cb4:	2023883a 	mov	r17,r4
 1002cb8:	2821883a 	mov	r16,r5
 1002cbc:	18000226 	beq	r3,zero,1002cc8 <__swsetup_r+0x30>
 1002cc0:	18800e17 	ldw	r2,56(r3)
 1002cc4:	10001f26 	beq	r2,zero,1002d44 <__swsetup_r+0xac>
 1002cc8:	8100030b 	ldhu	r4,12(r16)
 1002ccc:	2080020c 	andi	r2,r4,8
 1002cd0:	10002826 	beq	r2,zero,1002d74 <__swsetup_r+0xdc>
 1002cd4:	81400417 	ldw	r5,16(r16)
 1002cd8:	28001d26 	beq	r5,zero,1002d50 <__swsetup_r+0xb8>
 1002cdc:	2080004c 	andi	r2,r4,1
 1002ce0:	1005003a 	cmpeq	r2,r2,zero
 1002ce4:	10000b26 	beq	r2,zero,1002d14 <__swsetup_r+0x7c>
 1002ce8:	2080008c 	andi	r2,r4,2
 1002cec:	10001226 	beq	r2,zero,1002d38 <__swsetup_r+0xa0>
 1002cf0:	0005883a 	mov	r2,zero
 1002cf4:	80800215 	stw	r2,8(r16)
 1002cf8:	28000b26 	beq	r5,zero,1002d28 <__swsetup_r+0x90>
 1002cfc:	0005883a 	mov	r2,zero
 1002d00:	dfc00217 	ldw	ra,8(sp)
 1002d04:	dc400117 	ldw	r17,4(sp)
 1002d08:	dc000017 	ldw	r16,0(sp)
 1002d0c:	dec00304 	addi	sp,sp,12
 1002d10:	f800283a 	ret
 1002d14:	80800517 	ldw	r2,20(r16)
 1002d18:	80000215 	stw	zero,8(r16)
 1002d1c:	0085c83a 	sub	r2,zero,r2
 1002d20:	80800615 	stw	r2,24(r16)
 1002d24:	283ff51e 	bne	r5,zero,1002cfc <__swsetup_r+0x64>
 1002d28:	2080200c 	andi	r2,r4,128
 1002d2c:	103ff326 	beq	r2,zero,1002cfc <__swsetup_r+0x64>
 1002d30:	00bfffc4 	movi	r2,-1
 1002d34:	003ff206 	br	1002d00 <__swsetup_r+0x68>
 1002d38:	80800517 	ldw	r2,20(r16)
 1002d3c:	80800215 	stw	r2,8(r16)
 1002d40:	003fed06 	br	1002cf8 <__swsetup_r+0x60>
 1002d44:	1809883a 	mov	r4,r3
 1002d48:	10048640 	call	1004864 <__sinit>
 1002d4c:	003fde06 	br	1002cc8 <__swsetup_r+0x30>
 1002d50:	20c0a00c 	andi	r3,r4,640
 1002d54:	00808004 	movi	r2,512
 1002d58:	18bfe026 	beq	r3,r2,1002cdc <__swsetup_r+0x44>
 1002d5c:	8809883a 	mov	r4,r17
 1002d60:	800b883a 	mov	r5,r16
 1002d64:	10056100 	call	1005610 <__smakebuf_r>
 1002d68:	8100030b 	ldhu	r4,12(r16)
 1002d6c:	81400417 	ldw	r5,16(r16)
 1002d70:	003fda06 	br	1002cdc <__swsetup_r+0x44>
 1002d74:	2080040c 	andi	r2,r4,16
 1002d78:	103fed26 	beq	r2,zero,1002d30 <__swsetup_r+0x98>
 1002d7c:	2080010c 	andi	r2,r4,4
 1002d80:	10001226 	beq	r2,zero,1002dcc <__swsetup_r+0x134>
 1002d84:	81400c17 	ldw	r5,48(r16)
 1002d88:	28000526 	beq	r5,zero,1002da0 <__swsetup_r+0x108>
 1002d8c:	80801004 	addi	r2,r16,64
 1002d90:	28800226 	beq	r5,r2,1002d9c <__swsetup_r+0x104>
 1002d94:	8809883a 	mov	r4,r17
 1002d98:	1004c1c0 	call	1004c1c <_free_r>
 1002d9c:	80000c15 	stw	zero,48(r16)
 1002da0:	8080030b 	ldhu	r2,12(r16)
 1002da4:	81400417 	ldw	r5,16(r16)
 1002da8:	80000115 	stw	zero,4(r16)
 1002dac:	10bff6cc 	andi	r2,r2,65499
 1002db0:	8080030d 	sth	r2,12(r16)
 1002db4:	81400015 	stw	r5,0(r16)
 1002db8:	8080030b 	ldhu	r2,12(r16)
 1002dbc:	10800214 	ori	r2,r2,8
 1002dc0:	113fffcc 	andi	r4,r2,65535
 1002dc4:	8080030d 	sth	r2,12(r16)
 1002dc8:	003fc306 	br	1002cd8 <__swsetup_r+0x40>
 1002dcc:	81400417 	ldw	r5,16(r16)
 1002dd0:	003ff906 	br	1002db8 <__swsetup_r+0x120>

01002dd4 <quorem>:
 1002dd4:	28c00417 	ldw	r3,16(r5)
 1002dd8:	20800417 	ldw	r2,16(r4)
 1002ddc:	defff104 	addi	sp,sp,-60
 1002de0:	dfc00e15 	stw	ra,56(sp)
 1002de4:	df000d15 	stw	fp,52(sp)
 1002de8:	ddc00c15 	stw	r23,48(sp)
 1002dec:	dd800b15 	stw	r22,44(sp)
 1002df0:	dd400a15 	stw	r21,40(sp)
 1002df4:	dd000915 	stw	r20,36(sp)
 1002df8:	dcc00815 	stw	r19,32(sp)
 1002dfc:	dc800715 	stw	r18,28(sp)
 1002e00:	dc400615 	stw	r17,24(sp)
 1002e04:	dc000515 	stw	r16,20(sp)
 1002e08:	d9000315 	stw	r4,12(sp)
 1002e0c:	d9400415 	stw	r5,16(sp)
 1002e10:	10c07f16 	blt	r2,r3,1003010 <quorem+0x23c>
 1002e14:	1d3fffc4 	addi	r20,r3,-1
 1002e18:	d8c00417 	ldw	r3,16(sp)
 1002e1c:	d9000317 	ldw	r4,12(sp)
 1002e20:	a505883a 	add	r2,r20,r20
 1002e24:	1085883a 	add	r2,r2,r2
 1002e28:	1cc00504 	addi	r19,r3,20
 1002e2c:	25c00504 	addi	r23,r4,20
 1002e30:	98ad883a 	add	r22,r19,r2
 1002e34:	15c7883a 	add	r3,r2,r23
 1002e38:	b1400017 	ldw	r5,0(r22)
 1002e3c:	19000017 	ldw	r4,0(r3)
 1002e40:	d8c00015 	stw	r3,0(sp)
 1002e44:	29400044 	addi	r5,r5,1
 1002e48:	d9000215 	stw	r4,8(sp)
 1002e4c:	1000b140 	call	1000b14 <__udivsi3>
 1002e50:	1039883a 	mov	fp,r2
 1002e54:	10003d1e 	bne	r2,zero,1002f4c <quorem+0x178>
 1002e58:	d9400417 	ldw	r5,16(sp)
 1002e5c:	d9000317 	ldw	r4,12(sp)
 1002e60:	100633c0 	call	100633c <__mcmp>
 1002e64:	10002c16 	blt	r2,zero,1002f18 <quorem+0x144>
 1002e68:	e7000044 	addi	fp,fp,1
 1002e6c:	b80f883a 	mov	r7,r23
 1002e70:	0011883a 	mov	r8,zero
 1002e74:	0009883a 	mov	r4,zero
 1002e78:	99400017 	ldw	r5,0(r19)
 1002e7c:	38c00017 	ldw	r3,0(r7)
 1002e80:	9cc00104 	addi	r19,r19,4
 1002e84:	28bfffcc 	andi	r2,r5,65535
 1002e88:	2085883a 	add	r2,r4,r2
 1002e8c:	11bfffcc 	andi	r6,r2,65535
 1002e90:	193fffcc 	andi	r4,r3,65535
 1002e94:	1004d43a 	srli	r2,r2,16
 1002e98:	280ad43a 	srli	r5,r5,16
 1002e9c:	2189c83a 	sub	r4,r4,r6
 1002ea0:	2209883a 	add	r4,r4,r8
 1002ea4:	1806d43a 	srli	r3,r3,16
 1002ea8:	288b883a 	add	r5,r5,r2
 1002eac:	200dd43a 	srai	r6,r4,16
 1002eb0:	28bfffcc 	andi	r2,r5,65535
 1002eb4:	1887c83a 	sub	r3,r3,r2
 1002eb8:	1987883a 	add	r3,r3,r6
 1002ebc:	3900000d 	sth	r4,0(r7)
 1002ec0:	38c0008d 	sth	r3,2(r7)
 1002ec4:	2808d43a 	srli	r4,r5,16
 1002ec8:	39c00104 	addi	r7,r7,4
 1002ecc:	1811d43a 	srai	r8,r3,16
 1002ed0:	b4ffe92e 	bgeu	r22,r19,1002e78 <quorem+0xa4>
 1002ed4:	a505883a 	add	r2,r20,r20
 1002ed8:	1085883a 	add	r2,r2,r2
 1002edc:	b885883a 	add	r2,r23,r2
 1002ee0:	10c00017 	ldw	r3,0(r2)
 1002ee4:	18000c1e 	bne	r3,zero,1002f18 <quorem+0x144>
 1002ee8:	113fff04 	addi	r4,r2,-4
 1002eec:	b900082e 	bgeu	r23,r4,1002f10 <quorem+0x13c>
 1002ef0:	10bfff17 	ldw	r2,-4(r2)
 1002ef4:	10000326 	beq	r2,zero,1002f04 <quorem+0x130>
 1002ef8:	00000506 	br	1002f10 <quorem+0x13c>
 1002efc:	20800017 	ldw	r2,0(r4)
 1002f00:	1000031e 	bne	r2,zero,1002f10 <quorem+0x13c>
 1002f04:	213fff04 	addi	r4,r4,-4
 1002f08:	a53fffc4 	addi	r20,r20,-1
 1002f0c:	b93ffb36 	bltu	r23,r4,1002efc <quorem+0x128>
 1002f10:	d9000317 	ldw	r4,12(sp)
 1002f14:	25000415 	stw	r20,16(r4)
 1002f18:	e005883a 	mov	r2,fp
 1002f1c:	dfc00e17 	ldw	ra,56(sp)
 1002f20:	df000d17 	ldw	fp,52(sp)
 1002f24:	ddc00c17 	ldw	r23,48(sp)
 1002f28:	dd800b17 	ldw	r22,44(sp)
 1002f2c:	dd400a17 	ldw	r21,40(sp)
 1002f30:	dd000917 	ldw	r20,36(sp)
 1002f34:	dcc00817 	ldw	r19,32(sp)
 1002f38:	dc800717 	ldw	r18,28(sp)
 1002f3c:	dc400617 	ldw	r17,24(sp)
 1002f40:	dc000517 	ldw	r16,20(sp)
 1002f44:	dec00f04 	addi	sp,sp,60
 1002f48:	f800283a 	ret
 1002f4c:	b823883a 	mov	r17,r23
 1002f50:	9825883a 	mov	r18,r19
 1002f54:	d8000115 	stw	zero,4(sp)
 1002f58:	002b883a 	mov	r21,zero
 1002f5c:	94000017 	ldw	r16,0(r18)
 1002f60:	e009883a 	mov	r4,fp
 1002f64:	94800104 	addi	r18,r18,4
 1002f68:	817fffcc 	andi	r5,r16,65535
 1002f6c:	1009f0c0 	call	1009f0c <__mulsi3>
 1002f70:	800ad43a 	srli	r5,r16,16
 1002f74:	e009883a 	mov	r4,fp
 1002f78:	a8a1883a 	add	r16,r21,r2
 1002f7c:	1009f0c0 	call	1009f0c <__mulsi3>
 1002f80:	89000017 	ldw	r4,0(r17)
 1002f84:	80ffffcc 	andi	r3,r16,65535
 1002f88:	8020d43a 	srli	r16,r16,16
 1002f8c:	217fffcc 	andi	r5,r4,65535
 1002f90:	28cbc83a 	sub	r5,r5,r3
 1002f94:	d8c00117 	ldw	r3,4(sp)
 1002f98:	2008d43a 	srli	r4,r4,16
 1002f9c:	1405883a 	add	r2,r2,r16
 1002fa0:	28cb883a 	add	r5,r5,r3
 1002fa4:	280dd43a 	srai	r6,r5,16
 1002fa8:	10ffffcc 	andi	r3,r2,65535
 1002fac:	20c9c83a 	sub	r4,r4,r3
 1002fb0:	2189883a 	add	r4,r4,r6
 1002fb4:	8900008d 	sth	r4,2(r17)
 1002fb8:	2009d43a 	srai	r4,r4,16
 1002fbc:	8940000d 	sth	r5,0(r17)
 1002fc0:	102ad43a 	srli	r21,r2,16
 1002fc4:	8c400104 	addi	r17,r17,4
 1002fc8:	d9000115 	stw	r4,4(sp)
 1002fcc:	b4bfe32e 	bgeu	r22,r18,1002f5c <quorem+0x188>
 1002fd0:	d9000217 	ldw	r4,8(sp)
 1002fd4:	203fa01e 	bne	r4,zero,1002e58 <quorem+0x84>
 1002fd8:	d8800017 	ldw	r2,0(sp)
 1002fdc:	10ffff04 	addi	r3,r2,-4
 1002fe0:	b8c0082e 	bgeu	r23,r3,1003004 <quorem+0x230>
 1002fe4:	10bfff17 	ldw	r2,-4(r2)
 1002fe8:	10000326 	beq	r2,zero,1002ff8 <quorem+0x224>
 1002fec:	00000506 	br	1003004 <quorem+0x230>
 1002ff0:	18800017 	ldw	r2,0(r3)
 1002ff4:	1000031e 	bne	r2,zero,1003004 <quorem+0x230>
 1002ff8:	18ffff04 	addi	r3,r3,-4
 1002ffc:	a53fffc4 	addi	r20,r20,-1
 1003000:	b8fffb36 	bltu	r23,r3,1002ff0 <quorem+0x21c>
 1003004:	d8c00317 	ldw	r3,12(sp)
 1003008:	1d000415 	stw	r20,16(r3)
 100300c:	003f9206 	br	1002e58 <quorem+0x84>
 1003010:	0005883a 	mov	r2,zero
 1003014:	003fc106 	br	1002f1c <quorem+0x148>

01003018 <_dtoa_r>:
 1003018:	22001017 	ldw	r8,64(r4)
 100301c:	deffda04 	addi	sp,sp,-152
 1003020:	dd402115 	stw	r21,132(sp)
 1003024:	dd002015 	stw	r20,128(sp)
 1003028:	dc801e15 	stw	r18,120(sp)
 100302c:	dc401d15 	stw	r17,116(sp)
 1003030:	dfc02515 	stw	ra,148(sp)
 1003034:	df002415 	stw	fp,144(sp)
 1003038:	ddc02315 	stw	r23,140(sp)
 100303c:	dd802215 	stw	r22,136(sp)
 1003040:	dcc01f15 	stw	r19,124(sp)
 1003044:	dc001c15 	stw	r16,112(sp)
 1003048:	d9001615 	stw	r4,88(sp)
 100304c:	3023883a 	mov	r17,r6
 1003050:	2829883a 	mov	r20,r5
 1003054:	d9c01715 	stw	r7,92(sp)
 1003058:	dc802817 	ldw	r18,160(sp)
 100305c:	302b883a 	mov	r21,r6
 1003060:	40000a26 	beq	r8,zero,100308c <_dtoa_r+0x74>
 1003064:	20801117 	ldw	r2,68(r4)
 1003068:	400b883a 	mov	r5,r8
 100306c:	40800115 	stw	r2,4(r8)
 1003070:	20c01117 	ldw	r3,68(r4)
 1003074:	00800044 	movi	r2,1
 1003078:	10c4983a 	sll	r2,r2,r3
 100307c:	40800215 	stw	r2,8(r8)
 1003080:	10061e00 	call	10061e0 <_Bfree>
 1003084:	d8c01617 	ldw	r3,88(sp)
 1003088:	18001015 	stw	zero,64(r3)
 100308c:	8800a316 	blt	r17,zero,100331c <_dtoa_r+0x304>
 1003090:	90000015 	stw	zero,0(r18)
 1003094:	a8dffc2c 	andhi	r3,r21,32752
 1003098:	009ffc34 	movhi	r2,32752
 100309c:	18809126 	beq	r3,r2,10032e4 <_dtoa_r+0x2cc>
 10030a0:	000d883a 	mov	r6,zero
 10030a4:	000f883a 	mov	r7,zero
 10030a8:	a009883a 	mov	r4,r20
 10030ac:	a80b883a 	mov	r5,r21
 10030b0:	dd001215 	stw	r20,72(sp)
 10030b4:	dd401315 	stw	r21,76(sp)
 10030b8:	10099880 	call	1009988 <__nedf2>
 10030bc:	1000171e 	bne	r2,zero,100311c <_dtoa_r+0x104>
 10030c0:	d9802717 	ldw	r6,156(sp)
 10030c4:	00800044 	movi	r2,1
 10030c8:	30800015 	stw	r2,0(r6)
 10030cc:	d8802917 	ldw	r2,164(sp)
 10030d0:	10029b26 	beq	r2,zero,1003b40 <_dtoa_r+0xb28>
 10030d4:	d9002917 	ldw	r4,164(sp)
 10030d8:	00804074 	movhi	r2,257
 10030dc:	10baca44 	addi	r2,r2,-5335
 10030e0:	10ffffc4 	addi	r3,r2,-1
 10030e4:	20800015 	stw	r2,0(r4)
 10030e8:	1805883a 	mov	r2,r3
 10030ec:	dfc02517 	ldw	ra,148(sp)
 10030f0:	df002417 	ldw	fp,144(sp)
 10030f4:	ddc02317 	ldw	r23,140(sp)
 10030f8:	dd802217 	ldw	r22,136(sp)
 10030fc:	dd402117 	ldw	r21,132(sp)
 1003100:	dd002017 	ldw	r20,128(sp)
 1003104:	dcc01f17 	ldw	r19,124(sp)
 1003108:	dc801e17 	ldw	r18,120(sp)
 100310c:	dc401d17 	ldw	r17,116(sp)
 1003110:	dc001c17 	ldw	r16,112(sp)
 1003114:	dec02604 	addi	sp,sp,152
 1003118:	f800283a 	ret
 100311c:	d9001617 	ldw	r4,88(sp)
 1003120:	d9401217 	ldw	r5,72(sp)
 1003124:	d8800104 	addi	r2,sp,4
 1003128:	a80d883a 	mov	r6,r21
 100312c:	d9c00204 	addi	r7,sp,8
 1003130:	d8800015 	stw	r2,0(sp)
 1003134:	100681c0 	call	100681c <__d2b>
 1003138:	d8800715 	stw	r2,28(sp)
 100313c:	a804d53a 	srli	r2,r21,20
 1003140:	1101ffcc 	andi	r4,r2,2047
 1003144:	20008626 	beq	r4,zero,1003360 <_dtoa_r+0x348>
 1003148:	d8c01217 	ldw	r3,72(sp)
 100314c:	00800434 	movhi	r2,16
 1003150:	10bfffc4 	addi	r2,r2,-1
 1003154:	ddc00117 	ldw	r23,4(sp)
 1003158:	a884703a 	and	r2,r21,r2
 100315c:	1811883a 	mov	r8,r3
 1003160:	124ffc34 	orhi	r9,r2,16368
 1003164:	25bf0044 	addi	r22,r4,-1023
 1003168:	d8000815 	stw	zero,32(sp)
 100316c:	0005883a 	mov	r2,zero
 1003170:	00cffe34 	movhi	r3,16376
 1003174:	480b883a 	mov	r5,r9
 1003178:	4009883a 	mov	r4,r8
 100317c:	180f883a 	mov	r7,r3
 1003180:	100d883a 	mov	r6,r2
 1003184:	10091f00 	call	10091f0 <__subdf3>
 1003188:	0218dbf4 	movhi	r8,25455
 100318c:	4210d844 	addi	r8,r8,17249
 1003190:	024ff4f4 	movhi	r9,16339
 1003194:	4a61e9c4 	addi	r9,r9,-30809
 1003198:	480f883a 	mov	r7,r9
 100319c:	400d883a 	mov	r6,r8
 10031a0:	180b883a 	mov	r5,r3
 10031a4:	1009883a 	mov	r4,r2
 10031a8:	10092e40 	call	10092e4 <__muldf3>
 10031ac:	0222d874 	movhi	r8,35681
 10031b0:	42322cc4 	addi	r8,r8,-14157
 10031b4:	024ff1f4 	movhi	r9,16327
 10031b8:	4a628a04 	addi	r9,r9,-30168
 10031bc:	480f883a 	mov	r7,r9
 10031c0:	400d883a 	mov	r6,r8
 10031c4:	180b883a 	mov	r5,r3
 10031c8:	1009883a 	mov	r4,r2
 10031cc:	10092700 	call	1009270 <__adddf3>
 10031d0:	b009883a 	mov	r4,r22
 10031d4:	1021883a 	mov	r16,r2
 10031d8:	1823883a 	mov	r17,r3
 10031dc:	1009ba80 	call	1009ba8 <__floatsidf>
 10031e0:	021427f4 	movhi	r8,20639
 10031e4:	421e7ec4 	addi	r8,r8,31227
 10031e8:	024ff4f4 	movhi	r9,16339
 10031ec:	4a5104c4 	addi	r9,r9,17427
 10031f0:	480f883a 	mov	r7,r9
 10031f4:	400d883a 	mov	r6,r8
 10031f8:	180b883a 	mov	r5,r3
 10031fc:	1009883a 	mov	r4,r2
 1003200:	10092e40 	call	10092e4 <__muldf3>
 1003204:	180f883a 	mov	r7,r3
 1003208:	880b883a 	mov	r5,r17
 100320c:	100d883a 	mov	r6,r2
 1003210:	8009883a 	mov	r4,r16
 1003214:	10092700 	call	1009270 <__adddf3>
 1003218:	1009883a 	mov	r4,r2
 100321c:	180b883a 	mov	r5,r3
 1003220:	1021883a 	mov	r16,r2
 1003224:	1823883a 	mov	r17,r3
 1003228:	1009ca00 	call	1009ca0 <__fixdfsi>
 100322c:	000d883a 	mov	r6,zero
 1003230:	000f883a 	mov	r7,zero
 1003234:	8009883a 	mov	r4,r16
 1003238:	880b883a 	mov	r5,r17
 100323c:	d8800d15 	stw	r2,52(sp)
 1003240:	1009b200 	call	1009b20 <__ltdf2>
 1003244:	10031716 	blt	r2,zero,1003ea4 <_dtoa_r+0xe8c>
 1003248:	d8c00d17 	ldw	r3,52(sp)
 100324c:	00800584 	movi	r2,22
 1003250:	10c1482e 	bgeu	r2,r3,1003774 <_dtoa_r+0x75c>
 1003254:	01000044 	movi	r4,1
 1003258:	d9000c15 	stw	r4,48(sp)
 100325c:	bd85c83a 	sub	r2,r23,r22
 1003260:	11bfffc4 	addi	r6,r2,-1
 1003264:	30030b16 	blt	r6,zero,1003e94 <_dtoa_r+0xe7c>
 1003268:	d9800a15 	stw	r6,40(sp)
 100326c:	d8001115 	stw	zero,68(sp)
 1003270:	d8c00d17 	ldw	r3,52(sp)
 1003274:	1802ff16 	blt	r3,zero,1003e74 <_dtoa_r+0xe5c>
 1003278:	d9000a17 	ldw	r4,40(sp)
 100327c:	d8c00915 	stw	r3,36(sp)
 1003280:	d8001015 	stw	zero,64(sp)
 1003284:	20c9883a 	add	r4,r4,r3
 1003288:	d9000a15 	stw	r4,40(sp)
 100328c:	d9001717 	ldw	r4,92(sp)
 1003290:	00800244 	movi	r2,9
 1003294:	11004636 	bltu	r2,r4,10033b0 <_dtoa_r+0x398>
 1003298:	00800144 	movi	r2,5
 100329c:	11020416 	blt	r2,r4,1003ab0 <_dtoa_r+0xa98>
 10032a0:	04400044 	movi	r17,1
 10032a4:	d8c01717 	ldw	r3,92(sp)
 10032a8:	00800144 	movi	r2,5
 10032ac:	10c1ed36 	bltu	r2,r3,1003a64 <_dtoa_r+0xa4c>
 10032b0:	18c5883a 	add	r2,r3,r3
 10032b4:	1085883a 	add	r2,r2,r2
 10032b8:	00c04034 	movhi	r3,256
 10032bc:	18ccb304 	addi	r3,r3,13004
 10032c0:	10c5883a 	add	r2,r2,r3
 10032c4:	11000017 	ldw	r4,0(r2)
 10032c8:	2000683a 	jmp	r4
 10032cc:	010033b8 	rdprs	r4,zero,206
 10032d0:	010033b8 	rdprs	r4,zero,206
 10032d4:	01003db8 	rdprs	r4,zero,246
 10032d8:	01003d90 	cmplti	r4,zero,246
 10032dc:	01003dd4 	movui	r4,247
 10032e0:	01003de0 	cmpeqi	r4,zero,247
 10032e4:	d9002717 	ldw	r4,156(sp)
 10032e8:	0089c3c4 	movi	r2,9999
 10032ec:	20800015 	stw	r2,0(r4)
 10032f0:	a0001026 	beq	r20,zero,1003334 <_dtoa_r+0x31c>
 10032f4:	00c04074 	movhi	r3,257
 10032f8:	18fad604 	addi	r3,r3,-5288
 10032fc:	d9802917 	ldw	r6,164(sp)
 1003300:	303f7926 	beq	r6,zero,10030e8 <_dtoa_r+0xd0>
 1003304:	188000c7 	ldb	r2,3(r3)
 1003308:	190000c4 	addi	r4,r3,3
 100330c:	1000101e 	bne	r2,zero,1003350 <_dtoa_r+0x338>
 1003310:	d8802917 	ldw	r2,164(sp)
 1003314:	11000015 	stw	r4,0(r2)
 1003318:	003f7306 	br	10030e8 <_dtoa_r+0xd0>
 100331c:	00a00034 	movhi	r2,32768
 1003320:	10bfffc4 	addi	r2,r2,-1
 1003324:	00c00044 	movi	r3,1
 1003328:	88aa703a 	and	r21,r17,r2
 100332c:	90c00015 	stw	r3,0(r18)
 1003330:	003f5806 	br	1003094 <_dtoa_r+0x7c>
 1003334:	00800434 	movhi	r2,16
 1003338:	10bfffc4 	addi	r2,r2,-1
 100333c:	a884703a 	and	r2,r21,r2
 1003340:	103fec1e 	bne	r2,zero,10032f4 <_dtoa_r+0x2dc>
 1003344:	00c04074 	movhi	r3,257
 1003348:	18fad304 	addi	r3,r3,-5300
 100334c:	003feb06 	br	10032fc <_dtoa_r+0x2e4>
 1003350:	d8802917 	ldw	r2,164(sp)
 1003354:	19000204 	addi	r4,r3,8
 1003358:	11000015 	stw	r4,0(r2)
 100335c:	003f6206 	br	10030e8 <_dtoa_r+0xd0>
 1003360:	ddc00117 	ldw	r23,4(sp)
 1003364:	d8800217 	ldw	r2,8(sp)
 1003368:	01000804 	movi	r4,32
 100336c:	b8c10c84 	addi	r3,r23,1074
 1003370:	18a3883a 	add	r17,r3,r2
 1003374:	2441b80e 	bge	r4,r17,1003a58 <_dtoa_r+0xa40>
 1003378:	00c01004 	movi	r3,64
 100337c:	1c47c83a 	sub	r3,r3,r17
 1003380:	88bff804 	addi	r2,r17,-32
 1003384:	a8c6983a 	sll	r3,r21,r3
 1003388:	a084d83a 	srl	r2,r20,r2
 100338c:	1888b03a 	or	r4,r3,r2
 1003390:	1009d780 	call	1009d78 <__floatunsidf>
 1003394:	1011883a 	mov	r8,r2
 1003398:	00bf8434 	movhi	r2,65040
 100339c:	01000044 	movi	r4,1
 10033a0:	10d3883a 	add	r9,r2,r3
 10033a4:	8dbef344 	addi	r22,r17,-1075
 10033a8:	d9000815 	stw	r4,32(sp)
 10033ac:	003f6f06 	br	100316c <_dtoa_r+0x154>
 10033b0:	d8001715 	stw	zero,92(sp)
 10033b4:	04400044 	movi	r17,1
 10033b8:	00bfffc4 	movi	r2,-1
 10033bc:	00c00044 	movi	r3,1
 10033c0:	d8800e15 	stw	r2,56(sp)
 10033c4:	d8002615 	stw	zero,152(sp)
 10033c8:	d8800f15 	stw	r2,60(sp)
 10033cc:	d8c00b15 	stw	r3,44(sp)
 10033d0:	1021883a 	mov	r16,r2
 10033d4:	d8801617 	ldw	r2,88(sp)
 10033d8:	10001115 	stw	zero,68(r2)
 10033dc:	d8801617 	ldw	r2,88(sp)
 10033e0:	11401117 	ldw	r5,68(r2)
 10033e4:	1009883a 	mov	r4,r2
 10033e8:	10067600 	call	1006760 <_Balloc>
 10033ec:	d8c01617 	ldw	r3,88(sp)
 10033f0:	d8800515 	stw	r2,20(sp)
 10033f4:	18801015 	stw	r2,64(r3)
 10033f8:	00800384 	movi	r2,14
 10033fc:	14006836 	bltu	r2,r16,10035a0 <_dtoa_r+0x588>
 1003400:	8805003a 	cmpeq	r2,r17,zero
 1003404:	1000661e 	bne	r2,zero,10035a0 <_dtoa_r+0x588>
 1003408:	d9000d17 	ldw	r4,52(sp)
 100340c:	0102300e 	bge	zero,r4,1003cd0 <_dtoa_r+0xcb8>
 1003410:	208003cc 	andi	r2,r4,15
 1003414:	100490fa 	slli	r2,r2,3
 1003418:	2025d13a 	srai	r18,r4,4
 100341c:	00c04074 	movhi	r3,257
 1003420:	18fae804 	addi	r3,r3,-5216
 1003424:	10c5883a 	add	r2,r2,r3
 1003428:	90c0040c 	andi	r3,r18,16
 100342c:	14000017 	ldw	r16,0(r2)
 1003430:	14400117 	ldw	r17,4(r2)
 1003434:	18036a1e 	bne	r3,zero,10041e0 <_dtoa_r+0x11c8>
 1003438:	05800084 	movi	r22,2
 100343c:	90001026 	beq	r18,zero,1003480 <_dtoa_r+0x468>
 1003440:	04c04074 	movhi	r19,257
 1003444:	9cfb1a04 	addi	r19,r19,-5016
 1003448:	9080004c 	andi	r2,r18,1
 100344c:	1005003a 	cmpeq	r2,r2,zero
 1003450:	1000081e 	bne	r2,zero,1003474 <_dtoa_r+0x45c>
 1003454:	99800017 	ldw	r6,0(r19)
 1003458:	99c00117 	ldw	r7,4(r19)
 100345c:	880b883a 	mov	r5,r17
 1003460:	8009883a 	mov	r4,r16
 1003464:	10092e40 	call	10092e4 <__muldf3>
 1003468:	1021883a 	mov	r16,r2
 100346c:	b5800044 	addi	r22,r22,1
 1003470:	1823883a 	mov	r17,r3
 1003474:	9025d07a 	srai	r18,r18,1
 1003478:	9cc00204 	addi	r19,r19,8
 100347c:	903ff21e 	bne	r18,zero,1003448 <_dtoa_r+0x430>
 1003480:	a80b883a 	mov	r5,r21
 1003484:	a009883a 	mov	r4,r20
 1003488:	880f883a 	mov	r7,r17
 100348c:	800d883a 	mov	r6,r16
 1003490:	10096a80 	call	10096a8 <__divdf3>
 1003494:	1029883a 	mov	r20,r2
 1003498:	182b883a 	mov	r21,r3
 100349c:	d8c00c17 	ldw	r3,48(sp)
 10034a0:	1805003a 	cmpeq	r2,r3,zero
 10034a4:	1000081e 	bne	r2,zero,10034c8 <_dtoa_r+0x4b0>
 10034a8:	0005883a 	mov	r2,zero
 10034ac:	00cffc34 	movhi	r3,16368
 10034b0:	180f883a 	mov	r7,r3
 10034b4:	a009883a 	mov	r4,r20
 10034b8:	a80b883a 	mov	r5,r21
 10034bc:	100d883a 	mov	r6,r2
 10034c0:	1009b200 	call	1009b20 <__ltdf2>
 10034c4:	1003fe16 	blt	r2,zero,10044c0 <_dtoa_r+0x14a8>
 10034c8:	b009883a 	mov	r4,r22
 10034cc:	1009ba80 	call	1009ba8 <__floatsidf>
 10034d0:	180b883a 	mov	r5,r3
 10034d4:	1009883a 	mov	r4,r2
 10034d8:	a00d883a 	mov	r6,r20
 10034dc:	a80f883a 	mov	r7,r21
 10034e0:	10092e40 	call	10092e4 <__muldf3>
 10034e4:	0011883a 	mov	r8,zero
 10034e8:	02500734 	movhi	r9,16412
 10034ec:	1009883a 	mov	r4,r2
 10034f0:	180b883a 	mov	r5,r3
 10034f4:	480f883a 	mov	r7,r9
 10034f8:	400d883a 	mov	r6,r8
 10034fc:	10092700 	call	1009270 <__adddf3>
 1003500:	d9000f17 	ldw	r4,60(sp)
 1003504:	102d883a 	mov	r22,r2
 1003508:	00bf3034 	movhi	r2,64704
 100350c:	18b9883a 	add	fp,r3,r2
 1003510:	e02f883a 	mov	r23,fp
 1003514:	20028f1e 	bne	r4,zero,1003f54 <_dtoa_r+0xf3c>
 1003518:	0005883a 	mov	r2,zero
 100351c:	00d00534 	movhi	r3,16404
 1003520:	a009883a 	mov	r4,r20
 1003524:	a80b883a 	mov	r5,r21
 1003528:	180f883a 	mov	r7,r3
 100352c:	100d883a 	mov	r6,r2
 1003530:	10091f00 	call	10091f0 <__subdf3>
 1003534:	1009883a 	mov	r4,r2
 1003538:	e00f883a 	mov	r7,fp
 100353c:	180b883a 	mov	r5,r3
 1003540:	b00d883a 	mov	r6,r22
 1003544:	1025883a 	mov	r18,r2
 1003548:	1827883a 	mov	r19,r3
 100354c:	1009a100 	call	1009a10 <__gtdf2>
 1003550:	00834f16 	blt	zero,r2,1004290 <_dtoa_r+0x1278>
 1003554:	e0e0003c 	xorhi	r3,fp,32768
 1003558:	9009883a 	mov	r4,r18
 100355c:	980b883a 	mov	r5,r19
 1003560:	180f883a 	mov	r7,r3
 1003564:	b00d883a 	mov	r6,r22
 1003568:	1009b200 	call	1009b20 <__ltdf2>
 100356c:	1000080e 	bge	r2,zero,1003590 <_dtoa_r+0x578>
 1003570:	0027883a 	mov	r19,zero
 1003574:	0025883a 	mov	r18,zero
 1003578:	d8802617 	ldw	r2,152(sp)
 100357c:	df000517 	ldw	fp,20(sp)
 1003580:	d8000615 	stw	zero,24(sp)
 1003584:	0084303a 	nor	r2,zero,r2
 1003588:	d8800d15 	stw	r2,52(sp)
 100358c:	00019b06 	br	1003bfc <_dtoa_r+0xbe4>
 1003590:	d9801217 	ldw	r6,72(sp)
 1003594:	d8801317 	ldw	r2,76(sp)
 1003598:	3029883a 	mov	r20,r6
 100359c:	102b883a 	mov	r21,r2
 10035a0:	d8c00217 	ldw	r3,8(sp)
 10035a4:	18008516 	blt	r3,zero,10037bc <_dtoa_r+0x7a4>
 10035a8:	d9000d17 	ldw	r4,52(sp)
 10035ac:	00800384 	movi	r2,14
 10035b0:	11008216 	blt	r2,r4,10037bc <_dtoa_r+0x7a4>
 10035b4:	200490fa 	slli	r2,r4,3
 10035b8:	d9802617 	ldw	r6,152(sp)
 10035bc:	00c04074 	movhi	r3,257
 10035c0:	18fae804 	addi	r3,r3,-5216
 10035c4:	10c5883a 	add	r2,r2,r3
 10035c8:	14800017 	ldw	r18,0(r2)
 10035cc:	14c00117 	ldw	r19,4(r2)
 10035d0:	30031e16 	blt	r6,zero,100424c <_dtoa_r+0x1234>
 10035d4:	d9000517 	ldw	r4,20(sp)
 10035d8:	d8c00f17 	ldw	r3,60(sp)
 10035dc:	a823883a 	mov	r17,r21
 10035e0:	a021883a 	mov	r16,r20
 10035e4:	192b883a 	add	r21,r3,r4
 10035e8:	2039883a 	mov	fp,r4
 10035ec:	00000f06 	br	100362c <_dtoa_r+0x614>
 10035f0:	0005883a 	mov	r2,zero
 10035f4:	00d00934 	movhi	r3,16420
 10035f8:	5009883a 	mov	r4,r10
 10035fc:	580b883a 	mov	r5,r11
 1003600:	180f883a 	mov	r7,r3
 1003604:	100d883a 	mov	r6,r2
 1003608:	10092e40 	call	10092e4 <__muldf3>
 100360c:	180b883a 	mov	r5,r3
 1003610:	000d883a 	mov	r6,zero
 1003614:	000f883a 	mov	r7,zero
 1003618:	1009883a 	mov	r4,r2
 100361c:	1021883a 	mov	r16,r2
 1003620:	1823883a 	mov	r17,r3
 1003624:	10099880 	call	1009988 <__nedf2>
 1003628:	10004526 	beq	r2,zero,1003740 <_dtoa_r+0x728>
 100362c:	900d883a 	mov	r6,r18
 1003630:	980f883a 	mov	r7,r19
 1003634:	8009883a 	mov	r4,r16
 1003638:	880b883a 	mov	r5,r17
 100363c:	10096a80 	call	10096a8 <__divdf3>
 1003640:	180b883a 	mov	r5,r3
 1003644:	1009883a 	mov	r4,r2
 1003648:	1009ca00 	call	1009ca0 <__fixdfsi>
 100364c:	1009883a 	mov	r4,r2
 1003650:	1029883a 	mov	r20,r2
 1003654:	1009ba80 	call	1009ba8 <__floatsidf>
 1003658:	180f883a 	mov	r7,r3
 100365c:	9009883a 	mov	r4,r18
 1003660:	980b883a 	mov	r5,r19
 1003664:	100d883a 	mov	r6,r2
 1003668:	10092e40 	call	10092e4 <__muldf3>
 100366c:	180f883a 	mov	r7,r3
 1003670:	880b883a 	mov	r5,r17
 1003674:	8009883a 	mov	r4,r16
 1003678:	100d883a 	mov	r6,r2
 100367c:	10091f00 	call	10091f0 <__subdf3>
 1003680:	1015883a 	mov	r10,r2
 1003684:	a0800c04 	addi	r2,r20,48
 1003688:	e0800005 	stb	r2,0(fp)
 100368c:	e7000044 	addi	fp,fp,1
 1003690:	1817883a 	mov	r11,r3
 1003694:	e57fd61e 	bne	fp,r21,10035f0 <_dtoa_r+0x5d8>
 1003698:	500d883a 	mov	r6,r10
 100369c:	180f883a 	mov	r7,r3
 10036a0:	5009883a 	mov	r4,r10
 10036a4:	180b883a 	mov	r5,r3
 10036a8:	10092700 	call	1009270 <__adddf3>
 10036ac:	100d883a 	mov	r6,r2
 10036b0:	9009883a 	mov	r4,r18
 10036b4:	980b883a 	mov	r5,r19
 10036b8:	180f883a 	mov	r7,r3
 10036bc:	1021883a 	mov	r16,r2
 10036c0:	1823883a 	mov	r17,r3
 10036c4:	1009b200 	call	1009b20 <__ltdf2>
 10036c8:	10000816 	blt	r2,zero,10036ec <_dtoa_r+0x6d4>
 10036cc:	980b883a 	mov	r5,r19
 10036d0:	800d883a 	mov	r6,r16
 10036d4:	880f883a 	mov	r7,r17
 10036d8:	9009883a 	mov	r4,r18
 10036dc:	10099000 	call	1009900 <__eqdf2>
 10036e0:	1000171e 	bne	r2,zero,1003740 <_dtoa_r+0x728>
 10036e4:	a080004c 	andi	r2,r20,1
 10036e8:	10001526 	beq	r2,zero,1003740 <_dtoa_r+0x728>
 10036ec:	d8800d17 	ldw	r2,52(sp)
 10036f0:	d8800415 	stw	r2,16(sp)
 10036f4:	e009883a 	mov	r4,fp
 10036f8:	213fffc4 	addi	r4,r4,-1
 10036fc:	20c00007 	ldb	r3,0(r4)
 1003700:	00800e44 	movi	r2,57
 1003704:	1880081e 	bne	r3,r2,1003728 <_dtoa_r+0x710>
 1003708:	d8800517 	ldw	r2,20(sp)
 100370c:	113ffa1e 	bne	r2,r4,10036f8 <_dtoa_r+0x6e0>
 1003710:	d8c00417 	ldw	r3,16(sp)
 1003714:	d9800517 	ldw	r6,20(sp)
 1003718:	00800c04 	movi	r2,48
 100371c:	18c00044 	addi	r3,r3,1
 1003720:	d8c00415 	stw	r3,16(sp)
 1003724:	30800005 	stb	r2,0(r6)
 1003728:	20800003 	ldbu	r2,0(r4)
 100372c:	d8c00417 	ldw	r3,16(sp)
 1003730:	27000044 	addi	fp,r4,1
 1003734:	10800044 	addi	r2,r2,1
 1003738:	d8c00d15 	stw	r3,52(sp)
 100373c:	20800005 	stb	r2,0(r4)
 1003740:	d9001617 	ldw	r4,88(sp)
 1003744:	d9400717 	ldw	r5,28(sp)
 1003748:	10061e00 	call	10061e0 <_Bfree>
 100374c:	e0000005 	stb	zero,0(fp)
 1003750:	d9800d17 	ldw	r6,52(sp)
 1003754:	d8c02717 	ldw	r3,156(sp)
 1003758:	d9002917 	ldw	r4,164(sp)
 100375c:	30800044 	addi	r2,r6,1
 1003760:	18800015 	stw	r2,0(r3)
 1003764:	20029c26 	beq	r4,zero,10041d8 <_dtoa_r+0x11c0>
 1003768:	d8c00517 	ldw	r3,20(sp)
 100376c:	27000015 	stw	fp,0(r4)
 1003770:	003e5d06 	br	10030e8 <_dtoa_r+0xd0>
 1003774:	d9800d17 	ldw	r6,52(sp)
 1003778:	00c04074 	movhi	r3,257
 100377c:	18fae804 	addi	r3,r3,-5216
 1003780:	d9001217 	ldw	r4,72(sp)
 1003784:	300490fa 	slli	r2,r6,3
 1003788:	d9401317 	ldw	r5,76(sp)
 100378c:	10c5883a 	add	r2,r2,r3
 1003790:	12000017 	ldw	r8,0(r2)
 1003794:	12400117 	ldw	r9,4(r2)
 1003798:	400d883a 	mov	r6,r8
 100379c:	480f883a 	mov	r7,r9
 10037a0:	1009b200 	call	1009b20 <__ltdf2>
 10037a4:	1000030e 	bge	r2,zero,10037b4 <_dtoa_r+0x79c>
 10037a8:	d8800d17 	ldw	r2,52(sp)
 10037ac:	10bfffc4 	addi	r2,r2,-1
 10037b0:	d8800d15 	stw	r2,52(sp)
 10037b4:	d8000c15 	stw	zero,48(sp)
 10037b8:	003ea806 	br	100325c <_dtoa_r+0x244>
 10037bc:	d9000b17 	ldw	r4,44(sp)
 10037c0:	202cc03a 	cmpne	r22,r4,zero
 10037c4:	b000c71e 	bne	r22,zero,1003ae4 <_dtoa_r+0xacc>
 10037c8:	dc001117 	ldw	r16,68(sp)
 10037cc:	dc801017 	ldw	r18,64(sp)
 10037d0:	0027883a 	mov	r19,zero
 10037d4:	04000b0e 	bge	zero,r16,1003804 <_dtoa_r+0x7ec>
 10037d8:	d8c00a17 	ldw	r3,40(sp)
 10037dc:	00c0090e 	bge	zero,r3,1003804 <_dtoa_r+0x7ec>
 10037e0:	8005883a 	mov	r2,r16
 10037e4:	1c011316 	blt	r3,r16,1003c34 <_dtoa_r+0xc1c>
 10037e8:	d9000a17 	ldw	r4,40(sp)
 10037ec:	d9801117 	ldw	r6,68(sp)
 10037f0:	80a1c83a 	sub	r16,r16,r2
 10037f4:	2089c83a 	sub	r4,r4,r2
 10037f8:	308dc83a 	sub	r6,r6,r2
 10037fc:	d9000a15 	stw	r4,40(sp)
 1003800:	d9801115 	stw	r6,68(sp)
 1003804:	d8801017 	ldw	r2,64(sp)
 1003808:	0080150e 	bge	zero,r2,1003860 <_dtoa_r+0x848>
 100380c:	d8c00b17 	ldw	r3,44(sp)
 1003810:	1805003a 	cmpeq	r2,r3,zero
 1003814:	1001c91e 	bne	r2,zero,1003f3c <_dtoa_r+0xf24>
 1003818:	04800e0e 	bge	zero,r18,1003854 <_dtoa_r+0x83c>
 100381c:	d9001617 	ldw	r4,88(sp)
 1003820:	980b883a 	mov	r5,r19
 1003824:	900d883a 	mov	r6,r18
 1003828:	100702c0 	call	100702c <__pow5mult>
 100382c:	d9001617 	ldw	r4,88(sp)
 1003830:	d9800717 	ldw	r6,28(sp)
 1003834:	100b883a 	mov	r5,r2
 1003838:	1027883a 	mov	r19,r2
 100383c:	1006c700 	call	1006c70 <__multiply>
 1003840:	d9001617 	ldw	r4,88(sp)
 1003844:	d9400717 	ldw	r5,28(sp)
 1003848:	1023883a 	mov	r17,r2
 100384c:	10061e00 	call	10061e0 <_Bfree>
 1003850:	dc400715 	stw	r17,28(sp)
 1003854:	d9001017 	ldw	r4,64(sp)
 1003858:	248dc83a 	sub	r6,r4,r18
 100385c:	30010e1e 	bne	r6,zero,1003c98 <_dtoa_r+0xc80>
 1003860:	d9001617 	ldw	r4,88(sp)
 1003864:	04400044 	movi	r17,1
 1003868:	880b883a 	mov	r5,r17
 100386c:	1006ec40 	call	1006ec4 <__i2b>
 1003870:	d9800917 	ldw	r6,36(sp)
 1003874:	1025883a 	mov	r18,r2
 1003878:	0180040e 	bge	zero,r6,100388c <_dtoa_r+0x874>
 100387c:	d9001617 	ldw	r4,88(sp)
 1003880:	100b883a 	mov	r5,r2
 1003884:	100702c0 	call	100702c <__pow5mult>
 1003888:	1025883a 	mov	r18,r2
 100388c:	d8801717 	ldw	r2,92(sp)
 1003890:	8880f30e 	bge	r17,r2,1003c60 <_dtoa_r+0xc48>
 1003894:	0023883a 	mov	r17,zero
 1003898:	d9800917 	ldw	r6,36(sp)
 100389c:	30019e1e 	bne	r6,zero,1003f18 <_dtoa_r+0xf00>
 10038a0:	00c00044 	movi	r3,1
 10038a4:	d9000a17 	ldw	r4,40(sp)
 10038a8:	20c5883a 	add	r2,r4,r3
 10038ac:	10c007cc 	andi	r3,r2,31
 10038b0:	1800841e 	bne	r3,zero,1003ac4 <_dtoa_r+0xaac>
 10038b4:	00800704 	movi	r2,28
 10038b8:	d9000a17 	ldw	r4,40(sp)
 10038bc:	d9801117 	ldw	r6,68(sp)
 10038c0:	80a1883a 	add	r16,r16,r2
 10038c4:	2089883a 	add	r4,r4,r2
 10038c8:	308d883a 	add	r6,r6,r2
 10038cc:	d9000a15 	stw	r4,40(sp)
 10038d0:	d9801115 	stw	r6,68(sp)
 10038d4:	d8801117 	ldw	r2,68(sp)
 10038d8:	0080050e 	bge	zero,r2,10038f0 <_dtoa_r+0x8d8>
 10038dc:	d9400717 	ldw	r5,28(sp)
 10038e0:	d9001617 	ldw	r4,88(sp)
 10038e4:	100d883a 	mov	r6,r2
 10038e8:	1006b240 	call	1006b24 <__lshift>
 10038ec:	d8800715 	stw	r2,28(sp)
 10038f0:	d8c00a17 	ldw	r3,40(sp)
 10038f4:	00c0050e 	bge	zero,r3,100390c <_dtoa_r+0x8f4>
 10038f8:	d9001617 	ldw	r4,88(sp)
 10038fc:	900b883a 	mov	r5,r18
 1003900:	180d883a 	mov	r6,r3
 1003904:	1006b240 	call	1006b24 <__lshift>
 1003908:	1025883a 	mov	r18,r2
 100390c:	d9000c17 	ldw	r4,48(sp)
 1003910:	2005003a 	cmpeq	r2,r4,zero
 1003914:	10016f26 	beq	r2,zero,1003ed4 <_dtoa_r+0xebc>
 1003918:	d9000f17 	ldw	r4,60(sp)
 100391c:	0102170e 	bge	zero,r4,100417c <_dtoa_r+0x1164>
 1003920:	d9800b17 	ldw	r6,44(sp)
 1003924:	3005003a 	cmpeq	r2,r6,zero
 1003928:	1000881e 	bne	r2,zero,1003b4c <_dtoa_r+0xb34>
 100392c:	0400050e 	bge	zero,r16,1003944 <_dtoa_r+0x92c>
 1003930:	d9001617 	ldw	r4,88(sp)
 1003934:	980b883a 	mov	r5,r19
 1003938:	800d883a 	mov	r6,r16
 100393c:	1006b240 	call	1006b24 <__lshift>
 1003940:	1027883a 	mov	r19,r2
 1003944:	8804c03a 	cmpne	r2,r17,zero
 1003948:	1002541e 	bne	r2,zero,100429c <_dtoa_r+0x1284>
 100394c:	980b883a 	mov	r5,r19
 1003950:	dd800517 	ldw	r22,20(sp)
 1003954:	dcc00615 	stw	r19,24(sp)
 1003958:	a700004c 	andi	fp,r20,1
 100395c:	2827883a 	mov	r19,r5
 1003960:	d9000717 	ldw	r4,28(sp)
 1003964:	900b883a 	mov	r5,r18
 1003968:	1002dd40 	call	1002dd4 <quorem>
 100396c:	d9000717 	ldw	r4,28(sp)
 1003970:	d9400617 	ldw	r5,24(sp)
 1003974:	1023883a 	mov	r17,r2
 1003978:	8dc00c04 	addi	r23,r17,48
 100397c:	100633c0 	call	100633c <__mcmp>
 1003980:	d9001617 	ldw	r4,88(sp)
 1003984:	900b883a 	mov	r5,r18
 1003988:	980d883a 	mov	r6,r19
 100398c:	1029883a 	mov	r20,r2
 1003990:	10069980 	call	1006998 <__mdiff>
 1003994:	102b883a 	mov	r21,r2
 1003998:	10800317 	ldw	r2,12(r2)
 100399c:	1001281e 	bne	r2,zero,1003e40 <_dtoa_r+0xe28>
 10039a0:	d9000717 	ldw	r4,28(sp)
 10039a4:	a80b883a 	mov	r5,r21
 10039a8:	100633c0 	call	100633c <__mcmp>
 10039ac:	d9001617 	ldw	r4,88(sp)
 10039b0:	1021883a 	mov	r16,r2
 10039b4:	a80b883a 	mov	r5,r21
 10039b8:	10061e00 	call	10061e0 <_Bfree>
 10039bc:	8000041e 	bne	r16,zero,10039d0 <_dtoa_r+0x9b8>
 10039c0:	d8801717 	ldw	r2,92(sp)
 10039c4:	1000021e 	bne	r2,zero,10039d0 <_dtoa_r+0x9b8>
 10039c8:	e004c03a 	cmpne	r2,fp,zero
 10039cc:	10011726 	beq	r2,zero,1003e2c <_dtoa_r+0xe14>
 10039d0:	a0010616 	blt	r20,zero,1003dec <_dtoa_r+0xdd4>
 10039d4:	a000041e 	bne	r20,zero,10039e8 <_dtoa_r+0x9d0>
 10039d8:	d8c01717 	ldw	r3,92(sp)
 10039dc:	1800021e 	bne	r3,zero,10039e8 <_dtoa_r+0x9d0>
 10039e0:	e004c03a 	cmpne	r2,fp,zero
 10039e4:	10010126 	beq	r2,zero,1003dec <_dtoa_r+0xdd4>
 10039e8:	04023d16 	blt	zero,r16,10042e0 <_dtoa_r+0x12c8>
 10039ec:	b5c00005 	stb	r23,0(r22)
 10039f0:	d9800517 	ldw	r6,20(sp)
 10039f4:	d9000f17 	ldw	r4,60(sp)
 10039f8:	b5800044 	addi	r22,r22,1
 10039fc:	3105883a 	add	r2,r6,r4
 1003a00:	b0806526 	beq	r22,r2,1003b98 <_dtoa_r+0xb80>
 1003a04:	d9400717 	ldw	r5,28(sp)
 1003a08:	d9001617 	ldw	r4,88(sp)
 1003a0c:	01800284 	movi	r6,10
 1003a10:	000f883a 	mov	r7,zero
 1003a14:	1006f000 	call	1006f00 <__multadd>
 1003a18:	d8800715 	stw	r2,28(sp)
 1003a1c:	d8800617 	ldw	r2,24(sp)
 1003a20:	14c10c26 	beq	r2,r19,1003e54 <_dtoa_r+0xe3c>
 1003a24:	d9400617 	ldw	r5,24(sp)
 1003a28:	d9001617 	ldw	r4,88(sp)
 1003a2c:	01800284 	movi	r6,10
 1003a30:	000f883a 	mov	r7,zero
 1003a34:	1006f000 	call	1006f00 <__multadd>
 1003a38:	d9001617 	ldw	r4,88(sp)
 1003a3c:	980b883a 	mov	r5,r19
 1003a40:	01800284 	movi	r6,10
 1003a44:	000f883a 	mov	r7,zero
 1003a48:	d8800615 	stw	r2,24(sp)
 1003a4c:	1006f000 	call	1006f00 <__multadd>
 1003a50:	1027883a 	mov	r19,r2
 1003a54:	003fc206 	br	1003960 <_dtoa_r+0x948>
 1003a58:	2445c83a 	sub	r2,r4,r17
 1003a5c:	a088983a 	sll	r4,r20,r2
 1003a60:	003e4b06 	br	1003390 <_dtoa_r+0x378>
 1003a64:	01bfffc4 	movi	r6,-1
 1003a68:	00800044 	movi	r2,1
 1003a6c:	d9800e15 	stw	r6,56(sp)
 1003a70:	d9800f15 	stw	r6,60(sp)
 1003a74:	d8800b15 	stw	r2,44(sp)
 1003a78:	d8c01617 	ldw	r3,88(sp)
 1003a7c:	008005c4 	movi	r2,23
 1003a80:	18001115 	stw	zero,68(r3)
 1003a84:	1580082e 	bgeu	r2,r22,1003aa8 <_dtoa_r+0xa90>
 1003a88:	00c00104 	movi	r3,4
 1003a8c:	0009883a 	mov	r4,zero
 1003a90:	18c7883a 	add	r3,r3,r3
 1003a94:	18800504 	addi	r2,r3,20
 1003a98:	21000044 	addi	r4,r4,1
 1003a9c:	b0bffc2e 	bgeu	r22,r2,1003a90 <_dtoa_r+0xa78>
 1003aa0:	d9801617 	ldw	r6,88(sp)
 1003aa4:	31001115 	stw	r4,68(r6)
 1003aa8:	dc000f17 	ldw	r16,60(sp)
 1003aac:	003e4b06 	br	10033dc <_dtoa_r+0x3c4>
 1003ab0:	d9801717 	ldw	r6,92(sp)
 1003ab4:	0023883a 	mov	r17,zero
 1003ab8:	31bfff04 	addi	r6,r6,-4
 1003abc:	d9801715 	stw	r6,92(sp)
 1003ac0:	003df806 	br	10032a4 <_dtoa_r+0x28c>
 1003ac4:	00800804 	movi	r2,32
 1003ac8:	10c9c83a 	sub	r4,r2,r3
 1003acc:	00c00104 	movi	r3,4
 1003ad0:	19005a16 	blt	r3,r4,1003c3c <_dtoa_r+0xc24>
 1003ad4:	008000c4 	movi	r2,3
 1003ad8:	113f7e16 	blt	r2,r4,10038d4 <_dtoa_r+0x8bc>
 1003adc:	20800704 	addi	r2,r4,28
 1003ae0:	003f7506 	br	10038b8 <_dtoa_r+0x8a0>
 1003ae4:	d9801717 	ldw	r6,92(sp)
 1003ae8:	00800044 	movi	r2,1
 1003aec:	1180a10e 	bge	r2,r6,1003d74 <_dtoa_r+0xd5c>
 1003af0:	d9800f17 	ldw	r6,60(sp)
 1003af4:	d8c01017 	ldw	r3,64(sp)
 1003af8:	30bfffc4 	addi	r2,r6,-1
 1003afc:	1881c616 	blt	r3,r2,1004218 <_dtoa_r+0x1200>
 1003b00:	18a5c83a 	sub	r18,r3,r2
 1003b04:	d8800f17 	ldw	r2,60(sp)
 1003b08:	10026216 	blt	r2,zero,1004494 <_dtoa_r+0x147c>
 1003b0c:	dc001117 	ldw	r16,68(sp)
 1003b10:	1007883a 	mov	r3,r2
 1003b14:	d9800a17 	ldw	r6,40(sp)
 1003b18:	d8801117 	ldw	r2,68(sp)
 1003b1c:	d9001617 	ldw	r4,88(sp)
 1003b20:	30cd883a 	add	r6,r6,r3
 1003b24:	10c5883a 	add	r2,r2,r3
 1003b28:	01400044 	movi	r5,1
 1003b2c:	d9800a15 	stw	r6,40(sp)
 1003b30:	d8801115 	stw	r2,68(sp)
 1003b34:	1006ec40 	call	1006ec4 <__i2b>
 1003b38:	1027883a 	mov	r19,r2
 1003b3c:	003f2506 	br	10037d4 <_dtoa_r+0x7bc>
 1003b40:	00c04074 	movhi	r3,257
 1003b44:	18faca04 	addi	r3,r3,-5336
 1003b48:	003d6706 	br	10030e8 <_dtoa_r+0xd0>
 1003b4c:	dd800517 	ldw	r22,20(sp)
 1003b50:	04000044 	movi	r16,1
 1003b54:	00000706 	br	1003b74 <_dtoa_r+0xb5c>
 1003b58:	d9400717 	ldw	r5,28(sp)
 1003b5c:	d9001617 	ldw	r4,88(sp)
 1003b60:	01800284 	movi	r6,10
 1003b64:	000f883a 	mov	r7,zero
 1003b68:	1006f000 	call	1006f00 <__multadd>
 1003b6c:	d8800715 	stw	r2,28(sp)
 1003b70:	84000044 	addi	r16,r16,1
 1003b74:	d9000717 	ldw	r4,28(sp)
 1003b78:	900b883a 	mov	r5,r18
 1003b7c:	1002dd40 	call	1002dd4 <quorem>
 1003b80:	15c00c04 	addi	r23,r2,48
 1003b84:	b5c00005 	stb	r23,0(r22)
 1003b88:	d8c00f17 	ldw	r3,60(sp)
 1003b8c:	b5800044 	addi	r22,r22,1
 1003b90:	80fff116 	blt	r16,r3,1003b58 <_dtoa_r+0xb40>
 1003b94:	d8000615 	stw	zero,24(sp)
 1003b98:	d9400717 	ldw	r5,28(sp)
 1003b9c:	d9001617 	ldw	r4,88(sp)
 1003ba0:	01800044 	movi	r6,1
 1003ba4:	1006b240 	call	1006b24 <__lshift>
 1003ba8:	1009883a 	mov	r4,r2
 1003bac:	900b883a 	mov	r5,r18
 1003bb0:	d8800715 	stw	r2,28(sp)
 1003bb4:	100633c0 	call	100633c <__mcmp>
 1003bb8:	00803c0e 	bge	zero,r2,1003cac <_dtoa_r+0xc94>
 1003bbc:	b009883a 	mov	r4,r22
 1003bc0:	213fffc4 	addi	r4,r4,-1
 1003bc4:	21400003 	ldbu	r5,0(r4)
 1003bc8:	00800e44 	movi	r2,57
 1003bcc:	28c03fcc 	andi	r3,r5,255
 1003bd0:	18c0201c 	xori	r3,r3,128
 1003bd4:	18ffe004 	addi	r3,r3,-128
 1003bd8:	1881981e 	bne	r3,r2,100423c <_dtoa_r+0x1224>
 1003bdc:	d9800517 	ldw	r6,20(sp)
 1003be0:	21bff71e 	bne	r4,r6,1003bc0 <_dtoa_r+0xba8>
 1003be4:	d8800d17 	ldw	r2,52(sp)
 1003be8:	37000044 	addi	fp,r6,1
 1003bec:	10800044 	addi	r2,r2,1
 1003bf0:	d8800d15 	stw	r2,52(sp)
 1003bf4:	00800c44 	movi	r2,49
 1003bf8:	30800005 	stb	r2,0(r6)
 1003bfc:	d9001617 	ldw	r4,88(sp)
 1003c00:	900b883a 	mov	r5,r18
 1003c04:	10061e00 	call	10061e0 <_Bfree>
 1003c08:	983ecd26 	beq	r19,zero,1003740 <_dtoa_r+0x728>
 1003c0c:	d8c00617 	ldw	r3,24(sp)
 1003c10:	18000426 	beq	r3,zero,1003c24 <_dtoa_r+0xc0c>
 1003c14:	1cc00326 	beq	r3,r19,1003c24 <_dtoa_r+0xc0c>
 1003c18:	d9001617 	ldw	r4,88(sp)
 1003c1c:	180b883a 	mov	r5,r3
 1003c20:	10061e00 	call	10061e0 <_Bfree>
 1003c24:	d9001617 	ldw	r4,88(sp)
 1003c28:	980b883a 	mov	r5,r19
 1003c2c:	10061e00 	call	10061e0 <_Bfree>
 1003c30:	003ec306 	br	1003740 <_dtoa_r+0x728>
 1003c34:	1805883a 	mov	r2,r3
 1003c38:	003eeb06 	br	10037e8 <_dtoa_r+0x7d0>
 1003c3c:	d9800a17 	ldw	r6,40(sp)
 1003c40:	d8c01117 	ldw	r3,68(sp)
 1003c44:	20bfff04 	addi	r2,r4,-4
 1003c48:	308d883a 	add	r6,r6,r2
 1003c4c:	1887883a 	add	r3,r3,r2
 1003c50:	80a1883a 	add	r16,r16,r2
 1003c54:	d9800a15 	stw	r6,40(sp)
 1003c58:	d8c01115 	stw	r3,68(sp)
 1003c5c:	003f1d06 	br	10038d4 <_dtoa_r+0x8bc>
 1003c60:	a03f0c1e 	bne	r20,zero,1003894 <_dtoa_r+0x87c>
 1003c64:	00800434 	movhi	r2,16
 1003c68:	10bfffc4 	addi	r2,r2,-1
 1003c6c:	a884703a 	and	r2,r21,r2
 1003c70:	103f081e 	bne	r2,zero,1003894 <_dtoa_r+0x87c>
 1003c74:	a89ffc2c 	andhi	r2,r21,32752
 1003c78:	103f0626 	beq	r2,zero,1003894 <_dtoa_r+0x87c>
 1003c7c:	d8c01117 	ldw	r3,68(sp)
 1003c80:	d9000a17 	ldw	r4,40(sp)
 1003c84:	18c00044 	addi	r3,r3,1
 1003c88:	21000044 	addi	r4,r4,1
 1003c8c:	d8c01115 	stw	r3,68(sp)
 1003c90:	d9000a15 	stw	r4,40(sp)
 1003c94:	003f0006 	br	1003898 <_dtoa_r+0x880>
 1003c98:	d9400717 	ldw	r5,28(sp)
 1003c9c:	d9001617 	ldw	r4,88(sp)
 1003ca0:	100702c0 	call	100702c <__pow5mult>
 1003ca4:	d8800715 	stw	r2,28(sp)
 1003ca8:	003eed06 	br	1003860 <_dtoa_r+0x848>
 1003cac:	1000021e 	bne	r2,zero,1003cb8 <_dtoa_r+0xca0>
 1003cb0:	b880004c 	andi	r2,r23,1
 1003cb4:	103fc11e 	bne	r2,zero,1003bbc <_dtoa_r+0xba4>
 1003cb8:	b5bfffc4 	addi	r22,r22,-1
 1003cbc:	b0c00007 	ldb	r3,0(r22)
 1003cc0:	00800c04 	movi	r2,48
 1003cc4:	18bffc26 	beq	r3,r2,1003cb8 <_dtoa_r+0xca0>
 1003cc8:	b7000044 	addi	fp,r22,1
 1003ccc:	003fcb06 	br	1003bfc <_dtoa_r+0xbe4>
 1003cd0:	d9800d17 	ldw	r6,52(sp)
 1003cd4:	018fc83a 	sub	r7,zero,r6
 1003cd8:	3801f726 	beq	r7,zero,10044b8 <_dtoa_r+0x14a0>
 1003cdc:	398003cc 	andi	r6,r7,15
 1003ce0:	300c90fa 	slli	r6,r6,3
 1003ce4:	01404074 	movhi	r5,257
 1003ce8:	297ae804 	addi	r5,r5,-5216
 1003cec:	d9001217 	ldw	r4,72(sp)
 1003cf0:	314d883a 	add	r6,r6,r5
 1003cf4:	30c00117 	ldw	r3,4(r6)
 1003cf8:	30800017 	ldw	r2,0(r6)
 1003cfc:	d9401317 	ldw	r5,76(sp)
 1003d00:	3821d13a 	srai	r16,r7,4
 1003d04:	100d883a 	mov	r6,r2
 1003d08:	180f883a 	mov	r7,r3
 1003d0c:	10092e40 	call	10092e4 <__muldf3>
 1003d10:	1011883a 	mov	r8,r2
 1003d14:	1813883a 	mov	r9,r3
 1003d18:	1029883a 	mov	r20,r2
 1003d1c:	182b883a 	mov	r21,r3
 1003d20:	8001e526 	beq	r16,zero,10044b8 <_dtoa_r+0x14a0>
 1003d24:	05800084 	movi	r22,2
 1003d28:	04404074 	movhi	r17,257
 1003d2c:	8c7b1a04 	addi	r17,r17,-5016
 1003d30:	8080004c 	andi	r2,r16,1
 1003d34:	1005003a 	cmpeq	r2,r2,zero
 1003d38:	1000081e 	bne	r2,zero,1003d5c <_dtoa_r+0xd44>
 1003d3c:	89800017 	ldw	r6,0(r17)
 1003d40:	89c00117 	ldw	r7,4(r17)
 1003d44:	480b883a 	mov	r5,r9
 1003d48:	4009883a 	mov	r4,r8
 1003d4c:	10092e40 	call	10092e4 <__muldf3>
 1003d50:	1011883a 	mov	r8,r2
 1003d54:	b5800044 	addi	r22,r22,1
 1003d58:	1813883a 	mov	r9,r3
 1003d5c:	8021d07a 	srai	r16,r16,1
 1003d60:	8c400204 	addi	r17,r17,8
 1003d64:	803ff21e 	bne	r16,zero,1003d30 <_dtoa_r+0xd18>
 1003d68:	4029883a 	mov	r20,r8
 1003d6c:	482b883a 	mov	r21,r9
 1003d70:	003dca06 	br	100349c <_dtoa_r+0x484>
 1003d74:	d9000817 	ldw	r4,32(sp)
 1003d78:	2005003a 	cmpeq	r2,r4,zero
 1003d7c:	1001f61e 	bne	r2,zero,1004558 <_dtoa_r+0x1540>
 1003d80:	dc001117 	ldw	r16,68(sp)
 1003d84:	dc801017 	ldw	r18,64(sp)
 1003d88:	18c10cc4 	addi	r3,r3,1075
 1003d8c:	003f6106 	br	1003b14 <_dtoa_r+0xafc>
 1003d90:	d8000b15 	stw	zero,44(sp)
 1003d94:	d9802617 	ldw	r6,152(sp)
 1003d98:	d8c00d17 	ldw	r3,52(sp)
 1003d9c:	30800044 	addi	r2,r6,1
 1003da0:	18ad883a 	add	r22,r3,r2
 1003da4:	b13fffc4 	addi	r4,r22,-1
 1003da8:	d9000e15 	stw	r4,56(sp)
 1003dac:	0581f60e 	bge	zero,r22,1004588 <_dtoa_r+0x1570>
 1003db0:	dd800f15 	stw	r22,60(sp)
 1003db4:	003f3006 	br	1003a78 <_dtoa_r+0xa60>
 1003db8:	d8000b15 	stw	zero,44(sp)
 1003dbc:	d9002617 	ldw	r4,152(sp)
 1003dc0:	0101eb0e 	bge	zero,r4,1004570 <_dtoa_r+0x1558>
 1003dc4:	202d883a 	mov	r22,r4
 1003dc8:	d9000e15 	stw	r4,56(sp)
 1003dcc:	d9000f15 	stw	r4,60(sp)
 1003dd0:	003f2906 	br	1003a78 <_dtoa_r+0xa60>
 1003dd4:	01800044 	movi	r6,1
 1003dd8:	d9800b15 	stw	r6,44(sp)
 1003ddc:	003ff706 	br	1003dbc <_dtoa_r+0xda4>
 1003de0:	01000044 	movi	r4,1
 1003de4:	d9000b15 	stw	r4,44(sp)
 1003de8:	003fea06 	br	1003d94 <_dtoa_r+0xd7c>
 1003dec:	04000c0e 	bge	zero,r16,1003e20 <_dtoa_r+0xe08>
 1003df0:	d9400717 	ldw	r5,28(sp)
 1003df4:	d9001617 	ldw	r4,88(sp)
 1003df8:	01800044 	movi	r6,1
 1003dfc:	1006b240 	call	1006b24 <__lshift>
 1003e00:	1009883a 	mov	r4,r2
 1003e04:	900b883a 	mov	r5,r18
 1003e08:	d8800715 	stw	r2,28(sp)
 1003e0c:	100633c0 	call	100633c <__mcmp>
 1003e10:	0081e00e 	bge	zero,r2,1004594 <_dtoa_r+0x157c>
 1003e14:	bdc00044 	addi	r23,r23,1
 1003e18:	00800e84 	movi	r2,58
 1003e1c:	b881a226 	beq	r23,r2,10044a8 <_dtoa_r+0x1490>
 1003e20:	b7000044 	addi	fp,r22,1
 1003e24:	b5c00005 	stb	r23,0(r22)
 1003e28:	003f7406 	br	1003bfc <_dtoa_r+0xbe4>
 1003e2c:	00800e44 	movi	r2,57
 1003e30:	b8819d26 	beq	r23,r2,10044a8 <_dtoa_r+0x1490>
 1003e34:	053ffa0e 	bge	zero,r20,1003e20 <_dtoa_r+0xe08>
 1003e38:	8dc00c44 	addi	r23,r17,49
 1003e3c:	003ff806 	br	1003e20 <_dtoa_r+0xe08>
 1003e40:	d9001617 	ldw	r4,88(sp)
 1003e44:	a80b883a 	mov	r5,r21
 1003e48:	04000044 	movi	r16,1
 1003e4c:	10061e00 	call	10061e0 <_Bfree>
 1003e50:	003edf06 	br	10039d0 <_dtoa_r+0x9b8>
 1003e54:	d9001617 	ldw	r4,88(sp)
 1003e58:	980b883a 	mov	r5,r19
 1003e5c:	01800284 	movi	r6,10
 1003e60:	000f883a 	mov	r7,zero
 1003e64:	1006f000 	call	1006f00 <__multadd>
 1003e68:	1027883a 	mov	r19,r2
 1003e6c:	d8800615 	stw	r2,24(sp)
 1003e70:	003ebb06 	br	1003960 <_dtoa_r+0x948>
 1003e74:	d9801117 	ldw	r6,68(sp)
 1003e78:	d8800d17 	ldw	r2,52(sp)
 1003e7c:	d8000915 	stw	zero,36(sp)
 1003e80:	308dc83a 	sub	r6,r6,r2
 1003e84:	0087c83a 	sub	r3,zero,r2
 1003e88:	d9801115 	stw	r6,68(sp)
 1003e8c:	d8c01015 	stw	r3,64(sp)
 1003e90:	003cfe06 	br	100328c <_dtoa_r+0x274>
 1003e94:	018dc83a 	sub	r6,zero,r6
 1003e98:	d9801115 	stw	r6,68(sp)
 1003e9c:	d8000a15 	stw	zero,40(sp)
 1003ea0:	003cf306 	br	1003270 <_dtoa_r+0x258>
 1003ea4:	d9000d17 	ldw	r4,52(sp)
 1003ea8:	1009ba80 	call	1009ba8 <__floatsidf>
 1003eac:	880b883a 	mov	r5,r17
 1003eb0:	8009883a 	mov	r4,r16
 1003eb4:	180f883a 	mov	r7,r3
 1003eb8:	100d883a 	mov	r6,r2
 1003ebc:	10099880 	call	1009988 <__nedf2>
 1003ec0:	103ce126 	beq	r2,zero,1003248 <_dtoa_r+0x230>
 1003ec4:	d9800d17 	ldw	r6,52(sp)
 1003ec8:	31bfffc4 	addi	r6,r6,-1
 1003ecc:	d9800d15 	stw	r6,52(sp)
 1003ed0:	003cdd06 	br	1003248 <_dtoa_r+0x230>
 1003ed4:	d9000717 	ldw	r4,28(sp)
 1003ed8:	900b883a 	mov	r5,r18
 1003edc:	100633c0 	call	100633c <__mcmp>
 1003ee0:	103e8d0e 	bge	r2,zero,1003918 <_dtoa_r+0x900>
 1003ee4:	d9400717 	ldw	r5,28(sp)
 1003ee8:	d9001617 	ldw	r4,88(sp)
 1003eec:	01800284 	movi	r6,10
 1003ef0:	000f883a 	mov	r7,zero
 1003ef4:	1006f000 	call	1006f00 <__multadd>
 1003ef8:	d9800d17 	ldw	r6,52(sp)
 1003efc:	d8800715 	stw	r2,28(sp)
 1003f00:	31bfffc4 	addi	r6,r6,-1
 1003f04:	d9800d15 	stw	r6,52(sp)
 1003f08:	b001a71e 	bne	r22,zero,10045a8 <_dtoa_r+0x1590>
 1003f0c:	d8800e17 	ldw	r2,56(sp)
 1003f10:	d8800f15 	stw	r2,60(sp)
 1003f14:	003e8006 	br	1003918 <_dtoa_r+0x900>
 1003f18:	90800417 	ldw	r2,16(r18)
 1003f1c:	1085883a 	add	r2,r2,r2
 1003f20:	1085883a 	add	r2,r2,r2
 1003f24:	1485883a 	add	r2,r2,r18
 1003f28:	11000417 	ldw	r4,16(r2)
 1003f2c:	10062080 	call	1006208 <__hi0bits>
 1003f30:	00c00804 	movi	r3,32
 1003f34:	1887c83a 	sub	r3,r3,r2
 1003f38:	003e5a06 	br	10038a4 <_dtoa_r+0x88c>
 1003f3c:	d9400717 	ldw	r5,28(sp)
 1003f40:	d9801017 	ldw	r6,64(sp)
 1003f44:	d9001617 	ldw	r4,88(sp)
 1003f48:	100702c0 	call	100702c <__pow5mult>
 1003f4c:	d8800715 	stw	r2,28(sp)
 1003f50:	003e4306 	br	1003860 <_dtoa_r+0x848>
 1003f54:	d9800f17 	ldw	r6,60(sp)
 1003f58:	d8800d17 	ldw	r2,52(sp)
 1003f5c:	d9800315 	stw	r6,12(sp)
 1003f60:	d8800415 	stw	r2,16(sp)
 1003f64:	d8c00b17 	ldw	r3,44(sp)
 1003f68:	1805003a 	cmpeq	r2,r3,zero
 1003f6c:	1000e21e 	bne	r2,zero,10042f8 <_dtoa_r+0x12e0>
 1003f70:	d9000317 	ldw	r4,12(sp)
 1003f74:	0005883a 	mov	r2,zero
 1003f78:	00cff834 	movhi	r3,16352
 1003f7c:	200c90fa 	slli	r6,r4,3
 1003f80:	01004074 	movhi	r4,257
 1003f84:	213ae804 	addi	r4,r4,-5216
 1003f88:	180b883a 	mov	r5,r3
 1003f8c:	310d883a 	add	r6,r6,r4
 1003f90:	327fff17 	ldw	r9,-4(r6)
 1003f94:	323ffe17 	ldw	r8,-8(r6)
 1003f98:	1009883a 	mov	r4,r2
 1003f9c:	480f883a 	mov	r7,r9
 1003fa0:	400d883a 	mov	r6,r8
 1003fa4:	10096a80 	call	10096a8 <__divdf3>
 1003fa8:	180b883a 	mov	r5,r3
 1003fac:	b00d883a 	mov	r6,r22
 1003fb0:	b80f883a 	mov	r7,r23
 1003fb4:	1009883a 	mov	r4,r2
 1003fb8:	10091f00 	call	10091f0 <__subdf3>
 1003fbc:	a80b883a 	mov	r5,r21
 1003fc0:	a009883a 	mov	r4,r20
 1003fc4:	d8c01915 	stw	r3,100(sp)
 1003fc8:	d8801815 	stw	r2,96(sp)
 1003fcc:	1009ca00 	call	1009ca0 <__fixdfsi>
 1003fd0:	1009883a 	mov	r4,r2
 1003fd4:	1027883a 	mov	r19,r2
 1003fd8:	1009ba80 	call	1009ba8 <__floatsidf>
 1003fdc:	a80b883a 	mov	r5,r21
 1003fe0:	a009883a 	mov	r4,r20
 1003fe4:	180f883a 	mov	r7,r3
 1003fe8:	100d883a 	mov	r6,r2
 1003fec:	10091f00 	call	10091f0 <__subdf3>
 1003ff0:	d9801817 	ldw	r6,96(sp)
 1003ff4:	1823883a 	mov	r17,r3
 1003ff8:	d8801415 	stw	r2,80(sp)
 1003ffc:	302d883a 	mov	r22,r6
 1004000:	d9800517 	ldw	r6,20(sp)
 1004004:	9cc00c04 	addi	r19,r19,48
 1004008:	dc401515 	stw	r17,84(sp)
 100400c:	d8c01917 	ldw	r3,100(sp)
 1004010:	34c00005 	stb	r19,0(r6)
 1004014:	d8800517 	ldw	r2,20(sp)
 1004018:	d9401917 	ldw	r5,100(sp)
 100401c:	d9801417 	ldw	r6,80(sp)
 1004020:	b009883a 	mov	r4,r22
 1004024:	880f883a 	mov	r7,r17
 1004028:	182f883a 	mov	r23,r3
 100402c:	17000044 	addi	fp,r2,1
 1004030:	1009a100 	call	1009a10 <__gtdf2>
 1004034:	00804e16 	blt	zero,r2,1004170 <_dtoa_r+0x1158>
 1004038:	d9801417 	ldw	r6,80(sp)
 100403c:	0005883a 	mov	r2,zero
 1004040:	00cffc34 	movhi	r3,16368
 1004044:	180b883a 	mov	r5,r3
 1004048:	880f883a 	mov	r7,r17
 100404c:	1009883a 	mov	r4,r2
 1004050:	10091f00 	call	10091f0 <__subdf3>
 1004054:	d9401917 	ldw	r5,100(sp)
 1004058:	180f883a 	mov	r7,r3
 100405c:	b009883a 	mov	r4,r22
 1004060:	100d883a 	mov	r6,r2
 1004064:	1009a100 	call	1009a10 <__gtdf2>
 1004068:	00bda216 	blt	zero,r2,10036f4 <_dtoa_r+0x6dc>
 100406c:	d8c00317 	ldw	r3,12(sp)
 1004070:	00800044 	movi	r2,1
 1004074:	10c01216 	blt	r2,r3,10040c0 <_dtoa_r+0x10a8>
 1004078:	003d4506 	br	1003590 <_dtoa_r+0x578>
 100407c:	d9801417 	ldw	r6,80(sp)
 1004080:	0005883a 	mov	r2,zero
 1004084:	00cffc34 	movhi	r3,16368
 1004088:	180b883a 	mov	r5,r3
 100408c:	880f883a 	mov	r7,r17
 1004090:	1009883a 	mov	r4,r2
 1004094:	10091f00 	call	10091f0 <__subdf3>
 1004098:	d9c01b17 	ldw	r7,108(sp)
 100409c:	180b883a 	mov	r5,r3
 10040a0:	1009883a 	mov	r4,r2
 10040a4:	b00d883a 	mov	r6,r22
 10040a8:	1009b200 	call	1009b20 <__ltdf2>
 10040ac:	103d9116 	blt	r2,zero,10036f4 <_dtoa_r+0x6dc>
 10040b0:	d9800517 	ldw	r6,20(sp)
 10040b4:	d9000317 	ldw	r4,12(sp)
 10040b8:	3105883a 	add	r2,r6,r4
 10040bc:	e0bd3426 	beq	fp,r2,1003590 <_dtoa_r+0x578>
 10040c0:	04500934 	movhi	r17,16420
 10040c4:	0021883a 	mov	r16,zero
 10040c8:	b80b883a 	mov	r5,r23
 10040cc:	b009883a 	mov	r4,r22
 10040d0:	800d883a 	mov	r6,r16
 10040d4:	880f883a 	mov	r7,r17
 10040d8:	10092e40 	call	10092e4 <__muldf3>
 10040dc:	d9401517 	ldw	r5,84(sp)
 10040e0:	d9001417 	ldw	r4,80(sp)
 10040e4:	880f883a 	mov	r7,r17
 10040e8:	000d883a 	mov	r6,zero
 10040ec:	d8801a15 	stw	r2,104(sp)
 10040f0:	d8c01b15 	stw	r3,108(sp)
 10040f4:	10092e40 	call	10092e4 <__muldf3>
 10040f8:	180b883a 	mov	r5,r3
 10040fc:	1009883a 	mov	r4,r2
 1004100:	1823883a 	mov	r17,r3
 1004104:	1021883a 	mov	r16,r2
 1004108:	1009ca00 	call	1009ca0 <__fixdfsi>
 100410c:	1009883a 	mov	r4,r2
 1004110:	102b883a 	mov	r21,r2
 1004114:	1009ba80 	call	1009ba8 <__floatsidf>
 1004118:	880b883a 	mov	r5,r17
 100411c:	8009883a 	mov	r4,r16
 1004120:	180f883a 	mov	r7,r3
 1004124:	100d883a 	mov	r6,r2
 1004128:	10091f00 	call	10091f0 <__subdf3>
 100412c:	1021883a 	mov	r16,r2
 1004130:	d9001b17 	ldw	r4,108(sp)
 1004134:	1823883a 	mov	r17,r3
 1004138:	dc001415 	stw	r16,80(sp)
 100413c:	ad400c04 	addi	r21,r21,48
 1004140:	dc401515 	stw	r17,84(sp)
 1004144:	d8801a17 	ldw	r2,104(sp)
 1004148:	e5400005 	stb	r21,0(fp)
 100414c:	202f883a 	mov	r23,r4
 1004150:	d9c01b17 	ldw	r7,108(sp)
 1004154:	d9001417 	ldw	r4,80(sp)
 1004158:	880b883a 	mov	r5,r17
 100415c:	100d883a 	mov	r6,r2
 1004160:	102d883a 	mov	r22,r2
 1004164:	e7000044 	addi	fp,fp,1
 1004168:	1009b200 	call	1009b20 <__ltdf2>
 100416c:	103fc30e 	bge	r2,zero,100407c <_dtoa_r+0x1064>
 1004170:	d9000417 	ldw	r4,16(sp)
 1004174:	d9000d15 	stw	r4,52(sp)
 1004178:	003d7106 	br	1003740 <_dtoa_r+0x728>
 100417c:	d9801717 	ldw	r6,92(sp)
 1004180:	00800084 	movi	r2,2
 1004184:	11bde60e 	bge	r2,r6,1003920 <_dtoa_r+0x908>
 1004188:	203cfb1e 	bne	r4,zero,1003578 <_dtoa_r+0x560>
 100418c:	d9001617 	ldw	r4,88(sp)
 1004190:	900b883a 	mov	r5,r18
 1004194:	01800144 	movi	r6,5
 1004198:	000f883a 	mov	r7,zero
 100419c:	1006f000 	call	1006f00 <__multadd>
 10041a0:	d9000717 	ldw	r4,28(sp)
 10041a4:	100b883a 	mov	r5,r2
 10041a8:	1025883a 	mov	r18,r2
 10041ac:	100633c0 	call	100633c <__mcmp>
 10041b0:	00bcf10e 	bge	zero,r2,1003578 <_dtoa_r+0x560>
 10041b4:	d8c00d17 	ldw	r3,52(sp)
 10041b8:	d9000517 	ldw	r4,20(sp)
 10041bc:	d8000615 	stw	zero,24(sp)
 10041c0:	18c00044 	addi	r3,r3,1
 10041c4:	d8c00d15 	stw	r3,52(sp)
 10041c8:	00800c44 	movi	r2,49
 10041cc:	27000044 	addi	fp,r4,1
 10041d0:	20800005 	stb	r2,0(r4)
 10041d4:	003e8906 	br	1003bfc <_dtoa_r+0xbe4>
 10041d8:	d8c00517 	ldw	r3,20(sp)
 10041dc:	003bc206 	br	10030e8 <_dtoa_r+0xd0>
 10041e0:	01804074 	movhi	r6,257
 10041e4:	31bb1a04 	addi	r6,r6,-5016
 10041e8:	30c00917 	ldw	r3,36(r6)
 10041ec:	30800817 	ldw	r2,32(r6)
 10041f0:	d9001217 	ldw	r4,72(sp)
 10041f4:	d9401317 	ldw	r5,76(sp)
 10041f8:	180f883a 	mov	r7,r3
 10041fc:	100d883a 	mov	r6,r2
 1004200:	10096a80 	call	10096a8 <__divdf3>
 1004204:	948003cc 	andi	r18,r18,15
 1004208:	058000c4 	movi	r22,3
 100420c:	1029883a 	mov	r20,r2
 1004210:	182b883a 	mov	r21,r3
 1004214:	003c8906 	br	100343c <_dtoa_r+0x424>
 1004218:	d9001017 	ldw	r4,64(sp)
 100421c:	d9800917 	ldw	r6,36(sp)
 1004220:	0025883a 	mov	r18,zero
 1004224:	1105c83a 	sub	r2,r2,r4
 1004228:	2089883a 	add	r4,r4,r2
 100422c:	308d883a 	add	r6,r6,r2
 1004230:	d9001015 	stw	r4,64(sp)
 1004234:	d9800915 	stw	r6,36(sp)
 1004238:	003e3206 	br	1003b04 <_dtoa_r+0xaec>
 100423c:	28800044 	addi	r2,r5,1
 1004240:	27000044 	addi	fp,r4,1
 1004244:	20800005 	stb	r2,0(r4)
 1004248:	003e6c06 	br	1003bfc <_dtoa_r+0xbe4>
 100424c:	d8800f17 	ldw	r2,60(sp)
 1004250:	00bce016 	blt	zero,r2,10035d4 <_dtoa_r+0x5bc>
 1004254:	d9800f17 	ldw	r6,60(sp)
 1004258:	303cc51e 	bne	r6,zero,1003570 <_dtoa_r+0x558>
 100425c:	0005883a 	mov	r2,zero
 1004260:	00d00534 	movhi	r3,16404
 1004264:	980b883a 	mov	r5,r19
 1004268:	180f883a 	mov	r7,r3
 100426c:	9009883a 	mov	r4,r18
 1004270:	100d883a 	mov	r6,r2
 1004274:	10092e40 	call	10092e4 <__muldf3>
 1004278:	180b883a 	mov	r5,r3
 100427c:	a80f883a 	mov	r7,r21
 1004280:	1009883a 	mov	r4,r2
 1004284:	a00d883a 	mov	r6,r20
 1004288:	1009a980 	call	1009a98 <__gedf2>
 100428c:	103cb80e 	bge	r2,zero,1003570 <_dtoa_r+0x558>
 1004290:	0027883a 	mov	r19,zero
 1004294:	0025883a 	mov	r18,zero
 1004298:	003fc606 	br	10041b4 <_dtoa_r+0x119c>
 100429c:	99400117 	ldw	r5,4(r19)
 10042a0:	d9001617 	ldw	r4,88(sp)
 10042a4:	10067600 	call	1006760 <_Balloc>
 10042a8:	99800417 	ldw	r6,16(r19)
 10042ac:	11000304 	addi	r4,r2,12
 10042b0:	99400304 	addi	r5,r19,12
 10042b4:	318d883a 	add	r6,r6,r6
 10042b8:	318d883a 	add	r6,r6,r6
 10042bc:	31800204 	addi	r6,r6,8
 10042c0:	1023883a 	mov	r17,r2
 10042c4:	1005fc80 	call	1005fc8 <memcpy>
 10042c8:	d9001617 	ldw	r4,88(sp)
 10042cc:	880b883a 	mov	r5,r17
 10042d0:	01800044 	movi	r6,1
 10042d4:	1006b240 	call	1006b24 <__lshift>
 10042d8:	100b883a 	mov	r5,r2
 10042dc:	003d9c06 	br	1003950 <_dtoa_r+0x938>
 10042e0:	00800e44 	movi	r2,57
 10042e4:	b8807026 	beq	r23,r2,10044a8 <_dtoa_r+0x1490>
 10042e8:	b8800044 	addi	r2,r23,1
 10042ec:	b7000044 	addi	fp,r22,1
 10042f0:	b0800005 	stb	r2,0(r22)
 10042f4:	003e4106 	br	1003bfc <_dtoa_r+0xbe4>
 10042f8:	d8800317 	ldw	r2,12(sp)
 10042fc:	01804074 	movhi	r6,257
 1004300:	31bae804 	addi	r6,r6,-5216
 1004304:	b009883a 	mov	r4,r22
 1004308:	100e90fa 	slli	r7,r2,3
 100430c:	b80b883a 	mov	r5,r23
 1004310:	398f883a 	add	r7,r7,r6
 1004314:	38bffe17 	ldw	r2,-8(r7)
 1004318:	d9800517 	ldw	r6,20(sp)
 100431c:	38ffff17 	ldw	r3,-4(r7)
 1004320:	37000044 	addi	fp,r6,1
 1004324:	180f883a 	mov	r7,r3
 1004328:	100d883a 	mov	r6,r2
 100432c:	10092e40 	call	10092e4 <__muldf3>
 1004330:	a80b883a 	mov	r5,r21
 1004334:	a009883a 	mov	r4,r20
 1004338:	182f883a 	mov	r23,r3
 100433c:	102d883a 	mov	r22,r2
 1004340:	1009ca00 	call	1009ca0 <__fixdfsi>
 1004344:	1009883a 	mov	r4,r2
 1004348:	1027883a 	mov	r19,r2
 100434c:	1009ba80 	call	1009ba8 <__floatsidf>
 1004350:	a80b883a 	mov	r5,r21
 1004354:	a009883a 	mov	r4,r20
 1004358:	180f883a 	mov	r7,r3
 100435c:	100d883a 	mov	r6,r2
 1004360:	10091f00 	call	10091f0 <__subdf3>
 1004364:	180b883a 	mov	r5,r3
 1004368:	d8c00517 	ldw	r3,20(sp)
 100436c:	9cc00c04 	addi	r19,r19,48
 1004370:	1009883a 	mov	r4,r2
 1004374:	1cc00005 	stb	r19,0(r3)
 1004378:	2021883a 	mov	r16,r4
 100437c:	d9000317 	ldw	r4,12(sp)
 1004380:	00800044 	movi	r2,1
 1004384:	2823883a 	mov	r17,r5
 1004388:	20802226 	beq	r4,r2,1004414 <_dtoa_r+0x13fc>
 100438c:	1029883a 	mov	r20,r2
 1004390:	0005883a 	mov	r2,zero
 1004394:	00d00934 	movhi	r3,16420
 1004398:	180f883a 	mov	r7,r3
 100439c:	100d883a 	mov	r6,r2
 10043a0:	880b883a 	mov	r5,r17
 10043a4:	8009883a 	mov	r4,r16
 10043a8:	10092e40 	call	10092e4 <__muldf3>
 10043ac:	180b883a 	mov	r5,r3
 10043b0:	1009883a 	mov	r4,r2
 10043b4:	1823883a 	mov	r17,r3
 10043b8:	1021883a 	mov	r16,r2
 10043bc:	1009ca00 	call	1009ca0 <__fixdfsi>
 10043c0:	1009883a 	mov	r4,r2
 10043c4:	102b883a 	mov	r21,r2
 10043c8:	1009ba80 	call	1009ba8 <__floatsidf>
 10043cc:	880b883a 	mov	r5,r17
 10043d0:	8009883a 	mov	r4,r16
 10043d4:	180f883a 	mov	r7,r3
 10043d8:	100d883a 	mov	r6,r2
 10043dc:	10091f00 	call	10091f0 <__subdf3>
 10043e0:	180b883a 	mov	r5,r3
 10043e4:	d8c00517 	ldw	r3,20(sp)
 10043e8:	1009883a 	mov	r4,r2
 10043ec:	ad400c04 	addi	r21,r21,48
 10043f0:	1d05883a 	add	r2,r3,r20
 10043f4:	15400005 	stb	r21,0(r2)
 10043f8:	2021883a 	mov	r16,r4
 10043fc:	d9000317 	ldw	r4,12(sp)
 1004400:	a5000044 	addi	r20,r20,1
 1004404:	2823883a 	mov	r17,r5
 1004408:	a13fe11e 	bne	r20,r4,1004390 <_dtoa_r+0x1378>
 100440c:	e505883a 	add	r2,fp,r20
 1004410:	173fffc4 	addi	fp,r2,-1
 1004414:	0025883a 	mov	r18,zero
 1004418:	04cff834 	movhi	r19,16352
 100441c:	b009883a 	mov	r4,r22
 1004420:	b80b883a 	mov	r5,r23
 1004424:	900d883a 	mov	r6,r18
 1004428:	980f883a 	mov	r7,r19
 100442c:	10092700 	call	1009270 <__adddf3>
 1004430:	180b883a 	mov	r5,r3
 1004434:	1009883a 	mov	r4,r2
 1004438:	800d883a 	mov	r6,r16
 100443c:	880f883a 	mov	r7,r17
 1004440:	1009b200 	call	1009b20 <__ltdf2>
 1004444:	103cab16 	blt	r2,zero,10036f4 <_dtoa_r+0x6dc>
 1004448:	0009883a 	mov	r4,zero
 100444c:	980b883a 	mov	r5,r19
 1004450:	b80f883a 	mov	r7,r23
 1004454:	b00d883a 	mov	r6,r22
 1004458:	10091f00 	call	10091f0 <__subdf3>
 100445c:	180b883a 	mov	r5,r3
 1004460:	880f883a 	mov	r7,r17
 1004464:	1009883a 	mov	r4,r2
 1004468:	800d883a 	mov	r6,r16
 100446c:	1009a100 	call	1009a10 <__gtdf2>
 1004470:	00bc470e 	bge	zero,r2,1003590 <_dtoa_r+0x578>
 1004474:	00c00c04 	movi	r3,48
 1004478:	e73fffc4 	addi	fp,fp,-1
 100447c:	e0800007 	ldb	r2,0(fp)
 1004480:	10fffd26 	beq	r2,r3,1004478 <_dtoa_r+0x1460>
 1004484:	d9800417 	ldw	r6,16(sp)
 1004488:	e7000044 	addi	fp,fp,1
 100448c:	d9800d15 	stw	r6,52(sp)
 1004490:	003cab06 	br	1003740 <_dtoa_r+0x728>
 1004494:	d8c00f17 	ldw	r3,60(sp)
 1004498:	d9001117 	ldw	r4,68(sp)
 100449c:	20e1c83a 	sub	r16,r4,r3
 10044a0:	0007883a 	mov	r3,zero
 10044a4:	003d9b06 	br	1003b14 <_dtoa_r+0xafc>
 10044a8:	00800e44 	movi	r2,57
 10044ac:	b0800005 	stb	r2,0(r22)
 10044b0:	b5800044 	addi	r22,r22,1
 10044b4:	003dc106 	br	1003bbc <_dtoa_r+0xba4>
 10044b8:	05800084 	movi	r22,2
 10044bc:	003bf706 	br	100349c <_dtoa_r+0x484>
 10044c0:	d9000f17 	ldw	r4,60(sp)
 10044c4:	013c000e 	bge	zero,r4,10034c8 <_dtoa_r+0x4b0>
 10044c8:	d9800e17 	ldw	r6,56(sp)
 10044cc:	01bc300e 	bge	zero,r6,1003590 <_dtoa_r+0x578>
 10044d0:	0005883a 	mov	r2,zero
 10044d4:	00d00934 	movhi	r3,16420
 10044d8:	a80b883a 	mov	r5,r21
 10044dc:	180f883a 	mov	r7,r3
 10044e0:	a009883a 	mov	r4,r20
 10044e4:	100d883a 	mov	r6,r2
 10044e8:	10092e40 	call	10092e4 <__muldf3>
 10044ec:	b1000044 	addi	r4,r22,1
 10044f0:	1021883a 	mov	r16,r2
 10044f4:	1823883a 	mov	r17,r3
 10044f8:	1009ba80 	call	1009ba8 <__floatsidf>
 10044fc:	880b883a 	mov	r5,r17
 1004500:	8009883a 	mov	r4,r16
 1004504:	180f883a 	mov	r7,r3
 1004508:	100d883a 	mov	r6,r2
 100450c:	10092e40 	call	10092e4 <__muldf3>
 1004510:	0011883a 	mov	r8,zero
 1004514:	02500734 	movhi	r9,16412
 1004518:	180b883a 	mov	r5,r3
 100451c:	480f883a 	mov	r7,r9
 1004520:	1009883a 	mov	r4,r2
 1004524:	400d883a 	mov	r6,r8
 1004528:	10092700 	call	1009270 <__adddf3>
 100452c:	102d883a 	mov	r22,r2
 1004530:	00bf3034 	movhi	r2,64704
 1004534:	10ef883a 	add	r23,r2,r3
 1004538:	d8800d17 	ldw	r2,52(sp)
 100453c:	d8c00e17 	ldw	r3,56(sp)
 1004540:	8029883a 	mov	r20,r16
 1004544:	10bfffc4 	addi	r2,r2,-1
 1004548:	882b883a 	mov	r21,r17
 100454c:	d8800415 	stw	r2,16(sp)
 1004550:	d8c00315 	stw	r3,12(sp)
 1004554:	003e8306 	br	1003f64 <_dtoa_r+0xf4c>
 1004558:	d8800117 	ldw	r2,4(sp)
 100455c:	dc001117 	ldw	r16,68(sp)
 1004560:	dc801017 	ldw	r18,64(sp)
 1004564:	00c00d84 	movi	r3,54
 1004568:	1887c83a 	sub	r3,r3,r2
 100456c:	003d6906 	br	1003b14 <_dtoa_r+0xafc>
 1004570:	01800044 	movi	r6,1
 1004574:	3021883a 	mov	r16,r6
 1004578:	d9800f15 	stw	r6,60(sp)
 100457c:	d9802615 	stw	r6,152(sp)
 1004580:	d9800e15 	stw	r6,56(sp)
 1004584:	003b9306 	br	10033d4 <_dtoa_r+0x3bc>
 1004588:	b021883a 	mov	r16,r22
 100458c:	dd800f15 	stw	r22,60(sp)
 1004590:	003b9006 	br	10033d4 <_dtoa_r+0x3bc>
 1004594:	103e221e 	bne	r2,zero,1003e20 <_dtoa_r+0xe08>
 1004598:	b880004c 	andi	r2,r23,1
 100459c:	1005003a 	cmpeq	r2,r2,zero
 10045a0:	103e1f1e 	bne	r2,zero,1003e20 <_dtoa_r+0xe08>
 10045a4:	003e1b06 	br	1003e14 <_dtoa_r+0xdfc>
 10045a8:	d9001617 	ldw	r4,88(sp)
 10045ac:	980b883a 	mov	r5,r19
 10045b0:	01800284 	movi	r6,10
 10045b4:	000f883a 	mov	r7,zero
 10045b8:	1006f000 	call	1006f00 <__multadd>
 10045bc:	d8c00e17 	ldw	r3,56(sp)
 10045c0:	1027883a 	mov	r19,r2
 10045c4:	d8c00f15 	stw	r3,60(sp)
 10045c8:	003cd306 	br	1003918 <_dtoa_r+0x900>

010045cc <_fflush_r>:
 10045cc:	defffb04 	addi	sp,sp,-20
 10045d0:	dcc00315 	stw	r19,12(sp)
 10045d4:	dc800215 	stw	r18,8(sp)
 10045d8:	dfc00415 	stw	ra,16(sp)
 10045dc:	dc400115 	stw	r17,4(sp)
 10045e0:	dc000015 	stw	r16,0(sp)
 10045e4:	2027883a 	mov	r19,r4
 10045e8:	2825883a 	mov	r18,r5
 10045ec:	20000226 	beq	r4,zero,10045f8 <_fflush_r+0x2c>
 10045f0:	20800e17 	ldw	r2,56(r4)
 10045f4:	10005626 	beq	r2,zero,1004750 <_fflush_r+0x184>
 10045f8:	9100030b 	ldhu	r4,12(r18)
 10045fc:	20ffffcc 	andi	r3,r4,65535
 1004600:	18e0001c 	xori	r3,r3,32768
 1004604:	18e00004 	addi	r3,r3,-32768
 1004608:	1880020c 	andi	r2,r3,8
 100460c:	1000261e 	bne	r2,zero,10046a8 <_fflush_r+0xdc>
 1004610:	90c00117 	ldw	r3,4(r18)
 1004614:	20820014 	ori	r2,r4,2048
 1004618:	9080030d 	sth	r2,12(r18)
 100461c:	1009883a 	mov	r4,r2
 1004620:	00c0400e 	bge	zero,r3,1004724 <_fflush_r+0x158>
 1004624:	92000a17 	ldw	r8,40(r18)
 1004628:	40004026 	beq	r8,zero,100472c <_fflush_r+0x160>
 100462c:	2084000c 	andi	r2,r4,4096
 1004630:	10005326 	beq	r2,zero,1004780 <_fflush_r+0x1b4>
 1004634:	94001417 	ldw	r16,80(r18)
 1004638:	9080030b 	ldhu	r2,12(r18)
 100463c:	1080010c 	andi	r2,r2,4
 1004640:	1000481e 	bne	r2,zero,1004764 <_fflush_r+0x198>
 1004644:	91400717 	ldw	r5,28(r18)
 1004648:	9809883a 	mov	r4,r19
 100464c:	800d883a 	mov	r6,r16
 1004650:	000f883a 	mov	r7,zero
 1004654:	403ee83a 	callr	r8
 1004658:	8080261e 	bne	r16,r2,10046f4 <_fflush_r+0x128>
 100465c:	9080030b 	ldhu	r2,12(r18)
 1004660:	91000417 	ldw	r4,16(r18)
 1004664:	90000115 	stw	zero,4(r18)
 1004668:	10bdffcc 	andi	r2,r2,63487
 100466c:	10ffffcc 	andi	r3,r2,65535
 1004670:	18c4000c 	andi	r3,r3,4096
 1004674:	9080030d 	sth	r2,12(r18)
 1004678:	91000015 	stw	r4,0(r18)
 100467c:	18002b26 	beq	r3,zero,100472c <_fflush_r+0x160>
 1004680:	0007883a 	mov	r3,zero
 1004684:	1805883a 	mov	r2,r3
 1004688:	94001415 	stw	r16,80(r18)
 100468c:	dfc00417 	ldw	ra,16(sp)
 1004690:	dcc00317 	ldw	r19,12(sp)
 1004694:	dc800217 	ldw	r18,8(sp)
 1004698:	dc400117 	ldw	r17,4(sp)
 100469c:	dc000017 	ldw	r16,0(sp)
 10046a0:	dec00504 	addi	sp,sp,20
 10046a4:	f800283a 	ret
 10046a8:	94400417 	ldw	r17,16(r18)
 10046ac:	88001f26 	beq	r17,zero,100472c <_fflush_r+0x160>
 10046b0:	90800017 	ldw	r2,0(r18)
 10046b4:	18c000cc 	andi	r3,r3,3
 10046b8:	94400015 	stw	r17,0(r18)
 10046bc:	1461c83a 	sub	r16,r2,r17
 10046c0:	18002526 	beq	r3,zero,1004758 <_fflush_r+0x18c>
 10046c4:	0005883a 	mov	r2,zero
 10046c8:	90800215 	stw	r2,8(r18)
 10046cc:	0400170e 	bge	zero,r16,100472c <_fflush_r+0x160>
 10046d0:	90c00917 	ldw	r3,36(r18)
 10046d4:	91400717 	ldw	r5,28(r18)
 10046d8:	880d883a 	mov	r6,r17
 10046dc:	800f883a 	mov	r7,r16
 10046e0:	9809883a 	mov	r4,r19
 10046e4:	183ee83a 	callr	r3
 10046e8:	88a3883a 	add	r17,r17,r2
 10046ec:	80a1c83a 	sub	r16,r16,r2
 10046f0:	00bff616 	blt	zero,r2,10046cc <_fflush_r+0x100>
 10046f4:	9080030b 	ldhu	r2,12(r18)
 10046f8:	00ffffc4 	movi	r3,-1
 10046fc:	10801014 	ori	r2,r2,64
 1004700:	9080030d 	sth	r2,12(r18)
 1004704:	1805883a 	mov	r2,r3
 1004708:	dfc00417 	ldw	ra,16(sp)
 100470c:	dcc00317 	ldw	r19,12(sp)
 1004710:	dc800217 	ldw	r18,8(sp)
 1004714:	dc400117 	ldw	r17,4(sp)
 1004718:	dc000017 	ldw	r16,0(sp)
 100471c:	dec00504 	addi	sp,sp,20
 1004720:	f800283a 	ret
 1004724:	90800f17 	ldw	r2,60(r18)
 1004728:	00bfbe16 	blt	zero,r2,1004624 <_fflush_r+0x58>
 100472c:	0007883a 	mov	r3,zero
 1004730:	1805883a 	mov	r2,r3
 1004734:	dfc00417 	ldw	ra,16(sp)
 1004738:	dcc00317 	ldw	r19,12(sp)
 100473c:	dc800217 	ldw	r18,8(sp)
 1004740:	dc400117 	ldw	r17,4(sp)
 1004744:	dc000017 	ldw	r16,0(sp)
 1004748:	dec00504 	addi	sp,sp,20
 100474c:	f800283a 	ret
 1004750:	10048640 	call	1004864 <__sinit>
 1004754:	003fa806 	br	10045f8 <_fflush_r+0x2c>
 1004758:	90800517 	ldw	r2,20(r18)
 100475c:	90800215 	stw	r2,8(r18)
 1004760:	003fda06 	br	10046cc <_fflush_r+0x100>
 1004764:	90800117 	ldw	r2,4(r18)
 1004768:	90c00c17 	ldw	r3,48(r18)
 100476c:	80a1c83a 	sub	r16,r16,r2
 1004770:	183fb426 	beq	r3,zero,1004644 <_fflush_r+0x78>
 1004774:	90800f17 	ldw	r2,60(r18)
 1004778:	80a1c83a 	sub	r16,r16,r2
 100477c:	003fb106 	br	1004644 <_fflush_r+0x78>
 1004780:	91400717 	ldw	r5,28(r18)
 1004784:	9809883a 	mov	r4,r19
 1004788:	000d883a 	mov	r6,zero
 100478c:	01c00044 	movi	r7,1
 1004790:	403ee83a 	callr	r8
 1004794:	1021883a 	mov	r16,r2
 1004798:	00bfffc4 	movi	r2,-1
 100479c:	80800226 	beq	r16,r2,10047a8 <_fflush_r+0x1dc>
 10047a0:	92000a17 	ldw	r8,40(r18)
 10047a4:	003fa406 	br	1004638 <_fflush_r+0x6c>
 10047a8:	98c00017 	ldw	r3,0(r19)
 10047ac:	00800744 	movi	r2,29
 10047b0:	18bfde26 	beq	r3,r2,100472c <_fflush_r+0x160>
 10047b4:	9080030b 	ldhu	r2,12(r18)
 10047b8:	8007883a 	mov	r3,r16
 10047bc:	10801014 	ori	r2,r2,64
 10047c0:	9080030d 	sth	r2,12(r18)
 10047c4:	003fcf06 	br	1004704 <_fflush_r+0x138>

010047c8 <fflush>:
 10047c8:	01404034 	movhi	r5,256
 10047cc:	29517304 	addi	r5,r5,17868
 10047d0:	2007883a 	mov	r3,r4
 10047d4:	20000526 	beq	r4,zero,10047ec <fflush+0x24>
 10047d8:	00804074 	movhi	r2,257
 10047dc:	10824c04 	addi	r2,r2,2352
 10047e0:	11000017 	ldw	r4,0(r2)
 10047e4:	180b883a 	mov	r5,r3
 10047e8:	10045cc1 	jmpi	10045cc <_fflush_r>
 10047ec:	00804074 	movhi	r2,257
 10047f0:	10824d04 	addi	r2,r2,2356
 10047f4:	11000017 	ldw	r4,0(r2)
 10047f8:	10053cc1 	jmpi	10053cc <_fwalk_reent>

010047fc <std>:
 10047fc:	00804034 	movhi	r2,256
 1004800:	109e5004 	addi	r2,r2,31040
 1004804:	20800b15 	stw	r2,44(r4)
 1004808:	00804034 	movhi	r2,256
 100480c:	109e8b04 	addi	r2,r2,31276
 1004810:	20800815 	stw	r2,32(r4)
 1004814:	00c04034 	movhi	r3,256
 1004818:	18de6c04 	addi	r3,r3,31152
 100481c:	00804034 	movhi	r2,256
 1004820:	109e5204 	addi	r2,r2,31048
 1004824:	2140030d 	sth	r5,12(r4)
 1004828:	2180038d 	sth	r6,14(r4)
 100482c:	20c00915 	stw	r3,36(r4)
 1004830:	20800a15 	stw	r2,40(r4)
 1004834:	20000015 	stw	zero,0(r4)
 1004838:	20000115 	stw	zero,4(r4)
 100483c:	20000215 	stw	zero,8(r4)
 1004840:	20000415 	stw	zero,16(r4)
 1004844:	20000515 	stw	zero,20(r4)
 1004848:	20000615 	stw	zero,24(r4)
 100484c:	21000715 	stw	r4,28(r4)
 1004850:	f800283a 	ret

01004854 <__sfp_lock_acquire>:
 1004854:	f800283a 	ret

01004858 <__sfp_lock_release>:
 1004858:	f800283a 	ret

0100485c <__sinit_lock_acquire>:
 100485c:	f800283a 	ret

01004860 <__sinit_lock_release>:
 1004860:	f800283a 	ret

01004864 <__sinit>:
 1004864:	20800e17 	ldw	r2,56(r4)
 1004868:	defffd04 	addi	sp,sp,-12
 100486c:	dc400115 	stw	r17,4(sp)
 1004870:	dc000015 	stw	r16,0(sp)
 1004874:	dfc00215 	stw	ra,8(sp)
 1004878:	04400044 	movi	r17,1
 100487c:	01400104 	movi	r5,4
 1004880:	000d883a 	mov	r6,zero
 1004884:	2021883a 	mov	r16,r4
 1004888:	2200bb04 	addi	r8,r4,748
 100488c:	200f883a 	mov	r7,r4
 1004890:	10000526 	beq	r2,zero,10048a8 <__sinit+0x44>
 1004894:	dfc00217 	ldw	ra,8(sp)
 1004898:	dc400117 	ldw	r17,4(sp)
 100489c:	dc000017 	ldw	r16,0(sp)
 10048a0:	dec00304 	addi	sp,sp,12
 10048a4:	f800283a 	ret
 10048a8:	21000117 	ldw	r4,4(r4)
 10048ac:	00804034 	movhi	r2,256
 10048b0:	10925204 	addi	r2,r2,18760
 10048b4:	00c000c4 	movi	r3,3
 10048b8:	80800f15 	stw	r2,60(r16)
 10048bc:	80c0b915 	stw	r3,740(r16)
 10048c0:	8200ba15 	stw	r8,744(r16)
 10048c4:	84400e15 	stw	r17,56(r16)
 10048c8:	8000b815 	stw	zero,736(r16)
 10048cc:	10047fc0 	call	10047fc <std>
 10048d0:	81000217 	ldw	r4,8(r16)
 10048d4:	880d883a 	mov	r6,r17
 10048d8:	800f883a 	mov	r7,r16
 10048dc:	01400284 	movi	r5,10
 10048e0:	10047fc0 	call	10047fc <std>
 10048e4:	81000317 	ldw	r4,12(r16)
 10048e8:	800f883a 	mov	r7,r16
 10048ec:	01400484 	movi	r5,18
 10048f0:	01800084 	movi	r6,2
 10048f4:	dfc00217 	ldw	ra,8(sp)
 10048f8:	dc400117 	ldw	r17,4(sp)
 10048fc:	dc000017 	ldw	r16,0(sp)
 1004900:	dec00304 	addi	sp,sp,12
 1004904:	10047fc1 	jmpi	10047fc <std>

01004908 <__fp_lock>:
 1004908:	0005883a 	mov	r2,zero
 100490c:	f800283a 	ret

01004910 <__fp_unlock>:
 1004910:	0005883a 	mov	r2,zero
 1004914:	f800283a 	ret

01004918 <__fp_unlock_all>:
 1004918:	00804074 	movhi	r2,257
 100491c:	10824c04 	addi	r2,r2,2352
 1004920:	11000017 	ldw	r4,0(r2)
 1004924:	01404034 	movhi	r5,256
 1004928:	29524404 	addi	r5,r5,18704
 100492c:	10054941 	jmpi	1005494 <_fwalk>

01004930 <__fp_lock_all>:
 1004930:	00804074 	movhi	r2,257
 1004934:	10824c04 	addi	r2,r2,2352
 1004938:	11000017 	ldw	r4,0(r2)
 100493c:	01404034 	movhi	r5,256
 1004940:	29524204 	addi	r5,r5,18696
 1004944:	10054941 	jmpi	1005494 <_fwalk>

01004948 <_cleanup_r>:
 1004948:	01404034 	movhi	r5,256
 100494c:	295f8204 	addi	r5,r5,32264
 1004950:	10054941 	jmpi	1005494 <_fwalk>

01004954 <_cleanup>:
 1004954:	00804074 	movhi	r2,257
 1004958:	10824d04 	addi	r2,r2,2356
 100495c:	11000017 	ldw	r4,0(r2)
 1004960:	10049481 	jmpi	1004948 <_cleanup_r>

01004964 <__sfmoreglue>:
 1004964:	defffc04 	addi	sp,sp,-16
 1004968:	dc000015 	stw	r16,0(sp)
 100496c:	2821883a 	mov	r16,r5
 1004970:	dc400115 	stw	r17,4(sp)
 1004974:	01401704 	movi	r5,92
 1004978:	2023883a 	mov	r17,r4
 100497c:	8009883a 	mov	r4,r16
 1004980:	dfc00315 	stw	ra,12(sp)
 1004984:	dcc00215 	stw	r19,8(sp)
 1004988:	1009f0c0 	call	1009f0c <__mulsi3>
 100498c:	11400304 	addi	r5,r2,12
 1004990:	8809883a 	mov	r4,r17
 1004994:	1027883a 	mov	r19,r2
 1004998:	10057a40 	call	10057a4 <_malloc_r>
 100499c:	10c00304 	addi	r3,r2,12
 10049a0:	1023883a 	mov	r17,r2
 10049a4:	1809883a 	mov	r4,r3
 10049a8:	980d883a 	mov	r6,r19
 10049ac:	000b883a 	mov	r5,zero
 10049b0:	10000b26 	beq	r2,zero,10049e0 <__sfmoreglue+0x7c>
 10049b4:	14000115 	stw	r16,4(r2)
 10049b8:	10c00215 	stw	r3,8(r2)
 10049bc:	10000015 	stw	zero,0(r2)
 10049c0:	10061480 	call	1006148 <memset>
 10049c4:	8805883a 	mov	r2,r17
 10049c8:	dfc00317 	ldw	ra,12(sp)
 10049cc:	dcc00217 	ldw	r19,8(sp)
 10049d0:	dc400117 	ldw	r17,4(sp)
 10049d4:	dc000017 	ldw	r16,0(sp)
 10049d8:	dec00404 	addi	sp,sp,16
 10049dc:	f800283a 	ret
 10049e0:	0023883a 	mov	r17,zero
 10049e4:	8805883a 	mov	r2,r17
 10049e8:	dfc00317 	ldw	ra,12(sp)
 10049ec:	dcc00217 	ldw	r19,8(sp)
 10049f0:	dc400117 	ldw	r17,4(sp)
 10049f4:	dc000017 	ldw	r16,0(sp)
 10049f8:	dec00404 	addi	sp,sp,16
 10049fc:	f800283a 	ret

01004a00 <__sfp>:
 1004a00:	defffd04 	addi	sp,sp,-12
 1004a04:	00804074 	movhi	r2,257
 1004a08:	10824d04 	addi	r2,r2,2356
 1004a0c:	dc000015 	stw	r16,0(sp)
 1004a10:	14000017 	ldw	r16,0(r2)
 1004a14:	dc400115 	stw	r17,4(sp)
 1004a18:	dfc00215 	stw	ra,8(sp)
 1004a1c:	80800e17 	ldw	r2,56(r16)
 1004a20:	2023883a 	mov	r17,r4
 1004a24:	10002626 	beq	r2,zero,1004ac0 <__sfp+0xc0>
 1004a28:	8400b804 	addi	r16,r16,736
 1004a2c:	80800117 	ldw	r2,4(r16)
 1004a30:	81000217 	ldw	r4,8(r16)
 1004a34:	10ffffc4 	addi	r3,r2,-1
 1004a38:	18000916 	blt	r3,zero,1004a60 <__sfp+0x60>
 1004a3c:	2080030f 	ldh	r2,12(r4)
 1004a40:	10000b26 	beq	r2,zero,1004a70 <__sfp+0x70>
 1004a44:	017fffc4 	movi	r5,-1
 1004a48:	00000206 	br	1004a54 <__sfp+0x54>
 1004a4c:	2080030f 	ldh	r2,12(r4)
 1004a50:	10000726 	beq	r2,zero,1004a70 <__sfp+0x70>
 1004a54:	18ffffc4 	addi	r3,r3,-1
 1004a58:	21001704 	addi	r4,r4,92
 1004a5c:	197ffb1e 	bne	r3,r5,1004a4c <__sfp+0x4c>
 1004a60:	80800017 	ldw	r2,0(r16)
 1004a64:	10001926 	beq	r2,zero,1004acc <__sfp+0xcc>
 1004a68:	1021883a 	mov	r16,r2
 1004a6c:	003fef06 	br	1004a2c <__sfp+0x2c>
 1004a70:	00bfffc4 	movi	r2,-1
 1004a74:	00c00044 	movi	r3,1
 1004a78:	2080038d 	sth	r2,14(r4)
 1004a7c:	20c0030d 	sth	r3,12(r4)
 1004a80:	20000015 	stw	zero,0(r4)
 1004a84:	20000215 	stw	zero,8(r4)
 1004a88:	20000115 	stw	zero,4(r4)
 1004a8c:	20000415 	stw	zero,16(r4)
 1004a90:	20000515 	stw	zero,20(r4)
 1004a94:	20000615 	stw	zero,24(r4)
 1004a98:	20000c15 	stw	zero,48(r4)
 1004a9c:	20000d15 	stw	zero,52(r4)
 1004aa0:	20001115 	stw	zero,68(r4)
 1004aa4:	20001215 	stw	zero,72(r4)
 1004aa8:	2005883a 	mov	r2,r4
 1004aac:	dfc00217 	ldw	ra,8(sp)
 1004ab0:	dc400117 	ldw	r17,4(sp)
 1004ab4:	dc000017 	ldw	r16,0(sp)
 1004ab8:	dec00304 	addi	sp,sp,12
 1004abc:	f800283a 	ret
 1004ac0:	8009883a 	mov	r4,r16
 1004ac4:	10048640 	call	1004864 <__sinit>
 1004ac8:	003fd706 	br	1004a28 <__sfp+0x28>
 1004acc:	8809883a 	mov	r4,r17
 1004ad0:	01400104 	movi	r5,4
 1004ad4:	10049640 	call	1004964 <__sfmoreglue>
 1004ad8:	80800015 	stw	r2,0(r16)
 1004adc:	103fe21e 	bne	r2,zero,1004a68 <__sfp+0x68>
 1004ae0:	00800304 	movi	r2,12
 1004ae4:	0009883a 	mov	r4,zero
 1004ae8:	88800015 	stw	r2,0(r17)
 1004aec:	003fee06 	br	1004aa8 <__sfp+0xa8>

01004af0 <_malloc_trim_r>:
 1004af0:	defffb04 	addi	sp,sp,-20
 1004af4:	dcc00315 	stw	r19,12(sp)
 1004af8:	04c04074 	movhi	r19,257
 1004afc:	9cfca104 	addi	r19,r19,-3452
 1004b00:	dc800215 	stw	r18,8(sp)
 1004b04:	dc400115 	stw	r17,4(sp)
 1004b08:	dc000015 	stw	r16,0(sp)
 1004b0c:	2823883a 	mov	r17,r5
 1004b10:	2025883a 	mov	r18,r4
 1004b14:	dfc00415 	stw	ra,16(sp)
 1004b18:	100ab6c0 	call	100ab6c <__malloc_lock>
 1004b1c:	98800217 	ldw	r2,8(r19)
 1004b20:	9009883a 	mov	r4,r18
 1004b24:	000b883a 	mov	r5,zero
 1004b28:	10c00117 	ldw	r3,4(r2)
 1004b2c:	00bfff04 	movi	r2,-4
 1004b30:	18a0703a 	and	r16,r3,r2
 1004b34:	8463c83a 	sub	r17,r16,r17
 1004b38:	8c43fbc4 	addi	r17,r17,4079
 1004b3c:	8822d33a 	srli	r17,r17,12
 1004b40:	0083ffc4 	movi	r2,4095
 1004b44:	8c7fffc4 	addi	r17,r17,-1
 1004b48:	8822933a 	slli	r17,r17,12
 1004b4c:	1440060e 	bge	r2,r17,1004b68 <_malloc_trim_r+0x78>
 1004b50:	10078d00 	call	10078d0 <_sbrk_r>
 1004b54:	98c00217 	ldw	r3,8(r19)
 1004b58:	9009883a 	mov	r4,r18
 1004b5c:	044bc83a 	sub	r5,zero,r17
 1004b60:	80c7883a 	add	r3,r16,r3
 1004b64:	10c00926 	beq	r2,r3,1004b8c <_malloc_trim_r+0x9c>
 1004b68:	100ab8c0 	call	100ab8c <__malloc_unlock>
 1004b6c:	0005883a 	mov	r2,zero
 1004b70:	dfc00417 	ldw	ra,16(sp)
 1004b74:	dcc00317 	ldw	r19,12(sp)
 1004b78:	dc800217 	ldw	r18,8(sp)
 1004b7c:	dc400117 	ldw	r17,4(sp)
 1004b80:	dc000017 	ldw	r16,0(sp)
 1004b84:	dec00504 	addi	sp,sp,20
 1004b88:	f800283a 	ret
 1004b8c:	9009883a 	mov	r4,r18
 1004b90:	10078d00 	call	10078d0 <_sbrk_r>
 1004b94:	844dc83a 	sub	r6,r16,r17
 1004b98:	00ffffc4 	movi	r3,-1
 1004b9c:	9009883a 	mov	r4,r18
 1004ba0:	000b883a 	mov	r5,zero
 1004ba4:	01c04074 	movhi	r7,257
 1004ba8:	39c92704 	addi	r7,r7,9372
 1004bac:	31800054 	ori	r6,r6,1
 1004bb0:	10c00926 	beq	r2,r3,1004bd8 <_malloc_trim_r+0xe8>
 1004bb4:	38800017 	ldw	r2,0(r7)
 1004bb8:	98c00217 	ldw	r3,8(r19)
 1004bbc:	9009883a 	mov	r4,r18
 1004bc0:	1445c83a 	sub	r2,r2,r17
 1004bc4:	38800015 	stw	r2,0(r7)
 1004bc8:	19800115 	stw	r6,4(r3)
 1004bcc:	100ab8c0 	call	100ab8c <__malloc_unlock>
 1004bd0:	00800044 	movi	r2,1
 1004bd4:	003fe606 	br	1004b70 <_malloc_trim_r+0x80>
 1004bd8:	10078d00 	call	10078d0 <_sbrk_r>
 1004bdc:	99800217 	ldw	r6,8(r19)
 1004be0:	100f883a 	mov	r7,r2
 1004be4:	9009883a 	mov	r4,r18
 1004be8:	1187c83a 	sub	r3,r2,r6
 1004bec:	008003c4 	movi	r2,15
 1004bf0:	19400054 	ori	r5,r3,1
 1004bf4:	10ffdc0e 	bge	r2,r3,1004b68 <_malloc_trim_r+0x78>
 1004bf8:	00804074 	movhi	r2,257
 1004bfc:	10825104 	addi	r2,r2,2372
 1004c00:	10c00017 	ldw	r3,0(r2)
 1004c04:	00804074 	movhi	r2,257
 1004c08:	10892704 	addi	r2,r2,9372
 1004c0c:	31400115 	stw	r5,4(r6)
 1004c10:	38c7c83a 	sub	r3,r7,r3
 1004c14:	10c00015 	stw	r3,0(r2)
 1004c18:	003fd306 	br	1004b68 <_malloc_trim_r+0x78>

01004c1c <_free_r>:
 1004c1c:	defffd04 	addi	sp,sp,-12
 1004c20:	dc400115 	stw	r17,4(sp)
 1004c24:	dc000015 	stw	r16,0(sp)
 1004c28:	dfc00215 	stw	ra,8(sp)
 1004c2c:	2821883a 	mov	r16,r5
 1004c30:	2023883a 	mov	r17,r4
 1004c34:	28005a26 	beq	r5,zero,1004da0 <_free_r+0x184>
 1004c38:	100ab6c0 	call	100ab6c <__malloc_lock>
 1004c3c:	823ffe04 	addi	r8,r16,-8
 1004c40:	41400117 	ldw	r5,4(r8)
 1004c44:	00bfff84 	movi	r2,-2
 1004c48:	02804074 	movhi	r10,257
 1004c4c:	52bca104 	addi	r10,r10,-3452
 1004c50:	288e703a 	and	r7,r5,r2
 1004c54:	41cd883a 	add	r6,r8,r7
 1004c58:	30c00117 	ldw	r3,4(r6)
 1004c5c:	51000217 	ldw	r4,8(r10)
 1004c60:	00bfff04 	movi	r2,-4
 1004c64:	1892703a 	and	r9,r3,r2
 1004c68:	5017883a 	mov	r11,r10
 1004c6c:	31006726 	beq	r6,r4,1004e0c <_free_r+0x1f0>
 1004c70:	2880004c 	andi	r2,r5,1
 1004c74:	1005003a 	cmpeq	r2,r2,zero
 1004c78:	32400115 	stw	r9,4(r6)
 1004c7c:	10001a1e 	bne	r2,zero,1004ce8 <_free_r+0xcc>
 1004c80:	000b883a 	mov	r5,zero
 1004c84:	3247883a 	add	r3,r6,r9
 1004c88:	18800117 	ldw	r2,4(r3)
 1004c8c:	1080004c 	andi	r2,r2,1
 1004c90:	1000231e 	bne	r2,zero,1004d20 <_free_r+0x104>
 1004c94:	280ac03a 	cmpne	r5,r5,zero
 1004c98:	3a4f883a 	add	r7,r7,r9
 1004c9c:	2800451e 	bne	r5,zero,1004db4 <_free_r+0x198>
 1004ca0:	31000217 	ldw	r4,8(r6)
 1004ca4:	00804074 	movhi	r2,257
 1004ca8:	10bca304 	addi	r2,r2,-3444
 1004cac:	20807b26 	beq	r4,r2,1004e9c <_free_r+0x280>
 1004cb0:	30800317 	ldw	r2,12(r6)
 1004cb4:	3a07883a 	add	r3,r7,r8
 1004cb8:	19c00015 	stw	r7,0(r3)
 1004cbc:	11000215 	stw	r4,8(r2)
 1004cc0:	20800315 	stw	r2,12(r4)
 1004cc4:	38800054 	ori	r2,r7,1
 1004cc8:	40800115 	stw	r2,4(r8)
 1004ccc:	28001a26 	beq	r5,zero,1004d38 <_free_r+0x11c>
 1004cd0:	8809883a 	mov	r4,r17
 1004cd4:	dfc00217 	ldw	ra,8(sp)
 1004cd8:	dc400117 	ldw	r17,4(sp)
 1004cdc:	dc000017 	ldw	r16,0(sp)
 1004ce0:	dec00304 	addi	sp,sp,12
 1004ce4:	100ab8c1 	jmpi	100ab8c <__malloc_unlock>
 1004ce8:	80bffe17 	ldw	r2,-8(r16)
 1004cec:	50c00204 	addi	r3,r10,8
 1004cf0:	4091c83a 	sub	r8,r8,r2
 1004cf4:	41000217 	ldw	r4,8(r8)
 1004cf8:	388f883a 	add	r7,r7,r2
 1004cfc:	20c06126 	beq	r4,r3,1004e84 <_free_r+0x268>
 1004d00:	40800317 	ldw	r2,12(r8)
 1004d04:	3247883a 	add	r3,r6,r9
 1004d08:	000b883a 	mov	r5,zero
 1004d0c:	11000215 	stw	r4,8(r2)
 1004d10:	20800315 	stw	r2,12(r4)
 1004d14:	18800117 	ldw	r2,4(r3)
 1004d18:	1080004c 	andi	r2,r2,1
 1004d1c:	103fdd26 	beq	r2,zero,1004c94 <_free_r+0x78>
 1004d20:	38800054 	ori	r2,r7,1
 1004d24:	3a07883a 	add	r3,r7,r8
 1004d28:	280ac03a 	cmpne	r5,r5,zero
 1004d2c:	40800115 	stw	r2,4(r8)
 1004d30:	19c00015 	stw	r7,0(r3)
 1004d34:	283fe61e 	bne	r5,zero,1004cd0 <_free_r+0xb4>
 1004d38:	00807fc4 	movi	r2,511
 1004d3c:	11c01f2e 	bgeu	r2,r7,1004dbc <_free_r+0x1a0>
 1004d40:	3806d27a 	srli	r3,r7,9
 1004d44:	1800481e 	bne	r3,zero,1004e68 <_free_r+0x24c>
 1004d48:	3804d0fa 	srli	r2,r7,3
 1004d4c:	100690fa 	slli	r3,r2,3
 1004d50:	1acd883a 	add	r6,r3,r11
 1004d54:	31400217 	ldw	r5,8(r6)
 1004d58:	31405926 	beq	r6,r5,1004ec0 <_free_r+0x2a4>
 1004d5c:	28800117 	ldw	r2,4(r5)
 1004d60:	00ffff04 	movi	r3,-4
 1004d64:	10c4703a 	and	r2,r2,r3
 1004d68:	3880022e 	bgeu	r7,r2,1004d74 <_free_r+0x158>
 1004d6c:	29400217 	ldw	r5,8(r5)
 1004d70:	317ffa1e 	bne	r6,r5,1004d5c <_free_r+0x140>
 1004d74:	29800317 	ldw	r6,12(r5)
 1004d78:	41800315 	stw	r6,12(r8)
 1004d7c:	41400215 	stw	r5,8(r8)
 1004d80:	8809883a 	mov	r4,r17
 1004d84:	2a000315 	stw	r8,12(r5)
 1004d88:	32000215 	stw	r8,8(r6)
 1004d8c:	dfc00217 	ldw	ra,8(sp)
 1004d90:	dc400117 	ldw	r17,4(sp)
 1004d94:	dc000017 	ldw	r16,0(sp)
 1004d98:	dec00304 	addi	sp,sp,12
 1004d9c:	100ab8c1 	jmpi	100ab8c <__malloc_unlock>
 1004da0:	dfc00217 	ldw	ra,8(sp)
 1004da4:	dc400117 	ldw	r17,4(sp)
 1004da8:	dc000017 	ldw	r16,0(sp)
 1004dac:	dec00304 	addi	sp,sp,12
 1004db0:	f800283a 	ret
 1004db4:	31000217 	ldw	r4,8(r6)
 1004db8:	003fbd06 	br	1004cb0 <_free_r+0x94>
 1004dbc:	3806d0fa 	srli	r3,r7,3
 1004dc0:	00800044 	movi	r2,1
 1004dc4:	51400117 	ldw	r5,4(r10)
 1004dc8:	180890fa 	slli	r4,r3,3
 1004dcc:	1807d0ba 	srai	r3,r3,2
 1004dd0:	22c9883a 	add	r4,r4,r11
 1004dd4:	21800217 	ldw	r6,8(r4)
 1004dd8:	10c4983a 	sll	r2,r2,r3
 1004ddc:	41000315 	stw	r4,12(r8)
 1004de0:	41800215 	stw	r6,8(r8)
 1004de4:	288ab03a 	or	r5,r5,r2
 1004de8:	22000215 	stw	r8,8(r4)
 1004dec:	8809883a 	mov	r4,r17
 1004df0:	51400115 	stw	r5,4(r10)
 1004df4:	32000315 	stw	r8,12(r6)
 1004df8:	dfc00217 	ldw	ra,8(sp)
 1004dfc:	dc400117 	ldw	r17,4(sp)
 1004e00:	dc000017 	ldw	r16,0(sp)
 1004e04:	dec00304 	addi	sp,sp,12
 1004e08:	100ab8c1 	jmpi	100ab8c <__malloc_unlock>
 1004e0c:	2880004c 	andi	r2,r5,1
 1004e10:	3a4d883a 	add	r6,r7,r9
 1004e14:	1000071e 	bne	r2,zero,1004e34 <_free_r+0x218>
 1004e18:	80bffe17 	ldw	r2,-8(r16)
 1004e1c:	4091c83a 	sub	r8,r8,r2
 1004e20:	41000317 	ldw	r4,12(r8)
 1004e24:	40c00217 	ldw	r3,8(r8)
 1004e28:	308d883a 	add	r6,r6,r2
 1004e2c:	20c00215 	stw	r3,8(r4)
 1004e30:	19000315 	stw	r4,12(r3)
 1004e34:	00804074 	movhi	r2,257
 1004e38:	10825004 	addi	r2,r2,2368
 1004e3c:	11000017 	ldw	r4,0(r2)
 1004e40:	30c00054 	ori	r3,r6,1
 1004e44:	52000215 	stw	r8,8(r10)
 1004e48:	40c00115 	stw	r3,4(r8)
 1004e4c:	313fa036 	bltu	r6,r4,1004cd0 <_free_r+0xb4>
 1004e50:	00804074 	movhi	r2,257
 1004e54:	10891d04 	addi	r2,r2,9332
 1004e58:	11400017 	ldw	r5,0(r2)
 1004e5c:	8809883a 	mov	r4,r17
 1004e60:	1004af00 	call	1004af0 <_malloc_trim_r>
 1004e64:	003f9a06 	br	1004cd0 <_free_r+0xb4>
 1004e68:	00800104 	movi	r2,4
 1004e6c:	10c0072e 	bgeu	r2,r3,1004e8c <_free_r+0x270>
 1004e70:	00800504 	movi	r2,20
 1004e74:	10c01936 	bltu	r2,r3,1004edc <_free_r+0x2c0>
 1004e78:	188016c4 	addi	r2,r3,91
 1004e7c:	100690fa 	slli	r3,r2,3
 1004e80:	003fb306 	br	1004d50 <_free_r+0x134>
 1004e84:	01400044 	movi	r5,1
 1004e88:	003f7e06 	br	1004c84 <_free_r+0x68>
 1004e8c:	3804d1ba 	srli	r2,r7,6
 1004e90:	10800e04 	addi	r2,r2,56
 1004e94:	100690fa 	slli	r3,r2,3
 1004e98:	003fad06 	br	1004d50 <_free_r+0x134>
 1004e9c:	22000315 	stw	r8,12(r4)
 1004ea0:	22000215 	stw	r8,8(r4)
 1004ea4:	3a05883a 	add	r2,r7,r8
 1004ea8:	38c00054 	ori	r3,r7,1
 1004eac:	11c00015 	stw	r7,0(r2)
 1004eb0:	41000215 	stw	r4,8(r8)
 1004eb4:	40c00115 	stw	r3,4(r8)
 1004eb8:	41000315 	stw	r4,12(r8)
 1004ebc:	003f8406 	br	1004cd0 <_free_r+0xb4>
 1004ec0:	1005d0ba 	srai	r2,r2,2
 1004ec4:	00c00044 	movi	r3,1
 1004ec8:	51000117 	ldw	r4,4(r10)
 1004ecc:	1886983a 	sll	r3,r3,r2
 1004ed0:	20c8b03a 	or	r4,r4,r3
 1004ed4:	51000115 	stw	r4,4(r10)
 1004ed8:	003fa706 	br	1004d78 <_free_r+0x15c>
 1004edc:	00801504 	movi	r2,84
 1004ee0:	10c00436 	bltu	r2,r3,1004ef4 <_free_r+0x2d8>
 1004ee4:	3804d33a 	srli	r2,r7,12
 1004ee8:	10801b84 	addi	r2,r2,110
 1004eec:	100690fa 	slli	r3,r2,3
 1004ef0:	003f9706 	br	1004d50 <_free_r+0x134>
 1004ef4:	00805504 	movi	r2,340
 1004ef8:	10c00436 	bltu	r2,r3,1004f0c <_free_r+0x2f0>
 1004efc:	3804d3fa 	srli	r2,r7,15
 1004f00:	10801dc4 	addi	r2,r2,119
 1004f04:	100690fa 	slli	r3,r2,3
 1004f08:	003f9106 	br	1004d50 <_free_r+0x134>
 1004f0c:	00815504 	movi	r2,1364
 1004f10:	10c0032e 	bgeu	r2,r3,1004f20 <_free_r+0x304>
 1004f14:	00801f84 	movi	r2,126
 1004f18:	00c0fc04 	movi	r3,1008
 1004f1c:	003f8c06 	br	1004d50 <_free_r+0x134>
 1004f20:	3804d4ba 	srli	r2,r7,18
 1004f24:	10801f04 	addi	r2,r2,124
 1004f28:	100690fa 	slli	r3,r2,3
 1004f2c:	003f8806 	br	1004d50 <_free_r+0x134>

01004f30 <__sfvwrite_r>:
 1004f30:	30800217 	ldw	r2,8(r6)
 1004f34:	defff504 	addi	sp,sp,-44
 1004f38:	df000915 	stw	fp,36(sp)
 1004f3c:	dd800715 	stw	r22,28(sp)
 1004f40:	dc800315 	stw	r18,12(sp)
 1004f44:	dfc00a15 	stw	ra,40(sp)
 1004f48:	ddc00815 	stw	r23,32(sp)
 1004f4c:	dd400615 	stw	r21,24(sp)
 1004f50:	dd000515 	stw	r20,20(sp)
 1004f54:	dcc00415 	stw	r19,16(sp)
 1004f58:	dc400215 	stw	r17,8(sp)
 1004f5c:	dc000115 	stw	r16,4(sp)
 1004f60:	302d883a 	mov	r22,r6
 1004f64:	2039883a 	mov	fp,r4
 1004f68:	2825883a 	mov	r18,r5
 1004f6c:	10001c26 	beq	r2,zero,1004fe0 <__sfvwrite_r+0xb0>
 1004f70:	29c0030b 	ldhu	r7,12(r5)
 1004f74:	3880020c 	andi	r2,r7,8
 1004f78:	10002726 	beq	r2,zero,1005018 <__sfvwrite_r+0xe8>
 1004f7c:	28800417 	ldw	r2,16(r5)
 1004f80:	10002526 	beq	r2,zero,1005018 <__sfvwrite_r+0xe8>
 1004f84:	3880008c 	andi	r2,r7,2
 1004f88:	b5400017 	ldw	r21,0(r22)
 1004f8c:	10002826 	beq	r2,zero,1005030 <__sfvwrite_r+0x100>
 1004f90:	0021883a 	mov	r16,zero
 1004f94:	0023883a 	mov	r17,zero
 1004f98:	880d883a 	mov	r6,r17
 1004f9c:	e009883a 	mov	r4,fp
 1004fa0:	00810004 	movi	r2,1024
 1004fa4:	80006e26 	beq	r16,zero,1005160 <__sfvwrite_r+0x230>
 1004fa8:	800f883a 	mov	r7,r16
 1004fac:	91400717 	ldw	r5,28(r18)
 1004fb0:	1400012e 	bgeu	r2,r16,1004fb8 <__sfvwrite_r+0x88>
 1004fb4:	100f883a 	mov	r7,r2
 1004fb8:	90c00917 	ldw	r3,36(r18)
 1004fbc:	183ee83a 	callr	r3
 1004fc0:	1007883a 	mov	r3,r2
 1004fc4:	80a1c83a 	sub	r16,r16,r2
 1004fc8:	88a3883a 	add	r17,r17,r2
 1004fcc:	00806d0e 	bge	zero,r2,1005184 <__sfvwrite_r+0x254>
 1004fd0:	b0800217 	ldw	r2,8(r22)
 1004fd4:	10c5c83a 	sub	r2,r2,r3
 1004fd8:	b0800215 	stw	r2,8(r22)
 1004fdc:	103fee1e 	bne	r2,zero,1004f98 <__sfvwrite_r+0x68>
 1004fe0:	0009883a 	mov	r4,zero
 1004fe4:	2005883a 	mov	r2,r4
 1004fe8:	dfc00a17 	ldw	ra,40(sp)
 1004fec:	df000917 	ldw	fp,36(sp)
 1004ff0:	ddc00817 	ldw	r23,32(sp)
 1004ff4:	dd800717 	ldw	r22,28(sp)
 1004ff8:	dd400617 	ldw	r21,24(sp)
 1004ffc:	dd000517 	ldw	r20,20(sp)
 1005000:	dcc00417 	ldw	r19,16(sp)
 1005004:	dc800317 	ldw	r18,12(sp)
 1005008:	dc400217 	ldw	r17,8(sp)
 100500c:	dc000117 	ldw	r16,4(sp)
 1005010:	dec00b04 	addi	sp,sp,44
 1005014:	f800283a 	ret
 1005018:	1002c980 	call	1002c98 <__swsetup_r>
 100501c:	1000e41e 	bne	r2,zero,10053b0 <__sfvwrite_r+0x480>
 1005020:	91c0030b 	ldhu	r7,12(r18)
 1005024:	b5400017 	ldw	r21,0(r22)
 1005028:	3880008c 	andi	r2,r7,2
 100502c:	103fd81e 	bne	r2,zero,1004f90 <__sfvwrite_r+0x60>
 1005030:	3880004c 	andi	r2,r7,1
 1005034:	1005003a 	cmpeq	r2,r2,zero
 1005038:	10005726 	beq	r2,zero,1005198 <__sfvwrite_r+0x268>
 100503c:	0029883a 	mov	r20,zero
 1005040:	002f883a 	mov	r23,zero
 1005044:	a0004226 	beq	r20,zero,1005150 <__sfvwrite_r+0x220>
 1005048:	3880800c 	andi	r2,r7,512
 100504c:	94000217 	ldw	r16,8(r18)
 1005050:	10008b26 	beq	r2,zero,1005280 <__sfvwrite_r+0x350>
 1005054:	800d883a 	mov	r6,r16
 1005058:	a400a536 	bltu	r20,r16,10052f0 <__sfvwrite_r+0x3c0>
 100505c:	3881200c 	andi	r2,r7,1152
 1005060:	10002726 	beq	r2,zero,1005100 <__sfvwrite_r+0x1d0>
 1005064:	90800517 	ldw	r2,20(r18)
 1005068:	92000417 	ldw	r8,16(r18)
 100506c:	91400017 	ldw	r5,0(r18)
 1005070:	1087883a 	add	r3,r2,r2
 1005074:	1887883a 	add	r3,r3,r2
 1005078:	1808d7fa 	srli	r4,r3,31
 100507c:	2a21c83a 	sub	r16,r5,r8
 1005080:	80800044 	addi	r2,r16,1
 1005084:	20c9883a 	add	r4,r4,r3
 1005088:	2027d07a 	srai	r19,r4,1
 100508c:	a085883a 	add	r2,r20,r2
 1005090:	980d883a 	mov	r6,r19
 1005094:	9880022e 	bgeu	r19,r2,10050a0 <__sfvwrite_r+0x170>
 1005098:	1027883a 	mov	r19,r2
 100509c:	100d883a 	mov	r6,r2
 10050a0:	3881000c 	andi	r2,r7,1024
 10050a4:	1000b826 	beq	r2,zero,1005388 <__sfvwrite_r+0x458>
 10050a8:	300b883a 	mov	r5,r6
 10050ac:	e009883a 	mov	r4,fp
 10050b0:	10057a40 	call	10057a4 <_malloc_r>
 10050b4:	10003126 	beq	r2,zero,100517c <__sfvwrite_r+0x24c>
 10050b8:	91400417 	ldw	r5,16(r18)
 10050bc:	1009883a 	mov	r4,r2
 10050c0:	800d883a 	mov	r6,r16
 10050c4:	1023883a 	mov	r17,r2
 10050c8:	1005fc80 	call	1005fc8 <memcpy>
 10050cc:	90c0030b 	ldhu	r3,12(r18)
 10050d0:	00beffc4 	movi	r2,-1025
 10050d4:	1886703a 	and	r3,r3,r2
 10050d8:	18c02014 	ori	r3,r3,128
 10050dc:	90c0030d 	sth	r3,12(r18)
 10050e0:	9c07c83a 	sub	r3,r19,r16
 10050e4:	8c05883a 	add	r2,r17,r16
 10050e8:	a00d883a 	mov	r6,r20
 10050ec:	a021883a 	mov	r16,r20
 10050f0:	90800015 	stw	r2,0(r18)
 10050f4:	90c00215 	stw	r3,8(r18)
 10050f8:	94400415 	stw	r17,16(r18)
 10050fc:	94c00515 	stw	r19,20(r18)
 1005100:	91000017 	ldw	r4,0(r18)
 1005104:	b80b883a 	mov	r5,r23
 1005108:	a023883a 	mov	r17,r20
 100510c:	10060680 	call	1006068 <memmove>
 1005110:	90c00217 	ldw	r3,8(r18)
 1005114:	90800017 	ldw	r2,0(r18)
 1005118:	a027883a 	mov	r19,r20
 100511c:	1c07c83a 	sub	r3,r3,r16
 1005120:	1405883a 	add	r2,r2,r16
 1005124:	90c00215 	stw	r3,8(r18)
 1005128:	a021883a 	mov	r16,r20
 100512c:	90800015 	stw	r2,0(r18)
 1005130:	b0800217 	ldw	r2,8(r22)
 1005134:	1405c83a 	sub	r2,r2,r16
 1005138:	b0800215 	stw	r2,8(r22)
 100513c:	103fa826 	beq	r2,zero,1004fe0 <__sfvwrite_r+0xb0>
 1005140:	a469c83a 	sub	r20,r20,r17
 1005144:	91c0030b 	ldhu	r7,12(r18)
 1005148:	bcef883a 	add	r23,r23,r19
 100514c:	a03fbe1e 	bne	r20,zero,1005048 <__sfvwrite_r+0x118>
 1005150:	adc00017 	ldw	r23,0(r21)
 1005154:	ad000117 	ldw	r20,4(r21)
 1005158:	ad400204 	addi	r21,r21,8
 100515c:	003fb906 	br	1005044 <__sfvwrite_r+0x114>
 1005160:	ac400017 	ldw	r17,0(r21)
 1005164:	ac000117 	ldw	r16,4(r21)
 1005168:	ad400204 	addi	r21,r21,8
 100516c:	003f8a06 	br	1004f98 <__sfvwrite_r+0x68>
 1005170:	91400417 	ldw	r5,16(r18)
 1005174:	e009883a 	mov	r4,fp
 1005178:	1004c1c0 	call	1004c1c <_free_r>
 100517c:	00800304 	movi	r2,12
 1005180:	e0800015 	stw	r2,0(fp)
 1005184:	9080030b 	ldhu	r2,12(r18)
 1005188:	013fffc4 	movi	r4,-1
 100518c:	10801014 	ori	r2,r2,64
 1005190:	9080030d 	sth	r2,12(r18)
 1005194:	003f9306 	br	1004fe4 <__sfvwrite_r+0xb4>
 1005198:	0027883a 	mov	r19,zero
 100519c:	002f883a 	mov	r23,zero
 10051a0:	d8000015 	stw	zero,0(sp)
 10051a4:	0029883a 	mov	r20,zero
 10051a8:	98001e26 	beq	r19,zero,1005224 <__sfvwrite_r+0x2f4>
 10051ac:	d8c00017 	ldw	r3,0(sp)
 10051b0:	1804c03a 	cmpne	r2,r3,zero
 10051b4:	10005e26 	beq	r2,zero,1005330 <__sfvwrite_r+0x400>
 10051b8:	9821883a 	mov	r16,r19
 10051bc:	a4c0012e 	bgeu	r20,r19,10051c4 <__sfvwrite_r+0x294>
 10051c0:	a021883a 	mov	r16,r20
 10051c4:	91000017 	ldw	r4,0(r18)
 10051c8:	90800417 	ldw	r2,16(r18)
 10051cc:	91800217 	ldw	r6,8(r18)
 10051d0:	91c00517 	ldw	r7,20(r18)
 10051d4:	1100022e 	bgeu	r2,r4,10051e0 <__sfvwrite_r+0x2b0>
 10051d8:	31e3883a 	add	r17,r6,r7
 10051dc:	8c001616 	blt	r17,r16,1005238 <__sfvwrite_r+0x308>
 10051e0:	81c03816 	blt	r16,r7,10052c4 <__sfvwrite_r+0x394>
 10051e4:	90c00917 	ldw	r3,36(r18)
 10051e8:	91400717 	ldw	r5,28(r18)
 10051ec:	e009883a 	mov	r4,fp
 10051f0:	b80d883a 	mov	r6,r23
 10051f4:	183ee83a 	callr	r3
 10051f8:	1023883a 	mov	r17,r2
 10051fc:	00bfe10e 	bge	zero,r2,1005184 <__sfvwrite_r+0x254>
 1005200:	a469c83a 	sub	r20,r20,r17
 1005204:	a0001826 	beq	r20,zero,1005268 <__sfvwrite_r+0x338>
 1005208:	b0800217 	ldw	r2,8(r22)
 100520c:	1445c83a 	sub	r2,r2,r17
 1005210:	b0800215 	stw	r2,8(r22)
 1005214:	103f7226 	beq	r2,zero,1004fe0 <__sfvwrite_r+0xb0>
 1005218:	9c67c83a 	sub	r19,r19,r17
 100521c:	bc6f883a 	add	r23,r23,r17
 1005220:	983fe21e 	bne	r19,zero,10051ac <__sfvwrite_r+0x27c>
 1005224:	adc00017 	ldw	r23,0(r21)
 1005228:	acc00117 	ldw	r19,4(r21)
 100522c:	ad400204 	addi	r21,r21,8
 1005230:	d8000015 	stw	zero,0(sp)
 1005234:	003fdc06 	br	10051a8 <__sfvwrite_r+0x278>
 1005238:	b80b883a 	mov	r5,r23
 100523c:	880d883a 	mov	r6,r17
 1005240:	10060680 	call	1006068 <memmove>
 1005244:	90c00017 	ldw	r3,0(r18)
 1005248:	e009883a 	mov	r4,fp
 100524c:	900b883a 	mov	r5,r18
 1005250:	1c47883a 	add	r3,r3,r17
 1005254:	90c00015 	stw	r3,0(r18)
 1005258:	10045cc0 	call	10045cc <_fflush_r>
 100525c:	103fc91e 	bne	r2,zero,1005184 <__sfvwrite_r+0x254>
 1005260:	a469c83a 	sub	r20,r20,r17
 1005264:	a03fe81e 	bne	r20,zero,1005208 <__sfvwrite_r+0x2d8>
 1005268:	e009883a 	mov	r4,fp
 100526c:	900b883a 	mov	r5,r18
 1005270:	10045cc0 	call	10045cc <_fflush_r>
 1005274:	103fc31e 	bne	r2,zero,1005184 <__sfvwrite_r+0x254>
 1005278:	d8000015 	stw	zero,0(sp)
 100527c:	003fe206 	br	1005208 <__sfvwrite_r+0x2d8>
 1005280:	91000017 	ldw	r4,0(r18)
 1005284:	90800417 	ldw	r2,16(r18)
 1005288:	1100022e 	bgeu	r2,r4,1005294 <__sfvwrite_r+0x364>
 100528c:	8023883a 	mov	r17,r16
 1005290:	85003136 	bltu	r16,r20,1005358 <__sfvwrite_r+0x428>
 1005294:	91c00517 	ldw	r7,20(r18)
 1005298:	a1c01836 	bltu	r20,r7,10052fc <__sfvwrite_r+0x3cc>
 100529c:	90c00917 	ldw	r3,36(r18)
 10052a0:	91400717 	ldw	r5,28(r18)
 10052a4:	e009883a 	mov	r4,fp
 10052a8:	b80d883a 	mov	r6,r23
 10052ac:	183ee83a 	callr	r3
 10052b0:	1021883a 	mov	r16,r2
 10052b4:	00bfb30e 	bge	zero,r2,1005184 <__sfvwrite_r+0x254>
 10052b8:	1023883a 	mov	r17,r2
 10052bc:	1027883a 	mov	r19,r2
 10052c0:	003f9b06 	br	1005130 <__sfvwrite_r+0x200>
 10052c4:	b80b883a 	mov	r5,r23
 10052c8:	800d883a 	mov	r6,r16
 10052cc:	10060680 	call	1006068 <memmove>
 10052d0:	90c00217 	ldw	r3,8(r18)
 10052d4:	90800017 	ldw	r2,0(r18)
 10052d8:	8023883a 	mov	r17,r16
 10052dc:	1c07c83a 	sub	r3,r3,r16
 10052e0:	1405883a 	add	r2,r2,r16
 10052e4:	90c00215 	stw	r3,8(r18)
 10052e8:	90800015 	stw	r2,0(r18)
 10052ec:	003fc406 	br	1005200 <__sfvwrite_r+0x2d0>
 10052f0:	a00d883a 	mov	r6,r20
 10052f4:	a021883a 	mov	r16,r20
 10052f8:	003f8106 	br	1005100 <__sfvwrite_r+0x1d0>
 10052fc:	b80b883a 	mov	r5,r23
 1005300:	a00d883a 	mov	r6,r20
 1005304:	10060680 	call	1006068 <memmove>
 1005308:	90c00217 	ldw	r3,8(r18)
 100530c:	90800017 	ldw	r2,0(r18)
 1005310:	a021883a 	mov	r16,r20
 1005314:	1d07c83a 	sub	r3,r3,r20
 1005318:	1505883a 	add	r2,r2,r20
 100531c:	a023883a 	mov	r17,r20
 1005320:	a027883a 	mov	r19,r20
 1005324:	90c00215 	stw	r3,8(r18)
 1005328:	90800015 	stw	r2,0(r18)
 100532c:	003f8006 	br	1005130 <__sfvwrite_r+0x200>
 1005330:	b809883a 	mov	r4,r23
 1005334:	01400284 	movi	r5,10
 1005338:	980d883a 	mov	r6,r19
 100533c:	1005ee40 	call	1005ee4 <memchr>
 1005340:	10001726 	beq	r2,zero,10053a0 <__sfvwrite_r+0x470>
 1005344:	15c5c83a 	sub	r2,r2,r23
 1005348:	15000044 	addi	r20,r2,1
 100534c:	00800044 	movi	r2,1
 1005350:	d8800015 	stw	r2,0(sp)
 1005354:	003f9806 	br	10051b8 <__sfvwrite_r+0x288>
 1005358:	b80b883a 	mov	r5,r23
 100535c:	800d883a 	mov	r6,r16
 1005360:	10060680 	call	1006068 <memmove>
 1005364:	90c00017 	ldw	r3,0(r18)
 1005368:	e009883a 	mov	r4,fp
 100536c:	900b883a 	mov	r5,r18
 1005370:	1c07883a 	add	r3,r3,r16
 1005374:	90c00015 	stw	r3,0(r18)
 1005378:	8027883a 	mov	r19,r16
 100537c:	10045cc0 	call	10045cc <_fflush_r>
 1005380:	103f6b26 	beq	r2,zero,1005130 <__sfvwrite_r+0x200>
 1005384:	003f7f06 	br	1005184 <__sfvwrite_r+0x254>
 1005388:	400b883a 	mov	r5,r8
 100538c:	e009883a 	mov	r4,fp
 1005390:	100726c0 	call	100726c <_realloc_r>
 1005394:	103f7626 	beq	r2,zero,1005170 <__sfvwrite_r+0x240>
 1005398:	1023883a 	mov	r17,r2
 100539c:	003f5006 	br	10050e0 <__sfvwrite_r+0x1b0>
 10053a0:	00c00044 	movi	r3,1
 10053a4:	9d000044 	addi	r20,r19,1
 10053a8:	d8c00015 	stw	r3,0(sp)
 10053ac:	003f8206 	br	10051b8 <__sfvwrite_r+0x288>
 10053b0:	9080030b 	ldhu	r2,12(r18)
 10053b4:	00c00244 	movi	r3,9
 10053b8:	013fffc4 	movi	r4,-1
 10053bc:	10801014 	ori	r2,r2,64
 10053c0:	9080030d 	sth	r2,12(r18)
 10053c4:	e0c00015 	stw	r3,0(fp)
 10053c8:	003f0606 	br	1004fe4 <__sfvwrite_r+0xb4>

010053cc <_fwalk_reent>:
 10053cc:	defff704 	addi	sp,sp,-36
 10053d0:	dcc00315 	stw	r19,12(sp)
 10053d4:	24c0b804 	addi	r19,r4,736
 10053d8:	dd800615 	stw	r22,24(sp)
 10053dc:	dd400515 	stw	r21,20(sp)
 10053e0:	dfc00815 	stw	ra,32(sp)
 10053e4:	ddc00715 	stw	r23,28(sp)
 10053e8:	dd000415 	stw	r20,16(sp)
 10053ec:	dc800215 	stw	r18,8(sp)
 10053f0:	dc400115 	stw	r17,4(sp)
 10053f4:	dc000015 	stw	r16,0(sp)
 10053f8:	202b883a 	mov	r21,r4
 10053fc:	282d883a 	mov	r22,r5
 1005400:	10048540 	call	1004854 <__sfp_lock_acquire>
 1005404:	98002126 	beq	r19,zero,100548c <_fwalk_reent+0xc0>
 1005408:	002f883a 	mov	r23,zero
 100540c:	9c800117 	ldw	r18,4(r19)
 1005410:	9c000217 	ldw	r16,8(r19)
 1005414:	90bfffc4 	addi	r2,r18,-1
 1005418:	10000d16 	blt	r2,zero,1005450 <_fwalk_reent+0x84>
 100541c:	0023883a 	mov	r17,zero
 1005420:	053fffc4 	movi	r20,-1
 1005424:	8080030f 	ldh	r2,12(r16)
 1005428:	8c400044 	addi	r17,r17,1
 100542c:	10000626 	beq	r2,zero,1005448 <_fwalk_reent+0x7c>
 1005430:	8080038f 	ldh	r2,14(r16)
 1005434:	800b883a 	mov	r5,r16
 1005438:	a809883a 	mov	r4,r21
 100543c:	15000226 	beq	r2,r20,1005448 <_fwalk_reent+0x7c>
 1005440:	b03ee83a 	callr	r22
 1005444:	b8aeb03a 	or	r23,r23,r2
 1005448:	84001704 	addi	r16,r16,92
 100544c:	947ff51e 	bne	r18,r17,1005424 <_fwalk_reent+0x58>
 1005450:	9cc00017 	ldw	r19,0(r19)
 1005454:	983fed1e 	bne	r19,zero,100540c <_fwalk_reent+0x40>
 1005458:	10048580 	call	1004858 <__sfp_lock_release>
 100545c:	b805883a 	mov	r2,r23
 1005460:	dfc00817 	ldw	ra,32(sp)
 1005464:	ddc00717 	ldw	r23,28(sp)
 1005468:	dd800617 	ldw	r22,24(sp)
 100546c:	dd400517 	ldw	r21,20(sp)
 1005470:	dd000417 	ldw	r20,16(sp)
 1005474:	dcc00317 	ldw	r19,12(sp)
 1005478:	dc800217 	ldw	r18,8(sp)
 100547c:	dc400117 	ldw	r17,4(sp)
 1005480:	dc000017 	ldw	r16,0(sp)
 1005484:	dec00904 	addi	sp,sp,36
 1005488:	f800283a 	ret
 100548c:	002f883a 	mov	r23,zero
 1005490:	003ff106 	br	1005458 <_fwalk_reent+0x8c>

01005494 <_fwalk>:
 1005494:	defff804 	addi	sp,sp,-32
 1005498:	dcc00315 	stw	r19,12(sp)
 100549c:	24c0b804 	addi	r19,r4,736
 10054a0:	dd400515 	stw	r21,20(sp)
 10054a4:	dfc00715 	stw	ra,28(sp)
 10054a8:	dd800615 	stw	r22,24(sp)
 10054ac:	dd000415 	stw	r20,16(sp)
 10054b0:	dc800215 	stw	r18,8(sp)
 10054b4:	dc400115 	stw	r17,4(sp)
 10054b8:	dc000015 	stw	r16,0(sp)
 10054bc:	282b883a 	mov	r21,r5
 10054c0:	10048540 	call	1004854 <__sfp_lock_acquire>
 10054c4:	98001f26 	beq	r19,zero,1005544 <_fwalk+0xb0>
 10054c8:	002d883a 	mov	r22,zero
 10054cc:	9c800117 	ldw	r18,4(r19)
 10054d0:	9c000217 	ldw	r16,8(r19)
 10054d4:	90bfffc4 	addi	r2,r18,-1
 10054d8:	10000c16 	blt	r2,zero,100550c <_fwalk+0x78>
 10054dc:	0023883a 	mov	r17,zero
 10054e0:	053fffc4 	movi	r20,-1
 10054e4:	8080030f 	ldh	r2,12(r16)
 10054e8:	8c400044 	addi	r17,r17,1
 10054ec:	10000526 	beq	r2,zero,1005504 <_fwalk+0x70>
 10054f0:	8080038f 	ldh	r2,14(r16)
 10054f4:	8009883a 	mov	r4,r16
 10054f8:	15000226 	beq	r2,r20,1005504 <_fwalk+0x70>
 10054fc:	a83ee83a 	callr	r21
 1005500:	b0acb03a 	or	r22,r22,r2
 1005504:	84001704 	addi	r16,r16,92
 1005508:	947ff61e 	bne	r18,r17,10054e4 <_fwalk+0x50>
 100550c:	9cc00017 	ldw	r19,0(r19)
 1005510:	983fee1e 	bne	r19,zero,10054cc <_fwalk+0x38>
 1005514:	10048580 	call	1004858 <__sfp_lock_release>
 1005518:	b005883a 	mov	r2,r22
 100551c:	dfc00717 	ldw	ra,28(sp)
 1005520:	dd800617 	ldw	r22,24(sp)
 1005524:	dd400517 	ldw	r21,20(sp)
 1005528:	dd000417 	ldw	r20,16(sp)
 100552c:	dcc00317 	ldw	r19,12(sp)
 1005530:	dc800217 	ldw	r18,8(sp)
 1005534:	dc400117 	ldw	r17,4(sp)
 1005538:	dc000017 	ldw	r16,0(sp)
 100553c:	dec00804 	addi	sp,sp,32
 1005540:	f800283a 	ret
 1005544:	002d883a 	mov	r22,zero
 1005548:	003ff206 	br	1005514 <_fwalk+0x80>

0100554c <__locale_charset>:
 100554c:	d0a00317 	ldw	r2,-32756(gp)
 1005550:	f800283a 	ret

01005554 <_localeconv_r>:
 1005554:	00804074 	movhi	r2,257
 1005558:	10badc04 	addi	r2,r2,-5264
 100555c:	f800283a 	ret

01005560 <localeconv>:
 1005560:	00804074 	movhi	r2,257
 1005564:	10824c04 	addi	r2,r2,2352
 1005568:	11000017 	ldw	r4,0(r2)
 100556c:	10055541 	jmpi	1005554 <_localeconv_r>

01005570 <_setlocale_r>:
 1005570:	defffc04 	addi	sp,sp,-16
 1005574:	00c04074 	movhi	r3,257
 1005578:	18fad704 	addi	r3,r3,-5284
 100557c:	dc800215 	stw	r18,8(sp)
 1005580:	dc400115 	stw	r17,4(sp)
 1005584:	dc000015 	stw	r16,0(sp)
 1005588:	2023883a 	mov	r17,r4
 100558c:	2825883a 	mov	r18,r5
 1005590:	dfc00315 	stw	ra,12(sp)
 1005594:	3021883a 	mov	r16,r6
 1005598:	3009883a 	mov	r4,r6
 100559c:	180b883a 	mov	r5,r3
 10055a0:	30000926 	beq	r6,zero,10055c8 <_setlocale_r+0x58>
 10055a4:	1007a8c0 	call	1007a8c <strcmp>
 10055a8:	8009883a 	mov	r4,r16
 10055ac:	01404074 	movhi	r5,257
 10055b0:	297ac204 	addi	r5,r5,-5368
 10055b4:	10000b1e 	bne	r2,zero,10055e4 <_setlocale_r+0x74>
 10055b8:	8c000d15 	stw	r16,52(r17)
 10055bc:	8c800c15 	stw	r18,48(r17)
 10055c0:	00c04074 	movhi	r3,257
 10055c4:	18fad704 	addi	r3,r3,-5284
 10055c8:	1805883a 	mov	r2,r3
 10055cc:	dfc00317 	ldw	ra,12(sp)
 10055d0:	dc800217 	ldw	r18,8(sp)
 10055d4:	dc400117 	ldw	r17,4(sp)
 10055d8:	dc000017 	ldw	r16,0(sp)
 10055dc:	dec00404 	addi	sp,sp,16
 10055e0:	f800283a 	ret
 10055e4:	1007a8c0 	call	1007a8c <strcmp>
 10055e8:	0007883a 	mov	r3,zero
 10055ec:	103ff226 	beq	r2,zero,10055b8 <_setlocale_r+0x48>
 10055f0:	003ff506 	br	10055c8 <_setlocale_r+0x58>

010055f4 <setlocale>:
 10055f4:	01804074 	movhi	r6,257
 10055f8:	31824c04 	addi	r6,r6,2352
 10055fc:	2007883a 	mov	r3,r4
 1005600:	31000017 	ldw	r4,0(r6)
 1005604:	280d883a 	mov	r6,r5
 1005608:	180b883a 	mov	r5,r3
 100560c:	10055701 	jmpi	1005570 <_setlocale_r>

01005610 <__smakebuf_r>:
 1005610:	2880030b 	ldhu	r2,12(r5)
 1005614:	deffed04 	addi	sp,sp,-76
 1005618:	dc401015 	stw	r17,64(sp)
 100561c:	1080008c 	andi	r2,r2,2
 1005620:	dc000f15 	stw	r16,60(sp)
 1005624:	dfc01215 	stw	ra,72(sp)
 1005628:	dc801115 	stw	r18,68(sp)
 100562c:	2821883a 	mov	r16,r5
 1005630:	2023883a 	mov	r17,r4
 1005634:	10000b26 	beq	r2,zero,1005664 <__smakebuf_r+0x54>
 1005638:	28c010c4 	addi	r3,r5,67
 100563c:	00800044 	movi	r2,1
 1005640:	28800515 	stw	r2,20(r5)
 1005644:	28c00415 	stw	r3,16(r5)
 1005648:	28c00015 	stw	r3,0(r5)
 100564c:	dfc01217 	ldw	ra,72(sp)
 1005650:	dc801117 	ldw	r18,68(sp)
 1005654:	dc401017 	ldw	r17,64(sp)
 1005658:	dc000f17 	ldw	r16,60(sp)
 100565c:	dec01304 	addi	sp,sp,76
 1005660:	f800283a 	ret
 1005664:	2940038f 	ldh	r5,14(r5)
 1005668:	28002116 	blt	r5,zero,10056f0 <__smakebuf_r+0xe0>
 100566c:	d80d883a 	mov	r6,sp
 1005670:	1007e1c0 	call	1007e1c <_fstat_r>
 1005674:	10001e16 	blt	r2,zero,10056f0 <__smakebuf_r+0xe0>
 1005678:	d8800117 	ldw	r2,4(sp)
 100567c:	00e00014 	movui	r3,32768
 1005680:	113c000c 	andi	r4,r2,61440
 1005684:	20c03126 	beq	r4,r3,100574c <__smakebuf_r+0x13c>
 1005688:	8080030b 	ldhu	r2,12(r16)
 100568c:	00c80004 	movi	r3,8192
 1005690:	10820014 	ori	r2,r2,2048
 1005694:	8080030d 	sth	r2,12(r16)
 1005698:	20c01e26 	beq	r4,r3,1005714 <__smakebuf_r+0x104>
 100569c:	04810004 	movi	r18,1024
 10056a0:	8809883a 	mov	r4,r17
 10056a4:	900b883a 	mov	r5,r18
 10056a8:	10057a40 	call	10057a4 <_malloc_r>
 10056ac:	1009883a 	mov	r4,r2
 10056b0:	10003126 	beq	r2,zero,1005778 <__smakebuf_r+0x168>
 10056b4:	80c0030b 	ldhu	r3,12(r16)
 10056b8:	00804034 	movhi	r2,256
 10056bc:	10925204 	addi	r2,r2,18760
 10056c0:	88800f15 	stw	r2,60(r17)
 10056c4:	18c02014 	ori	r3,r3,128
 10056c8:	84800515 	stw	r18,20(r16)
 10056cc:	80c0030d 	sth	r3,12(r16)
 10056d0:	81000415 	stw	r4,16(r16)
 10056d4:	81000015 	stw	r4,0(r16)
 10056d8:	dfc01217 	ldw	ra,72(sp)
 10056dc:	dc801117 	ldw	r18,68(sp)
 10056e0:	dc401017 	ldw	r17,64(sp)
 10056e4:	dc000f17 	ldw	r16,60(sp)
 10056e8:	dec01304 	addi	sp,sp,76
 10056ec:	f800283a 	ret
 10056f0:	80c0030b 	ldhu	r3,12(r16)
 10056f4:	1880200c 	andi	r2,r3,128
 10056f8:	10000426 	beq	r2,zero,100570c <__smakebuf_r+0xfc>
 10056fc:	04801004 	movi	r18,64
 1005700:	18820014 	ori	r2,r3,2048
 1005704:	8080030d 	sth	r2,12(r16)
 1005708:	003fe506 	br	10056a0 <__smakebuf_r+0x90>
 100570c:	04810004 	movi	r18,1024
 1005710:	003ffb06 	br	1005700 <__smakebuf_r+0xf0>
 1005714:	8140038f 	ldh	r5,14(r16)
 1005718:	8809883a 	mov	r4,r17
 100571c:	1007e900 	call	1007e90 <_isatty_r>
 1005720:	103fde26 	beq	r2,zero,100569c <__smakebuf_r+0x8c>
 1005724:	8080030b 	ldhu	r2,12(r16)
 1005728:	80c010c4 	addi	r3,r16,67
 100572c:	04810004 	movi	r18,1024
 1005730:	10800054 	ori	r2,r2,1
 1005734:	8080030d 	sth	r2,12(r16)
 1005738:	00800044 	movi	r2,1
 100573c:	80c00415 	stw	r3,16(r16)
 1005740:	80800515 	stw	r2,20(r16)
 1005744:	80c00015 	stw	r3,0(r16)
 1005748:	003fd506 	br	10056a0 <__smakebuf_r+0x90>
 100574c:	80c00a17 	ldw	r3,40(r16)
 1005750:	00804034 	movhi	r2,256
 1005754:	109e5204 	addi	r2,r2,31048
 1005758:	18bfcb1e 	bne	r3,r2,1005688 <__smakebuf_r+0x78>
 100575c:	8080030b 	ldhu	r2,12(r16)
 1005760:	00c10004 	movi	r3,1024
 1005764:	1825883a 	mov	r18,r3
 1005768:	10c4b03a 	or	r2,r2,r3
 100576c:	8080030d 	sth	r2,12(r16)
 1005770:	80c01315 	stw	r3,76(r16)
 1005774:	003fca06 	br	10056a0 <__smakebuf_r+0x90>
 1005778:	8100030b 	ldhu	r4,12(r16)
 100577c:	2080800c 	andi	r2,r4,512
 1005780:	103fb21e 	bne	r2,zero,100564c <__smakebuf_r+0x3c>
 1005784:	80c010c4 	addi	r3,r16,67
 1005788:	21000094 	ori	r4,r4,2
 100578c:	00800044 	movi	r2,1
 1005790:	80800515 	stw	r2,20(r16)
 1005794:	8100030d 	sth	r4,12(r16)
 1005798:	80c00415 	stw	r3,16(r16)
 100579c:	80c00015 	stw	r3,0(r16)
 10057a0:	003faa06 	br	100564c <__smakebuf_r+0x3c>

010057a4 <_malloc_r>:
 10057a4:	defff604 	addi	sp,sp,-40
 10057a8:	28c002c4 	addi	r3,r5,11
 10057ac:	00800584 	movi	r2,22
 10057b0:	dc800215 	stw	r18,8(sp)
 10057b4:	dfc00915 	stw	ra,36(sp)
 10057b8:	df000815 	stw	fp,32(sp)
 10057bc:	ddc00715 	stw	r23,28(sp)
 10057c0:	dd800615 	stw	r22,24(sp)
 10057c4:	dd400515 	stw	r21,20(sp)
 10057c8:	dd000415 	stw	r20,16(sp)
 10057cc:	dcc00315 	stw	r19,12(sp)
 10057d0:	dc400115 	stw	r17,4(sp)
 10057d4:	dc000015 	stw	r16,0(sp)
 10057d8:	2025883a 	mov	r18,r4
 10057dc:	10c01236 	bltu	r2,r3,1005828 <_malloc_r+0x84>
 10057e0:	04400404 	movi	r17,16
 10057e4:	8940142e 	bgeu	r17,r5,1005838 <_malloc_r+0x94>
 10057e8:	00800304 	movi	r2,12
 10057ec:	0007883a 	mov	r3,zero
 10057f0:	90800015 	stw	r2,0(r18)
 10057f4:	1805883a 	mov	r2,r3
 10057f8:	dfc00917 	ldw	ra,36(sp)
 10057fc:	df000817 	ldw	fp,32(sp)
 1005800:	ddc00717 	ldw	r23,28(sp)
 1005804:	dd800617 	ldw	r22,24(sp)
 1005808:	dd400517 	ldw	r21,20(sp)
 100580c:	dd000417 	ldw	r20,16(sp)
 1005810:	dcc00317 	ldw	r19,12(sp)
 1005814:	dc800217 	ldw	r18,8(sp)
 1005818:	dc400117 	ldw	r17,4(sp)
 100581c:	dc000017 	ldw	r16,0(sp)
 1005820:	dec00a04 	addi	sp,sp,40
 1005824:	f800283a 	ret
 1005828:	00bffe04 	movi	r2,-8
 100582c:	18a2703a 	and	r17,r3,r2
 1005830:	883fed16 	blt	r17,zero,10057e8 <_malloc_r+0x44>
 1005834:	897fec36 	bltu	r17,r5,10057e8 <_malloc_r+0x44>
 1005838:	9009883a 	mov	r4,r18
 100583c:	100ab6c0 	call	100ab6c <__malloc_lock>
 1005840:	00807dc4 	movi	r2,503
 1005844:	14402b2e 	bgeu	r2,r17,10058f4 <_malloc_r+0x150>
 1005848:	8806d27a 	srli	r3,r17,9
 100584c:	18003f1e 	bne	r3,zero,100594c <_malloc_r+0x1a8>
 1005850:	880cd0fa 	srli	r6,r17,3
 1005854:	300490fa 	slli	r2,r6,3
 1005858:	02c04074 	movhi	r11,257
 100585c:	5afca104 	addi	r11,r11,-3452
 1005860:	12cb883a 	add	r5,r2,r11
 1005864:	2c000317 	ldw	r16,12(r5)
 1005868:	580f883a 	mov	r7,r11
 100586c:	2c00041e 	bne	r5,r16,1005880 <_malloc_r+0xdc>
 1005870:	00000a06 	br	100589c <_malloc_r+0xf8>
 1005874:	1800860e 	bge	r3,zero,1005a90 <_malloc_r+0x2ec>
 1005878:	84000317 	ldw	r16,12(r16)
 100587c:	2c000726 	beq	r5,r16,100589c <_malloc_r+0xf8>
 1005880:	80800117 	ldw	r2,4(r16)
 1005884:	00ffff04 	movi	r3,-4
 1005888:	10c8703a 	and	r4,r2,r3
 100588c:	2447c83a 	sub	r3,r4,r17
 1005890:	008003c4 	movi	r2,15
 1005894:	10fff70e 	bge	r2,r3,1005874 <_malloc_r+0xd0>
 1005898:	31bfffc4 	addi	r6,r6,-1
 100589c:	32400044 	addi	r9,r6,1
 10058a0:	02804074 	movhi	r10,257
 10058a4:	52bca304 	addi	r10,r10,-3444
 10058a8:	54000217 	ldw	r16,8(r10)
 10058ac:	8280a026 	beq	r16,r10,1005b30 <_malloc_r+0x38c>
 10058b0:	80800117 	ldw	r2,4(r16)
 10058b4:	00ffff04 	movi	r3,-4
 10058b8:	10ca703a 	and	r5,r2,r3
 10058bc:	2c4dc83a 	sub	r6,r5,r17
 10058c0:	008003c4 	movi	r2,15
 10058c4:	11808316 	blt	r2,r6,1005ad4 <_malloc_r+0x330>
 10058c8:	52800315 	stw	r10,12(r10)
 10058cc:	52800215 	stw	r10,8(r10)
 10058d0:	30002916 	blt	r6,zero,1005978 <_malloc_r+0x1d4>
 10058d4:	8147883a 	add	r3,r16,r5
 10058d8:	18800117 	ldw	r2,4(r3)
 10058dc:	9009883a 	mov	r4,r18
 10058e0:	10800054 	ori	r2,r2,1
 10058e4:	18800115 	stw	r2,4(r3)
 10058e8:	100ab8c0 	call	100ab8c <__malloc_unlock>
 10058ec:	80c00204 	addi	r3,r16,8
 10058f0:	003fc006 	br	10057f4 <_malloc_r+0x50>
 10058f4:	02c04074 	movhi	r11,257
 10058f8:	5afca104 	addi	r11,r11,-3452
 10058fc:	8ac5883a 	add	r2,r17,r11
 1005900:	14000317 	ldw	r16,12(r2)
 1005904:	580f883a 	mov	r7,r11
 1005908:	8806d0fa 	srli	r3,r17,3
 100590c:	14006c26 	beq	r2,r16,1005ac0 <_malloc_r+0x31c>
 1005910:	80c00117 	ldw	r3,4(r16)
 1005914:	00bfff04 	movi	r2,-4
 1005918:	81800317 	ldw	r6,12(r16)
 100591c:	1886703a 	and	r3,r3,r2
 1005920:	80c7883a 	add	r3,r16,r3
 1005924:	18800117 	ldw	r2,4(r3)
 1005928:	81400217 	ldw	r5,8(r16)
 100592c:	9009883a 	mov	r4,r18
 1005930:	10800054 	ori	r2,r2,1
 1005934:	18800115 	stw	r2,4(r3)
 1005938:	31400215 	stw	r5,8(r6)
 100593c:	29800315 	stw	r6,12(r5)
 1005940:	100ab8c0 	call	100ab8c <__malloc_unlock>
 1005944:	80c00204 	addi	r3,r16,8
 1005948:	003faa06 	br	10057f4 <_malloc_r+0x50>
 100594c:	00800104 	movi	r2,4
 1005950:	10c0052e 	bgeu	r2,r3,1005968 <_malloc_r+0x1c4>
 1005954:	00800504 	movi	r2,20
 1005958:	10c07836 	bltu	r2,r3,1005b3c <_malloc_r+0x398>
 100595c:	198016c4 	addi	r6,r3,91
 1005960:	300490fa 	slli	r2,r6,3
 1005964:	003fbc06 	br	1005858 <_malloc_r+0xb4>
 1005968:	8804d1ba 	srli	r2,r17,6
 100596c:	11800e04 	addi	r6,r2,56
 1005970:	300490fa 	slli	r2,r6,3
 1005974:	003fb806 	br	1005858 <_malloc_r+0xb4>
 1005978:	00807fc4 	movi	r2,511
 100597c:	1140bb36 	bltu	r2,r5,1005c6c <_malloc_r+0x4c8>
 1005980:	2806d0fa 	srli	r3,r5,3
 1005984:	573ffe04 	addi	fp,r10,-8
 1005988:	00800044 	movi	r2,1
 100598c:	180890fa 	slli	r4,r3,3
 1005990:	1807d0ba 	srai	r3,r3,2
 1005994:	e1c00117 	ldw	r7,4(fp)
 1005998:	5909883a 	add	r4,r11,r4
 100599c:	21400217 	ldw	r5,8(r4)
 10059a0:	10c4983a 	sll	r2,r2,r3
 10059a4:	81000315 	stw	r4,12(r16)
 10059a8:	81400215 	stw	r5,8(r16)
 10059ac:	388eb03a 	or	r7,r7,r2
 10059b0:	2c000315 	stw	r16,12(r5)
 10059b4:	24000215 	stw	r16,8(r4)
 10059b8:	e1c00115 	stw	r7,4(fp)
 10059bc:	4807883a 	mov	r3,r9
 10059c0:	4800cd16 	blt	r9,zero,1005cf8 <_malloc_r+0x554>
 10059c4:	1807d0ba 	srai	r3,r3,2
 10059c8:	00800044 	movi	r2,1
 10059cc:	10c8983a 	sll	r4,r2,r3
 10059d0:	39004436 	bltu	r7,r4,1005ae4 <_malloc_r+0x340>
 10059d4:	21c4703a 	and	r2,r4,r7
 10059d8:	10000a1e 	bne	r2,zero,1005a04 <_malloc_r+0x260>
 10059dc:	2109883a 	add	r4,r4,r4
 10059e0:	00bfff04 	movi	r2,-4
 10059e4:	4884703a 	and	r2,r9,r2
 10059e8:	3906703a 	and	r3,r7,r4
 10059ec:	12400104 	addi	r9,r2,4
 10059f0:	1800041e 	bne	r3,zero,1005a04 <_malloc_r+0x260>
 10059f4:	2109883a 	add	r4,r4,r4
 10059f8:	3904703a 	and	r2,r7,r4
 10059fc:	4a400104 	addi	r9,r9,4
 1005a00:	103ffc26 	beq	r2,zero,10059f4 <_malloc_r+0x250>
 1005a04:	480490fa 	slli	r2,r9,3
 1005a08:	4819883a 	mov	r12,r9
 1005a0c:	023fff04 	movi	r8,-4
 1005a10:	589b883a 	add	r13,r11,r2
 1005a14:	6807883a 	mov	r3,r13
 1005a18:	014003c4 	movi	r5,15
 1005a1c:	1c000317 	ldw	r16,12(r3)
 1005a20:	1c00041e 	bne	r3,r16,1005a34 <_malloc_r+0x290>
 1005a24:	0000a706 	br	1005cc4 <_malloc_r+0x520>
 1005a28:	3000ab0e 	bge	r6,zero,1005cd8 <_malloc_r+0x534>
 1005a2c:	84000317 	ldw	r16,12(r16)
 1005a30:	1c00a426 	beq	r3,r16,1005cc4 <_malloc_r+0x520>
 1005a34:	80800117 	ldw	r2,4(r16)
 1005a38:	1204703a 	and	r2,r2,r8
 1005a3c:	144dc83a 	sub	r6,r2,r17
 1005a40:	29bff90e 	bge	r5,r6,1005a28 <_malloc_r+0x284>
 1005a44:	81000317 	ldw	r4,12(r16)
 1005a48:	80c00217 	ldw	r3,8(r16)
 1005a4c:	89400054 	ori	r5,r17,1
 1005a50:	8445883a 	add	r2,r16,r17
 1005a54:	20c00215 	stw	r3,8(r4)
 1005a58:	19000315 	stw	r4,12(r3)
 1005a5c:	81400115 	stw	r5,4(r16)
 1005a60:	1187883a 	add	r3,r2,r6
 1005a64:	31000054 	ori	r4,r6,1
 1005a68:	50800315 	stw	r2,12(r10)
 1005a6c:	50800215 	stw	r2,8(r10)
 1005a70:	19800015 	stw	r6,0(r3)
 1005a74:	11000115 	stw	r4,4(r2)
 1005a78:	12800215 	stw	r10,8(r2)
 1005a7c:	12800315 	stw	r10,12(r2)
 1005a80:	9009883a 	mov	r4,r18
 1005a84:	100ab8c0 	call	100ab8c <__malloc_unlock>
 1005a88:	80c00204 	addi	r3,r16,8
 1005a8c:	003f5906 	br	10057f4 <_malloc_r+0x50>
 1005a90:	8109883a 	add	r4,r16,r4
 1005a94:	20800117 	ldw	r2,4(r4)
 1005a98:	80c00217 	ldw	r3,8(r16)
 1005a9c:	81400317 	ldw	r5,12(r16)
 1005aa0:	10800054 	ori	r2,r2,1
 1005aa4:	20800115 	stw	r2,4(r4)
 1005aa8:	28c00215 	stw	r3,8(r5)
 1005aac:	19400315 	stw	r5,12(r3)
 1005ab0:	9009883a 	mov	r4,r18
 1005ab4:	100ab8c0 	call	100ab8c <__malloc_unlock>
 1005ab8:	80c00204 	addi	r3,r16,8
 1005abc:	003f4d06 	br	10057f4 <_malloc_r+0x50>
 1005ac0:	80800204 	addi	r2,r16,8
 1005ac4:	14000317 	ldw	r16,12(r2)
 1005ac8:	143f911e 	bne	r2,r16,1005910 <_malloc_r+0x16c>
 1005acc:	1a400084 	addi	r9,r3,2
 1005ad0:	003f7306 	br	10058a0 <_malloc_r+0xfc>
 1005ad4:	88c00054 	ori	r3,r17,1
 1005ad8:	8445883a 	add	r2,r16,r17
 1005adc:	80c00115 	stw	r3,4(r16)
 1005ae0:	003fdf06 	br	1005a60 <_malloc_r+0x2bc>
 1005ae4:	e4000217 	ldw	r16,8(fp)
 1005ae8:	00bfff04 	movi	r2,-4
 1005aec:	80c00117 	ldw	r3,4(r16)
 1005af0:	802d883a 	mov	r22,r16
 1005af4:	18aa703a 	and	r21,r3,r2
 1005af8:	ac401636 	bltu	r21,r17,1005b54 <_malloc_r+0x3b0>
 1005afc:	ac49c83a 	sub	r4,r21,r17
 1005b00:	008003c4 	movi	r2,15
 1005b04:	1100130e 	bge	r2,r4,1005b54 <_malloc_r+0x3b0>
 1005b08:	88800054 	ori	r2,r17,1
 1005b0c:	8447883a 	add	r3,r16,r17
 1005b10:	80800115 	stw	r2,4(r16)
 1005b14:	20800054 	ori	r2,r4,1
 1005b18:	18800115 	stw	r2,4(r3)
 1005b1c:	e0c00215 	stw	r3,8(fp)
 1005b20:	9009883a 	mov	r4,r18
 1005b24:	100ab8c0 	call	100ab8c <__malloc_unlock>
 1005b28:	80c00204 	addi	r3,r16,8
 1005b2c:	003f3106 	br	10057f4 <_malloc_r+0x50>
 1005b30:	39c00117 	ldw	r7,4(r7)
 1005b34:	573ffe04 	addi	fp,r10,-8
 1005b38:	003fa006 	br	10059bc <_malloc_r+0x218>
 1005b3c:	00801504 	movi	r2,84
 1005b40:	10c06736 	bltu	r2,r3,1005ce0 <_malloc_r+0x53c>
 1005b44:	8804d33a 	srli	r2,r17,12
 1005b48:	11801b84 	addi	r6,r2,110
 1005b4c:	300490fa 	slli	r2,r6,3
 1005b50:	003f4106 	br	1005858 <_malloc_r+0xb4>
 1005b54:	d0a6d117 	ldw	r2,-25788(gp)
 1005b58:	d0e00517 	ldw	r3,-32748(gp)
 1005b5c:	053fffc4 	movi	r20,-1
 1005b60:	10800404 	addi	r2,r2,16
 1005b64:	88a7883a 	add	r19,r17,r2
 1005b68:	1d000326 	beq	r3,r20,1005b78 <_malloc_r+0x3d4>
 1005b6c:	98c3ffc4 	addi	r3,r19,4095
 1005b70:	00bc0004 	movi	r2,-4096
 1005b74:	18a6703a 	and	r19,r3,r2
 1005b78:	9009883a 	mov	r4,r18
 1005b7c:	980b883a 	mov	r5,r19
 1005b80:	10078d00 	call	10078d0 <_sbrk_r>
 1005b84:	1009883a 	mov	r4,r2
 1005b88:	15000426 	beq	r2,r20,1005b9c <_malloc_r+0x3f8>
 1005b8c:	854b883a 	add	r5,r16,r21
 1005b90:	1029883a 	mov	r20,r2
 1005b94:	11405a2e 	bgeu	r2,r5,1005d00 <_malloc_r+0x55c>
 1005b98:	87000c26 	beq	r16,fp,1005bcc <_malloc_r+0x428>
 1005b9c:	e4000217 	ldw	r16,8(fp)
 1005ba0:	80c00117 	ldw	r3,4(r16)
 1005ba4:	00bfff04 	movi	r2,-4
 1005ba8:	1884703a 	and	r2,r3,r2
 1005bac:	14400336 	bltu	r2,r17,1005bbc <_malloc_r+0x418>
 1005bb0:	1449c83a 	sub	r4,r2,r17
 1005bb4:	008003c4 	movi	r2,15
 1005bb8:	113fd316 	blt	r2,r4,1005b08 <_malloc_r+0x364>
 1005bbc:	9009883a 	mov	r4,r18
 1005bc0:	100ab8c0 	call	100ab8c <__malloc_unlock>
 1005bc4:	0007883a 	mov	r3,zero
 1005bc8:	003f0a06 	br	10057f4 <_malloc_r+0x50>
 1005bcc:	05c04074 	movhi	r23,257
 1005bd0:	bdc92704 	addi	r23,r23,9372
 1005bd4:	b8800017 	ldw	r2,0(r23)
 1005bd8:	988d883a 	add	r6,r19,r2
 1005bdc:	b9800015 	stw	r6,0(r23)
 1005be0:	d0e00517 	ldw	r3,-32748(gp)
 1005be4:	00bfffc4 	movi	r2,-1
 1005be8:	18808e26 	beq	r3,r2,1005e24 <_malloc_r+0x680>
 1005bec:	2145c83a 	sub	r2,r4,r5
 1005bf0:	3085883a 	add	r2,r6,r2
 1005bf4:	b8800015 	stw	r2,0(r23)
 1005bf8:	20c001cc 	andi	r3,r4,7
 1005bfc:	18005f1e 	bne	r3,zero,1005d7c <_malloc_r+0x5d8>
 1005c00:	000b883a 	mov	r5,zero
 1005c04:	a4c5883a 	add	r2,r20,r19
 1005c08:	1083ffcc 	andi	r2,r2,4095
 1005c0c:	00c40004 	movi	r3,4096
 1005c10:	1887c83a 	sub	r3,r3,r2
 1005c14:	28e7883a 	add	r19,r5,r3
 1005c18:	9009883a 	mov	r4,r18
 1005c1c:	980b883a 	mov	r5,r19
 1005c20:	10078d00 	call	10078d0 <_sbrk_r>
 1005c24:	1007883a 	mov	r3,r2
 1005c28:	00bfffc4 	movi	r2,-1
 1005c2c:	18807a26 	beq	r3,r2,1005e18 <_malloc_r+0x674>
 1005c30:	1d05c83a 	sub	r2,r3,r20
 1005c34:	9885883a 	add	r2,r19,r2
 1005c38:	10c00054 	ori	r3,r2,1
 1005c3c:	b8800017 	ldw	r2,0(r23)
 1005c40:	a021883a 	mov	r16,r20
 1005c44:	a0c00115 	stw	r3,4(r20)
 1005c48:	9885883a 	add	r2,r19,r2
 1005c4c:	b8800015 	stw	r2,0(r23)
 1005c50:	e5000215 	stw	r20,8(fp)
 1005c54:	b7003626 	beq	r22,fp,1005d30 <_malloc_r+0x58c>
 1005c58:	018003c4 	movi	r6,15
 1005c5c:	35404b36 	bltu	r6,r21,1005d8c <_malloc_r+0x5e8>
 1005c60:	00800044 	movi	r2,1
 1005c64:	a0800115 	stw	r2,4(r20)
 1005c68:	003fcd06 	br	1005ba0 <_malloc_r+0x3fc>
 1005c6c:	2808d27a 	srli	r4,r5,9
 1005c70:	2000371e 	bne	r4,zero,1005d50 <_malloc_r+0x5ac>
 1005c74:	2808d0fa 	srli	r4,r5,3
 1005c78:	200690fa 	slli	r3,r4,3
 1005c7c:	1ad1883a 	add	r8,r3,r11
 1005c80:	41800217 	ldw	r6,8(r8)
 1005c84:	41805b26 	beq	r8,r6,1005df4 <_malloc_r+0x650>
 1005c88:	30800117 	ldw	r2,4(r6)
 1005c8c:	00ffff04 	movi	r3,-4
 1005c90:	10c4703a 	and	r2,r2,r3
 1005c94:	2880022e 	bgeu	r5,r2,1005ca0 <_malloc_r+0x4fc>
 1005c98:	31800217 	ldw	r6,8(r6)
 1005c9c:	41bffa1e 	bne	r8,r6,1005c88 <_malloc_r+0x4e4>
 1005ca0:	32000317 	ldw	r8,12(r6)
 1005ca4:	39c00117 	ldw	r7,4(r7)
 1005ca8:	82000315 	stw	r8,12(r16)
 1005cac:	81800215 	stw	r6,8(r16)
 1005cb0:	07004074 	movhi	fp,257
 1005cb4:	e73ca104 	addi	fp,fp,-3452
 1005cb8:	34000315 	stw	r16,12(r6)
 1005cbc:	44000215 	stw	r16,8(r8)
 1005cc0:	003f3e06 	br	10059bc <_malloc_r+0x218>
 1005cc4:	63000044 	addi	r12,r12,1
 1005cc8:	608000cc 	andi	r2,r12,3
 1005ccc:	10005d26 	beq	r2,zero,1005e44 <_malloc_r+0x6a0>
 1005cd0:	18c00204 	addi	r3,r3,8
 1005cd4:	003f5106 	br	1005a1c <_malloc_r+0x278>
 1005cd8:	8089883a 	add	r4,r16,r2
 1005cdc:	003f6d06 	br	1005a94 <_malloc_r+0x2f0>
 1005ce0:	00805504 	movi	r2,340
 1005ce4:	10c02036 	bltu	r2,r3,1005d68 <_malloc_r+0x5c4>
 1005ce8:	8804d3fa 	srli	r2,r17,15
 1005cec:	11801dc4 	addi	r6,r2,119
 1005cf0:	300490fa 	slli	r2,r6,3
 1005cf4:	003ed806 	br	1005858 <_malloc_r+0xb4>
 1005cf8:	48c000c4 	addi	r3,r9,3
 1005cfc:	003f3106 	br	10059c4 <_malloc_r+0x220>
 1005d00:	05c04074 	movhi	r23,257
 1005d04:	bdc92704 	addi	r23,r23,9372
 1005d08:	b8800017 	ldw	r2,0(r23)
 1005d0c:	988d883a 	add	r6,r19,r2
 1005d10:	b9800015 	stw	r6,0(r23)
 1005d14:	293fb21e 	bne	r5,r4,1005be0 <_malloc_r+0x43c>
 1005d18:	2083ffcc 	andi	r2,r4,4095
 1005d1c:	103fb01e 	bne	r2,zero,1005be0 <_malloc_r+0x43c>
 1005d20:	e4000217 	ldw	r16,8(fp)
 1005d24:	9d45883a 	add	r2,r19,r21
 1005d28:	10800054 	ori	r2,r2,1
 1005d2c:	80800115 	stw	r2,4(r16)
 1005d30:	b8c00017 	ldw	r3,0(r23)
 1005d34:	d0a6d217 	ldw	r2,-25784(gp)
 1005d38:	10c0012e 	bgeu	r2,r3,1005d40 <_malloc_r+0x59c>
 1005d3c:	d0e6d215 	stw	r3,-25784(gp)
 1005d40:	d0a6d317 	ldw	r2,-25780(gp)
 1005d44:	10ff962e 	bgeu	r2,r3,1005ba0 <_malloc_r+0x3fc>
 1005d48:	d0e6d315 	stw	r3,-25780(gp)
 1005d4c:	003f9406 	br	1005ba0 <_malloc_r+0x3fc>
 1005d50:	00800104 	movi	r2,4
 1005d54:	11001e36 	bltu	r2,r4,1005dd0 <_malloc_r+0x62c>
 1005d58:	2804d1ba 	srli	r2,r5,6
 1005d5c:	11000e04 	addi	r4,r2,56
 1005d60:	200690fa 	slli	r3,r4,3
 1005d64:	003fc506 	br	1005c7c <_malloc_r+0x4d8>
 1005d68:	00815504 	movi	r2,1364
 1005d6c:	10c01d2e 	bgeu	r2,r3,1005de4 <_malloc_r+0x640>
 1005d70:	01801f84 	movi	r6,126
 1005d74:	0080fc04 	movi	r2,1008
 1005d78:	003eb706 	br	1005858 <_malloc_r+0xb4>
 1005d7c:	00800204 	movi	r2,8
 1005d80:	10cbc83a 	sub	r5,r2,r3
 1005d84:	2169883a 	add	r20,r4,r5
 1005d88:	003f9e06 	br	1005c04 <_malloc_r+0x460>
 1005d8c:	00bffe04 	movi	r2,-8
 1005d90:	a93ffd04 	addi	r4,r21,-12
 1005d94:	2088703a 	and	r4,r4,r2
 1005d98:	b10b883a 	add	r5,r22,r4
 1005d9c:	00c00144 	movi	r3,5
 1005da0:	28c00215 	stw	r3,8(r5)
 1005da4:	28c00115 	stw	r3,4(r5)
 1005da8:	b0800117 	ldw	r2,4(r22)
 1005dac:	1080004c 	andi	r2,r2,1
 1005db0:	2084b03a 	or	r2,r4,r2
 1005db4:	b0800115 	stw	r2,4(r22)
 1005db8:	313fdd2e 	bgeu	r6,r4,1005d30 <_malloc_r+0x58c>
 1005dbc:	b1400204 	addi	r5,r22,8
 1005dc0:	9009883a 	mov	r4,r18
 1005dc4:	1004c1c0 	call	1004c1c <_free_r>
 1005dc8:	e4000217 	ldw	r16,8(fp)
 1005dcc:	003fd806 	br	1005d30 <_malloc_r+0x58c>
 1005dd0:	00800504 	movi	r2,20
 1005dd4:	11001536 	bltu	r2,r4,1005e2c <_malloc_r+0x688>
 1005dd8:	210016c4 	addi	r4,r4,91
 1005ddc:	200690fa 	slli	r3,r4,3
 1005de0:	003fa606 	br	1005c7c <_malloc_r+0x4d8>
 1005de4:	8804d4ba 	srli	r2,r17,18
 1005de8:	11801f04 	addi	r6,r2,124
 1005dec:	300490fa 	slli	r2,r6,3
 1005df0:	003e9906 	br	1005858 <_malloc_r+0xb4>
 1005df4:	2009d0ba 	srai	r4,r4,2
 1005df8:	01404074 	movhi	r5,257
 1005dfc:	297ca104 	addi	r5,r5,-3452
 1005e00:	00c00044 	movi	r3,1
 1005e04:	28800117 	ldw	r2,4(r5)
 1005e08:	1906983a 	sll	r3,r3,r4
 1005e0c:	10c4b03a 	or	r2,r2,r3
 1005e10:	28800115 	stw	r2,4(r5)
 1005e14:	003fa306 	br	1005ca4 <_malloc_r+0x500>
 1005e18:	0027883a 	mov	r19,zero
 1005e1c:	00c00044 	movi	r3,1
 1005e20:	003f8606 	br	1005c3c <_malloc_r+0x498>
 1005e24:	d1200515 	stw	r4,-32748(gp)
 1005e28:	003f7306 	br	1005bf8 <_malloc_r+0x454>
 1005e2c:	00801504 	movi	r2,84
 1005e30:	11001936 	bltu	r2,r4,1005e98 <_malloc_r+0x6f4>
 1005e34:	2804d33a 	srli	r2,r5,12
 1005e38:	11001b84 	addi	r4,r2,110
 1005e3c:	200690fa 	slli	r3,r4,3
 1005e40:	003f8e06 	br	1005c7c <_malloc_r+0x4d8>
 1005e44:	480b883a 	mov	r5,r9
 1005e48:	6807883a 	mov	r3,r13
 1005e4c:	288000cc 	andi	r2,r5,3
 1005e50:	18fffe04 	addi	r3,r3,-8
 1005e54:	297fffc4 	addi	r5,r5,-1
 1005e58:	10001526 	beq	r2,zero,1005eb0 <_malloc_r+0x70c>
 1005e5c:	18800217 	ldw	r2,8(r3)
 1005e60:	10fffa26 	beq	r2,r3,1005e4c <_malloc_r+0x6a8>
 1005e64:	2109883a 	add	r4,r4,r4
 1005e68:	393f1e36 	bltu	r7,r4,1005ae4 <_malloc_r+0x340>
 1005e6c:	203f1d26 	beq	r4,zero,1005ae4 <_malloc_r+0x340>
 1005e70:	21c4703a 	and	r2,r4,r7
 1005e74:	10000226 	beq	r2,zero,1005e80 <_malloc_r+0x6dc>
 1005e78:	6013883a 	mov	r9,r12
 1005e7c:	003ee106 	br	1005a04 <_malloc_r+0x260>
 1005e80:	2109883a 	add	r4,r4,r4
 1005e84:	3904703a 	and	r2,r7,r4
 1005e88:	63000104 	addi	r12,r12,4
 1005e8c:	103ffc26 	beq	r2,zero,1005e80 <_malloc_r+0x6dc>
 1005e90:	6013883a 	mov	r9,r12
 1005e94:	003edb06 	br	1005a04 <_malloc_r+0x260>
 1005e98:	00805504 	movi	r2,340
 1005e9c:	11000836 	bltu	r2,r4,1005ec0 <_malloc_r+0x71c>
 1005ea0:	2804d3fa 	srli	r2,r5,15
 1005ea4:	11001dc4 	addi	r4,r2,119
 1005ea8:	200690fa 	slli	r3,r4,3
 1005eac:	003f7306 	br	1005c7c <_malloc_r+0x4d8>
 1005eb0:	0104303a 	nor	r2,zero,r4
 1005eb4:	388e703a 	and	r7,r7,r2
 1005eb8:	e1c00115 	stw	r7,4(fp)
 1005ebc:	003fe906 	br	1005e64 <_malloc_r+0x6c0>
 1005ec0:	00815504 	movi	r2,1364
 1005ec4:	1100032e 	bgeu	r2,r4,1005ed4 <_malloc_r+0x730>
 1005ec8:	01001f84 	movi	r4,126
 1005ecc:	00c0fc04 	movi	r3,1008
 1005ed0:	003f6a06 	br	1005c7c <_malloc_r+0x4d8>
 1005ed4:	2804d4ba 	srli	r2,r5,18
 1005ed8:	11001f04 	addi	r4,r2,124
 1005edc:	200690fa 	slli	r3,r4,3
 1005ee0:	003f6606 	br	1005c7c <_malloc_r+0x4d8>

01005ee4 <memchr>:
 1005ee4:	008000c4 	movi	r2,3
 1005ee8:	29403fcc 	andi	r5,r5,255
 1005eec:	2007883a 	mov	r3,r4
 1005ef0:	1180022e 	bgeu	r2,r6,1005efc <memchr+0x18>
 1005ef4:	2084703a 	and	r2,r4,r2
 1005ef8:	10000b26 	beq	r2,zero,1005f28 <memchr+0x44>
 1005efc:	313fffc4 	addi	r4,r6,-1
 1005f00:	3000051e 	bne	r6,zero,1005f18 <memchr+0x34>
 1005f04:	00002c06 	br	1005fb8 <memchr+0xd4>
 1005f08:	213fffc4 	addi	r4,r4,-1
 1005f0c:	00bfffc4 	movi	r2,-1
 1005f10:	18c00044 	addi	r3,r3,1
 1005f14:	20802826 	beq	r4,r2,1005fb8 <memchr+0xd4>
 1005f18:	18800003 	ldbu	r2,0(r3)
 1005f1c:	28bffa1e 	bne	r5,r2,1005f08 <memchr+0x24>
 1005f20:	1805883a 	mov	r2,r3
 1005f24:	f800283a 	ret
 1005f28:	0011883a 	mov	r8,zero
 1005f2c:	0007883a 	mov	r3,zero
 1005f30:	01c00104 	movi	r7,4
 1005f34:	4004923a 	slli	r2,r8,8
 1005f38:	18c00044 	addi	r3,r3,1
 1005f3c:	1151883a 	add	r8,r2,r5
 1005f40:	19fffc1e 	bne	r3,r7,1005f34 <memchr+0x50>
 1005f44:	02bfbff4 	movhi	r10,65279
 1005f48:	52bfbfc4 	addi	r10,r10,-257
 1005f4c:	02602074 	movhi	r9,32897
 1005f50:	4a602004 	addi	r9,r9,-32640
 1005f54:	02c000c4 	movi	r11,3
 1005f58:	20800017 	ldw	r2,0(r4)
 1005f5c:	31bfff04 	addi	r6,r6,-4
 1005f60:	200f883a 	mov	r7,r4
 1005f64:	1204f03a 	xor	r2,r2,r8
 1005f68:	1287883a 	add	r3,r2,r10
 1005f6c:	1a46703a 	and	r3,r3,r9
 1005f70:	0084303a 	nor	r2,zero,r2
 1005f74:	10c4703a 	and	r2,r2,r3
 1005f78:	10000b26 	beq	r2,zero,1005fa8 <memchr+0xc4>
 1005f7c:	20800003 	ldbu	r2,0(r4)
 1005f80:	28800f26 	beq	r5,r2,1005fc0 <memchr+0xdc>
 1005f84:	20800043 	ldbu	r2,1(r4)
 1005f88:	21c00044 	addi	r7,r4,1
 1005f8c:	28800c26 	beq	r5,r2,1005fc0 <memchr+0xdc>
 1005f90:	20800083 	ldbu	r2,2(r4)
 1005f94:	21c00084 	addi	r7,r4,2
 1005f98:	28800926 	beq	r5,r2,1005fc0 <memchr+0xdc>
 1005f9c:	208000c3 	ldbu	r2,3(r4)
 1005fa0:	21c000c4 	addi	r7,r4,3
 1005fa4:	28800626 	beq	r5,r2,1005fc0 <memchr+0xdc>
 1005fa8:	21000104 	addi	r4,r4,4
 1005fac:	59bfea36 	bltu	r11,r6,1005f58 <memchr+0x74>
 1005fb0:	2007883a 	mov	r3,r4
 1005fb4:	003fd106 	br	1005efc <memchr+0x18>
 1005fb8:	0005883a 	mov	r2,zero
 1005fbc:	f800283a 	ret
 1005fc0:	3805883a 	mov	r2,r7
 1005fc4:	f800283a 	ret

01005fc8 <memcpy>:
 1005fc8:	01c003c4 	movi	r7,15
 1005fcc:	2007883a 	mov	r3,r4
 1005fd0:	3980032e 	bgeu	r7,r6,1005fe0 <memcpy+0x18>
 1005fd4:	2904b03a 	or	r2,r5,r4
 1005fd8:	108000cc 	andi	r2,r2,3
 1005fdc:	10000926 	beq	r2,zero,1006004 <memcpy+0x3c>
 1005fe0:	30000626 	beq	r6,zero,1005ffc <memcpy+0x34>
 1005fe4:	30cd883a 	add	r6,r6,r3
 1005fe8:	28800003 	ldbu	r2,0(r5)
 1005fec:	29400044 	addi	r5,r5,1
 1005ff0:	18800005 	stb	r2,0(r3)
 1005ff4:	18c00044 	addi	r3,r3,1
 1005ff8:	30fffb1e 	bne	r6,r3,1005fe8 <memcpy+0x20>
 1005ffc:	2005883a 	mov	r2,r4
 1006000:	f800283a 	ret
 1006004:	3811883a 	mov	r8,r7
 1006008:	200f883a 	mov	r7,r4
 100600c:	28c00017 	ldw	r3,0(r5)
 1006010:	31bffc04 	addi	r6,r6,-16
 1006014:	38c00015 	stw	r3,0(r7)
 1006018:	28800117 	ldw	r2,4(r5)
 100601c:	38800115 	stw	r2,4(r7)
 1006020:	28c00217 	ldw	r3,8(r5)
 1006024:	38c00215 	stw	r3,8(r7)
 1006028:	28800317 	ldw	r2,12(r5)
 100602c:	29400404 	addi	r5,r5,16
 1006030:	38800315 	stw	r2,12(r7)
 1006034:	39c00404 	addi	r7,r7,16
 1006038:	41bff436 	bltu	r8,r6,100600c <memcpy+0x44>
 100603c:	008000c4 	movi	r2,3
 1006040:	1180072e 	bgeu	r2,r6,1006060 <memcpy+0x98>
 1006044:	1007883a 	mov	r3,r2
 1006048:	28800017 	ldw	r2,0(r5)
 100604c:	31bfff04 	addi	r6,r6,-4
 1006050:	29400104 	addi	r5,r5,4
 1006054:	38800015 	stw	r2,0(r7)
 1006058:	39c00104 	addi	r7,r7,4
 100605c:	19bffa36 	bltu	r3,r6,1006048 <memcpy+0x80>
 1006060:	3807883a 	mov	r3,r7
 1006064:	003fde06 	br	1005fe0 <memcpy+0x18>

01006068 <memmove>:
 1006068:	2807883a 	mov	r3,r5
 100606c:	2011883a 	mov	r8,r4
 1006070:	29000c2e 	bgeu	r5,r4,10060a4 <memmove+0x3c>
 1006074:	298f883a 	add	r7,r5,r6
 1006078:	21c00a2e 	bgeu	r4,r7,10060a4 <memmove+0x3c>
 100607c:	30000726 	beq	r6,zero,100609c <memmove+0x34>
 1006080:	2187883a 	add	r3,r4,r6
 1006084:	198dc83a 	sub	r6,r3,r6
 1006088:	39ffffc4 	addi	r7,r7,-1
 100608c:	38800003 	ldbu	r2,0(r7)
 1006090:	18ffffc4 	addi	r3,r3,-1
 1006094:	18800005 	stb	r2,0(r3)
 1006098:	19bffb1e 	bne	r3,r6,1006088 <memmove+0x20>
 100609c:	2005883a 	mov	r2,r4
 10060a0:	f800283a 	ret
 10060a4:	01c003c4 	movi	r7,15
 10060a8:	39800a36 	bltu	r7,r6,10060d4 <memmove+0x6c>
 10060ac:	303ffb26 	beq	r6,zero,100609c <memmove+0x34>
 10060b0:	400f883a 	mov	r7,r8
 10060b4:	320d883a 	add	r6,r6,r8
 10060b8:	28800003 	ldbu	r2,0(r5)
 10060bc:	29400044 	addi	r5,r5,1
 10060c0:	38800005 	stb	r2,0(r7)
 10060c4:	39c00044 	addi	r7,r7,1
 10060c8:	39bffb1e 	bne	r7,r6,10060b8 <memmove+0x50>
 10060cc:	2005883a 	mov	r2,r4
 10060d0:	f800283a 	ret
 10060d4:	1904b03a 	or	r2,r3,r4
 10060d8:	108000cc 	andi	r2,r2,3
 10060dc:	103ff31e 	bne	r2,zero,10060ac <memmove+0x44>
 10060e0:	3811883a 	mov	r8,r7
 10060e4:	180b883a 	mov	r5,r3
 10060e8:	200f883a 	mov	r7,r4
 10060ec:	28c00017 	ldw	r3,0(r5)
 10060f0:	31bffc04 	addi	r6,r6,-16
 10060f4:	38c00015 	stw	r3,0(r7)
 10060f8:	28800117 	ldw	r2,4(r5)
 10060fc:	38800115 	stw	r2,4(r7)
 1006100:	28c00217 	ldw	r3,8(r5)
 1006104:	38c00215 	stw	r3,8(r7)
 1006108:	28800317 	ldw	r2,12(r5)
 100610c:	29400404 	addi	r5,r5,16
 1006110:	38800315 	stw	r2,12(r7)
 1006114:	39c00404 	addi	r7,r7,16
 1006118:	41bff436 	bltu	r8,r6,10060ec <memmove+0x84>
 100611c:	008000c4 	movi	r2,3
 1006120:	1180072e 	bgeu	r2,r6,1006140 <memmove+0xd8>
 1006124:	1007883a 	mov	r3,r2
 1006128:	28800017 	ldw	r2,0(r5)
 100612c:	31bfff04 	addi	r6,r6,-4
 1006130:	29400104 	addi	r5,r5,4
 1006134:	38800015 	stw	r2,0(r7)
 1006138:	39c00104 	addi	r7,r7,4
 100613c:	19bffa36 	bltu	r3,r6,1006128 <memmove+0xc0>
 1006140:	3811883a 	mov	r8,r7
 1006144:	003fd906 	br	10060ac <memmove+0x44>

01006148 <memset>:
 1006148:	008000c4 	movi	r2,3
 100614c:	29403fcc 	andi	r5,r5,255
 1006150:	2007883a 	mov	r3,r4
 1006154:	1180022e 	bgeu	r2,r6,1006160 <memset+0x18>
 1006158:	2084703a 	and	r2,r4,r2
 100615c:	10000826 	beq	r2,zero,1006180 <memset+0x38>
 1006160:	30000526 	beq	r6,zero,1006178 <memset+0x30>
 1006164:	2805883a 	mov	r2,r5
 1006168:	30cd883a 	add	r6,r6,r3
 100616c:	18800005 	stb	r2,0(r3)
 1006170:	18c00044 	addi	r3,r3,1
 1006174:	19bffd1e 	bne	r3,r6,100616c <memset+0x24>
 1006178:	2005883a 	mov	r2,r4
 100617c:	f800283a 	ret
 1006180:	2804923a 	slli	r2,r5,8
 1006184:	020003c4 	movi	r8,15
 1006188:	200f883a 	mov	r7,r4
 100618c:	2884b03a 	or	r2,r5,r2
 1006190:	1006943a 	slli	r3,r2,16
 1006194:	10c6b03a 	or	r3,r2,r3
 1006198:	41800a2e 	bgeu	r8,r6,10061c4 <memset+0x7c>
 100619c:	4005883a 	mov	r2,r8
 10061a0:	31bffc04 	addi	r6,r6,-16
 10061a4:	38c00015 	stw	r3,0(r7)
 10061a8:	38c00115 	stw	r3,4(r7)
 10061ac:	38c00215 	stw	r3,8(r7)
 10061b0:	38c00315 	stw	r3,12(r7)
 10061b4:	39c00404 	addi	r7,r7,16
 10061b8:	11bff936 	bltu	r2,r6,10061a0 <memset+0x58>
 10061bc:	008000c4 	movi	r2,3
 10061c0:	1180052e 	bgeu	r2,r6,10061d8 <memset+0x90>
 10061c4:	31bfff04 	addi	r6,r6,-4
 10061c8:	008000c4 	movi	r2,3
 10061cc:	38c00015 	stw	r3,0(r7)
 10061d0:	39c00104 	addi	r7,r7,4
 10061d4:	11bffb36 	bltu	r2,r6,10061c4 <memset+0x7c>
 10061d8:	3807883a 	mov	r3,r7
 10061dc:	003fe006 	br	1006160 <memset+0x18>

010061e0 <_Bfree>:
 10061e0:	28000826 	beq	r5,zero,1006204 <_Bfree+0x24>
 10061e4:	28800117 	ldw	r2,4(r5)
 10061e8:	21001317 	ldw	r4,76(r4)
 10061ec:	1085883a 	add	r2,r2,r2
 10061f0:	1085883a 	add	r2,r2,r2
 10061f4:	1105883a 	add	r2,r2,r4
 10061f8:	10c00017 	ldw	r3,0(r2)
 10061fc:	28c00015 	stw	r3,0(r5)
 1006200:	11400015 	stw	r5,0(r2)
 1006204:	f800283a 	ret

01006208 <__hi0bits>:
 1006208:	20bfffec 	andhi	r2,r4,65535
 100620c:	10001426 	beq	r2,zero,1006260 <__hi0bits+0x58>
 1006210:	0007883a 	mov	r3,zero
 1006214:	20bfc02c 	andhi	r2,r4,65280
 1006218:	1000021e 	bne	r2,zero,1006224 <__hi0bits+0x1c>
 100621c:	2008923a 	slli	r4,r4,8
 1006220:	18c00204 	addi	r3,r3,8
 1006224:	20bc002c 	andhi	r2,r4,61440
 1006228:	1000021e 	bne	r2,zero,1006234 <__hi0bits+0x2c>
 100622c:	2008913a 	slli	r4,r4,4
 1006230:	18c00104 	addi	r3,r3,4
 1006234:	20b0002c 	andhi	r2,r4,49152
 1006238:	1000031e 	bne	r2,zero,1006248 <__hi0bits+0x40>
 100623c:	2105883a 	add	r2,r4,r4
 1006240:	18c00084 	addi	r3,r3,2
 1006244:	1089883a 	add	r4,r2,r2
 1006248:	20000316 	blt	r4,zero,1006258 <__hi0bits+0x50>
 100624c:	2090002c 	andhi	r2,r4,16384
 1006250:	10000626 	beq	r2,zero,100626c <__hi0bits+0x64>
 1006254:	18c00044 	addi	r3,r3,1
 1006258:	1805883a 	mov	r2,r3
 100625c:	f800283a 	ret
 1006260:	2008943a 	slli	r4,r4,16
 1006264:	00c00404 	movi	r3,16
 1006268:	003fea06 	br	1006214 <__hi0bits+0xc>
 100626c:	00c00804 	movi	r3,32
 1006270:	1805883a 	mov	r2,r3
 1006274:	f800283a 	ret

01006278 <__lo0bits>:
 1006278:	20c00017 	ldw	r3,0(r4)
 100627c:	188001cc 	andi	r2,r3,7
 1006280:	10000a26 	beq	r2,zero,10062ac <__lo0bits+0x34>
 1006284:	1880004c 	andi	r2,r3,1
 1006288:	1005003a 	cmpeq	r2,r2,zero
 100628c:	10002126 	beq	r2,zero,1006314 <__lo0bits+0x9c>
 1006290:	1880008c 	andi	r2,r3,2
 1006294:	1000251e 	bne	r2,zero,100632c <__lo0bits+0xb4>
 1006298:	1804d0ba 	srli	r2,r3,2
 100629c:	01400084 	movi	r5,2
 10062a0:	20800015 	stw	r2,0(r4)
 10062a4:	2805883a 	mov	r2,r5
 10062a8:	f800283a 	ret
 10062ac:	18bfffcc 	andi	r2,r3,65535
 10062b0:	10001526 	beq	r2,zero,1006308 <__lo0bits+0x90>
 10062b4:	000b883a 	mov	r5,zero
 10062b8:	18803fcc 	andi	r2,r3,255
 10062bc:	1000021e 	bne	r2,zero,10062c8 <__lo0bits+0x50>
 10062c0:	1806d23a 	srli	r3,r3,8
 10062c4:	29400204 	addi	r5,r5,8
 10062c8:	188003cc 	andi	r2,r3,15
 10062cc:	1000021e 	bne	r2,zero,10062d8 <__lo0bits+0x60>
 10062d0:	1806d13a 	srli	r3,r3,4
 10062d4:	29400104 	addi	r5,r5,4
 10062d8:	188000cc 	andi	r2,r3,3
 10062dc:	1000021e 	bne	r2,zero,10062e8 <__lo0bits+0x70>
 10062e0:	1806d0ba 	srli	r3,r3,2
 10062e4:	29400084 	addi	r5,r5,2
 10062e8:	1880004c 	andi	r2,r3,1
 10062ec:	1000031e 	bne	r2,zero,10062fc <__lo0bits+0x84>
 10062f0:	1806d07a 	srli	r3,r3,1
 10062f4:	18000a26 	beq	r3,zero,1006320 <__lo0bits+0xa8>
 10062f8:	29400044 	addi	r5,r5,1
 10062fc:	2805883a 	mov	r2,r5
 1006300:	20c00015 	stw	r3,0(r4)
 1006304:	f800283a 	ret
 1006308:	1806d43a 	srli	r3,r3,16
 100630c:	01400404 	movi	r5,16
 1006310:	003fe906 	br	10062b8 <__lo0bits+0x40>
 1006314:	000b883a 	mov	r5,zero
 1006318:	2805883a 	mov	r2,r5
 100631c:	f800283a 	ret
 1006320:	01400804 	movi	r5,32
 1006324:	2805883a 	mov	r2,r5
 1006328:	f800283a 	ret
 100632c:	1804d07a 	srli	r2,r3,1
 1006330:	01400044 	movi	r5,1
 1006334:	20800015 	stw	r2,0(r4)
 1006338:	003fda06 	br	10062a4 <__lo0bits+0x2c>

0100633c <__mcmp>:
 100633c:	20800417 	ldw	r2,16(r4)
 1006340:	28c00417 	ldw	r3,16(r5)
 1006344:	10cfc83a 	sub	r7,r2,r3
 1006348:	38000c1e 	bne	r7,zero,100637c <__mcmp+0x40>
 100634c:	18c5883a 	add	r2,r3,r3
 1006350:	1085883a 	add	r2,r2,r2
 1006354:	10c00504 	addi	r3,r2,20
 1006358:	21000504 	addi	r4,r4,20
 100635c:	28cb883a 	add	r5,r5,r3
 1006360:	2085883a 	add	r2,r4,r2
 1006364:	10bfff04 	addi	r2,r2,-4
 1006368:	297fff04 	addi	r5,r5,-4
 100636c:	11800017 	ldw	r6,0(r2)
 1006370:	28c00017 	ldw	r3,0(r5)
 1006374:	30c0031e 	bne	r6,r3,1006384 <__mcmp+0x48>
 1006378:	20bffa36 	bltu	r4,r2,1006364 <__mcmp+0x28>
 100637c:	3805883a 	mov	r2,r7
 1006380:	f800283a 	ret
 1006384:	30c00336 	bltu	r6,r3,1006394 <__mcmp+0x58>
 1006388:	01c00044 	movi	r7,1
 100638c:	3805883a 	mov	r2,r7
 1006390:	f800283a 	ret
 1006394:	01ffffc4 	movi	r7,-1
 1006398:	003ff806 	br	100637c <__mcmp+0x40>

0100639c <__ulp>:
 100639c:	295ffc2c 	andhi	r5,r5,32752
 10063a0:	013f3034 	movhi	r4,64704
 10063a4:	290b883a 	add	r5,r5,r4
 10063a8:	0145c83a 	sub	r2,zero,r5
 10063ac:	1007d53a 	srai	r3,r2,20
 10063b0:	000d883a 	mov	r6,zero
 10063b4:	0140040e 	bge	zero,r5,10063c8 <__ulp+0x2c>
 10063b8:	280f883a 	mov	r7,r5
 10063bc:	3807883a 	mov	r3,r7
 10063c0:	3005883a 	mov	r2,r6
 10063c4:	f800283a 	ret
 10063c8:	008004c4 	movi	r2,19
 10063cc:	193ffb04 	addi	r4,r3,-20
 10063d0:	10c00c0e 	bge	r2,r3,1006404 <__ulp+0x68>
 10063d4:	008007c4 	movi	r2,31
 10063d8:	1107c83a 	sub	r3,r2,r4
 10063dc:	00800784 	movi	r2,30
 10063e0:	01400044 	movi	r5,1
 10063e4:	11000216 	blt	r2,r4,10063f0 <__ulp+0x54>
 10063e8:	00800044 	movi	r2,1
 10063ec:	10ca983a 	sll	r5,r2,r3
 10063f0:	000f883a 	mov	r7,zero
 10063f4:	280d883a 	mov	r6,r5
 10063f8:	3807883a 	mov	r3,r7
 10063fc:	3005883a 	mov	r2,r6
 1006400:	f800283a 	ret
 1006404:	00800234 	movhi	r2,8
 1006408:	10cfd83a 	sra	r7,r2,r3
 100640c:	000d883a 	mov	r6,zero
 1006410:	3005883a 	mov	r2,r6
 1006414:	3807883a 	mov	r3,r7
 1006418:	f800283a 	ret

0100641c <__b2d>:
 100641c:	20800417 	ldw	r2,16(r4)
 1006420:	defff904 	addi	sp,sp,-28
 1006424:	dd000415 	stw	r20,16(sp)
 1006428:	1085883a 	add	r2,r2,r2
 100642c:	25000504 	addi	r20,r4,20
 1006430:	1085883a 	add	r2,r2,r2
 1006434:	dc000015 	stw	r16,0(sp)
 1006438:	a0a1883a 	add	r16,r20,r2
 100643c:	dd400515 	stw	r21,20(sp)
 1006440:	857fff17 	ldw	r21,-4(r16)
 1006444:	dc400115 	stw	r17,4(sp)
 1006448:	dfc00615 	stw	ra,24(sp)
 100644c:	a809883a 	mov	r4,r21
 1006450:	2823883a 	mov	r17,r5
 1006454:	dcc00315 	stw	r19,12(sp)
 1006458:	dc800215 	stw	r18,8(sp)
 100645c:	10062080 	call	1006208 <__hi0bits>
 1006460:	100b883a 	mov	r5,r2
 1006464:	00800804 	movi	r2,32
 1006468:	1145c83a 	sub	r2,r2,r5
 100646c:	88800015 	stw	r2,0(r17)
 1006470:	00800284 	movi	r2,10
 1006474:	80ffff04 	addi	r3,r16,-4
 1006478:	11401416 	blt	r2,r5,10064cc <__b2d+0xb0>
 100647c:	008002c4 	movi	r2,11
 1006480:	1149c83a 	sub	r4,r2,r5
 1006484:	a0c02736 	bltu	r20,r3,1006524 <__b2d+0x108>
 1006488:	000d883a 	mov	r6,zero
 100648c:	28800544 	addi	r2,r5,21
 1006490:	a906d83a 	srl	r3,r21,r4
 1006494:	a884983a 	sll	r2,r21,r2
 1006498:	1ccffc34 	orhi	r19,r3,16368
 100649c:	11a4b03a 	or	r18,r2,r6
 10064a0:	9005883a 	mov	r2,r18
 10064a4:	9807883a 	mov	r3,r19
 10064a8:	dfc00617 	ldw	ra,24(sp)
 10064ac:	dd400517 	ldw	r21,20(sp)
 10064b0:	dd000417 	ldw	r20,16(sp)
 10064b4:	dcc00317 	ldw	r19,12(sp)
 10064b8:	dc800217 	ldw	r18,8(sp)
 10064bc:	dc400117 	ldw	r17,4(sp)
 10064c0:	dc000017 	ldw	r16,0(sp)
 10064c4:	dec00704 	addi	sp,sp,28
 10064c8:	f800283a 	ret
 10064cc:	a0c00e36 	bltu	r20,r3,1006508 <__b2d+0xec>
 10064d0:	293ffd44 	addi	r4,r5,-11
 10064d4:	000d883a 	mov	r6,zero
 10064d8:	20000f26 	beq	r4,zero,1006518 <__b2d+0xfc>
 10064dc:	00800804 	movi	r2,32
 10064e0:	110bc83a 	sub	r5,r2,r4
 10064e4:	a0c01236 	bltu	r20,r3,1006530 <__b2d+0x114>
 10064e8:	000f883a 	mov	r7,zero
 10064ec:	a904983a 	sll	r2,r21,r4
 10064f0:	3146d83a 	srl	r3,r6,r5
 10064f4:	3108983a 	sll	r4,r6,r4
 10064f8:	108ffc34 	orhi	r2,r2,16368
 10064fc:	18a6b03a 	or	r19,r3,r2
 1006500:	3924b03a 	or	r18,r7,r4
 1006504:	003fe606 	br	10064a0 <__b2d+0x84>
 1006508:	293ffd44 	addi	r4,r5,-11
 100650c:	81bffe17 	ldw	r6,-8(r16)
 1006510:	80fffe04 	addi	r3,r16,-8
 1006514:	203ff11e 	bne	r4,zero,10064dc <__b2d+0xc0>
 1006518:	accffc34 	orhi	r19,r21,16368
 100651c:	3025883a 	mov	r18,r6
 1006520:	003fdf06 	br	10064a0 <__b2d+0x84>
 1006524:	18bfff17 	ldw	r2,-4(r3)
 1006528:	110cd83a 	srl	r6,r2,r4
 100652c:	003fd706 	br	100648c <__b2d+0x70>
 1006530:	18bfff17 	ldw	r2,-4(r3)
 1006534:	114ed83a 	srl	r7,r2,r5
 1006538:	003fec06 	br	10064ec <__b2d+0xd0>

0100653c <__ratio>:
 100653c:	defff904 	addi	sp,sp,-28
 1006540:	dc400215 	stw	r17,8(sp)
 1006544:	2823883a 	mov	r17,r5
 1006548:	d80b883a 	mov	r5,sp
 100654c:	dfc00615 	stw	ra,24(sp)
 1006550:	dd000515 	stw	r20,20(sp)
 1006554:	dcc00415 	stw	r19,16(sp)
 1006558:	dc800315 	stw	r18,12(sp)
 100655c:	2025883a 	mov	r18,r4
 1006560:	100641c0 	call	100641c <__b2d>
 1006564:	8809883a 	mov	r4,r17
 1006568:	d9400104 	addi	r5,sp,4
 100656c:	1027883a 	mov	r19,r2
 1006570:	1829883a 	mov	r20,r3
 1006574:	100641c0 	call	100641c <__b2d>
 1006578:	89000417 	ldw	r4,16(r17)
 100657c:	91c00417 	ldw	r7,16(r18)
 1006580:	d9800117 	ldw	r6,4(sp)
 1006584:	180b883a 	mov	r5,r3
 1006588:	390fc83a 	sub	r7,r7,r4
 100658c:	1009883a 	mov	r4,r2
 1006590:	d8800017 	ldw	r2,0(sp)
 1006594:	380e917a 	slli	r7,r7,5
 1006598:	2011883a 	mov	r8,r4
 100659c:	1185c83a 	sub	r2,r2,r6
 10065a0:	11c5883a 	add	r2,r2,r7
 10065a4:	1006953a 	slli	r3,r2,20
 10065a8:	2813883a 	mov	r9,r5
 10065ac:	00800d0e 	bge	zero,r2,10065e4 <__ratio+0xa8>
 10065b0:	1d29883a 	add	r20,r3,r20
 10065b4:	a00b883a 	mov	r5,r20
 10065b8:	480f883a 	mov	r7,r9
 10065bc:	9809883a 	mov	r4,r19
 10065c0:	400d883a 	mov	r6,r8
 10065c4:	10096a80 	call	10096a8 <__divdf3>
 10065c8:	dfc00617 	ldw	ra,24(sp)
 10065cc:	dd000517 	ldw	r20,20(sp)
 10065d0:	dcc00417 	ldw	r19,16(sp)
 10065d4:	dc800317 	ldw	r18,12(sp)
 10065d8:	dc400217 	ldw	r17,8(sp)
 10065dc:	dec00704 	addi	sp,sp,28
 10065e0:	f800283a 	ret
 10065e4:	28d3c83a 	sub	r9,r5,r3
 10065e8:	003ff206 	br	10065b4 <__ratio+0x78>

010065ec <_mprec_log10>:
 10065ec:	defffe04 	addi	sp,sp,-8
 10065f0:	008005c4 	movi	r2,23
 10065f4:	dc000015 	stw	r16,0(sp)
 10065f8:	dfc00115 	stw	ra,4(sp)
 10065fc:	2021883a 	mov	r16,r4
 1006600:	11000c16 	blt	r2,r4,1006634 <_mprec_log10+0x48>
 1006604:	200490fa 	slli	r2,r4,3
 1006608:	00c04074 	movhi	r3,257
 100660c:	18fae804 	addi	r3,r3,-5216
 1006610:	10c5883a 	add	r2,r2,r3
 1006614:	12400117 	ldw	r9,4(r2)
 1006618:	12000017 	ldw	r8,0(r2)
 100661c:	4807883a 	mov	r3,r9
 1006620:	4005883a 	mov	r2,r8
 1006624:	dfc00117 	ldw	ra,4(sp)
 1006628:	dc000017 	ldw	r16,0(sp)
 100662c:	dec00204 	addi	sp,sp,8
 1006630:	f800283a 	ret
 1006634:	0011883a 	mov	r8,zero
 1006638:	024ffc34 	movhi	r9,16368
 100663c:	0005883a 	mov	r2,zero
 1006640:	00d00934 	movhi	r3,16420
 1006644:	480b883a 	mov	r5,r9
 1006648:	4009883a 	mov	r4,r8
 100664c:	180f883a 	mov	r7,r3
 1006650:	100d883a 	mov	r6,r2
 1006654:	10092e40 	call	10092e4 <__muldf3>
 1006658:	843fffc4 	addi	r16,r16,-1
 100665c:	1011883a 	mov	r8,r2
 1006660:	1813883a 	mov	r9,r3
 1006664:	803ff51e 	bne	r16,zero,100663c <_mprec_log10+0x50>
 1006668:	4005883a 	mov	r2,r8
 100666c:	4807883a 	mov	r3,r9
 1006670:	dfc00117 	ldw	ra,4(sp)
 1006674:	dc000017 	ldw	r16,0(sp)
 1006678:	dec00204 	addi	sp,sp,8
 100667c:	f800283a 	ret

01006680 <__copybits>:
 1006680:	297fffc4 	addi	r5,r5,-1
 1006684:	30800417 	ldw	r2,16(r6)
 1006688:	280bd17a 	srai	r5,r5,5
 100668c:	31800504 	addi	r6,r6,20
 1006690:	1085883a 	add	r2,r2,r2
 1006694:	294b883a 	add	r5,r5,r5
 1006698:	294b883a 	add	r5,r5,r5
 100669c:	1085883a 	add	r2,r2,r2
 10066a0:	290b883a 	add	r5,r5,r4
 10066a4:	3087883a 	add	r3,r6,r2
 10066a8:	29400104 	addi	r5,r5,4
 10066ac:	30c0052e 	bgeu	r6,r3,10066c4 <__copybits+0x44>
 10066b0:	30800017 	ldw	r2,0(r6)
 10066b4:	31800104 	addi	r6,r6,4
 10066b8:	20800015 	stw	r2,0(r4)
 10066bc:	21000104 	addi	r4,r4,4
 10066c0:	30fffb36 	bltu	r6,r3,10066b0 <__copybits+0x30>
 10066c4:	2140032e 	bgeu	r4,r5,10066d4 <__copybits+0x54>
 10066c8:	20000015 	stw	zero,0(r4)
 10066cc:	21000104 	addi	r4,r4,4
 10066d0:	217ffd36 	bltu	r4,r5,10066c8 <__copybits+0x48>
 10066d4:	f800283a 	ret

010066d8 <__any_on>:
 10066d8:	20800417 	ldw	r2,16(r4)
 10066dc:	2807d17a 	srai	r3,r5,5
 10066e0:	21000504 	addi	r4,r4,20
 10066e4:	10c00d0e 	bge	r2,r3,100671c <__any_on+0x44>
 10066e8:	1085883a 	add	r2,r2,r2
 10066ec:	1085883a 	add	r2,r2,r2
 10066f0:	208d883a 	add	r6,r4,r2
 10066f4:	2180182e 	bgeu	r4,r6,1006758 <__any_on+0x80>
 10066f8:	30bfff17 	ldw	r2,-4(r6)
 10066fc:	30ffff04 	addi	r3,r6,-4
 1006700:	1000041e 	bne	r2,zero,1006714 <__any_on+0x3c>
 1006704:	20c0142e 	bgeu	r4,r3,1006758 <__any_on+0x80>
 1006708:	18ffff04 	addi	r3,r3,-4
 100670c:	18800017 	ldw	r2,0(r3)
 1006710:	103ffc26 	beq	r2,zero,1006704 <__any_on+0x2c>
 1006714:	00800044 	movi	r2,1
 1006718:	f800283a 	ret
 100671c:	18800a0e 	bge	r3,r2,1006748 <__any_on+0x70>
 1006720:	294007cc 	andi	r5,r5,31
 1006724:	28000826 	beq	r5,zero,1006748 <__any_on+0x70>
 1006728:	18c5883a 	add	r2,r3,r3
 100672c:	1085883a 	add	r2,r2,r2
 1006730:	208d883a 	add	r6,r4,r2
 1006734:	30c00017 	ldw	r3,0(r6)
 1006738:	1944d83a 	srl	r2,r3,r5
 100673c:	1144983a 	sll	r2,r2,r5
 1006740:	18bff41e 	bne	r3,r2,1006714 <__any_on+0x3c>
 1006744:	003feb06 	br	10066f4 <__any_on+0x1c>
 1006748:	18c5883a 	add	r2,r3,r3
 100674c:	1085883a 	add	r2,r2,r2
 1006750:	208d883a 	add	r6,r4,r2
 1006754:	003fe706 	br	10066f4 <__any_on+0x1c>
 1006758:	0005883a 	mov	r2,zero
 100675c:	f800283a 	ret

01006760 <_Balloc>:
 1006760:	20c01317 	ldw	r3,76(r4)
 1006764:	defffb04 	addi	sp,sp,-20
 1006768:	dcc00315 	stw	r19,12(sp)
 100676c:	dc800215 	stw	r18,8(sp)
 1006770:	dfc00415 	stw	ra,16(sp)
 1006774:	2825883a 	mov	r18,r5
 1006778:	dc400115 	stw	r17,4(sp)
 100677c:	dc000015 	stw	r16,0(sp)
 1006780:	2027883a 	mov	r19,r4
 1006784:	01800404 	movi	r6,16
 1006788:	01400104 	movi	r5,4
 100678c:	18001726 	beq	r3,zero,10067ec <_Balloc+0x8c>
 1006790:	01400044 	movi	r5,1
 1006794:	9485883a 	add	r2,r18,r18
 1006798:	2ca2983a 	sll	r17,r5,r18
 100679c:	1085883a 	add	r2,r2,r2
 10067a0:	10c7883a 	add	r3,r2,r3
 10067a4:	1c000017 	ldw	r16,0(r3)
 10067a8:	8c4d883a 	add	r6,r17,r17
 10067ac:	318d883a 	add	r6,r6,r6
 10067b0:	9809883a 	mov	r4,r19
 10067b4:	31800504 	addi	r6,r6,20
 10067b8:	80001226 	beq	r16,zero,1006804 <_Balloc+0xa4>
 10067bc:	80800017 	ldw	r2,0(r16)
 10067c0:	18800015 	stw	r2,0(r3)
 10067c4:	80000415 	stw	zero,16(r16)
 10067c8:	80000315 	stw	zero,12(r16)
 10067cc:	8005883a 	mov	r2,r16
 10067d0:	dfc00417 	ldw	ra,16(sp)
 10067d4:	dcc00317 	ldw	r19,12(sp)
 10067d8:	dc800217 	ldw	r18,8(sp)
 10067dc:	dc400117 	ldw	r17,4(sp)
 10067e0:	dc000017 	ldw	r16,0(sp)
 10067e4:	dec00504 	addi	sp,sp,20
 10067e8:	f800283a 	ret
 10067ec:	1007bc00 	call	1007bc0 <_calloc_r>
 10067f0:	1007883a 	mov	r3,r2
 10067f4:	0021883a 	mov	r16,zero
 10067f8:	98801315 	stw	r2,76(r19)
 10067fc:	103fe41e 	bne	r2,zero,1006790 <_Balloc+0x30>
 1006800:	003ff206 	br	10067cc <_Balloc+0x6c>
 1006804:	1007bc00 	call	1007bc0 <_calloc_r>
 1006808:	103ff026 	beq	r2,zero,10067cc <_Balloc+0x6c>
 100680c:	1021883a 	mov	r16,r2
 1006810:	14800115 	stw	r18,4(r2)
 1006814:	14400215 	stw	r17,8(r2)
 1006818:	003fea06 	br	10067c4 <_Balloc+0x64>

0100681c <__d2b>:
 100681c:	defff504 	addi	sp,sp,-44
 1006820:	dcc00515 	stw	r19,20(sp)
 1006824:	04c00044 	movi	r19,1
 1006828:	dc000215 	stw	r16,8(sp)
 100682c:	2821883a 	mov	r16,r5
 1006830:	980b883a 	mov	r5,r19
 1006834:	ddc00915 	stw	r23,36(sp)
 1006838:	dd800815 	stw	r22,32(sp)
 100683c:	dd400715 	stw	r21,28(sp)
 1006840:	dd000615 	stw	r20,24(sp)
 1006844:	dc800415 	stw	r18,16(sp)
 1006848:	dc400315 	stw	r17,12(sp)
 100684c:	dfc00a15 	stw	ra,40(sp)
 1006850:	3023883a 	mov	r17,r6
 1006854:	382d883a 	mov	r22,r7
 1006858:	ddc00b17 	ldw	r23,44(sp)
 100685c:	10067600 	call	1006760 <_Balloc>
 1006860:	1025883a 	mov	r18,r2
 1006864:	00a00034 	movhi	r2,32768
 1006868:	10bfffc4 	addi	r2,r2,-1
 100686c:	8888703a 	and	r4,r17,r2
 1006870:	202ad53a 	srli	r21,r4,20
 1006874:	00800434 	movhi	r2,16
 1006878:	10bfffc4 	addi	r2,r2,-1
 100687c:	8886703a 	and	r3,r17,r2
 1006880:	a829003a 	cmpeq	r20,r21,zero
 1006884:	800b883a 	mov	r5,r16
 1006888:	d8c00115 	stw	r3,4(sp)
 100688c:	94000504 	addi	r16,r18,20
 1006890:	a000021e 	bne	r20,zero,100689c <__d2b+0x80>
 1006894:	18c00434 	orhi	r3,r3,16
 1006898:	d8c00115 	stw	r3,4(sp)
 100689c:	28002726 	beq	r5,zero,100693c <__d2b+0x120>
 10068a0:	d809883a 	mov	r4,sp
 10068a4:	d9400015 	stw	r5,0(sp)
 10068a8:	10062780 	call	1006278 <__lo0bits>
 10068ac:	100d883a 	mov	r6,r2
 10068b0:	10003526 	beq	r2,zero,1006988 <__d2b+0x16c>
 10068b4:	d8c00117 	ldw	r3,4(sp)
 10068b8:	00800804 	movi	r2,32
 10068bc:	1185c83a 	sub	r2,r2,r6
 10068c0:	d9000017 	ldw	r4,0(sp)
 10068c4:	1886983a 	sll	r3,r3,r2
 10068c8:	1906b03a 	or	r3,r3,r4
 10068cc:	90c00515 	stw	r3,20(r18)
 10068d0:	d8c00117 	ldw	r3,4(sp)
 10068d4:	1986d83a 	srl	r3,r3,r6
 10068d8:	d8c00115 	stw	r3,4(sp)
 10068dc:	180b003a 	cmpeq	r5,r3,zero
 10068e0:	00800084 	movi	r2,2
 10068e4:	114bc83a 	sub	r5,r2,r5
 10068e8:	80c00115 	stw	r3,4(r16)
 10068ec:	91400415 	stw	r5,16(r18)
 10068f0:	a0001a1e 	bne	r20,zero,100695c <__d2b+0x140>
 10068f4:	3545883a 	add	r2,r6,r21
 10068f8:	10bef344 	addi	r2,r2,-1075
 10068fc:	00c00d44 	movi	r3,53
 1006900:	b0800015 	stw	r2,0(r22)
 1006904:	1987c83a 	sub	r3,r3,r6
 1006908:	b8c00015 	stw	r3,0(r23)
 100690c:	9005883a 	mov	r2,r18
 1006910:	dfc00a17 	ldw	ra,40(sp)
 1006914:	ddc00917 	ldw	r23,36(sp)
 1006918:	dd800817 	ldw	r22,32(sp)
 100691c:	dd400717 	ldw	r21,28(sp)
 1006920:	dd000617 	ldw	r20,24(sp)
 1006924:	dcc00517 	ldw	r19,20(sp)
 1006928:	dc800417 	ldw	r18,16(sp)
 100692c:	dc400317 	ldw	r17,12(sp)
 1006930:	dc000217 	ldw	r16,8(sp)
 1006934:	dec00b04 	addi	sp,sp,44
 1006938:	f800283a 	ret
 100693c:	d9000104 	addi	r4,sp,4
 1006940:	10062780 	call	1006278 <__lo0bits>
 1006944:	11800804 	addi	r6,r2,32
 1006948:	d8800117 	ldw	r2,4(sp)
 100694c:	94c00415 	stw	r19,16(r18)
 1006950:	980b883a 	mov	r5,r19
 1006954:	90800515 	stw	r2,20(r18)
 1006958:	a03fe626 	beq	r20,zero,10068f4 <__d2b+0xd8>
 100695c:	2945883a 	add	r2,r5,r5
 1006960:	1085883a 	add	r2,r2,r2
 1006964:	1405883a 	add	r2,r2,r16
 1006968:	113fff17 	ldw	r4,-4(r2)
 100696c:	30fef384 	addi	r3,r6,-1074
 1006970:	2820917a 	slli	r16,r5,5
 1006974:	b0c00015 	stw	r3,0(r22)
 1006978:	10062080 	call	1006208 <__hi0bits>
 100697c:	80a1c83a 	sub	r16,r16,r2
 1006980:	bc000015 	stw	r16,0(r23)
 1006984:	003fe106 	br	100690c <__d2b+0xf0>
 1006988:	d8800017 	ldw	r2,0(sp)
 100698c:	90800515 	stw	r2,20(r18)
 1006990:	d8c00117 	ldw	r3,4(sp)
 1006994:	003fd106 	br	10068dc <__d2b+0xc0>

01006998 <__mdiff>:
 1006998:	defffb04 	addi	sp,sp,-20
 100699c:	dc000015 	stw	r16,0(sp)
 10069a0:	2821883a 	mov	r16,r5
 10069a4:	dc800215 	stw	r18,8(sp)
 10069a8:	300b883a 	mov	r5,r6
 10069ac:	2025883a 	mov	r18,r4
 10069b0:	8009883a 	mov	r4,r16
 10069b4:	dc400115 	stw	r17,4(sp)
 10069b8:	dfc00415 	stw	ra,16(sp)
 10069bc:	dcc00315 	stw	r19,12(sp)
 10069c0:	3023883a 	mov	r17,r6
 10069c4:	100633c0 	call	100633c <__mcmp>
 10069c8:	10004226 	beq	r2,zero,1006ad4 <__mdiff+0x13c>
 10069cc:	10005016 	blt	r2,zero,1006b10 <__mdiff+0x178>
 10069d0:	0027883a 	mov	r19,zero
 10069d4:	81400117 	ldw	r5,4(r16)
 10069d8:	9009883a 	mov	r4,r18
 10069dc:	10067600 	call	1006760 <_Balloc>
 10069e0:	1019883a 	mov	r12,r2
 10069e4:	82800417 	ldw	r10,16(r16)
 10069e8:	88800417 	ldw	r2,16(r17)
 10069ec:	81800504 	addi	r6,r16,20
 10069f0:	5287883a 	add	r3,r10,r10
 10069f4:	1085883a 	add	r2,r2,r2
 10069f8:	18c7883a 	add	r3,r3,r3
 10069fc:	1085883a 	add	r2,r2,r2
 1006a00:	8a000504 	addi	r8,r17,20
 1006a04:	64c00315 	stw	r19,12(r12)
 1006a08:	30db883a 	add	r13,r6,r3
 1006a0c:	4097883a 	add	r11,r8,r2
 1006a10:	61c00504 	addi	r7,r12,20
 1006a14:	0013883a 	mov	r9,zero
 1006a18:	31000017 	ldw	r4,0(r6)
 1006a1c:	41400017 	ldw	r5,0(r8)
 1006a20:	42000104 	addi	r8,r8,4
 1006a24:	20bfffcc 	andi	r2,r4,65535
 1006a28:	28ffffcc 	andi	r3,r5,65535
 1006a2c:	10c5c83a 	sub	r2,r2,r3
 1006a30:	1245883a 	add	r2,r2,r9
 1006a34:	2008d43a 	srli	r4,r4,16
 1006a38:	280ad43a 	srli	r5,r5,16
 1006a3c:	1007d43a 	srai	r3,r2,16
 1006a40:	3880000d 	sth	r2,0(r7)
 1006a44:	2149c83a 	sub	r4,r4,r5
 1006a48:	20c9883a 	add	r4,r4,r3
 1006a4c:	3900008d 	sth	r4,2(r7)
 1006a50:	31800104 	addi	r6,r6,4
 1006a54:	39c00104 	addi	r7,r7,4
 1006a58:	2013d43a 	srai	r9,r4,16
 1006a5c:	42ffee36 	bltu	r8,r11,1006a18 <__mdiff+0x80>
 1006a60:	33400c2e 	bgeu	r6,r13,1006a94 <__mdiff+0xfc>
 1006a64:	30800017 	ldw	r2,0(r6)
 1006a68:	31800104 	addi	r6,r6,4
 1006a6c:	10ffffcc 	andi	r3,r2,65535
 1006a70:	1a47883a 	add	r3,r3,r9
 1006a74:	1004d43a 	srli	r2,r2,16
 1006a78:	1809d43a 	srai	r4,r3,16
 1006a7c:	38c0000d 	sth	r3,0(r7)
 1006a80:	1105883a 	add	r2,r2,r4
 1006a84:	3880008d 	sth	r2,2(r7)
 1006a88:	1013d43a 	srai	r9,r2,16
 1006a8c:	39c00104 	addi	r7,r7,4
 1006a90:	337ff436 	bltu	r6,r13,1006a64 <__mdiff+0xcc>
 1006a94:	38bfff17 	ldw	r2,-4(r7)
 1006a98:	38ffff04 	addi	r3,r7,-4
 1006a9c:	1000041e 	bne	r2,zero,1006ab0 <__mdiff+0x118>
 1006aa0:	18ffff04 	addi	r3,r3,-4
 1006aa4:	18800017 	ldw	r2,0(r3)
 1006aa8:	52bfffc4 	addi	r10,r10,-1
 1006aac:	103ffc26 	beq	r2,zero,1006aa0 <__mdiff+0x108>
 1006ab0:	6005883a 	mov	r2,r12
 1006ab4:	62800415 	stw	r10,16(r12)
 1006ab8:	dfc00417 	ldw	ra,16(sp)
 1006abc:	dcc00317 	ldw	r19,12(sp)
 1006ac0:	dc800217 	ldw	r18,8(sp)
 1006ac4:	dc400117 	ldw	r17,4(sp)
 1006ac8:	dc000017 	ldw	r16,0(sp)
 1006acc:	dec00504 	addi	sp,sp,20
 1006ad0:	f800283a 	ret
 1006ad4:	9009883a 	mov	r4,r18
 1006ad8:	000b883a 	mov	r5,zero
 1006adc:	10067600 	call	1006760 <_Balloc>
 1006ae0:	1019883a 	mov	r12,r2
 1006ae4:	00800044 	movi	r2,1
 1006ae8:	60800415 	stw	r2,16(r12)
 1006aec:	6005883a 	mov	r2,r12
 1006af0:	60000515 	stw	zero,20(r12)
 1006af4:	dfc00417 	ldw	ra,16(sp)
 1006af8:	dcc00317 	ldw	r19,12(sp)
 1006afc:	dc800217 	ldw	r18,8(sp)
 1006b00:	dc400117 	ldw	r17,4(sp)
 1006b04:	dc000017 	ldw	r16,0(sp)
 1006b08:	dec00504 	addi	sp,sp,20
 1006b0c:	f800283a 	ret
 1006b10:	880d883a 	mov	r6,r17
 1006b14:	04c00044 	movi	r19,1
 1006b18:	8023883a 	mov	r17,r16
 1006b1c:	3021883a 	mov	r16,r6
 1006b20:	003fac06 	br	10069d4 <__mdiff+0x3c>

01006b24 <__lshift>:
 1006b24:	defff904 	addi	sp,sp,-28
 1006b28:	28800417 	ldw	r2,16(r5)
 1006b2c:	dc000015 	stw	r16,0(sp)
 1006b30:	3021d17a 	srai	r16,r6,5
 1006b34:	28c00217 	ldw	r3,8(r5)
 1006b38:	10800044 	addi	r2,r2,1
 1006b3c:	dc400115 	stw	r17,4(sp)
 1006b40:	80a3883a 	add	r17,r16,r2
 1006b44:	dd400515 	stw	r21,20(sp)
 1006b48:	dd000415 	stw	r20,16(sp)
 1006b4c:	dc800215 	stw	r18,8(sp)
 1006b50:	dfc00615 	stw	ra,24(sp)
 1006b54:	2825883a 	mov	r18,r5
 1006b58:	dcc00315 	stw	r19,12(sp)
 1006b5c:	3029883a 	mov	r20,r6
 1006b60:	202b883a 	mov	r21,r4
 1006b64:	29400117 	ldw	r5,4(r5)
 1006b68:	1c40030e 	bge	r3,r17,1006b78 <__lshift+0x54>
 1006b6c:	18c7883a 	add	r3,r3,r3
 1006b70:	29400044 	addi	r5,r5,1
 1006b74:	1c7ffd16 	blt	r3,r17,1006b6c <__lshift+0x48>
 1006b78:	a809883a 	mov	r4,r21
 1006b7c:	10067600 	call	1006760 <_Balloc>
 1006b80:	1027883a 	mov	r19,r2
 1006b84:	11400504 	addi	r5,r2,20
 1006b88:	0400090e 	bge	zero,r16,1006bb0 <__lshift+0x8c>
 1006b8c:	2805883a 	mov	r2,r5
 1006b90:	0007883a 	mov	r3,zero
 1006b94:	18c00044 	addi	r3,r3,1
 1006b98:	10000015 	stw	zero,0(r2)
 1006b9c:	10800104 	addi	r2,r2,4
 1006ba0:	80fffc1e 	bne	r16,r3,1006b94 <__lshift+0x70>
 1006ba4:	8405883a 	add	r2,r16,r16
 1006ba8:	1085883a 	add	r2,r2,r2
 1006bac:	288b883a 	add	r5,r5,r2
 1006bb0:	90800417 	ldw	r2,16(r18)
 1006bb4:	91000504 	addi	r4,r18,20
 1006bb8:	a18007cc 	andi	r6,r20,31
 1006bbc:	1085883a 	add	r2,r2,r2
 1006bc0:	1085883a 	add	r2,r2,r2
 1006bc4:	208f883a 	add	r7,r4,r2
 1006bc8:	30001e26 	beq	r6,zero,1006c44 <__lshift+0x120>
 1006bcc:	00800804 	movi	r2,32
 1006bd0:	1191c83a 	sub	r8,r2,r6
 1006bd4:	0007883a 	mov	r3,zero
 1006bd8:	20800017 	ldw	r2,0(r4)
 1006bdc:	1184983a 	sll	r2,r2,r6
 1006be0:	1884b03a 	or	r2,r3,r2
 1006be4:	28800015 	stw	r2,0(r5)
 1006be8:	20c00017 	ldw	r3,0(r4)
 1006bec:	21000104 	addi	r4,r4,4
 1006bf0:	29400104 	addi	r5,r5,4
 1006bf4:	1a06d83a 	srl	r3,r3,r8
 1006bf8:	21fff736 	bltu	r4,r7,1006bd8 <__lshift+0xb4>
 1006bfc:	28c00015 	stw	r3,0(r5)
 1006c00:	18000126 	beq	r3,zero,1006c08 <__lshift+0xe4>
 1006c04:	8c400044 	addi	r17,r17,1
 1006c08:	88bfffc4 	addi	r2,r17,-1
 1006c0c:	98800415 	stw	r2,16(r19)
 1006c10:	a809883a 	mov	r4,r21
 1006c14:	900b883a 	mov	r5,r18
 1006c18:	10061e00 	call	10061e0 <_Bfree>
 1006c1c:	9805883a 	mov	r2,r19
 1006c20:	dfc00617 	ldw	ra,24(sp)
 1006c24:	dd400517 	ldw	r21,20(sp)
 1006c28:	dd000417 	ldw	r20,16(sp)
 1006c2c:	dcc00317 	ldw	r19,12(sp)
 1006c30:	dc800217 	ldw	r18,8(sp)
 1006c34:	dc400117 	ldw	r17,4(sp)
 1006c38:	dc000017 	ldw	r16,0(sp)
 1006c3c:	dec00704 	addi	sp,sp,28
 1006c40:	f800283a 	ret
 1006c44:	20800017 	ldw	r2,0(r4)
 1006c48:	21000104 	addi	r4,r4,4
 1006c4c:	28800015 	stw	r2,0(r5)
 1006c50:	29400104 	addi	r5,r5,4
 1006c54:	21ffec2e 	bgeu	r4,r7,1006c08 <__lshift+0xe4>
 1006c58:	20800017 	ldw	r2,0(r4)
 1006c5c:	21000104 	addi	r4,r4,4
 1006c60:	28800015 	stw	r2,0(r5)
 1006c64:	29400104 	addi	r5,r5,4
 1006c68:	21fff636 	bltu	r4,r7,1006c44 <__lshift+0x120>
 1006c6c:	003fe606 	br	1006c08 <__lshift+0xe4>

01006c70 <__multiply>:
 1006c70:	defff004 	addi	sp,sp,-64
 1006c74:	dc800815 	stw	r18,32(sp)
 1006c78:	dc400715 	stw	r17,28(sp)
 1006c7c:	2c800417 	ldw	r18,16(r5)
 1006c80:	34400417 	ldw	r17,16(r6)
 1006c84:	dcc00915 	stw	r19,36(sp)
 1006c88:	dc000615 	stw	r16,24(sp)
 1006c8c:	dfc00f15 	stw	ra,60(sp)
 1006c90:	df000e15 	stw	fp,56(sp)
 1006c94:	ddc00d15 	stw	r23,52(sp)
 1006c98:	dd800c15 	stw	r22,48(sp)
 1006c9c:	dd400b15 	stw	r21,44(sp)
 1006ca0:	dd000a15 	stw	r20,40(sp)
 1006ca4:	2821883a 	mov	r16,r5
 1006ca8:	3027883a 	mov	r19,r6
 1006cac:	9440040e 	bge	r18,r17,1006cc0 <__multiply+0x50>
 1006cb0:	8825883a 	mov	r18,r17
 1006cb4:	2c400417 	ldw	r17,16(r5)
 1006cb8:	2827883a 	mov	r19,r5
 1006cbc:	3021883a 	mov	r16,r6
 1006cc0:	80800217 	ldw	r2,8(r16)
 1006cc4:	9447883a 	add	r3,r18,r17
 1006cc8:	d8c00415 	stw	r3,16(sp)
 1006ccc:	81400117 	ldw	r5,4(r16)
 1006cd0:	10c0010e 	bge	r2,r3,1006cd8 <__multiply+0x68>
 1006cd4:	29400044 	addi	r5,r5,1
 1006cd8:	10067600 	call	1006760 <_Balloc>
 1006cdc:	d8800515 	stw	r2,20(sp)
 1006ce0:	d9000417 	ldw	r4,16(sp)
 1006ce4:	d8c00517 	ldw	r3,20(sp)
 1006ce8:	2105883a 	add	r2,r4,r4
 1006cec:	1085883a 	add	r2,r2,r2
 1006cf0:	19000504 	addi	r4,r3,20
 1006cf4:	2085883a 	add	r2,r4,r2
 1006cf8:	d8800315 	stw	r2,12(sp)
 1006cfc:	2080052e 	bgeu	r4,r2,1006d14 <__multiply+0xa4>
 1006d00:	2005883a 	mov	r2,r4
 1006d04:	d8c00317 	ldw	r3,12(sp)
 1006d08:	10000015 	stw	zero,0(r2)
 1006d0c:	10800104 	addi	r2,r2,4
 1006d10:	10fffc36 	bltu	r2,r3,1006d04 <__multiply+0x94>
 1006d14:	8c45883a 	add	r2,r17,r17
 1006d18:	9487883a 	add	r3,r18,r18
 1006d1c:	9dc00504 	addi	r23,r19,20
 1006d20:	1085883a 	add	r2,r2,r2
 1006d24:	84000504 	addi	r16,r16,20
 1006d28:	18c7883a 	add	r3,r3,r3
 1006d2c:	b885883a 	add	r2,r23,r2
 1006d30:	dc000015 	stw	r16,0(sp)
 1006d34:	d8800215 	stw	r2,8(sp)
 1006d38:	80f9883a 	add	fp,r16,r3
 1006d3c:	b880432e 	bgeu	r23,r2,1006e4c <__multiply+0x1dc>
 1006d40:	d9000115 	stw	r4,4(sp)
 1006d44:	b9000017 	ldw	r4,0(r23)
 1006d48:	253fffcc 	andi	r20,r4,65535
 1006d4c:	a0001a26 	beq	r20,zero,1006db8 <__multiply+0x148>
 1006d50:	dcc00017 	ldw	r19,0(sp)
 1006d54:	dc800117 	ldw	r18,4(sp)
 1006d58:	002b883a 	mov	r21,zero
 1006d5c:	9c400017 	ldw	r17,0(r19)
 1006d60:	94000017 	ldw	r16,0(r18)
 1006d64:	a009883a 	mov	r4,r20
 1006d68:	897fffcc 	andi	r5,r17,65535
 1006d6c:	1009f0c0 	call	1009f0c <__mulsi3>
 1006d70:	880ad43a 	srli	r5,r17,16
 1006d74:	80ffffcc 	andi	r3,r16,65535
 1006d78:	a8c7883a 	add	r3,r21,r3
 1006d7c:	a009883a 	mov	r4,r20
 1006d80:	10e3883a 	add	r17,r2,r3
 1006d84:	8020d43a 	srli	r16,r16,16
 1006d88:	1009f0c0 	call	1009f0c <__mulsi3>
 1006d8c:	8806d43a 	srli	r3,r17,16
 1006d90:	1405883a 	add	r2,r2,r16
 1006d94:	9cc00104 	addi	r19,r19,4
 1006d98:	1887883a 	add	r3,r3,r2
 1006d9c:	90c0008d 	sth	r3,2(r18)
 1006da0:	9440000d 	sth	r17,0(r18)
 1006da4:	182ad43a 	srli	r21,r3,16
 1006da8:	94800104 	addi	r18,r18,4
 1006dac:	9f3feb36 	bltu	r19,fp,1006d5c <__multiply+0xec>
 1006db0:	95400015 	stw	r21,0(r18)
 1006db4:	b9000017 	ldw	r4,0(r23)
 1006db8:	202ad43a 	srli	r21,r4,16
 1006dbc:	a8001c26 	beq	r21,zero,1006e30 <__multiply+0x1c0>
 1006dc0:	d9000117 	ldw	r4,4(sp)
 1006dc4:	dd000017 	ldw	r20,0(sp)
 1006dc8:	002d883a 	mov	r22,zero
 1006dcc:	24c00017 	ldw	r19,0(r4)
 1006dd0:	2025883a 	mov	r18,r4
 1006dd4:	9823883a 	mov	r17,r19
 1006dd8:	a4000017 	ldw	r16,0(r20)
 1006ddc:	a809883a 	mov	r4,r21
 1006de0:	a5000104 	addi	r20,r20,4
 1006de4:	817fffcc 	andi	r5,r16,65535
 1006de8:	1009f0c0 	call	1009f0c <__mulsi3>
 1006dec:	8806d43a 	srli	r3,r17,16
 1006df0:	800ad43a 	srli	r5,r16,16
 1006df4:	94c0000d 	sth	r19,0(r18)
 1006df8:	b0c7883a 	add	r3,r22,r3
 1006dfc:	10e1883a 	add	r16,r2,r3
 1006e00:	9400008d 	sth	r16,2(r18)
 1006e04:	a809883a 	mov	r4,r21
 1006e08:	94800104 	addi	r18,r18,4
 1006e0c:	1009f0c0 	call	1009f0c <__mulsi3>
 1006e10:	94400017 	ldw	r17,0(r18)
 1006e14:	8020d43a 	srli	r16,r16,16
 1006e18:	88ffffcc 	andi	r3,r17,65535
 1006e1c:	10c5883a 	add	r2,r2,r3
 1006e20:	80a7883a 	add	r19,r16,r2
 1006e24:	982cd43a 	srli	r22,r19,16
 1006e28:	a73feb36 	bltu	r20,fp,1006dd8 <__multiply+0x168>
 1006e2c:	94c00015 	stw	r19,0(r18)
 1006e30:	d8800217 	ldw	r2,8(sp)
 1006e34:	bdc00104 	addi	r23,r23,4
 1006e38:	b880042e 	bgeu	r23,r2,1006e4c <__multiply+0x1dc>
 1006e3c:	d8c00117 	ldw	r3,4(sp)
 1006e40:	18c00104 	addi	r3,r3,4
 1006e44:	d8c00115 	stw	r3,4(sp)
 1006e48:	003fbe06 	br	1006d44 <__multiply+0xd4>
 1006e4c:	d9000417 	ldw	r4,16(sp)
 1006e50:	01000c0e 	bge	zero,r4,1006e84 <__multiply+0x214>
 1006e54:	d8c00317 	ldw	r3,12(sp)
 1006e58:	18bfff17 	ldw	r2,-4(r3)
 1006e5c:	18ffff04 	addi	r3,r3,-4
 1006e60:	10000326 	beq	r2,zero,1006e70 <__multiply+0x200>
 1006e64:	00000706 	br	1006e84 <__multiply+0x214>
 1006e68:	18800017 	ldw	r2,0(r3)
 1006e6c:	1000051e 	bne	r2,zero,1006e84 <__multiply+0x214>
 1006e70:	d9000417 	ldw	r4,16(sp)
 1006e74:	18ffff04 	addi	r3,r3,-4
 1006e78:	213fffc4 	addi	r4,r4,-1
 1006e7c:	d9000415 	stw	r4,16(sp)
 1006e80:	203ff91e 	bne	r4,zero,1006e68 <__multiply+0x1f8>
 1006e84:	d8800417 	ldw	r2,16(sp)
 1006e88:	d8c00517 	ldw	r3,20(sp)
 1006e8c:	18800415 	stw	r2,16(r3)
 1006e90:	1805883a 	mov	r2,r3
 1006e94:	dfc00f17 	ldw	ra,60(sp)
 1006e98:	df000e17 	ldw	fp,56(sp)
 1006e9c:	ddc00d17 	ldw	r23,52(sp)
 1006ea0:	dd800c17 	ldw	r22,48(sp)
 1006ea4:	dd400b17 	ldw	r21,44(sp)
 1006ea8:	dd000a17 	ldw	r20,40(sp)
 1006eac:	dcc00917 	ldw	r19,36(sp)
 1006eb0:	dc800817 	ldw	r18,32(sp)
 1006eb4:	dc400717 	ldw	r17,28(sp)
 1006eb8:	dc000617 	ldw	r16,24(sp)
 1006ebc:	dec01004 	addi	sp,sp,64
 1006ec0:	f800283a 	ret

01006ec4 <__i2b>:
 1006ec4:	defffd04 	addi	sp,sp,-12
 1006ec8:	dc000015 	stw	r16,0(sp)
 1006ecc:	04000044 	movi	r16,1
 1006ed0:	dc800115 	stw	r18,4(sp)
 1006ed4:	2825883a 	mov	r18,r5
 1006ed8:	800b883a 	mov	r5,r16
 1006edc:	dfc00215 	stw	ra,8(sp)
 1006ee0:	10067600 	call	1006760 <_Balloc>
 1006ee4:	14000415 	stw	r16,16(r2)
 1006ee8:	14800515 	stw	r18,20(r2)
 1006eec:	dfc00217 	ldw	ra,8(sp)
 1006ef0:	dc800117 	ldw	r18,4(sp)
 1006ef4:	dc000017 	ldw	r16,0(sp)
 1006ef8:	dec00304 	addi	sp,sp,12
 1006efc:	f800283a 	ret

01006f00 <__multadd>:
 1006f00:	defff604 	addi	sp,sp,-40
 1006f04:	dd800615 	stw	r22,24(sp)
 1006f08:	2d800417 	ldw	r22,16(r5)
 1006f0c:	df000815 	stw	fp,32(sp)
 1006f10:	ddc00715 	stw	r23,28(sp)
 1006f14:	dd400515 	stw	r21,20(sp)
 1006f18:	dd000415 	stw	r20,16(sp)
 1006f1c:	dcc00315 	stw	r19,12(sp)
 1006f20:	dc800215 	stw	r18,8(sp)
 1006f24:	dfc00915 	stw	ra,36(sp)
 1006f28:	dc400115 	stw	r17,4(sp)
 1006f2c:	dc000015 	stw	r16,0(sp)
 1006f30:	282f883a 	mov	r23,r5
 1006f34:	2039883a 	mov	fp,r4
 1006f38:	302b883a 	mov	r21,r6
 1006f3c:	3829883a 	mov	r20,r7
 1006f40:	2c800504 	addi	r18,r5,20
 1006f44:	0027883a 	mov	r19,zero
 1006f48:	94400017 	ldw	r17,0(r18)
 1006f4c:	a80b883a 	mov	r5,r21
 1006f50:	9cc00044 	addi	r19,r19,1
 1006f54:	893fffcc 	andi	r4,r17,65535
 1006f58:	1009f0c0 	call	1009f0c <__mulsi3>
 1006f5c:	8808d43a 	srli	r4,r17,16
 1006f60:	1521883a 	add	r16,r2,r20
 1006f64:	a80b883a 	mov	r5,r21
 1006f68:	1009f0c0 	call	1009f0c <__mulsi3>
 1006f6c:	8008d43a 	srli	r4,r16,16
 1006f70:	843fffcc 	andi	r16,r16,65535
 1006f74:	1105883a 	add	r2,r2,r4
 1006f78:	1006943a 	slli	r3,r2,16
 1006f7c:	1028d43a 	srli	r20,r2,16
 1006f80:	1c07883a 	add	r3,r3,r16
 1006f84:	90c00015 	stw	r3,0(r18)
 1006f88:	94800104 	addi	r18,r18,4
 1006f8c:	9dbfee16 	blt	r19,r22,1006f48 <__multadd+0x48>
 1006f90:	a0000826 	beq	r20,zero,1006fb4 <__multadd+0xb4>
 1006f94:	b8800217 	ldw	r2,8(r23)
 1006f98:	b080130e 	bge	r22,r2,1006fe8 <__multadd+0xe8>
 1006f9c:	b585883a 	add	r2,r22,r22
 1006fa0:	1085883a 	add	r2,r2,r2
 1006fa4:	15c5883a 	add	r2,r2,r23
 1006fa8:	b0c00044 	addi	r3,r22,1
 1006fac:	15000515 	stw	r20,20(r2)
 1006fb0:	b8c00415 	stw	r3,16(r23)
 1006fb4:	b805883a 	mov	r2,r23
 1006fb8:	dfc00917 	ldw	ra,36(sp)
 1006fbc:	df000817 	ldw	fp,32(sp)
 1006fc0:	ddc00717 	ldw	r23,28(sp)
 1006fc4:	dd800617 	ldw	r22,24(sp)
 1006fc8:	dd400517 	ldw	r21,20(sp)
 1006fcc:	dd000417 	ldw	r20,16(sp)
 1006fd0:	dcc00317 	ldw	r19,12(sp)
 1006fd4:	dc800217 	ldw	r18,8(sp)
 1006fd8:	dc400117 	ldw	r17,4(sp)
 1006fdc:	dc000017 	ldw	r16,0(sp)
 1006fe0:	dec00a04 	addi	sp,sp,40
 1006fe4:	f800283a 	ret
 1006fe8:	b9400117 	ldw	r5,4(r23)
 1006fec:	e009883a 	mov	r4,fp
 1006ff0:	29400044 	addi	r5,r5,1
 1006ff4:	10067600 	call	1006760 <_Balloc>
 1006ff8:	b9800417 	ldw	r6,16(r23)
 1006ffc:	b9400304 	addi	r5,r23,12
 1007000:	11000304 	addi	r4,r2,12
 1007004:	318d883a 	add	r6,r6,r6
 1007008:	318d883a 	add	r6,r6,r6
 100700c:	31800204 	addi	r6,r6,8
 1007010:	1023883a 	mov	r17,r2
 1007014:	1005fc80 	call	1005fc8 <memcpy>
 1007018:	b80b883a 	mov	r5,r23
 100701c:	e009883a 	mov	r4,fp
 1007020:	10061e00 	call	10061e0 <_Bfree>
 1007024:	882f883a 	mov	r23,r17
 1007028:	003fdc06 	br	1006f9c <__multadd+0x9c>

0100702c <__pow5mult>:
 100702c:	defffa04 	addi	sp,sp,-24
 1007030:	308000cc 	andi	r2,r6,3
 1007034:	dd000415 	stw	r20,16(sp)
 1007038:	dcc00315 	stw	r19,12(sp)
 100703c:	dc000015 	stw	r16,0(sp)
 1007040:	dfc00515 	stw	ra,20(sp)
 1007044:	dc800215 	stw	r18,8(sp)
 1007048:	dc400115 	stw	r17,4(sp)
 100704c:	3021883a 	mov	r16,r6
 1007050:	2027883a 	mov	r19,r4
 1007054:	2829883a 	mov	r20,r5
 1007058:	10002b1e 	bne	r2,zero,1007108 <__pow5mult+0xdc>
 100705c:	8025d0ba 	srai	r18,r16,2
 1007060:	90001b26 	beq	r18,zero,10070d0 <__pow5mult+0xa4>
 1007064:	9c001217 	ldw	r16,72(r19)
 1007068:	8000081e 	bne	r16,zero,100708c <__pow5mult+0x60>
 100706c:	00003006 	br	1007130 <__pow5mult+0x104>
 1007070:	800b883a 	mov	r5,r16
 1007074:	800d883a 	mov	r6,r16
 1007078:	9809883a 	mov	r4,r19
 100707c:	90001426 	beq	r18,zero,10070d0 <__pow5mult+0xa4>
 1007080:	80800017 	ldw	r2,0(r16)
 1007084:	10001b26 	beq	r2,zero,10070f4 <__pow5mult+0xc8>
 1007088:	1021883a 	mov	r16,r2
 100708c:	9080004c 	andi	r2,r18,1
 1007090:	1005003a 	cmpeq	r2,r2,zero
 1007094:	9025d07a 	srai	r18,r18,1
 1007098:	800d883a 	mov	r6,r16
 100709c:	9809883a 	mov	r4,r19
 10070a0:	a00b883a 	mov	r5,r20
 10070a4:	103ff21e 	bne	r2,zero,1007070 <__pow5mult+0x44>
 10070a8:	1006c700 	call	1006c70 <__multiply>
 10070ac:	a00b883a 	mov	r5,r20
 10070b0:	9809883a 	mov	r4,r19
 10070b4:	1023883a 	mov	r17,r2
 10070b8:	10061e00 	call	10061e0 <_Bfree>
 10070bc:	8829883a 	mov	r20,r17
 10070c0:	800b883a 	mov	r5,r16
 10070c4:	800d883a 	mov	r6,r16
 10070c8:	9809883a 	mov	r4,r19
 10070cc:	903fec1e 	bne	r18,zero,1007080 <__pow5mult+0x54>
 10070d0:	a005883a 	mov	r2,r20
 10070d4:	dfc00517 	ldw	ra,20(sp)
 10070d8:	dd000417 	ldw	r20,16(sp)
 10070dc:	dcc00317 	ldw	r19,12(sp)
 10070e0:	dc800217 	ldw	r18,8(sp)
 10070e4:	dc400117 	ldw	r17,4(sp)
 10070e8:	dc000017 	ldw	r16,0(sp)
 10070ec:	dec00604 	addi	sp,sp,24
 10070f0:	f800283a 	ret
 10070f4:	1006c700 	call	1006c70 <__multiply>
 10070f8:	80800015 	stw	r2,0(r16)
 10070fc:	1021883a 	mov	r16,r2
 1007100:	10000015 	stw	zero,0(r2)
 1007104:	003fe106 	br	100708c <__pow5mult+0x60>
 1007108:	1085883a 	add	r2,r2,r2
 100710c:	00c04074 	movhi	r3,257
 1007110:	18fb2e04 	addi	r3,r3,-4936
 1007114:	1085883a 	add	r2,r2,r2
 1007118:	10c5883a 	add	r2,r2,r3
 100711c:	11bfff17 	ldw	r6,-4(r2)
 1007120:	000f883a 	mov	r7,zero
 1007124:	1006f000 	call	1006f00 <__multadd>
 1007128:	1029883a 	mov	r20,r2
 100712c:	003fcb06 	br	100705c <__pow5mult+0x30>
 1007130:	9809883a 	mov	r4,r19
 1007134:	01409c44 	movi	r5,625
 1007138:	1006ec40 	call	1006ec4 <__i2b>
 100713c:	98801215 	stw	r2,72(r19)
 1007140:	1021883a 	mov	r16,r2
 1007144:	10000015 	stw	zero,0(r2)
 1007148:	003fd006 	br	100708c <__pow5mult+0x60>

0100714c <__s2b>:
 100714c:	defff904 	addi	sp,sp,-28
 1007150:	dcc00315 	stw	r19,12(sp)
 1007154:	dc800215 	stw	r18,8(sp)
 1007158:	2827883a 	mov	r19,r5
 100715c:	2025883a 	mov	r18,r4
 1007160:	01400244 	movi	r5,9
 1007164:	39000204 	addi	r4,r7,8
 1007168:	dd000415 	stw	r20,16(sp)
 100716c:	dc400115 	stw	r17,4(sp)
 1007170:	dfc00615 	stw	ra,24(sp)
 1007174:	dd400515 	stw	r21,20(sp)
 1007178:	dc000015 	stw	r16,0(sp)
 100717c:	3829883a 	mov	r20,r7
 1007180:	3023883a 	mov	r17,r6
 1007184:	1000a540 	call	1000a54 <__divsi3>
 1007188:	00c00044 	movi	r3,1
 100718c:	1880350e 	bge	r3,r2,1007264 <__s2b+0x118>
 1007190:	000b883a 	mov	r5,zero
 1007194:	18c7883a 	add	r3,r3,r3
 1007198:	29400044 	addi	r5,r5,1
 100719c:	18bffd16 	blt	r3,r2,1007194 <__s2b+0x48>
 10071a0:	9009883a 	mov	r4,r18
 10071a4:	10067600 	call	1006760 <_Balloc>
 10071a8:	1011883a 	mov	r8,r2
 10071ac:	d8800717 	ldw	r2,28(sp)
 10071b0:	00c00044 	movi	r3,1
 10071b4:	01800244 	movi	r6,9
 10071b8:	40800515 	stw	r2,20(r8)
 10071bc:	40c00415 	stw	r3,16(r8)
 10071c0:	3440260e 	bge	r6,r17,100725c <__s2b+0x110>
 10071c4:	3021883a 	mov	r16,r6
 10071c8:	99ab883a 	add	r21,r19,r6
 10071cc:	9c05883a 	add	r2,r19,r16
 10071d0:	11c00007 	ldb	r7,0(r2)
 10071d4:	400b883a 	mov	r5,r8
 10071d8:	9009883a 	mov	r4,r18
 10071dc:	39fff404 	addi	r7,r7,-48
 10071e0:	01800284 	movi	r6,10
 10071e4:	1006f000 	call	1006f00 <__multadd>
 10071e8:	84000044 	addi	r16,r16,1
 10071ec:	1011883a 	mov	r8,r2
 10071f0:	8c3ff61e 	bne	r17,r16,10071cc <__s2b+0x80>
 10071f4:	ac45883a 	add	r2,r21,r17
 10071f8:	117ffe04 	addi	r5,r2,-8
 10071fc:	880d883a 	mov	r6,r17
 1007200:	35000c0e 	bge	r6,r20,1007234 <__s2b+0xe8>
 1007204:	a185c83a 	sub	r2,r20,r6
 1007208:	2821883a 	mov	r16,r5
 100720c:	28a3883a 	add	r17,r5,r2
 1007210:	81c00007 	ldb	r7,0(r16)
 1007214:	400b883a 	mov	r5,r8
 1007218:	9009883a 	mov	r4,r18
 100721c:	39fff404 	addi	r7,r7,-48
 1007220:	01800284 	movi	r6,10
 1007224:	1006f000 	call	1006f00 <__multadd>
 1007228:	84000044 	addi	r16,r16,1
 100722c:	1011883a 	mov	r8,r2
 1007230:	847ff71e 	bne	r16,r17,1007210 <__s2b+0xc4>
 1007234:	4005883a 	mov	r2,r8
 1007238:	dfc00617 	ldw	ra,24(sp)
 100723c:	dd400517 	ldw	r21,20(sp)
 1007240:	dd000417 	ldw	r20,16(sp)
 1007244:	dcc00317 	ldw	r19,12(sp)
 1007248:	dc800217 	ldw	r18,8(sp)
 100724c:	dc400117 	ldw	r17,4(sp)
 1007250:	dc000017 	ldw	r16,0(sp)
 1007254:	dec00704 	addi	sp,sp,28
 1007258:	f800283a 	ret
 100725c:	99400284 	addi	r5,r19,10
 1007260:	003fe706 	br	1007200 <__s2b+0xb4>
 1007264:	000b883a 	mov	r5,zero
 1007268:	003fcd06 	br	10071a0 <__s2b+0x54>

0100726c <_realloc_r>:
 100726c:	defff404 	addi	sp,sp,-48
 1007270:	dd800815 	stw	r22,32(sp)
 1007274:	dc800415 	stw	r18,16(sp)
 1007278:	dc400315 	stw	r17,12(sp)
 100727c:	dfc00b15 	stw	ra,44(sp)
 1007280:	df000a15 	stw	fp,40(sp)
 1007284:	ddc00915 	stw	r23,36(sp)
 1007288:	dd400715 	stw	r21,28(sp)
 100728c:	dd000615 	stw	r20,24(sp)
 1007290:	dcc00515 	stw	r19,20(sp)
 1007294:	dc000215 	stw	r16,8(sp)
 1007298:	2825883a 	mov	r18,r5
 100729c:	3023883a 	mov	r17,r6
 10072a0:	202d883a 	mov	r22,r4
 10072a4:	2800c926 	beq	r5,zero,10075cc <_realloc_r+0x360>
 10072a8:	100ab6c0 	call	100ab6c <__malloc_lock>
 10072ac:	943ffe04 	addi	r16,r18,-8
 10072b0:	88c002c4 	addi	r3,r17,11
 10072b4:	00800584 	movi	r2,22
 10072b8:	82000117 	ldw	r8,4(r16)
 10072bc:	10c01b2e 	bgeu	r2,r3,100732c <_realloc_r+0xc0>
 10072c0:	00bffe04 	movi	r2,-8
 10072c4:	188e703a 	and	r7,r3,r2
 10072c8:	3839883a 	mov	fp,r7
 10072cc:	38001a16 	blt	r7,zero,1007338 <_realloc_r+0xcc>
 10072d0:	e4401936 	bltu	fp,r17,1007338 <_realloc_r+0xcc>
 10072d4:	013fff04 	movi	r4,-4
 10072d8:	4126703a 	and	r19,r8,r4
 10072dc:	99c02616 	blt	r19,r7,1007378 <_realloc_r+0x10c>
 10072e0:	802b883a 	mov	r21,r16
 10072e4:	9829883a 	mov	r20,r19
 10072e8:	84000204 	addi	r16,r16,8
 10072ec:	a80f883a 	mov	r7,r21
 10072f0:	a70dc83a 	sub	r6,r20,fp
 10072f4:	008003c4 	movi	r2,15
 10072f8:	1180c136 	bltu	r2,r6,1007600 <_realloc_r+0x394>
 10072fc:	38800117 	ldw	r2,4(r7)
 1007300:	a549883a 	add	r4,r20,r21
 1007304:	1080004c 	andi	r2,r2,1
 1007308:	a084b03a 	or	r2,r20,r2
 100730c:	38800115 	stw	r2,4(r7)
 1007310:	20c00117 	ldw	r3,4(r4)
 1007314:	18c00054 	ori	r3,r3,1
 1007318:	20c00115 	stw	r3,4(r4)
 100731c:	b009883a 	mov	r4,r22
 1007320:	100ab8c0 	call	100ab8c <__malloc_unlock>
 1007324:	8023883a 	mov	r17,r16
 1007328:	00000606 	br	1007344 <_realloc_r+0xd8>
 100732c:	01c00404 	movi	r7,16
 1007330:	3839883a 	mov	fp,r7
 1007334:	e47fe72e 	bgeu	fp,r17,10072d4 <_realloc_r+0x68>
 1007338:	00800304 	movi	r2,12
 100733c:	0023883a 	mov	r17,zero
 1007340:	b0800015 	stw	r2,0(r22)
 1007344:	8805883a 	mov	r2,r17
 1007348:	dfc00b17 	ldw	ra,44(sp)
 100734c:	df000a17 	ldw	fp,40(sp)
 1007350:	ddc00917 	ldw	r23,36(sp)
 1007354:	dd800817 	ldw	r22,32(sp)
 1007358:	dd400717 	ldw	r21,28(sp)
 100735c:	dd000617 	ldw	r20,24(sp)
 1007360:	dcc00517 	ldw	r19,20(sp)
 1007364:	dc800417 	ldw	r18,16(sp)
 1007368:	dc400317 	ldw	r17,12(sp)
 100736c:	dc000217 	ldw	r16,8(sp)
 1007370:	dec00c04 	addi	sp,sp,48
 1007374:	f800283a 	ret
 1007378:	00804074 	movhi	r2,257
 100737c:	10bca104 	addi	r2,r2,-3452
 1007380:	12400217 	ldw	r9,8(r2)
 1007384:	84cd883a 	add	r6,r16,r19
 1007388:	802b883a 	mov	r21,r16
 100738c:	3240b926 	beq	r6,r9,1007674 <_realloc_r+0x408>
 1007390:	31400117 	ldw	r5,4(r6)
 1007394:	00bfff84 	movi	r2,-2
 1007398:	2884703a 	and	r2,r5,r2
 100739c:	1185883a 	add	r2,r2,r6
 10073a0:	10c00117 	ldw	r3,4(r2)
 10073a4:	18c0004c 	andi	r3,r3,1
 10073a8:	1807003a 	cmpeq	r3,r3,zero
 10073ac:	1800a326 	beq	r3,zero,100763c <_realloc_r+0x3d0>
 10073b0:	2908703a 	and	r4,r5,r4
 10073b4:	9929883a 	add	r20,r19,r4
 10073b8:	a1c0a30e 	bge	r20,r7,1007648 <_realloc_r+0x3dc>
 10073bc:	4080004c 	andi	r2,r8,1
 10073c0:	1000551e 	bne	r2,zero,1007518 <_realloc_r+0x2ac>
 10073c4:	80800017 	ldw	r2,0(r16)
 10073c8:	80afc83a 	sub	r23,r16,r2
 10073cc:	b8c00117 	ldw	r3,4(r23)
 10073d0:	00bfff04 	movi	r2,-4
 10073d4:	1884703a 	and	r2,r3,r2
 10073d8:	30002e26 	beq	r6,zero,1007494 <_realloc_r+0x228>
 10073dc:	3240b926 	beq	r6,r9,10076c4 <_realloc_r+0x458>
 10073e0:	98a9883a 	add	r20,r19,r2
 10073e4:	2509883a 	add	r4,r4,r20
 10073e8:	d9000015 	stw	r4,0(sp)
 10073ec:	21c02a16 	blt	r4,r7,1007498 <_realloc_r+0x22c>
 10073f0:	30800317 	ldw	r2,12(r6)
 10073f4:	30c00217 	ldw	r3,8(r6)
 10073f8:	01400904 	movi	r5,36
 10073fc:	99bfff04 	addi	r6,r19,-4
 1007400:	18800315 	stw	r2,12(r3)
 1007404:	10c00215 	stw	r3,8(r2)
 1007408:	b9000317 	ldw	r4,12(r23)
 100740c:	b8800217 	ldw	r2,8(r23)
 1007410:	b82b883a 	mov	r21,r23
 1007414:	bc000204 	addi	r16,r23,8
 1007418:	20800215 	stw	r2,8(r4)
 100741c:	11000315 	stw	r4,12(r2)
 1007420:	2980e436 	bltu	r5,r6,10077b4 <_realloc_r+0x548>
 1007424:	008004c4 	movi	r2,19
 1007428:	9009883a 	mov	r4,r18
 100742c:	8011883a 	mov	r8,r16
 1007430:	11800f2e 	bgeu	r2,r6,1007470 <_realloc_r+0x204>
 1007434:	90800017 	ldw	r2,0(r18)
 1007438:	ba000404 	addi	r8,r23,16
 100743c:	91000204 	addi	r4,r18,8
 1007440:	b8800215 	stw	r2,8(r23)
 1007444:	90c00117 	ldw	r3,4(r18)
 1007448:	008006c4 	movi	r2,27
 100744c:	b8c00315 	stw	r3,12(r23)
 1007450:	1180072e 	bgeu	r2,r6,1007470 <_realloc_r+0x204>
 1007454:	90c00217 	ldw	r3,8(r18)
 1007458:	ba000604 	addi	r8,r23,24
 100745c:	91000404 	addi	r4,r18,16
 1007460:	b8c00415 	stw	r3,16(r23)
 1007464:	90800317 	ldw	r2,12(r18)
 1007468:	b8800515 	stw	r2,20(r23)
 100746c:	3140e726 	beq	r6,r5,100780c <_realloc_r+0x5a0>
 1007470:	20800017 	ldw	r2,0(r4)
 1007474:	dd000017 	ldw	r20,0(sp)
 1007478:	b80f883a 	mov	r7,r23
 100747c:	40800015 	stw	r2,0(r8)
 1007480:	20c00117 	ldw	r3,4(r4)
 1007484:	40c00115 	stw	r3,4(r8)
 1007488:	20800217 	ldw	r2,8(r4)
 100748c:	40800215 	stw	r2,8(r8)
 1007490:	003f9706 	br	10072f0 <_realloc_r+0x84>
 1007494:	98a9883a 	add	r20,r19,r2
 1007498:	a1c01f16 	blt	r20,r7,1007518 <_realloc_r+0x2ac>
 100749c:	b8c00317 	ldw	r3,12(r23)
 10074a0:	b8800217 	ldw	r2,8(r23)
 10074a4:	99bfff04 	addi	r6,r19,-4
 10074a8:	01400904 	movi	r5,36
 10074ac:	b82b883a 	mov	r21,r23
 10074b0:	18800215 	stw	r2,8(r3)
 10074b4:	10c00315 	stw	r3,12(r2)
 10074b8:	bc000204 	addi	r16,r23,8
 10074bc:	2980c336 	bltu	r5,r6,10077cc <_realloc_r+0x560>
 10074c0:	008004c4 	movi	r2,19
 10074c4:	9009883a 	mov	r4,r18
 10074c8:	8011883a 	mov	r8,r16
 10074cc:	11800f2e 	bgeu	r2,r6,100750c <_realloc_r+0x2a0>
 10074d0:	90800017 	ldw	r2,0(r18)
 10074d4:	ba000404 	addi	r8,r23,16
 10074d8:	91000204 	addi	r4,r18,8
 10074dc:	b8800215 	stw	r2,8(r23)
 10074e0:	90c00117 	ldw	r3,4(r18)
 10074e4:	008006c4 	movi	r2,27
 10074e8:	b8c00315 	stw	r3,12(r23)
 10074ec:	1180072e 	bgeu	r2,r6,100750c <_realloc_r+0x2a0>
 10074f0:	90c00217 	ldw	r3,8(r18)
 10074f4:	ba000604 	addi	r8,r23,24
 10074f8:	91000404 	addi	r4,r18,16
 10074fc:	b8c00415 	stw	r3,16(r23)
 1007500:	90800317 	ldw	r2,12(r18)
 1007504:	b8800515 	stw	r2,20(r23)
 1007508:	3140c726 	beq	r6,r5,1007828 <_realloc_r+0x5bc>
 100750c:	20800017 	ldw	r2,0(r4)
 1007510:	b80f883a 	mov	r7,r23
 1007514:	003fd906 	br	100747c <_realloc_r+0x210>
 1007518:	880b883a 	mov	r5,r17
 100751c:	b009883a 	mov	r4,r22
 1007520:	10057a40 	call	10057a4 <_malloc_r>
 1007524:	1023883a 	mov	r17,r2
 1007528:	10002526 	beq	r2,zero,10075c0 <_realloc_r+0x354>
 100752c:	80800117 	ldw	r2,4(r16)
 1007530:	00ffff84 	movi	r3,-2
 1007534:	893ffe04 	addi	r4,r17,-8
 1007538:	10c4703a 	and	r2,r2,r3
 100753c:	8085883a 	add	r2,r16,r2
 1007540:	20809526 	beq	r4,r2,1007798 <_realloc_r+0x52c>
 1007544:	99bfff04 	addi	r6,r19,-4
 1007548:	01c00904 	movi	r7,36
 100754c:	39804536 	bltu	r7,r6,1007664 <_realloc_r+0x3f8>
 1007550:	008004c4 	movi	r2,19
 1007554:	9009883a 	mov	r4,r18
 1007558:	880b883a 	mov	r5,r17
 100755c:	11800f2e 	bgeu	r2,r6,100759c <_realloc_r+0x330>
 1007560:	90800017 	ldw	r2,0(r18)
 1007564:	89400204 	addi	r5,r17,8
 1007568:	91000204 	addi	r4,r18,8
 100756c:	88800015 	stw	r2,0(r17)
 1007570:	90c00117 	ldw	r3,4(r18)
 1007574:	008006c4 	movi	r2,27
 1007578:	88c00115 	stw	r3,4(r17)
 100757c:	1180072e 	bgeu	r2,r6,100759c <_realloc_r+0x330>
 1007580:	90c00217 	ldw	r3,8(r18)
 1007584:	89400404 	addi	r5,r17,16
 1007588:	91000404 	addi	r4,r18,16
 100758c:	88c00215 	stw	r3,8(r17)
 1007590:	90800317 	ldw	r2,12(r18)
 1007594:	88800315 	stw	r2,12(r17)
 1007598:	31c09126 	beq	r6,r7,10077e0 <_realloc_r+0x574>
 100759c:	20800017 	ldw	r2,0(r4)
 10075a0:	28800015 	stw	r2,0(r5)
 10075a4:	20c00117 	ldw	r3,4(r4)
 10075a8:	28c00115 	stw	r3,4(r5)
 10075ac:	20800217 	ldw	r2,8(r4)
 10075b0:	28800215 	stw	r2,8(r5)
 10075b4:	900b883a 	mov	r5,r18
 10075b8:	b009883a 	mov	r4,r22
 10075bc:	1004c1c0 	call	1004c1c <_free_r>
 10075c0:	b009883a 	mov	r4,r22
 10075c4:	100ab8c0 	call	100ab8c <__malloc_unlock>
 10075c8:	003f5e06 	br	1007344 <_realloc_r+0xd8>
 10075cc:	300b883a 	mov	r5,r6
 10075d0:	dfc00b17 	ldw	ra,44(sp)
 10075d4:	df000a17 	ldw	fp,40(sp)
 10075d8:	ddc00917 	ldw	r23,36(sp)
 10075dc:	dd800817 	ldw	r22,32(sp)
 10075e0:	dd400717 	ldw	r21,28(sp)
 10075e4:	dd000617 	ldw	r20,24(sp)
 10075e8:	dcc00517 	ldw	r19,20(sp)
 10075ec:	dc800417 	ldw	r18,16(sp)
 10075f0:	dc400317 	ldw	r17,12(sp)
 10075f4:	dc000217 	ldw	r16,8(sp)
 10075f8:	dec00c04 	addi	sp,sp,48
 10075fc:	10057a41 	jmpi	10057a4 <_malloc_r>
 1007600:	38800117 	ldw	r2,4(r7)
 1007604:	e54b883a 	add	r5,fp,r21
 1007608:	31000054 	ori	r4,r6,1
 100760c:	1080004c 	andi	r2,r2,1
 1007610:	1704b03a 	or	r2,r2,fp
 1007614:	38800115 	stw	r2,4(r7)
 1007618:	29000115 	stw	r4,4(r5)
 100761c:	2987883a 	add	r3,r5,r6
 1007620:	18800117 	ldw	r2,4(r3)
 1007624:	29400204 	addi	r5,r5,8
 1007628:	b009883a 	mov	r4,r22
 100762c:	10800054 	ori	r2,r2,1
 1007630:	18800115 	stw	r2,4(r3)
 1007634:	1004c1c0 	call	1004c1c <_free_r>
 1007638:	003f3806 	br	100731c <_realloc_r+0xb0>
 100763c:	000d883a 	mov	r6,zero
 1007640:	0009883a 	mov	r4,zero
 1007644:	003f5d06 	br	10073bc <_realloc_r+0x150>
 1007648:	30c00217 	ldw	r3,8(r6)
 100764c:	30800317 	ldw	r2,12(r6)
 1007650:	800f883a 	mov	r7,r16
 1007654:	84000204 	addi	r16,r16,8
 1007658:	10c00215 	stw	r3,8(r2)
 100765c:	18800315 	stw	r2,12(r3)
 1007660:	003f2306 	br	10072f0 <_realloc_r+0x84>
 1007664:	8809883a 	mov	r4,r17
 1007668:	900b883a 	mov	r5,r18
 100766c:	10060680 	call	1006068 <memmove>
 1007670:	003fd006 	br	10075b4 <_realloc_r+0x348>
 1007674:	30800117 	ldw	r2,4(r6)
 1007678:	e0c00404 	addi	r3,fp,16
 100767c:	1108703a 	and	r4,r2,r4
 1007680:	9905883a 	add	r2,r19,r4
 1007684:	10ff4d16 	blt	r2,r3,10073bc <_realloc_r+0x150>
 1007688:	1705c83a 	sub	r2,r2,fp
 100768c:	870b883a 	add	r5,r16,fp
 1007690:	10800054 	ori	r2,r2,1
 1007694:	28800115 	stw	r2,4(r5)
 1007698:	80c00117 	ldw	r3,4(r16)
 100769c:	00804074 	movhi	r2,257
 10076a0:	10bca104 	addi	r2,r2,-3452
 10076a4:	b009883a 	mov	r4,r22
 10076a8:	18c0004c 	andi	r3,r3,1
 10076ac:	e0c6b03a 	or	r3,fp,r3
 10076b0:	11400215 	stw	r5,8(r2)
 10076b4:	80c00115 	stw	r3,4(r16)
 10076b8:	100ab8c0 	call	100ab8c <__malloc_unlock>
 10076bc:	84400204 	addi	r17,r16,8
 10076c0:	003f2006 	br	1007344 <_realloc_r+0xd8>
 10076c4:	98a9883a 	add	r20,r19,r2
 10076c8:	2509883a 	add	r4,r4,r20
 10076cc:	e0800404 	addi	r2,fp,16
 10076d0:	d9000115 	stw	r4,4(sp)
 10076d4:	20bf7016 	blt	r4,r2,1007498 <_realloc_r+0x22c>
 10076d8:	b8c00317 	ldw	r3,12(r23)
 10076dc:	b8800217 	ldw	r2,8(r23)
 10076e0:	99bfff04 	addi	r6,r19,-4
 10076e4:	01400904 	movi	r5,36
 10076e8:	18800215 	stw	r2,8(r3)
 10076ec:	10c00315 	stw	r3,12(r2)
 10076f0:	bc400204 	addi	r17,r23,8
 10076f4:	29804136 	bltu	r5,r6,10077fc <_realloc_r+0x590>
 10076f8:	008004c4 	movi	r2,19
 10076fc:	9009883a 	mov	r4,r18
 1007700:	880f883a 	mov	r7,r17
 1007704:	11800f2e 	bgeu	r2,r6,1007744 <_realloc_r+0x4d8>
 1007708:	90800017 	ldw	r2,0(r18)
 100770c:	b9c00404 	addi	r7,r23,16
 1007710:	91000204 	addi	r4,r18,8
 1007714:	b8800215 	stw	r2,8(r23)
 1007718:	90c00117 	ldw	r3,4(r18)
 100771c:	008006c4 	movi	r2,27
 1007720:	b8c00315 	stw	r3,12(r23)
 1007724:	1180072e 	bgeu	r2,r6,1007744 <_realloc_r+0x4d8>
 1007728:	90c00217 	ldw	r3,8(r18)
 100772c:	b9c00604 	addi	r7,r23,24
 1007730:	91000404 	addi	r4,r18,16
 1007734:	b8c00415 	stw	r3,16(r23)
 1007738:	90800317 	ldw	r2,12(r18)
 100773c:	b8800515 	stw	r2,20(r23)
 1007740:	31404026 	beq	r6,r5,1007844 <_realloc_r+0x5d8>
 1007744:	20800017 	ldw	r2,0(r4)
 1007748:	38800015 	stw	r2,0(r7)
 100774c:	20c00117 	ldw	r3,4(r4)
 1007750:	38c00115 	stw	r3,4(r7)
 1007754:	20800217 	ldw	r2,8(r4)
 1007758:	38800215 	stw	r2,8(r7)
 100775c:	d8c00117 	ldw	r3,4(sp)
 1007760:	bf0b883a 	add	r5,r23,fp
 1007764:	b009883a 	mov	r4,r22
 1007768:	1f05c83a 	sub	r2,r3,fp
 100776c:	10800054 	ori	r2,r2,1
 1007770:	28800115 	stw	r2,4(r5)
 1007774:	b8c00117 	ldw	r3,4(r23)
 1007778:	00804074 	movhi	r2,257
 100777c:	10bca104 	addi	r2,r2,-3452
 1007780:	11400215 	stw	r5,8(r2)
 1007784:	18c0004c 	andi	r3,r3,1
 1007788:	e0c6b03a 	or	r3,fp,r3
 100778c:	b8c00115 	stw	r3,4(r23)
 1007790:	100ab8c0 	call	100ab8c <__malloc_unlock>
 1007794:	003eeb06 	br	1007344 <_realloc_r+0xd8>
 1007798:	20800117 	ldw	r2,4(r4)
 100779c:	00ffff04 	movi	r3,-4
 10077a0:	800f883a 	mov	r7,r16
 10077a4:	10c4703a 	and	r2,r2,r3
 10077a8:	98a9883a 	add	r20,r19,r2
 10077ac:	84000204 	addi	r16,r16,8
 10077b0:	003ecf06 	br	10072f0 <_realloc_r+0x84>
 10077b4:	900b883a 	mov	r5,r18
 10077b8:	8009883a 	mov	r4,r16
 10077bc:	10060680 	call	1006068 <memmove>
 10077c0:	dd000017 	ldw	r20,0(sp)
 10077c4:	b80f883a 	mov	r7,r23
 10077c8:	003ec906 	br	10072f0 <_realloc_r+0x84>
 10077cc:	900b883a 	mov	r5,r18
 10077d0:	8009883a 	mov	r4,r16
 10077d4:	10060680 	call	1006068 <memmove>
 10077d8:	b80f883a 	mov	r7,r23
 10077dc:	003ec406 	br	10072f0 <_realloc_r+0x84>
 10077e0:	90c00417 	ldw	r3,16(r18)
 10077e4:	89400604 	addi	r5,r17,24
 10077e8:	91000604 	addi	r4,r18,24
 10077ec:	88c00415 	stw	r3,16(r17)
 10077f0:	90800517 	ldw	r2,20(r18)
 10077f4:	88800515 	stw	r2,20(r17)
 10077f8:	003f6806 	br	100759c <_realloc_r+0x330>
 10077fc:	900b883a 	mov	r5,r18
 1007800:	8809883a 	mov	r4,r17
 1007804:	10060680 	call	1006068 <memmove>
 1007808:	003fd406 	br	100775c <_realloc_r+0x4f0>
 100780c:	90c00417 	ldw	r3,16(r18)
 1007810:	91000604 	addi	r4,r18,24
 1007814:	ba000804 	addi	r8,r23,32
 1007818:	b8c00615 	stw	r3,24(r23)
 100781c:	90800517 	ldw	r2,20(r18)
 1007820:	b8800715 	stw	r2,28(r23)
 1007824:	003f1206 	br	1007470 <_realloc_r+0x204>
 1007828:	90c00417 	ldw	r3,16(r18)
 100782c:	91000604 	addi	r4,r18,24
 1007830:	ba000804 	addi	r8,r23,32
 1007834:	b8c00615 	stw	r3,24(r23)
 1007838:	90800517 	ldw	r2,20(r18)
 100783c:	b8800715 	stw	r2,28(r23)
 1007840:	003f3206 	br	100750c <_realloc_r+0x2a0>
 1007844:	90c00417 	ldw	r3,16(r18)
 1007848:	91000604 	addi	r4,r18,24
 100784c:	b9c00804 	addi	r7,r23,32
 1007850:	b8c00615 	stw	r3,24(r23)
 1007854:	90800517 	ldw	r2,20(r18)
 1007858:	b8800715 	stw	r2,28(r23)
 100785c:	003fb906 	br	1007744 <_realloc_r+0x4d8>

01007860 <__isinfd>:
 1007860:	200d883a 	mov	r6,r4
 1007864:	0109c83a 	sub	r4,zero,r4
 1007868:	2188b03a 	or	r4,r4,r6
 100786c:	2008d7fa 	srli	r4,r4,31
 1007870:	00a00034 	movhi	r2,32768
 1007874:	10bfffc4 	addi	r2,r2,-1
 1007878:	1144703a 	and	r2,r2,r5
 100787c:	2088b03a 	or	r4,r4,r2
 1007880:	009ffc34 	movhi	r2,32752
 1007884:	1105c83a 	sub	r2,r2,r4
 1007888:	0087c83a 	sub	r3,zero,r2
 100788c:	10c4b03a 	or	r2,r2,r3
 1007890:	1004d7fa 	srli	r2,r2,31
 1007894:	00c00044 	movi	r3,1
 1007898:	1885c83a 	sub	r2,r3,r2
 100789c:	f800283a 	ret

010078a0 <__isnand>:
 10078a0:	200d883a 	mov	r6,r4
 10078a4:	0109c83a 	sub	r4,zero,r4
 10078a8:	2188b03a 	or	r4,r4,r6
 10078ac:	2008d7fa 	srli	r4,r4,31
 10078b0:	00a00034 	movhi	r2,32768
 10078b4:	10bfffc4 	addi	r2,r2,-1
 10078b8:	1144703a 	and	r2,r2,r5
 10078bc:	2088b03a 	or	r4,r4,r2
 10078c0:	009ffc34 	movhi	r2,32752
 10078c4:	1105c83a 	sub	r2,r2,r4
 10078c8:	1004d7fa 	srli	r2,r2,31
 10078cc:	f800283a 	ret

010078d0 <_sbrk_r>:
 10078d0:	defffd04 	addi	sp,sp,-12
 10078d4:	dc000015 	stw	r16,0(sp)
 10078d8:	04004074 	movhi	r16,257
 10078dc:	84092004 	addi	r16,r16,9344
 10078e0:	dc400115 	stw	r17,4(sp)
 10078e4:	80000015 	stw	zero,0(r16)
 10078e8:	2023883a 	mov	r17,r4
 10078ec:	2809883a 	mov	r4,r5
 10078f0:	dfc00215 	stw	ra,8(sp)
 10078f4:	100ada80 	call	100ada8 <sbrk>
 10078f8:	1007883a 	mov	r3,r2
 10078fc:	00bfffc4 	movi	r2,-1
 1007900:	18800626 	beq	r3,r2,100791c <_sbrk_r+0x4c>
 1007904:	1805883a 	mov	r2,r3
 1007908:	dfc00217 	ldw	ra,8(sp)
 100790c:	dc400117 	ldw	r17,4(sp)
 1007910:	dc000017 	ldw	r16,0(sp)
 1007914:	dec00304 	addi	sp,sp,12
 1007918:	f800283a 	ret
 100791c:	80800017 	ldw	r2,0(r16)
 1007920:	103ff826 	beq	r2,zero,1007904 <_sbrk_r+0x34>
 1007924:	88800015 	stw	r2,0(r17)
 1007928:	1805883a 	mov	r2,r3
 100792c:	dfc00217 	ldw	ra,8(sp)
 1007930:	dc400117 	ldw	r17,4(sp)
 1007934:	dc000017 	ldw	r16,0(sp)
 1007938:	dec00304 	addi	sp,sp,12
 100793c:	f800283a 	ret

01007940 <__sclose>:
 1007940:	2940038f 	ldh	r5,14(r5)
 1007944:	1007c881 	jmpi	1007c88 <_close_r>

01007948 <__sseek>:
 1007948:	defffe04 	addi	sp,sp,-8
 100794c:	dc000015 	stw	r16,0(sp)
 1007950:	2821883a 	mov	r16,r5
 1007954:	2940038f 	ldh	r5,14(r5)
 1007958:	dfc00115 	stw	ra,4(sp)
 100795c:	1007f000 	call	1007f00 <_lseek_r>
 1007960:	1007883a 	mov	r3,r2
 1007964:	00bfffc4 	movi	r2,-1
 1007968:	18800926 	beq	r3,r2,1007990 <__sseek+0x48>
 100796c:	8080030b 	ldhu	r2,12(r16)
 1007970:	80c01415 	stw	r3,80(r16)
 1007974:	10840014 	ori	r2,r2,4096
 1007978:	8080030d 	sth	r2,12(r16)
 100797c:	1805883a 	mov	r2,r3
 1007980:	dfc00117 	ldw	ra,4(sp)
 1007984:	dc000017 	ldw	r16,0(sp)
 1007988:	dec00204 	addi	sp,sp,8
 100798c:	f800283a 	ret
 1007990:	8080030b 	ldhu	r2,12(r16)
 1007994:	10bbffcc 	andi	r2,r2,61439
 1007998:	8080030d 	sth	r2,12(r16)
 100799c:	1805883a 	mov	r2,r3
 10079a0:	dfc00117 	ldw	ra,4(sp)
 10079a4:	dc000017 	ldw	r16,0(sp)
 10079a8:	dec00204 	addi	sp,sp,8
 10079ac:	f800283a 	ret

010079b0 <__swrite>:
 10079b0:	2880030b 	ldhu	r2,12(r5)
 10079b4:	defffb04 	addi	sp,sp,-20
 10079b8:	dcc00315 	stw	r19,12(sp)
 10079bc:	1080400c 	andi	r2,r2,256
 10079c0:	dc800215 	stw	r18,8(sp)
 10079c4:	dc400115 	stw	r17,4(sp)
 10079c8:	dc000015 	stw	r16,0(sp)
 10079cc:	3027883a 	mov	r19,r6
 10079d0:	3825883a 	mov	r18,r7
 10079d4:	dfc00415 	stw	ra,16(sp)
 10079d8:	2821883a 	mov	r16,r5
 10079dc:	000d883a 	mov	r6,zero
 10079e0:	01c00084 	movi	r7,2
 10079e4:	2023883a 	mov	r17,r4
 10079e8:	10000226 	beq	r2,zero,10079f4 <__swrite+0x44>
 10079ec:	2940038f 	ldh	r5,14(r5)
 10079f0:	1007f000 	call	1007f00 <_lseek_r>
 10079f4:	8080030b 	ldhu	r2,12(r16)
 10079f8:	8140038f 	ldh	r5,14(r16)
 10079fc:	8809883a 	mov	r4,r17
 1007a00:	10bbffcc 	andi	r2,r2,61439
 1007a04:	980d883a 	mov	r6,r19
 1007a08:	900f883a 	mov	r7,r18
 1007a0c:	8080030d 	sth	r2,12(r16)
 1007a10:	dfc00417 	ldw	ra,16(sp)
 1007a14:	dcc00317 	ldw	r19,12(sp)
 1007a18:	dc800217 	ldw	r18,8(sp)
 1007a1c:	dc400117 	ldw	r17,4(sp)
 1007a20:	dc000017 	ldw	r16,0(sp)
 1007a24:	dec00504 	addi	sp,sp,20
 1007a28:	1007b481 	jmpi	1007b48 <_write_r>

01007a2c <__sread>:
 1007a2c:	defffe04 	addi	sp,sp,-8
 1007a30:	dc000015 	stw	r16,0(sp)
 1007a34:	2821883a 	mov	r16,r5
 1007a38:	2940038f 	ldh	r5,14(r5)
 1007a3c:	dfc00115 	stw	ra,4(sp)
 1007a40:	1007f780 	call	1007f78 <_read_r>
 1007a44:	1007883a 	mov	r3,r2
 1007a48:	10000816 	blt	r2,zero,1007a6c <__sread+0x40>
 1007a4c:	80801417 	ldw	r2,80(r16)
 1007a50:	10c5883a 	add	r2,r2,r3
 1007a54:	80801415 	stw	r2,80(r16)
 1007a58:	1805883a 	mov	r2,r3
 1007a5c:	dfc00117 	ldw	ra,4(sp)
 1007a60:	dc000017 	ldw	r16,0(sp)
 1007a64:	dec00204 	addi	sp,sp,8
 1007a68:	f800283a 	ret
 1007a6c:	8080030b 	ldhu	r2,12(r16)
 1007a70:	10bbffcc 	andi	r2,r2,61439
 1007a74:	8080030d 	sth	r2,12(r16)
 1007a78:	1805883a 	mov	r2,r3
 1007a7c:	dfc00117 	ldw	ra,4(sp)
 1007a80:	dc000017 	ldw	r16,0(sp)
 1007a84:	dec00204 	addi	sp,sp,8
 1007a88:	f800283a 	ret

01007a8c <strcmp>:
 1007a8c:	2144b03a 	or	r2,r4,r5
 1007a90:	108000cc 	andi	r2,r2,3
 1007a94:	10001d1e 	bne	r2,zero,1007b0c <strcmp+0x80>
 1007a98:	200f883a 	mov	r7,r4
 1007a9c:	28800017 	ldw	r2,0(r5)
 1007aa0:	21000017 	ldw	r4,0(r4)
 1007aa4:	280d883a 	mov	r6,r5
 1007aa8:	2080161e 	bne	r4,r2,1007b04 <strcmp+0x78>
 1007aac:	023fbff4 	movhi	r8,65279
 1007ab0:	423fbfc4 	addi	r8,r8,-257
 1007ab4:	2207883a 	add	r3,r4,r8
 1007ab8:	01602074 	movhi	r5,32897
 1007abc:	29602004 	addi	r5,r5,-32640
 1007ac0:	1946703a 	and	r3,r3,r5
 1007ac4:	0104303a 	nor	r2,zero,r4
 1007ac8:	10c4703a 	and	r2,r2,r3
 1007acc:	10001c1e 	bne	r2,zero,1007b40 <strcmp+0xb4>
 1007ad0:	4013883a 	mov	r9,r8
 1007ad4:	2811883a 	mov	r8,r5
 1007ad8:	00000106 	br	1007ae0 <strcmp+0x54>
 1007adc:	1800181e 	bne	r3,zero,1007b40 <strcmp+0xb4>
 1007ae0:	39c00104 	addi	r7,r7,4
 1007ae4:	39000017 	ldw	r4,0(r7)
 1007ae8:	31800104 	addi	r6,r6,4
 1007aec:	31400017 	ldw	r5,0(r6)
 1007af0:	2245883a 	add	r2,r4,r9
 1007af4:	1204703a 	and	r2,r2,r8
 1007af8:	0106303a 	nor	r3,zero,r4
 1007afc:	1886703a 	and	r3,r3,r2
 1007b00:	217ff626 	beq	r4,r5,1007adc <strcmp+0x50>
 1007b04:	3809883a 	mov	r4,r7
 1007b08:	300b883a 	mov	r5,r6
 1007b0c:	20c00007 	ldb	r3,0(r4)
 1007b10:	1800051e 	bne	r3,zero,1007b28 <strcmp+0x9c>
 1007b14:	00000606 	br	1007b30 <strcmp+0xa4>
 1007b18:	21000044 	addi	r4,r4,1
 1007b1c:	20c00007 	ldb	r3,0(r4)
 1007b20:	29400044 	addi	r5,r5,1
 1007b24:	18000226 	beq	r3,zero,1007b30 <strcmp+0xa4>
 1007b28:	28800007 	ldb	r2,0(r5)
 1007b2c:	18bffa26 	beq	r3,r2,1007b18 <strcmp+0x8c>
 1007b30:	20c00003 	ldbu	r3,0(r4)
 1007b34:	28800003 	ldbu	r2,0(r5)
 1007b38:	1885c83a 	sub	r2,r3,r2
 1007b3c:	f800283a 	ret
 1007b40:	0005883a 	mov	r2,zero
 1007b44:	f800283a 	ret

01007b48 <_write_r>:
 1007b48:	defffd04 	addi	sp,sp,-12
 1007b4c:	dc000015 	stw	r16,0(sp)
 1007b50:	04004074 	movhi	r16,257
 1007b54:	84092004 	addi	r16,r16,9344
 1007b58:	dc400115 	stw	r17,4(sp)
 1007b5c:	80000015 	stw	zero,0(r16)
 1007b60:	2023883a 	mov	r17,r4
 1007b64:	2809883a 	mov	r4,r5
 1007b68:	300b883a 	mov	r5,r6
 1007b6c:	380d883a 	mov	r6,r7
 1007b70:	dfc00215 	stw	ra,8(sp)
 1007b74:	100ae640 	call	100ae64 <write>
 1007b78:	1007883a 	mov	r3,r2
 1007b7c:	00bfffc4 	movi	r2,-1
 1007b80:	18800626 	beq	r3,r2,1007b9c <_write_r+0x54>
 1007b84:	1805883a 	mov	r2,r3
 1007b88:	dfc00217 	ldw	ra,8(sp)
 1007b8c:	dc400117 	ldw	r17,4(sp)
 1007b90:	dc000017 	ldw	r16,0(sp)
 1007b94:	dec00304 	addi	sp,sp,12
 1007b98:	f800283a 	ret
 1007b9c:	80800017 	ldw	r2,0(r16)
 1007ba0:	103ff826 	beq	r2,zero,1007b84 <_write_r+0x3c>
 1007ba4:	88800015 	stw	r2,0(r17)
 1007ba8:	1805883a 	mov	r2,r3
 1007bac:	dfc00217 	ldw	ra,8(sp)
 1007bb0:	dc400117 	ldw	r17,4(sp)
 1007bb4:	dc000017 	ldw	r16,0(sp)
 1007bb8:	dec00304 	addi	sp,sp,12
 1007bbc:	f800283a 	ret

01007bc0 <_calloc_r>:
 1007bc0:	defffe04 	addi	sp,sp,-8
 1007bc4:	dc400015 	stw	r17,0(sp)
 1007bc8:	2023883a 	mov	r17,r4
 1007bcc:	2809883a 	mov	r4,r5
 1007bd0:	300b883a 	mov	r5,r6
 1007bd4:	dfc00115 	stw	ra,4(sp)
 1007bd8:	1009f0c0 	call	1009f0c <__mulsi3>
 1007bdc:	100b883a 	mov	r5,r2
 1007be0:	8809883a 	mov	r4,r17
 1007be4:	10057a40 	call	10057a4 <_malloc_r>
 1007be8:	1023883a 	mov	r17,r2
 1007bec:	01c00904 	movi	r7,36
 1007bf0:	10000d26 	beq	r2,zero,1007c28 <_calloc_r+0x68>
 1007bf4:	10ffff17 	ldw	r3,-4(r2)
 1007bf8:	1009883a 	mov	r4,r2
 1007bfc:	00bfff04 	movi	r2,-4
 1007c00:	1886703a 	and	r3,r3,r2
 1007c04:	1887883a 	add	r3,r3,r2
 1007c08:	180d883a 	mov	r6,r3
 1007c0c:	000b883a 	mov	r5,zero
 1007c10:	38c01736 	bltu	r7,r3,1007c70 <_calloc_r+0xb0>
 1007c14:	008004c4 	movi	r2,19
 1007c18:	10c00836 	bltu	r2,r3,1007c3c <_calloc_r+0x7c>
 1007c1c:	20000215 	stw	zero,8(r4)
 1007c20:	20000015 	stw	zero,0(r4)
 1007c24:	20000115 	stw	zero,4(r4)
 1007c28:	8805883a 	mov	r2,r17
 1007c2c:	dfc00117 	ldw	ra,4(sp)
 1007c30:	dc400017 	ldw	r17,0(sp)
 1007c34:	dec00204 	addi	sp,sp,8
 1007c38:	f800283a 	ret
 1007c3c:	008006c4 	movi	r2,27
 1007c40:	88000015 	stw	zero,0(r17)
 1007c44:	88000115 	stw	zero,4(r17)
 1007c48:	89000204 	addi	r4,r17,8
 1007c4c:	10fff32e 	bgeu	r2,r3,1007c1c <_calloc_r+0x5c>
 1007c50:	88000215 	stw	zero,8(r17)
 1007c54:	88000315 	stw	zero,12(r17)
 1007c58:	89000404 	addi	r4,r17,16
 1007c5c:	19ffef1e 	bne	r3,r7,1007c1c <_calloc_r+0x5c>
 1007c60:	89000604 	addi	r4,r17,24
 1007c64:	88000415 	stw	zero,16(r17)
 1007c68:	88000515 	stw	zero,20(r17)
 1007c6c:	003feb06 	br	1007c1c <_calloc_r+0x5c>
 1007c70:	10061480 	call	1006148 <memset>
 1007c74:	8805883a 	mov	r2,r17
 1007c78:	dfc00117 	ldw	ra,4(sp)
 1007c7c:	dc400017 	ldw	r17,0(sp)
 1007c80:	dec00204 	addi	sp,sp,8
 1007c84:	f800283a 	ret

01007c88 <_close_r>:
 1007c88:	defffd04 	addi	sp,sp,-12
 1007c8c:	dc000015 	stw	r16,0(sp)
 1007c90:	04004074 	movhi	r16,257
 1007c94:	84092004 	addi	r16,r16,9344
 1007c98:	dc400115 	stw	r17,4(sp)
 1007c9c:	80000015 	stw	zero,0(r16)
 1007ca0:	2023883a 	mov	r17,r4
 1007ca4:	2809883a 	mov	r4,r5
 1007ca8:	dfc00215 	stw	ra,8(sp)
 1007cac:	100a4d80 	call	100a4d8 <close>
 1007cb0:	1007883a 	mov	r3,r2
 1007cb4:	00bfffc4 	movi	r2,-1
 1007cb8:	18800626 	beq	r3,r2,1007cd4 <_close_r+0x4c>
 1007cbc:	1805883a 	mov	r2,r3
 1007cc0:	dfc00217 	ldw	ra,8(sp)
 1007cc4:	dc400117 	ldw	r17,4(sp)
 1007cc8:	dc000017 	ldw	r16,0(sp)
 1007ccc:	dec00304 	addi	sp,sp,12
 1007cd0:	f800283a 	ret
 1007cd4:	80800017 	ldw	r2,0(r16)
 1007cd8:	103ff826 	beq	r2,zero,1007cbc <_close_r+0x34>
 1007cdc:	88800015 	stw	r2,0(r17)
 1007ce0:	1805883a 	mov	r2,r3
 1007ce4:	dfc00217 	ldw	ra,8(sp)
 1007ce8:	dc400117 	ldw	r17,4(sp)
 1007cec:	dc000017 	ldw	r16,0(sp)
 1007cf0:	dec00304 	addi	sp,sp,12
 1007cf4:	f800283a 	ret

01007cf8 <_fclose_r>:
 1007cf8:	defffc04 	addi	sp,sp,-16
 1007cfc:	dc400115 	stw	r17,4(sp)
 1007d00:	dc000015 	stw	r16,0(sp)
 1007d04:	dfc00315 	stw	ra,12(sp)
 1007d08:	dc800215 	stw	r18,8(sp)
 1007d0c:	2821883a 	mov	r16,r5
 1007d10:	2023883a 	mov	r17,r4
 1007d14:	28002926 	beq	r5,zero,1007dbc <_fclose_r+0xc4>
 1007d18:	10048540 	call	1004854 <__sfp_lock_acquire>
 1007d1c:	88000226 	beq	r17,zero,1007d28 <_fclose_r+0x30>
 1007d20:	88800e17 	ldw	r2,56(r17)
 1007d24:	10002d26 	beq	r2,zero,1007ddc <_fclose_r+0xe4>
 1007d28:	8080030f 	ldh	r2,12(r16)
 1007d2c:	10002226 	beq	r2,zero,1007db8 <_fclose_r+0xc0>
 1007d30:	8809883a 	mov	r4,r17
 1007d34:	800b883a 	mov	r5,r16
 1007d38:	10045cc0 	call	10045cc <_fflush_r>
 1007d3c:	1025883a 	mov	r18,r2
 1007d40:	80800b17 	ldw	r2,44(r16)
 1007d44:	10000426 	beq	r2,zero,1007d58 <_fclose_r+0x60>
 1007d48:	81400717 	ldw	r5,28(r16)
 1007d4c:	8809883a 	mov	r4,r17
 1007d50:	103ee83a 	callr	r2
 1007d54:	10002a16 	blt	r2,zero,1007e00 <_fclose_r+0x108>
 1007d58:	8080030b 	ldhu	r2,12(r16)
 1007d5c:	1080200c 	andi	r2,r2,128
 1007d60:	1000231e 	bne	r2,zero,1007df0 <_fclose_r+0xf8>
 1007d64:	81400c17 	ldw	r5,48(r16)
 1007d68:	28000526 	beq	r5,zero,1007d80 <_fclose_r+0x88>
 1007d6c:	80801004 	addi	r2,r16,64
 1007d70:	28800226 	beq	r5,r2,1007d7c <_fclose_r+0x84>
 1007d74:	8809883a 	mov	r4,r17
 1007d78:	1004c1c0 	call	1004c1c <_free_r>
 1007d7c:	80000c15 	stw	zero,48(r16)
 1007d80:	81401117 	ldw	r5,68(r16)
 1007d84:	28000326 	beq	r5,zero,1007d94 <_fclose_r+0x9c>
 1007d88:	8809883a 	mov	r4,r17
 1007d8c:	1004c1c0 	call	1004c1c <_free_r>
 1007d90:	80001115 	stw	zero,68(r16)
 1007d94:	8000030d 	sth	zero,12(r16)
 1007d98:	10048580 	call	1004858 <__sfp_lock_release>
 1007d9c:	9005883a 	mov	r2,r18
 1007da0:	dfc00317 	ldw	ra,12(sp)
 1007da4:	dc800217 	ldw	r18,8(sp)
 1007da8:	dc400117 	ldw	r17,4(sp)
 1007dac:	dc000017 	ldw	r16,0(sp)
 1007db0:	dec00404 	addi	sp,sp,16
 1007db4:	f800283a 	ret
 1007db8:	10048580 	call	1004858 <__sfp_lock_release>
 1007dbc:	0025883a 	mov	r18,zero
 1007dc0:	9005883a 	mov	r2,r18
 1007dc4:	dfc00317 	ldw	ra,12(sp)
 1007dc8:	dc800217 	ldw	r18,8(sp)
 1007dcc:	dc400117 	ldw	r17,4(sp)
 1007dd0:	dc000017 	ldw	r16,0(sp)
 1007dd4:	dec00404 	addi	sp,sp,16
 1007dd8:	f800283a 	ret
 1007ddc:	8809883a 	mov	r4,r17
 1007de0:	10048640 	call	1004864 <__sinit>
 1007de4:	8080030f 	ldh	r2,12(r16)
 1007de8:	103fd11e 	bne	r2,zero,1007d30 <_fclose_r+0x38>
 1007dec:	003ff206 	br	1007db8 <_fclose_r+0xc0>
 1007df0:	81400417 	ldw	r5,16(r16)
 1007df4:	8809883a 	mov	r4,r17
 1007df8:	1004c1c0 	call	1004c1c <_free_r>
 1007dfc:	003fd906 	br	1007d64 <_fclose_r+0x6c>
 1007e00:	04bfffc4 	movi	r18,-1
 1007e04:	003fd406 	br	1007d58 <_fclose_r+0x60>

01007e08 <fclose>:
 1007e08:	00804074 	movhi	r2,257
 1007e0c:	10824c04 	addi	r2,r2,2352
 1007e10:	200b883a 	mov	r5,r4
 1007e14:	11000017 	ldw	r4,0(r2)
 1007e18:	1007cf81 	jmpi	1007cf8 <_fclose_r>

01007e1c <_fstat_r>:
 1007e1c:	defffd04 	addi	sp,sp,-12
 1007e20:	dc000015 	stw	r16,0(sp)
 1007e24:	04004074 	movhi	r16,257
 1007e28:	84092004 	addi	r16,r16,9344
 1007e2c:	dc400115 	stw	r17,4(sp)
 1007e30:	80000015 	stw	zero,0(r16)
 1007e34:	2023883a 	mov	r17,r4
 1007e38:	2809883a 	mov	r4,r5
 1007e3c:	300b883a 	mov	r5,r6
 1007e40:	dfc00215 	stw	ra,8(sp)
 1007e44:	100a6640 	call	100a664 <fstat>
 1007e48:	1007883a 	mov	r3,r2
 1007e4c:	00bfffc4 	movi	r2,-1
 1007e50:	18800626 	beq	r3,r2,1007e6c <_fstat_r+0x50>
 1007e54:	1805883a 	mov	r2,r3
 1007e58:	dfc00217 	ldw	ra,8(sp)
 1007e5c:	dc400117 	ldw	r17,4(sp)
 1007e60:	dc000017 	ldw	r16,0(sp)
 1007e64:	dec00304 	addi	sp,sp,12
 1007e68:	f800283a 	ret
 1007e6c:	80800017 	ldw	r2,0(r16)
 1007e70:	103ff826 	beq	r2,zero,1007e54 <_fstat_r+0x38>
 1007e74:	88800015 	stw	r2,0(r17)
 1007e78:	1805883a 	mov	r2,r3
 1007e7c:	dfc00217 	ldw	ra,8(sp)
 1007e80:	dc400117 	ldw	r17,4(sp)
 1007e84:	dc000017 	ldw	r16,0(sp)
 1007e88:	dec00304 	addi	sp,sp,12
 1007e8c:	f800283a 	ret

01007e90 <_isatty_r>:
 1007e90:	defffd04 	addi	sp,sp,-12
 1007e94:	dc000015 	stw	r16,0(sp)
 1007e98:	04004074 	movhi	r16,257
 1007e9c:	84092004 	addi	r16,r16,9344
 1007ea0:	dc400115 	stw	r17,4(sp)
 1007ea4:	80000015 	stw	zero,0(r16)
 1007ea8:	2023883a 	mov	r17,r4
 1007eac:	2809883a 	mov	r4,r5
 1007eb0:	dfc00215 	stw	ra,8(sp)
 1007eb4:	100a79c0 	call	100a79c <isatty>
 1007eb8:	1007883a 	mov	r3,r2
 1007ebc:	00bfffc4 	movi	r2,-1
 1007ec0:	18800626 	beq	r3,r2,1007edc <_isatty_r+0x4c>
 1007ec4:	1805883a 	mov	r2,r3
 1007ec8:	dfc00217 	ldw	ra,8(sp)
 1007ecc:	dc400117 	ldw	r17,4(sp)
 1007ed0:	dc000017 	ldw	r16,0(sp)
 1007ed4:	dec00304 	addi	sp,sp,12
 1007ed8:	f800283a 	ret
 1007edc:	80800017 	ldw	r2,0(r16)
 1007ee0:	103ff826 	beq	r2,zero,1007ec4 <_isatty_r+0x34>
 1007ee4:	88800015 	stw	r2,0(r17)
 1007ee8:	1805883a 	mov	r2,r3
 1007eec:	dfc00217 	ldw	ra,8(sp)
 1007ef0:	dc400117 	ldw	r17,4(sp)
 1007ef4:	dc000017 	ldw	r16,0(sp)
 1007ef8:	dec00304 	addi	sp,sp,12
 1007efc:	f800283a 	ret

01007f00 <_lseek_r>:
 1007f00:	defffd04 	addi	sp,sp,-12
 1007f04:	dc000015 	stw	r16,0(sp)
 1007f08:	04004074 	movhi	r16,257
 1007f0c:	84092004 	addi	r16,r16,9344
 1007f10:	dc400115 	stw	r17,4(sp)
 1007f14:	80000015 	stw	zero,0(r16)
 1007f18:	2023883a 	mov	r17,r4
 1007f1c:	2809883a 	mov	r4,r5
 1007f20:	300b883a 	mov	r5,r6
 1007f24:	380d883a 	mov	r6,r7
 1007f28:	dfc00215 	stw	ra,8(sp)
 1007f2c:	100a9ac0 	call	100a9ac <lseek>
 1007f30:	1007883a 	mov	r3,r2
 1007f34:	00bfffc4 	movi	r2,-1
 1007f38:	18800626 	beq	r3,r2,1007f54 <_lseek_r+0x54>
 1007f3c:	1805883a 	mov	r2,r3
 1007f40:	dfc00217 	ldw	ra,8(sp)
 1007f44:	dc400117 	ldw	r17,4(sp)
 1007f48:	dc000017 	ldw	r16,0(sp)
 1007f4c:	dec00304 	addi	sp,sp,12
 1007f50:	f800283a 	ret
 1007f54:	80800017 	ldw	r2,0(r16)
 1007f58:	103ff826 	beq	r2,zero,1007f3c <_lseek_r+0x3c>
 1007f5c:	88800015 	stw	r2,0(r17)
 1007f60:	1805883a 	mov	r2,r3
 1007f64:	dfc00217 	ldw	ra,8(sp)
 1007f68:	dc400117 	ldw	r17,4(sp)
 1007f6c:	dc000017 	ldw	r16,0(sp)
 1007f70:	dec00304 	addi	sp,sp,12
 1007f74:	f800283a 	ret

01007f78 <_read_r>:
 1007f78:	defffd04 	addi	sp,sp,-12
 1007f7c:	dc000015 	stw	r16,0(sp)
 1007f80:	04004074 	movhi	r16,257
 1007f84:	84092004 	addi	r16,r16,9344
 1007f88:	dc400115 	stw	r17,4(sp)
 1007f8c:	80000015 	stw	zero,0(r16)
 1007f90:	2023883a 	mov	r17,r4
 1007f94:	2809883a 	mov	r4,r5
 1007f98:	300b883a 	mov	r5,r6
 1007f9c:	380d883a 	mov	r6,r7
 1007fa0:	dfc00215 	stw	ra,8(sp)
 1007fa4:	100abac0 	call	100abac <read>
 1007fa8:	1007883a 	mov	r3,r2
 1007fac:	00bfffc4 	movi	r2,-1
 1007fb0:	18800626 	beq	r3,r2,1007fcc <_read_r+0x54>
 1007fb4:	1805883a 	mov	r2,r3
 1007fb8:	dfc00217 	ldw	ra,8(sp)
 1007fbc:	dc400117 	ldw	r17,4(sp)
 1007fc0:	dc000017 	ldw	r16,0(sp)
 1007fc4:	dec00304 	addi	sp,sp,12
 1007fc8:	f800283a 	ret
 1007fcc:	80800017 	ldw	r2,0(r16)
 1007fd0:	103ff826 	beq	r2,zero,1007fb4 <_read_r+0x3c>
 1007fd4:	88800015 	stw	r2,0(r17)
 1007fd8:	1805883a 	mov	r2,r3
 1007fdc:	dfc00217 	ldw	ra,8(sp)
 1007fe0:	dc400117 	ldw	r17,4(sp)
 1007fe4:	dc000017 	ldw	r16,0(sp)
 1007fe8:	dec00304 	addi	sp,sp,12
 1007fec:	f800283a 	ret

01007ff0 <__muldi3>:
 1007ff0:	defff204 	addi	sp,sp,-56
 1007ff4:	df000c15 	stw	fp,48(sp)
 1007ff8:	3038d43a 	srli	fp,r6,16
 1007ffc:	dd000815 	stw	r20,32(sp)
 1008000:	dc400515 	stw	r17,20(sp)
 1008004:	2028d43a 	srli	r20,r4,16
 1008008:	247fffcc 	andi	r17,r4,65535
 100800c:	dc000415 	stw	r16,16(sp)
 1008010:	343fffcc 	andi	r16,r6,65535
 1008014:	dcc00715 	stw	r19,28(sp)
 1008018:	d9000015 	stw	r4,0(sp)
 100801c:	2827883a 	mov	r19,r5
 1008020:	8809883a 	mov	r4,r17
 1008024:	d9400115 	stw	r5,4(sp)
 1008028:	800b883a 	mov	r5,r16
 100802c:	d9800215 	stw	r6,8(sp)
 1008030:	dfc00d15 	stw	ra,52(sp)
 1008034:	d9c00315 	stw	r7,12(sp)
 1008038:	dd800a15 	stw	r22,40(sp)
 100803c:	dd400915 	stw	r21,36(sp)
 1008040:	302d883a 	mov	r22,r6
 1008044:	ddc00b15 	stw	r23,44(sp)
 1008048:	dc800615 	stw	r18,24(sp)
 100804c:	1009f0c0 	call	1009f0c <__mulsi3>
 1008050:	8809883a 	mov	r4,r17
 1008054:	e00b883a 	mov	r5,fp
 1008058:	102b883a 	mov	r21,r2
 100805c:	1009f0c0 	call	1009f0c <__mulsi3>
 1008060:	800b883a 	mov	r5,r16
 1008064:	a009883a 	mov	r4,r20
 1008068:	1023883a 	mov	r17,r2
 100806c:	1009f0c0 	call	1009f0c <__mulsi3>
 1008070:	a009883a 	mov	r4,r20
 1008074:	e00b883a 	mov	r5,fp
 1008078:	1021883a 	mov	r16,r2
 100807c:	1009f0c0 	call	1009f0c <__mulsi3>
 1008080:	a8ffffcc 	andi	r3,r21,65535
 1008084:	a82ad43a 	srli	r21,r21,16
 1008088:	8c23883a 	add	r17,r17,r16
 100808c:	1011883a 	mov	r8,r2
 1008090:	ac6b883a 	add	r21,r21,r17
 1008094:	a804943a 	slli	r2,r21,16
 1008098:	b009883a 	mov	r4,r22
 100809c:	980b883a 	mov	r5,r19
 10080a0:	10c7883a 	add	r3,r2,r3
 10080a4:	a812d43a 	srli	r9,r21,16
 10080a8:	180d883a 	mov	r6,r3
 10080ac:	ac00022e 	bgeu	r21,r16,10080b8 <__muldi3+0xc8>
 10080b0:	00800074 	movhi	r2,1
 10080b4:	4091883a 	add	r8,r8,r2
 10080b8:	4267883a 	add	r19,r8,r9
 10080bc:	302d883a 	mov	r22,r6
 10080c0:	1009f0c0 	call	1009f0c <__mulsi3>
 10080c4:	d9400317 	ldw	r5,12(sp)
 10080c8:	d9000017 	ldw	r4,0(sp)
 10080cc:	1023883a 	mov	r17,r2
 10080d0:	1009f0c0 	call	1009f0c <__mulsi3>
 10080d4:	14cb883a 	add	r5,r2,r19
 10080d8:	894b883a 	add	r5,r17,r5
 10080dc:	b005883a 	mov	r2,r22
 10080e0:	2807883a 	mov	r3,r5
 10080e4:	dfc00d17 	ldw	ra,52(sp)
 10080e8:	df000c17 	ldw	fp,48(sp)
 10080ec:	ddc00b17 	ldw	r23,44(sp)
 10080f0:	dd800a17 	ldw	r22,40(sp)
 10080f4:	dd400917 	ldw	r21,36(sp)
 10080f8:	dd000817 	ldw	r20,32(sp)
 10080fc:	dcc00717 	ldw	r19,28(sp)
 1008100:	dc800617 	ldw	r18,24(sp)
 1008104:	dc400517 	ldw	r17,20(sp)
 1008108:	dc000417 	ldw	r16,16(sp)
 100810c:	dec00e04 	addi	sp,sp,56
 1008110:	f800283a 	ret

01008114 <__udivdi3>:
 1008114:	defff104 	addi	sp,sp,-60
 1008118:	0015883a 	mov	r10,zero
 100811c:	2005883a 	mov	r2,r4
 1008120:	3011883a 	mov	r8,r6
 1008124:	df000d15 	stw	fp,52(sp)
 1008128:	dd400a15 	stw	r21,40(sp)
 100812c:	dcc00815 	stw	r19,32(sp)
 1008130:	dfc00e15 	stw	ra,56(sp)
 1008134:	ddc00c15 	stw	r23,48(sp)
 1008138:	dd800b15 	stw	r22,44(sp)
 100813c:	dd000915 	stw	r20,36(sp)
 1008140:	dc800715 	stw	r18,28(sp)
 1008144:	dc400615 	stw	r17,24(sp)
 1008148:	dc000515 	stw	r16,20(sp)
 100814c:	da800315 	stw	r10,12(sp)
 1008150:	4027883a 	mov	r19,r8
 1008154:	1039883a 	mov	fp,r2
 1008158:	282b883a 	mov	r21,r5
 100815c:	da800415 	stw	r10,16(sp)
 1008160:	3800401e 	bne	r7,zero,1008264 <__udivdi3+0x150>
 1008164:	2a006536 	bltu	r5,r8,10082fc <__udivdi3+0x1e8>
 1008168:	4000b526 	beq	r8,zero,1008440 <__udivdi3+0x32c>
 100816c:	00bfffd4 	movui	r2,65535
 1008170:	14c0ad36 	bltu	r2,r19,1008428 <__udivdi3+0x314>
 1008174:	00803fc4 	movi	r2,255
 1008178:	14c15e36 	bltu	r2,r19,10086f4 <__udivdi3+0x5e0>
 100817c:	000b883a 	mov	r5,zero
 1008180:	0005883a 	mov	r2,zero
 1008184:	9884d83a 	srl	r2,r19,r2
 1008188:	01004074 	movhi	r4,257
 100818c:	213b3604 	addi	r4,r4,-4904
 1008190:	01800804 	movi	r6,32
 1008194:	1105883a 	add	r2,r2,r4
 1008198:	10c00003 	ldbu	r3,0(r2)
 100819c:	28c7883a 	add	r3,r5,r3
 10081a0:	30e9c83a 	sub	r20,r6,r3
 10081a4:	a0010a1e 	bne	r20,zero,10085d0 <__udivdi3+0x4bc>
 10081a8:	982ed43a 	srli	r23,r19,16
 10081ac:	acebc83a 	sub	r21,r21,r19
 10081b0:	9dbfffcc 	andi	r22,r19,65535
 10081b4:	05000044 	movi	r20,1
 10081b8:	a809883a 	mov	r4,r21
 10081bc:	b80b883a 	mov	r5,r23
 10081c0:	1000b140 	call	1000b14 <__udivsi3>
 10081c4:	100b883a 	mov	r5,r2
 10081c8:	b009883a 	mov	r4,r22
 10081cc:	1021883a 	mov	r16,r2
 10081d0:	1009f0c0 	call	1009f0c <__mulsi3>
 10081d4:	a809883a 	mov	r4,r21
 10081d8:	b80b883a 	mov	r5,r23
 10081dc:	1023883a 	mov	r17,r2
 10081e0:	1000b1c0 	call	1000b1c <__umodsi3>
 10081e4:	1004943a 	slli	r2,r2,16
 10081e8:	e006d43a 	srli	r3,fp,16
 10081ec:	10c4b03a 	or	r2,r2,r3
 10081f0:	1440042e 	bgeu	r2,r17,1008204 <__udivdi3+0xf0>
 10081f4:	14c5883a 	add	r2,r2,r19
 10081f8:	843fffc4 	addi	r16,r16,-1
 10081fc:	14c00136 	bltu	r2,r19,1008204 <__udivdi3+0xf0>
 1008200:	14415c36 	bltu	r2,r17,1008774 <__udivdi3+0x660>
 1008204:	1463c83a 	sub	r17,r2,r17
 1008208:	8809883a 	mov	r4,r17
 100820c:	b80b883a 	mov	r5,r23
 1008210:	1000b140 	call	1000b14 <__udivsi3>
 1008214:	100b883a 	mov	r5,r2
 1008218:	b009883a 	mov	r4,r22
 100821c:	102b883a 	mov	r21,r2
 1008220:	1009f0c0 	call	1009f0c <__mulsi3>
 1008224:	8809883a 	mov	r4,r17
 1008228:	b80b883a 	mov	r5,r23
 100822c:	1025883a 	mov	r18,r2
 1008230:	1000b1c0 	call	1000b1c <__umodsi3>
 1008234:	1004943a 	slli	r2,r2,16
 1008238:	e0ffffcc 	andi	r3,fp,65535
 100823c:	10c4b03a 	or	r2,r2,r3
 1008240:	1480042e 	bgeu	r2,r18,1008254 <__udivdi3+0x140>
 1008244:	9885883a 	add	r2,r19,r2
 1008248:	ad7fffc4 	addi	r21,r21,-1
 100824c:	14c00136 	bltu	r2,r19,1008254 <__udivdi3+0x140>
 1008250:	14813c36 	bltu	r2,r18,1008744 <__udivdi3+0x630>
 1008254:	8004943a 	slli	r2,r16,16
 1008258:	a009883a 	mov	r4,r20
 100825c:	a884b03a 	or	r2,r21,r2
 1008260:	00001506 	br	10082b8 <__udivdi3+0x1a4>
 1008264:	380d883a 	mov	r6,r7
 1008268:	29c06c36 	bltu	r5,r7,100841c <__udivdi3+0x308>
 100826c:	00bfffd4 	movui	r2,65535
 1008270:	11c06436 	bltu	r2,r7,1008404 <__udivdi3+0x2f0>
 1008274:	00803fc4 	movi	r2,255
 1008278:	11c11836 	bltu	r2,r7,10086dc <__udivdi3+0x5c8>
 100827c:	000b883a 	mov	r5,zero
 1008280:	0005883a 	mov	r2,zero
 1008284:	3084d83a 	srl	r2,r6,r2
 1008288:	01004074 	movhi	r4,257
 100828c:	213b3604 	addi	r4,r4,-4904
 1008290:	01c00804 	movi	r7,32
 1008294:	1105883a 	add	r2,r2,r4
 1008298:	10c00003 	ldbu	r3,0(r2)
 100829c:	28c7883a 	add	r3,r5,r3
 10082a0:	38edc83a 	sub	r22,r7,r3
 10082a4:	b000731e 	bne	r22,zero,1008474 <__udivdi3+0x360>
 10082a8:	35400136 	bltu	r6,r21,10082b0 <__udivdi3+0x19c>
 10082ac:	e4c05b36 	bltu	fp,r19,100841c <__udivdi3+0x308>
 10082b0:	00800044 	movi	r2,1
 10082b4:	0009883a 	mov	r4,zero
 10082b8:	d8800315 	stw	r2,12(sp)
 10082bc:	d9400317 	ldw	r5,12(sp)
 10082c0:	2007883a 	mov	r3,r4
 10082c4:	d9000415 	stw	r4,16(sp)
 10082c8:	2805883a 	mov	r2,r5
 10082cc:	dfc00e17 	ldw	ra,56(sp)
 10082d0:	df000d17 	ldw	fp,52(sp)
 10082d4:	ddc00c17 	ldw	r23,48(sp)
 10082d8:	dd800b17 	ldw	r22,44(sp)
 10082dc:	dd400a17 	ldw	r21,40(sp)
 10082e0:	dd000917 	ldw	r20,36(sp)
 10082e4:	dcc00817 	ldw	r19,32(sp)
 10082e8:	dc800717 	ldw	r18,28(sp)
 10082ec:	dc400617 	ldw	r17,24(sp)
 10082f0:	dc000517 	ldw	r16,20(sp)
 10082f4:	dec00f04 	addi	sp,sp,60
 10082f8:	f800283a 	ret
 10082fc:	00bfffd4 	movui	r2,65535
 1008300:	12005636 	bltu	r2,r8,100845c <__udivdi3+0x348>
 1008304:	00803fc4 	movi	r2,255
 1008308:	12010036 	bltu	r2,r8,100870c <__udivdi3+0x5f8>
 100830c:	000b883a 	mov	r5,zero
 1008310:	0005883a 	mov	r2,zero
 1008314:	9884d83a 	srl	r2,r19,r2
 1008318:	01004074 	movhi	r4,257
 100831c:	213b3604 	addi	r4,r4,-4904
 1008320:	01800804 	movi	r6,32
 1008324:	1105883a 	add	r2,r2,r4
 1008328:	10c00003 	ldbu	r3,0(r2)
 100832c:	28c7883a 	add	r3,r5,r3
 1008330:	30cbc83a 	sub	r5,r6,r3
 1008334:	28000626 	beq	r5,zero,1008350 <__udivdi3+0x23c>
 1008338:	3145c83a 	sub	r2,r6,r5
 100833c:	e084d83a 	srl	r2,fp,r2
 1008340:	a946983a 	sll	r3,r21,r5
 1008344:	e178983a 	sll	fp,fp,r5
 1008348:	9966983a 	sll	r19,r19,r5
 100834c:	18aab03a 	or	r21,r3,r2
 1008350:	982ed43a 	srli	r23,r19,16
 1008354:	a809883a 	mov	r4,r21
 1008358:	9cbfffcc 	andi	r18,r19,65535
 100835c:	b80b883a 	mov	r5,r23
 1008360:	1000b140 	call	1000b14 <__udivsi3>
 1008364:	100b883a 	mov	r5,r2
 1008368:	9009883a 	mov	r4,r18
 100836c:	1021883a 	mov	r16,r2
 1008370:	1009f0c0 	call	1009f0c <__mulsi3>
 1008374:	a809883a 	mov	r4,r21
 1008378:	b80b883a 	mov	r5,r23
 100837c:	1023883a 	mov	r17,r2
 1008380:	1000b1c0 	call	1000b1c <__umodsi3>
 1008384:	1004943a 	slli	r2,r2,16
 1008388:	e006d43a 	srli	r3,fp,16
 100838c:	10c4b03a 	or	r2,r2,r3
 1008390:	1440042e 	bgeu	r2,r17,10083a4 <__udivdi3+0x290>
 1008394:	14c5883a 	add	r2,r2,r19
 1008398:	843fffc4 	addi	r16,r16,-1
 100839c:	14c00136 	bltu	r2,r19,10083a4 <__udivdi3+0x290>
 10083a0:	1440ea36 	bltu	r2,r17,100874c <__udivdi3+0x638>
 10083a4:	1463c83a 	sub	r17,r2,r17
 10083a8:	8809883a 	mov	r4,r17
 10083ac:	b80b883a 	mov	r5,r23
 10083b0:	1000b140 	call	1000b14 <__udivsi3>
 10083b4:	100b883a 	mov	r5,r2
 10083b8:	9009883a 	mov	r4,r18
 10083bc:	102b883a 	mov	r21,r2
 10083c0:	1009f0c0 	call	1009f0c <__mulsi3>
 10083c4:	8809883a 	mov	r4,r17
 10083c8:	b80b883a 	mov	r5,r23
 10083cc:	1025883a 	mov	r18,r2
 10083d0:	1000b1c0 	call	1000b1c <__umodsi3>
 10083d4:	1004943a 	slli	r2,r2,16
 10083d8:	e0ffffcc 	andi	r3,fp,65535
 10083dc:	10c4b03a 	or	r2,r2,r3
 10083e0:	1480042e 	bgeu	r2,r18,10083f4 <__udivdi3+0x2e0>
 10083e4:	9885883a 	add	r2,r19,r2
 10083e8:	ad7fffc4 	addi	r21,r21,-1
 10083ec:	14c00136 	bltu	r2,r19,10083f4 <__udivdi3+0x2e0>
 10083f0:	1480d936 	bltu	r2,r18,1008758 <__udivdi3+0x644>
 10083f4:	8004943a 	slli	r2,r16,16
 10083f8:	0009883a 	mov	r4,zero
 10083fc:	a884b03a 	or	r2,r21,r2
 1008400:	003fad06 	br	10082b8 <__udivdi3+0x1a4>
 1008404:	00804034 	movhi	r2,256
 1008408:	10bfffc4 	addi	r2,r2,-1
 100840c:	11c0b636 	bltu	r2,r7,10086e8 <__udivdi3+0x5d4>
 1008410:	01400404 	movi	r5,16
 1008414:	2805883a 	mov	r2,r5
 1008418:	003f9a06 	br	1008284 <__udivdi3+0x170>
 100841c:	0005883a 	mov	r2,zero
 1008420:	0009883a 	mov	r4,zero
 1008424:	003fa406 	br	10082b8 <__udivdi3+0x1a4>
 1008428:	00804034 	movhi	r2,256
 100842c:	10bfffc4 	addi	r2,r2,-1
 1008430:	14c0b336 	bltu	r2,r19,1008700 <__udivdi3+0x5ec>
 1008434:	01400404 	movi	r5,16
 1008438:	2805883a 	mov	r2,r5
 100843c:	003f5106 	br	1008184 <__udivdi3+0x70>
 1008440:	01000044 	movi	r4,1
 1008444:	000b883a 	mov	r5,zero
 1008448:	1000b140 	call	1000b14 <__udivsi3>
 100844c:	1027883a 	mov	r19,r2
 1008450:	00bfffd4 	movui	r2,65535
 1008454:	14fff436 	bltu	r2,r19,1008428 <__udivdi3+0x314>
 1008458:	003f4606 	br	1008174 <__udivdi3+0x60>
 100845c:	00804034 	movhi	r2,256
 1008460:	10bfffc4 	addi	r2,r2,-1
 1008464:	1200ac36 	bltu	r2,r8,1008718 <__udivdi3+0x604>
 1008468:	01400404 	movi	r5,16
 100846c:	2805883a 	mov	r2,r5
 1008470:	003fa806 	br	1008314 <__udivdi3+0x200>
 1008474:	3d85c83a 	sub	r2,r7,r22
 1008478:	3588983a 	sll	r4,r6,r22
 100847c:	9886d83a 	srl	r3,r19,r2
 1008480:	a8a2d83a 	srl	r17,r21,r2
 1008484:	e084d83a 	srl	r2,fp,r2
 1008488:	20eeb03a 	or	r23,r4,r3
 100848c:	b824d43a 	srli	r18,r23,16
 1008490:	ad86983a 	sll	r3,r21,r22
 1008494:	8809883a 	mov	r4,r17
 1008498:	900b883a 	mov	r5,r18
 100849c:	1886b03a 	or	r3,r3,r2
 10084a0:	d8c00115 	stw	r3,4(sp)
 10084a4:	bc3fffcc 	andi	r16,r23,65535
 10084a8:	1000b140 	call	1000b14 <__udivsi3>
 10084ac:	100b883a 	mov	r5,r2
 10084b0:	8009883a 	mov	r4,r16
 10084b4:	1029883a 	mov	r20,r2
 10084b8:	1009f0c0 	call	1009f0c <__mulsi3>
 10084bc:	900b883a 	mov	r5,r18
 10084c0:	8809883a 	mov	r4,r17
 10084c4:	102b883a 	mov	r21,r2
 10084c8:	1000b1c0 	call	1000b1c <__umodsi3>
 10084cc:	d9400117 	ldw	r5,4(sp)
 10084d0:	1004943a 	slli	r2,r2,16
 10084d4:	9da6983a 	sll	r19,r19,r22
 10084d8:	2806d43a 	srli	r3,r5,16
 10084dc:	10c4b03a 	or	r2,r2,r3
 10084e0:	1540032e 	bgeu	r2,r21,10084f0 <__udivdi3+0x3dc>
 10084e4:	15c5883a 	add	r2,r2,r23
 10084e8:	a53fffc4 	addi	r20,r20,-1
 10084ec:	15c0912e 	bgeu	r2,r23,1008734 <__udivdi3+0x620>
 10084f0:	1563c83a 	sub	r17,r2,r21
 10084f4:	8809883a 	mov	r4,r17
 10084f8:	900b883a 	mov	r5,r18
 10084fc:	1000b140 	call	1000b14 <__udivsi3>
 1008500:	100b883a 	mov	r5,r2
 1008504:	8009883a 	mov	r4,r16
 1008508:	102b883a 	mov	r21,r2
 100850c:	1009f0c0 	call	1009f0c <__mulsi3>
 1008510:	8809883a 	mov	r4,r17
 1008514:	900b883a 	mov	r5,r18
 1008518:	1021883a 	mov	r16,r2
 100851c:	1000b1c0 	call	1000b1c <__umodsi3>
 1008520:	da800117 	ldw	r10,4(sp)
 1008524:	1004943a 	slli	r2,r2,16
 1008528:	50ffffcc 	andi	r3,r10,65535
 100852c:	10c6b03a 	or	r3,r2,r3
 1008530:	1c00032e 	bgeu	r3,r16,1008540 <__udivdi3+0x42c>
 1008534:	1dc7883a 	add	r3,r3,r23
 1008538:	ad7fffc4 	addi	r21,r21,-1
 100853c:	1dc0792e 	bgeu	r3,r23,1008724 <__udivdi3+0x610>
 1008540:	a004943a 	slli	r2,r20,16
 1008544:	982ed43a 	srli	r23,r19,16
 1008548:	9cffffcc 	andi	r19,r19,65535
 100854c:	a8a4b03a 	or	r18,r21,r2
 1008550:	947fffcc 	andi	r17,r18,65535
 1008554:	902ad43a 	srli	r21,r18,16
 1008558:	8809883a 	mov	r4,r17
 100855c:	980b883a 	mov	r5,r19
 1008560:	1c21c83a 	sub	r16,r3,r16
 1008564:	1009f0c0 	call	1009f0c <__mulsi3>
 1008568:	8809883a 	mov	r4,r17
 100856c:	b80b883a 	mov	r5,r23
 1008570:	1029883a 	mov	r20,r2
 1008574:	1009f0c0 	call	1009f0c <__mulsi3>
 1008578:	980b883a 	mov	r5,r19
 100857c:	a809883a 	mov	r4,r21
 1008580:	1023883a 	mov	r17,r2
 1008584:	1009f0c0 	call	1009f0c <__mulsi3>
 1008588:	a809883a 	mov	r4,r21
 100858c:	b80b883a 	mov	r5,r23
 1008590:	1027883a 	mov	r19,r2
 1008594:	1009f0c0 	call	1009f0c <__mulsi3>
 1008598:	1009883a 	mov	r4,r2
 100859c:	a004d43a 	srli	r2,r20,16
 10085a0:	8ce3883a 	add	r17,r17,r19
 10085a4:	1447883a 	add	r3,r2,r17
 10085a8:	1cc0022e 	bgeu	r3,r19,10085b4 <__udivdi3+0x4a0>
 10085ac:	00800074 	movhi	r2,1
 10085b0:	2089883a 	add	r4,r4,r2
 10085b4:	1804d43a 	srli	r2,r3,16
 10085b8:	2085883a 	add	r2,r4,r2
 10085bc:	80804436 	bltu	r16,r2,10086d0 <__udivdi3+0x5bc>
 10085c0:	80803e26 	beq	r16,r2,10086bc <__udivdi3+0x5a8>
 10085c4:	9005883a 	mov	r2,r18
 10085c8:	0009883a 	mov	r4,zero
 10085cc:	003f3a06 	br	10082b8 <__udivdi3+0x1a4>
 10085d0:	9d26983a 	sll	r19,r19,r20
 10085d4:	3505c83a 	sub	r2,r6,r20
 10085d8:	a8a2d83a 	srl	r17,r21,r2
 10085dc:	982ed43a 	srli	r23,r19,16
 10085e0:	e084d83a 	srl	r2,fp,r2
 10085e4:	ad06983a 	sll	r3,r21,r20
 10085e8:	8809883a 	mov	r4,r17
 10085ec:	b80b883a 	mov	r5,r23
 10085f0:	1886b03a 	or	r3,r3,r2
 10085f4:	d8c00015 	stw	r3,0(sp)
 10085f8:	9dbfffcc 	andi	r22,r19,65535
 10085fc:	1000b140 	call	1000b14 <__udivsi3>
 1008600:	100b883a 	mov	r5,r2
 1008604:	b009883a 	mov	r4,r22
 1008608:	d8800215 	stw	r2,8(sp)
 100860c:	1009f0c0 	call	1009f0c <__mulsi3>
 1008610:	8809883a 	mov	r4,r17
 1008614:	b80b883a 	mov	r5,r23
 1008618:	102b883a 	mov	r21,r2
 100861c:	1000b1c0 	call	1000b1c <__umodsi3>
 1008620:	d9000017 	ldw	r4,0(sp)
 1008624:	1004943a 	slli	r2,r2,16
 1008628:	2006d43a 	srli	r3,r4,16
 100862c:	10c4b03a 	or	r2,r2,r3
 1008630:	1540052e 	bgeu	r2,r21,1008648 <__udivdi3+0x534>
 1008634:	d9400217 	ldw	r5,8(sp)
 1008638:	14c5883a 	add	r2,r2,r19
 100863c:	297fffc4 	addi	r5,r5,-1
 1008640:	d9400215 	stw	r5,8(sp)
 1008644:	14c0462e 	bgeu	r2,r19,1008760 <__udivdi3+0x64c>
 1008648:	1563c83a 	sub	r17,r2,r21
 100864c:	8809883a 	mov	r4,r17
 1008650:	b80b883a 	mov	r5,r23
 1008654:	1000b140 	call	1000b14 <__udivsi3>
 1008658:	100b883a 	mov	r5,r2
 100865c:	b009883a 	mov	r4,r22
 1008660:	1025883a 	mov	r18,r2
 1008664:	1009f0c0 	call	1009f0c <__mulsi3>
 1008668:	8809883a 	mov	r4,r17
 100866c:	b80b883a 	mov	r5,r23
 1008670:	1021883a 	mov	r16,r2
 1008674:	1000b1c0 	call	1000b1c <__umodsi3>
 1008678:	da800017 	ldw	r10,0(sp)
 100867c:	1004943a 	slli	r2,r2,16
 1008680:	50ffffcc 	andi	r3,r10,65535
 1008684:	10c6b03a 	or	r3,r2,r3
 1008688:	1c00062e 	bgeu	r3,r16,10086a4 <__udivdi3+0x590>
 100868c:	1cc7883a 	add	r3,r3,r19
 1008690:	94bfffc4 	addi	r18,r18,-1
 1008694:	1cc00336 	bltu	r3,r19,10086a4 <__udivdi3+0x590>
 1008698:	1c00022e 	bgeu	r3,r16,10086a4 <__udivdi3+0x590>
 100869c:	94bfffc4 	addi	r18,r18,-1
 10086a0:	1cc7883a 	add	r3,r3,r19
 10086a4:	d9000217 	ldw	r4,8(sp)
 10086a8:	e538983a 	sll	fp,fp,r20
 10086ac:	1c2bc83a 	sub	r21,r3,r16
 10086b0:	2004943a 	slli	r2,r4,16
 10086b4:	90a8b03a 	or	r20,r18,r2
 10086b8:	003ebf06 	br	10081b8 <__udivdi3+0xa4>
 10086bc:	1804943a 	slli	r2,r3,16
 10086c0:	e588983a 	sll	r4,fp,r22
 10086c4:	a0ffffcc 	andi	r3,r20,65535
 10086c8:	10c5883a 	add	r2,r2,r3
 10086cc:	20bfbd2e 	bgeu	r4,r2,10085c4 <__udivdi3+0x4b0>
 10086d0:	90bfffc4 	addi	r2,r18,-1
 10086d4:	0009883a 	mov	r4,zero
 10086d8:	003ef706 	br	10082b8 <__udivdi3+0x1a4>
 10086dc:	01400204 	movi	r5,8
 10086e0:	2805883a 	mov	r2,r5
 10086e4:	003ee706 	br	1008284 <__udivdi3+0x170>
 10086e8:	01400604 	movi	r5,24
 10086ec:	2805883a 	mov	r2,r5
 10086f0:	003ee406 	br	1008284 <__udivdi3+0x170>
 10086f4:	01400204 	movi	r5,8
 10086f8:	2805883a 	mov	r2,r5
 10086fc:	003ea106 	br	1008184 <__udivdi3+0x70>
 1008700:	01400604 	movi	r5,24
 1008704:	2805883a 	mov	r2,r5
 1008708:	003e9e06 	br	1008184 <__udivdi3+0x70>
 100870c:	01400204 	movi	r5,8
 1008710:	2805883a 	mov	r2,r5
 1008714:	003eff06 	br	1008314 <__udivdi3+0x200>
 1008718:	01400604 	movi	r5,24
 100871c:	2805883a 	mov	r2,r5
 1008720:	003efc06 	br	1008314 <__udivdi3+0x200>
 1008724:	1c3f862e 	bgeu	r3,r16,1008540 <__udivdi3+0x42c>
 1008728:	1dc7883a 	add	r3,r3,r23
 100872c:	ad7fffc4 	addi	r21,r21,-1
 1008730:	003f8306 	br	1008540 <__udivdi3+0x42c>
 1008734:	157f6e2e 	bgeu	r2,r21,10084f0 <__udivdi3+0x3dc>
 1008738:	a53fffc4 	addi	r20,r20,-1
 100873c:	15c5883a 	add	r2,r2,r23
 1008740:	003f6b06 	br	10084f0 <__udivdi3+0x3dc>
 1008744:	ad7fffc4 	addi	r21,r21,-1
 1008748:	003ec206 	br	1008254 <__udivdi3+0x140>
 100874c:	843fffc4 	addi	r16,r16,-1
 1008750:	14c5883a 	add	r2,r2,r19
 1008754:	003f1306 	br	10083a4 <__udivdi3+0x290>
 1008758:	ad7fffc4 	addi	r21,r21,-1
 100875c:	003f2506 	br	10083f4 <__udivdi3+0x2e0>
 1008760:	157fb92e 	bgeu	r2,r21,1008648 <__udivdi3+0x534>
 1008764:	297fffc4 	addi	r5,r5,-1
 1008768:	14c5883a 	add	r2,r2,r19
 100876c:	d9400215 	stw	r5,8(sp)
 1008770:	003fb506 	br	1008648 <__udivdi3+0x534>
 1008774:	843fffc4 	addi	r16,r16,-1
 1008778:	14c5883a 	add	r2,r2,r19
 100877c:	003ea106 	br	1008204 <__udivdi3+0xf0>

01008780 <__umoddi3>:
 1008780:	defff004 	addi	sp,sp,-64
 1008784:	3011883a 	mov	r8,r6
 1008788:	000d883a 	mov	r6,zero
 100878c:	dd400b15 	stw	r21,44(sp)
 1008790:	dcc00915 	stw	r19,36(sp)
 1008794:	dc000615 	stw	r16,24(sp)
 1008798:	dfc00f15 	stw	ra,60(sp)
 100879c:	df000e15 	stw	fp,56(sp)
 10087a0:	ddc00d15 	stw	r23,52(sp)
 10087a4:	dd800c15 	stw	r22,48(sp)
 10087a8:	dd000a15 	stw	r20,40(sp)
 10087ac:	dc800815 	stw	r18,32(sp)
 10087b0:	dc400715 	stw	r17,28(sp)
 10087b4:	2817883a 	mov	r11,r5
 10087b8:	d9800415 	stw	r6,16(sp)
 10087bc:	4027883a 	mov	r19,r8
 10087c0:	d9800515 	stw	r6,20(sp)
 10087c4:	2021883a 	mov	r16,r4
 10087c8:	282b883a 	mov	r21,r5
 10087cc:	38002c1e 	bne	r7,zero,1008880 <__umoddi3+0x100>
 10087d0:	2a005636 	bltu	r5,r8,100892c <__umoddi3+0x1ac>
 10087d4:	40009a26 	beq	r8,zero,1008a40 <__umoddi3+0x2c0>
 10087d8:	00bfffd4 	movui	r2,65535
 10087dc:	14c09236 	bltu	r2,r19,1008a28 <__umoddi3+0x2a8>
 10087e0:	00803fc4 	movi	r2,255
 10087e4:	14c15c36 	bltu	r2,r19,1008d58 <__umoddi3+0x5d8>
 10087e8:	000b883a 	mov	r5,zero
 10087ec:	0005883a 	mov	r2,zero
 10087f0:	9884d83a 	srl	r2,r19,r2
 10087f4:	01004074 	movhi	r4,257
 10087f8:	213b3604 	addi	r4,r4,-4904
 10087fc:	01800804 	movi	r6,32
 1008800:	1105883a 	add	r2,r2,r4
 1008804:	10c00003 	ldbu	r3,0(r2)
 1008808:	28c7883a 	add	r3,r5,r3
 100880c:	30e5c83a 	sub	r18,r6,r3
 1008810:	9000a41e 	bne	r18,zero,1008aa4 <__umoddi3+0x324>
 1008814:	982ed43a 	srli	r23,r19,16
 1008818:	acebc83a 	sub	r21,r21,r19
 100881c:	9d3fffcc 	andi	r20,r19,65535
 1008820:	002d883a 	mov	r22,zero
 1008824:	a809883a 	mov	r4,r21
 1008828:	b80b883a 	mov	r5,r23
 100882c:	1000b140 	call	1000b14 <__udivsi3>
 1008830:	100b883a 	mov	r5,r2
 1008834:	a009883a 	mov	r4,r20
 1008838:	1009f0c0 	call	1009f0c <__mulsi3>
 100883c:	a809883a 	mov	r4,r21
 1008840:	b80b883a 	mov	r5,r23
 1008844:	1023883a 	mov	r17,r2
 1008848:	1000b1c0 	call	1000b1c <__umodsi3>
 100884c:	1004943a 	slli	r2,r2,16
 1008850:	8006d43a 	srli	r3,r16,16
 1008854:	10c4b03a 	or	r2,r2,r3
 1008858:	1440032e 	bgeu	r2,r17,1008868 <__umoddi3+0xe8>
 100885c:	14c5883a 	add	r2,r2,r19
 1008860:	14c00136 	bltu	r2,r19,1008868 <__umoddi3+0xe8>
 1008864:	14415836 	bltu	r2,r17,1008dc8 <__umoddi3+0x648>
 1008868:	1463c83a 	sub	r17,r2,r17
 100886c:	8809883a 	mov	r4,r17
 1008870:	b80b883a 	mov	r5,r23
 1008874:	1000b140 	call	1000b14 <__udivsi3>
 1008878:	a009883a 	mov	r4,r20
 100887c:	00005306 	br	10089cc <__umoddi3+0x24c>
 1008880:	380d883a 	mov	r6,r7
 1008884:	29c0132e 	bgeu	r5,r7,10088d4 <__umoddi3+0x154>
 1008888:	d9000415 	stw	r4,16(sp)
 100888c:	d9400515 	stw	r5,20(sp)
 1008890:	d9400417 	ldw	r5,16(sp)
 1008894:	5813883a 	mov	r9,r11
 1008898:	2811883a 	mov	r8,r5
 100889c:	4005883a 	mov	r2,r8
 10088a0:	4807883a 	mov	r3,r9
 10088a4:	dfc00f17 	ldw	ra,60(sp)
 10088a8:	df000e17 	ldw	fp,56(sp)
 10088ac:	ddc00d17 	ldw	r23,52(sp)
 10088b0:	dd800c17 	ldw	r22,48(sp)
 10088b4:	dd400b17 	ldw	r21,44(sp)
 10088b8:	dd000a17 	ldw	r20,40(sp)
 10088bc:	dcc00917 	ldw	r19,36(sp)
 10088c0:	dc800817 	ldw	r18,32(sp)
 10088c4:	dc400717 	ldw	r17,28(sp)
 10088c8:	dc000617 	ldw	r16,24(sp)
 10088cc:	dec01004 	addi	sp,sp,64
 10088d0:	f800283a 	ret
 10088d4:	00bfffd4 	movui	r2,65535
 10088d8:	11c06636 	bltu	r2,r7,1008a74 <__umoddi3+0x2f4>
 10088dc:	00803fc4 	movi	r2,255
 10088e0:	11c12036 	bltu	r2,r7,1008d64 <__umoddi3+0x5e4>
 10088e4:	000b883a 	mov	r5,zero
 10088e8:	0005883a 	mov	r2,zero
 10088ec:	3084d83a 	srl	r2,r6,r2
 10088f0:	01004074 	movhi	r4,257
 10088f4:	213b3604 	addi	r4,r4,-4904
 10088f8:	01c00804 	movi	r7,32
 10088fc:	1105883a 	add	r2,r2,r4
 1008900:	10c00003 	ldbu	r3,0(r2)
 1008904:	28c7883a 	add	r3,r5,r3
 1008908:	38e5c83a 	sub	r18,r7,r3
 100890c:	9000941e 	bne	r18,zero,1008b60 <__umoddi3+0x3e0>
 1008910:	35405e36 	bltu	r6,r21,1008a8c <__umoddi3+0x30c>
 1008914:	84c05d2e 	bgeu	r16,r19,1008a8c <__umoddi3+0x30c>
 1008918:	8011883a 	mov	r8,r16
 100891c:	a813883a 	mov	r9,r21
 1008920:	dc000415 	stw	r16,16(sp)
 1008924:	dd400515 	stw	r21,20(sp)
 1008928:	003fdc06 	br	100889c <__umoddi3+0x11c>
 100892c:	00bfffd4 	movui	r2,65535
 1008930:	12004a36 	bltu	r2,r8,1008a5c <__umoddi3+0x2dc>
 1008934:	00803fc4 	movi	r2,255
 1008938:	12010d36 	bltu	r2,r8,1008d70 <__umoddi3+0x5f0>
 100893c:	000b883a 	mov	r5,zero
 1008940:	0005883a 	mov	r2,zero
 1008944:	9884d83a 	srl	r2,r19,r2
 1008948:	01004074 	movhi	r4,257
 100894c:	213b3604 	addi	r4,r4,-4904
 1008950:	01800804 	movi	r6,32
 1008954:	1105883a 	add	r2,r2,r4
 1008958:	10c00003 	ldbu	r3,0(r2)
 100895c:	28c7883a 	add	r3,r5,r3
 1008960:	30c7c83a 	sub	r3,r6,r3
 1008964:	1800dc1e 	bne	r3,zero,1008cd8 <__umoddi3+0x558>
 1008968:	002d883a 	mov	r22,zero
 100896c:	982ed43a 	srli	r23,r19,16
 1008970:	a809883a 	mov	r4,r21
 1008974:	9cbfffcc 	andi	r18,r19,65535
 1008978:	b80b883a 	mov	r5,r23
 100897c:	1000b140 	call	1000b14 <__udivsi3>
 1008980:	100b883a 	mov	r5,r2
 1008984:	9009883a 	mov	r4,r18
 1008988:	1009f0c0 	call	1009f0c <__mulsi3>
 100898c:	a809883a 	mov	r4,r21
 1008990:	b80b883a 	mov	r5,r23
 1008994:	1023883a 	mov	r17,r2
 1008998:	1000b1c0 	call	1000b1c <__umodsi3>
 100899c:	1004943a 	slli	r2,r2,16
 10089a0:	8006d43a 	srli	r3,r16,16
 10089a4:	10c4b03a 	or	r2,r2,r3
 10089a8:	1440032e 	bgeu	r2,r17,10089b8 <__umoddi3+0x238>
 10089ac:	14c5883a 	add	r2,r2,r19
 10089b0:	14c00136 	bltu	r2,r19,10089b8 <__umoddi3+0x238>
 10089b4:	14410236 	bltu	r2,r17,1008dc0 <__umoddi3+0x640>
 10089b8:	1463c83a 	sub	r17,r2,r17
 10089bc:	8809883a 	mov	r4,r17
 10089c0:	b80b883a 	mov	r5,r23
 10089c4:	1000b140 	call	1000b14 <__udivsi3>
 10089c8:	9009883a 	mov	r4,r18
 10089cc:	100b883a 	mov	r5,r2
 10089d0:	1009f0c0 	call	1009f0c <__mulsi3>
 10089d4:	8809883a 	mov	r4,r17
 10089d8:	b80b883a 	mov	r5,r23
 10089dc:	102b883a 	mov	r21,r2
 10089e0:	1000b1c0 	call	1000b1c <__umodsi3>
 10089e4:	1004943a 	slli	r2,r2,16
 10089e8:	80ffffcc 	andi	r3,r16,65535
 10089ec:	10c4b03a 	or	r2,r2,r3
 10089f0:	1540042e 	bgeu	r2,r21,1008a04 <__umoddi3+0x284>
 10089f4:	14c5883a 	add	r2,r2,r19
 10089f8:	14c00236 	bltu	r2,r19,1008a04 <__umoddi3+0x284>
 10089fc:	1540012e 	bgeu	r2,r21,1008a04 <__umoddi3+0x284>
 1008a00:	14c5883a 	add	r2,r2,r19
 1008a04:	1545c83a 	sub	r2,r2,r21
 1008a08:	1584d83a 	srl	r2,r2,r22
 1008a0c:	0013883a 	mov	r9,zero
 1008a10:	d8800415 	stw	r2,16(sp)
 1008a14:	d8c00417 	ldw	r3,16(sp)
 1008a18:	0005883a 	mov	r2,zero
 1008a1c:	d8800515 	stw	r2,20(sp)
 1008a20:	1811883a 	mov	r8,r3
 1008a24:	003f9d06 	br	100889c <__umoddi3+0x11c>
 1008a28:	00804034 	movhi	r2,256
 1008a2c:	10bfffc4 	addi	r2,r2,-1
 1008a30:	14c0c636 	bltu	r2,r19,1008d4c <__umoddi3+0x5cc>
 1008a34:	01400404 	movi	r5,16
 1008a38:	2805883a 	mov	r2,r5
 1008a3c:	003f6c06 	br	10087f0 <__umoddi3+0x70>
 1008a40:	01000044 	movi	r4,1
 1008a44:	000b883a 	mov	r5,zero
 1008a48:	1000b140 	call	1000b14 <__udivsi3>
 1008a4c:	1027883a 	mov	r19,r2
 1008a50:	00bfffd4 	movui	r2,65535
 1008a54:	14fff436 	bltu	r2,r19,1008a28 <__umoddi3+0x2a8>
 1008a58:	003f6106 	br	10087e0 <__umoddi3+0x60>
 1008a5c:	00804034 	movhi	r2,256
 1008a60:	10bfffc4 	addi	r2,r2,-1
 1008a64:	1200c536 	bltu	r2,r8,1008d7c <__umoddi3+0x5fc>
 1008a68:	01400404 	movi	r5,16
 1008a6c:	2805883a 	mov	r2,r5
 1008a70:	003fb406 	br	1008944 <__umoddi3+0x1c4>
 1008a74:	00804034 	movhi	r2,256
 1008a78:	10bfffc4 	addi	r2,r2,-1
 1008a7c:	11c0c236 	bltu	r2,r7,1008d88 <__umoddi3+0x608>
 1008a80:	01400404 	movi	r5,16
 1008a84:	2805883a 	mov	r2,r5
 1008a88:	003f9806 	br	10088ec <__umoddi3+0x16c>
 1008a8c:	84c9c83a 	sub	r4,r16,r19
 1008a90:	8105803a 	cmpltu	r2,r16,r4
 1008a94:	a987c83a 	sub	r3,r21,r6
 1008a98:	18abc83a 	sub	r21,r3,r2
 1008a9c:	2021883a 	mov	r16,r4
 1008aa0:	003f9d06 	br	1008918 <__umoddi3+0x198>
 1008aa4:	9ca6983a 	sll	r19,r19,r18
 1008aa8:	3485c83a 	sub	r2,r6,r18
 1008aac:	a8a2d83a 	srl	r17,r21,r2
 1008ab0:	982ed43a 	srli	r23,r19,16
 1008ab4:	ac86983a 	sll	r3,r21,r18
 1008ab8:	8084d83a 	srl	r2,r16,r2
 1008abc:	8809883a 	mov	r4,r17
 1008ac0:	b80b883a 	mov	r5,r23
 1008ac4:	18b8b03a 	or	fp,r3,r2
 1008ac8:	9d3fffcc 	andi	r20,r19,65535
 1008acc:	1000b140 	call	1000b14 <__udivsi3>
 1008ad0:	100b883a 	mov	r5,r2
 1008ad4:	a009883a 	mov	r4,r20
 1008ad8:	1009f0c0 	call	1009f0c <__mulsi3>
 1008adc:	8809883a 	mov	r4,r17
 1008ae0:	b80b883a 	mov	r5,r23
 1008ae4:	102b883a 	mov	r21,r2
 1008ae8:	1000b1c0 	call	1000b1c <__umodsi3>
 1008aec:	1004943a 	slli	r2,r2,16
 1008af0:	e006d43a 	srli	r3,fp,16
 1008af4:	902d883a 	mov	r22,r18
 1008af8:	10c4b03a 	or	r2,r2,r3
 1008afc:	1540022e 	bgeu	r2,r21,1008b08 <__umoddi3+0x388>
 1008b00:	14c5883a 	add	r2,r2,r19
 1008b04:	14c0ab2e 	bgeu	r2,r19,1008db4 <__umoddi3+0x634>
 1008b08:	1563c83a 	sub	r17,r2,r21
 1008b0c:	8809883a 	mov	r4,r17
 1008b10:	b80b883a 	mov	r5,r23
 1008b14:	1000b140 	call	1000b14 <__udivsi3>
 1008b18:	100b883a 	mov	r5,r2
 1008b1c:	a009883a 	mov	r4,r20
 1008b20:	1009f0c0 	call	1009f0c <__mulsi3>
 1008b24:	8809883a 	mov	r4,r17
 1008b28:	b80b883a 	mov	r5,r23
 1008b2c:	102b883a 	mov	r21,r2
 1008b30:	1000b1c0 	call	1000b1c <__umodsi3>
 1008b34:	1004943a 	slli	r2,r2,16
 1008b38:	e0ffffcc 	andi	r3,fp,65535
 1008b3c:	10c4b03a 	or	r2,r2,r3
 1008b40:	1540042e 	bgeu	r2,r21,1008b54 <__umoddi3+0x3d4>
 1008b44:	14c5883a 	add	r2,r2,r19
 1008b48:	14c00236 	bltu	r2,r19,1008b54 <__umoddi3+0x3d4>
 1008b4c:	1540012e 	bgeu	r2,r21,1008b54 <__umoddi3+0x3d4>
 1008b50:	14c5883a 	add	r2,r2,r19
 1008b54:	84a0983a 	sll	r16,r16,r18
 1008b58:	156bc83a 	sub	r21,r2,r21
 1008b5c:	003f3106 	br	1008824 <__umoddi3+0xa4>
 1008b60:	3c8fc83a 	sub	r7,r7,r18
 1008b64:	3486983a 	sll	r3,r6,r18
 1008b68:	99c4d83a 	srl	r2,r19,r7
 1008b6c:	a9e2d83a 	srl	r17,r21,r7
 1008b70:	ac8c983a 	sll	r6,r21,r18
 1008b74:	18acb03a 	or	r22,r3,r2
 1008b78:	b02ed43a 	srli	r23,r22,16
 1008b7c:	81c4d83a 	srl	r2,r16,r7
 1008b80:	8809883a 	mov	r4,r17
 1008b84:	b80b883a 	mov	r5,r23
 1008b88:	308cb03a 	or	r6,r6,r2
 1008b8c:	d9c00315 	stw	r7,12(sp)
 1008b90:	d9800215 	stw	r6,8(sp)
 1008b94:	b53fffcc 	andi	r20,r22,65535
 1008b98:	1000b140 	call	1000b14 <__udivsi3>
 1008b9c:	100b883a 	mov	r5,r2
 1008ba0:	a009883a 	mov	r4,r20
 1008ba4:	1039883a 	mov	fp,r2
 1008ba8:	1009f0c0 	call	1009f0c <__mulsi3>
 1008bac:	8809883a 	mov	r4,r17
 1008bb0:	b80b883a 	mov	r5,r23
 1008bb4:	102b883a 	mov	r21,r2
 1008bb8:	1000b1c0 	call	1000b1c <__umodsi3>
 1008bbc:	d9000217 	ldw	r4,8(sp)
 1008bc0:	1004943a 	slli	r2,r2,16
 1008bc4:	9ca6983a 	sll	r19,r19,r18
 1008bc8:	2006d43a 	srli	r3,r4,16
 1008bcc:	84a0983a 	sll	r16,r16,r18
 1008bd0:	dcc00015 	stw	r19,0(sp)
 1008bd4:	10c4b03a 	or	r2,r2,r3
 1008bd8:	dc000115 	stw	r16,4(sp)
 1008bdc:	1540032e 	bgeu	r2,r21,1008bec <__umoddi3+0x46c>
 1008be0:	1585883a 	add	r2,r2,r22
 1008be4:	e73fffc4 	addi	fp,fp,-1
 1008be8:	15806e2e 	bgeu	r2,r22,1008da4 <__umoddi3+0x624>
 1008bec:	1563c83a 	sub	r17,r2,r21
 1008bf0:	8809883a 	mov	r4,r17
 1008bf4:	b80b883a 	mov	r5,r23
 1008bf8:	1000b140 	call	1000b14 <__udivsi3>
 1008bfc:	100b883a 	mov	r5,r2
 1008c00:	a009883a 	mov	r4,r20
 1008c04:	1021883a 	mov	r16,r2
 1008c08:	1009f0c0 	call	1009f0c <__mulsi3>
 1008c0c:	b80b883a 	mov	r5,r23
 1008c10:	8809883a 	mov	r4,r17
 1008c14:	1029883a 	mov	r20,r2
 1008c18:	1000b1c0 	call	1000b1c <__umodsi3>
 1008c1c:	d9400217 	ldw	r5,8(sp)
 1008c20:	1004943a 	slli	r2,r2,16
 1008c24:	28ffffcc 	andi	r3,r5,65535
 1008c28:	10c4b03a 	or	r2,r2,r3
 1008c2c:	1500032e 	bgeu	r2,r20,1008c3c <__umoddi3+0x4bc>
 1008c30:	1585883a 	add	r2,r2,r22
 1008c34:	843fffc4 	addi	r16,r16,-1
 1008c38:	1580562e 	bgeu	r2,r22,1008d94 <__umoddi3+0x614>
 1008c3c:	d9800017 	ldw	r6,0(sp)
 1008c40:	e022943a 	slli	r17,fp,16
 1008c44:	302ed43a 	srli	r23,r6,16
 1008c48:	8462b03a 	or	r17,r16,r17
 1008c4c:	34ffffcc 	andi	r19,r6,65535
 1008c50:	882ad43a 	srli	r21,r17,16
 1008c54:	8c7fffcc 	andi	r17,r17,65535
 1008c58:	8809883a 	mov	r4,r17
 1008c5c:	980b883a 	mov	r5,r19
 1008c60:	1521c83a 	sub	r16,r2,r20
 1008c64:	1009f0c0 	call	1009f0c <__mulsi3>
 1008c68:	8809883a 	mov	r4,r17
 1008c6c:	b80b883a 	mov	r5,r23
 1008c70:	1029883a 	mov	r20,r2
 1008c74:	1009f0c0 	call	1009f0c <__mulsi3>
 1008c78:	980b883a 	mov	r5,r19
 1008c7c:	a809883a 	mov	r4,r21
 1008c80:	1023883a 	mov	r17,r2
 1008c84:	1009f0c0 	call	1009f0c <__mulsi3>
 1008c88:	a809883a 	mov	r4,r21
 1008c8c:	b80b883a 	mov	r5,r23
 1008c90:	1027883a 	mov	r19,r2
 1008c94:	1009f0c0 	call	1009f0c <__mulsi3>
 1008c98:	100b883a 	mov	r5,r2
 1008c9c:	a004d43a 	srli	r2,r20,16
 1008ca0:	8ce3883a 	add	r17,r17,r19
 1008ca4:	1449883a 	add	r4,r2,r17
 1008ca8:	24c0022e 	bgeu	r4,r19,1008cb4 <__umoddi3+0x534>
 1008cac:	00800074 	movhi	r2,1
 1008cb0:	288b883a 	add	r5,r5,r2
 1008cb4:	2004d43a 	srli	r2,r4,16
 1008cb8:	2008943a 	slli	r4,r4,16
 1008cbc:	a0ffffcc 	andi	r3,r20,65535
 1008cc0:	288d883a 	add	r6,r5,r2
 1008cc4:	20c9883a 	add	r4,r4,r3
 1008cc8:	81800b36 	bltu	r16,r6,1008cf8 <__umoddi3+0x578>
 1008ccc:	81804026 	beq	r16,r6,1008dd0 <__umoddi3+0x650>
 1008cd0:	818dc83a 	sub	r6,r16,r6
 1008cd4:	00000f06 	br	1008d14 <__umoddi3+0x594>
 1008cd8:	30c5c83a 	sub	r2,r6,r3
 1008cdc:	182d883a 	mov	r22,r3
 1008ce0:	8084d83a 	srl	r2,r16,r2
 1008ce4:	a8c6983a 	sll	r3,r21,r3
 1008ce8:	9da6983a 	sll	r19,r19,r22
 1008cec:	85a0983a 	sll	r16,r16,r22
 1008cf0:	18aab03a 	or	r21,r3,r2
 1008cf4:	003f1d06 	br	100896c <__umoddi3+0x1ec>
 1008cf8:	d8c00017 	ldw	r3,0(sp)
 1008cfc:	20c5c83a 	sub	r2,r4,r3
 1008d00:	2089803a 	cmpltu	r4,r4,r2
 1008d04:	3587c83a 	sub	r3,r6,r22
 1008d08:	1907c83a 	sub	r3,r3,r4
 1008d0c:	80cdc83a 	sub	r6,r16,r3
 1008d10:	1009883a 	mov	r4,r2
 1008d14:	d9400117 	ldw	r5,4(sp)
 1008d18:	2905c83a 	sub	r2,r5,r4
 1008d1c:	2887803a 	cmpltu	r3,r5,r2
 1008d20:	30c7c83a 	sub	r3,r6,r3
 1008d24:	d9800317 	ldw	r6,12(sp)
 1008d28:	1484d83a 	srl	r2,r2,r18
 1008d2c:	1988983a 	sll	r4,r3,r6
 1008d30:	1c86d83a 	srl	r3,r3,r18
 1008d34:	2088b03a 	or	r4,r4,r2
 1008d38:	2011883a 	mov	r8,r4
 1008d3c:	1813883a 	mov	r9,r3
 1008d40:	d9000415 	stw	r4,16(sp)
 1008d44:	d8c00515 	stw	r3,20(sp)
 1008d48:	003ed406 	br	100889c <__umoddi3+0x11c>
 1008d4c:	01400604 	movi	r5,24
 1008d50:	2805883a 	mov	r2,r5
 1008d54:	003ea606 	br	10087f0 <__umoddi3+0x70>
 1008d58:	01400204 	movi	r5,8
 1008d5c:	2805883a 	mov	r2,r5
 1008d60:	003ea306 	br	10087f0 <__umoddi3+0x70>
 1008d64:	01400204 	movi	r5,8
 1008d68:	2805883a 	mov	r2,r5
 1008d6c:	003edf06 	br	10088ec <__umoddi3+0x16c>
 1008d70:	01400204 	movi	r5,8
 1008d74:	2805883a 	mov	r2,r5
 1008d78:	003ef206 	br	1008944 <__umoddi3+0x1c4>
 1008d7c:	01400604 	movi	r5,24
 1008d80:	2805883a 	mov	r2,r5
 1008d84:	003eef06 	br	1008944 <__umoddi3+0x1c4>
 1008d88:	01400604 	movi	r5,24
 1008d8c:	2805883a 	mov	r2,r5
 1008d90:	003ed606 	br	10088ec <__umoddi3+0x16c>
 1008d94:	153fa92e 	bgeu	r2,r20,1008c3c <__umoddi3+0x4bc>
 1008d98:	843fffc4 	addi	r16,r16,-1
 1008d9c:	1585883a 	add	r2,r2,r22
 1008da0:	003fa606 	br	1008c3c <__umoddi3+0x4bc>
 1008da4:	157f912e 	bgeu	r2,r21,1008bec <__umoddi3+0x46c>
 1008da8:	e73fffc4 	addi	fp,fp,-1
 1008dac:	1585883a 	add	r2,r2,r22
 1008db0:	003f8e06 	br	1008bec <__umoddi3+0x46c>
 1008db4:	157f542e 	bgeu	r2,r21,1008b08 <__umoddi3+0x388>
 1008db8:	14c5883a 	add	r2,r2,r19
 1008dbc:	003f5206 	br	1008b08 <__umoddi3+0x388>
 1008dc0:	14c5883a 	add	r2,r2,r19
 1008dc4:	003efc06 	br	10089b8 <__umoddi3+0x238>
 1008dc8:	14c5883a 	add	r2,r2,r19
 1008dcc:	003ea606 	br	1008868 <__umoddi3+0xe8>
 1008dd0:	d8800117 	ldw	r2,4(sp)
 1008dd4:	113fc836 	bltu	r2,r4,1008cf8 <__umoddi3+0x578>
 1008dd8:	000d883a 	mov	r6,zero
 1008ddc:	003fcd06 	br	1008d14 <__umoddi3+0x594>

01008de0 <_fpadd_parts>:
 1008de0:	defff804 	addi	sp,sp,-32
 1008de4:	dcc00315 	stw	r19,12(sp)
 1008de8:	2027883a 	mov	r19,r4
 1008dec:	21000017 	ldw	r4,0(r4)
 1008df0:	00c00044 	movi	r3,1
 1008df4:	dd400515 	stw	r21,20(sp)
 1008df8:	dd000415 	stw	r20,16(sp)
 1008dfc:	ddc00715 	stw	r23,28(sp)
 1008e00:	dd800615 	stw	r22,24(sp)
 1008e04:	dc800215 	stw	r18,8(sp)
 1008e08:	dc400115 	stw	r17,4(sp)
 1008e0c:	dc000015 	stw	r16,0(sp)
 1008e10:	282b883a 	mov	r21,r5
 1008e14:	3029883a 	mov	r20,r6
 1008e18:	1900632e 	bgeu	r3,r4,1008fa8 <_fpadd_parts+0x1c8>
 1008e1c:	28800017 	ldw	r2,0(r5)
 1008e20:	1880812e 	bgeu	r3,r2,1009028 <_fpadd_parts+0x248>
 1008e24:	00c00104 	movi	r3,4
 1008e28:	20c0dc26 	beq	r4,r3,100919c <_fpadd_parts+0x3bc>
 1008e2c:	10c07e26 	beq	r2,r3,1009028 <_fpadd_parts+0x248>
 1008e30:	00c00084 	movi	r3,2
 1008e34:	10c06726 	beq	r2,r3,1008fd4 <_fpadd_parts+0x1f4>
 1008e38:	20c07b26 	beq	r4,r3,1009028 <_fpadd_parts+0x248>
 1008e3c:	9dc00217 	ldw	r23,8(r19)
 1008e40:	28c00217 	ldw	r3,8(r5)
 1008e44:	9c400317 	ldw	r17,12(r19)
 1008e48:	2bc00317 	ldw	r15,12(r5)
 1008e4c:	b8cdc83a 	sub	r6,r23,r3
 1008e50:	9c800417 	ldw	r18,16(r19)
 1008e54:	2c000417 	ldw	r16,16(r5)
 1008e58:	3009883a 	mov	r4,r6
 1008e5c:	30009716 	blt	r6,zero,10090bc <_fpadd_parts+0x2dc>
 1008e60:	00800fc4 	movi	r2,63
 1008e64:	11806b16 	blt	r2,r6,1009014 <_fpadd_parts+0x234>
 1008e68:	0100a40e 	bge	zero,r4,10090fc <_fpadd_parts+0x31c>
 1008e6c:	35bff804 	addi	r22,r6,-32
 1008e70:	b000bc16 	blt	r22,zero,1009164 <_fpadd_parts+0x384>
 1008e74:	8596d83a 	srl	r11,r16,r22
 1008e78:	0019883a 	mov	r12,zero
 1008e7c:	0013883a 	mov	r9,zero
 1008e80:	01000044 	movi	r4,1
 1008e84:	0015883a 	mov	r10,zero
 1008e88:	b000be16 	blt	r22,zero,1009184 <_fpadd_parts+0x3a4>
 1008e8c:	2590983a 	sll	r8,r4,r22
 1008e90:	000f883a 	mov	r7,zero
 1008e94:	00bfffc4 	movi	r2,-1
 1008e98:	3889883a 	add	r4,r7,r2
 1008e9c:	408b883a 	add	r5,r8,r2
 1008ea0:	21cd803a 	cmpltu	r6,r4,r7
 1008ea4:	314b883a 	add	r5,r6,r5
 1008ea8:	7904703a 	and	r2,r15,r4
 1008eac:	8146703a 	and	r3,r16,r5
 1008eb0:	10c4b03a 	or	r2,r2,r3
 1008eb4:	10000226 	beq	r2,zero,1008ec0 <_fpadd_parts+0xe0>
 1008eb8:	02400044 	movi	r9,1
 1008ebc:	0015883a 	mov	r10,zero
 1008ec0:	5a5eb03a 	or	r15,r11,r9
 1008ec4:	62a0b03a 	or	r16,r12,r10
 1008ec8:	99400117 	ldw	r5,4(r19)
 1008ecc:	a8800117 	ldw	r2,4(r21)
 1008ed0:	28806e26 	beq	r5,r2,100908c <_fpadd_parts+0x2ac>
 1008ed4:	28006626 	beq	r5,zero,1009070 <_fpadd_parts+0x290>
 1008ed8:	7c45c83a 	sub	r2,r15,r17
 1008edc:	7889803a 	cmpltu	r4,r15,r2
 1008ee0:	8487c83a 	sub	r3,r16,r18
 1008ee4:	1909c83a 	sub	r4,r3,r4
 1008ee8:	100d883a 	mov	r6,r2
 1008eec:	200f883a 	mov	r7,r4
 1008ef0:	38007716 	blt	r7,zero,10090d0 <_fpadd_parts+0x2f0>
 1008ef4:	a5c00215 	stw	r23,8(r20)
 1008ef8:	a1c00415 	stw	r7,16(r20)
 1008efc:	a0000115 	stw	zero,4(r20)
 1008f00:	a1800315 	stw	r6,12(r20)
 1008f04:	a2000317 	ldw	r8,12(r20)
 1008f08:	a2400417 	ldw	r9,16(r20)
 1008f0c:	00bfffc4 	movi	r2,-1
 1008f10:	408b883a 	add	r5,r8,r2
 1008f14:	2a09803a 	cmpltu	r4,r5,r8
 1008f18:	488d883a 	add	r6,r9,r2
 1008f1c:	01c40034 	movhi	r7,4096
 1008f20:	39ffffc4 	addi	r7,r7,-1
 1008f24:	218d883a 	add	r6,r4,r6
 1008f28:	39801736 	bltu	r7,r6,1008f88 <_fpadd_parts+0x1a8>
 1008f2c:	31c06526 	beq	r6,r7,10090c4 <_fpadd_parts+0x2e4>
 1008f30:	a3000217 	ldw	r12,8(r20)
 1008f34:	4209883a 	add	r4,r8,r8
 1008f38:	00bfffc4 	movi	r2,-1
 1008f3c:	220f803a 	cmpltu	r7,r4,r8
 1008f40:	4a4b883a 	add	r5,r9,r9
 1008f44:	394f883a 	add	r7,r7,r5
 1008f48:	2095883a 	add	r10,r4,r2
 1008f4c:	3897883a 	add	r11,r7,r2
 1008f50:	510d803a 	cmpltu	r6,r10,r4
 1008f54:	6099883a 	add	r12,r12,r2
 1008f58:	32d7883a 	add	r11,r6,r11
 1008f5c:	00840034 	movhi	r2,4096
 1008f60:	10bfffc4 	addi	r2,r2,-1
 1008f64:	2011883a 	mov	r8,r4
 1008f68:	3813883a 	mov	r9,r7
 1008f6c:	a1000315 	stw	r4,12(r20)
 1008f70:	a1c00415 	stw	r7,16(r20)
 1008f74:	a3000215 	stw	r12,8(r20)
 1008f78:	12c00336 	bltu	r2,r11,1008f88 <_fpadd_parts+0x1a8>
 1008f7c:	58bfed1e 	bne	r11,r2,1008f34 <_fpadd_parts+0x154>
 1008f80:	00bfff84 	movi	r2,-2
 1008f84:	12bfeb2e 	bgeu	r2,r10,1008f34 <_fpadd_parts+0x154>
 1008f88:	a2800417 	ldw	r10,16(r20)
 1008f8c:	008000c4 	movi	r2,3
 1008f90:	00c80034 	movhi	r3,8192
 1008f94:	18ffffc4 	addi	r3,r3,-1
 1008f98:	a2400317 	ldw	r9,12(r20)
 1008f9c:	a0800015 	stw	r2,0(r20)
 1008fa0:	1a802336 	bltu	r3,r10,1009030 <_fpadd_parts+0x250>
 1008fa4:	a027883a 	mov	r19,r20
 1008fa8:	9805883a 	mov	r2,r19
 1008fac:	ddc00717 	ldw	r23,28(sp)
 1008fb0:	dd800617 	ldw	r22,24(sp)
 1008fb4:	dd400517 	ldw	r21,20(sp)
 1008fb8:	dd000417 	ldw	r20,16(sp)
 1008fbc:	dcc00317 	ldw	r19,12(sp)
 1008fc0:	dc800217 	ldw	r18,8(sp)
 1008fc4:	dc400117 	ldw	r17,4(sp)
 1008fc8:	dc000017 	ldw	r16,0(sp)
 1008fcc:	dec00804 	addi	sp,sp,32
 1008fd0:	f800283a 	ret
 1008fd4:	20fff41e 	bne	r4,r3,1008fa8 <_fpadd_parts+0x1c8>
 1008fd8:	31000015 	stw	r4,0(r6)
 1008fdc:	98800117 	ldw	r2,4(r19)
 1008fe0:	30800115 	stw	r2,4(r6)
 1008fe4:	98c00217 	ldw	r3,8(r19)
 1008fe8:	30c00215 	stw	r3,8(r6)
 1008fec:	98800317 	ldw	r2,12(r19)
 1008ff0:	30800315 	stw	r2,12(r6)
 1008ff4:	98c00417 	ldw	r3,16(r19)
 1008ff8:	30c00415 	stw	r3,16(r6)
 1008ffc:	98800117 	ldw	r2,4(r19)
 1009000:	28c00117 	ldw	r3,4(r5)
 1009004:	3027883a 	mov	r19,r6
 1009008:	10c4703a 	and	r2,r2,r3
 100900c:	30800115 	stw	r2,4(r6)
 1009010:	003fe506 	br	1008fa8 <_fpadd_parts+0x1c8>
 1009014:	1dc02616 	blt	r3,r23,10090b0 <_fpadd_parts+0x2d0>
 1009018:	0023883a 	mov	r17,zero
 100901c:	182f883a 	mov	r23,r3
 1009020:	0025883a 	mov	r18,zero
 1009024:	003fa806 	br	1008ec8 <_fpadd_parts+0xe8>
 1009028:	a827883a 	mov	r19,r21
 100902c:	003fde06 	br	1008fa8 <_fpadd_parts+0x1c8>
 1009030:	01800044 	movi	r6,1
 1009034:	500497fa 	slli	r2,r10,31
 1009038:	4808d07a 	srli	r4,r9,1
 100903c:	518ad83a 	srl	r5,r10,r6
 1009040:	a2000217 	ldw	r8,8(r20)
 1009044:	1108b03a 	or	r4,r2,r4
 1009048:	0007883a 	mov	r3,zero
 100904c:	4984703a 	and	r2,r9,r6
 1009050:	208cb03a 	or	r6,r4,r2
 1009054:	28ceb03a 	or	r7,r5,r3
 1009058:	42000044 	addi	r8,r8,1
 100905c:	a027883a 	mov	r19,r20
 1009060:	a1c00415 	stw	r7,16(r20)
 1009064:	a2000215 	stw	r8,8(r20)
 1009068:	a1800315 	stw	r6,12(r20)
 100906c:	003fce06 	br	1008fa8 <_fpadd_parts+0x1c8>
 1009070:	8bc5c83a 	sub	r2,r17,r15
 1009074:	8889803a 	cmpltu	r4,r17,r2
 1009078:	9407c83a 	sub	r3,r18,r16
 100907c:	1909c83a 	sub	r4,r3,r4
 1009080:	100d883a 	mov	r6,r2
 1009084:	200f883a 	mov	r7,r4
 1009088:	003f9906 	br	1008ef0 <_fpadd_parts+0x110>
 100908c:	7c45883a 	add	r2,r15,r17
 1009090:	13c9803a 	cmpltu	r4,r2,r15
 1009094:	8487883a 	add	r3,r16,r18
 1009098:	20c9883a 	add	r4,r4,r3
 100909c:	a1400115 	stw	r5,4(r20)
 10090a0:	a5c00215 	stw	r23,8(r20)
 10090a4:	a0800315 	stw	r2,12(r20)
 10090a8:	a1000415 	stw	r4,16(r20)
 10090ac:	003fb606 	br	1008f88 <_fpadd_parts+0x1a8>
 10090b0:	001f883a 	mov	r15,zero
 10090b4:	0021883a 	mov	r16,zero
 10090b8:	003f8306 	br	1008ec8 <_fpadd_parts+0xe8>
 10090bc:	018dc83a 	sub	r6,zero,r6
 10090c0:	003f6706 	br	1008e60 <_fpadd_parts+0x80>
 10090c4:	00bfff84 	movi	r2,-2
 10090c8:	117faf36 	bltu	r2,r5,1008f88 <_fpadd_parts+0x1a8>
 10090cc:	003f9806 	br	1008f30 <_fpadd_parts+0x150>
 10090d0:	0005883a 	mov	r2,zero
 10090d4:	1189c83a 	sub	r4,r2,r6
 10090d8:	1105803a 	cmpltu	r2,r2,r4
 10090dc:	01cbc83a 	sub	r5,zero,r7
 10090e0:	2885c83a 	sub	r2,r5,r2
 10090e4:	01800044 	movi	r6,1
 10090e8:	a1800115 	stw	r6,4(r20)
 10090ec:	a5c00215 	stw	r23,8(r20)
 10090f0:	a1000315 	stw	r4,12(r20)
 10090f4:	a0800415 	stw	r2,16(r20)
 10090f8:	003f8206 	br	1008f04 <_fpadd_parts+0x124>
 10090fc:	203f7226 	beq	r4,zero,1008ec8 <_fpadd_parts+0xe8>
 1009100:	35bff804 	addi	r22,r6,-32
 1009104:	b9af883a 	add	r23,r23,r6
 1009108:	b0003116 	blt	r22,zero,10091d0 <_fpadd_parts+0x3f0>
 100910c:	959ad83a 	srl	r13,r18,r22
 1009110:	001d883a 	mov	r14,zero
 1009114:	000f883a 	mov	r7,zero
 1009118:	01000044 	movi	r4,1
 100911c:	0011883a 	mov	r8,zero
 1009120:	b0002516 	blt	r22,zero,10091b8 <_fpadd_parts+0x3d8>
 1009124:	2594983a 	sll	r10,r4,r22
 1009128:	0013883a 	mov	r9,zero
 100912c:	00bfffc4 	movi	r2,-1
 1009130:	4889883a 	add	r4,r9,r2
 1009134:	508b883a 	add	r5,r10,r2
 1009138:	224d803a 	cmpltu	r6,r4,r9
 100913c:	314b883a 	add	r5,r6,r5
 1009140:	8904703a 	and	r2,r17,r4
 1009144:	9146703a 	and	r3,r18,r5
 1009148:	10c4b03a 	or	r2,r2,r3
 100914c:	10000226 	beq	r2,zero,1009158 <_fpadd_parts+0x378>
 1009150:	01c00044 	movi	r7,1
 1009154:	0011883a 	mov	r8,zero
 1009158:	69e2b03a 	or	r17,r13,r7
 100915c:	7224b03a 	or	r18,r14,r8
 1009160:	003f5906 	br	1008ec8 <_fpadd_parts+0xe8>
 1009164:	8407883a 	add	r3,r16,r16
 1009168:	008007c4 	movi	r2,31
 100916c:	1185c83a 	sub	r2,r2,r6
 1009170:	1886983a 	sll	r3,r3,r2
 1009174:	7996d83a 	srl	r11,r15,r6
 1009178:	8198d83a 	srl	r12,r16,r6
 100917c:	1ad6b03a 	or	r11,r3,r11
 1009180:	003f3e06 	br	1008e7c <_fpadd_parts+0x9c>
 1009184:	2006d07a 	srli	r3,r4,1
 1009188:	008007c4 	movi	r2,31
 100918c:	1185c83a 	sub	r2,r2,r6
 1009190:	1890d83a 	srl	r8,r3,r2
 1009194:	218e983a 	sll	r7,r4,r6
 1009198:	003f3e06 	br	1008e94 <_fpadd_parts+0xb4>
 100919c:	113f821e 	bne	r2,r4,1008fa8 <_fpadd_parts+0x1c8>
 10091a0:	28c00117 	ldw	r3,4(r5)
 10091a4:	98800117 	ldw	r2,4(r19)
 10091a8:	10ff7f26 	beq	r2,r3,1008fa8 <_fpadd_parts+0x1c8>
 10091ac:	04c04074 	movhi	r19,257
 10091b0:	9cfb3104 	addi	r19,r19,-4924
 10091b4:	003f7c06 	br	1008fa8 <_fpadd_parts+0x1c8>
 10091b8:	2006d07a 	srli	r3,r4,1
 10091bc:	008007c4 	movi	r2,31
 10091c0:	1185c83a 	sub	r2,r2,r6
 10091c4:	1894d83a 	srl	r10,r3,r2
 10091c8:	2192983a 	sll	r9,r4,r6
 10091cc:	003fd706 	br	100912c <_fpadd_parts+0x34c>
 10091d0:	9487883a 	add	r3,r18,r18
 10091d4:	008007c4 	movi	r2,31
 10091d8:	1185c83a 	sub	r2,r2,r6
 10091dc:	1886983a 	sll	r3,r3,r2
 10091e0:	899ad83a 	srl	r13,r17,r6
 10091e4:	919cd83a 	srl	r14,r18,r6
 10091e8:	1b5ab03a 	or	r13,r3,r13
 10091ec:	003fc906 	br	1009114 <_fpadd_parts+0x334>

010091f0 <__subdf3>:
 10091f0:	deffea04 	addi	sp,sp,-88
 10091f4:	dcc01415 	stw	r19,80(sp)
 10091f8:	dcc00404 	addi	r19,sp,16
 10091fc:	2011883a 	mov	r8,r4
 1009200:	2813883a 	mov	r9,r5
 1009204:	dc401315 	stw	r17,76(sp)
 1009208:	d809883a 	mov	r4,sp
 100920c:	980b883a 	mov	r5,r19
 1009210:	dc400904 	addi	r17,sp,36
 1009214:	dfc01515 	stw	ra,84(sp)
 1009218:	da400115 	stw	r9,4(sp)
 100921c:	d9c00315 	stw	r7,12(sp)
 1009220:	da000015 	stw	r8,0(sp)
 1009224:	d9800215 	stw	r6,8(sp)
 1009228:	100a2d80 	call	100a2d8 <__unpack_d>
 100922c:	d9000204 	addi	r4,sp,8
 1009230:	880b883a 	mov	r5,r17
 1009234:	100a2d80 	call	100a2d8 <__unpack_d>
 1009238:	d8800a17 	ldw	r2,40(sp)
 100923c:	880b883a 	mov	r5,r17
 1009240:	9809883a 	mov	r4,r19
 1009244:	d9800e04 	addi	r6,sp,56
 1009248:	1080005c 	xori	r2,r2,1
 100924c:	d8800a15 	stw	r2,40(sp)
 1009250:	1008de00 	call	1008de0 <_fpadd_parts>
 1009254:	1009883a 	mov	r4,r2
 1009258:	1009fc40 	call	1009fc4 <__pack_d>
 100925c:	dfc01517 	ldw	ra,84(sp)
 1009260:	dcc01417 	ldw	r19,80(sp)
 1009264:	dc401317 	ldw	r17,76(sp)
 1009268:	dec01604 	addi	sp,sp,88
 100926c:	f800283a 	ret

01009270 <__adddf3>:
 1009270:	deffea04 	addi	sp,sp,-88
 1009274:	dcc01415 	stw	r19,80(sp)
 1009278:	dcc00404 	addi	r19,sp,16
 100927c:	2011883a 	mov	r8,r4
 1009280:	2813883a 	mov	r9,r5
 1009284:	dc401315 	stw	r17,76(sp)
 1009288:	d809883a 	mov	r4,sp
 100928c:	980b883a 	mov	r5,r19
 1009290:	dc400904 	addi	r17,sp,36
 1009294:	dfc01515 	stw	ra,84(sp)
 1009298:	da400115 	stw	r9,4(sp)
 100929c:	d9c00315 	stw	r7,12(sp)
 10092a0:	da000015 	stw	r8,0(sp)
 10092a4:	d9800215 	stw	r6,8(sp)
 10092a8:	100a2d80 	call	100a2d8 <__unpack_d>
 10092ac:	d9000204 	addi	r4,sp,8
 10092b0:	880b883a 	mov	r5,r17
 10092b4:	100a2d80 	call	100a2d8 <__unpack_d>
 10092b8:	d9800e04 	addi	r6,sp,56
 10092bc:	9809883a 	mov	r4,r19
 10092c0:	880b883a 	mov	r5,r17
 10092c4:	1008de00 	call	1008de0 <_fpadd_parts>
 10092c8:	1009883a 	mov	r4,r2
 10092cc:	1009fc40 	call	1009fc4 <__pack_d>
 10092d0:	dfc01517 	ldw	ra,84(sp)
 10092d4:	dcc01417 	ldw	r19,80(sp)
 10092d8:	dc401317 	ldw	r17,76(sp)
 10092dc:	dec01604 	addi	sp,sp,88
 10092e0:	f800283a 	ret

010092e4 <__muldf3>:
 10092e4:	deffe004 	addi	sp,sp,-128
 10092e8:	dc401815 	stw	r17,96(sp)
 10092ec:	dc400404 	addi	r17,sp,16
 10092f0:	2011883a 	mov	r8,r4
 10092f4:	2813883a 	mov	r9,r5
 10092f8:	dc001715 	stw	r16,92(sp)
 10092fc:	d809883a 	mov	r4,sp
 1009300:	880b883a 	mov	r5,r17
 1009304:	dc000904 	addi	r16,sp,36
 1009308:	dfc01f15 	stw	ra,124(sp)
 100930c:	da400115 	stw	r9,4(sp)
 1009310:	d9c00315 	stw	r7,12(sp)
 1009314:	da000015 	stw	r8,0(sp)
 1009318:	d9800215 	stw	r6,8(sp)
 100931c:	ddc01e15 	stw	r23,120(sp)
 1009320:	dd801d15 	stw	r22,116(sp)
 1009324:	dd401c15 	stw	r21,112(sp)
 1009328:	dd001b15 	stw	r20,108(sp)
 100932c:	dcc01a15 	stw	r19,104(sp)
 1009330:	dc801915 	stw	r18,100(sp)
 1009334:	100a2d80 	call	100a2d8 <__unpack_d>
 1009338:	d9000204 	addi	r4,sp,8
 100933c:	800b883a 	mov	r5,r16
 1009340:	100a2d80 	call	100a2d8 <__unpack_d>
 1009344:	d9000417 	ldw	r4,16(sp)
 1009348:	00800044 	movi	r2,1
 100934c:	1100102e 	bgeu	r2,r4,1009390 <__muldf3+0xac>
 1009350:	d8c00917 	ldw	r3,36(sp)
 1009354:	10c0062e 	bgeu	r2,r3,1009370 <__muldf3+0x8c>
 1009358:	00800104 	movi	r2,4
 100935c:	20800a26 	beq	r4,r2,1009388 <__muldf3+0xa4>
 1009360:	1880cc26 	beq	r3,r2,1009694 <__muldf3+0x3b0>
 1009364:	00800084 	movi	r2,2
 1009368:	20800926 	beq	r4,r2,1009390 <__muldf3+0xac>
 100936c:	1880191e 	bne	r3,r2,10093d4 <__muldf3+0xf0>
 1009370:	d8c00a17 	ldw	r3,40(sp)
 1009374:	d8800517 	ldw	r2,20(sp)
 1009378:	8009883a 	mov	r4,r16
 100937c:	10c4c03a 	cmpne	r2,r2,r3
 1009380:	d8800a15 	stw	r2,40(sp)
 1009384:	00000706 	br	10093a4 <__muldf3+0xc0>
 1009388:	00800084 	movi	r2,2
 100938c:	1880c326 	beq	r3,r2,100969c <__muldf3+0x3b8>
 1009390:	d8800517 	ldw	r2,20(sp)
 1009394:	d8c00a17 	ldw	r3,40(sp)
 1009398:	8809883a 	mov	r4,r17
 100939c:	10c4c03a 	cmpne	r2,r2,r3
 10093a0:	d8800515 	stw	r2,20(sp)
 10093a4:	1009fc40 	call	1009fc4 <__pack_d>
 10093a8:	dfc01f17 	ldw	ra,124(sp)
 10093ac:	ddc01e17 	ldw	r23,120(sp)
 10093b0:	dd801d17 	ldw	r22,116(sp)
 10093b4:	dd401c17 	ldw	r21,112(sp)
 10093b8:	dd001b17 	ldw	r20,108(sp)
 10093bc:	dcc01a17 	ldw	r19,104(sp)
 10093c0:	dc801917 	ldw	r18,100(sp)
 10093c4:	dc401817 	ldw	r17,96(sp)
 10093c8:	dc001717 	ldw	r16,92(sp)
 10093cc:	dec02004 	addi	sp,sp,128
 10093d0:	f800283a 	ret
 10093d4:	dd800717 	ldw	r22,28(sp)
 10093d8:	dc800c17 	ldw	r18,48(sp)
 10093dc:	002b883a 	mov	r21,zero
 10093e0:	0023883a 	mov	r17,zero
 10093e4:	a80b883a 	mov	r5,r21
 10093e8:	b00d883a 	mov	r6,r22
 10093ec:	880f883a 	mov	r7,r17
 10093f0:	ddc00817 	ldw	r23,32(sp)
 10093f4:	dcc00d17 	ldw	r19,52(sp)
 10093f8:	9009883a 	mov	r4,r18
 10093fc:	1007ff00 	call	1007ff0 <__muldi3>
 1009400:	001b883a 	mov	r13,zero
 1009404:	680f883a 	mov	r7,r13
 1009408:	b009883a 	mov	r4,r22
 100940c:	000b883a 	mov	r5,zero
 1009410:	980d883a 	mov	r6,r19
 1009414:	b82d883a 	mov	r22,r23
 1009418:	002f883a 	mov	r23,zero
 100941c:	db401615 	stw	r13,88(sp)
 1009420:	d8801315 	stw	r2,76(sp)
 1009424:	d8c01415 	stw	r3,80(sp)
 1009428:	dcc01515 	stw	r19,84(sp)
 100942c:	1007ff00 	call	1007ff0 <__muldi3>
 1009430:	b00d883a 	mov	r6,r22
 1009434:	000b883a 	mov	r5,zero
 1009438:	9009883a 	mov	r4,r18
 100943c:	b80f883a 	mov	r7,r23
 1009440:	1021883a 	mov	r16,r2
 1009444:	1823883a 	mov	r17,r3
 1009448:	1007ff00 	call	1007ff0 <__muldi3>
 100944c:	8085883a 	add	r2,r16,r2
 1009450:	140d803a 	cmpltu	r6,r2,r16
 1009454:	88c7883a 	add	r3,r17,r3
 1009458:	30cd883a 	add	r6,r6,r3
 100945c:	1029883a 	mov	r20,r2
 1009460:	302b883a 	mov	r21,r6
 1009464:	da801317 	ldw	r10,76(sp)
 1009468:	dac01417 	ldw	r11,80(sp)
 100946c:	db001517 	ldw	r12,84(sp)
 1009470:	db401617 	ldw	r13,88(sp)
 1009474:	3440612e 	bgeu	r6,r17,10095fc <__muldf3+0x318>
 1009478:	0009883a 	mov	r4,zero
 100947c:	5105883a 	add	r2,r10,r4
 1009480:	128d803a 	cmpltu	r6,r2,r10
 1009484:	5d07883a 	add	r3,r11,r20
 1009488:	30cd883a 	add	r6,r6,r3
 100948c:	0021883a 	mov	r16,zero
 1009490:	04400044 	movi	r17,1
 1009494:	1025883a 	mov	r18,r2
 1009498:	3027883a 	mov	r19,r6
 100949c:	32c06236 	bltu	r6,r11,1009628 <__muldf3+0x344>
 10094a0:	59807a26 	beq	r11,r6,100968c <__muldf3+0x3a8>
 10094a4:	680b883a 	mov	r5,r13
 10094a8:	b80f883a 	mov	r7,r23
 10094ac:	6009883a 	mov	r4,r12
 10094b0:	b00d883a 	mov	r6,r22
 10094b4:	1007ff00 	call	1007ff0 <__muldi3>
 10094b8:	1009883a 	mov	r4,r2
 10094bc:	000f883a 	mov	r7,zero
 10094c0:	1545883a 	add	r2,r2,r21
 10094c4:	1111803a 	cmpltu	r8,r2,r4
 10094c8:	19c7883a 	add	r3,r3,r7
 10094cc:	40c7883a 	add	r3,r8,r3
 10094d0:	88cb883a 	add	r5,r17,r3
 10094d4:	d8c00617 	ldw	r3,24(sp)
 10094d8:	8089883a 	add	r4,r16,r2
 10094dc:	d8800b17 	ldw	r2,44(sp)
 10094e0:	18c00104 	addi	r3,r3,4
 10094e4:	240d803a 	cmpltu	r6,r4,r16
 10094e8:	10c7883a 	add	r3,r2,r3
 10094ec:	2013883a 	mov	r9,r4
 10094f0:	d8800a17 	ldw	r2,40(sp)
 10094f4:	d9000517 	ldw	r4,20(sp)
 10094f8:	314d883a 	add	r6,r6,r5
 10094fc:	3015883a 	mov	r10,r6
 1009500:	2088c03a 	cmpne	r4,r4,r2
 1009504:	00880034 	movhi	r2,8192
 1009508:	10bfffc4 	addi	r2,r2,-1
 100950c:	d9000f15 	stw	r4,60(sp)
 1009510:	d8c01015 	stw	r3,64(sp)
 1009514:	1180162e 	bgeu	r2,r6,1009570 <__muldf3+0x28c>
 1009518:	1811883a 	mov	r8,r3
 100951c:	101f883a 	mov	r15,r2
 1009520:	980497fa 	slli	r2,r19,31
 1009524:	9016d07a 	srli	r11,r18,1
 1009528:	500697fa 	slli	r3,r10,31
 100952c:	480cd07a 	srli	r6,r9,1
 1009530:	500ed07a 	srli	r7,r10,1
 1009534:	12d6b03a 	or	r11,r2,r11
 1009538:	00800044 	movi	r2,1
 100953c:	198cb03a 	or	r6,r3,r6
 1009540:	4888703a 	and	r4,r9,r2
 1009544:	9818d07a 	srli	r12,r19,1
 1009548:	001b883a 	mov	r13,zero
 100954c:	03a00034 	movhi	r14,32768
 1009550:	3013883a 	mov	r9,r6
 1009554:	3815883a 	mov	r10,r7
 1009558:	4091883a 	add	r8,r8,r2
 100955c:	20000226 	beq	r4,zero,1009568 <__muldf3+0x284>
 1009560:	5b64b03a 	or	r18,r11,r13
 1009564:	63a6b03a 	or	r19,r12,r14
 1009568:	7abfed36 	bltu	r15,r10,1009520 <__muldf3+0x23c>
 100956c:	da001015 	stw	r8,64(sp)
 1009570:	00840034 	movhi	r2,4096
 1009574:	10bfffc4 	addi	r2,r2,-1
 1009578:	12801436 	bltu	r2,r10,10095cc <__muldf3+0x2e8>
 100957c:	da001017 	ldw	r8,64(sp)
 1009580:	101f883a 	mov	r15,r2
 1009584:	4a45883a 	add	r2,r9,r9
 1009588:	124d803a 	cmpltu	r6,r2,r9
 100958c:	5287883a 	add	r3,r10,r10
 1009590:	9497883a 	add	r11,r18,r18
 1009594:	5c8f803a 	cmpltu	r7,r11,r18
 1009598:	9cd9883a 	add	r12,r19,r19
 100959c:	01000044 	movi	r4,1
 10095a0:	30cd883a 	add	r6,r6,r3
 10095a4:	3b0f883a 	add	r7,r7,r12
 10095a8:	423fffc4 	addi	r8,r8,-1
 10095ac:	1013883a 	mov	r9,r2
 10095b0:	3015883a 	mov	r10,r6
 10095b4:	111ab03a 	or	r13,r2,r4
 10095b8:	98003016 	blt	r19,zero,100967c <__muldf3+0x398>
 10095bc:	5825883a 	mov	r18,r11
 10095c0:	3827883a 	mov	r19,r7
 10095c4:	7abfef2e 	bgeu	r15,r10,1009584 <__muldf3+0x2a0>
 10095c8:	da001015 	stw	r8,64(sp)
 10095cc:	00803fc4 	movi	r2,255
 10095d0:	488e703a 	and	r7,r9,r2
 10095d4:	00802004 	movi	r2,128
 10095d8:	0007883a 	mov	r3,zero
 10095dc:	0011883a 	mov	r8,zero
 10095e0:	38801826 	beq	r7,r2,1009644 <__muldf3+0x360>
 10095e4:	008000c4 	movi	r2,3
 10095e8:	d9000e04 	addi	r4,sp,56
 10095ec:	da801215 	stw	r10,72(sp)
 10095f0:	d8800e15 	stw	r2,56(sp)
 10095f4:	da401115 	stw	r9,68(sp)
 10095f8:	003f6a06 	br	10093a4 <__muldf3+0xc0>
 10095fc:	89802126 	beq	r17,r6,1009684 <__muldf3+0x3a0>
 1009600:	0009883a 	mov	r4,zero
 1009604:	5105883a 	add	r2,r10,r4
 1009608:	128d803a 	cmpltu	r6,r2,r10
 100960c:	5d07883a 	add	r3,r11,r20
 1009610:	30cd883a 	add	r6,r6,r3
 1009614:	0021883a 	mov	r16,zero
 1009618:	0023883a 	mov	r17,zero
 100961c:	1025883a 	mov	r18,r2
 1009620:	3027883a 	mov	r19,r6
 1009624:	32ff9e2e 	bgeu	r6,r11,10094a0 <__muldf3+0x1bc>
 1009628:	00800044 	movi	r2,1
 100962c:	8089883a 	add	r4,r16,r2
 1009630:	240d803a 	cmpltu	r6,r4,r16
 1009634:	344d883a 	add	r6,r6,r17
 1009638:	2021883a 	mov	r16,r4
 100963c:	3023883a 	mov	r17,r6
 1009640:	003f9806 	br	10094a4 <__muldf3+0x1c0>
 1009644:	403fe71e 	bne	r8,zero,10095e4 <__muldf3+0x300>
 1009648:	01004004 	movi	r4,256
 100964c:	4904703a 	and	r2,r9,r4
 1009650:	10c4b03a 	or	r2,r2,r3
 1009654:	103fe31e 	bne	r2,zero,10095e4 <__muldf3+0x300>
 1009658:	94c4b03a 	or	r2,r18,r19
 100965c:	103fe126 	beq	r2,zero,10095e4 <__muldf3+0x300>
 1009660:	49c5883a 	add	r2,r9,r7
 1009664:	1251803a 	cmpltu	r8,r2,r9
 1009668:	4291883a 	add	r8,r8,r10
 100966c:	013fc004 	movi	r4,-256
 1009670:	1112703a 	and	r9,r2,r4
 1009674:	4015883a 	mov	r10,r8
 1009678:	003fda06 	br	10095e4 <__muldf3+0x300>
 100967c:	6813883a 	mov	r9,r13
 1009680:	003fce06 	br	10095bc <__muldf3+0x2d8>
 1009684:	143f7c36 	bltu	r2,r16,1009478 <__muldf3+0x194>
 1009688:	003fdd06 	br	1009600 <__muldf3+0x31c>
 100968c:	12bf852e 	bgeu	r2,r10,10094a4 <__muldf3+0x1c0>
 1009690:	003fe506 	br	1009628 <__muldf3+0x344>
 1009694:	00800084 	movi	r2,2
 1009698:	20bf351e 	bne	r4,r2,1009370 <__muldf3+0x8c>
 100969c:	01004074 	movhi	r4,257
 10096a0:	213b3104 	addi	r4,r4,-4924
 10096a4:	003f3f06 	br	10093a4 <__muldf3+0xc0>

010096a8 <__divdf3>:
 10096a8:	deffed04 	addi	sp,sp,-76
 10096ac:	dcc01115 	stw	r19,68(sp)
 10096b0:	dcc00404 	addi	r19,sp,16
 10096b4:	2011883a 	mov	r8,r4
 10096b8:	2813883a 	mov	r9,r5
 10096bc:	dc000e15 	stw	r16,56(sp)
 10096c0:	d809883a 	mov	r4,sp
 10096c4:	980b883a 	mov	r5,r19
 10096c8:	dc000904 	addi	r16,sp,36
 10096cc:	dfc01215 	stw	ra,72(sp)
 10096d0:	da400115 	stw	r9,4(sp)
 10096d4:	d9c00315 	stw	r7,12(sp)
 10096d8:	da000015 	stw	r8,0(sp)
 10096dc:	d9800215 	stw	r6,8(sp)
 10096e0:	dc801015 	stw	r18,64(sp)
 10096e4:	dc400f15 	stw	r17,60(sp)
 10096e8:	100a2d80 	call	100a2d8 <__unpack_d>
 10096ec:	d9000204 	addi	r4,sp,8
 10096f0:	800b883a 	mov	r5,r16
 10096f4:	100a2d80 	call	100a2d8 <__unpack_d>
 10096f8:	d9000417 	ldw	r4,16(sp)
 10096fc:	00800044 	movi	r2,1
 1009700:	11000b2e 	bgeu	r2,r4,1009730 <__divdf3+0x88>
 1009704:	d9400917 	ldw	r5,36(sp)
 1009708:	1140762e 	bgeu	r2,r5,10098e4 <__divdf3+0x23c>
 100970c:	d8800517 	ldw	r2,20(sp)
 1009710:	d8c00a17 	ldw	r3,40(sp)
 1009714:	01800104 	movi	r6,4
 1009718:	10c4f03a 	xor	r2,r2,r3
 100971c:	d8800515 	stw	r2,20(sp)
 1009720:	21800226 	beq	r4,r6,100972c <__divdf3+0x84>
 1009724:	00800084 	movi	r2,2
 1009728:	2080141e 	bne	r4,r2,100977c <__divdf3+0xd4>
 100972c:	29000926 	beq	r5,r4,1009754 <__divdf3+0xac>
 1009730:	9809883a 	mov	r4,r19
 1009734:	1009fc40 	call	1009fc4 <__pack_d>
 1009738:	dfc01217 	ldw	ra,72(sp)
 100973c:	dcc01117 	ldw	r19,68(sp)
 1009740:	dc801017 	ldw	r18,64(sp)
 1009744:	dc400f17 	ldw	r17,60(sp)
 1009748:	dc000e17 	ldw	r16,56(sp)
 100974c:	dec01304 	addi	sp,sp,76
 1009750:	f800283a 	ret
 1009754:	01004074 	movhi	r4,257
 1009758:	213b3104 	addi	r4,r4,-4924
 100975c:	1009fc40 	call	1009fc4 <__pack_d>
 1009760:	dfc01217 	ldw	ra,72(sp)
 1009764:	dcc01117 	ldw	r19,68(sp)
 1009768:	dc801017 	ldw	r18,64(sp)
 100976c:	dc400f17 	ldw	r17,60(sp)
 1009770:	dc000e17 	ldw	r16,56(sp)
 1009774:	dec01304 	addi	sp,sp,76
 1009778:	f800283a 	ret
 100977c:	29805b26 	beq	r5,r6,10098ec <__divdf3+0x244>
 1009780:	28802d26 	beq	r5,r2,1009838 <__divdf3+0x190>
 1009784:	d8c00617 	ldw	r3,24(sp)
 1009788:	d8800b17 	ldw	r2,44(sp)
 100978c:	d9c00817 	ldw	r7,32(sp)
 1009790:	dc400d17 	ldw	r17,52(sp)
 1009794:	188bc83a 	sub	r5,r3,r2
 1009798:	d9800717 	ldw	r6,28(sp)
 100979c:	dc000c17 	ldw	r16,48(sp)
 10097a0:	d9400615 	stw	r5,24(sp)
 10097a4:	3c403836 	bltu	r7,r17,1009888 <__divdf3+0x1e0>
 10097a8:	89c03626 	beq	r17,r7,1009884 <__divdf3+0x1dc>
 10097ac:	0015883a 	mov	r10,zero
 10097b0:	001d883a 	mov	r14,zero
 10097b4:	02c40034 	movhi	r11,4096
 10097b8:	001f883a 	mov	r15,zero
 10097bc:	003f883a 	mov	ra,zero
 10097c0:	04800f44 	movi	r18,61
 10097c4:	00000f06 	br	1009804 <__divdf3+0x15c>
 10097c8:	601d883a 	mov	r14,r12
 10097cc:	681f883a 	mov	r15,r13
 10097d0:	400d883a 	mov	r6,r8
 10097d4:	100f883a 	mov	r7,r2
 10097d8:	3191883a 	add	r8,r6,r6
 10097dc:	5808d07a 	srli	r4,r11,1
 10097e0:	4185803a 	cmpltu	r2,r8,r6
 10097e4:	39d3883a 	add	r9,r7,r7
 10097e8:	28c6b03a 	or	r3,r5,r3
 10097ec:	1245883a 	add	r2,r2,r9
 10097f0:	1815883a 	mov	r10,r3
 10097f4:	2017883a 	mov	r11,r4
 10097f8:	400d883a 	mov	r6,r8
 10097fc:	100f883a 	mov	r7,r2
 1009800:	fc801726 	beq	ra,r18,1009860 <__divdf3+0x1b8>
 1009804:	580a97fa 	slli	r5,r11,31
 1009808:	5006d07a 	srli	r3,r10,1
 100980c:	ffc00044 	addi	ra,ra,1
 1009810:	3c7ff136 	bltu	r7,r17,10097d8 <__divdf3+0x130>
 1009814:	3411c83a 	sub	r8,r6,r16
 1009818:	3205803a 	cmpltu	r2,r6,r8
 100981c:	3c53c83a 	sub	r9,r7,r17
 1009820:	7298b03a 	or	r12,r14,r10
 1009824:	7adab03a 	or	r13,r15,r11
 1009828:	4885c83a 	sub	r2,r9,r2
 100982c:	89ffe61e 	bne	r17,r7,10097c8 <__divdf3+0x120>
 1009830:	343fe936 	bltu	r6,r16,10097d8 <__divdf3+0x130>
 1009834:	003fe406 	br	10097c8 <__divdf3+0x120>
 1009838:	9809883a 	mov	r4,r19
 100983c:	d9800415 	stw	r6,16(sp)
 1009840:	1009fc40 	call	1009fc4 <__pack_d>
 1009844:	dfc01217 	ldw	ra,72(sp)
 1009848:	dcc01117 	ldw	r19,68(sp)
 100984c:	dc801017 	ldw	r18,64(sp)
 1009850:	dc400f17 	ldw	r17,60(sp)
 1009854:	dc000e17 	ldw	r16,56(sp)
 1009858:	dec01304 	addi	sp,sp,76
 100985c:	f800283a 	ret
 1009860:	00803fc4 	movi	r2,255
 1009864:	7090703a 	and	r8,r14,r2
 1009868:	00802004 	movi	r2,128
 100986c:	0007883a 	mov	r3,zero
 1009870:	0013883a 	mov	r9,zero
 1009874:	40800d26 	beq	r8,r2,10098ac <__divdf3+0x204>
 1009878:	dbc00815 	stw	r15,32(sp)
 100987c:	db800715 	stw	r14,28(sp)
 1009880:	003fab06 	br	1009730 <__divdf3+0x88>
 1009884:	343fc92e 	bgeu	r6,r16,10097ac <__divdf3+0x104>
 1009888:	3185883a 	add	r2,r6,r6
 100988c:	1189803a 	cmpltu	r4,r2,r6
 1009890:	39c7883a 	add	r3,r7,r7
 1009894:	20c9883a 	add	r4,r4,r3
 1009898:	297fffc4 	addi	r5,r5,-1
 100989c:	100d883a 	mov	r6,r2
 10098a0:	200f883a 	mov	r7,r4
 10098a4:	d9400615 	stw	r5,24(sp)
 10098a8:	003fc006 	br	10097ac <__divdf3+0x104>
 10098ac:	483ff21e 	bne	r9,zero,1009878 <__divdf3+0x1d0>
 10098b0:	01004004 	movi	r4,256
 10098b4:	7104703a 	and	r2,r14,r4
 10098b8:	10c4b03a 	or	r2,r2,r3
 10098bc:	103fee1e 	bne	r2,zero,1009878 <__divdf3+0x1d0>
 10098c0:	31c4b03a 	or	r2,r6,r7
 10098c4:	103fec26 	beq	r2,zero,1009878 <__divdf3+0x1d0>
 10098c8:	7205883a 	add	r2,r14,r8
 10098cc:	1391803a 	cmpltu	r8,r2,r14
 10098d0:	43d1883a 	add	r8,r8,r15
 10098d4:	013fc004 	movi	r4,-256
 10098d8:	111c703a 	and	r14,r2,r4
 10098dc:	401f883a 	mov	r15,r8
 10098e0:	003fe506 	br	1009878 <__divdf3+0x1d0>
 10098e4:	8009883a 	mov	r4,r16
 10098e8:	003f9206 	br	1009734 <__divdf3+0x8c>
 10098ec:	9809883a 	mov	r4,r19
 10098f0:	d8000715 	stw	zero,28(sp)
 10098f4:	d8000815 	stw	zero,32(sp)
 10098f8:	d8000615 	stw	zero,24(sp)
 10098fc:	003f8d06 	br	1009734 <__divdf3+0x8c>

01009900 <__eqdf2>:
 1009900:	deffef04 	addi	sp,sp,-68
 1009904:	dc400f15 	stw	r17,60(sp)
 1009908:	dc400404 	addi	r17,sp,16
 100990c:	2005883a 	mov	r2,r4
 1009910:	2807883a 	mov	r3,r5
 1009914:	dc000e15 	stw	r16,56(sp)
 1009918:	d809883a 	mov	r4,sp
 100991c:	880b883a 	mov	r5,r17
 1009920:	dc000904 	addi	r16,sp,36
 1009924:	d8c00115 	stw	r3,4(sp)
 1009928:	d8800015 	stw	r2,0(sp)
 100992c:	d9800215 	stw	r6,8(sp)
 1009930:	dfc01015 	stw	ra,64(sp)
 1009934:	d9c00315 	stw	r7,12(sp)
 1009938:	100a2d80 	call	100a2d8 <__unpack_d>
 100993c:	d9000204 	addi	r4,sp,8
 1009940:	800b883a 	mov	r5,r16
 1009944:	100a2d80 	call	100a2d8 <__unpack_d>
 1009948:	d8800417 	ldw	r2,16(sp)
 100994c:	00c00044 	movi	r3,1
 1009950:	180d883a 	mov	r6,r3
 1009954:	1880062e 	bgeu	r3,r2,1009970 <__eqdf2+0x70>
 1009958:	d8800917 	ldw	r2,36(sp)
 100995c:	8809883a 	mov	r4,r17
 1009960:	800b883a 	mov	r5,r16
 1009964:	1880022e 	bgeu	r3,r2,1009970 <__eqdf2+0x70>
 1009968:	100a4100 	call	100a410 <__fpcmp_parts_d>
 100996c:	100d883a 	mov	r6,r2
 1009970:	3005883a 	mov	r2,r6
 1009974:	dfc01017 	ldw	ra,64(sp)
 1009978:	dc400f17 	ldw	r17,60(sp)
 100997c:	dc000e17 	ldw	r16,56(sp)
 1009980:	dec01104 	addi	sp,sp,68
 1009984:	f800283a 	ret

01009988 <__nedf2>:
 1009988:	deffef04 	addi	sp,sp,-68
 100998c:	dc400f15 	stw	r17,60(sp)
 1009990:	dc400404 	addi	r17,sp,16
 1009994:	2005883a 	mov	r2,r4
 1009998:	2807883a 	mov	r3,r5
 100999c:	dc000e15 	stw	r16,56(sp)
 10099a0:	d809883a 	mov	r4,sp
 10099a4:	880b883a 	mov	r5,r17
 10099a8:	dc000904 	addi	r16,sp,36
 10099ac:	d8c00115 	stw	r3,4(sp)
 10099b0:	d8800015 	stw	r2,0(sp)
 10099b4:	d9800215 	stw	r6,8(sp)
 10099b8:	dfc01015 	stw	ra,64(sp)
 10099bc:	d9c00315 	stw	r7,12(sp)
 10099c0:	100a2d80 	call	100a2d8 <__unpack_d>
 10099c4:	d9000204 	addi	r4,sp,8
 10099c8:	800b883a 	mov	r5,r16
 10099cc:	100a2d80 	call	100a2d8 <__unpack_d>
 10099d0:	d8800417 	ldw	r2,16(sp)
 10099d4:	00c00044 	movi	r3,1
 10099d8:	180d883a 	mov	r6,r3
 10099dc:	1880062e 	bgeu	r3,r2,10099f8 <__nedf2+0x70>
 10099e0:	d8800917 	ldw	r2,36(sp)
 10099e4:	8809883a 	mov	r4,r17
 10099e8:	800b883a 	mov	r5,r16
 10099ec:	1880022e 	bgeu	r3,r2,10099f8 <__nedf2+0x70>
 10099f0:	100a4100 	call	100a410 <__fpcmp_parts_d>
 10099f4:	100d883a 	mov	r6,r2
 10099f8:	3005883a 	mov	r2,r6
 10099fc:	dfc01017 	ldw	ra,64(sp)
 1009a00:	dc400f17 	ldw	r17,60(sp)
 1009a04:	dc000e17 	ldw	r16,56(sp)
 1009a08:	dec01104 	addi	sp,sp,68
 1009a0c:	f800283a 	ret

01009a10 <__gtdf2>:
 1009a10:	deffef04 	addi	sp,sp,-68
 1009a14:	dc400f15 	stw	r17,60(sp)
 1009a18:	dc400404 	addi	r17,sp,16
 1009a1c:	2005883a 	mov	r2,r4
 1009a20:	2807883a 	mov	r3,r5
 1009a24:	dc000e15 	stw	r16,56(sp)
 1009a28:	d809883a 	mov	r4,sp
 1009a2c:	880b883a 	mov	r5,r17
 1009a30:	dc000904 	addi	r16,sp,36
 1009a34:	d8c00115 	stw	r3,4(sp)
 1009a38:	d8800015 	stw	r2,0(sp)
 1009a3c:	d9800215 	stw	r6,8(sp)
 1009a40:	dfc01015 	stw	ra,64(sp)
 1009a44:	d9c00315 	stw	r7,12(sp)
 1009a48:	100a2d80 	call	100a2d8 <__unpack_d>
 1009a4c:	d9000204 	addi	r4,sp,8
 1009a50:	800b883a 	mov	r5,r16
 1009a54:	100a2d80 	call	100a2d8 <__unpack_d>
 1009a58:	d8800417 	ldw	r2,16(sp)
 1009a5c:	00c00044 	movi	r3,1
 1009a60:	01bfffc4 	movi	r6,-1
 1009a64:	1880062e 	bgeu	r3,r2,1009a80 <__gtdf2+0x70>
 1009a68:	d8800917 	ldw	r2,36(sp)
 1009a6c:	8809883a 	mov	r4,r17
 1009a70:	800b883a 	mov	r5,r16
 1009a74:	1880022e 	bgeu	r3,r2,1009a80 <__gtdf2+0x70>
 1009a78:	100a4100 	call	100a410 <__fpcmp_parts_d>
 1009a7c:	100d883a 	mov	r6,r2
 1009a80:	3005883a 	mov	r2,r6
 1009a84:	dfc01017 	ldw	ra,64(sp)
 1009a88:	dc400f17 	ldw	r17,60(sp)
 1009a8c:	dc000e17 	ldw	r16,56(sp)
 1009a90:	dec01104 	addi	sp,sp,68
 1009a94:	f800283a 	ret

01009a98 <__gedf2>:
 1009a98:	deffef04 	addi	sp,sp,-68
 1009a9c:	dc400f15 	stw	r17,60(sp)
 1009aa0:	dc400404 	addi	r17,sp,16
 1009aa4:	2005883a 	mov	r2,r4
 1009aa8:	2807883a 	mov	r3,r5
 1009aac:	dc000e15 	stw	r16,56(sp)
 1009ab0:	d809883a 	mov	r4,sp
 1009ab4:	880b883a 	mov	r5,r17
 1009ab8:	dc000904 	addi	r16,sp,36
 1009abc:	d8c00115 	stw	r3,4(sp)
 1009ac0:	d8800015 	stw	r2,0(sp)
 1009ac4:	d9800215 	stw	r6,8(sp)
 1009ac8:	dfc01015 	stw	ra,64(sp)
 1009acc:	d9c00315 	stw	r7,12(sp)
 1009ad0:	100a2d80 	call	100a2d8 <__unpack_d>
 1009ad4:	d9000204 	addi	r4,sp,8
 1009ad8:	800b883a 	mov	r5,r16
 1009adc:	100a2d80 	call	100a2d8 <__unpack_d>
 1009ae0:	d8800417 	ldw	r2,16(sp)
 1009ae4:	00c00044 	movi	r3,1
 1009ae8:	01bfffc4 	movi	r6,-1
 1009aec:	1880062e 	bgeu	r3,r2,1009b08 <__gedf2+0x70>
 1009af0:	d8800917 	ldw	r2,36(sp)
 1009af4:	8809883a 	mov	r4,r17
 1009af8:	800b883a 	mov	r5,r16
 1009afc:	1880022e 	bgeu	r3,r2,1009b08 <__gedf2+0x70>
 1009b00:	100a4100 	call	100a410 <__fpcmp_parts_d>
 1009b04:	100d883a 	mov	r6,r2
 1009b08:	3005883a 	mov	r2,r6
 1009b0c:	dfc01017 	ldw	ra,64(sp)
 1009b10:	dc400f17 	ldw	r17,60(sp)
 1009b14:	dc000e17 	ldw	r16,56(sp)
 1009b18:	dec01104 	addi	sp,sp,68
 1009b1c:	f800283a 	ret

01009b20 <__ltdf2>:
 1009b20:	deffef04 	addi	sp,sp,-68
 1009b24:	dc400f15 	stw	r17,60(sp)
 1009b28:	dc400404 	addi	r17,sp,16
 1009b2c:	2005883a 	mov	r2,r4
 1009b30:	2807883a 	mov	r3,r5
 1009b34:	dc000e15 	stw	r16,56(sp)
 1009b38:	d809883a 	mov	r4,sp
 1009b3c:	880b883a 	mov	r5,r17
 1009b40:	dc000904 	addi	r16,sp,36
 1009b44:	d8c00115 	stw	r3,4(sp)
 1009b48:	d8800015 	stw	r2,0(sp)
 1009b4c:	d9800215 	stw	r6,8(sp)
 1009b50:	dfc01015 	stw	ra,64(sp)
 1009b54:	d9c00315 	stw	r7,12(sp)
 1009b58:	100a2d80 	call	100a2d8 <__unpack_d>
 1009b5c:	d9000204 	addi	r4,sp,8
 1009b60:	800b883a 	mov	r5,r16
 1009b64:	100a2d80 	call	100a2d8 <__unpack_d>
 1009b68:	d8800417 	ldw	r2,16(sp)
 1009b6c:	00c00044 	movi	r3,1
 1009b70:	180d883a 	mov	r6,r3
 1009b74:	1880062e 	bgeu	r3,r2,1009b90 <__ltdf2+0x70>
 1009b78:	d8800917 	ldw	r2,36(sp)
 1009b7c:	8809883a 	mov	r4,r17
 1009b80:	800b883a 	mov	r5,r16
 1009b84:	1880022e 	bgeu	r3,r2,1009b90 <__ltdf2+0x70>
 1009b88:	100a4100 	call	100a410 <__fpcmp_parts_d>
 1009b8c:	100d883a 	mov	r6,r2
 1009b90:	3005883a 	mov	r2,r6
 1009b94:	dfc01017 	ldw	ra,64(sp)
 1009b98:	dc400f17 	ldw	r17,60(sp)
 1009b9c:	dc000e17 	ldw	r16,56(sp)
 1009ba0:	dec01104 	addi	sp,sp,68
 1009ba4:	f800283a 	ret

01009ba8 <__floatsidf>:
 1009ba8:	2006d7fa 	srli	r3,r4,31
 1009bac:	defff604 	addi	sp,sp,-40
 1009bb0:	008000c4 	movi	r2,3
 1009bb4:	dfc00915 	stw	ra,36(sp)
 1009bb8:	dcc00815 	stw	r19,32(sp)
 1009bbc:	dc800715 	stw	r18,28(sp)
 1009bc0:	dc400615 	stw	r17,24(sp)
 1009bc4:	dc000515 	stw	r16,20(sp)
 1009bc8:	d8800015 	stw	r2,0(sp)
 1009bcc:	d8c00115 	stw	r3,4(sp)
 1009bd0:	20000f1e 	bne	r4,zero,1009c10 <__floatsidf+0x68>
 1009bd4:	00800084 	movi	r2,2
 1009bd8:	d8800015 	stw	r2,0(sp)
 1009bdc:	d809883a 	mov	r4,sp
 1009be0:	1009fc40 	call	1009fc4 <__pack_d>
 1009be4:	1009883a 	mov	r4,r2
 1009be8:	180b883a 	mov	r5,r3
 1009bec:	2005883a 	mov	r2,r4
 1009bf0:	2807883a 	mov	r3,r5
 1009bf4:	dfc00917 	ldw	ra,36(sp)
 1009bf8:	dcc00817 	ldw	r19,32(sp)
 1009bfc:	dc800717 	ldw	r18,28(sp)
 1009c00:	dc400617 	ldw	r17,24(sp)
 1009c04:	dc000517 	ldw	r16,20(sp)
 1009c08:	dec00a04 	addi	sp,sp,40
 1009c0c:	f800283a 	ret
 1009c10:	00800f04 	movi	r2,60
 1009c14:	1807003a 	cmpeq	r3,r3,zero
 1009c18:	d8800215 	stw	r2,8(sp)
 1009c1c:	18001126 	beq	r3,zero,1009c64 <__floatsidf+0xbc>
 1009c20:	0027883a 	mov	r19,zero
 1009c24:	2025883a 	mov	r18,r4
 1009c28:	d9000315 	stw	r4,12(sp)
 1009c2c:	dcc00415 	stw	r19,16(sp)
 1009c30:	1009f440 	call	1009f44 <__clzsi2>
 1009c34:	11000744 	addi	r4,r2,29
 1009c38:	013fe80e 	bge	zero,r4,1009bdc <__floatsidf+0x34>
 1009c3c:	10bfff44 	addi	r2,r2,-3
 1009c40:	10000c16 	blt	r2,zero,1009c74 <__floatsidf+0xcc>
 1009c44:	90a2983a 	sll	r17,r18,r2
 1009c48:	0021883a 	mov	r16,zero
 1009c4c:	d8800217 	ldw	r2,8(sp)
 1009c50:	dc400415 	stw	r17,16(sp)
 1009c54:	dc000315 	stw	r16,12(sp)
 1009c58:	1105c83a 	sub	r2,r2,r4
 1009c5c:	d8800215 	stw	r2,8(sp)
 1009c60:	003fde06 	br	1009bdc <__floatsidf+0x34>
 1009c64:	00a00034 	movhi	r2,32768
 1009c68:	20800a26 	beq	r4,r2,1009c94 <__floatsidf+0xec>
 1009c6c:	0109c83a 	sub	r4,zero,r4
 1009c70:	003feb06 	br	1009c20 <__floatsidf+0x78>
 1009c74:	9006d07a 	srli	r3,r18,1
 1009c78:	008007c4 	movi	r2,31
 1009c7c:	1105c83a 	sub	r2,r2,r4
 1009c80:	1886d83a 	srl	r3,r3,r2
 1009c84:	9922983a 	sll	r17,r19,r4
 1009c88:	9120983a 	sll	r16,r18,r4
 1009c8c:	1c62b03a 	or	r17,r3,r17
 1009c90:	003fee06 	br	1009c4c <__floatsidf+0xa4>
 1009c94:	0009883a 	mov	r4,zero
 1009c98:	01707834 	movhi	r5,49632
 1009c9c:	003fd306 	br	1009bec <__floatsidf+0x44>

01009ca0 <__fixdfsi>:
 1009ca0:	defff804 	addi	sp,sp,-32
 1009ca4:	2005883a 	mov	r2,r4
 1009ca8:	2807883a 	mov	r3,r5
 1009cac:	d809883a 	mov	r4,sp
 1009cb0:	d9400204 	addi	r5,sp,8
 1009cb4:	d8c00115 	stw	r3,4(sp)
 1009cb8:	d8800015 	stw	r2,0(sp)
 1009cbc:	dfc00715 	stw	ra,28(sp)
 1009cc0:	100a2d80 	call	100a2d8 <__unpack_d>
 1009cc4:	d8c00217 	ldw	r3,8(sp)
 1009cc8:	00800084 	movi	r2,2
 1009ccc:	1880051e 	bne	r3,r2,1009ce4 <__fixdfsi+0x44>
 1009cd0:	0007883a 	mov	r3,zero
 1009cd4:	1805883a 	mov	r2,r3
 1009cd8:	dfc00717 	ldw	ra,28(sp)
 1009cdc:	dec00804 	addi	sp,sp,32
 1009ce0:	f800283a 	ret
 1009ce4:	00800044 	movi	r2,1
 1009ce8:	10fff92e 	bgeu	r2,r3,1009cd0 <__fixdfsi+0x30>
 1009cec:	00800104 	movi	r2,4
 1009cf0:	18800426 	beq	r3,r2,1009d04 <__fixdfsi+0x64>
 1009cf4:	d8c00417 	ldw	r3,16(sp)
 1009cf8:	183ff516 	blt	r3,zero,1009cd0 <__fixdfsi+0x30>
 1009cfc:	00800784 	movi	r2,30
 1009d00:	10c0080e 	bge	r2,r3,1009d24 <__fixdfsi+0x84>
 1009d04:	d8800317 	ldw	r2,12(sp)
 1009d08:	1000121e 	bne	r2,zero,1009d54 <__fixdfsi+0xb4>
 1009d0c:	00e00034 	movhi	r3,32768
 1009d10:	18ffffc4 	addi	r3,r3,-1
 1009d14:	1805883a 	mov	r2,r3
 1009d18:	dfc00717 	ldw	ra,28(sp)
 1009d1c:	dec00804 	addi	sp,sp,32
 1009d20:	f800283a 	ret
 1009d24:	00800f04 	movi	r2,60
 1009d28:	10d1c83a 	sub	r8,r2,r3
 1009d2c:	40bff804 	addi	r2,r8,-32
 1009d30:	d9800517 	ldw	r6,20(sp)
 1009d34:	d9c00617 	ldw	r7,24(sp)
 1009d38:	10000816 	blt	r2,zero,1009d5c <__fixdfsi+0xbc>
 1009d3c:	3888d83a 	srl	r4,r7,r2
 1009d40:	d8800317 	ldw	r2,12(sp)
 1009d44:	2007883a 	mov	r3,r4
 1009d48:	103fe226 	beq	r2,zero,1009cd4 <__fixdfsi+0x34>
 1009d4c:	0107c83a 	sub	r3,zero,r4
 1009d50:	003fe006 	br	1009cd4 <__fixdfsi+0x34>
 1009d54:	00e00034 	movhi	r3,32768
 1009d58:	003fde06 	br	1009cd4 <__fixdfsi+0x34>
 1009d5c:	39c7883a 	add	r3,r7,r7
 1009d60:	008007c4 	movi	r2,31
 1009d64:	1205c83a 	sub	r2,r2,r8
 1009d68:	1886983a 	sll	r3,r3,r2
 1009d6c:	3208d83a 	srl	r4,r6,r8
 1009d70:	1908b03a 	or	r4,r3,r4
 1009d74:	003ff206 	br	1009d40 <__fixdfsi+0xa0>

01009d78 <__floatunsidf>:
 1009d78:	defff204 	addi	sp,sp,-56
 1009d7c:	dfc00d15 	stw	ra,52(sp)
 1009d80:	ddc00c15 	stw	r23,48(sp)
 1009d84:	dd800b15 	stw	r22,44(sp)
 1009d88:	dd400a15 	stw	r21,40(sp)
 1009d8c:	dd000915 	stw	r20,36(sp)
 1009d90:	dcc00815 	stw	r19,32(sp)
 1009d94:	dc800715 	stw	r18,28(sp)
 1009d98:	dc400615 	stw	r17,24(sp)
 1009d9c:	dc000515 	stw	r16,20(sp)
 1009da0:	d8000115 	stw	zero,4(sp)
 1009da4:	20000f1e 	bne	r4,zero,1009de4 <__floatunsidf+0x6c>
 1009da8:	00800084 	movi	r2,2
 1009dac:	d8800015 	stw	r2,0(sp)
 1009db0:	d809883a 	mov	r4,sp
 1009db4:	1009fc40 	call	1009fc4 <__pack_d>
 1009db8:	dfc00d17 	ldw	ra,52(sp)
 1009dbc:	ddc00c17 	ldw	r23,48(sp)
 1009dc0:	dd800b17 	ldw	r22,44(sp)
 1009dc4:	dd400a17 	ldw	r21,40(sp)
 1009dc8:	dd000917 	ldw	r20,36(sp)
 1009dcc:	dcc00817 	ldw	r19,32(sp)
 1009dd0:	dc800717 	ldw	r18,28(sp)
 1009dd4:	dc400617 	ldw	r17,24(sp)
 1009dd8:	dc000517 	ldw	r16,20(sp)
 1009ddc:	dec00e04 	addi	sp,sp,56
 1009de0:	f800283a 	ret
 1009de4:	008000c4 	movi	r2,3
 1009de8:	00c00f04 	movi	r3,60
 1009dec:	002f883a 	mov	r23,zero
 1009df0:	202d883a 	mov	r22,r4
 1009df4:	d8800015 	stw	r2,0(sp)
 1009df8:	d8c00215 	stw	r3,8(sp)
 1009dfc:	d9000315 	stw	r4,12(sp)
 1009e00:	ddc00415 	stw	r23,16(sp)
 1009e04:	1009f440 	call	1009f44 <__clzsi2>
 1009e08:	12400744 	addi	r9,r2,29
 1009e0c:	48000b16 	blt	r9,zero,1009e3c <__floatunsidf+0xc4>
 1009e10:	483fe726 	beq	r9,zero,1009db0 <__floatunsidf+0x38>
 1009e14:	10bfff44 	addi	r2,r2,-3
 1009e18:	10002e16 	blt	r2,zero,1009ed4 <__floatunsidf+0x15c>
 1009e1c:	b0a2983a 	sll	r17,r22,r2
 1009e20:	0021883a 	mov	r16,zero
 1009e24:	d8800217 	ldw	r2,8(sp)
 1009e28:	dc400415 	stw	r17,16(sp)
 1009e2c:	dc000315 	stw	r16,12(sp)
 1009e30:	1245c83a 	sub	r2,r2,r9
 1009e34:	d8800215 	stw	r2,8(sp)
 1009e38:	003fdd06 	br	1009db0 <__floatunsidf+0x38>
 1009e3c:	0255c83a 	sub	r10,zero,r9
 1009e40:	51bff804 	addi	r6,r10,-32
 1009e44:	30001b16 	blt	r6,zero,1009eb4 <__floatunsidf+0x13c>
 1009e48:	b9a8d83a 	srl	r20,r23,r6
 1009e4c:	002b883a 	mov	r21,zero
 1009e50:	000f883a 	mov	r7,zero
 1009e54:	01000044 	movi	r4,1
 1009e58:	0011883a 	mov	r8,zero
 1009e5c:	30002516 	blt	r6,zero,1009ef4 <__floatunsidf+0x17c>
 1009e60:	21a6983a 	sll	r19,r4,r6
 1009e64:	0025883a 	mov	r18,zero
 1009e68:	00bfffc4 	movi	r2,-1
 1009e6c:	9089883a 	add	r4,r18,r2
 1009e70:	988b883a 	add	r5,r19,r2
 1009e74:	248d803a 	cmpltu	r6,r4,r18
 1009e78:	314b883a 	add	r5,r6,r5
 1009e7c:	b104703a 	and	r2,r22,r4
 1009e80:	b946703a 	and	r3,r23,r5
 1009e84:	10c4b03a 	or	r2,r2,r3
 1009e88:	10000226 	beq	r2,zero,1009e94 <__floatunsidf+0x11c>
 1009e8c:	01c00044 	movi	r7,1
 1009e90:	0011883a 	mov	r8,zero
 1009e94:	d9000217 	ldw	r4,8(sp)
 1009e98:	a1c4b03a 	or	r2,r20,r7
 1009e9c:	aa06b03a 	or	r3,r21,r8
 1009ea0:	2249c83a 	sub	r4,r4,r9
 1009ea4:	d8c00415 	stw	r3,16(sp)
 1009ea8:	d9000215 	stw	r4,8(sp)
 1009eac:	d8800315 	stw	r2,12(sp)
 1009eb0:	003fbf06 	br	1009db0 <__floatunsidf+0x38>
 1009eb4:	bdc7883a 	add	r3,r23,r23
 1009eb8:	008007c4 	movi	r2,31
 1009ebc:	1285c83a 	sub	r2,r2,r10
 1009ec0:	1886983a 	sll	r3,r3,r2
 1009ec4:	b2a8d83a 	srl	r20,r22,r10
 1009ec8:	baaad83a 	srl	r21,r23,r10
 1009ecc:	1d28b03a 	or	r20,r3,r20
 1009ed0:	003fdf06 	br	1009e50 <__floatunsidf+0xd8>
 1009ed4:	b006d07a 	srli	r3,r22,1
 1009ed8:	008007c4 	movi	r2,31
 1009edc:	1245c83a 	sub	r2,r2,r9
 1009ee0:	1886d83a 	srl	r3,r3,r2
 1009ee4:	ba62983a 	sll	r17,r23,r9
 1009ee8:	b260983a 	sll	r16,r22,r9
 1009eec:	1c62b03a 	or	r17,r3,r17
 1009ef0:	003fcc06 	br	1009e24 <__floatunsidf+0xac>
 1009ef4:	2006d07a 	srli	r3,r4,1
 1009ef8:	008007c4 	movi	r2,31
 1009efc:	1285c83a 	sub	r2,r2,r10
 1009f00:	18a6d83a 	srl	r19,r3,r2
 1009f04:	22a4983a 	sll	r18,r4,r10
 1009f08:	003fd706 	br	1009e68 <__floatunsidf+0xf0>

01009f0c <__mulsi3>:
 1009f0c:	20000a26 	beq	r4,zero,1009f38 <__mulsi3+0x2c>
 1009f10:	0007883a 	mov	r3,zero
 1009f14:	2080004c 	andi	r2,r4,1
 1009f18:	1005003a 	cmpeq	r2,r2,zero
 1009f1c:	2008d07a 	srli	r4,r4,1
 1009f20:	1000011e 	bne	r2,zero,1009f28 <__mulsi3+0x1c>
 1009f24:	1947883a 	add	r3,r3,r5
 1009f28:	294b883a 	add	r5,r5,r5
 1009f2c:	203ff91e 	bne	r4,zero,1009f14 <__mulsi3+0x8>
 1009f30:	1805883a 	mov	r2,r3
 1009f34:	f800283a 	ret
 1009f38:	0007883a 	mov	r3,zero
 1009f3c:	1805883a 	mov	r2,r3
 1009f40:	f800283a 	ret

01009f44 <__clzsi2>:
 1009f44:	00bfffd4 	movui	r2,65535
 1009f48:	11000e36 	bltu	r2,r4,1009f84 <__clzsi2+0x40>
 1009f4c:	00803fc4 	movi	r2,255
 1009f50:	01400204 	movi	r5,8
 1009f54:	0007883a 	mov	r3,zero
 1009f58:	11001036 	bltu	r2,r4,1009f9c <__clzsi2+0x58>
 1009f5c:	000b883a 	mov	r5,zero
 1009f60:	20c6d83a 	srl	r3,r4,r3
 1009f64:	00804074 	movhi	r2,257
 1009f68:	10bb3604 	addi	r2,r2,-4904
 1009f6c:	1887883a 	add	r3,r3,r2
 1009f70:	18800003 	ldbu	r2,0(r3)
 1009f74:	00c00804 	movi	r3,32
 1009f78:	2885883a 	add	r2,r5,r2
 1009f7c:	1885c83a 	sub	r2,r3,r2
 1009f80:	f800283a 	ret
 1009f84:	01400404 	movi	r5,16
 1009f88:	00804034 	movhi	r2,256
 1009f8c:	10bfffc4 	addi	r2,r2,-1
 1009f90:	2807883a 	mov	r3,r5
 1009f94:	113ff22e 	bgeu	r2,r4,1009f60 <__clzsi2+0x1c>
 1009f98:	01400604 	movi	r5,24
 1009f9c:	2807883a 	mov	r3,r5
 1009fa0:	20c6d83a 	srl	r3,r4,r3
 1009fa4:	00804074 	movhi	r2,257
 1009fa8:	10bb3604 	addi	r2,r2,-4904
 1009fac:	1887883a 	add	r3,r3,r2
 1009fb0:	18800003 	ldbu	r2,0(r3)
 1009fb4:	00c00804 	movi	r3,32
 1009fb8:	2885883a 	add	r2,r5,r2
 1009fbc:	1885c83a 	sub	r2,r3,r2
 1009fc0:	f800283a 	ret

01009fc4 <__pack_d>:
 1009fc4:	20c00017 	ldw	r3,0(r4)
 1009fc8:	defffd04 	addi	sp,sp,-12
 1009fcc:	dc000015 	stw	r16,0(sp)
 1009fd0:	dc800215 	stw	r18,8(sp)
 1009fd4:	dc400115 	stw	r17,4(sp)
 1009fd8:	00800044 	movi	r2,1
 1009fdc:	22000317 	ldw	r8,12(r4)
 1009fe0:	001f883a 	mov	r15,zero
 1009fe4:	22400417 	ldw	r9,16(r4)
 1009fe8:	24000117 	ldw	r16,4(r4)
 1009fec:	10c0552e 	bgeu	r2,r3,100a144 <__pack_d+0x180>
 1009ff0:	00800104 	movi	r2,4
 1009ff4:	18804f26 	beq	r3,r2,100a134 <__pack_d+0x170>
 1009ff8:	00800084 	movi	r2,2
 1009ffc:	18800226 	beq	r3,r2,100a008 <__pack_d+0x44>
 100a000:	4244b03a 	or	r2,r8,r9
 100a004:	10001a1e 	bne	r2,zero,100a070 <__pack_d+0xac>
 100a008:	000d883a 	mov	r6,zero
 100a00c:	000f883a 	mov	r7,zero
 100a010:	0011883a 	mov	r8,zero
 100a014:	00800434 	movhi	r2,16
 100a018:	10bfffc4 	addi	r2,r2,-1
 100a01c:	301d883a 	mov	r14,r6
 100a020:	3884703a 	and	r2,r7,r2
 100a024:	400a953a 	slli	r5,r8,20
 100a028:	79bffc2c 	andhi	r6,r15,65520
 100a02c:	308cb03a 	or	r6,r6,r2
 100a030:	00e00434 	movhi	r3,32784
 100a034:	18ffffc4 	addi	r3,r3,-1
 100a038:	800497fa 	slli	r2,r16,31
 100a03c:	30c6703a 	and	r3,r6,r3
 100a040:	1946b03a 	or	r3,r3,r5
 100a044:	01600034 	movhi	r5,32768
 100a048:	297fffc4 	addi	r5,r5,-1
 100a04c:	194a703a 	and	r5,r3,r5
 100a050:	288ab03a 	or	r5,r5,r2
 100a054:	2807883a 	mov	r3,r5
 100a058:	7005883a 	mov	r2,r14
 100a05c:	dc800217 	ldw	r18,8(sp)
 100a060:	dc400117 	ldw	r17,4(sp)
 100a064:	dc000017 	ldw	r16,0(sp)
 100a068:	dec00304 	addi	sp,sp,12
 100a06c:	f800283a 	ret
 100a070:	21000217 	ldw	r4,8(r4)
 100a074:	00bf0084 	movi	r2,-1022
 100a078:	20803f16 	blt	r4,r2,100a178 <__pack_d+0x1b4>
 100a07c:	0080ffc4 	movi	r2,1023
 100a080:	11002c16 	blt	r2,r4,100a134 <__pack_d+0x170>
 100a084:	00803fc4 	movi	r2,255
 100a088:	408c703a 	and	r6,r8,r2
 100a08c:	00802004 	movi	r2,128
 100a090:	0007883a 	mov	r3,zero
 100a094:	000f883a 	mov	r7,zero
 100a098:	2280ffc4 	addi	r10,r4,1023
 100a09c:	30801e26 	beq	r6,r2,100a118 <__pack_d+0x154>
 100a0a0:	00801fc4 	movi	r2,127
 100a0a4:	4089883a 	add	r4,r8,r2
 100a0a8:	220d803a 	cmpltu	r6,r4,r8
 100a0ac:	324d883a 	add	r6,r6,r9
 100a0b0:	2011883a 	mov	r8,r4
 100a0b4:	3013883a 	mov	r9,r6
 100a0b8:	00880034 	movhi	r2,8192
 100a0bc:	10bfffc4 	addi	r2,r2,-1
 100a0c0:	12400d36 	bltu	r2,r9,100a0f8 <__pack_d+0x134>
 100a0c4:	4804963a 	slli	r2,r9,24
 100a0c8:	400cd23a 	srli	r6,r8,8
 100a0cc:	480ed23a 	srli	r7,r9,8
 100a0d0:	013fffc4 	movi	r4,-1
 100a0d4:	118cb03a 	or	r6,r2,r6
 100a0d8:	01400434 	movhi	r5,16
 100a0dc:	297fffc4 	addi	r5,r5,-1
 100a0e0:	3104703a 	and	r2,r6,r4
 100a0e4:	3946703a 	and	r3,r7,r5
 100a0e8:	5201ffcc 	andi	r8,r10,2047
 100a0ec:	100d883a 	mov	r6,r2
 100a0f0:	180f883a 	mov	r7,r3
 100a0f4:	003fc706 	br	100a014 <__pack_d+0x50>
 100a0f8:	480897fa 	slli	r4,r9,31
 100a0fc:	4004d07a 	srli	r2,r8,1
 100a100:	4806d07a 	srli	r3,r9,1
 100a104:	52800044 	addi	r10,r10,1
 100a108:	2084b03a 	or	r2,r4,r2
 100a10c:	1011883a 	mov	r8,r2
 100a110:	1813883a 	mov	r9,r3
 100a114:	003feb06 	br	100a0c4 <__pack_d+0x100>
 100a118:	383fe11e 	bne	r7,zero,100a0a0 <__pack_d+0xdc>
 100a11c:	01004004 	movi	r4,256
 100a120:	4104703a 	and	r2,r8,r4
 100a124:	10c4b03a 	or	r2,r2,r3
 100a128:	103fe326 	beq	r2,zero,100a0b8 <__pack_d+0xf4>
 100a12c:	3005883a 	mov	r2,r6
 100a130:	003fdc06 	br	100a0a4 <__pack_d+0xe0>
 100a134:	000d883a 	mov	r6,zero
 100a138:	000f883a 	mov	r7,zero
 100a13c:	0201ffc4 	movi	r8,2047
 100a140:	003fb406 	br	100a014 <__pack_d+0x50>
 100a144:	0005883a 	mov	r2,zero
 100a148:	00c00234 	movhi	r3,8
 100a14c:	408cb03a 	or	r6,r8,r2
 100a150:	48ceb03a 	or	r7,r9,r3
 100a154:	013fffc4 	movi	r4,-1
 100a158:	01400434 	movhi	r5,16
 100a15c:	297fffc4 	addi	r5,r5,-1
 100a160:	3104703a 	and	r2,r6,r4
 100a164:	3946703a 	and	r3,r7,r5
 100a168:	100d883a 	mov	r6,r2
 100a16c:	180f883a 	mov	r7,r3
 100a170:	0201ffc4 	movi	r8,2047
 100a174:	003fa706 	br	100a014 <__pack_d+0x50>
 100a178:	1109c83a 	sub	r4,r2,r4
 100a17c:	00800e04 	movi	r2,56
 100a180:	11004316 	blt	r2,r4,100a290 <__pack_d+0x2cc>
 100a184:	21fff804 	addi	r7,r4,-32
 100a188:	38004516 	blt	r7,zero,100a2a0 <__pack_d+0x2dc>
 100a18c:	49d8d83a 	srl	r12,r9,r7
 100a190:	001b883a 	mov	r13,zero
 100a194:	0023883a 	mov	r17,zero
 100a198:	01400044 	movi	r5,1
 100a19c:	0025883a 	mov	r18,zero
 100a1a0:	38004716 	blt	r7,zero,100a2c0 <__pack_d+0x2fc>
 100a1a4:	29d6983a 	sll	r11,r5,r7
 100a1a8:	0015883a 	mov	r10,zero
 100a1ac:	00bfffc4 	movi	r2,-1
 100a1b0:	5089883a 	add	r4,r10,r2
 100a1b4:	588b883a 	add	r5,r11,r2
 100a1b8:	228d803a 	cmpltu	r6,r4,r10
 100a1bc:	314b883a 	add	r5,r6,r5
 100a1c0:	4104703a 	and	r2,r8,r4
 100a1c4:	4946703a 	and	r3,r9,r5
 100a1c8:	10c4b03a 	or	r2,r2,r3
 100a1cc:	10000226 	beq	r2,zero,100a1d8 <__pack_d+0x214>
 100a1d0:	04400044 	movi	r17,1
 100a1d4:	0025883a 	mov	r18,zero
 100a1d8:	00803fc4 	movi	r2,255
 100a1dc:	644eb03a 	or	r7,r12,r17
 100a1e0:	3892703a 	and	r9,r7,r2
 100a1e4:	00802004 	movi	r2,128
 100a1e8:	6c90b03a 	or	r8,r13,r18
 100a1ec:	0015883a 	mov	r10,zero
 100a1f0:	48801626 	beq	r9,r2,100a24c <__pack_d+0x288>
 100a1f4:	01001fc4 	movi	r4,127
 100a1f8:	3905883a 	add	r2,r7,r4
 100a1fc:	11cd803a 	cmpltu	r6,r2,r7
 100a200:	320d883a 	add	r6,r6,r8
 100a204:	100f883a 	mov	r7,r2
 100a208:	00840034 	movhi	r2,4096
 100a20c:	10bfffc4 	addi	r2,r2,-1
 100a210:	3011883a 	mov	r8,r6
 100a214:	0007883a 	mov	r3,zero
 100a218:	11801b36 	bltu	r2,r6,100a288 <__pack_d+0x2c4>
 100a21c:	4004963a 	slli	r2,r8,24
 100a220:	3808d23a 	srli	r4,r7,8
 100a224:	400ad23a 	srli	r5,r8,8
 100a228:	1813883a 	mov	r9,r3
 100a22c:	1108b03a 	or	r4,r2,r4
 100a230:	00bfffc4 	movi	r2,-1
 100a234:	00c00434 	movhi	r3,16
 100a238:	18ffffc4 	addi	r3,r3,-1
 100a23c:	208c703a 	and	r6,r4,r2
 100a240:	28ce703a 	and	r7,r5,r3
 100a244:	4a01ffcc 	andi	r8,r9,2047
 100a248:	003f7206 	br	100a014 <__pack_d+0x50>
 100a24c:	503fe91e 	bne	r10,zero,100a1f4 <__pack_d+0x230>
 100a250:	01004004 	movi	r4,256
 100a254:	3904703a 	and	r2,r7,r4
 100a258:	0007883a 	mov	r3,zero
 100a25c:	10c4b03a 	or	r2,r2,r3
 100a260:	10000626 	beq	r2,zero,100a27c <__pack_d+0x2b8>
 100a264:	3a45883a 	add	r2,r7,r9
 100a268:	11cd803a 	cmpltu	r6,r2,r7
 100a26c:	320d883a 	add	r6,r6,r8
 100a270:	100f883a 	mov	r7,r2
 100a274:	3011883a 	mov	r8,r6
 100a278:	0007883a 	mov	r3,zero
 100a27c:	00840034 	movhi	r2,4096
 100a280:	10bfffc4 	addi	r2,r2,-1
 100a284:	123fe52e 	bgeu	r2,r8,100a21c <__pack_d+0x258>
 100a288:	00c00044 	movi	r3,1
 100a28c:	003fe306 	br	100a21c <__pack_d+0x258>
 100a290:	0009883a 	mov	r4,zero
 100a294:	0013883a 	mov	r9,zero
 100a298:	000b883a 	mov	r5,zero
 100a29c:	003fe406 	br	100a230 <__pack_d+0x26c>
 100a2a0:	4a47883a 	add	r3,r9,r9
 100a2a4:	008007c4 	movi	r2,31
 100a2a8:	1105c83a 	sub	r2,r2,r4
 100a2ac:	1886983a 	sll	r3,r3,r2
 100a2b0:	4118d83a 	srl	r12,r8,r4
 100a2b4:	491ad83a 	srl	r13,r9,r4
 100a2b8:	1b18b03a 	or	r12,r3,r12
 100a2bc:	003fb506 	br	100a194 <__pack_d+0x1d0>
 100a2c0:	2806d07a 	srli	r3,r5,1
 100a2c4:	008007c4 	movi	r2,31
 100a2c8:	1105c83a 	sub	r2,r2,r4
 100a2cc:	1896d83a 	srl	r11,r3,r2
 100a2d0:	2914983a 	sll	r10,r5,r4
 100a2d4:	003fb506 	br	100a1ac <__pack_d+0x1e8>

0100a2d8 <__unpack_d>:
 100a2d8:	20c00117 	ldw	r3,4(r4)
 100a2dc:	22400017 	ldw	r9,0(r4)
 100a2e0:	00800434 	movhi	r2,16
 100a2e4:	10bfffc4 	addi	r2,r2,-1
 100a2e8:	1808d53a 	srli	r4,r3,20
 100a2ec:	180cd7fa 	srli	r6,r3,31
 100a2f0:	1894703a 	and	r10,r3,r2
 100a2f4:	2201ffcc 	andi	r8,r4,2047
 100a2f8:	281b883a 	mov	r13,r5
 100a2fc:	4817883a 	mov	r11,r9
 100a300:	29800115 	stw	r6,4(r5)
 100a304:	5019883a 	mov	r12,r10
 100a308:	40001e1e 	bne	r8,zero,100a384 <__unpack_d+0xac>
 100a30c:	4a84b03a 	or	r2,r9,r10
 100a310:	10001926 	beq	r2,zero,100a378 <__unpack_d+0xa0>
 100a314:	4804d63a 	srli	r2,r9,24
 100a318:	500c923a 	slli	r6,r10,8
 100a31c:	013f0084 	movi	r4,-1022
 100a320:	00c40034 	movhi	r3,4096
 100a324:	18ffffc4 	addi	r3,r3,-1
 100a328:	118cb03a 	or	r6,r2,r6
 100a32c:	008000c4 	movi	r2,3
 100a330:	480a923a 	slli	r5,r9,8
 100a334:	68800015 	stw	r2,0(r13)
 100a338:	69000215 	stw	r4,8(r13)
 100a33c:	19800b36 	bltu	r3,r6,100a36c <__unpack_d+0x94>
 100a340:	200f883a 	mov	r7,r4
 100a344:	1811883a 	mov	r8,r3
 100a348:	2945883a 	add	r2,r5,r5
 100a34c:	1149803a 	cmpltu	r4,r2,r5
 100a350:	3187883a 	add	r3,r6,r6
 100a354:	20c9883a 	add	r4,r4,r3
 100a358:	100b883a 	mov	r5,r2
 100a35c:	200d883a 	mov	r6,r4
 100a360:	39ffffc4 	addi	r7,r7,-1
 100a364:	413ff82e 	bgeu	r8,r4,100a348 <__unpack_d+0x70>
 100a368:	69c00215 	stw	r7,8(r13)
 100a36c:	69800415 	stw	r6,16(r13)
 100a370:	69400315 	stw	r5,12(r13)
 100a374:	f800283a 	ret
 100a378:	00800084 	movi	r2,2
 100a37c:	28800015 	stw	r2,0(r5)
 100a380:	f800283a 	ret
 100a384:	0081ffc4 	movi	r2,2047
 100a388:	40800f26 	beq	r8,r2,100a3c8 <__unpack_d+0xf0>
 100a38c:	480cd63a 	srli	r6,r9,24
 100a390:	5006923a 	slli	r3,r10,8
 100a394:	4804923a 	slli	r2,r9,8
 100a398:	0009883a 	mov	r4,zero
 100a39c:	30c6b03a 	or	r3,r6,r3
 100a3a0:	01440034 	movhi	r5,4096
 100a3a4:	110cb03a 	or	r6,r2,r4
 100a3a8:	423f0044 	addi	r8,r8,-1023
 100a3ac:	194eb03a 	or	r7,r3,r5
 100a3b0:	008000c4 	movi	r2,3
 100a3b4:	69c00415 	stw	r7,16(r13)
 100a3b8:	6a000215 	stw	r8,8(r13)
 100a3bc:	68800015 	stw	r2,0(r13)
 100a3c0:	69800315 	stw	r6,12(r13)
 100a3c4:	f800283a 	ret
 100a3c8:	4a84b03a 	or	r2,r9,r10
 100a3cc:	1000031e 	bne	r2,zero,100a3dc <__unpack_d+0x104>
 100a3d0:	00800104 	movi	r2,4
 100a3d4:	28800015 	stw	r2,0(r5)
 100a3d8:	f800283a 	ret
 100a3dc:	0009883a 	mov	r4,zero
 100a3e0:	01400234 	movhi	r5,8
 100a3e4:	4904703a 	and	r2,r9,r4
 100a3e8:	5146703a 	and	r3,r10,r5
 100a3ec:	10c4b03a 	or	r2,r2,r3
 100a3f0:	10000526 	beq	r2,zero,100a408 <__unpack_d+0x130>
 100a3f4:	00800044 	movi	r2,1
 100a3f8:	68800015 	stw	r2,0(r13)
 100a3fc:	6b000415 	stw	r12,16(r13)
 100a400:	6ac00315 	stw	r11,12(r13)
 100a404:	f800283a 	ret
 100a408:	68000015 	stw	zero,0(r13)
 100a40c:	003ffb06 	br	100a3fc <__unpack_d+0x124>

0100a410 <__fpcmp_parts_d>:
 100a410:	21800017 	ldw	r6,0(r4)
 100a414:	00c00044 	movi	r3,1
 100a418:	19800a2e 	bgeu	r3,r6,100a444 <__fpcmp_parts_d+0x34>
 100a41c:	28800017 	ldw	r2,0(r5)
 100a420:	1880082e 	bgeu	r3,r2,100a444 <__fpcmp_parts_d+0x34>
 100a424:	00c00104 	movi	r3,4
 100a428:	30c02626 	beq	r6,r3,100a4c4 <__fpcmp_parts_d+0xb4>
 100a42c:	10c02226 	beq	r2,r3,100a4b8 <__fpcmp_parts_d+0xa8>
 100a430:	00c00084 	movi	r3,2
 100a434:	30c00526 	beq	r6,r3,100a44c <__fpcmp_parts_d+0x3c>
 100a438:	10c0071e 	bne	r2,r3,100a458 <__fpcmp_parts_d+0x48>
 100a43c:	20800117 	ldw	r2,4(r4)
 100a440:	1000091e 	bne	r2,zero,100a468 <__fpcmp_parts_d+0x58>
 100a444:	00800044 	movi	r2,1
 100a448:	f800283a 	ret
 100a44c:	10c01a1e 	bne	r2,r3,100a4b8 <__fpcmp_parts_d+0xa8>
 100a450:	0005883a 	mov	r2,zero
 100a454:	f800283a 	ret
 100a458:	22000117 	ldw	r8,4(r4)
 100a45c:	28800117 	ldw	r2,4(r5)
 100a460:	40800326 	beq	r8,r2,100a470 <__fpcmp_parts_d+0x60>
 100a464:	403ff726 	beq	r8,zero,100a444 <__fpcmp_parts_d+0x34>
 100a468:	00bfffc4 	movi	r2,-1
 100a46c:	f800283a 	ret
 100a470:	20c00217 	ldw	r3,8(r4)
 100a474:	28800217 	ldw	r2,8(r5)
 100a478:	10fffa16 	blt	r2,r3,100a464 <__fpcmp_parts_d+0x54>
 100a47c:	18800916 	blt	r3,r2,100a4a4 <__fpcmp_parts_d+0x94>
 100a480:	21c00417 	ldw	r7,16(r4)
 100a484:	28c00417 	ldw	r3,16(r5)
 100a488:	21800317 	ldw	r6,12(r4)
 100a48c:	28800317 	ldw	r2,12(r5)
 100a490:	19fff436 	bltu	r3,r7,100a464 <__fpcmp_parts_d+0x54>
 100a494:	38c00526 	beq	r7,r3,100a4ac <__fpcmp_parts_d+0x9c>
 100a498:	38c00236 	bltu	r7,r3,100a4a4 <__fpcmp_parts_d+0x94>
 100a49c:	19ffec1e 	bne	r3,r7,100a450 <__fpcmp_parts_d+0x40>
 100a4a0:	30bfeb2e 	bgeu	r6,r2,100a450 <__fpcmp_parts_d+0x40>
 100a4a4:	403fe71e 	bne	r8,zero,100a444 <__fpcmp_parts_d+0x34>
 100a4a8:	003fef06 	br	100a468 <__fpcmp_parts_d+0x58>
 100a4ac:	11bffa2e 	bgeu	r2,r6,100a498 <__fpcmp_parts_d+0x88>
 100a4b0:	403fe426 	beq	r8,zero,100a444 <__fpcmp_parts_d+0x34>
 100a4b4:	003fec06 	br	100a468 <__fpcmp_parts_d+0x58>
 100a4b8:	28800117 	ldw	r2,4(r5)
 100a4bc:	103fe11e 	bne	r2,zero,100a444 <__fpcmp_parts_d+0x34>
 100a4c0:	003fe906 	br	100a468 <__fpcmp_parts_d+0x58>
 100a4c4:	11bfdd1e 	bne	r2,r6,100a43c <__fpcmp_parts_d+0x2c>
 100a4c8:	28c00117 	ldw	r3,4(r5)
 100a4cc:	20800117 	ldw	r2,4(r4)
 100a4d0:	1885c83a 	sub	r2,r3,r2
 100a4d4:	f800283a 	ret

0100a4d8 <close>:
 *
 * ALT_CLOSE is mapped onto the close() system call in alt_syscall.h
 */
 
int ALT_CLOSE (int fildes)
{
 100a4d8:	defff804 	addi	sp,sp,-32
 100a4dc:	dfc00715 	stw	ra,28(sp)
 100a4e0:	df000615 	stw	fp,24(sp)
 100a4e4:	df000604 	addi	fp,sp,24
 100a4e8:	e13ffc15 	stw	r4,-16(fp)
   * A common error case is that when the file descriptor was created, the call
   * to open() failed resulting in a negative file descriptor. This is trapped
   * below so that we don't try and process an invalid file descriptor.
   */

  fd = (fildes < 0) ? NULL : &alt_fd_list[fildes];
 100a4ec:	e0bffc17 	ldw	r2,-16(fp)
 100a4f0:	1004803a 	cmplt	r2,r2,zero
 100a4f4:	1000091e 	bne	r2,zero,100a51c <close+0x44>
 100a4f8:	e13ffc17 	ldw	r4,-16(fp)
 100a4fc:	01400304 	movi	r5,12
 100a500:	1009f0c0 	call	1009f0c <__mulsi3>
 100a504:	1007883a 	mov	r3,r2
 100a508:	00804074 	movhi	r2,257
 100a50c:	10bdad04 	addi	r2,r2,-2380
 100a510:	1887883a 	add	r3,r3,r2
 100a514:	e0ffff15 	stw	r3,-4(fp)
 100a518:	00000106 	br	100a520 <close+0x48>
 100a51c:	e03fff15 	stw	zero,-4(fp)
 100a520:	e0bfff17 	ldw	r2,-4(fp)
 100a524:	e0bffb15 	stw	r2,-20(fp)

  if (fd)
 100a528:	e0bffb17 	ldw	r2,-20(fp)
 100a52c:	1005003a 	cmpeq	r2,r2,zero
 100a530:	10001d1e 	bne	r2,zero,100a5a8 <close+0xd0>
    /*
     * If the associated file system/device has a close function, call it so 
     * that any necessary cleanup code can run.
     */

    rval = (fd->dev->close) ? fd->dev->close(fd) : 0;
 100a534:	e0bffb17 	ldw	r2,-20(fp)
 100a538:	10800017 	ldw	r2,0(r2)
 100a53c:	10800417 	ldw	r2,16(r2)
 100a540:	1005003a 	cmpeq	r2,r2,zero
 100a544:	1000071e 	bne	r2,zero,100a564 <close+0x8c>
 100a548:	e0bffb17 	ldw	r2,-20(fp)
 100a54c:	10800017 	ldw	r2,0(r2)
 100a550:	10800417 	ldw	r2,16(r2)
 100a554:	e13ffb17 	ldw	r4,-20(fp)
 100a558:	103ee83a 	callr	r2
 100a55c:	e0bffe15 	stw	r2,-8(fp)
 100a560:	00000106 	br	100a568 <close+0x90>
 100a564:	e03ffe15 	stw	zero,-8(fp)
 100a568:	e0bffe17 	ldw	r2,-8(fp)
 100a56c:	e0bffa15 	stw	r2,-24(fp)

    /* Free the file descriptor structure and return. */

    alt_release_fd (fildes);
 100a570:	e13ffc17 	ldw	r4,-16(fp)
 100a574:	100ad300 	call	100ad30 <alt_release_fd>
    if (rval < 0)
 100a578:	e0bffa17 	ldw	r2,-24(fp)
 100a57c:	1004403a 	cmpge	r2,r2,zero
 100a580:	1000071e 	bne	r2,zero,100a5a0 <close+0xc8>
    {
      ALT_ERRNO = -rval;
 100a584:	100a5d80 	call	100a5d8 <alt_get_errno>
 100a588:	e0fffa17 	ldw	r3,-24(fp)
 100a58c:	00c7c83a 	sub	r3,zero,r3
 100a590:	10c00015 	stw	r3,0(r2)
      return -1;
 100a594:	00bfffc4 	movi	r2,-1
 100a598:	e0bffd15 	stw	r2,-12(fp)
 100a59c:	00000806 	br	100a5c0 <close+0xe8>
    }
    return 0;
 100a5a0:	e03ffd15 	stw	zero,-12(fp)
 100a5a4:	00000606 	br	100a5c0 <close+0xe8>
  }
  else
  {
    ALT_ERRNO = EBADFD;
 100a5a8:	100a5d80 	call	100a5d8 <alt_get_errno>
 100a5ac:	1007883a 	mov	r3,r2
 100a5b0:	00801444 	movi	r2,81
 100a5b4:	18800015 	stw	r2,0(r3)
    return -1;
 100a5b8:	00bfffc4 	movi	r2,-1
 100a5bc:	e0bffd15 	stw	r2,-12(fp)
 100a5c0:	e0bffd17 	ldw	r2,-12(fp)
  }
}
 100a5c4:	e037883a 	mov	sp,fp
 100a5c8:	dfc00117 	ldw	ra,4(sp)
 100a5cc:	df000017 	ldw	fp,0(sp)
 100a5d0:	dec00204 	addi	sp,sp,8
 100a5d4:	f800283a 	ret

0100a5d8 <alt_get_errno>:
#undef errno

extern int errno;

static ALT_INLINE int* alt_get_errno(void)
{
 100a5d8:	defffd04 	addi	sp,sp,-12
 100a5dc:	dfc00215 	stw	ra,8(sp)
 100a5e0:	df000115 	stw	fp,4(sp)
 100a5e4:	df000104 	addi	fp,sp,4
  return ((alt_errno) ? alt_errno() : &errno);
 100a5e8:	00804074 	movhi	r2,257
 100a5ec:	10825704 	addi	r2,r2,2396
 100a5f0:	10800017 	ldw	r2,0(r2)
 100a5f4:	1005003a 	cmpeq	r2,r2,zero
 100a5f8:	1000061e 	bne	r2,zero,100a614 <alt_get_errno+0x3c>
 100a5fc:	00804074 	movhi	r2,257
 100a600:	10825704 	addi	r2,r2,2396
 100a604:	10800017 	ldw	r2,0(r2)
 100a608:	103ee83a 	callr	r2
 100a60c:	e0bfff15 	stw	r2,-4(fp)
 100a610:	00000306 	br	100a620 <alt_get_errno+0x48>
 100a614:	00804074 	movhi	r2,257
 100a618:	10892004 	addi	r2,r2,9344
 100a61c:	e0bfff15 	stw	r2,-4(fp)
 100a620:	e0bfff17 	ldw	r2,-4(fp)
}
 100a624:	e037883a 	mov	sp,fp
 100a628:	dfc00117 	ldw	ra,4(sp)
 100a62c:	df000017 	ldw	fp,0(sp)
 100a630:	dec00204 	addi	sp,sp,8
 100a634:	f800283a 	ret

0100a638 <alt_dev_null_write>:
 * by the alt_dev_null device. It simple discards all data passed to it, and
 * indicates that the data has been successfully transmitted.
 */

static int alt_dev_null_write (alt_fd* fd, const char* ptr, int len)
{
 100a638:	defffc04 	addi	sp,sp,-16
 100a63c:	df000315 	stw	fp,12(sp)
 100a640:	df000304 	addi	fp,sp,12
 100a644:	e13ffd15 	stw	r4,-12(fp)
 100a648:	e17ffe15 	stw	r5,-8(fp)
 100a64c:	e1bfff15 	stw	r6,-4(fp)
  return len;
 100a650:	e0bfff17 	ldw	r2,-4(fp)
}
 100a654:	e037883a 	mov	sp,fp
 100a658:	df000017 	ldw	fp,0(sp)
 100a65c:	dec00104 	addi	sp,sp,4
 100a660:	f800283a 	ret

0100a664 <fstat>:
}

#else /* !ALT_USE_DIRECT_DRIVERS */

int ALT_FSTAT (int file, struct stat *st)
{
 100a664:	defff904 	addi	sp,sp,-28
 100a668:	dfc00615 	stw	ra,24(sp)
 100a66c:	df000515 	stw	fp,20(sp)
 100a670:	df000504 	addi	fp,sp,20
 100a674:	e13ffc15 	stw	r4,-16(fp)
 100a678:	e17ffd15 	stw	r5,-12(fp)
   * A common error case is that when the file descriptor was created, the call
   * to open() failed resulting in a negative file descriptor. This is trapped
   * below so that we don't try and process an invalid file descriptor.
   */

  fd = (file < 0) ? NULL : &alt_fd_list[file];
 100a67c:	e0bffc17 	ldw	r2,-16(fp)
 100a680:	1004803a 	cmplt	r2,r2,zero
 100a684:	1000091e 	bne	r2,zero,100a6ac <fstat+0x48>
 100a688:	e13ffc17 	ldw	r4,-16(fp)
 100a68c:	01400304 	movi	r5,12
 100a690:	1009f0c0 	call	1009f0c <__mulsi3>
 100a694:	1007883a 	mov	r3,r2
 100a698:	00804074 	movhi	r2,257
 100a69c:	10bdad04 	addi	r2,r2,-2380
 100a6a0:	1887883a 	add	r3,r3,r2
 100a6a4:	e0ffff15 	stw	r3,-4(fp)
 100a6a8:	00000106 	br	100a6b0 <fstat+0x4c>
 100a6ac:	e03fff15 	stw	zero,-4(fp)
 100a6b0:	e0bfff17 	ldw	r2,-4(fp)
 100a6b4:	e0bffb15 	stw	r2,-20(fp)
  
  if (fd)
 100a6b8:	e0bffb17 	ldw	r2,-20(fp)
 100a6bc:	1005003a 	cmpeq	r2,r2,zero
 100a6c0:	1000121e 	bne	r2,zero,100a70c <fstat+0xa8>
  {
    /* Call the drivers fstat() function to fill out the "st" structure. */

    if (fd->dev->fstat)
 100a6c4:	e0bffb17 	ldw	r2,-20(fp)
 100a6c8:	10800017 	ldw	r2,0(r2)
 100a6cc:	10800817 	ldw	r2,32(r2)
 100a6d0:	1005003a 	cmpeq	r2,r2,zero
 100a6d4:	1000081e 	bne	r2,zero,100a6f8 <fstat+0x94>
    {
      return fd->dev->fstat(fd, st);
 100a6d8:	e0bffb17 	ldw	r2,-20(fp)
 100a6dc:	10800017 	ldw	r2,0(r2)
 100a6e0:	10800817 	ldw	r2,32(r2)
 100a6e4:	e13ffb17 	ldw	r4,-20(fp)
 100a6e8:	e17ffd17 	ldw	r5,-12(fp)
 100a6ec:	103ee83a 	callr	r2
 100a6f0:	e0bffe15 	stw	r2,-8(fp)
 100a6f4:	00000b06 	br	100a724 <fstat+0xc0>
     * device.
     */
 
    else
    {
      st->st_mode = _IFCHR;
 100a6f8:	e0fffd17 	ldw	r3,-12(fp)
 100a6fc:	00880004 	movi	r2,8192
 100a700:	18800115 	stw	r2,4(r3)
      return 0;
 100a704:	e03ffe15 	stw	zero,-8(fp)
 100a708:	00000606 	br	100a724 <fstat+0xc0>
    }
  }
  else
  {
    ALT_ERRNO = EBADFD;
 100a70c:	100a73c0 	call	100a73c <alt_get_errno>
 100a710:	1007883a 	mov	r3,r2
 100a714:	00801444 	movi	r2,81
 100a718:	18800015 	stw	r2,0(r3)
    return -1;
 100a71c:	00bfffc4 	movi	r2,-1
 100a720:	e0bffe15 	stw	r2,-8(fp)
 100a724:	e0bffe17 	ldw	r2,-8(fp)
  }
}
 100a728:	e037883a 	mov	sp,fp
 100a72c:	dfc00117 	ldw	ra,4(sp)
 100a730:	df000017 	ldw	fp,0(sp)
 100a734:	dec00204 	addi	sp,sp,8
 100a738:	f800283a 	ret

0100a73c <alt_get_errno>:
#undef errno

extern int errno;

static ALT_INLINE int* alt_get_errno(void)
{
 100a73c:	defffd04 	addi	sp,sp,-12
 100a740:	dfc00215 	stw	ra,8(sp)
 100a744:	df000115 	stw	fp,4(sp)
 100a748:	df000104 	addi	fp,sp,4
  return ((alt_errno) ? alt_errno() : &errno);
 100a74c:	00804074 	movhi	r2,257
 100a750:	10825704 	addi	r2,r2,2396
 100a754:	10800017 	ldw	r2,0(r2)
 100a758:	1005003a 	cmpeq	r2,r2,zero
 100a75c:	1000061e 	bne	r2,zero,100a778 <alt_get_errno+0x3c>
 100a760:	00804074 	movhi	r2,257
 100a764:	10825704 	addi	r2,r2,2396
 100a768:	10800017 	ldw	r2,0(r2)
 100a76c:	103ee83a 	callr	r2
 100a770:	e0bfff15 	stw	r2,-4(fp)
 100a774:	00000306 	br	100a784 <alt_get_errno+0x48>
 100a778:	00804074 	movhi	r2,257
 100a77c:	10892004 	addi	r2,r2,9344
 100a780:	e0bfff15 	stw	r2,-4(fp)
 100a784:	e0bfff17 	ldw	r2,-4(fp)
}
 100a788:	e037883a 	mov	sp,fp
 100a78c:	dfc00117 	ldw	ra,4(sp)
 100a790:	df000017 	ldw	fp,0(sp)
 100a794:	dec00204 	addi	sp,sp,8
 100a798:	f800283a 	ret

0100a79c <isatty>:
 *
 * ALT_ISATTY is mapped onto the isatty() system call in alt_syscall.h
 */
 
int ALT_ISATTY (int file)
{
 100a79c:	deffeb04 	addi	sp,sp,-84
 100a7a0:	dfc01415 	stw	ra,80(sp)
 100a7a4:	df001315 	stw	fp,76(sp)
 100a7a8:	df001304 	addi	fp,sp,76
 100a7ac:	e13ffd15 	stw	r4,-12(fp)
   * A common error case is that when the file descriptor was created, the call
   * to open() failed resulting in a negative file descriptor. This is trapped
   * below so that we don't try and process an invalid file descriptor.
   */

  fd = (file < 0) ? NULL : &alt_fd_list[file];
 100a7b0:	e0bffd17 	ldw	r2,-12(fp)
 100a7b4:	1004803a 	cmplt	r2,r2,zero
 100a7b8:	1000091e 	bne	r2,zero,100a7e0 <isatty+0x44>
 100a7bc:	e13ffd17 	ldw	r4,-12(fp)
 100a7c0:	01400304 	movi	r5,12
 100a7c4:	1009f0c0 	call	1009f0c <__mulsi3>
 100a7c8:	1007883a 	mov	r3,r2
 100a7cc:	00804074 	movhi	r2,257
 100a7d0:	10bdad04 	addi	r2,r2,-2380
 100a7d4:	1887883a 	add	r3,r3,r2
 100a7d8:	e0ffff15 	stw	r3,-4(fp)
 100a7dc:	00000106 	br	100a7e4 <isatty+0x48>
 100a7e0:	e03fff15 	stw	zero,-4(fp)
 100a7e4:	e0bfff17 	ldw	r2,-4(fp)
 100a7e8:	e0bfed15 	stw	r2,-76(fp)
  
  if (fd)
 100a7ec:	e0bfed17 	ldw	r2,-76(fp)
 100a7f0:	1005003a 	cmpeq	r2,r2,zero
 100a7f4:	10000f1e 	bne	r2,zero,100a834 <isatty+0x98>
    /*
     * If a device driver does not provide an fstat() function, then it is 
     * treated as a terminal device by default.
     */

    if (!fd->dev->fstat)
 100a7f8:	e0bfed17 	ldw	r2,-76(fp)
 100a7fc:	10800017 	ldw	r2,0(r2)
 100a800:	10800817 	ldw	r2,32(r2)
 100a804:	1004c03a 	cmpne	r2,r2,zero
 100a808:	1000031e 	bne	r2,zero,100a818 <isatty+0x7c>
    {
      return 1;
 100a80c:	00800044 	movi	r2,1
 100a810:	e0bffe15 	stw	r2,-8(fp)
 100a814:	00000c06 	br	100a848 <isatty+0xac>
     * this is called so that the device can identify itself.
     */ 

    else
    {
      fstat (file, &stat);
 100a818:	e17fee04 	addi	r5,fp,-72
 100a81c:	e13ffd17 	ldw	r4,-12(fp)
 100a820:	100a6640 	call	100a664 <fstat>
      return (stat.st_mode == _IFCHR) ? 1 : 0;
 100a824:	e0bfef17 	ldw	r2,-68(fp)
 100a828:	10880020 	cmpeqi	r2,r2,8192
 100a82c:	e0bffe15 	stw	r2,-8(fp)
 100a830:	00000506 	br	100a848 <isatty+0xac>
    }
  }
  else
  {
    ALT_ERRNO = EBADFD;
 100a834:	100a8600 	call	100a860 <alt_get_errno>
 100a838:	1007883a 	mov	r3,r2
 100a83c:	00801444 	movi	r2,81
 100a840:	18800015 	stw	r2,0(r3)
    return 0;
 100a844:	e03ffe15 	stw	zero,-8(fp)
 100a848:	e0bffe17 	ldw	r2,-8(fp)
  }
}
 100a84c:	e037883a 	mov	sp,fp
 100a850:	dfc00117 	ldw	ra,4(sp)
 100a854:	df000017 	ldw	fp,0(sp)
 100a858:	dec00204 	addi	sp,sp,8
 100a85c:	f800283a 	ret

0100a860 <alt_get_errno>:
#undef errno

extern int errno;

static ALT_INLINE int* alt_get_errno(void)
{
 100a860:	defffd04 	addi	sp,sp,-12
 100a864:	dfc00215 	stw	ra,8(sp)
 100a868:	df000115 	stw	fp,4(sp)
 100a86c:	df000104 	addi	fp,sp,4
  return ((alt_errno) ? alt_errno() : &errno);
 100a870:	00804074 	movhi	r2,257
 100a874:	10825704 	addi	r2,r2,2396
 100a878:	10800017 	ldw	r2,0(r2)
 100a87c:	1005003a 	cmpeq	r2,r2,zero
 100a880:	1000061e 	bne	r2,zero,100a89c <alt_get_errno+0x3c>
 100a884:	00804074 	movhi	r2,257
 100a888:	10825704 	addi	r2,r2,2396
 100a88c:	10800017 	ldw	r2,0(r2)
 100a890:	103ee83a 	callr	r2
 100a894:	e0bfff15 	stw	r2,-4(fp)
 100a898:	00000306 	br	100a8a8 <alt_get_errno+0x48>
 100a89c:	00804074 	movhi	r2,257
 100a8a0:	10892004 	addi	r2,r2,9344
 100a8a4:	e0bfff15 	stw	r2,-4(fp)
 100a8a8:	e0bfff17 	ldw	r2,-4(fp)
}
 100a8ac:	e037883a 	mov	sp,fp
 100a8b0:	dfc00117 	ldw	ra,4(sp)
 100a8b4:	df000017 	ldw	fp,0(sp)
 100a8b8:	dec00204 	addi	sp,sp,8
 100a8bc:	f800283a 	ret

0100a8c0 <alt_load>:
 * there is no bootloader, so this application is responsible for loading to
 * RAM any sections that are required.
 */  

void alt_load (void)
{
 100a8c0:	defffe04 	addi	sp,sp,-8
 100a8c4:	dfc00115 	stw	ra,4(sp)
 100a8c8:	df000015 	stw	fp,0(sp)
 100a8cc:	d839883a 	mov	fp,sp
  /* 
   * Copy the .rwdata section. 
   */

  alt_load_section (&__flash_rwdata_start, 
 100a8d0:	01004074 	movhi	r4,257
 100a8d4:	21025c04 	addi	r4,r4,2416
 100a8d8:	01404074 	movhi	r5,257
 100a8dc:	297b9e04 	addi	r5,r5,-4488
 100a8e0:	01804074 	movhi	r6,257
 100a8e4:	31825c04 	addi	r6,r6,2416
 100a8e8:	100a9400 	call	100a940 <alt_load_section>

  /*
   * Copy the exception handler.
   */

  alt_load_section (&__flash_exceptions_start, 
 100a8ec:	01004034 	movhi	r4,256
 100a8f0:	21000804 	addi	r4,r4,32
 100a8f4:	01404034 	movhi	r5,256
 100a8f8:	29400804 	addi	r5,r5,32
 100a8fc:	01804034 	movhi	r6,256
 100a900:	31806d04 	addi	r6,r6,436
 100a904:	100a9400 	call	100a940 <alt_load_section>

  /*
   * Copy the .rodata section.
   */

  alt_load_section (&__flash_rodata_start, 
 100a908:	01004074 	movhi	r4,257
 100a90c:	213a5604 	addi	r4,r4,-5800
 100a910:	01404074 	movhi	r5,257
 100a914:	297a5604 	addi	r5,r5,-5800
 100a918:	01804074 	movhi	r6,257
 100a91c:	31bb9e04 	addi	r6,r6,-4488
 100a920:	100a9400 	call	100a940 <alt_load_section>
  
  /*
   * Now ensure that the caches are in synch.
   */
  
  alt_dcache_flush_all();
 100a924:	100d7f00 	call	100d7f0 <alt_dcache_flush_all>
  alt_icache_flush_all();
 100a928:	100da7c0 	call	100da7c <alt_icache_flush_all>
}
 100a92c:	e037883a 	mov	sp,fp
 100a930:	dfc00117 	ldw	ra,4(sp)
 100a934:	df000017 	ldw	fp,0(sp)
 100a938:	dec00204 	addi	sp,sp,8
 100a93c:	f800283a 	ret

0100a940 <alt_load_section>:
 */

static void ALT_INLINE alt_load_section (alt_u32* from, 
                                         alt_u32* to, 
                                         alt_u32* end)
{
 100a940:	defffc04 	addi	sp,sp,-16
 100a944:	df000315 	stw	fp,12(sp)
 100a948:	df000304 	addi	fp,sp,12
 100a94c:	e13ffd15 	stw	r4,-12(fp)
 100a950:	e17ffe15 	stw	r5,-8(fp)
 100a954:	e1bfff15 	stw	r6,-4(fp)
  if (to != from)
 100a958:	e0fffe17 	ldw	r3,-8(fp)
 100a95c:	e0bffd17 	ldw	r2,-12(fp)
 100a960:	18800e26 	beq	r3,r2,100a99c <alt_load_section+0x5c>
  {
    while( to != end )
 100a964:	00000a06 	br	100a990 <alt_load_section+0x50>
    {
      *to++ = *from++;
 100a968:	e0bffd17 	ldw	r2,-12(fp)
 100a96c:	10c00017 	ldw	r3,0(r2)
 100a970:	e0bffe17 	ldw	r2,-8(fp)
 100a974:	10c00015 	stw	r3,0(r2)
 100a978:	e0bffe17 	ldw	r2,-8(fp)
 100a97c:	10800104 	addi	r2,r2,4
 100a980:	e0bffe15 	stw	r2,-8(fp)
 100a984:	e0bffd17 	ldw	r2,-12(fp)
 100a988:	10800104 	addi	r2,r2,4
 100a98c:	e0bffd15 	stw	r2,-12(fp)
                                         alt_u32* to, 
                                         alt_u32* end)
{
  if (to != from)
  {
    while( to != end )
 100a990:	e0fffe17 	ldw	r3,-8(fp)
 100a994:	e0bfff17 	ldw	r2,-4(fp)
 100a998:	18bff31e 	bne	r3,r2,100a968 <alt_load_section+0x28>
    {
      *to++ = *from++;
    }
  }
}
 100a99c:	e037883a 	mov	sp,fp
 100a9a0:	df000017 	ldw	fp,0(sp)
 100a9a4:	dec00104 	addi	sp,sp,4
 100a9a8:	f800283a 	ret

0100a9ac <lseek>:
 * ALT_LSEEK is mapped onto the lseek() system call in alt_syscall.h
 *
 */

off_t ALT_LSEEK (int file, off_t ptr, int dir)
{
 100a9ac:	defff804 	addi	sp,sp,-32
 100a9b0:	dfc00715 	stw	ra,28(sp)
 100a9b4:	df000615 	stw	fp,24(sp)
 100a9b8:	df000604 	addi	fp,sp,24
 100a9bc:	e13ffc15 	stw	r4,-16(fp)
 100a9c0:	e17ffd15 	stw	r5,-12(fp)
 100a9c4:	e1bffe15 	stw	r6,-8(fp)
  alt_fd* fd;
  off_t   rc = 0; 
 100a9c8:	e03ffa15 	stw	zero,-24(fp)
   * A common error case is that when the file descriptor was created, the call
   * to open() failed resulting in a negative file descriptor. This is trapped
   * below so that we don't try and process an invalid file descriptor.
   */

  fd = (file < 0) ? NULL : &alt_fd_list[file];
 100a9cc:	e0bffc17 	ldw	r2,-16(fp)
 100a9d0:	1004803a 	cmplt	r2,r2,zero
 100a9d4:	1000091e 	bne	r2,zero,100a9fc <lseek+0x50>
 100a9d8:	e13ffc17 	ldw	r4,-16(fp)
 100a9dc:	01400304 	movi	r5,12
 100a9e0:	1009f0c0 	call	1009f0c <__mulsi3>
 100a9e4:	1007883a 	mov	r3,r2
 100a9e8:	00804074 	movhi	r2,257
 100a9ec:	10bdad04 	addi	r2,r2,-2380
 100a9f0:	1887883a 	add	r3,r3,r2
 100a9f4:	e0ffff15 	stw	r3,-4(fp)
 100a9f8:	00000106 	br	100aa00 <lseek+0x54>
 100a9fc:	e03fff15 	stw	zero,-4(fp)
 100aa00:	e0bfff17 	ldw	r2,-4(fp)
 100aa04:	e0bffb15 	stw	r2,-20(fp)
  
  if (fd) 
 100aa08:	e0bffb17 	ldw	r2,-20(fp)
 100aa0c:	1005003a 	cmpeq	r2,r2,zero
 100aa10:	1000111e 	bne	r2,zero,100aa58 <lseek+0xac>
    /*
     * If the device driver provides an implementation of the lseek() function,
     * then call that to process the request.
     */
 
    if (fd->dev->lseek)
 100aa14:	e0bffb17 	ldw	r2,-20(fp)
 100aa18:	10800017 	ldw	r2,0(r2)
 100aa1c:	10800717 	ldw	r2,28(r2)
 100aa20:	1005003a 	cmpeq	r2,r2,zero
 100aa24:	1000091e 	bne	r2,zero,100aa4c <lseek+0xa0>
    {
      rc = fd->dev->lseek(fd, ptr, dir);
 100aa28:	e0bffb17 	ldw	r2,-20(fp)
 100aa2c:	10800017 	ldw	r2,0(r2)
 100aa30:	10800717 	ldw	r2,28(r2)
 100aa34:	e13ffb17 	ldw	r4,-20(fp)
 100aa38:	e17ffd17 	ldw	r5,-12(fp)
 100aa3c:	e1bffe17 	ldw	r6,-8(fp)
 100aa40:	103ee83a 	callr	r2
 100aa44:	e0bffa15 	stw	r2,-24(fp)
 100aa48:	00000506 	br	100aa60 <lseek+0xb4>
     * Otherwise return an error.
     */

    else
    {
      rc = -ENOTSUP;
 100aa4c:	00bfde84 	movi	r2,-134
 100aa50:	e0bffa15 	stw	r2,-24(fp)
 100aa54:	00000206 	br	100aa60 <lseek+0xb4>
    }
  }
  else  
  {
    rc = -EBADFD;
 100aa58:	00bfebc4 	movi	r2,-81
 100aa5c:	e0bffa15 	stw	r2,-24(fp)
  }

  if (rc < 0)
 100aa60:	e0bffa17 	ldw	r2,-24(fp)
 100aa64:	1004403a 	cmpge	r2,r2,zero
 100aa68:	1000071e 	bne	r2,zero,100aa88 <lseek+0xdc>
  {
    ALT_ERRNO = -rc;
 100aa6c:	100aaa00 	call	100aaa0 <alt_get_errno>
 100aa70:	1007883a 	mov	r3,r2
 100aa74:	e0bffa17 	ldw	r2,-24(fp)
 100aa78:	0085c83a 	sub	r2,zero,r2
 100aa7c:	18800015 	stw	r2,0(r3)
    rc = -1;
 100aa80:	00bfffc4 	movi	r2,-1
 100aa84:	e0bffa15 	stw	r2,-24(fp)
  }

  return rc;
 100aa88:	e0bffa17 	ldw	r2,-24(fp)
}
 100aa8c:	e037883a 	mov	sp,fp
 100aa90:	dfc00117 	ldw	ra,4(sp)
 100aa94:	df000017 	ldw	fp,0(sp)
 100aa98:	dec00204 	addi	sp,sp,8
 100aa9c:	f800283a 	ret

0100aaa0 <alt_get_errno>:
#undef errno

extern int errno;

static ALT_INLINE int* alt_get_errno(void)
{
 100aaa0:	defffd04 	addi	sp,sp,-12
 100aaa4:	dfc00215 	stw	ra,8(sp)
 100aaa8:	df000115 	stw	fp,4(sp)
 100aaac:	df000104 	addi	fp,sp,4
  return ((alt_errno) ? alt_errno() : &errno);
 100aab0:	00804074 	movhi	r2,257
 100aab4:	10825704 	addi	r2,r2,2396
 100aab8:	10800017 	ldw	r2,0(r2)
 100aabc:	1005003a 	cmpeq	r2,r2,zero
 100aac0:	1000061e 	bne	r2,zero,100aadc <alt_get_errno+0x3c>
 100aac4:	00804074 	movhi	r2,257
 100aac8:	10825704 	addi	r2,r2,2396
 100aacc:	10800017 	ldw	r2,0(r2)
 100aad0:	103ee83a 	callr	r2
 100aad4:	e0bfff15 	stw	r2,-4(fp)
 100aad8:	00000306 	br	100aae8 <alt_get_errno+0x48>
 100aadc:	00804074 	movhi	r2,257
 100aae0:	10892004 	addi	r2,r2,9344
 100aae4:	e0bfff15 	stw	r2,-4(fp)
 100aae8:	e0bfff17 	ldw	r2,-4(fp)
}
 100aaec:	e037883a 	mov	sp,fp
 100aaf0:	dfc00117 	ldw	ra,4(sp)
 100aaf4:	df000017 	ldw	fp,0(sp)
 100aaf8:	dec00204 	addi	sp,sp,8
 100aafc:	f800283a 	ret

0100ab00 <alt_main>:
 * devices/filesystems/components in the system; and call the entry point for
 * the users application, i.e. main().
 */

void alt_main (void)
{
 100ab00:	defffd04 	addi	sp,sp,-12
 100ab04:	dfc00215 	stw	ra,8(sp)
 100ab08:	df000115 	stw	fp,4(sp)
 100ab0c:	df000104 	addi	fp,sp,4
#endif

  /* ALT LOG - please see HAL/sys/alt_log_printf.h for details */
  ALT_LOG_PRINT_BOOT("[alt_main.c] Entering alt_main, calling alt_irq_init.\r\n");
  /* Initialize the interrupt controller. */
  alt_irq_init (NULL);
 100ab10:	0009883a 	mov	r4,zero
 100ab14:	100afe80 	call	100afe8 <alt_irq_init>
  ALT_LOG_PRINT_BOOT("[alt_main.c] Done OS Init, calling alt_sem_create.\r\n");
  ALT_SEM_CREATE (&alt_fd_list_lock, 1);

  /* Initialize the device drivers/software components. */
  ALT_LOG_PRINT_BOOT("[alt_main.c] Calling alt_sys_init.\r\n");
  alt_sys_init();
 100ab18:	100b01c0 	call	100b01c <alt_sys_init>
   * devices be present (not equal to /dev/null) and if direct drivers
   * aren't being used.
   */

    ALT_LOG_PRINT_BOOT("[alt_main.c] Redirecting IO.\r\n");
    alt_io_redirect(ALT_STDOUT, ALT_STDIN, ALT_STDERR);
 100ab1c:	01004074 	movhi	r4,257
 100ab20:	213b7904 	addi	r4,r4,-4636
 100ab24:	01404074 	movhi	r5,257
 100ab28:	297b7904 	addi	r5,r5,-4636
 100ab2c:	01804074 	movhi	r6,257
 100ab30:	31bb7904 	addi	r6,r6,-4636
 100ab34:	100de3c0 	call	100de3c <alt_io_redirect>
  /* 
   * Call the C++ constructors 
   */

  ALT_LOG_PRINT_BOOT("[alt_main.c] Calling C++ constructors.\r\n");
  _do_ctors ();
 100ab38:	100d9200 	call	100d920 <_do_ctors>
   * redefined as _exit()). This is in the interest of reducing code footprint,
   * in that the atexit() overhead is removed when it's not needed.
   */

  ALT_LOG_PRINT_BOOT("[alt_main.c] Calling atexit.\r\n");
  atexit (_do_dtors);
 100ab3c:	01004074 	movhi	r4,257
 100ab40:	21366104 	addi	r4,r4,-9852
 100ab44:	100e54c0 	call	100e54c <atexit>
  ALT_LOG_PRINT_BOOT("[alt_main.c] Calling main.\r\n");

#ifdef ALT_NO_EXIT
  main (alt_argc, alt_argv, alt_envp);
#else
  result = main (alt_argc, alt_argv, alt_envp);
 100ab48:	d126d517 	ldw	r4,-25772(gp)
 100ab4c:	d166d617 	ldw	r5,-25768(gp)
 100ab50:	d1a6d717 	ldw	r6,-25764(gp)
 100ab54:	10004300 	call	1000430 <main>
 100ab58:	e0bfff15 	stw	r2,-4(fp)
  close(STDOUT_FILENO);
 100ab5c:	01000044 	movi	r4,1
 100ab60:	100a4d80 	call	100a4d8 <close>
  exit (result);
 100ab64:	e13fff17 	ldw	r4,-4(fp)
 100ab68:	100e5600 	call	100e560 <exit>

0100ab6c <__malloc_lock>:
 * configuration is single threaded, so there is nothing to do here. Note that 
 * this requires that malloc is never called by an interrupt service routine.
 */

void __malloc_lock ( struct _reent *_r )
{
 100ab6c:	defffe04 	addi	sp,sp,-8
 100ab70:	df000115 	stw	fp,4(sp)
 100ab74:	df000104 	addi	fp,sp,4
 100ab78:	e13fff15 	stw	r4,-4(fp)
}
 100ab7c:	e037883a 	mov	sp,fp
 100ab80:	df000017 	ldw	fp,0(sp)
 100ab84:	dec00104 	addi	sp,sp,4
 100ab88:	f800283a 	ret

0100ab8c <__malloc_unlock>:
/*
 *
 */

void __malloc_unlock ( struct _reent *_r )
{
 100ab8c:	defffe04 	addi	sp,sp,-8
 100ab90:	df000115 	stw	fp,4(sp)
 100ab94:	df000104 	addi	fp,sp,4
 100ab98:	e13fff15 	stw	r4,-4(fp)
}
 100ab9c:	e037883a 	mov	sp,fp
 100aba0:	df000017 	ldw	fp,0(sp)
 100aba4:	dec00104 	addi	sp,sp,4
 100aba8:	f800283a 	ret

0100abac <read>:
}

#else /* !ALT_USE_DIRECT_DRIVERS */

int ALT_READ (int file, void *ptr, size_t len)
{
 100abac:	defff704 	addi	sp,sp,-36
 100abb0:	dfc00815 	stw	ra,32(sp)
 100abb4:	df000715 	stw	fp,28(sp)
 100abb8:	df000704 	addi	fp,sp,28
 100abbc:	e13ffb15 	stw	r4,-20(fp)
 100abc0:	e17ffc15 	stw	r5,-16(fp)
 100abc4:	e1bffd15 	stw	r6,-12(fp)
   * A common error case is that when the file descriptor was created, the call
   * to open() failed resulting in a negative file descriptor. This is trapped
   * below so that we don't try and process an invalid file descriptor.
   */

  fd = (file < 0) ? NULL : &alt_fd_list[file];
 100abc8:	e0bffb17 	ldw	r2,-20(fp)
 100abcc:	1004803a 	cmplt	r2,r2,zero
 100abd0:	1000091e 	bne	r2,zero,100abf8 <read+0x4c>
 100abd4:	e13ffb17 	ldw	r4,-20(fp)
 100abd8:	01400304 	movi	r5,12
 100abdc:	1009f0c0 	call	1009f0c <__mulsi3>
 100abe0:	1007883a 	mov	r3,r2
 100abe4:	00804074 	movhi	r2,257
 100abe8:	10bdad04 	addi	r2,r2,-2380
 100abec:	1887883a 	add	r3,r3,r2
 100abf0:	e0ffff15 	stw	r3,-4(fp)
 100abf4:	00000106 	br	100abfc <read+0x50>
 100abf8:	e03fff15 	stw	zero,-4(fp)
 100abfc:	e0bfff17 	ldw	r2,-4(fp)
 100ac00:	e0bffa15 	stw	r2,-24(fp)
  
  if (fd)
 100ac04:	e0bffa17 	ldw	r2,-24(fp)
 100ac08:	1005003a 	cmpeq	r2,r2,zero
 100ac0c:	1000241e 	bne	r2,zero,100aca0 <read+0xf4>
     * If the file has not been opened with read access, or if the driver does
     * not provide an implementation of read(), generate an error. Otherwise
     * call the drivers read() function to process the request.
     */

    if (((fd->fd_flags & O_ACCMODE) != O_WRONLY) && 
 100ac10:	e0bffa17 	ldw	r2,-24(fp)
 100ac14:	10800217 	ldw	r2,8(r2)
 100ac18:	108000cc 	andi	r2,r2,3
 100ac1c:	10800060 	cmpeqi	r2,r2,1
 100ac20:	10001a1e 	bne	r2,zero,100ac8c <read+0xe0>
 100ac24:	e0bffa17 	ldw	r2,-24(fp)
 100ac28:	10800017 	ldw	r2,0(r2)
 100ac2c:	10800517 	ldw	r2,20(r2)
 100ac30:	1005003a 	cmpeq	r2,r2,zero
 100ac34:	1000151e 	bne	r2,zero,100ac8c <read+0xe0>
        (fd->dev->read))
      {
        if ((rval = fd->dev->read(fd, ptr, len)) < 0)
 100ac38:	e0bffa17 	ldw	r2,-24(fp)
 100ac3c:	10800017 	ldw	r2,0(r2)
 100ac40:	10800517 	ldw	r2,20(r2)
 100ac44:	e17ffc17 	ldw	r5,-16(fp)
 100ac48:	e1bffd17 	ldw	r6,-12(fp)
 100ac4c:	e13ffa17 	ldw	r4,-24(fp)
 100ac50:	103ee83a 	callr	r2
 100ac54:	e0bff915 	stw	r2,-28(fp)
 100ac58:	e0bff917 	ldw	r2,-28(fp)
 100ac5c:	1004403a 	cmpge	r2,r2,zero
 100ac60:	1000071e 	bne	r2,zero,100ac80 <read+0xd4>
        {
          ALT_ERRNO = -rval;
 100ac64:	100acd00 	call	100acd0 <alt_get_errno>
 100ac68:	e0fff917 	ldw	r3,-28(fp)
 100ac6c:	00c7c83a 	sub	r3,zero,r3
 100ac70:	10c00015 	stw	r3,0(r2)
          return -1;
 100ac74:	00bfffc4 	movi	r2,-1
 100ac78:	e0bffe15 	stw	r2,-8(fp)
 100ac7c:	00000e06 	br	100acb8 <read+0x10c>
        }
        return rval;
 100ac80:	e0bff917 	ldw	r2,-28(fp)
 100ac84:	e0bffe15 	stw	r2,-8(fp)
 100ac88:	00000b06 	br	100acb8 <read+0x10c>
      }
      else
      {
        ALT_ERRNO = EACCES;
 100ac8c:	100acd00 	call	100acd0 <alt_get_errno>
 100ac90:	1007883a 	mov	r3,r2
 100ac94:	00800344 	movi	r2,13
 100ac98:	18800015 	stw	r2,0(r3)
 100ac9c:	00000406 	br	100acb0 <read+0x104>
      }
    }
  else
  {
    ALT_ERRNO = EBADFD;
 100aca0:	100acd00 	call	100acd0 <alt_get_errno>
 100aca4:	1007883a 	mov	r3,r2
 100aca8:	00801444 	movi	r2,81
 100acac:	18800015 	stw	r2,0(r3)
  }
  return -1;
 100acb0:	00bfffc4 	movi	r2,-1
 100acb4:	e0bffe15 	stw	r2,-8(fp)
 100acb8:	e0bffe17 	ldw	r2,-8(fp)
}
 100acbc:	e037883a 	mov	sp,fp
 100acc0:	dfc00117 	ldw	ra,4(sp)
 100acc4:	df000017 	ldw	fp,0(sp)
 100acc8:	dec00204 	addi	sp,sp,8
 100accc:	f800283a 	ret

0100acd0 <alt_get_errno>:
#undef errno

extern int errno;

static ALT_INLINE int* alt_get_errno(void)
{
 100acd0:	defffd04 	addi	sp,sp,-12
 100acd4:	dfc00215 	stw	ra,8(sp)
 100acd8:	df000115 	stw	fp,4(sp)
 100acdc:	df000104 	addi	fp,sp,4
  return ((alt_errno) ? alt_errno() : &errno);
 100ace0:	00804074 	movhi	r2,257
 100ace4:	10825704 	addi	r2,r2,2396
 100ace8:	10800017 	ldw	r2,0(r2)
 100acec:	1005003a 	cmpeq	r2,r2,zero
 100acf0:	1000061e 	bne	r2,zero,100ad0c <alt_get_errno+0x3c>
 100acf4:	00804074 	movhi	r2,257
 100acf8:	10825704 	addi	r2,r2,2396
 100acfc:	10800017 	ldw	r2,0(r2)
 100ad00:	103ee83a 	callr	r2
 100ad04:	e0bfff15 	stw	r2,-4(fp)
 100ad08:	00000306 	br	100ad18 <alt_get_errno+0x48>
 100ad0c:	00804074 	movhi	r2,257
 100ad10:	10892004 	addi	r2,r2,9344
 100ad14:	e0bfff15 	stw	r2,-4(fp)
 100ad18:	e0bfff17 	ldw	r2,-4(fp)
}
 100ad1c:	e037883a 	mov	sp,fp
 100ad20:	dfc00117 	ldw	ra,4(sp)
 100ad24:	df000017 	ldw	fp,0(sp)
 100ad28:	dec00204 	addi	sp,sp,8
 100ad2c:	f800283a 	ret

0100ad30 <alt_release_fd>:
 * File descriptors correcponding to standard in, standard out and standard 
 * error cannont be released backed to the pool. They are always reserved.
 */

void alt_release_fd (int fd)
{
 100ad30:	defffc04 	addi	sp,sp,-16
 100ad34:	dfc00315 	stw	ra,12(sp)
 100ad38:	df000215 	stw	fp,8(sp)
 100ad3c:	dc000115 	stw	r16,4(sp)
 100ad40:	df000104 	addi	fp,sp,4
 100ad44:	e13fff15 	stw	r4,-4(fp)
  if (fd > 2)
 100ad48:	e0bfff17 	ldw	r2,-4(fp)
 100ad4c:	108000d0 	cmplti	r2,r2,3
 100ad50:	10000f1e 	bne	r2,zero,100ad90 <alt_release_fd+0x60>
  {
    alt_fd_list[fd].fd_flags = 0;
 100ad54:	e13fff17 	ldw	r4,-4(fp)
 100ad58:	04004074 	movhi	r16,257
 100ad5c:	843dad04 	addi	r16,r16,-2380
 100ad60:	01400304 	movi	r5,12
 100ad64:	1009f0c0 	call	1009f0c <__mulsi3>
 100ad68:	1405883a 	add	r2,r2,r16
 100ad6c:	10800204 	addi	r2,r2,8
 100ad70:	10000015 	stw	zero,0(r2)
    alt_fd_list[fd].dev      = 0;
 100ad74:	e13fff17 	ldw	r4,-4(fp)
 100ad78:	04004074 	movhi	r16,257
 100ad7c:	843dad04 	addi	r16,r16,-2380
 100ad80:	01400304 	movi	r5,12
 100ad84:	1009f0c0 	call	1009f0c <__mulsi3>
 100ad88:	1405883a 	add	r2,r2,r16
 100ad8c:	10000015 	stw	zero,0(r2)
  }
}
 100ad90:	e037883a 	mov	sp,fp
 100ad94:	dfc00217 	ldw	ra,8(sp)
 100ad98:	df000117 	ldw	fp,4(sp)
 100ad9c:	dc000017 	ldw	r16,0(sp)
 100ada0:	dec00304 	addi	sp,sp,12
 100ada4:	f800283a 	ret

0100ada8 <sbrk>:
#endif
 
caddr_t ALT_SBRK (int incr) __attribute__ ((no_instrument_function ));

caddr_t ALT_SBRK (int incr)
{ 
 100ada8:	defff804 	addi	sp,sp,-32
 100adac:	df000715 	stw	fp,28(sp)
 100adb0:	df000704 	addi	fp,sp,28
 100adb4:	e13ffe15 	stw	r4,-8(fp)
static ALT_INLINE alt_irq_context ALT_ALWAYS_INLINE 
       alt_irq_disable_all (void)
{
  alt_irq_context context;

  NIOS2_READ_STATUS (context);
 100adb8:	0005303a 	rdctl	r2,status
 100adbc:	e0bffb15 	stw	r2,-20(fp)

  NIOS2_WRITE_STATUS (context & ~NIOS2_STATUS_PIE_MSK);
 100adc0:	e0fffb17 	ldw	r3,-20(fp)
 100adc4:	00bfff84 	movi	r2,-2
 100adc8:	1884703a 	and	r2,r3,r2
 100adcc:	1001703a 	wrctl	status,r2
  
  return context;
 100add0:	e0bffb17 	ldw	r2,-20(fp)
  alt_irq_context context;
  char *prev_heap_end; 

  context = alt_irq_disable_all();
 100add4:	e0bffd15 	stw	r2,-12(fp)

  /* Always return data aligned on a word boundary */
  heap_end = (char *)(((unsigned int)heap_end + 3) & ~3);
 100add8:	d0a00c17 	ldw	r2,-32720(gp)
 100addc:	10c000c4 	addi	r3,r2,3
 100ade0:	00bfff04 	movi	r2,-4
 100ade4:	1884703a 	and	r2,r3,r2
 100ade8:	d0a00c15 	stw	r2,-32720(gp)
  if (((heap_end + incr) - __alt_heap_start) > ALT_MAX_HEAP_BYTES) {
    alt_irq_enable_all(context);
    return (caddr_t)-1;
  }
#else
  if ((heap_end + incr) > __alt_heap_limit) {
 100adec:	d0e00c17 	ldw	r3,-32720(gp)
 100adf0:	e0bffe17 	ldw	r2,-8(fp)
 100adf4:	1887883a 	add	r3,r3,r2
 100adf8:	00806034 	movhi	r2,384
 100adfc:	10800004 	addi	r2,r2,0
 100ae00:	10c0072e 	bgeu	r2,r3,100ae20 <sbrk+0x78>
 100ae04:	e0bffd17 	ldw	r2,-12(fp)
 100ae08:	e0bffa15 	stw	r2,-24(fp)
  status &= ~NIOS2_STATUS_PIE_MSK;
  status |= (context & NIOS2_STATUS_PIE_MSK);
  
  NIOS2_WRITE_STATUS (status);
#else
  NIOS2_WRITE_STATUS (context);
 100ae0c:	e0bffa17 	ldw	r2,-24(fp)
 100ae10:	1001703a 	wrctl	status,r2
    alt_irq_enable_all(context);
    return (caddr_t)-1;
 100ae14:	00bfffc4 	movi	r2,-1
 100ae18:	e0bfff15 	stw	r2,-4(fp)
 100ae1c:	00000c06 	br	100ae50 <sbrk+0xa8>
  }
#endif

  prev_heap_end = heap_end; 
 100ae20:	d0a00c17 	ldw	r2,-32720(gp)
 100ae24:	e0bffc15 	stw	r2,-16(fp)
  heap_end += incr; 
 100ae28:	d0e00c17 	ldw	r3,-32720(gp)
 100ae2c:	e0bffe17 	ldw	r2,-8(fp)
 100ae30:	1885883a 	add	r2,r3,r2
 100ae34:	d0a00c15 	stw	r2,-32720(gp)
 100ae38:	e0bffd17 	ldw	r2,-12(fp)
 100ae3c:	e0bff915 	stw	r2,-28(fp)
 100ae40:	e0bff917 	ldw	r2,-28(fp)
 100ae44:	1001703a 	wrctl	status,r2

#endif

  alt_irq_enable_all(context);

  return (caddr_t) prev_heap_end; 
 100ae48:	e0bffc17 	ldw	r2,-16(fp)
 100ae4c:	e0bfff15 	stw	r2,-4(fp)
 100ae50:	e0bfff17 	ldw	r2,-4(fp)
} 
 100ae54:	e037883a 	mov	sp,fp
 100ae58:	df000017 	ldw	fp,0(sp)
 100ae5c:	dec00104 	addi	sp,sp,4
 100ae60:	f800283a 	ret

0100ae64 <write>:
}

#else /* !ALT_USE_DIRECT_DRIVERS */

int ALT_WRITE (int file, const void *ptr, size_t len)
{
 100ae64:	defff704 	addi	sp,sp,-36
 100ae68:	dfc00815 	stw	ra,32(sp)
 100ae6c:	df000715 	stw	fp,28(sp)
 100ae70:	df000704 	addi	fp,sp,28
 100ae74:	e13ffb15 	stw	r4,-20(fp)
 100ae78:	e17ffc15 	stw	r5,-16(fp)
 100ae7c:	e1bffd15 	stw	r6,-12(fp)
   * A common error case is that when the file descriptor was created, the call
   * to open() failed resulting in a negative file descriptor. This is trapped
   * below so that we don't try and process an invalid file descriptor.
   */

  fd = (file < 0) ? NULL : &alt_fd_list[file];
 100ae80:	e0bffb17 	ldw	r2,-20(fp)
 100ae84:	1004803a 	cmplt	r2,r2,zero
 100ae88:	1000091e 	bne	r2,zero,100aeb0 <write+0x4c>
 100ae8c:	e13ffb17 	ldw	r4,-20(fp)
 100ae90:	01400304 	movi	r5,12
 100ae94:	1009f0c0 	call	1009f0c <__mulsi3>
 100ae98:	1007883a 	mov	r3,r2
 100ae9c:	00804074 	movhi	r2,257
 100aea0:	10bdad04 	addi	r2,r2,-2380
 100aea4:	1887883a 	add	r3,r3,r2
 100aea8:	e0ffff15 	stw	r3,-4(fp)
 100aeac:	00000106 	br	100aeb4 <write+0x50>
 100aeb0:	e03fff15 	stw	zero,-4(fp)
 100aeb4:	e0bfff17 	ldw	r2,-4(fp)
 100aeb8:	e0bffa15 	stw	r2,-24(fp)
  
  if (fd)
 100aebc:	e0bffa17 	ldw	r2,-24(fp)
 100aec0:	1005003a 	cmpeq	r2,r2,zero
 100aec4:	1000241e 	bne	r2,zero,100af58 <write+0xf4>
     * If the file has not been opened with write access, or if the driver does
     * not provide an implementation of write(), generate an error. Otherwise
     * call the drivers write() function to process the request.
     */

    if (((fd->fd_flags & O_ACCMODE) != O_RDONLY) && fd->dev->write)
 100aec8:	e0bffa17 	ldw	r2,-24(fp)
 100aecc:	10800217 	ldw	r2,8(r2)
 100aed0:	108000cc 	andi	r2,r2,3
 100aed4:	1005003a 	cmpeq	r2,r2,zero
 100aed8:	10001a1e 	bne	r2,zero,100af44 <write+0xe0>
 100aedc:	e0bffa17 	ldw	r2,-24(fp)
 100aee0:	10800017 	ldw	r2,0(r2)
 100aee4:	10800617 	ldw	r2,24(r2)
 100aee8:	1005003a 	cmpeq	r2,r2,zero
 100aeec:	1000151e 	bne	r2,zero,100af44 <write+0xe0>
    {
      
      /* ALT_LOG - see altera_hal/HAL/inc/sys/alt_log_printf.h */
      ALT_LOG_WRITE_FUNCTION(ptr,len);

      if ((rval = fd->dev->write(fd, ptr, len)) < 0)
 100aef0:	e0bffa17 	ldw	r2,-24(fp)
 100aef4:	10800017 	ldw	r2,0(r2)
 100aef8:	10800617 	ldw	r2,24(r2)
 100aefc:	e17ffc17 	ldw	r5,-16(fp)
 100af00:	e1bffd17 	ldw	r6,-12(fp)
 100af04:	e13ffa17 	ldw	r4,-24(fp)
 100af08:	103ee83a 	callr	r2
 100af0c:	e0bff915 	stw	r2,-28(fp)
 100af10:	e0bff917 	ldw	r2,-28(fp)
 100af14:	1004403a 	cmpge	r2,r2,zero
 100af18:	1000071e 	bne	r2,zero,100af38 <write+0xd4>
      {
        ALT_ERRNO = -rval;
 100af1c:	100af880 	call	100af88 <alt_get_errno>
 100af20:	e0fff917 	ldw	r3,-28(fp)
 100af24:	00c7c83a 	sub	r3,zero,r3
 100af28:	10c00015 	stw	r3,0(r2)
        return -1;
 100af2c:	00bfffc4 	movi	r2,-1
 100af30:	e0bffe15 	stw	r2,-8(fp)
 100af34:	00000e06 	br	100af70 <write+0x10c>
      }
      return rval;
 100af38:	e0bff917 	ldw	r2,-28(fp)
 100af3c:	e0bffe15 	stw	r2,-8(fp)
 100af40:	00000b06 	br	100af70 <write+0x10c>
    }
    else
    {
      ALT_ERRNO = EACCES;
 100af44:	100af880 	call	100af88 <alt_get_errno>
 100af48:	1007883a 	mov	r3,r2
 100af4c:	00800344 	movi	r2,13
 100af50:	18800015 	stw	r2,0(r3)
 100af54:	00000406 	br	100af68 <write+0x104>
    }
  }
  else  
  {
    ALT_ERRNO = EBADFD;
 100af58:	100af880 	call	100af88 <alt_get_errno>
 100af5c:	1007883a 	mov	r3,r2
 100af60:	00801444 	movi	r2,81
 100af64:	18800015 	stw	r2,0(r3)
  }
  return -1;
 100af68:	00bfffc4 	movi	r2,-1
 100af6c:	e0bffe15 	stw	r2,-8(fp)
 100af70:	e0bffe17 	ldw	r2,-8(fp)
}
 100af74:	e037883a 	mov	sp,fp
 100af78:	dfc00117 	ldw	ra,4(sp)
 100af7c:	df000017 	ldw	fp,0(sp)
 100af80:	dec00204 	addi	sp,sp,8
 100af84:	f800283a 	ret

0100af88 <alt_get_errno>:
#undef errno

extern int errno;

static ALT_INLINE int* alt_get_errno(void)
{
 100af88:	defffd04 	addi	sp,sp,-12
 100af8c:	dfc00215 	stw	ra,8(sp)
 100af90:	df000115 	stw	fp,4(sp)
 100af94:	df000104 	addi	fp,sp,4
  return ((alt_errno) ? alt_errno() : &errno);
 100af98:	00804074 	movhi	r2,257
 100af9c:	10825704 	addi	r2,r2,2396
 100afa0:	10800017 	ldw	r2,0(r2)
 100afa4:	1005003a 	cmpeq	r2,r2,zero
 100afa8:	1000061e 	bne	r2,zero,100afc4 <alt_get_errno+0x3c>
 100afac:	00804074 	movhi	r2,257
 100afb0:	10825704 	addi	r2,r2,2396
 100afb4:	10800017 	ldw	r2,0(r2)
 100afb8:	103ee83a 	callr	r2
 100afbc:	e0bfff15 	stw	r2,-4(fp)
 100afc0:	00000306 	br	100afd0 <alt_get_errno+0x48>
 100afc4:	00804074 	movhi	r2,257
 100afc8:	10892004 	addi	r2,r2,9344
 100afcc:	e0bfff15 	stw	r2,-4(fp)
 100afd0:	e0bfff17 	ldw	r2,-4(fp)
}
 100afd4:	e037883a 	mov	sp,fp
 100afd8:	dfc00117 	ldw	ra,4(sp)
 100afdc:	df000017 	ldw	fp,0(sp)
 100afe0:	dec00204 	addi	sp,sp,8
 100afe4:	f800283a 	ret

0100afe8 <alt_irq_init>:
 * The "base" parameter is ignored and only
 * present for backwards-compatibility.
 */

void alt_irq_init ( const void* base )
{
 100afe8:	defffd04 	addi	sp,sp,-12
 100afec:	dfc00215 	stw	ra,8(sp)
 100aff0:	df000115 	stw	fp,4(sp)
 100aff4:	df000104 	addi	fp,sp,4
 100aff8:	e13fff15 	stw	r4,-4(fp)
    ALTERA_NIOS2_QSYS_IRQ_INIT ( NIOS2_QSYS_0, nios2_qsys_0);
 100affc:	100e33c0 	call	100e33c <altera_nios2_qsys_irq_init>
 * alt_irq_cpu_enable_interrupts() enables the CPU to start taking interrupts.
 */
static ALT_INLINE void ALT_ALWAYS_INLINE 
       alt_irq_cpu_enable_interrupts ()
{
    NIOS2_WRITE_STATUS(NIOS2_STATUS_PIE_MSK
 100b000:	00800044 	movi	r2,1
 100b004:	1001703a 	wrctl	status,r2
    alt_irq_cpu_enable_interrupts();
}
 100b008:	e037883a 	mov	sp,fp
 100b00c:	dfc00117 	ldw	ra,4(sp)
 100b010:	df000017 	ldw	fp,0(sp)
 100b014:	dec00204 	addi	sp,sp,8
 100b018:	f800283a 	ret

0100b01c <alt_sys_init>:
 * Initialize the non-interrupt controller devices.
 * Called after alt_irq_init().
 */

void alt_sys_init( void )
{
 100b01c:	defffd04 	addi	sp,sp,-12
 100b020:	dfc00215 	stw	ra,8(sp)
 100b024:	df000115 	stw	fp,4(sp)
 100b028:	df000104 	addi	fp,sp,4
    ALTERA_AVALON_JTAG_UART_INIT ( JTAG_UART_0, jtag_uart_0);
 100b02c:	01004074 	movhi	r4,257
 100b030:	213e1704 	addi	r4,r4,-1956
 100b034:	000b883a 	mov	r5,zero
 100b038:	01800144 	movi	r6,5
 100b03c:	100b4940 	call	100b494 <altera_avalon_jtag_uart_init>
 100b040:	01004074 	movhi	r4,257
 100b044:	213e0d04 	addi	r4,r4,-1996
 100b048:	100b3140 	call	100b314 <alt_dev_reg>
    ALTERA_UP_AVALON_VIDEO_CHARACTER_BUFFER_WITH_DMA_INIT ( VIDEO_CHARACTER_BUFFER_WITH_DMA_0, video_character_buffer_with_dma_0);
 100b04c:	00804074 	movhi	r2,257
 100b050:	10822504 	addi	r2,r2,2196
 100b054:	10800a17 	ldw	r2,40(r2)
 100b058:	10800104 	addi	r2,r2,4
 100b05c:	10800017 	ldw	r2,0(r2)
 100b060:	10ffffcc 	andi	r3,r2,65535
 100b064:	00804074 	movhi	r2,257
 100b068:	10822504 	addi	r2,r2,2196
 100b06c:	10c00c15 	stw	r3,48(r2)
 100b070:	00804074 	movhi	r2,257
 100b074:	10822504 	addi	r2,r2,2196
 100b078:	10800a17 	ldw	r2,40(r2)
 100b07c:	10800104 	addi	r2,r2,4
 100b080:	10800017 	ldw	r2,0(r2)
 100b084:	1005d43a 	srai	r2,r2,16
 100b088:	10ffffcc 	andi	r3,r2,65535
 100b08c:	00804074 	movhi	r2,257
 100b090:	10822504 	addi	r2,r2,2196
 100b094:	10c00d15 	stw	r3,52(r2)
 100b098:	00804074 	movhi	r2,257
 100b09c:	10822504 	addi	r2,r2,2196
 100b0a0:	10800c17 	ldw	r2,48(r2)
 100b0a4:	10801068 	cmpgeui	r2,r2,65
 100b0a8:	1000081e 	bne	r2,zero,100b0cc <alt_sys_init+0xb0>
 100b0ac:	00c04074 	movhi	r3,257
 100b0b0:	18c22504 	addi	r3,r3,2196
 100b0b4:	00800fc4 	movi	r2,63
 100b0b8:	18800f15 	stw	r2,60(r3)
 100b0bc:	00c04074 	movhi	r3,257
 100b0c0:	18c22504 	addi	r3,r3,2196
 100b0c4:	00800184 	movi	r2,6
 100b0c8:	18801015 	stw	r2,64(r3)
 100b0cc:	00804074 	movhi	r2,257
 100b0d0:	10822504 	addi	r2,r2,2196
 100b0d4:	10800d17 	ldw	r2,52(r2)
 100b0d8:	10800868 	cmpgeui	r2,r2,33
 100b0dc:	1000041e 	bne	r2,zero,100b0f0 <alt_sys_init+0xd4>
 100b0e0:	00c04074 	movhi	r3,257
 100b0e4:	18c22504 	addi	r3,r3,2196
 100b0e8:	008007c4 	movi	r2,31
 100b0ec:	18801115 	stw	r2,68(r3)
 100b0f0:	01004074 	movhi	r4,257
 100b0f4:	21022504 	addi	r4,r4,2196
 100b0f8:	100bdf80 	call	100bdf8 <alt_up_char_buffer_init>
 100b0fc:	01004074 	movhi	r4,257
 100b100:	21022504 	addi	r4,r4,2196
 100b104:	100b3140 	call	100b314 <alt_dev_reg>
    ALTERA_UP_AVALON_VIDEO_PIXEL_BUFFER_DMA_INIT ( BUFFER_DMA, buffer_dma);
 100b108:	00804074 	movhi	r2,257
 100b10c:	10823704 	addi	r2,r2,2268
 100b110:	10800a17 	ldw	r2,40(r2)
 100b114:	10800017 	ldw	r2,0(r2)
 100b118:	1007883a 	mov	r3,r2
 100b11c:	00804074 	movhi	r2,257
 100b120:	10823704 	addi	r2,r2,2268
 100b124:	10c00b15 	stw	r3,44(r2)
 100b128:	00804074 	movhi	r2,257
 100b12c:	10823704 	addi	r2,r2,2268
 100b130:	10800a17 	ldw	r2,40(r2)
 100b134:	10800104 	addi	r2,r2,4
 100b138:	10800017 	ldw	r2,0(r2)
 100b13c:	1007883a 	mov	r3,r2
 100b140:	00804074 	movhi	r2,257
 100b144:	10823704 	addi	r2,r2,2268
 100b148:	10c00c15 	stw	r3,48(r2)
 100b14c:	00804074 	movhi	r2,257
 100b150:	10823704 	addi	r2,r2,2268
 100b154:	10800a17 	ldw	r2,40(r2)
 100b158:	10800204 	addi	r2,r2,8
 100b15c:	10800017 	ldw	r2,0(r2)
 100b160:	10ffffcc 	andi	r3,r2,65535
 100b164:	00804074 	movhi	r2,257
 100b168:	10823704 	addi	r2,r2,2268
 100b16c:	10c00f15 	stw	r3,60(r2)
 100b170:	00804074 	movhi	r2,257
 100b174:	10823704 	addi	r2,r2,2268
 100b178:	10800a17 	ldw	r2,40(r2)
 100b17c:	10800204 	addi	r2,r2,8
 100b180:	10800017 	ldw	r2,0(r2)
 100b184:	1005d43a 	srai	r2,r2,16
 100b188:	10ffffcc 	andi	r3,r2,65535
 100b18c:	00804074 	movhi	r2,257
 100b190:	10823704 	addi	r2,r2,2268
 100b194:	10c01015 	stw	r3,64(r2)
 100b198:	00804074 	movhi	r2,257
 100b19c:	10823704 	addi	r2,r2,2268
 100b1a0:	10800a17 	ldw	r2,40(r2)
 100b1a4:	10800304 	addi	r2,r2,12
 100b1a8:	10800017 	ldw	r2,0(r2)
 100b1ac:	1005d07a 	srai	r2,r2,1
 100b1b0:	10c0004c 	andi	r3,r2,1
 100b1b4:	00804074 	movhi	r2,257
 100b1b8:	10823704 	addi	r2,r2,2268
 100b1bc:	10c00d15 	stw	r3,52(r2)
 100b1c0:	00804074 	movhi	r2,257
 100b1c4:	10823704 	addi	r2,r2,2268
 100b1c8:	10800a17 	ldw	r2,40(r2)
 100b1cc:	10800304 	addi	r2,r2,12
 100b1d0:	10800017 	ldw	r2,0(r2)
 100b1d4:	1005d13a 	srai	r2,r2,4
 100b1d8:	10c003cc 	andi	r3,r2,15
 100b1dc:	00804074 	movhi	r2,257
 100b1e0:	10823704 	addi	r2,r2,2268
 100b1e4:	10c00e15 	stw	r3,56(r2)
 100b1e8:	00804074 	movhi	r2,257
 100b1ec:	10823704 	addi	r2,r2,2268
 100b1f0:	10800a17 	ldw	r2,40(r2)
 100b1f4:	10800304 	addi	r2,r2,12
 100b1f8:	10800017 	ldw	r2,0(r2)
 100b1fc:	1005d43a 	srai	r2,r2,16
 100b200:	1007883a 	mov	r3,r2
 100b204:	00bfffc4 	movi	r2,-1
 100b208:	1884703a 	and	r2,r3,r2
 100b20c:	e0bfff45 	stb	r2,-3(fp)
 100b210:	00804074 	movhi	r2,257
 100b214:	10823704 	addi	r2,r2,2268
 100b218:	10800a17 	ldw	r2,40(r2)
 100b21c:	10800304 	addi	r2,r2,12
 100b220:	10800017 	ldw	r2,0(r2)
 100b224:	1005d63a 	srai	r2,r2,24
 100b228:	1007883a 	mov	r3,r2
 100b22c:	00bfffc4 	movi	r2,-1
 100b230:	1884703a 	and	r2,r3,r2
 100b234:	e0bfff05 	stb	r2,-4(fp)
 100b238:	00804074 	movhi	r2,257
 100b23c:	10823704 	addi	r2,r2,2268
 100b240:	10800e17 	ldw	r2,56(r2)
 100b244:	10800058 	cmpnei	r2,r2,1
 100b248:	1000041e 	bne	r2,zero,100b25c <alt_sys_init+0x240>
 100b24c:	00804074 	movhi	r2,257
 100b250:	10823704 	addi	r2,r2,2268
 100b254:	10001115 	stw	zero,68(r2)
 100b258:	00000e06 	br	100b294 <alt_sys_init+0x278>
 100b25c:	00804074 	movhi	r2,257
 100b260:	10823704 	addi	r2,r2,2268
 100b264:	10800e17 	ldw	r2,56(r2)
 100b268:	10800098 	cmpnei	r2,r2,2
 100b26c:	1000051e 	bne	r2,zero,100b284 <alt_sys_init+0x268>
 100b270:	00c04074 	movhi	r3,257
 100b274:	18c23704 	addi	r3,r3,2268
 100b278:	00800044 	movi	r2,1
 100b27c:	18801115 	stw	r2,68(r3)
 100b280:	00000406 	br	100b294 <alt_sys_init+0x278>
 100b284:	00c04074 	movhi	r3,257
 100b288:	18c23704 	addi	r3,r3,2268
 100b28c:	00800084 	movi	r2,2
 100b290:	18801115 	stw	r2,68(r3)
 100b294:	e0ffff43 	ldbu	r3,-3(fp)
 100b298:	00800804 	movi	r2,32
 100b29c:	10c7c83a 	sub	r3,r2,r3
 100b2a0:	00bfffc4 	movi	r2,-1
 100b2a4:	10c6d83a 	srl	r3,r2,r3
 100b2a8:	00804074 	movhi	r2,257
 100b2ac:	10823704 	addi	r2,r2,2268
 100b2b0:	10c01215 	stw	r3,72(r2)
 100b2b4:	e0ffff43 	ldbu	r3,-3(fp)
 100b2b8:	00804074 	movhi	r2,257
 100b2bc:	10823704 	addi	r2,r2,2268
 100b2c0:	10801117 	ldw	r2,68(r2)
 100b2c4:	1887883a 	add	r3,r3,r2
 100b2c8:	00804074 	movhi	r2,257
 100b2cc:	10823704 	addi	r2,r2,2268
 100b2d0:	10c01315 	stw	r3,76(r2)
 100b2d4:	e0ffff03 	ldbu	r3,-4(fp)
 100b2d8:	00800804 	movi	r2,32
 100b2dc:	10c7c83a 	sub	r3,r2,r3
 100b2e0:	00bfffc4 	movi	r2,-1
 100b2e4:	10c6d83a 	srl	r3,r2,r3
 100b2e8:	00804074 	movhi	r2,257
 100b2ec:	10823704 	addi	r2,r2,2268
 100b2f0:	10c01415 	stw	r3,80(r2)
 100b2f4:	01004074 	movhi	r4,257
 100b2f8:	21023704 	addi	r4,r4,2268
 100b2fc:	100b3140 	call	100b314 <alt_dev_reg>
}
 100b300:	e037883a 	mov	sp,fp
 100b304:	dfc00117 	ldw	ra,4(sp)
 100b308:	df000017 	ldw	fp,0(sp)
 100b30c:	dec00204 	addi	sp,sp,8
 100b310:	f800283a 	ret

0100b314 <alt_dev_reg>:
 */

extern int alt_fs_reg  (alt_dev* dev); 

static ALT_INLINE int alt_dev_reg (alt_dev* dev)
{
 100b314:	defffd04 	addi	sp,sp,-12
 100b318:	dfc00215 	stw	ra,8(sp)
 100b31c:	df000115 	stw	fp,4(sp)
 100b320:	df000104 	addi	fp,sp,4
 100b324:	e13fff15 	stw	r4,-4(fp)
  extern alt_llist alt_dev_list;

  return alt_dev_llist_insert ((alt_dev_llist*) dev, &alt_dev_list);
 100b328:	e13fff17 	ldw	r4,-4(fp)
 100b32c:	01404074 	movhi	r5,257
 100b330:	29425404 	addi	r5,r5,2384
 100b334:	100d80c0 	call	100d80c <alt_dev_llist_insert>
}
 100b338:	e037883a 	mov	sp,fp
 100b33c:	dfc00117 	ldw	ra,4(sp)
 100b340:	df000017 	ldw	fp,0(sp)
 100b344:	dec00204 	addi	sp,sp,8
 100b348:	f800283a 	ret

0100b34c <altera_avalon_jtag_uart_read_fd>:
 *
 */

int 
altera_avalon_jtag_uart_read_fd(alt_fd* fd, char* buffer, int space)
{
 100b34c:	defffa04 	addi	sp,sp,-24
 100b350:	dfc00515 	stw	ra,20(sp)
 100b354:	df000415 	stw	fp,16(sp)
 100b358:	df000404 	addi	fp,sp,16
 100b35c:	e13ffd15 	stw	r4,-12(fp)
 100b360:	e17ffe15 	stw	r5,-8(fp)
 100b364:	e1bfff15 	stw	r6,-4(fp)
    altera_avalon_jtag_uart_dev* dev = (altera_avalon_jtag_uart_dev*) fd->dev; 
 100b368:	e0bffd17 	ldw	r2,-12(fp)
 100b36c:	10800017 	ldw	r2,0(r2)
 100b370:	e0bffc15 	stw	r2,-16(fp)

    return altera_avalon_jtag_uart_read(&dev->state, buffer, space,
 100b374:	e0bffc17 	ldw	r2,-16(fp)
 100b378:	11000a04 	addi	r4,r2,40
 100b37c:	e0bffd17 	ldw	r2,-12(fp)
 100b380:	11c00217 	ldw	r7,8(r2)
 100b384:	e17ffe17 	ldw	r5,-8(fp)
 100b388:	e1bfff17 	ldw	r6,-4(fp)
 100b38c:	100b9940 	call	100b994 <altera_avalon_jtag_uart_read>
      fd->fd_flags);
}
 100b390:	e037883a 	mov	sp,fp
 100b394:	dfc00117 	ldw	ra,4(sp)
 100b398:	df000017 	ldw	fp,0(sp)
 100b39c:	dec00204 	addi	sp,sp,8
 100b3a0:	f800283a 	ret

0100b3a4 <altera_avalon_jtag_uart_write_fd>:

int 
altera_avalon_jtag_uart_write_fd(alt_fd* fd, const char* buffer, int space)
{
 100b3a4:	defffa04 	addi	sp,sp,-24
 100b3a8:	dfc00515 	stw	ra,20(sp)
 100b3ac:	df000415 	stw	fp,16(sp)
 100b3b0:	df000404 	addi	fp,sp,16
 100b3b4:	e13ffd15 	stw	r4,-12(fp)
 100b3b8:	e17ffe15 	stw	r5,-8(fp)
 100b3bc:	e1bfff15 	stw	r6,-4(fp)
    altera_avalon_jtag_uart_dev* dev = (altera_avalon_jtag_uart_dev*) fd->dev; 
 100b3c0:	e0bffd17 	ldw	r2,-12(fp)
 100b3c4:	10800017 	ldw	r2,0(r2)
 100b3c8:	e0bffc15 	stw	r2,-16(fp)

    return altera_avalon_jtag_uart_write(&dev->state, buffer, space,
 100b3cc:	e0bffc17 	ldw	r2,-16(fp)
 100b3d0:	11000a04 	addi	r4,r2,40
 100b3d4:	e0bffd17 	ldw	r2,-12(fp)
 100b3d8:	11c00217 	ldw	r7,8(r2)
 100b3dc:	e17ffe17 	ldw	r5,-8(fp)
 100b3e0:	e1bfff17 	ldw	r6,-4(fp)
 100b3e4:	100bbb80 	call	100bbb8 <altera_avalon_jtag_uart_write>
      fd->fd_flags);
}
 100b3e8:	e037883a 	mov	sp,fp
 100b3ec:	dfc00117 	ldw	ra,4(sp)
 100b3f0:	df000017 	ldw	fp,0(sp)
 100b3f4:	dec00204 	addi	sp,sp,8
 100b3f8:	f800283a 	ret

0100b3fc <altera_avalon_jtag_uart_close_fd>:

#ifndef ALTERA_AVALON_JTAG_UART_SMALL

int 
altera_avalon_jtag_uart_close_fd(alt_fd* fd)
{
 100b3fc:	defffc04 	addi	sp,sp,-16
 100b400:	dfc00315 	stw	ra,12(sp)
 100b404:	df000215 	stw	fp,8(sp)
 100b408:	df000204 	addi	fp,sp,8
 100b40c:	e13fff15 	stw	r4,-4(fp)
    altera_avalon_jtag_uart_dev* dev = (altera_avalon_jtag_uart_dev*) fd->dev; 
 100b410:	e0bfff17 	ldw	r2,-4(fp)
 100b414:	10800017 	ldw	r2,0(r2)
 100b418:	e0bffe15 	stw	r2,-8(fp)

    return altera_avalon_jtag_uart_close(&dev->state, fd->fd_flags);
 100b41c:	e0bffe17 	ldw	r2,-8(fp)
 100b420:	11000a04 	addi	r4,r2,40
 100b424:	e0bfff17 	ldw	r2,-4(fp)
 100b428:	11400217 	ldw	r5,8(r2)
 100b42c:	100b82c0 	call	100b82c <altera_avalon_jtag_uart_close>
}
 100b430:	e037883a 	mov	sp,fp
 100b434:	dfc00117 	ldw	ra,4(sp)
 100b438:	df000017 	ldw	fp,0(sp)
 100b43c:	dec00204 	addi	sp,sp,8
 100b440:	f800283a 	ret

0100b444 <altera_avalon_jtag_uart_ioctl_fd>:

int 
altera_avalon_jtag_uart_ioctl_fd(alt_fd* fd, int req, void* arg)
{
 100b444:	defffa04 	addi	sp,sp,-24
 100b448:	dfc00515 	stw	ra,20(sp)
 100b44c:	df000415 	stw	fp,16(sp)
 100b450:	df000404 	addi	fp,sp,16
 100b454:	e13ffd15 	stw	r4,-12(fp)
 100b458:	e17ffe15 	stw	r5,-8(fp)
 100b45c:	e1bfff15 	stw	r6,-4(fp)
    altera_avalon_jtag_uart_dev* dev = (altera_avalon_jtag_uart_dev*) fd->dev;
 100b460:	e0bffd17 	ldw	r2,-12(fp)
 100b464:	10800017 	ldw	r2,0(r2)
 100b468:	e0bffc15 	stw	r2,-16(fp)

    return altera_avalon_jtag_uart_ioctl(&dev->state, req, arg);
 100b46c:	e0bffc17 	ldw	r2,-16(fp)
 100b470:	11000a04 	addi	r4,r2,40
 100b474:	e17ffe17 	ldw	r5,-8(fp)
 100b478:	e1bfff17 	ldw	r6,-4(fp)
 100b47c:	100b8a00 	call	100b8a0 <altera_avalon_jtag_uart_ioctl>
}
 100b480:	e037883a 	mov	sp,fp
 100b484:	dfc00117 	ldw	ra,4(sp)
 100b488:	df000017 	ldw	fp,0(sp)
 100b48c:	dec00204 	addi	sp,sp,8
 100b490:	f800283a 	ret

0100b494 <altera_avalon_jtag_uart_init>:
 * Return 1 on sucessful IRQ register and 0 on failure.
 */

void altera_avalon_jtag_uart_init(altera_avalon_jtag_uart_state* sp, 
                                  int irq_controller_id, int irq)
{
 100b494:	defffa04 	addi	sp,sp,-24
 100b498:	dfc00515 	stw	ra,20(sp)
 100b49c:	df000415 	stw	fp,16(sp)
 100b4a0:	df000404 	addi	fp,sp,16
 100b4a4:	e13ffd15 	stw	r4,-12(fp)
 100b4a8:	e17ffe15 	stw	r5,-8(fp)
 100b4ac:	e1bfff15 	stw	r6,-4(fp)
  ALT_FLAG_CREATE(&sp->events, 0);
  ALT_SEM_CREATE(&sp->read_lock, 1);
  ALT_SEM_CREATE(&sp->write_lock, 1);

  /* enable read interrupts at the device */
  sp->irq_enable = ALTERA_AVALON_JTAG_UART_CONTROL_RE_MSK;
 100b4b0:	e0fffd17 	ldw	r3,-12(fp)
 100b4b4:	00800044 	movi	r2,1
 100b4b8:	18800815 	stw	r2,32(r3)

  IOWR_ALTERA_AVALON_JTAG_UART_CONTROL(sp->base, sp->irq_enable); 
 100b4bc:	e0bffd17 	ldw	r2,-12(fp)
 100b4c0:	10800017 	ldw	r2,0(r2)
 100b4c4:	11000104 	addi	r4,r2,4
 100b4c8:	e0bffd17 	ldw	r2,-12(fp)
 100b4cc:	10800817 	ldw	r2,32(r2)
 100b4d0:	1007883a 	mov	r3,r2
 100b4d4:	2005883a 	mov	r2,r4
 100b4d8:	10c00035 	stwio	r3,0(r2)
  
  /* register the interrupt handler */
#ifdef ALT_ENHANCED_INTERRUPT_API_PRESENT
  alt_ic_isr_register(irq_controller_id, irq, altera_avalon_jtag_uart_irq, 
 100b4dc:	e13ffe17 	ldw	r4,-8(fp)
 100b4e0:	e17fff17 	ldw	r5,-4(fp)
 100b4e4:	d8000015 	stw	zero,0(sp)
 100b4e8:	01804074 	movhi	r6,257
 100b4ec:	31ad5504 	addi	r6,r6,-19116
 100b4f0:	e1fffd17 	ldw	r7,-12(fp)
 100b4f4:	100da980 	call	100da98 <alt_ic_isr_register>
#else
  alt_irq_register(irq, sp, altera_avalon_jtag_uart_irq);
#endif  

  /* Register an alarm to go off every second to check for presence of host */
  sp->host_inactive = 0;
 100b4f8:	e0bffd17 	ldw	r2,-12(fp)
 100b4fc:	10000915 	stw	zero,36(r2)

  if (alt_alarm_start(&sp->alarm, alt_ticks_per_second(), 
 100b500:	e0bffd17 	ldw	r2,-12(fp)
 100b504:	11000204 	addi	r4,r2,8
 * Obtain the system clock rate in ticks/s. 
 */

static ALT_INLINE alt_u32 ALT_ALWAYS_INLINE alt_ticks_per_second (void)
{
  return _alt_tick_rate;
 100b508:	00804074 	movhi	r2,257
 100b50c:	10892504 	addi	r2,r2,9364
 100b510:	10800017 	ldw	r2,0(r2)
 100b514:	100b883a 	mov	r5,r2
 100b518:	01804074 	movhi	r6,257
 100b51c:	31addf04 	addi	r6,r6,-18564
 100b520:	e1fffd17 	ldw	r7,-12(fp)
 100b524:	100d69c0 	call	100d69c <alt_alarm_start>
 100b528:	1004403a 	cmpge	r2,r2,zero
 100b52c:	1000041e 	bne	r2,zero,100b540 <altera_avalon_jtag_uart_init+0xac>
    &altera_avalon_jtag_uart_timeout, sp) < 0)
  {
    /* If we can't set the alarm then record "don't know if host present" 
     * and behave as though the host is present.
     */
    sp->timeout = INT_MAX;
 100b530:	e0fffd17 	ldw	r3,-12(fp)
 100b534:	00a00034 	movhi	r2,32768
 100b538:	10bfffc4 	addi	r2,r2,-1
 100b53c:	18800115 	stw	r2,4(r3)
  }

  /* ALT_LOG - see altera_hal/HAL/inc/sys/alt_log_printf.h */ 
  ALT_LOG_JTAG_UART_ALARM_REGISTER(sp, sp->base);
}
 100b540:	e037883a 	mov	sp,fp
 100b544:	dfc00117 	ldw	ra,4(sp)
 100b548:	df000017 	ldw	fp,0(sp)
 100b54c:	dec00204 	addi	sp,sp,8
 100b550:	f800283a 	ret

0100b554 <altera_avalon_jtag_uart_irq>:
#ifdef ALT_ENHANCED_INTERRUPT_API_PRESENT
static void altera_avalon_jtag_uart_irq(void* context)
#else
static void altera_avalon_jtag_uart_irq(void* context, alt_u32 id)
#endif
{
 100b554:	defff804 	addi	sp,sp,-32
 100b558:	df000715 	stw	fp,28(sp)
 100b55c:	df000704 	addi	fp,sp,28
 100b560:	e13fff15 	stw	r4,-4(fp)
  altera_avalon_jtag_uart_state* sp = (altera_avalon_jtag_uart_state*) context;
 100b564:	e0bfff17 	ldw	r2,-4(fp)
 100b568:	e0bffe15 	stw	r2,-8(fp)
  unsigned int base = sp->base;
 100b56c:	e0bffe17 	ldw	r2,-8(fp)
 100b570:	10800017 	ldw	r2,0(r2)
 100b574:	e0bffd15 	stw	r2,-12(fp)
 100b578:	00000006 	br	100b57c <altera_avalon_jtag_uart_irq+0x28>
  /* ALT_LOG - see altera_hal/HAL/inc/sys/alt_log_printf.h */ 
  ALT_LOG_JTAG_UART_ISR_FUNCTION(base, sp);

  for ( ; ; )
  {
    unsigned int control = IORD_ALTERA_AVALON_JTAG_UART_CONTROL(base);
 100b57c:	e0bffd17 	ldw	r2,-12(fp)
 100b580:	10800104 	addi	r2,r2,4
 100b584:	10800037 	ldwio	r2,0(r2)
 100b588:	e0bffc15 	stw	r2,-16(fp)

    /* Return once nothing more to do */
    if ((control & (ALTERA_AVALON_JTAG_UART_CONTROL_RI_MSK | ALTERA_AVALON_JTAG_UART_CONTROL_WI_MSK)) == 0)
 100b58c:	e0bffc17 	ldw	r2,-16(fp)
 100b590:	1080c00c 	andi	r2,r2,768
 100b594:	1005003a 	cmpeq	r2,r2,zero
 100b598:	1000741e 	bne	r2,zero,100b76c <altera_avalon_jtag_uart_irq+0x218>
      break;

    if (control & ALTERA_AVALON_JTAG_UART_CONTROL_RI_MSK)
 100b59c:	e0bffc17 	ldw	r2,-16(fp)
 100b5a0:	1080400c 	andi	r2,r2,256
 100b5a4:	1005003a 	cmpeq	r2,r2,zero
 100b5a8:	1000351e 	bne	r2,zero,100b680 <altera_avalon_jtag_uart_irq+0x12c>
    {
      /* process a read irq.  Start by assuming that there is data in the
       * receive FIFO (otherwise why would we have been interrupted?)
       */
      unsigned int data = 1 << ALTERA_AVALON_JTAG_UART_DATA_RAVAIL_OFST;
 100b5ac:	00800074 	movhi	r2,1
 100b5b0:	e0bffb15 	stw	r2,-20(fp)
      for ( ; ; )
      {
        /* Check whether there is space in the buffer.  If not then we must not
         * read any characters from the buffer as they will be lost.
         */
        unsigned int next = (sp->rx_in + 1) % ALTERA_AVALON_JTAG_UART_BUF_LEN;
 100b5b4:	e0bffe17 	ldw	r2,-8(fp)
 100b5b8:	10800a17 	ldw	r2,40(r2)
 100b5bc:	10800044 	addi	r2,r2,1
 100b5c0:	1081ffcc 	andi	r2,r2,2047
 100b5c4:	e0bffa15 	stw	r2,-24(fp)
        if (next == sp->rx_out)
 100b5c8:	e0bffe17 	ldw	r2,-8(fp)
 100b5cc:	10c00b17 	ldw	r3,44(r2)
 100b5d0:	e0bffa17 	ldw	r2,-24(fp)
 100b5d4:	18801626 	beq	r3,r2,100b630 <altera_avalon_jtag_uart_irq+0xdc>
          break;

        /* Try to remove a character from the FIFO and find out whether there
         * are any more characters remaining.
         */
        data = IORD_ALTERA_AVALON_JTAG_UART_DATA(base);
 100b5d8:	e0bffd17 	ldw	r2,-12(fp)
 100b5dc:	10800037 	ldwio	r2,0(r2)
 100b5e0:	e0bffb15 	stw	r2,-20(fp)
        
        if ((data & ALTERA_AVALON_JTAG_UART_DATA_RVALID_MSK) == 0)
 100b5e4:	e0bffb17 	ldw	r2,-20(fp)
 100b5e8:	10a0000c 	andi	r2,r2,32768
 100b5ec:	1005003a 	cmpeq	r2,r2,zero
 100b5f0:	10000f1e 	bne	r2,zero,100b630 <altera_avalon_jtag_uart_irq+0xdc>
          break;

        sp->rx_buf[sp->rx_in] = (data & ALTERA_AVALON_JTAG_UART_DATA_DATA_MSK) >> ALTERA_AVALON_JTAG_UART_DATA_DATA_OFST;
 100b5f4:	e0bffe17 	ldw	r2,-8(fp)
 100b5f8:	10c00a17 	ldw	r3,40(r2)
 100b5fc:	e0bffb17 	ldw	r2,-20(fp)
 100b600:	1009883a 	mov	r4,r2
 100b604:	e0bffe17 	ldw	r2,-8(fp)
 100b608:	1885883a 	add	r2,r3,r2
 100b60c:	10800e04 	addi	r2,r2,56
 100b610:	11000005 	stb	r4,0(r2)
        sp->rx_in = (sp->rx_in + 1) % ALTERA_AVALON_JTAG_UART_BUF_LEN;
 100b614:	e0bffe17 	ldw	r2,-8(fp)
 100b618:	10800a17 	ldw	r2,40(r2)
 100b61c:	10800044 	addi	r2,r2,1
 100b620:	10c1ffcc 	andi	r3,r2,2047
 100b624:	e0bffe17 	ldw	r2,-8(fp)
 100b628:	10c00a15 	stw	r3,40(r2)

        /* Post an event to notify jtag_uart_read that a character has been read */
        ALT_FLAG_POST (sp->events, ALT_JTAG_UART_READ_RDY, OS_FLAG_SET);
      }
 100b62c:	003fe106 	br	100b5b4 <altera_avalon_jtag_uart_irq+0x60>

      if (data & ALTERA_AVALON_JTAG_UART_DATA_RAVAIL_MSK)
 100b630:	e0bffb17 	ldw	r2,-20(fp)
 100b634:	10bfffec 	andhi	r2,r2,65535
 100b638:	1005003a 	cmpeq	r2,r2,zero
 100b63c:	1000101e 	bne	r2,zero,100b680 <altera_avalon_jtag_uart_irq+0x12c>
      {
        /* If there is still data available here then the buffer is full 
         * so turn off receive interrupts until some space becomes available.
         */
        sp->irq_enable &= ~ALTERA_AVALON_JTAG_UART_CONTROL_RE_MSK;
 100b640:	e0bffe17 	ldw	r2,-8(fp)
 100b644:	10c00817 	ldw	r3,32(r2)
 100b648:	00bfff84 	movi	r2,-2
 100b64c:	1886703a 	and	r3,r3,r2
 100b650:	e0bffe17 	ldw	r2,-8(fp)
 100b654:	10c00815 	stw	r3,32(r2)
        IOWR_ALTERA_AVALON_JTAG_UART_CONTROL(base, sp->irq_enable);
 100b658:	e0bffd17 	ldw	r2,-12(fp)
 100b65c:	11000104 	addi	r4,r2,4
 100b660:	e0bffe17 	ldw	r2,-8(fp)
 100b664:	10800817 	ldw	r2,32(r2)
 100b668:	1007883a 	mov	r3,r2
 100b66c:	2005883a 	mov	r2,r4
 100b670:	10c00035 	stwio	r3,0(r2)
        
        /* Dummy read to ensure IRQ is cleared prior to ISR completion */
        IORD_ALTERA_AVALON_JTAG_UART_CONTROL(base);
 100b674:	e0bffd17 	ldw	r2,-12(fp)
 100b678:	10800104 	addi	r2,r2,4
 100b67c:	10800037 	ldwio	r2,0(r2)
      }
    }

    if (control & ALTERA_AVALON_JTAG_UART_CONTROL_WI_MSK)
 100b680:	e0bffc17 	ldw	r2,-16(fp)
 100b684:	1080800c 	andi	r2,r2,512
 100b688:	1005003a 	cmpeq	r2,r2,zero
 100b68c:	103fbb1e 	bne	r2,zero,100b57c <altera_avalon_jtag_uart_irq+0x28>
    {
      /* process a write irq */
      unsigned int space = (control & ALTERA_AVALON_JTAG_UART_CONTROL_WSPACE_MSK) >> ALTERA_AVALON_JTAG_UART_CONTROL_WSPACE_OFST;
 100b690:	e0bffc17 	ldw	r2,-16(fp)
 100b694:	10bfffec 	andhi	r2,r2,65535
 100b698:	1004d43a 	srli	r2,r2,16
 100b69c:	e0bff915 	stw	r2,-28(fp)

      while (space > 0 && sp->tx_out != sp->tx_in)
 100b6a0:	00001506 	br	100b6f8 <altera_avalon_jtag_uart_irq+0x1a4>
      {
        IOWR_ALTERA_AVALON_JTAG_UART_DATA(base, sp->tx_buf[sp->tx_out]);
 100b6a4:	e13ffd17 	ldw	r4,-12(fp)
 100b6a8:	e0bffe17 	ldw	r2,-8(fp)
 100b6ac:	10c00d17 	ldw	r3,52(r2)
 100b6b0:	e0bffe17 	ldw	r2,-8(fp)
 100b6b4:	1885883a 	add	r2,r3,r2
 100b6b8:	10820e04 	addi	r2,r2,2104
 100b6bc:	10800003 	ldbu	r2,0(r2)
 100b6c0:	10c03fcc 	andi	r3,r2,255
 100b6c4:	18c0201c 	xori	r3,r3,128
 100b6c8:	18ffe004 	addi	r3,r3,-128
 100b6cc:	2005883a 	mov	r2,r4
 100b6d0:	10c00035 	stwio	r3,0(r2)

        sp->tx_out = (sp->tx_out + 1) % ALTERA_AVALON_JTAG_UART_BUF_LEN;
 100b6d4:	e0bffe17 	ldw	r2,-8(fp)
 100b6d8:	10800d17 	ldw	r2,52(r2)
 100b6dc:	10800044 	addi	r2,r2,1
 100b6e0:	10c1ffcc 	andi	r3,r2,2047
 100b6e4:	e0bffe17 	ldw	r2,-8(fp)
 100b6e8:	10c00d15 	stw	r3,52(r2)

        /* Post an event to notify jtag_uart_write that a character has been written */
        ALT_FLAG_POST (sp->events, ALT_JTAG_UART_WRITE_RDY, OS_FLAG_SET);

        space--;
 100b6ec:	e0bff917 	ldw	r2,-28(fp)
 100b6f0:	10bfffc4 	addi	r2,r2,-1
 100b6f4:	e0bff915 	stw	r2,-28(fp)
    if (control & ALTERA_AVALON_JTAG_UART_CONTROL_WI_MSK)
    {
      /* process a write irq */
      unsigned int space = (control & ALTERA_AVALON_JTAG_UART_CONTROL_WSPACE_MSK) >> ALTERA_AVALON_JTAG_UART_CONTROL_WSPACE_OFST;

      while (space > 0 && sp->tx_out != sp->tx_in)
 100b6f8:	e0bff917 	ldw	r2,-28(fp)
 100b6fc:	1005003a 	cmpeq	r2,r2,zero
 100b700:	1000051e 	bne	r2,zero,100b718 <altera_avalon_jtag_uart_irq+0x1c4>
 100b704:	e0bffe17 	ldw	r2,-8(fp)
 100b708:	10c00d17 	ldw	r3,52(r2)
 100b70c:	e0bffe17 	ldw	r2,-8(fp)
 100b710:	10800c17 	ldw	r2,48(r2)
 100b714:	18bfe31e 	bne	r3,r2,100b6a4 <altera_avalon_jtag_uart_irq+0x150>
        ALT_FLAG_POST (sp->events, ALT_JTAG_UART_WRITE_RDY, OS_FLAG_SET);

        space--;
      }

      if (space > 0)
 100b718:	e0bff917 	ldw	r2,-28(fp)
 100b71c:	1005003a 	cmpeq	r2,r2,zero
 100b720:	103f961e 	bne	r2,zero,100b57c <altera_avalon_jtag_uart_irq+0x28>
      {
        /* If we don't have any more data available then turn off the TX interrupt */
        sp->irq_enable &= ~ALTERA_AVALON_JTAG_UART_CONTROL_WE_MSK;
 100b724:	e0bffe17 	ldw	r2,-8(fp)
 100b728:	10c00817 	ldw	r3,32(r2)
 100b72c:	00bfff44 	movi	r2,-3
 100b730:	1886703a 	and	r3,r3,r2
 100b734:	e0bffe17 	ldw	r2,-8(fp)
 100b738:	10c00815 	stw	r3,32(r2)
        IOWR_ALTERA_AVALON_JTAG_UART_CONTROL(sp->base, sp->irq_enable);
 100b73c:	e0bffe17 	ldw	r2,-8(fp)
 100b740:	10800017 	ldw	r2,0(r2)
 100b744:	11000104 	addi	r4,r2,4
 100b748:	e0bffe17 	ldw	r2,-8(fp)
 100b74c:	10800817 	ldw	r2,32(r2)
 100b750:	1007883a 	mov	r3,r2
 100b754:	2005883a 	mov	r2,r4
 100b758:	10c00035 	stwio	r3,0(r2)
        
        /* Dummy read to ensure IRQ is cleared prior to ISR completion */
        IORD_ALTERA_AVALON_JTAG_UART_CONTROL(base);
 100b75c:	e0bffd17 	ldw	r2,-12(fp)
 100b760:	10800104 	addi	r2,r2,4
 100b764:	10800037 	ldwio	r2,0(r2)
      }
    }
  }
 100b768:	003f8406 	br	100b57c <altera_avalon_jtag_uart_irq+0x28>
}
 100b76c:	e037883a 	mov	sp,fp
 100b770:	df000017 	ldw	fp,0(sp)
 100b774:	dec00104 	addi	sp,sp,4
 100b778:	f800283a 	ret

0100b77c <altera_avalon_jtag_uart_timeout>:
 * Timeout routine is called every second
 */

static alt_u32 
altera_avalon_jtag_uart_timeout(void* context) 
{
 100b77c:	defffc04 	addi	sp,sp,-16
 100b780:	df000315 	stw	fp,12(sp)
 100b784:	df000304 	addi	fp,sp,12
 100b788:	e13fff15 	stw	r4,-4(fp)
  altera_avalon_jtag_uart_state* sp = (altera_avalon_jtag_uart_state *) context;
 100b78c:	e0bfff17 	ldw	r2,-4(fp)
 100b790:	e0bffe15 	stw	r2,-8(fp)

  unsigned int control = IORD_ALTERA_AVALON_JTAG_UART_CONTROL(sp->base);
 100b794:	e0bffe17 	ldw	r2,-8(fp)
 100b798:	10800017 	ldw	r2,0(r2)
 100b79c:	10800104 	addi	r2,r2,4
 100b7a0:	10800037 	ldwio	r2,0(r2)
 100b7a4:	e0bffd15 	stw	r2,-12(fp)

  if (control & ALTERA_AVALON_JTAG_UART_CONTROL_AC_MSK)
 100b7a8:	e0bffd17 	ldw	r2,-12(fp)
 100b7ac:	1081000c 	andi	r2,r2,1024
 100b7b0:	1005003a 	cmpeq	r2,r2,zero
 100b7b4:	10000c1e 	bne	r2,zero,100b7e8 <altera_avalon_jtag_uart_timeout+0x6c>
  {
    IOWR_ALTERA_AVALON_JTAG_UART_CONTROL(sp->base, sp->irq_enable | ALTERA_AVALON_JTAG_UART_CONTROL_AC_MSK);
 100b7b8:	e0bffe17 	ldw	r2,-8(fp)
 100b7bc:	10800017 	ldw	r2,0(r2)
 100b7c0:	11000104 	addi	r4,r2,4
 100b7c4:	e0bffe17 	ldw	r2,-8(fp)
 100b7c8:	10800817 	ldw	r2,32(r2)
 100b7cc:	10810014 	ori	r2,r2,1024
 100b7d0:	1007883a 	mov	r3,r2
 100b7d4:	2005883a 	mov	r2,r4
 100b7d8:	10c00035 	stwio	r3,0(r2)
    sp->host_inactive = 0;
 100b7dc:	e0bffe17 	ldw	r2,-8(fp)
 100b7e0:	10000915 	stw	zero,36(r2)
 100b7e4:	00000a06 	br	100b810 <altera_avalon_jtag_uart_timeout+0x94>
  }
  else if (sp->host_inactive < INT_MAX - 2) {
 100b7e8:	e0bffe17 	ldw	r2,-8(fp)
 100b7ec:	10c00917 	ldw	r3,36(r2)
 100b7f0:	00a00034 	movhi	r2,32768
 100b7f4:	10bfff04 	addi	r2,r2,-4
 100b7f8:	10c00536 	bltu	r2,r3,100b810 <altera_avalon_jtag_uart_timeout+0x94>
    sp->host_inactive++;
 100b7fc:	e0bffe17 	ldw	r2,-8(fp)
 100b800:	10800917 	ldw	r2,36(r2)
 100b804:	10c00044 	addi	r3,r2,1
 100b808:	e0bffe17 	ldw	r2,-8(fp)
 100b80c:	10c00915 	stw	r3,36(r2)
 100b810:	00804074 	movhi	r2,257
 100b814:	10892504 	addi	r2,r2,9364
 100b818:	10800017 	ldw	r2,0(r2)
      ALT_FLAG_POST (sp->events, ALT_JTAG_UART_TIMEOUT, OS_FLAG_SET);
    }
  }

  return alt_ticks_per_second();
}
 100b81c:	e037883a 	mov	sp,fp
 100b820:	df000017 	ldw	fp,0(sp)
 100b824:	dec00104 	addi	sp,sp,4
 100b828:	f800283a 	ret

0100b82c <altera_avalon_jtag_uart_close>:
 * The close routine is not implemented for the small driver; instead it will
 * map to null. This is because the small driver simply waits while characters
 * are transmitted; there is no interrupt-serviced buffer to empty 
 */
int altera_avalon_jtag_uart_close(altera_avalon_jtag_uart_state* sp, int flags)
{
 100b82c:	defffc04 	addi	sp,sp,-16
 100b830:	df000315 	stw	fp,12(sp)
 100b834:	df000304 	addi	fp,sp,12
 100b838:	e13ffd15 	stw	r4,-12(fp)
 100b83c:	e17ffe15 	stw	r5,-8(fp)
  /* 
   * Wait for all transmit data to be emptied by the JTAG UART ISR, or
   * for a host-inactivity timeout, in which case transmit data will be lost
   */
  while ( (sp->tx_out != sp->tx_in) && (sp->host_inactive < sp->timeout) ) {
 100b840:	00000706 	br	100b860 <altera_avalon_jtag_uart_close+0x34>
    if (flags & O_NONBLOCK) {
 100b844:	e0bffe17 	ldw	r2,-8(fp)
 100b848:	1090000c 	andi	r2,r2,16384
 100b84c:	1005003a 	cmpeq	r2,r2,zero
 100b850:	1000031e 	bne	r2,zero,100b860 <altera_avalon_jtag_uart_close+0x34>
      return -EWOULDBLOCK; 
 100b854:	00bffd44 	movi	r2,-11
 100b858:	e0bfff15 	stw	r2,-4(fp)
 100b85c:	00000b06 	br	100b88c <altera_avalon_jtag_uart_close+0x60>
{
  /* 
   * Wait for all transmit data to be emptied by the JTAG UART ISR, or
   * for a host-inactivity timeout, in which case transmit data will be lost
   */
  while ( (sp->tx_out != sp->tx_in) && (sp->host_inactive < sp->timeout) ) {
 100b860:	e0bffd17 	ldw	r2,-12(fp)
 100b864:	10c00d17 	ldw	r3,52(r2)
 100b868:	e0bffd17 	ldw	r2,-12(fp)
 100b86c:	10800c17 	ldw	r2,48(r2)
 100b870:	18800526 	beq	r3,r2,100b888 <altera_avalon_jtag_uart_close+0x5c>
 100b874:	e0bffd17 	ldw	r2,-12(fp)
 100b878:	10c00917 	ldw	r3,36(r2)
 100b87c:	e0bffd17 	ldw	r2,-12(fp)
 100b880:	10800117 	ldw	r2,4(r2)
 100b884:	18bfef36 	bltu	r3,r2,100b844 <altera_avalon_jtag_uart_close+0x18>
    if (flags & O_NONBLOCK) {
      return -EWOULDBLOCK; 
    }
  }

  return 0;
 100b888:	e03fff15 	stw	zero,-4(fp)
 100b88c:	e0bfff17 	ldw	r2,-4(fp)
}
 100b890:	e037883a 	mov	sp,fp
 100b894:	df000017 	ldw	fp,0(sp)
 100b898:	dec00104 	addi	sp,sp,4
 100b89c:	f800283a 	ret

0100b8a0 <altera_avalon_jtag_uart_ioctl>:
/* ----------------------------------------------------------- */

int 
altera_avalon_jtag_uart_ioctl(altera_avalon_jtag_uart_state* sp, int req,
  void* arg)
{
 100b8a0:	defff804 	addi	sp,sp,-32
 100b8a4:	df000715 	stw	fp,28(sp)
 100b8a8:	df000704 	addi	fp,sp,28
 100b8ac:	e13ffb15 	stw	r4,-20(fp)
 100b8b0:	e17ffc15 	stw	r5,-16(fp)
 100b8b4:	e1bffd15 	stw	r6,-12(fp)
  int rc = -ENOTTY;
 100b8b8:	00bff9c4 	movi	r2,-25
 100b8bc:	e0bffa15 	stw	r2,-24(fp)

  switch (req)
 100b8c0:	e0bffc17 	ldw	r2,-16(fp)
 100b8c4:	e0bfff15 	stw	r2,-4(fp)
 100b8c8:	e0ffff17 	ldw	r3,-4(fp)
 100b8cc:	189a8060 	cmpeqi	r2,r3,27137
 100b8d0:	1000041e 	bne	r2,zero,100b8e4 <altera_avalon_jtag_uart_ioctl+0x44>
 100b8d4:	e0ffff17 	ldw	r3,-4(fp)
 100b8d8:	189a80a0 	cmpeqi	r2,r3,27138
 100b8dc:	10001b1e 	bne	r2,zero,100b94c <altera_avalon_jtag_uart_ioctl+0xac>
 100b8e0:	00002706 	br	100b980 <altera_avalon_jtag_uart_ioctl+0xe0>
  {
  case TIOCSTIMEOUT:
    /* Set the time to wait until assuming host is not connected */
    if (sp->timeout != INT_MAX)
 100b8e4:	e0bffb17 	ldw	r2,-20(fp)
 100b8e8:	10c00117 	ldw	r3,4(r2)
 100b8ec:	00a00034 	movhi	r2,32768
 100b8f0:	10bfffc4 	addi	r2,r2,-1
 100b8f4:	18802226 	beq	r3,r2,100b980 <altera_avalon_jtag_uart_ioctl+0xe0>
    {
      int timeout = *((int *)arg);
 100b8f8:	e0bffd17 	ldw	r2,-12(fp)
 100b8fc:	10800017 	ldw	r2,0(r2)
 100b900:	e0bff915 	stw	r2,-28(fp)
      sp->timeout = (timeout >= 2 && timeout < INT_MAX) ? timeout : INT_MAX - 1;
 100b904:	e0bff917 	ldw	r2,-28(fp)
 100b908:	10800090 	cmplti	r2,r2,2
 100b90c:	1000071e 	bne	r2,zero,100b92c <altera_avalon_jtag_uart_ioctl+0x8c>
 100b910:	e0fff917 	ldw	r3,-28(fp)
 100b914:	00a00034 	movhi	r2,32768
 100b918:	10bfffc4 	addi	r2,r2,-1
 100b91c:	18800326 	beq	r3,r2,100b92c <altera_avalon_jtag_uart_ioctl+0x8c>
 100b920:	e0bff917 	ldw	r2,-28(fp)
 100b924:	e0bffe15 	stw	r2,-8(fp)
 100b928:	00000306 	br	100b938 <altera_avalon_jtag_uart_ioctl+0x98>
 100b92c:	00e00034 	movhi	r3,32768
 100b930:	18ffff84 	addi	r3,r3,-2
 100b934:	e0fffe15 	stw	r3,-8(fp)
 100b938:	e0bffb17 	ldw	r2,-20(fp)
 100b93c:	e0fffe17 	ldw	r3,-8(fp)
 100b940:	10c00115 	stw	r3,4(r2)
      rc = 0;
 100b944:	e03ffa15 	stw	zero,-24(fp)
    }
    break;
 100b948:	00000d06 	br	100b980 <altera_avalon_jtag_uart_ioctl+0xe0>

  case TIOCGCONNECTED:
    /* Find out whether host is connected */
    if (sp->timeout != INT_MAX)
 100b94c:	e0bffb17 	ldw	r2,-20(fp)
 100b950:	10c00117 	ldw	r3,4(r2)
 100b954:	00a00034 	movhi	r2,32768
 100b958:	10bfffc4 	addi	r2,r2,-1
 100b95c:	18800826 	beq	r3,r2,100b980 <altera_avalon_jtag_uart_ioctl+0xe0>
    {
      *((int *)arg) = (sp->host_inactive < sp->timeout) ? 1 : 0;
 100b960:	e13ffd17 	ldw	r4,-12(fp)
 100b964:	e0bffb17 	ldw	r2,-20(fp)
 100b968:	10c00917 	ldw	r3,36(r2)
 100b96c:	e0bffb17 	ldw	r2,-20(fp)
 100b970:	10800117 	ldw	r2,4(r2)
 100b974:	1885803a 	cmpltu	r2,r3,r2
 100b978:	20800015 	stw	r2,0(r4)
      rc = 0;
 100b97c:	e03ffa15 	stw	zero,-24(fp)

  default:
    break;
  }

  return rc;
 100b980:	e0bffa17 	ldw	r2,-24(fp)
}
 100b984:	e037883a 	mov	sp,fp
 100b988:	df000017 	ldw	fp,0(sp)
 100b98c:	dec00104 	addi	sp,sp,4
 100b990:	f800283a 	ret

0100b994 <altera_avalon_jtag_uart_read>:
/* ----------------------------------------------------------- */

int 
altera_avalon_jtag_uart_read(altera_avalon_jtag_uart_state* sp, 
  char * buffer, int space, int flags)
{
 100b994:	defff204 	addi	sp,sp,-56
 100b998:	dfc00d15 	stw	ra,52(sp)
 100b99c:	df000c15 	stw	fp,48(sp)
 100b9a0:	df000c04 	addi	fp,sp,48
 100b9a4:	e13ffb15 	stw	r4,-20(fp)
 100b9a8:	e17ffc15 	stw	r5,-16(fp)
 100b9ac:	e1bffd15 	stw	r6,-12(fp)
 100b9b0:	e1fffe15 	stw	r7,-8(fp)
  char * ptr = buffer;
 100b9b4:	e0bffc17 	ldw	r2,-16(fp)
 100b9b8:	e0bffa15 	stw	r2,-24(fp)
   * When running in a multi threaded environment, obtain the "read_lock"
   * semaphore. This ensures that reading from the device is thread-safe.
   */
  ALT_SEM_PEND (sp->read_lock, 0);

  while (space > 0)
 100b9bc:	00004806 	br	100bae0 <altera_avalon_jtag_uart_read+0x14c>
    unsigned int in, out;

    /* Read as much data as possible */
    do
    {
      in  = sp->rx_in;
 100b9c0:	e0bffb17 	ldw	r2,-20(fp)
 100b9c4:	10800a17 	ldw	r2,40(r2)
 100b9c8:	e0bff715 	stw	r2,-36(fp)
      out = sp->rx_out;
 100b9cc:	e0bffb17 	ldw	r2,-20(fp)
 100b9d0:	10800b17 	ldw	r2,44(r2)
 100b9d4:	e0bff615 	stw	r2,-40(fp)

      if (in >= out)
 100b9d8:	e0fff717 	ldw	r3,-36(fp)
 100b9dc:	e0bff617 	ldw	r2,-40(fp)
 100b9e0:	18800536 	bltu	r3,r2,100b9f8 <altera_avalon_jtag_uart_read+0x64>
        n = in - out;
 100b9e4:	e0bff717 	ldw	r2,-36(fp)
 100b9e8:	e0fff617 	ldw	r3,-40(fp)
 100b9ec:	10c5c83a 	sub	r2,r2,r3
 100b9f0:	e0bff815 	stw	r2,-32(fp)
 100b9f4:	00000406 	br	100ba08 <altera_avalon_jtag_uart_read+0x74>
      else
        n = ALTERA_AVALON_JTAG_UART_BUF_LEN - out;
 100b9f8:	00820004 	movi	r2,2048
 100b9fc:	e0fff617 	ldw	r3,-40(fp)
 100ba00:	10c5c83a 	sub	r2,r2,r3
 100ba04:	e0bff815 	stw	r2,-32(fp)

      if (n == 0)
 100ba08:	e0bff817 	ldw	r2,-32(fp)
 100ba0c:	1005003a 	cmpeq	r2,r2,zero
 100ba10:	10001f1e 	bne	r2,zero,100ba90 <altera_avalon_jtag_uart_read+0xfc>
        break; /* No more data available */

      if (n > space)
 100ba14:	e0fffd17 	ldw	r3,-12(fp)
 100ba18:	e0bff817 	ldw	r2,-32(fp)
 100ba1c:	1880022e 	bgeu	r3,r2,100ba28 <altera_avalon_jtag_uart_read+0x94>
        n = space;
 100ba20:	e0bffd17 	ldw	r2,-12(fp)
 100ba24:	e0bff815 	stw	r2,-32(fp)

      memcpy(ptr, sp->rx_buf + out, n);
 100ba28:	e0bffb17 	ldw	r2,-20(fp)
 100ba2c:	10c00e04 	addi	r3,r2,56
 100ba30:	e0bff617 	ldw	r2,-40(fp)
 100ba34:	1887883a 	add	r3,r3,r2
 100ba38:	e0bffa17 	ldw	r2,-24(fp)
 100ba3c:	1009883a 	mov	r4,r2
 100ba40:	180b883a 	mov	r5,r3
 100ba44:	e1bff817 	ldw	r6,-32(fp)
 100ba48:	1005fc80 	call	1005fc8 <memcpy>
      ptr   += n;
 100ba4c:	e0fff817 	ldw	r3,-32(fp)
 100ba50:	e0bffa17 	ldw	r2,-24(fp)
 100ba54:	10c5883a 	add	r2,r2,r3
 100ba58:	e0bffa15 	stw	r2,-24(fp)
      space -= n;
 100ba5c:	e0fffd17 	ldw	r3,-12(fp)
 100ba60:	e0bff817 	ldw	r2,-32(fp)
 100ba64:	1885c83a 	sub	r2,r3,r2
 100ba68:	e0bffd15 	stw	r2,-12(fp)

      sp->rx_out = (out + n) % ALTERA_AVALON_JTAG_UART_BUF_LEN;
 100ba6c:	e0fff617 	ldw	r3,-40(fp)
 100ba70:	e0bff817 	ldw	r2,-32(fp)
 100ba74:	1885883a 	add	r2,r3,r2
 100ba78:	10c1ffcc 	andi	r3,r2,2047
 100ba7c:	e0bffb17 	ldw	r2,-20(fp)
 100ba80:	10c00b15 	stw	r3,44(r2)
    }
    while (space > 0);
 100ba84:	e0bffd17 	ldw	r2,-12(fp)
 100ba88:	10800048 	cmpgei	r2,r2,1
 100ba8c:	103fcc1e 	bne	r2,zero,100b9c0 <altera_avalon_jtag_uart_read+0x2c>

    /* If we read any data then return it */
    if (ptr != buffer)
 100ba90:	e0fffa17 	ldw	r3,-24(fp)
 100ba94:	e0bffc17 	ldw	r2,-16(fp)
 100ba98:	1880141e 	bne	r3,r2,100baec <altera_avalon_jtag_uart_read+0x158>
      break;

    /* If in non-blocking mode then return error */
    if (flags & O_NONBLOCK)
 100ba9c:	e0bffe17 	ldw	r2,-8(fp)
 100baa0:	1090000c 	andi	r2,r2,16384
 100baa4:	1004c03a 	cmpne	r2,r2,zero
 100baa8:	1000101e 	bne	r2,zero,100baec <altera_avalon_jtag_uart_read+0x158>
      while (in == sp->rx_in && sp->host_inactive < sp->timeout)
        ;
    }
#else
    /* No OS: Always spin */
    while (in == sp->rx_in && sp->host_inactive < sp->timeout)
 100baac:	e0bffb17 	ldw	r2,-20(fp)
 100bab0:	10c00a17 	ldw	r3,40(r2)
 100bab4:	e0bff717 	ldw	r2,-36(fp)
 100bab8:	1880051e 	bne	r3,r2,100bad0 <altera_avalon_jtag_uart_read+0x13c>
 100babc:	e0bffb17 	ldw	r2,-20(fp)
 100bac0:	10c00917 	ldw	r3,36(r2)
 100bac4:	e0bffb17 	ldw	r2,-20(fp)
 100bac8:	10800117 	ldw	r2,4(r2)
 100bacc:	18bff736 	bltu	r3,r2,100baac <altera_avalon_jtag_uart_read+0x118>
      ;
#endif /* __ucosii__ */

    if (in == sp->rx_in)
 100bad0:	e0bffb17 	ldw	r2,-20(fp)
 100bad4:	10c00a17 	ldw	r3,40(r2)
 100bad8:	e0bff717 	ldw	r2,-36(fp)
 100badc:	18800326 	beq	r3,r2,100baec <altera_avalon_jtag_uart_read+0x158>
   * When running in a multi threaded environment, obtain the "read_lock"
   * semaphore. This ensures that reading from the device is thread-safe.
   */
  ALT_SEM_PEND (sp->read_lock, 0);

  while (space > 0)
 100bae0:	e0bffd17 	ldw	r2,-12(fp)
 100bae4:	10800048 	cmpgei	r2,r2,1
 100bae8:	103fb51e 	bne	r2,zero,100b9c0 <altera_avalon_jtag_uart_read+0x2c>
   * semaphore so that other threads can access the buffer.
   */

  ALT_SEM_POST (sp->read_lock);

  if (ptr != buffer)
 100baec:	e0fffa17 	ldw	r3,-24(fp)
 100baf0:	e0bffc17 	ldw	r2,-16(fp)
 100baf4:	18801926 	beq	r3,r2,100bb5c <altera_avalon_jtag_uart_read+0x1c8>
static ALT_INLINE alt_irq_context ALT_ALWAYS_INLINE 
       alt_irq_disable_all (void)
{
  alt_irq_context context;

  NIOS2_READ_STATUS (context);
 100baf8:	0005303a 	rdctl	r2,status
 100bafc:	e0bff515 	stw	r2,-44(fp)

  NIOS2_WRITE_STATUS (context & ~NIOS2_STATUS_PIE_MSK);
 100bb00:	e0fff517 	ldw	r3,-44(fp)
 100bb04:	00bfff84 	movi	r2,-2
 100bb08:	1884703a 	and	r2,r3,r2
 100bb0c:	1001703a 	wrctl	status,r2
  
  return context;
 100bb10:	e0bff517 	ldw	r2,-44(fp)
  {
    /* If we read any data then there is space in the buffer so enable interrupts */
    context = alt_irq_disable_all();
 100bb14:	e0bff915 	stw	r2,-28(fp)
    sp->irq_enable |= ALTERA_AVALON_JTAG_UART_CONTROL_RE_MSK;
 100bb18:	e0bffb17 	ldw	r2,-20(fp)
 100bb1c:	10800817 	ldw	r2,32(r2)
 100bb20:	10c00054 	ori	r3,r2,1
 100bb24:	e0bffb17 	ldw	r2,-20(fp)
 100bb28:	10c00815 	stw	r3,32(r2)
    IOWR_ALTERA_AVALON_JTAG_UART_CONTROL(sp->base, sp->irq_enable);
 100bb2c:	e0bffb17 	ldw	r2,-20(fp)
 100bb30:	10800017 	ldw	r2,0(r2)
 100bb34:	11000104 	addi	r4,r2,4
 100bb38:	e0bffb17 	ldw	r2,-20(fp)
 100bb3c:	10800817 	ldw	r2,32(r2)
 100bb40:	1007883a 	mov	r3,r2
 100bb44:	2005883a 	mov	r2,r4
 100bb48:	10c00035 	stwio	r3,0(r2)
 100bb4c:	e0bff917 	ldw	r2,-28(fp)
 100bb50:	e0bff415 	stw	r2,-48(fp)
  status &= ~NIOS2_STATUS_PIE_MSK;
  status |= (context & NIOS2_STATUS_PIE_MSK);
  
  NIOS2_WRITE_STATUS (status);
#else
  NIOS2_WRITE_STATUS (context);
 100bb54:	e0bff417 	ldw	r2,-48(fp)
 100bb58:	1001703a 	wrctl	status,r2
    alt_irq_enable_all(context);
  }

  if (ptr != buffer)
 100bb5c:	e0fffa17 	ldw	r3,-24(fp)
 100bb60:	e0bffc17 	ldw	r2,-16(fp)
 100bb64:	18800526 	beq	r3,r2,100bb7c <altera_avalon_jtag_uart_read+0x1e8>
    return ptr - buffer;
 100bb68:	e0fffa17 	ldw	r3,-24(fp)
 100bb6c:	e0bffc17 	ldw	r2,-16(fp)
 100bb70:	1887c83a 	sub	r3,r3,r2
 100bb74:	e0ffff15 	stw	r3,-4(fp)
 100bb78:	00000906 	br	100bba0 <altera_avalon_jtag_uart_read+0x20c>
  else if (flags & O_NONBLOCK)
 100bb7c:	e0bffe17 	ldw	r2,-8(fp)
 100bb80:	1090000c 	andi	r2,r2,16384
 100bb84:	1005003a 	cmpeq	r2,r2,zero
 100bb88:	1000031e 	bne	r2,zero,100bb98 <altera_avalon_jtag_uart_read+0x204>
    return -EWOULDBLOCK;
 100bb8c:	00bffd44 	movi	r2,-11
 100bb90:	e0bfff15 	stw	r2,-4(fp)
 100bb94:	00000206 	br	100bba0 <altera_avalon_jtag_uart_read+0x20c>
  else
    return -EIO;
 100bb98:	00bffec4 	movi	r2,-5
 100bb9c:	e0bfff15 	stw	r2,-4(fp)
 100bba0:	e0bfff17 	ldw	r2,-4(fp)
}
 100bba4:	e037883a 	mov	sp,fp
 100bba8:	dfc00117 	ldw	ra,4(sp)
 100bbac:	df000017 	ldw	fp,0(sp)
 100bbb0:	dec00204 	addi	sp,sp,8
 100bbb4:	f800283a 	ret

0100bbb8 <altera_avalon_jtag_uart_write>:
/* ----------------------------------------------------------- */

int 
altera_avalon_jtag_uart_write(altera_avalon_jtag_uart_state* sp, 
  const char * ptr, int count, int flags)
{
 100bbb8:	defff204 	addi	sp,sp,-56
 100bbbc:	dfc00d15 	stw	ra,52(sp)
 100bbc0:	df000c15 	stw	fp,48(sp)
 100bbc4:	df000c04 	addi	fp,sp,48
 100bbc8:	e13ffb15 	stw	r4,-20(fp)
 100bbcc:	e17ffc15 	stw	r5,-16(fp)
 100bbd0:	e1bffd15 	stw	r6,-12(fp)
 100bbd4:	e1fffe15 	stw	r7,-8(fp)
  /* Remove warning at optimisation level 03 by seting out to 0 */
  unsigned int in, out=0;
 100bbd8:	e03ff915 	stw	zero,-28(fp)
  unsigned int n;
  alt_irq_context context;

  const char * start = ptr;
 100bbdc:	e0bffc17 	ldw	r2,-16(fp)
 100bbe0:	e0bff615 	stw	r2,-40(fp)
  ALT_SEM_PEND (sp->write_lock, 0);

  do
  {
    /* Copy as much as we can into the transmit buffer */
    while (count > 0)
 100bbe4:	00003a06 	br	100bcd0 <altera_avalon_jtag_uart_write+0x118>
    {
      /* We need a stable value of the out pointer to calculate the space available */
      in  = sp->tx_in;
 100bbe8:	e0bffb17 	ldw	r2,-20(fp)
 100bbec:	10800c17 	ldw	r2,48(r2)
 100bbf0:	e0bffa15 	stw	r2,-24(fp)
      out = sp->tx_out;
 100bbf4:	e0bffb17 	ldw	r2,-20(fp)
 100bbf8:	10800d17 	ldw	r2,52(r2)
 100bbfc:	e0bff915 	stw	r2,-28(fp)

      if (in < out)
 100bc00:	e0fffa17 	ldw	r3,-24(fp)
 100bc04:	e0bff917 	ldw	r2,-28(fp)
 100bc08:	1880062e 	bgeu	r3,r2,100bc24 <altera_avalon_jtag_uart_write+0x6c>
        n = out - 1 - in;
 100bc0c:	e0fff917 	ldw	r3,-28(fp)
 100bc10:	e0bffa17 	ldw	r2,-24(fp)
 100bc14:	1885c83a 	sub	r2,r3,r2
 100bc18:	10bfffc4 	addi	r2,r2,-1
 100bc1c:	e0bff815 	stw	r2,-32(fp)
 100bc20:	00000c06 	br	100bc54 <altera_avalon_jtag_uart_write+0x9c>
      else if (out > 0)
 100bc24:	e0bff917 	ldw	r2,-28(fp)
 100bc28:	1005003a 	cmpeq	r2,r2,zero
 100bc2c:	1000051e 	bne	r2,zero,100bc44 <altera_avalon_jtag_uart_write+0x8c>
        n = ALTERA_AVALON_JTAG_UART_BUF_LEN - in;
 100bc30:	00820004 	movi	r2,2048
 100bc34:	e0fffa17 	ldw	r3,-24(fp)
 100bc38:	10c5c83a 	sub	r2,r2,r3
 100bc3c:	e0bff815 	stw	r2,-32(fp)
 100bc40:	00000406 	br	100bc54 <altera_avalon_jtag_uart_write+0x9c>
      else
        n = ALTERA_AVALON_JTAG_UART_BUF_LEN - 1 - in;
 100bc44:	0081ffc4 	movi	r2,2047
 100bc48:	e0fffa17 	ldw	r3,-24(fp)
 100bc4c:	10c5c83a 	sub	r2,r2,r3
 100bc50:	e0bff815 	stw	r2,-32(fp)

      if (n == 0)
 100bc54:	e0bff817 	ldw	r2,-32(fp)
 100bc58:	1005003a 	cmpeq	r2,r2,zero
 100bc5c:	10001f1e 	bne	r2,zero,100bcdc <altera_avalon_jtag_uart_write+0x124>
        break;

      if (n > count)
 100bc60:	e0fffd17 	ldw	r3,-12(fp)
 100bc64:	e0bff817 	ldw	r2,-32(fp)
 100bc68:	1880022e 	bgeu	r3,r2,100bc74 <altera_avalon_jtag_uart_write+0xbc>
        n = count;
 100bc6c:	e0bffd17 	ldw	r2,-12(fp)
 100bc70:	e0bff815 	stw	r2,-32(fp)

      memcpy(sp->tx_buf + in, ptr, n);
 100bc74:	e0bffb17 	ldw	r2,-20(fp)
 100bc78:	10c20e04 	addi	r3,r2,2104
 100bc7c:	e0bffa17 	ldw	r2,-24(fp)
 100bc80:	1885883a 	add	r2,r3,r2
 100bc84:	e0fffc17 	ldw	r3,-16(fp)
 100bc88:	1009883a 	mov	r4,r2
 100bc8c:	180b883a 	mov	r5,r3
 100bc90:	e1bff817 	ldw	r6,-32(fp)
 100bc94:	1005fc80 	call	1005fc8 <memcpy>
      ptr   += n;
 100bc98:	e0fff817 	ldw	r3,-32(fp)
 100bc9c:	e0bffc17 	ldw	r2,-16(fp)
 100bca0:	10c5883a 	add	r2,r2,r3
 100bca4:	e0bffc15 	stw	r2,-16(fp)
      count -= n;
 100bca8:	e0fffd17 	ldw	r3,-12(fp)
 100bcac:	e0bff817 	ldw	r2,-32(fp)
 100bcb0:	1885c83a 	sub	r2,r3,r2
 100bcb4:	e0bffd15 	stw	r2,-12(fp)

      sp->tx_in = (in + n) % ALTERA_AVALON_JTAG_UART_BUF_LEN;
 100bcb8:	e0fffa17 	ldw	r3,-24(fp)
 100bcbc:	e0bff817 	ldw	r2,-32(fp)
 100bcc0:	1885883a 	add	r2,r3,r2
 100bcc4:	10c1ffcc 	andi	r3,r2,2047
 100bcc8:	e0bffb17 	ldw	r2,-20(fp)
 100bccc:	10c00c15 	stw	r3,48(r2)
  ALT_SEM_PEND (sp->write_lock, 0);

  do
  {
    /* Copy as much as we can into the transmit buffer */
    while (count > 0)
 100bcd0:	e0bffd17 	ldw	r2,-12(fp)
 100bcd4:	10800048 	cmpgei	r2,r2,1
 100bcd8:	103fc31e 	bne	r2,zero,100bbe8 <altera_avalon_jtag_uart_write+0x30>
static ALT_INLINE alt_irq_context ALT_ALWAYS_INLINE 
       alt_irq_disable_all (void)
{
  alt_irq_context context;

  NIOS2_READ_STATUS (context);
 100bcdc:	0005303a 	rdctl	r2,status
 100bce0:	e0bff515 	stw	r2,-44(fp)

  NIOS2_WRITE_STATUS (context & ~NIOS2_STATUS_PIE_MSK);
 100bce4:	e0fff517 	ldw	r3,-44(fp)
 100bce8:	00bfff84 	movi	r2,-2
 100bcec:	1884703a 	and	r2,r3,r2
 100bcf0:	1001703a 	wrctl	status,r2
  
  return context;
 100bcf4:	e0bff517 	ldw	r2,-44(fp)
     * to enable interrupts if there is no space left in the FIFO
     *
     * For now kick the interrupt routine every time to make it transmit 
     * the data 
     */
    context = alt_irq_disable_all();
 100bcf8:	e0bff715 	stw	r2,-36(fp)
    sp->irq_enable |= ALTERA_AVALON_JTAG_UART_CONTROL_WE_MSK;
 100bcfc:	e0bffb17 	ldw	r2,-20(fp)
 100bd00:	10800817 	ldw	r2,32(r2)
 100bd04:	10c00094 	ori	r3,r2,2
 100bd08:	e0bffb17 	ldw	r2,-20(fp)
 100bd0c:	10c00815 	stw	r3,32(r2)
    IOWR_ALTERA_AVALON_JTAG_UART_CONTROL(sp->base, sp->irq_enable);
 100bd10:	e0bffb17 	ldw	r2,-20(fp)
 100bd14:	10800017 	ldw	r2,0(r2)
 100bd18:	11000104 	addi	r4,r2,4
 100bd1c:	e0bffb17 	ldw	r2,-20(fp)
 100bd20:	10800817 	ldw	r2,32(r2)
 100bd24:	1007883a 	mov	r3,r2
 100bd28:	2005883a 	mov	r2,r4
 100bd2c:	10c00035 	stwio	r3,0(r2)
 100bd30:	e0bff717 	ldw	r2,-36(fp)
 100bd34:	e0bff415 	stw	r2,-48(fp)
  status &= ~NIOS2_STATUS_PIE_MSK;
  status |= (context & NIOS2_STATUS_PIE_MSK);
  
  NIOS2_WRITE_STATUS (status);
#else
  NIOS2_WRITE_STATUS (context);
 100bd38:	e0bff417 	ldw	r2,-48(fp)
 100bd3c:	1001703a 	wrctl	status,r2
    /* 
     * If there is any data left then either return now or block until 
     * some has been sent 
     */
    /* consider: test whether there is anything there while doing this and delay for at most 2s. */
    if (count > 0)
 100bd40:	e0bffd17 	ldw	r2,-12(fp)
 100bd44:	10800050 	cmplti	r2,r2,1
 100bd48:	1000111e 	bne	r2,zero,100bd90 <altera_avalon_jtag_uart_write+0x1d8>
    {
      if (flags & O_NONBLOCK)
 100bd4c:	e0bffe17 	ldw	r2,-8(fp)
 100bd50:	1090000c 	andi	r2,r2,16384
 100bd54:	1004c03a 	cmpne	r2,r2,zero
 100bd58:	1000101e 	bne	r2,zero,100bd9c <altera_avalon_jtag_uart_write+0x1e4>
      /*
       * No OS present: Always wait for data to be removed from buffer.  Once
       * the interrupt routine has removed some data then we will be able to
       * insert some more.
       */
      while (out == sp->tx_out && sp->host_inactive < sp->timeout)
 100bd5c:	e0bffb17 	ldw	r2,-20(fp)
 100bd60:	10c00d17 	ldw	r3,52(r2)
 100bd64:	e0bff917 	ldw	r2,-28(fp)
 100bd68:	1880051e 	bne	r3,r2,100bd80 <altera_avalon_jtag_uart_write+0x1c8>
 100bd6c:	e0bffb17 	ldw	r2,-20(fp)
 100bd70:	10c00917 	ldw	r3,36(r2)
 100bd74:	e0bffb17 	ldw	r2,-20(fp)
 100bd78:	10800117 	ldw	r2,4(r2)
 100bd7c:	18bff736 	bltu	r3,r2,100bd5c <altera_avalon_jtag_uart_write+0x1a4>
        ;
#endif /* __ucosii__ */

      if (out == sp->tx_out)
 100bd80:	e0bffb17 	ldw	r2,-20(fp)
 100bd84:	10c00d17 	ldw	r3,52(r2)
 100bd88:	e0bff917 	ldw	r2,-28(fp)
 100bd8c:	18800326 	beq	r3,r2,100bd9c <altera_avalon_jtag_uart_write+0x1e4>
         break;
    }
  }
  while (count > 0);
 100bd90:	e0bffd17 	ldw	r2,-12(fp)
 100bd94:	10800048 	cmpgei	r2,r2,1
 100bd98:	103fcd1e 	bne	r2,zero,100bcd0 <altera_avalon_jtag_uart_write+0x118>
   * Now that access to the circular buffer is complete, release the write
   * semaphore so that other threads can access the buffer.
   */
  ALT_SEM_POST (sp->write_lock);

  if (ptr != start)
 100bd9c:	e0fffc17 	ldw	r3,-16(fp)
 100bda0:	e0bff617 	ldw	r2,-40(fp)
 100bda4:	18800526 	beq	r3,r2,100bdbc <altera_avalon_jtag_uart_write+0x204>
    return ptr - start;
 100bda8:	e0fffc17 	ldw	r3,-16(fp)
 100bdac:	e0bff617 	ldw	r2,-40(fp)
 100bdb0:	1887c83a 	sub	r3,r3,r2
 100bdb4:	e0ffff15 	stw	r3,-4(fp)
 100bdb8:	00000906 	br	100bde0 <altera_avalon_jtag_uart_write+0x228>
  else if (flags & O_NONBLOCK)
 100bdbc:	e0bffe17 	ldw	r2,-8(fp)
 100bdc0:	1090000c 	andi	r2,r2,16384
 100bdc4:	1005003a 	cmpeq	r2,r2,zero
 100bdc8:	1000031e 	bne	r2,zero,100bdd8 <altera_avalon_jtag_uart_write+0x220>
    return -EWOULDBLOCK;
 100bdcc:	00bffd44 	movi	r2,-11
 100bdd0:	e0bfff15 	stw	r2,-4(fp)
 100bdd4:	00000206 	br	100bde0 <altera_avalon_jtag_uart_write+0x228>
    sp->tx_out = sp->tx_in = 0;
    return ptr - start + count;
  }
#endif
  else
    return -EIO; /* Host not connected */
 100bdd8:	00bffec4 	movi	r2,-5
 100bddc:	e0bfff15 	stw	r2,-4(fp)
 100bde0:	e0bfff17 	ldw	r2,-4(fp)
}
 100bde4:	e037883a 	mov	sp,fp
 100bde8:	dfc00117 	ldw	ra,4(sp)
 100bdec:	df000017 	ldw	fp,0(sp)
 100bdf0:	dec00204 	addi	sp,sp,8
 100bdf4:	f800283a 	ret

0100bdf8 <alt_up_char_buffer_init>:
#include <priv/alt_file.h>

#include "altera_up_avalon_video_character_buffer_with_dma.h"
#include "altera_up_avalon_video_character_buffer_with_dma_regs.h"

void alt_up_char_buffer_init(alt_up_char_buffer_dev *char_buffer) {
 100bdf8:	defffc04 	addi	sp,sp,-16
 100bdfc:	dfc00315 	stw	ra,12(sp)
 100be00:	df000215 	stw	fp,8(sp)
 100be04:	df000204 	addi	fp,sp,8
 100be08:	e13fff15 	stw	r4,-4(fp)
	char * name;
	name = (char *) char_buffer->dev.name;
 100be0c:	e0bfff17 	ldw	r2,-4(fp)
 100be10:	10800217 	ldw	r2,8(r2)
 100be14:	e0bffe15 	stw	r2,-8(fp)

	for ( ; (*name) != '\0'; name++) {
 100be18:	00000c06 	br	100be4c <alt_up_char_buffer_init+0x54>
		if (strcmp(name, "_avalon_char_buffer_slave") == 0) {
 100be1c:	e13ffe17 	ldw	r4,-8(fp)
 100be20:	01404074 	movhi	r5,257
 100be24:	297b9704 	addi	r5,r5,-4516
 100be28:	1007a8c0 	call	1007a8c <strcmp>
 100be2c:	1004c03a 	cmpne	r2,r2,zero
 100be30:	1000031e 	bne	r2,zero,100be40 <alt_up_char_buffer_init+0x48>
			(*name) = '\0';
 100be34:	e0bffe17 	ldw	r2,-8(fp)
 100be38:	10000005 	stb	zero,0(r2)
			break;
 100be3c:	00000a06 	br	100be68 <alt_up_char_buffer_init+0x70>

void alt_up_char_buffer_init(alt_up_char_buffer_dev *char_buffer) {
	char * name;
	name = (char *) char_buffer->dev.name;

	for ( ; (*name) != '\0'; name++) {
 100be40:	e0bffe17 	ldw	r2,-8(fp)
 100be44:	10800044 	addi	r2,r2,1
 100be48:	e0bffe15 	stw	r2,-8(fp)
 100be4c:	e0bffe17 	ldw	r2,-8(fp)
 100be50:	10800003 	ldbu	r2,0(r2)
 100be54:	10803fcc 	andi	r2,r2,255
 100be58:	1080201c 	xori	r2,r2,128
 100be5c:	10bfe004 	addi	r2,r2,-128
 100be60:	1004c03a 	cmpne	r2,r2,zero
 100be64:	103fed1e 	bne	r2,zero,100be1c <alt_up_char_buffer_init+0x24>
			break;
		}
	}
	
	return;
}
 100be68:	e037883a 	mov	sp,fp
 100be6c:	dfc00117 	ldw	ra,4(sp)
 100be70:	df000017 	ldw	fp,0(sp)
 100be74:	dec00204 	addi	sp,sp,8
 100be78:	f800283a 	ret

0100be7c <alt_up_char_buffer_open_dev>:

alt_up_char_buffer_dev* alt_up_char_buffer_open_dev(const char* name) {
 100be7c:	defffc04 	addi	sp,sp,-16
 100be80:	dfc00315 	stw	ra,12(sp)
 100be84:	df000215 	stw	fp,8(sp)
 100be88:	df000204 	addi	fp,sp,8
 100be8c:	e13fff15 	stw	r4,-4(fp)
  // find the device from the device list 
  // (see altera_hal/HAL/inc/priv/alt_file.h 
  // and altera_hal/HAL/src/alt_find_dev.c 
  // for details)
  alt_up_char_buffer_dev *dev = (alt_up_char_buffer_dev *)alt_find_dev(name, &alt_dev_list);
 100be90:	e13fff17 	ldw	r4,-4(fp)
 100be94:	01404074 	movhi	r5,257
 100be98:	29425404 	addi	r5,r5,2384
 100be9c:	100d9e80 	call	100d9e8 <alt_find_dev>
 100bea0:	e0bffe15 	stw	r2,-8(fp)

  return dev;
 100bea4:	e0bffe17 	ldw	r2,-8(fp)
}
 100bea8:	e037883a 	mov	sp,fp
 100beac:	dfc00117 	ldw	ra,4(sp)
 100beb0:	df000017 	ldw	fp,0(sp)
 100beb4:	dec00204 	addi	sp,sp,8
 100beb8:	f800283a 	ret

0100bebc <alt_up_char_buffer_draw>:

int alt_up_char_buffer_draw(alt_up_char_buffer_dev *char_buffer, unsigned char ch, 
	unsigned int x, unsigned int y) {
 100bebc:	defff904 	addi	sp,sp,-28
 100bec0:	df000615 	stw	fp,24(sp)
 100bec4:	df000604 	addi	fp,sp,24
 100bec8:	e13ffb15 	stw	r4,-20(fp)
 100becc:	e1bffd15 	stw	r6,-12(fp)
 100bed0:	e1fffe15 	stw	r7,-8(fp)
 100bed4:	e17ffc05 	stb	r5,-16(fp)
	// boundary check
	if (x >= char_buffer->x_resolution || y >= char_buffer->y_resolution )
 100bed8:	e0bffb17 	ldw	r2,-20(fp)
 100bedc:	10c00c17 	ldw	r3,48(r2)
 100bee0:	e0bffd17 	ldw	r2,-12(fp)
 100bee4:	10c0042e 	bgeu	r2,r3,100bef8 <alt_up_char_buffer_draw+0x3c>
 100bee8:	e0bffb17 	ldw	r2,-20(fp)
 100beec:	10c00d17 	ldw	r3,52(r2)
 100bef0:	e0bffe17 	ldw	r2,-8(fp)
 100bef4:	10c00336 	bltu	r2,r3,100bf04 <alt_up_char_buffer_draw+0x48>
		return -1;
 100bef8:	00bfffc4 	movi	r2,-1
 100befc:	e0bfff15 	stw	r2,-4(fp)
 100bf00:	00001d06 	br	100bf78 <alt_up_char_buffer_draw+0xbc>
	
	unsigned int addr = 0;
 100bf04:	e03ffa15 	stw	zero,-24(fp)
	addr |= ((x & char_buffer->x_coord_mask) << char_buffer->x_coord_offset);
 100bf08:	e0bffb17 	ldw	r2,-20(fp)
 100bf0c:	10c00f17 	ldw	r3,60(r2)
 100bf10:	e0bffd17 	ldw	r2,-12(fp)
 100bf14:	1886703a 	and	r3,r3,r2
 100bf18:	e0bffb17 	ldw	r2,-20(fp)
 100bf1c:	10800e17 	ldw	r2,56(r2)
 100bf20:	1886983a 	sll	r3,r3,r2
 100bf24:	e0bffa17 	ldw	r2,-24(fp)
 100bf28:	10c4b03a 	or	r2,r2,r3
 100bf2c:	e0bffa15 	stw	r2,-24(fp)
	addr |= ((y & char_buffer->y_coord_mask) << char_buffer->y_coord_offset);
 100bf30:	e0bffb17 	ldw	r2,-20(fp)
 100bf34:	10c01117 	ldw	r3,68(r2)
 100bf38:	e0bffe17 	ldw	r2,-8(fp)
 100bf3c:	1886703a 	and	r3,r3,r2
 100bf40:	e0bffb17 	ldw	r2,-20(fp)
 100bf44:	10801017 	ldw	r2,64(r2)
 100bf48:	1886983a 	sll	r3,r3,r2
 100bf4c:	e0bffa17 	ldw	r2,-24(fp)
 100bf50:	10c4b03a 	or	r2,r2,r3
 100bf54:	e0bffa15 	stw	r2,-24(fp)
	IOWR_8DIRECT(char_buffer->buffer_base, addr, ch);
 100bf58:	e0bffb17 	ldw	r2,-20(fp)
 100bf5c:	10800b17 	ldw	r2,44(r2)
 100bf60:	1007883a 	mov	r3,r2
 100bf64:	e0bffa17 	ldw	r2,-24(fp)
 100bf68:	1885883a 	add	r2,r3,r2
 100bf6c:	e0fffc03 	ldbu	r3,-16(fp)
 100bf70:	10c00025 	stbio	r3,0(r2)

	return 0;
 100bf74:	e03fff15 	stw	zero,-4(fp)
 100bf78:	e0bfff17 	ldw	r2,-4(fp)
}
 100bf7c:	e037883a 	mov	sp,fp
 100bf80:	df000017 	ldw	fp,0(sp)
 100bf84:	dec00104 	addi	sp,sp,4
 100bf88:	f800283a 	ret

0100bf8c <alt_up_char_buffer_string>:

int alt_up_char_buffer_string(alt_up_char_buffer_dev *char_buffer, const char *ptr, 
	unsigned int x, unsigned int y) {
 100bf8c:	defff904 	addi	sp,sp,-28
 100bf90:	df000615 	stw	fp,24(sp)
 100bf94:	df000604 	addi	fp,sp,24
 100bf98:	e13ffb15 	stw	r4,-20(fp)
 100bf9c:	e17ffc15 	stw	r5,-16(fp)
 100bfa0:	e1bffd15 	stw	r6,-12(fp)
 100bfa4:	e1fffe15 	stw	r7,-8(fp)
	// boundary check
	if (x >= char_buffer->x_resolution || y >= char_buffer->y_resolution )
 100bfa8:	e0bffb17 	ldw	r2,-20(fp)
 100bfac:	10c00c17 	ldw	r3,48(r2)
 100bfb0:	e0bffd17 	ldw	r2,-12(fp)
 100bfb4:	10c0042e 	bgeu	r2,r3,100bfc8 <alt_up_char_buffer_string+0x3c>
 100bfb8:	e0bffb17 	ldw	r2,-20(fp)
 100bfbc:	10c00d17 	ldw	r3,52(r2)
 100bfc0:	e0bffe17 	ldw	r2,-8(fp)
 100bfc4:	10c00336 	bltu	r2,r3,100bfd4 <alt_up_char_buffer_string+0x48>
		return -1;
 100bfc8:	00bfffc4 	movi	r2,-1
 100bfcc:	e0bfff15 	stw	r2,-4(fp)
 100bfd0:	00002e06 	br	100c08c <alt_up_char_buffer_string+0x100>
	
	unsigned int offset = 0;
 100bfd4:	e03ffa15 	stw	zero,-24(fp)
	offset = (y << char_buffer->y_coord_offset) + x;
 100bfd8:	e0bffb17 	ldw	r2,-20(fp)
 100bfdc:	10801017 	ldw	r2,64(r2)
 100bfe0:	1007883a 	mov	r3,r2
 100bfe4:	e0bffe17 	ldw	r2,-8(fp)
 100bfe8:	10c6983a 	sll	r3,r2,r3
 100bfec:	e0bffd17 	ldw	r2,-12(fp)
 100bff0:	1885883a 	add	r2,r3,r2
 100bff4:	e0bffa15 	stw	r2,-24(fp)

	while ( *ptr )
 100bff8:	00001c06 	br	100c06c <alt_up_char_buffer_string+0xe0>
	{
		IOWR_8DIRECT(char_buffer->buffer_base, offset, *ptr);
 100bffc:	e0bffb17 	ldw	r2,-20(fp)
 100c000:	10800b17 	ldw	r2,44(r2)
 100c004:	1007883a 	mov	r3,r2
 100c008:	e0bffa17 	ldw	r2,-24(fp)
 100c00c:	1889883a 	add	r4,r3,r2
 100c010:	e0bffc17 	ldw	r2,-16(fp)
 100c014:	10800003 	ldbu	r2,0(r2)
 100c018:	10c03fcc 	andi	r3,r2,255
 100c01c:	18c0201c 	xori	r3,r3,128
 100c020:	18ffe004 	addi	r3,r3,-128
 100c024:	2005883a 	mov	r2,r4
 100c028:	10c00025 	stbio	r3,0(r2)
		++ptr;
 100c02c:	e0bffc17 	ldw	r2,-16(fp)
 100c030:	10800044 	addi	r2,r2,1
 100c034:	e0bffc15 	stw	r2,-16(fp)
		if (++x >= char_buffer->x_resolution)
 100c038:	e0bffd17 	ldw	r2,-12(fp)
 100c03c:	10800044 	addi	r2,r2,1
 100c040:	e0bffd15 	stw	r2,-12(fp)
 100c044:	e0bffb17 	ldw	r2,-20(fp)
 100c048:	10c00c17 	ldw	r3,48(r2)
 100c04c:	e0bffd17 	ldw	r2,-12(fp)
 100c050:	10c00336 	bltu	r2,r3,100c060 <alt_up_char_buffer_string+0xd4>
			return -1;
 100c054:	00bfffc4 	movi	r2,-1
 100c058:	e0bfff15 	stw	r2,-4(fp)
 100c05c:	00000b06 	br	100c08c <alt_up_char_buffer_string+0x100>
		++offset;
 100c060:	e0bffa17 	ldw	r2,-24(fp)
 100c064:	10800044 	addi	r2,r2,1
 100c068:	e0bffa15 	stw	r2,-24(fp)
		return -1;
	
	unsigned int offset = 0;
	offset = (y << char_buffer->y_coord_offset) + x;

	while ( *ptr )
 100c06c:	e0bffc17 	ldw	r2,-16(fp)
 100c070:	10800003 	ldbu	r2,0(r2)
 100c074:	10803fcc 	andi	r2,r2,255
 100c078:	1080201c 	xori	r2,r2,128
 100c07c:	10bfe004 	addi	r2,r2,-128
 100c080:	1004c03a 	cmpne	r2,r2,zero
 100c084:	103fdd1e 	bne	r2,zero,100bffc <alt_up_char_buffer_string+0x70>
		++ptr;
		if (++x >= char_buffer->x_resolution)
			return -1;
		++offset;
	}
	return 0;
 100c088:	e03fff15 	stw	zero,-4(fp)
 100c08c:	e0bfff17 	ldw	r2,-4(fp)
}
 100c090:	e037883a 	mov	sp,fp
 100c094:	df000017 	ldw	fp,0(sp)
 100c098:	dec00104 	addi	sp,sp,4
 100c09c:	f800283a 	ret

0100c0a0 <alt_up_char_buffer_clear>:

int alt_up_char_buffer_clear(alt_up_char_buffer_dev *char_buffer) {
 100c0a0:	defffe04 	addi	sp,sp,-8
 100c0a4:	df000115 	stw	fp,4(sp)
 100c0a8:	df000104 	addi	fp,sp,4
 100c0ac:	e13fff15 	stw	r4,-4(fp)
	IOWR_ALT_UP_CHAR_BUFFER_CLR_SCRN(char_buffer->ctrl_reg_base, 1);
 100c0b0:	e0bfff17 	ldw	r2,-4(fp)
 100c0b4:	10800a17 	ldw	r2,40(r2)
 100c0b8:	10800084 	addi	r2,r2,2
 100c0bc:	1007883a 	mov	r3,r2
 100c0c0:	00800044 	movi	r2,1
 100c0c4:	18800025 	stbio	r2,0(r3)
	while ((IORD_ALT_UP_CHAR_BUFFER_CLR_SCRN(char_buffer->ctrl_reg_base) & ALT_UP_CHAR_BUFFER_CLR_SCRN_MSK) >> ALT_UP_CHAR_BUFFER_CLR_SCRN_OFST);
 100c0c8:	e0bfff17 	ldw	r2,-4(fp)
 100c0cc:	10800a17 	ldw	r2,40(r2)
 100c0d0:	10800084 	addi	r2,r2,2
 100c0d4:	10800023 	ldbuio	r2,0(r2)
 100c0d8:	1080004c 	andi	r2,r2,1
 100c0dc:	10803fcc 	andi	r2,r2,255
 100c0e0:	1004c03a 	cmpne	r2,r2,zero
 100c0e4:	103ff81e 	bne	r2,zero,100c0c8 <alt_up_char_buffer_clear+0x28>
	return 0;
 100c0e8:	0005883a 	mov	r2,zero
}
 100c0ec:	e037883a 	mov	sp,fp
 100c0f0:	df000017 	ldw	fp,0(sp)
 100c0f4:	dec00104 	addi	sp,sp,4
 100c0f8:	f800283a 	ret

0100c0fc <alt_up_pixel_buffer_dma_open_dev>:

#include "altera_up_avalon_video_pixel_buffer_dma.h"

#define ABS(x)	((x >= 0) ? (x) : (-(x)))

alt_up_pixel_buffer_dma_dev* alt_up_pixel_buffer_dma_open_dev(const char* name) {
 100c0fc:	defffc04 	addi	sp,sp,-16
 100c100:	dfc00315 	stw	ra,12(sp)
 100c104:	df000215 	stw	fp,8(sp)
 100c108:	df000204 	addi	fp,sp,8
 100c10c:	e13fff15 	stw	r4,-4(fp)
  // find the device from the device list 
  // (see altera_hal/HAL/inc/priv/alt_file.h 
  // and altera_hal/HAL/src/alt_find_dev.c 
  // for details)
  alt_up_pixel_buffer_dma_dev *dev = (alt_up_pixel_buffer_dma_dev*)alt_find_dev(name, &alt_dev_list);
 100c110:	e13fff17 	ldw	r4,-4(fp)
 100c114:	01404074 	movhi	r5,257
 100c118:	29425404 	addi	r5,r5,2384
 100c11c:	100d9e80 	call	100d9e8 <alt_find_dev>
 100c120:	e0bffe15 	stw	r2,-8(fp)

  return dev;
 100c124:	e0bffe17 	ldw	r2,-8(fp)
}
 100c128:	e037883a 	mov	sp,fp
 100c12c:	dfc00117 	ldw	ra,4(sp)
 100c130:	df000017 	ldw	fp,0(sp)
 100c134:	dec00204 	addi	sp,sp,8
 100c138:	f800283a 	ret

0100c13c <alt_up_pixel_buffer_dma_draw>:

int alt_up_pixel_buffer_dma_draw(alt_up_pixel_buffer_dma_dev *pixel_buffer, unsigned int color, unsigned int x, unsigned int y)
/* This function draws a pixel to the back buffer.
 */
{
 100c13c:	defff804 	addi	sp,sp,-32
 100c140:	dfc00715 	stw	ra,28(sp)
 100c144:	df000615 	stw	fp,24(sp)
 100c148:	df000604 	addi	fp,sp,24
 100c14c:	e13ffb15 	stw	r4,-20(fp)
 100c150:	e17ffc15 	stw	r5,-16(fp)
 100c154:	e1bffd15 	stw	r6,-12(fp)
 100c158:	e1fffe15 	stw	r7,-8(fp)
	// boundary check
	if (x >= pixel_buffer->x_resolution || y >= pixel_buffer->y_resolution )
 100c15c:	e0bffb17 	ldw	r2,-20(fp)
 100c160:	10c00f17 	ldw	r3,60(r2)
 100c164:	e0bffd17 	ldw	r2,-12(fp)
 100c168:	10c0042e 	bgeu	r2,r3,100c17c <alt_up_pixel_buffer_dma_draw+0x40>
 100c16c:	e0bffb17 	ldw	r2,-20(fp)
 100c170:	10c01017 	ldw	r3,64(r2)
 100c174:	e0bffe17 	ldw	r2,-8(fp)
 100c178:	10c00336 	bltu	r2,r3,100c188 <alt_up_pixel_buffer_dma_draw+0x4c>
		return -1;
 100c17c:	00bfffc4 	movi	r2,-1
 100c180:	e0bfff15 	stw	r2,-4(fp)
 100c184:	00005206 	br	100c2d0 <alt_up_pixel_buffer_dma_draw+0x194>

	unsigned int addr = 0;
 100c188:	e03ffa15 	stw	zero,-24(fp)
	/* Check the mode VGA Pixel Buffer is using. */
	if (pixel_buffer->addressing_mode == ALT_UP_PIXEL_BUFFER_XY_ADDRESS_MODE) {
 100c18c:	e0bffb17 	ldw	r2,-20(fp)
 100c190:	10800d17 	ldw	r2,52(r2)
 100c194:	1004c03a 	cmpne	r2,r2,zero
 100c198:	1000151e 	bne	r2,zero,100c1f0 <alt_up_pixel_buffer_dma_draw+0xb4>
		/* For X-Y addressing mode, the address format is | unused | Y | X |. So shift bits for coordinates X and Y into their respective locations. */
		addr |= ((x & pixel_buffer->x_coord_mask) << pixel_buffer->x_coord_offset);
 100c19c:	e0bffb17 	ldw	r2,-20(fp)
 100c1a0:	10c01217 	ldw	r3,72(r2)
 100c1a4:	e0bffd17 	ldw	r2,-12(fp)
 100c1a8:	1886703a 	and	r3,r3,r2
 100c1ac:	e0bffb17 	ldw	r2,-20(fp)
 100c1b0:	10801117 	ldw	r2,68(r2)
 100c1b4:	1886983a 	sll	r3,r3,r2
 100c1b8:	e0bffa17 	ldw	r2,-24(fp)
 100c1bc:	10c4b03a 	or	r2,r2,r3
 100c1c0:	e0bffa15 	stw	r2,-24(fp)
		addr |= ((y & pixel_buffer->y_coord_mask) << pixel_buffer->y_coord_offset);
 100c1c4:	e0bffb17 	ldw	r2,-20(fp)
 100c1c8:	10c01417 	ldw	r3,80(r2)
 100c1cc:	e0bffe17 	ldw	r2,-8(fp)
 100c1d0:	1886703a 	and	r3,r3,r2
 100c1d4:	e0bffb17 	ldw	r2,-20(fp)
 100c1d8:	10801317 	ldw	r2,76(r2)
 100c1dc:	1886983a 	sll	r3,r3,r2
 100c1e0:	e0bffa17 	ldw	r2,-24(fp)
 100c1e4:	10c4b03a 	or	r2,r2,r3
 100c1e8:	e0bffa15 	stw	r2,-24(fp)
 100c1ec:	00001806 	br	100c250 <alt_up_pixel_buffer_dma_draw+0x114>
	} else {
		/* In a consecutive addressing mode, the pixels are stored in consecutive memory locations. So the address of a pixel at (x,y) can be computed as
		 * (y*x_resolution + x).*/
		addr += ((x & pixel_buffer->x_coord_mask) << pixel_buffer->x_coord_offset);
 100c1f0:	e0bffb17 	ldw	r2,-20(fp)
 100c1f4:	10c01217 	ldw	r3,72(r2)
 100c1f8:	e0bffd17 	ldw	r2,-12(fp)
 100c1fc:	1886703a 	and	r3,r3,r2
 100c200:	e0bffb17 	ldw	r2,-20(fp)
 100c204:	10801117 	ldw	r2,68(r2)
 100c208:	1886983a 	sll	r3,r3,r2
 100c20c:	e0bffa17 	ldw	r2,-24(fp)
 100c210:	10c5883a 	add	r2,r2,r3
 100c214:	e0bffa15 	stw	r2,-24(fp)
		addr += (((y & pixel_buffer->y_coord_mask) * pixel_buffer->x_resolution) << pixel_buffer->x_coord_offset);
 100c218:	e0bffb17 	ldw	r2,-20(fp)
 100c21c:	10c01417 	ldw	r3,80(r2)
 100c220:	e0bffe17 	ldw	r2,-8(fp)
 100c224:	1888703a 	and	r4,r3,r2
 100c228:	e0bffb17 	ldw	r2,-20(fp)
 100c22c:	11400f17 	ldw	r5,60(r2)
 100c230:	1009f0c0 	call	1009f0c <__mulsi3>
 100c234:	1007883a 	mov	r3,r2
 100c238:	e0bffb17 	ldw	r2,-20(fp)
 100c23c:	10801117 	ldw	r2,68(r2)
 100c240:	1886983a 	sll	r3,r3,r2
 100c244:	e0bffa17 	ldw	r2,-24(fp)
 100c248:	10c5883a 	add	r2,r2,r3
 100c24c:	e0bffa15 	stw	r2,-24(fp)
	}
	/* Now, depending on the color depth, write the pixel color to the specified memory location. */
	if (pixel_buffer->color_mode == ALT_UP_8BIT_COLOR_MODE) {
 100c250:	e0bffb17 	ldw	r2,-20(fp)
 100c254:	10800e17 	ldw	r2,56(r2)
 100c258:	10800058 	cmpnei	r2,r2,1
 100c25c:	1000081e 	bne	r2,zero,100c280 <alt_up_pixel_buffer_dma_draw+0x144>
		IOWR_8DIRECT(pixel_buffer->back_buffer_start_address, addr, color);
 100c260:	e0bffb17 	ldw	r2,-20(fp)
 100c264:	10800c17 	ldw	r2,48(r2)
 100c268:	1007883a 	mov	r3,r2
 100c26c:	e0bffa17 	ldw	r2,-24(fp)
 100c270:	1885883a 	add	r2,r3,r2
 100c274:	e0fffc17 	ldw	r3,-16(fp)
 100c278:	10c00025 	stbio	r3,0(r2)
 100c27c:	00001306 	br	100c2cc <alt_up_pixel_buffer_dma_draw+0x190>
	} else if (pixel_buffer->color_mode == ALT_UP_16BIT_COLOR_MODE) {
 100c280:	e0bffb17 	ldw	r2,-20(fp)
 100c284:	10800e17 	ldw	r2,56(r2)
 100c288:	10800098 	cmpnei	r2,r2,2
 100c28c:	1000081e 	bne	r2,zero,100c2b0 <alt_up_pixel_buffer_dma_draw+0x174>
		IOWR_16DIRECT(pixel_buffer->back_buffer_start_address, addr, color);
 100c290:	e0bffb17 	ldw	r2,-20(fp)
 100c294:	10800c17 	ldw	r2,48(r2)
 100c298:	1007883a 	mov	r3,r2
 100c29c:	e0bffa17 	ldw	r2,-24(fp)
 100c2a0:	1885883a 	add	r2,r3,r2
 100c2a4:	e0fffc17 	ldw	r3,-16(fp)
 100c2a8:	10c0002d 	sthio	r3,0(r2)
 100c2ac:	00000706 	br	100c2cc <alt_up_pixel_buffer_dma_draw+0x190>
	} else {
		IOWR_32DIRECT(pixel_buffer->back_buffer_start_address, addr, color);
 100c2b0:	e0bffb17 	ldw	r2,-20(fp)
 100c2b4:	10800c17 	ldw	r2,48(r2)
 100c2b8:	1007883a 	mov	r3,r2
 100c2bc:	e0bffa17 	ldw	r2,-24(fp)
 100c2c0:	1885883a 	add	r2,r3,r2
 100c2c4:	e0fffc17 	ldw	r3,-16(fp)
 100c2c8:	10c00035 	stwio	r3,0(r2)
	}

	return 0;
 100c2cc:	e03fff15 	stw	zero,-4(fp)
 100c2d0:	e0bfff17 	ldw	r2,-4(fp)
}
 100c2d4:	e037883a 	mov	sp,fp
 100c2d8:	dfc00117 	ldw	ra,4(sp)
 100c2dc:	df000017 	ldw	fp,0(sp)
 100c2e0:	dec00204 	addi	sp,sp,8
 100c2e4:	f800283a 	ret

0100c2e8 <alt_up_pixel_buffer_dma_change_back_buffer_address>:

int alt_up_pixel_buffer_dma_change_back_buffer_address(alt_up_pixel_buffer_dma_dev *pixel_buffer, unsigned int new_address)
/* This function changes the memory address for the back buffer. */
{
 100c2e8:	defffd04 	addi	sp,sp,-12
 100c2ec:	df000215 	stw	fp,8(sp)
 100c2f0:	df000204 	addi	fp,sp,8
 100c2f4:	e13ffe15 	stw	r4,-8(fp)
 100c2f8:	e17fff15 	stw	r5,-4(fp)
	IOWR_32DIRECT(pixel_buffer->base, 4, new_address);
 100c2fc:	e0bffe17 	ldw	r2,-8(fp)
 100c300:	10800a17 	ldw	r2,40(r2)
 100c304:	10800104 	addi	r2,r2,4
 100c308:	e0ffff17 	ldw	r3,-4(fp)
 100c30c:	10c00035 	stwio	r3,0(r2)
	pixel_buffer->back_buffer_start_address = IORD_32DIRECT(pixel_buffer->base, 4);
 100c310:	e0bffe17 	ldw	r2,-8(fp)
 100c314:	10800a17 	ldw	r2,40(r2)
 100c318:	10800104 	addi	r2,r2,4
 100c31c:	10800037 	ldwio	r2,0(r2)
 100c320:	1007883a 	mov	r3,r2
 100c324:	e0bffe17 	ldw	r2,-8(fp)
 100c328:	10c00c15 	stw	r3,48(r2)
	return 0;
 100c32c:	0005883a 	mov	r2,zero
}
 100c330:	e037883a 	mov	sp,fp
 100c334:	df000017 	ldw	fp,0(sp)
 100c338:	dec00104 	addi	sp,sp,4
 100c33c:	f800283a 	ret

0100c340 <alt_up_pixel_buffer_dma_swap_buffers>:

int alt_up_pixel_buffer_dma_swap_buffers(alt_up_pixel_buffer_dma_dev *pixel_buffer)
/* This function swaps the front and back buffers. At the next refresh cycle the back buffer will be drawn on the screen
 * and will become the front buffer. */
{
 100c340:	defffe04 	addi	sp,sp,-8
 100c344:	df000115 	stw	fp,4(sp)
 100c348:	df000104 	addi	fp,sp,4
 100c34c:	e13fff15 	stw	r4,-4(fp)
	register unsigned int temp = pixel_buffer->back_buffer_start_address;
 100c350:	e0bfff17 	ldw	r2,-4(fp)
 100c354:	11000c17 	ldw	r4,48(r2)
	IOWR_32DIRECT(pixel_buffer->base, 0, 1);
 100c358:	e0bfff17 	ldw	r2,-4(fp)
 100c35c:	10800a17 	ldw	r2,40(r2)
 100c360:	1007883a 	mov	r3,r2
 100c364:	00800044 	movi	r2,1
 100c368:	18800035 	stwio	r2,0(r3)
	pixel_buffer->back_buffer_start_address = pixel_buffer->buffer_start_address;
 100c36c:	e0bfff17 	ldw	r2,-4(fp)
 100c370:	10c00b17 	ldw	r3,44(r2)
 100c374:	e0bfff17 	ldw	r2,-4(fp)
 100c378:	10c00c15 	stw	r3,48(r2)
	pixel_buffer->buffer_start_address = temp;
 100c37c:	e0bfff17 	ldw	r2,-4(fp)
 100c380:	11000b15 	stw	r4,44(r2)
	return 0;
 100c384:	0005883a 	mov	r2,zero
}
 100c388:	e037883a 	mov	sp,fp
 100c38c:	df000017 	ldw	fp,0(sp)
 100c390:	dec00104 	addi	sp,sp,4
 100c394:	f800283a 	ret

0100c398 <alt_up_pixel_buffer_dma_check_swap_buffers_status>:
int alt_up_pixel_buffer_dma_check_swap_buffers_status(alt_up_pixel_buffer_dma_dev *pixel_buffer)
/* This function checks if the buffer swap has occured. Since the buffer swap only happens after an entire screen is drawn,
 * it is important to wait for this function to return 0 before proceeding to draw on either buffer. When both front and the back buffers
 * have the same address calling the alt_up_pixel_buffer_dma_swap_buffers(...) function and then waiting for this function to return 0, causes your program to
 * wait for the screen to refresh. */
{
 100c398:	defffe04 	addi	sp,sp,-8
 100c39c:	df000115 	stw	fp,4(sp)
 100c3a0:	df000104 	addi	fp,sp,4
 100c3a4:	e13fff15 	stw	r4,-4(fp)
	return (IORD_32DIRECT(pixel_buffer->base, 12) & 0x1);
 100c3a8:	e0bfff17 	ldw	r2,-4(fp)
 100c3ac:	10800a17 	ldw	r2,40(r2)
 100c3b0:	10800304 	addi	r2,r2,12
 100c3b4:	10800037 	ldwio	r2,0(r2)
 100c3b8:	1080004c 	andi	r2,r2,1
}
 100c3bc:	e037883a 	mov	sp,fp
 100c3c0:	df000017 	ldw	fp,0(sp)
 100c3c4:	dec00104 	addi	sp,sp,4
 100c3c8:	f800283a 	ret

0100c3cc <alt_up_pixel_buffer_dma_clear_screen>:

void alt_up_pixel_buffer_dma_clear_screen(alt_up_pixel_buffer_dma_dev *pixel_buffer, int backbuffer)
/* This function clears the screen by setting each pixel to a black color. */
{
 100c3cc:	defff504 	addi	sp,sp,-44
 100c3d0:	dfc00a15 	stw	ra,40(sp)
 100c3d4:	df000915 	stw	fp,36(sp)
 100c3d8:	df000904 	addi	fp,sp,36
 100c3dc:	e13ff715 	stw	r4,-36(fp)
 100c3e0:	e17ff815 	stw	r5,-32(fp)
	register unsigned int addr;
	register unsigned int limit_x, limit_y;
	
	/* Set up the address to start clearing from and the screen boundaries. */
	if (backbuffer == 1)
 100c3e4:	e0bff817 	ldw	r2,-32(fp)
 100c3e8:	10800058 	cmpnei	r2,r2,1
 100c3ec:	1000041e 	bne	r2,zero,100c400 <alt_up_pixel_buffer_dma_clear_screen+0x34>
		addr = pixel_buffer->back_buffer_start_address;
 100c3f0:	e0bff717 	ldw	r2,-36(fp)
 100c3f4:	10800c17 	ldw	r2,48(r2)
 100c3f8:	e0bfff15 	stw	r2,-4(fp)
 100c3fc:	00000306 	br	100c40c <alt_up_pixel_buffer_dma_clear_screen+0x40>
	else
		addr = pixel_buffer->buffer_start_address;
 100c400:	e0bff717 	ldw	r2,-36(fp)
 100c404:	10800b17 	ldw	r2,44(r2)
 100c408:	e0bfff15 	stw	r2,-4(fp)
	limit_x = pixel_buffer->x_resolution;
 100c40c:	e0bff717 	ldw	r2,-36(fp)
 100c410:	10800f17 	ldw	r2,60(r2)
 100c414:	e0bffe15 	stw	r2,-8(fp)
	/* In 16 and 32-bit color modes we use twice or four times more memory for the display buffer.*/
	if (pixel_buffer->color_mode == ALT_UP_16BIT_COLOR_MODE) {
 100c418:	e0bff717 	ldw	r2,-36(fp)
 100c41c:	10800e17 	ldw	r2,56(r2)
 100c420:	10800098 	cmpnei	r2,r2,2
 100c424:	1000051e 	bne	r2,zero,100c43c <alt_up_pixel_buffer_dma_clear_screen+0x70>
		limit_x = limit_x << 1;
 100c428:	e0fffe17 	ldw	r3,-8(fp)
 100c42c:	e0fffe17 	ldw	r3,-8(fp)
 100c430:	18c5883a 	add	r2,r3,r3
 100c434:	e0bffe15 	stw	r2,-8(fp)
 100c438:	00000506 	br	100c450 <alt_up_pixel_buffer_dma_clear_screen+0x84>
	} else {
		limit_x = limit_x << 2;
 100c43c:	e13ffe17 	ldw	r4,-8(fp)
 100c440:	e13ffe17 	ldw	r4,-8(fp)
 100c444:	2105883a 	add	r2,r4,r4
 100c448:	1085883a 	add	r2,r2,r2
 100c44c:	e0bffe15 	stw	r2,-8(fp)
	}	
	limit_y = pixel_buffer->y_resolution;
 100c450:	e0bff717 	ldw	r2,-36(fp)
 100c454:	10801017 	ldw	r2,64(r2)
 100c458:	e0bffd15 	stw	r2,-12(fp)

	if (pixel_buffer->addressing_mode == ALT_UP_PIXEL_BUFFER_XY_ADDRESS_MODE) {
 100c45c:	e0bff717 	ldw	r2,-36(fp)
 100c460:	10800d17 	ldw	r2,52(r2)
 100c464:	1004c03a 	cmpne	r2,r2,zero
 100c468:	10001e1e 	bne	r2,zero,100c4e4 <alt_up_pixel_buffer_dma_clear_screen+0x118>
		/* Clear the screen when the VGA is set up in an XY addressing mode. */
		register unsigned int x,y;
		register unsigned int offset_y;
		offset_y = pixel_buffer->y_coord_offset;
 100c46c:	e0bff717 	ldw	r2,-36(fp)
 100c470:	10801317 	ldw	r2,76(r2)
 100c474:	e0bffa15 	stw	r2,-24(fp)

		for (y = 0; y < limit_y; y++)
 100c478:	e03ffb15 	stw	zero,-20(fp)
 100c47c:	00001506 	br	100c4d4 <alt_up_pixel_buffer_dma_clear_screen+0x108>
		{
			for (x = 0; x < limit_x; x = x + 4)
 100c480:	e03ffc15 	stw	zero,-16(fp)
 100c484:	00000706 	br	100c4a4 <alt_up_pixel_buffer_dma_clear_screen+0xd8>
			{
				IOWR_32DIRECT(addr, x, 0);
 100c488:	e0ffff17 	ldw	r3,-4(fp)
 100c48c:	e0bffc17 	ldw	r2,-16(fp)
 100c490:	1885883a 	add	r2,r3,r2
 100c494:	10000035 	stwio	zero,0(r2)
		register unsigned int offset_y;
		offset_y = pixel_buffer->y_coord_offset;

		for (y = 0; y < limit_y; y++)
		{
			for (x = 0; x < limit_x; x = x + 4)
 100c498:	e0bffc17 	ldw	r2,-16(fp)
 100c49c:	10800104 	addi	r2,r2,4
 100c4a0:	e0bffc15 	stw	r2,-16(fp)
 100c4a4:	e0fffc17 	ldw	r3,-16(fp)
 100c4a8:	e13ffe17 	ldw	r4,-8(fp)
 100c4ac:	193ff636 	bltu	r3,r4,100c488 <alt_up_pixel_buffer_dma_clear_screen+0xbc>
			{
				IOWR_32DIRECT(addr, x, 0);
			}
			addr = addr + (1 << offset_y);
 100c4b0:	e0fffa17 	ldw	r3,-24(fp)
 100c4b4:	00800044 	movi	r2,1
 100c4b8:	10c4983a 	sll	r2,r2,r3
 100c4bc:	e0ffff17 	ldw	r3,-4(fp)
 100c4c0:	1887883a 	add	r3,r3,r2
 100c4c4:	e0ffff15 	stw	r3,-4(fp)
		/* Clear the screen when the VGA is set up in an XY addressing mode. */
		register unsigned int x,y;
		register unsigned int offset_y;
		offset_y = pixel_buffer->y_coord_offset;

		for (y = 0; y < limit_y; y++)
 100c4c8:	e13ffb17 	ldw	r4,-20(fp)
 100c4cc:	21000044 	addi	r4,r4,1
 100c4d0:	e13ffb15 	stw	r4,-20(fp)
 100c4d4:	e0bffb17 	ldw	r2,-20(fp)
 100c4d8:	e0fffd17 	ldw	r3,-12(fp)
 100c4dc:	10ffe836 	bltu	r2,r3,100c480 <alt_up_pixel_buffer_dma_clear_screen+0xb4>
 100c4e0:	00001006 	br	100c524 <alt_up_pixel_buffer_dma_clear_screen+0x158>
			addr = addr + (1 << offset_y);
		}
	} else {
		/* Clear the screen when the VGA is set up in a linear addressing mode. */
		register int x;
		limit_y = limit_x*limit_y;	
 100c4e4:	e13ffd17 	ldw	r4,-12(fp)
 100c4e8:	e17ffe17 	ldw	r5,-8(fp)
 100c4ec:	1009f0c0 	call	1009f0c <__mulsi3>
 100c4f0:	e0bffd15 	stw	r2,-12(fp)

		for (x = 0; x < limit_y; x = x + 4)
 100c4f4:	e03ff915 	stw	zero,-28(fp)
 100c4f8:	00000706 	br	100c518 <alt_up_pixel_buffer_dma_clear_screen+0x14c>
		{
			IOWR_32DIRECT(addr, x, 0);
 100c4fc:	e0ffff17 	ldw	r3,-4(fp)
 100c500:	e0bff917 	ldw	r2,-28(fp)
 100c504:	1885883a 	add	r2,r3,r2
 100c508:	10000035 	stwio	zero,0(r2)
	} else {
		/* Clear the screen when the VGA is set up in a linear addressing mode. */
		register int x;
		limit_y = limit_x*limit_y;	

		for (x = 0; x < limit_y; x = x + 4)
 100c50c:	e13ff917 	ldw	r4,-28(fp)
 100c510:	21000104 	addi	r4,r4,4
 100c514:	e13ff915 	stw	r4,-28(fp)
 100c518:	e0bff917 	ldw	r2,-28(fp)
 100c51c:	e0fffd17 	ldw	r3,-12(fp)
 100c520:	10fff636 	bltu	r2,r3,100c4fc <alt_up_pixel_buffer_dma_clear_screen+0x130>
		{
			IOWR_32DIRECT(addr, x, 0);
		}
	}
}
 100c524:	e037883a 	mov	sp,fp
 100c528:	dfc00117 	ldw	ra,4(sp)
 100c52c:	df000017 	ldw	fp,0(sp)
 100c530:	dec00204 	addi	sp,sp,8
 100c534:	f800283a 	ret

0100c538 <alt_up_pixel_buffer_dma_draw_box>:

void alt_up_pixel_buffer_dma_draw_box(alt_up_pixel_buffer_dma_dev *pixel_buffer, int x0, int y0, int x1, int y1, int color, int backbuffer)
/* This function draws a filled box. */
{
 100c538:	deffec04 	addi	sp,sp,-80
 100c53c:	dfc01315 	stw	ra,76(sp)
 100c540:	df001215 	stw	fp,72(sp)
 100c544:	df001204 	addi	fp,sp,72
 100c548:	e13fee15 	stw	r4,-72(fp)
 100c54c:	e17fef15 	stw	r5,-68(fp)
 100c550:	e1bff015 	stw	r6,-64(fp)
 100c554:	e1fff115 	stw	r7,-60(fp)
	register unsigned int addr;
	register unsigned int limit_x = pixel_buffer->x_resolution;
 100c558:	e0bfee17 	ldw	r2,-72(fp)
 100c55c:	10800f17 	ldw	r2,60(r2)
 100c560:	e0bffe15 	stw	r2,-8(fp)
	register unsigned int limit_y = pixel_buffer->y_resolution;
 100c564:	e0bfee17 	ldw	r2,-72(fp)
 100c568:	10801017 	ldw	r2,64(r2)
 100c56c:	e0bffd15 	stw	r2,-12(fp)
	register unsigned int temp;
	register unsigned int l_x = x0;
 100c570:	e0bfef17 	ldw	r2,-68(fp)
 100c574:	e0bffb15 	stw	r2,-20(fp)
	register unsigned int r_x = x1;
 100c578:	e0fff117 	ldw	r3,-60(fp)
 100c57c:	e0fffa15 	stw	r3,-24(fp)
	register unsigned int t_y = y0;
 100c580:	e13ff017 	ldw	r4,-64(fp)
 100c584:	e13ff915 	stw	r4,-28(fp)
	register unsigned int b_y = y1;
 100c588:	e0800217 	ldw	r2,8(fp)
 100c58c:	e0bff815 	stw	r2,-32(fp)
	register unsigned int local_color = color;
 100c590:	e0c00317 	ldw	r3,12(fp)
 100c594:	e0fff715 	stw	r3,-36(fp)
	
	/* Check coordinates */
	if (l_x > r_x)
 100c598:	e13ffa17 	ldw	r4,-24(fp)
 100c59c:	e0bffb17 	ldw	r2,-20(fp)
 100c5a0:	2080062e 	bgeu	r4,r2,100c5bc <alt_up_pixel_buffer_dma_draw_box+0x84>
	{
		temp = l_x;
 100c5a4:	e0fffb17 	ldw	r3,-20(fp)
 100c5a8:	e0fffc15 	stw	r3,-16(fp)
		l_x = r_x;
 100c5ac:	e13ffa17 	ldw	r4,-24(fp)
 100c5b0:	e13ffb15 	stw	r4,-20(fp)
		r_x = temp;
 100c5b4:	e0bffc17 	ldw	r2,-16(fp)
 100c5b8:	e0bffa15 	stw	r2,-24(fp)
	}
	if (t_y > b_y)
 100c5bc:	e0fff817 	ldw	r3,-32(fp)
 100c5c0:	e13ff917 	ldw	r4,-28(fp)
 100c5c4:	1900062e 	bgeu	r3,r4,100c5e0 <alt_up_pixel_buffer_dma_draw_box+0xa8>
	{
		temp = t_y;
 100c5c8:	e0bff917 	ldw	r2,-28(fp)
 100c5cc:	e0bffc15 	stw	r2,-16(fp)
		t_y = b_y;
 100c5d0:	e0fff817 	ldw	r3,-32(fp)
 100c5d4:	e0fff915 	stw	r3,-28(fp)
		b_y = temp;
 100c5d8:	e13ffc17 	ldw	r4,-16(fp)
 100c5dc:	e13ff815 	stw	r4,-32(fp)
	}
	if ((l_x >= limit_x) || (t_y >= limit_y) || (r_x < 0) || (b_y < 0))
 100c5e0:	e0bffb17 	ldw	r2,-20(fp)
 100c5e4:	e0fffe17 	ldw	r3,-8(fp)
 100c5e8:	10c10d2e 	bgeu	r2,r3,100ca20 <alt_up_pixel_buffer_dma_draw_box+0x4e8>
 100c5ec:	e13ff917 	ldw	r4,-28(fp)
 100c5f0:	e0bffd17 	ldw	r2,-12(fp)
 100c5f4:	20800136 	bltu	r4,r2,100c5fc <alt_up_pixel_buffer_dma_draw_box+0xc4>
	{
		/* Drawing outside of the window, so don't bother. */
		return;
 100c5f8:	00010906 	br	100ca20 <alt_up_pixel_buffer_dma_draw_box+0x4e8>
	/* Clip the box and draw only within the confines of the screen. */
	if (l_x < 0)
	{
		l_x = 0;
	}
	if (r_x >= limit_x)
 100c5fc:	e0fffa17 	ldw	r3,-24(fp)
 100c600:	e13ffe17 	ldw	r4,-8(fp)
 100c604:	19000336 	bltu	r3,r4,100c614 <alt_up_pixel_buffer_dma_draw_box+0xdc>
	{
		r_x = limit_x - 1;
 100c608:	e0bffe17 	ldw	r2,-8(fp)
 100c60c:	10bfffc4 	addi	r2,r2,-1
 100c610:	e0bffa15 	stw	r2,-24(fp)
	}
	if (t_y < 0)
	{
		t_y = 0;
	}
	if (b_y >= limit_y)
 100c614:	e0fff817 	ldw	r3,-32(fp)
 100c618:	e13ffd17 	ldw	r4,-12(fp)
 100c61c:	19000336 	bltu	r3,r4,100c62c <alt_up_pixel_buffer_dma_draw_box+0xf4>
	{
		b_y = limit_y - 1;
 100c620:	e0bffd17 	ldw	r2,-12(fp)
 100c624:	10bfffc4 	addi	r2,r2,-1
 100c628:	e0bff815 	stw	r2,-32(fp)
	}

	/* Set up the address to start clearing from and the screen boundaries. */
	if (backbuffer == 1)
 100c62c:	e0800417 	ldw	r2,16(fp)
 100c630:	10800058 	cmpnei	r2,r2,1
 100c634:	1000041e 	bne	r2,zero,100c648 <alt_up_pixel_buffer_dma_draw_box+0x110>
		addr = pixel_buffer->back_buffer_start_address;
 100c638:	e0bfee17 	ldw	r2,-72(fp)
 100c63c:	10800c17 	ldw	r2,48(r2)
 100c640:	e0bfff15 	stw	r2,-4(fp)
 100c644:	00000306 	br	100c654 <alt_up_pixel_buffer_dma_draw_box+0x11c>
	else
		addr = pixel_buffer->buffer_start_address;
 100c648:	e0bfee17 	ldw	r2,-72(fp)
 100c64c:	10800b17 	ldw	r2,44(r2)
 100c650:	e0bfff15 	stw	r2,-4(fp)

	/* Draw the box using one of the addressing modes. */
	if (pixel_buffer->addressing_mode == ALT_UP_PIXEL_BUFFER_XY_ADDRESS_MODE) {
 100c654:	e0bfee17 	ldw	r2,-72(fp)
 100c658:	10800d17 	ldw	r2,52(r2)
 100c65c:	1004c03a 	cmpne	r2,r2,zero
 100c660:	1000721e 	bne	r2,zero,100c82c <alt_up_pixel_buffer_dma_draw_box+0x2f4>
		/* Draw a box of a given color on the screen using the XY addressing mode. */
		register unsigned int x,y;
		register unsigned int offset_y;
		offset_y = pixel_buffer->y_coord_offset;
 100c664:	e0bfee17 	ldw	r2,-72(fp)
 100c668:	10801317 	ldw	r2,76(r2)
 100c66c:	e0bff415 	stw	r2,-48(fp)
		addr = addr + (t_y << offset_y);
 100c670:	e0bff417 	ldw	r2,-48(fp)
 100c674:	e0fff917 	ldw	r3,-28(fp)
 100c678:	1884983a 	sll	r2,r3,r2
 100c67c:	e13fff17 	ldw	r4,-4(fp)
 100c680:	2089883a 	add	r4,r4,r2
 100c684:	e13fff15 	stw	r4,-4(fp)
		
		/* This portion of the code is purposefully replicated. This is because having a text for
		 * the mode would unnecessarily slow down the drawing of a box. */
		if (pixel_buffer->color_mode == ALT_UP_8BIT_COLOR_MODE) {
 100c688:	e0bfee17 	ldw	r2,-72(fp)
 100c68c:	10800e17 	ldw	r2,56(r2)
 100c690:	10800058 	cmpnei	r2,r2,1
 100c694:	10001e1e 	bne	r2,zero,100c710 <alt_up_pixel_buffer_dma_draw_box+0x1d8>
			for (y = t_y; y <= b_y; y++)
 100c698:	e0bff917 	ldw	r2,-28(fp)
 100c69c:	e0bff515 	stw	r2,-44(fp)
 100c6a0:	00001706 	br	100c700 <alt_up_pixel_buffer_dma_draw_box+0x1c8>
			{
				for (x = l_x; x <= r_x; x++)
 100c6a4:	e0fffb17 	ldw	r3,-20(fp)
 100c6a8:	e0fff615 	stw	r3,-40(fp)
 100c6ac:	00000806 	br	100c6d0 <alt_up_pixel_buffer_dma_draw_box+0x198>
				{
					IOWR_8DIRECT(addr, x, local_color);
 100c6b0:	e0ffff17 	ldw	r3,-4(fp)
 100c6b4:	e0bff617 	ldw	r2,-40(fp)
 100c6b8:	1885883a 	add	r2,r3,r2
 100c6bc:	e0fff717 	ldw	r3,-36(fp)
 100c6c0:	10c00025 	stbio	r3,0(r2)
		/* This portion of the code is purposefully replicated. This is because having a text for
		 * the mode would unnecessarily slow down the drawing of a box. */
		if (pixel_buffer->color_mode == ALT_UP_8BIT_COLOR_MODE) {
			for (y = t_y; y <= b_y; y++)
			{
				for (x = l_x; x <= r_x; x++)
 100c6c4:	e13ff617 	ldw	r4,-40(fp)
 100c6c8:	21000044 	addi	r4,r4,1
 100c6cc:	e13ff615 	stw	r4,-40(fp)
 100c6d0:	e0bffa17 	ldw	r2,-24(fp)
 100c6d4:	e0fff617 	ldw	r3,-40(fp)
 100c6d8:	10fff52e 	bgeu	r2,r3,100c6b0 <alt_up_pixel_buffer_dma_draw_box+0x178>
				{
					IOWR_8DIRECT(addr, x, local_color);
				}
				addr = addr + (1 << offset_y);
 100c6dc:	e0fff417 	ldw	r3,-48(fp)
 100c6e0:	00800044 	movi	r2,1
 100c6e4:	10c4983a 	sll	r2,r2,r3
 100c6e8:	e13fff17 	ldw	r4,-4(fp)
 100c6ec:	2089883a 	add	r4,r4,r2
 100c6f0:	e13fff15 	stw	r4,-4(fp)
		addr = addr + (t_y << offset_y);
		
		/* This portion of the code is purposefully replicated. This is because having a text for
		 * the mode would unnecessarily slow down the drawing of a box. */
		if (pixel_buffer->color_mode == ALT_UP_8BIT_COLOR_MODE) {
			for (y = t_y; y <= b_y; y++)
 100c6f4:	e0bff517 	ldw	r2,-44(fp)
 100c6f8:	10800044 	addi	r2,r2,1
 100c6fc:	e0bff515 	stw	r2,-44(fp)
 100c700:	e0fff817 	ldw	r3,-32(fp)
 100c704:	e13ff517 	ldw	r4,-44(fp)
 100c708:	193fe62e 	bgeu	r3,r4,100c6a4 <alt_up_pixel_buffer_dma_draw_box+0x16c>
 100c70c:	0000c406 	br	100ca20 <alt_up_pixel_buffer_dma_draw_box+0x4e8>
				{
					IOWR_8DIRECT(addr, x, local_color);
				}
				addr = addr + (1 << offset_y);
			}
		} else if (pixel_buffer->color_mode == ALT_UP_16BIT_COLOR_MODE) {
 100c710:	e0bfee17 	ldw	r2,-72(fp)
 100c714:	10800e17 	ldw	r2,56(r2)
 100c718:	10800098 	cmpnei	r2,r2,2
 100c71c:	1000211e 	bne	r2,zero,100c7a4 <alt_up_pixel_buffer_dma_draw_box+0x26c>
			for (y = t_y; y <= b_y; y++)
 100c720:	e0bff917 	ldw	r2,-28(fp)
 100c724:	e0bff515 	stw	r2,-44(fp)
 100c728:	00001a06 	br	100c794 <alt_up_pixel_buffer_dma_draw_box+0x25c>
			{
				for (x = l_x; x <= r_x; x++)
 100c72c:	e0fffb17 	ldw	r3,-20(fp)
 100c730:	e0fff615 	stw	r3,-40(fp)
 100c734:	00000b06 	br	100c764 <alt_up_pixel_buffer_dma_draw_box+0x22c>
				{
					IOWR_16DIRECT(addr, x << 1, local_color);
 100c738:	e13ff617 	ldw	r4,-40(fp)
 100c73c:	e13ff617 	ldw	r4,-40(fp)
 100c740:	2105883a 	add	r2,r4,r4
 100c744:	1007883a 	mov	r3,r2
 100c748:	e0bfff17 	ldw	r2,-4(fp)
 100c74c:	1885883a 	add	r2,r3,r2
 100c750:	e0fff717 	ldw	r3,-36(fp)
 100c754:	10c0002d 	sthio	r3,0(r2)
				addr = addr + (1 << offset_y);
			}
		} else if (pixel_buffer->color_mode == ALT_UP_16BIT_COLOR_MODE) {
			for (y = t_y; y <= b_y; y++)
			{
				for (x = l_x; x <= r_x; x++)
 100c758:	e0bff617 	ldw	r2,-40(fp)
 100c75c:	10800044 	addi	r2,r2,1
 100c760:	e0bff615 	stw	r2,-40(fp)
 100c764:	e0fffa17 	ldw	r3,-24(fp)
 100c768:	e13ff617 	ldw	r4,-40(fp)
 100c76c:	193ff22e 	bgeu	r3,r4,100c738 <alt_up_pixel_buffer_dma_draw_box+0x200>
				{
					IOWR_16DIRECT(addr, x << 1, local_color);
				}
				addr = addr + (1 << offset_y);
 100c770:	e0fff417 	ldw	r3,-48(fp)
 100c774:	00800044 	movi	r2,1
 100c778:	10c4983a 	sll	r2,r2,r3
 100c77c:	e0ffff17 	ldw	r3,-4(fp)
 100c780:	1887883a 	add	r3,r3,r2
 100c784:	e0ffff15 	stw	r3,-4(fp)
					IOWR_8DIRECT(addr, x, local_color);
				}
				addr = addr + (1 << offset_y);
			}
		} else if (pixel_buffer->color_mode == ALT_UP_16BIT_COLOR_MODE) {
			for (y = t_y; y <= b_y; y++)
 100c788:	e13ff517 	ldw	r4,-44(fp)
 100c78c:	21000044 	addi	r4,r4,1
 100c790:	e13ff515 	stw	r4,-44(fp)
 100c794:	e0bff817 	ldw	r2,-32(fp)
 100c798:	e0fff517 	ldw	r3,-44(fp)
 100c79c:	10ffe32e 	bgeu	r2,r3,100c72c <alt_up_pixel_buffer_dma_draw_box+0x1f4>
 100c7a0:	00009f06 	br	100ca20 <alt_up_pixel_buffer_dma_draw_box+0x4e8>
				addr = addr + (1 << offset_y);
			}
		}
		else
		{
			for (y = t_y; y <= b_y; y++)
 100c7a4:	e13ff917 	ldw	r4,-28(fp)
 100c7a8:	e13ff515 	stw	r4,-44(fp)
 100c7ac:	00001b06 	br	100c81c <alt_up_pixel_buffer_dma_draw_box+0x2e4>
			{
				for (x = l_x; x <= r_x; x++)
 100c7b0:	e0bffb17 	ldw	r2,-20(fp)
 100c7b4:	e0bff615 	stw	r2,-40(fp)
 100c7b8:	00000c06 	br	100c7ec <alt_up_pixel_buffer_dma_draw_box+0x2b4>
				{
					IOWR_32DIRECT(addr, x << 2, local_color);
 100c7bc:	e0fff617 	ldw	r3,-40(fp)
 100c7c0:	e0fff617 	ldw	r3,-40(fp)
 100c7c4:	18c5883a 	add	r2,r3,r3
 100c7c8:	1085883a 	add	r2,r2,r2
 100c7cc:	1007883a 	mov	r3,r2
 100c7d0:	e0bfff17 	ldw	r2,-4(fp)
 100c7d4:	1885883a 	add	r2,r3,r2
 100c7d8:	e0fff717 	ldw	r3,-36(fp)
 100c7dc:	10c00035 	stwio	r3,0(r2)
		}
		else
		{
			for (y = t_y; y <= b_y; y++)
			{
				for (x = l_x; x <= r_x; x++)
 100c7e0:	e13ff617 	ldw	r4,-40(fp)
 100c7e4:	21000044 	addi	r4,r4,1
 100c7e8:	e13ff615 	stw	r4,-40(fp)
 100c7ec:	e0bffa17 	ldw	r2,-24(fp)
 100c7f0:	e0fff617 	ldw	r3,-40(fp)
 100c7f4:	10fff12e 	bgeu	r2,r3,100c7bc <alt_up_pixel_buffer_dma_draw_box+0x284>
				{
					IOWR_32DIRECT(addr, x << 2, local_color);
				}
				addr = addr + (1 << offset_y);
 100c7f8:	e0fff417 	ldw	r3,-48(fp)
 100c7fc:	00800044 	movi	r2,1
 100c800:	10c4983a 	sll	r2,r2,r3
 100c804:	e13fff17 	ldw	r4,-4(fp)
 100c808:	2089883a 	add	r4,r4,r2
 100c80c:	e13fff15 	stw	r4,-4(fp)
				addr = addr + (1 << offset_y);
			}
		}
		else
		{
			for (y = t_y; y <= b_y; y++)
 100c810:	e0bff517 	ldw	r2,-44(fp)
 100c814:	10800044 	addi	r2,r2,1
 100c818:	e0bff515 	stw	r2,-44(fp)
 100c81c:	e0fff817 	ldw	r3,-32(fp)
 100c820:	e13ff517 	ldw	r4,-44(fp)
 100c824:	193fe22e 	bgeu	r3,r4,100c7b0 <alt_up_pixel_buffer_dma_draw_box+0x278>
 100c828:	00007d06 	br	100ca20 <alt_up_pixel_buffer_dma_draw_box+0x4e8>
	} else {
		/* Draw a box of a given color on the screen using the linear addressing mode. */
		register unsigned int x,y;
		/* This portion of the code is purposefully replicated. This is because having a text for
		 * the mode would unnecessarily slow down the drawing of a box. */
		if (pixel_buffer->color_mode == ALT_UP_8BIT_COLOR_MODE) {
 100c82c:	e0bfee17 	ldw	r2,-72(fp)
 100c830:	10800e17 	ldw	r2,56(r2)
 100c834:	10800058 	cmpnei	r2,r2,1
 100c838:	1000221e 	bne	r2,zero,100c8c4 <alt_up_pixel_buffer_dma_draw_box+0x38c>
			addr = addr + t_y * limit_x;
 100c83c:	e13ff917 	ldw	r4,-28(fp)
 100c840:	e17ffe17 	ldw	r5,-8(fp)
 100c844:	1009f0c0 	call	1009f0c <__mulsi3>
 100c848:	e0ffff17 	ldw	r3,-4(fp)
 100c84c:	1887883a 	add	r3,r3,r2
 100c850:	e0ffff15 	stw	r3,-4(fp)
			for (y = t_y; y <= b_y; y++)
 100c854:	e13ff917 	ldw	r4,-28(fp)
 100c858:	e13ff215 	stw	r4,-56(fp)
 100c85c:	00001506 	br	100c8b4 <alt_up_pixel_buffer_dma_draw_box+0x37c>
			{
				for (x = l_x; x <= r_x; x++)
 100c860:	e0bffb17 	ldw	r2,-20(fp)
 100c864:	e0bff315 	stw	r2,-52(fp)
 100c868:	00000806 	br	100c88c <alt_up_pixel_buffer_dma_draw_box+0x354>
				{
					IOWR_8DIRECT(addr, x, local_color);
 100c86c:	e0ffff17 	ldw	r3,-4(fp)
 100c870:	e0bff317 	ldw	r2,-52(fp)
 100c874:	1885883a 	add	r2,r3,r2
 100c878:	e0fff717 	ldw	r3,-36(fp)
 100c87c:	10c00025 	stbio	r3,0(r2)
		 * the mode would unnecessarily slow down the drawing of a box. */
		if (pixel_buffer->color_mode == ALT_UP_8BIT_COLOR_MODE) {
			addr = addr + t_y * limit_x;
			for (y = t_y; y <= b_y; y++)
			{
				for (x = l_x; x <= r_x; x++)
 100c880:	e0fff317 	ldw	r3,-52(fp)
 100c884:	18c00044 	addi	r3,r3,1
 100c888:	e0fff315 	stw	r3,-52(fp)
 100c88c:	e13ffa17 	ldw	r4,-24(fp)
 100c890:	e0bff317 	ldw	r2,-52(fp)
 100c894:	20bff52e 	bgeu	r4,r2,100c86c <alt_up_pixel_buffer_dma_draw_box+0x334>
				{
					IOWR_8DIRECT(addr, x, local_color);
				}
				addr = addr + limit_x;
 100c898:	e0ffff17 	ldw	r3,-4(fp)
 100c89c:	e13ffe17 	ldw	r4,-8(fp)
 100c8a0:	1907883a 	add	r3,r3,r4
 100c8a4:	e0ffff15 	stw	r3,-4(fp)
		register unsigned int x,y;
		/* This portion of the code is purposefully replicated. This is because having a text for
		 * the mode would unnecessarily slow down the drawing of a box. */
		if (pixel_buffer->color_mode == ALT_UP_8BIT_COLOR_MODE) {
			addr = addr + t_y * limit_x;
			for (y = t_y; y <= b_y; y++)
 100c8a8:	e0bff217 	ldw	r2,-56(fp)
 100c8ac:	10800044 	addi	r2,r2,1
 100c8b0:	e0bff215 	stw	r2,-56(fp)
 100c8b4:	e0fff817 	ldw	r3,-32(fp)
 100c8b8:	e13ff217 	ldw	r4,-56(fp)
 100c8bc:	193fe82e 	bgeu	r3,r4,100c860 <alt_up_pixel_buffer_dma_draw_box+0x328>
 100c8c0:	00005706 	br	100ca20 <alt_up_pixel_buffer_dma_draw_box+0x4e8>
				{
					IOWR_8DIRECT(addr, x, local_color);
				}
				addr = addr + limit_x;
			}
		} else if (pixel_buffer->color_mode == ALT_UP_16BIT_COLOR_MODE) {
 100c8c4:	e0bfee17 	ldw	r2,-72(fp)
 100c8c8:	10800e17 	ldw	r2,56(r2)
 100c8cc:	10800098 	cmpnei	r2,r2,2
 100c8d0:	1000291e 	bne	r2,zero,100c978 <alt_up_pixel_buffer_dma_draw_box+0x440>
			limit_x = limit_x << 1;
 100c8d4:	e0fffe17 	ldw	r3,-8(fp)
 100c8d8:	e0fffe17 	ldw	r3,-8(fp)
 100c8dc:	18c5883a 	add	r2,r3,r3
 100c8e0:	e0bffe15 	stw	r2,-8(fp)
			addr = addr + t_y * limit_x;
 100c8e4:	e13ff917 	ldw	r4,-28(fp)
 100c8e8:	e17ffe17 	ldw	r5,-8(fp)
 100c8ec:	1009f0c0 	call	1009f0c <__mulsi3>
 100c8f0:	e13fff17 	ldw	r4,-4(fp)
 100c8f4:	2089883a 	add	r4,r4,r2
 100c8f8:	e13fff15 	stw	r4,-4(fp)
			for (y = t_y; y <= b_y; y++)
 100c8fc:	e0bff917 	ldw	r2,-28(fp)
 100c900:	e0bff215 	stw	r2,-56(fp)
 100c904:	00001806 	br	100c968 <alt_up_pixel_buffer_dma_draw_box+0x430>
			{
				for (x = l_x; x <= r_x; x++)
 100c908:	e0fffb17 	ldw	r3,-20(fp)
 100c90c:	e0fff315 	stw	r3,-52(fp)
 100c910:	00000b06 	br	100c940 <alt_up_pixel_buffer_dma_draw_box+0x408>
				{
					IOWR_16DIRECT(addr, x << 1, local_color);
 100c914:	e13ff317 	ldw	r4,-52(fp)
 100c918:	e13ff317 	ldw	r4,-52(fp)
 100c91c:	2105883a 	add	r2,r4,r4
 100c920:	1007883a 	mov	r3,r2
 100c924:	e0bfff17 	ldw	r2,-4(fp)
 100c928:	1885883a 	add	r2,r3,r2
 100c92c:	e0fff717 	ldw	r3,-36(fp)
 100c930:	10c0002d 	sthio	r3,0(r2)
		} else if (pixel_buffer->color_mode == ALT_UP_16BIT_COLOR_MODE) {
			limit_x = limit_x << 1;
			addr = addr + t_y * limit_x;
			for (y = t_y; y <= b_y; y++)
			{
				for (x = l_x; x <= r_x; x++)
 100c934:	e0bff317 	ldw	r2,-52(fp)
 100c938:	10800044 	addi	r2,r2,1
 100c93c:	e0bff315 	stw	r2,-52(fp)
 100c940:	e0fffa17 	ldw	r3,-24(fp)
 100c944:	e13ff317 	ldw	r4,-52(fp)
 100c948:	193ff22e 	bgeu	r3,r4,100c914 <alt_up_pixel_buffer_dma_draw_box+0x3dc>
				{
					IOWR_16DIRECT(addr, x << 1, local_color);
				}
				addr = addr + limit_x;
 100c94c:	e0bfff17 	ldw	r2,-4(fp)
 100c950:	e0fffe17 	ldw	r3,-8(fp)
 100c954:	10c5883a 	add	r2,r2,r3
 100c958:	e0bfff15 	stw	r2,-4(fp)
				addr = addr + limit_x;
			}
		} else if (pixel_buffer->color_mode == ALT_UP_16BIT_COLOR_MODE) {
			limit_x = limit_x << 1;
			addr = addr + t_y * limit_x;
			for (y = t_y; y <= b_y; y++)
 100c95c:	e13ff217 	ldw	r4,-56(fp)
 100c960:	21000044 	addi	r4,r4,1
 100c964:	e13ff215 	stw	r4,-56(fp)
 100c968:	e0bff817 	ldw	r2,-32(fp)
 100c96c:	e0fff217 	ldw	r3,-56(fp)
 100c970:	10ffe52e 	bgeu	r2,r3,100c908 <alt_up_pixel_buffer_dma_draw_box+0x3d0>
 100c974:	00002a06 	br	100ca20 <alt_up_pixel_buffer_dma_draw_box+0x4e8>
				addr = addr + limit_x;
			}
		}
		else
		{
			limit_x = limit_x << 2;
 100c978:	e13ffe17 	ldw	r4,-8(fp)
 100c97c:	e13ffe17 	ldw	r4,-8(fp)
 100c980:	2105883a 	add	r2,r4,r4
 100c984:	1085883a 	add	r2,r2,r2
 100c988:	e0bffe15 	stw	r2,-8(fp)
			addr = addr + t_y * limit_x;
 100c98c:	e13ff917 	ldw	r4,-28(fp)
 100c990:	e17ffe17 	ldw	r5,-8(fp)
 100c994:	1009f0c0 	call	1009f0c <__mulsi3>
 100c998:	e0ffff17 	ldw	r3,-4(fp)
 100c99c:	1887883a 	add	r3,r3,r2
 100c9a0:	e0ffff15 	stw	r3,-4(fp)
			for (y = t_y; y <= b_y; y++)
 100c9a4:	e13ff917 	ldw	r4,-28(fp)
 100c9a8:	e13ff215 	stw	r4,-56(fp)
 100c9ac:	00001906 	br	100ca14 <alt_up_pixel_buffer_dma_draw_box+0x4dc>
			{
				for (x = l_x; x <= r_x; x++)
 100c9b0:	e0bffb17 	ldw	r2,-20(fp)
 100c9b4:	e0bff315 	stw	r2,-52(fp)
 100c9b8:	00000c06 	br	100c9ec <alt_up_pixel_buffer_dma_draw_box+0x4b4>
				{
					IOWR_32DIRECT(addr, x << 2, local_color);
 100c9bc:	e0fff317 	ldw	r3,-52(fp)
 100c9c0:	e0fff317 	ldw	r3,-52(fp)
 100c9c4:	18c5883a 	add	r2,r3,r3
 100c9c8:	1085883a 	add	r2,r2,r2
 100c9cc:	1007883a 	mov	r3,r2
 100c9d0:	e0bfff17 	ldw	r2,-4(fp)
 100c9d4:	1885883a 	add	r2,r3,r2
 100c9d8:	e0fff717 	ldw	r3,-36(fp)
 100c9dc:	10c00035 	stwio	r3,0(r2)
		{
			limit_x = limit_x << 2;
			addr = addr + t_y * limit_x;
			for (y = t_y; y <= b_y; y++)
			{
				for (x = l_x; x <= r_x; x++)
 100c9e0:	e13ff317 	ldw	r4,-52(fp)
 100c9e4:	21000044 	addi	r4,r4,1
 100c9e8:	e13ff315 	stw	r4,-52(fp)
 100c9ec:	e0bffa17 	ldw	r2,-24(fp)
 100c9f0:	e0fff317 	ldw	r3,-52(fp)
 100c9f4:	10fff12e 	bgeu	r2,r3,100c9bc <alt_up_pixel_buffer_dma_draw_box+0x484>
				{
					IOWR_32DIRECT(addr, x << 2, local_color);
				}
				addr = addr + limit_x;
 100c9f8:	e13fff17 	ldw	r4,-4(fp)
 100c9fc:	e0bffe17 	ldw	r2,-8(fp)
 100ca00:	2089883a 	add	r4,r4,r2
 100ca04:	e13fff15 	stw	r4,-4(fp)
		}
		else
		{
			limit_x = limit_x << 2;
			addr = addr + t_y * limit_x;
			for (y = t_y; y <= b_y; y++)
 100ca08:	e0fff217 	ldw	r3,-56(fp)
 100ca0c:	18c00044 	addi	r3,r3,1
 100ca10:	e0fff215 	stw	r3,-56(fp)
 100ca14:	e13ff817 	ldw	r4,-32(fp)
 100ca18:	e0bff217 	ldw	r2,-56(fp)
 100ca1c:	20bfe42e 	bgeu	r4,r2,100c9b0 <alt_up_pixel_buffer_dma_draw_box+0x478>
				}
				addr = addr + limit_x;
			}
		}
	}
}
 100ca20:	e037883a 	mov	sp,fp
 100ca24:	dfc00117 	ldw	ra,4(sp)
 100ca28:	df000017 	ldw	fp,0(sp)
 100ca2c:	dec00204 	addi	sp,sp,8
 100ca30:	f800283a 	ret

0100ca34 <alt_up_pixel_buffer_dma_draw_hline>:

void alt_up_pixel_buffer_dma_draw_hline(alt_up_pixel_buffer_dma_dev *pixel_buffer, int x0, int x1, int y, int color, int backbuffer)
/* This method draws a horizontal line. This method is faster than using the line method because we know the direction of the line. */
{
 100ca34:	defff104 	addi	sp,sp,-60
 100ca38:	dfc00e15 	stw	ra,56(sp)
 100ca3c:	df000d15 	stw	fp,52(sp)
 100ca40:	df000d04 	addi	fp,sp,52
 100ca44:	e13ff315 	stw	r4,-52(fp)
 100ca48:	e17ff415 	stw	r5,-48(fp)
 100ca4c:	e1bff515 	stw	r6,-44(fp)
 100ca50:	e1fff615 	stw	r7,-40(fp)
	register unsigned int addr;
	register unsigned int limit_x = pixel_buffer->x_resolution;
 100ca54:	e0bff317 	ldw	r2,-52(fp)
 100ca58:	10800f17 	ldw	r2,60(r2)
 100ca5c:	e0bffe15 	stw	r2,-8(fp)
	register unsigned int limit_y = pixel_buffer->y_resolution;
 100ca60:	e0bff317 	ldw	r2,-52(fp)
 100ca64:	10801017 	ldw	r2,64(r2)
 100ca68:	e0bffd15 	stw	r2,-12(fp)
	register unsigned int temp;
	register unsigned int l_x = x0;
 100ca6c:	e0bff417 	ldw	r2,-48(fp)
 100ca70:	e0bffc15 	stw	r2,-16(fp)
	register unsigned int r_x = x1;
 100ca74:	e0fff517 	ldw	r3,-44(fp)
 100ca78:	e0fffb15 	stw	r3,-20(fp)
	register unsigned int line_y = y;
 100ca7c:	e13ff617 	ldw	r4,-40(fp)
 100ca80:	e13ffa15 	stw	r4,-24(fp)
	register unsigned int local_color = color;
 100ca84:	e0800217 	ldw	r2,8(fp)
 100ca88:	e0bff915 	stw	r2,-28(fp)
	
	/* Check coordinates */
	if (l_x > r_x)
 100ca8c:	e0fffb17 	ldw	r3,-20(fp)
 100ca90:	e13ffc17 	ldw	r4,-16(fp)
 100ca94:	1900042e 	bgeu	r3,r4,100caa8 <alt_up_pixel_buffer_dma_draw_hline+0x74>
	{
		temp = l_x;
 100ca98:	e0bffc17 	ldw	r2,-16(fp)
		l_x = r_x;
 100ca9c:	e0fffb17 	ldw	r3,-20(fp)
 100caa0:	e0fffc15 	stw	r3,-16(fp)
		r_x = temp;
 100caa4:	e0bffb15 	stw	r2,-20(fp)
	}
	if ((l_x >= limit_x) || (line_y >= limit_y) || (r_x < 0) || (line_y < 0))
 100caa8:	e13ffc17 	ldw	r4,-16(fp)
 100caac:	e0bffe17 	ldw	r2,-8(fp)
 100cab0:	2080b12e 	bgeu	r4,r2,100cd78 <alt_up_pixel_buffer_dma_draw_hline+0x344>
 100cab4:	e13ffa17 	ldw	r4,-24(fp)
 100cab8:	e0fffd17 	ldw	r3,-12(fp)
 100cabc:	20c00136 	bltu	r4,r3,100cac4 <alt_up_pixel_buffer_dma_draw_hline+0x90>
	{
		/* Drawing outside of the window, so don't bother. */
		return;
 100cac0:	0000ad06 	br	100cd78 <alt_up_pixel_buffer_dma_draw_hline+0x344>
	/* Clip the box and draw only within the confines of the screen. */
	if (l_x < 0)
	{
		l_x = 0;
	}
	if (r_x >= limit_x)
 100cac4:	e0bffb17 	ldw	r2,-20(fp)
 100cac8:	e0fffe17 	ldw	r3,-8(fp)
 100cacc:	10c00336 	bltu	r2,r3,100cadc <alt_up_pixel_buffer_dma_draw_hline+0xa8>
	{
		r_x = limit_x - 1;
 100cad0:	e13ffe17 	ldw	r4,-8(fp)
 100cad4:	213fffc4 	addi	r4,r4,-1
 100cad8:	e13ffb15 	stw	r4,-20(fp)
	}

	/* Set up the address to start clearing from and the screen boundaries. */
	if (backbuffer == 1)
 100cadc:	e0800317 	ldw	r2,12(fp)
 100cae0:	10800058 	cmpnei	r2,r2,1
 100cae4:	1000041e 	bne	r2,zero,100caf8 <alt_up_pixel_buffer_dma_draw_hline+0xc4>
		addr = pixel_buffer->back_buffer_start_address;
 100cae8:	e0bff317 	ldw	r2,-52(fp)
 100caec:	10800c17 	ldw	r2,48(r2)
 100caf0:	e0bfff15 	stw	r2,-4(fp)
 100caf4:	00000306 	br	100cb04 <alt_up_pixel_buffer_dma_draw_hline+0xd0>
	else
		addr = pixel_buffer->buffer_start_address;
 100caf8:	e0bff317 	ldw	r2,-52(fp)
 100cafc:	10800b17 	ldw	r2,44(r2)
 100cb00:	e0bfff15 	stw	r2,-4(fp)

	/* Draw a horizontal line using one of the addressing modes. */
	if (pixel_buffer->addressing_mode == ALT_UP_PIXEL_BUFFER_XY_ADDRESS_MODE) {
 100cb04:	e0bff317 	ldw	r2,-52(fp)
 100cb08:	10800d17 	ldw	r2,52(r2)
 100cb0c:	1004c03a 	cmpne	r2,r2,zero
 100cb10:	1000431e 	bne	r2,zero,100cc20 <alt_up_pixel_buffer_dma_draw_hline+0x1ec>
		/* Draw a horizontal line of a given color on the screen using the XY addressing mode. */
		register unsigned int x;
		register unsigned int offset_y;
		offset_y = pixel_buffer->y_coord_offset;
 100cb14:	e0bff317 	ldw	r2,-52(fp)
 100cb18:	10801317 	ldw	r2,76(r2)
		addr = addr + (line_y << offset_y);
 100cb1c:	e0fffa17 	ldw	r3,-24(fp)
 100cb20:	1884983a 	sll	r2,r3,r2
 100cb24:	e13fff17 	ldw	r4,-4(fp)
 100cb28:	2089883a 	add	r4,r4,r2
 100cb2c:	e13fff15 	stw	r4,-4(fp)
		
		/* This portion of the code is purposefully replicated. This is because having a text for
		 * the mode would unnecessarily slow down the drawing of a horizontal line. */
		if (pixel_buffer->color_mode == ALT_UP_8BIT_COLOR_MODE) {
 100cb30:	e0bff317 	ldw	r2,-52(fp)
 100cb34:	10800e17 	ldw	r2,56(r2)
 100cb38:	10800058 	cmpnei	r2,r2,1
 100cb3c:	10000f1e 	bne	r2,zero,100cb7c <alt_up_pixel_buffer_dma_draw_hline+0x148>
			for (x = l_x; x <= r_x; x++)
 100cb40:	e0bffc17 	ldw	r2,-16(fp)
 100cb44:	e0bff815 	stw	r2,-32(fp)
 100cb48:	00000806 	br	100cb6c <alt_up_pixel_buffer_dma_draw_hline+0x138>
			{
				IOWR_8DIRECT(addr, x, local_color);
 100cb4c:	e0ffff17 	ldw	r3,-4(fp)
 100cb50:	e0bff817 	ldw	r2,-32(fp)
 100cb54:	1885883a 	add	r2,r3,r2
 100cb58:	e0fff917 	ldw	r3,-28(fp)
 100cb5c:	10c00025 	stbio	r3,0(r2)
		addr = addr + (line_y << offset_y);
		
		/* This portion of the code is purposefully replicated. This is because having a text for
		 * the mode would unnecessarily slow down the drawing of a horizontal line. */
		if (pixel_buffer->color_mode == ALT_UP_8BIT_COLOR_MODE) {
			for (x = l_x; x <= r_x; x++)
 100cb60:	e0fff817 	ldw	r3,-32(fp)
 100cb64:	18c00044 	addi	r3,r3,1
 100cb68:	e0fff815 	stw	r3,-32(fp)
 100cb6c:	e13ffb17 	ldw	r4,-20(fp)
 100cb70:	e0bff817 	ldw	r2,-32(fp)
 100cb74:	20bff52e 	bgeu	r4,r2,100cb4c <alt_up_pixel_buffer_dma_draw_hline+0x118>
 100cb78:	00007f06 	br	100cd78 <alt_up_pixel_buffer_dma_draw_hline+0x344>
			{
				IOWR_8DIRECT(addr, x, local_color);
			}
		} else if (pixel_buffer->color_mode == ALT_UP_16BIT_COLOR_MODE) {
 100cb7c:	e0bff317 	ldw	r2,-52(fp)
 100cb80:	10800e17 	ldw	r2,56(r2)
 100cb84:	10800098 	cmpnei	r2,r2,2
 100cb88:	1000121e 	bne	r2,zero,100cbd4 <alt_up_pixel_buffer_dma_draw_hline+0x1a0>
			for (x = l_x; x <= r_x; x++)
 100cb8c:	e0fffc17 	ldw	r3,-16(fp)
 100cb90:	e0fff815 	stw	r3,-32(fp)
 100cb94:	00000b06 	br	100cbc4 <alt_up_pixel_buffer_dma_draw_hline+0x190>
			{
				IOWR_16DIRECT(addr, x << 1, local_color);
 100cb98:	e13ff817 	ldw	r4,-32(fp)
 100cb9c:	e13ff817 	ldw	r4,-32(fp)
 100cba0:	2105883a 	add	r2,r4,r4
 100cba4:	1007883a 	mov	r3,r2
 100cba8:	e0bfff17 	ldw	r2,-4(fp)
 100cbac:	1885883a 	add	r2,r3,r2
 100cbb0:	e0fff917 	ldw	r3,-28(fp)
 100cbb4:	10c0002d 	sthio	r3,0(r2)
			for (x = l_x; x <= r_x; x++)
			{
				IOWR_8DIRECT(addr, x, local_color);
			}
		} else if (pixel_buffer->color_mode == ALT_UP_16BIT_COLOR_MODE) {
			for (x = l_x; x <= r_x; x++)
 100cbb8:	e0bff817 	ldw	r2,-32(fp)
 100cbbc:	10800044 	addi	r2,r2,1
 100cbc0:	e0bff815 	stw	r2,-32(fp)
 100cbc4:	e0fffb17 	ldw	r3,-20(fp)
 100cbc8:	e13ff817 	ldw	r4,-32(fp)
 100cbcc:	193ff22e 	bgeu	r3,r4,100cb98 <alt_up_pixel_buffer_dma_draw_hline+0x164>
 100cbd0:	00006906 	br	100cd78 <alt_up_pixel_buffer_dma_draw_hline+0x344>
				IOWR_16DIRECT(addr, x << 1, local_color);
			}
		}
		else
		{
			for (x = l_x; x <= r_x; x++)
 100cbd4:	e0bffc17 	ldw	r2,-16(fp)
 100cbd8:	e0bff815 	stw	r2,-32(fp)
 100cbdc:	00000c06 	br	100cc10 <alt_up_pixel_buffer_dma_draw_hline+0x1dc>
			{
				IOWR_32DIRECT(addr, x << 2, local_color);
 100cbe0:	e0fff817 	ldw	r3,-32(fp)
 100cbe4:	e0fff817 	ldw	r3,-32(fp)
 100cbe8:	18c5883a 	add	r2,r3,r3
 100cbec:	1085883a 	add	r2,r2,r2
 100cbf0:	1007883a 	mov	r3,r2
 100cbf4:	e0bfff17 	ldw	r2,-4(fp)
 100cbf8:	1885883a 	add	r2,r3,r2
 100cbfc:	e0fff917 	ldw	r3,-28(fp)
 100cc00:	10c00035 	stwio	r3,0(r2)
				IOWR_16DIRECT(addr, x << 1, local_color);
			}
		}
		else
		{
			for (x = l_x; x <= r_x; x++)
 100cc04:	e13ff817 	ldw	r4,-32(fp)
 100cc08:	21000044 	addi	r4,r4,1
 100cc0c:	e13ff815 	stw	r4,-32(fp)
 100cc10:	e0bffb17 	ldw	r2,-20(fp)
 100cc14:	e0fff817 	ldw	r3,-32(fp)
 100cc18:	10fff12e 	bgeu	r2,r3,100cbe0 <alt_up_pixel_buffer_dma_draw_hline+0x1ac>
 100cc1c:	00005606 	br	100cd78 <alt_up_pixel_buffer_dma_draw_hline+0x344>
	} else {
		/* Draw a horizontal line of a given color on the screen using the linear addressing mode. */
		register unsigned int x;
		/* This portion of the code is purposefully replicated. This is because having a text for
		 * the mode would unnecessarily slow down the drawing of a box. */
		if (pixel_buffer->color_mode == ALT_UP_8BIT_COLOR_MODE) {
 100cc20:	e0bff317 	ldw	r2,-52(fp)
 100cc24:	10800e17 	ldw	r2,56(r2)
 100cc28:	10800058 	cmpnei	r2,r2,1
 100cc2c:	1000151e 	bne	r2,zero,100cc84 <alt_up_pixel_buffer_dma_draw_hline+0x250>
			addr = addr + line_y * limit_x;
 100cc30:	e13ffa17 	ldw	r4,-24(fp)
 100cc34:	e17ffe17 	ldw	r5,-8(fp)
 100cc38:	1009f0c0 	call	1009f0c <__mulsi3>
 100cc3c:	e13fff17 	ldw	r4,-4(fp)
 100cc40:	2089883a 	add	r4,r4,r2
 100cc44:	e13fff15 	stw	r4,-4(fp)
			for (x = l_x; x <= r_x; x++)
 100cc48:	e0bffc17 	ldw	r2,-16(fp)
 100cc4c:	e0bff715 	stw	r2,-36(fp)
 100cc50:	00000806 	br	100cc74 <alt_up_pixel_buffer_dma_draw_hline+0x240>
			{
				IOWR_8DIRECT(addr, x, local_color);
 100cc54:	e0ffff17 	ldw	r3,-4(fp)
 100cc58:	e0bff717 	ldw	r2,-36(fp)
 100cc5c:	1885883a 	add	r2,r3,r2
 100cc60:	e0fff917 	ldw	r3,-28(fp)
 100cc64:	10c00025 	stbio	r3,0(r2)
		register unsigned int x;
		/* This portion of the code is purposefully replicated. This is because having a text for
		 * the mode would unnecessarily slow down the drawing of a box. */
		if (pixel_buffer->color_mode == ALT_UP_8BIT_COLOR_MODE) {
			addr = addr + line_y * limit_x;
			for (x = l_x; x <= r_x; x++)
 100cc68:	e0fff717 	ldw	r3,-36(fp)
 100cc6c:	18c00044 	addi	r3,r3,1
 100cc70:	e0fff715 	stw	r3,-36(fp)
 100cc74:	e13ffb17 	ldw	r4,-20(fp)
 100cc78:	e0bff717 	ldw	r2,-36(fp)
 100cc7c:	20bff52e 	bgeu	r4,r2,100cc54 <alt_up_pixel_buffer_dma_draw_hline+0x220>
 100cc80:	00003d06 	br	100cd78 <alt_up_pixel_buffer_dma_draw_hline+0x344>
			{
				IOWR_8DIRECT(addr, x, local_color);
			}
		} else if (pixel_buffer->color_mode == ALT_UP_16BIT_COLOR_MODE) {
 100cc84:	e0bff317 	ldw	r2,-52(fp)
 100cc88:	10800e17 	ldw	r2,56(r2)
 100cc8c:	10800098 	cmpnei	r2,r2,2
 100cc90:	10001c1e 	bne	r2,zero,100cd04 <alt_up_pixel_buffer_dma_draw_hline+0x2d0>
			limit_x = limit_x << 1;
 100cc94:	e0fffe17 	ldw	r3,-8(fp)
 100cc98:	e0fffe17 	ldw	r3,-8(fp)
 100cc9c:	18c5883a 	add	r2,r3,r3
 100cca0:	e0bffe15 	stw	r2,-8(fp)
			addr = addr + line_y * limit_x;
 100cca4:	e13ffa17 	ldw	r4,-24(fp)
 100cca8:	e17ffe17 	ldw	r5,-8(fp)
 100ccac:	1009f0c0 	call	1009f0c <__mulsi3>
 100ccb0:	e13fff17 	ldw	r4,-4(fp)
 100ccb4:	2089883a 	add	r4,r4,r2
 100ccb8:	e13fff15 	stw	r4,-4(fp)
			for (x = l_x; x <= r_x; x++)
 100ccbc:	e0bffc17 	ldw	r2,-16(fp)
 100ccc0:	e0bff715 	stw	r2,-36(fp)
 100ccc4:	00000b06 	br	100ccf4 <alt_up_pixel_buffer_dma_draw_hline+0x2c0>
			{
				IOWR_16DIRECT(addr, x << 1, local_color);
 100ccc8:	e0fff717 	ldw	r3,-36(fp)
 100cccc:	e0fff717 	ldw	r3,-36(fp)
 100ccd0:	18c5883a 	add	r2,r3,r3
 100ccd4:	1007883a 	mov	r3,r2
 100ccd8:	e0bfff17 	ldw	r2,-4(fp)
 100ccdc:	1885883a 	add	r2,r3,r2
 100cce0:	e0fff917 	ldw	r3,-28(fp)
 100cce4:	10c0002d 	sthio	r3,0(r2)
				IOWR_8DIRECT(addr, x, local_color);
			}
		} else if (pixel_buffer->color_mode == ALT_UP_16BIT_COLOR_MODE) {
			limit_x = limit_x << 1;
			addr = addr + line_y * limit_x;
			for (x = l_x; x <= r_x; x++)
 100cce8:	e13ff717 	ldw	r4,-36(fp)
 100ccec:	21000044 	addi	r4,r4,1
 100ccf0:	e13ff715 	stw	r4,-36(fp)
 100ccf4:	e0bffb17 	ldw	r2,-20(fp)
 100ccf8:	e0fff717 	ldw	r3,-36(fp)
 100ccfc:	10fff22e 	bgeu	r2,r3,100ccc8 <alt_up_pixel_buffer_dma_draw_hline+0x294>
 100cd00:	00001d06 	br	100cd78 <alt_up_pixel_buffer_dma_draw_hline+0x344>
				IOWR_16DIRECT(addr, x << 1, local_color);
			}
		}
		else
		{
			limit_x = limit_x << 2;
 100cd04:	e13ffe17 	ldw	r4,-8(fp)
 100cd08:	e13ffe17 	ldw	r4,-8(fp)
 100cd0c:	2105883a 	add	r2,r4,r4
 100cd10:	1085883a 	add	r2,r2,r2
 100cd14:	e0bffe15 	stw	r2,-8(fp)
			addr = addr + line_y * limit_x;
 100cd18:	e13ffa17 	ldw	r4,-24(fp)
 100cd1c:	e17ffe17 	ldw	r5,-8(fp)
 100cd20:	1009f0c0 	call	1009f0c <__mulsi3>
 100cd24:	e0ffff17 	ldw	r3,-4(fp)
 100cd28:	1887883a 	add	r3,r3,r2
 100cd2c:	e0ffff15 	stw	r3,-4(fp)
			for (x = l_x; x <= r_x; x++)
 100cd30:	e13ffc17 	ldw	r4,-16(fp)
 100cd34:	e13ff715 	stw	r4,-36(fp)
 100cd38:	00000c06 	br	100cd6c <alt_up_pixel_buffer_dma_draw_hline+0x338>
			{
				IOWR_32DIRECT(addr, x << 2, local_color);
 100cd3c:	e0fff717 	ldw	r3,-36(fp)
 100cd40:	e0fff717 	ldw	r3,-36(fp)
 100cd44:	18c5883a 	add	r2,r3,r3
 100cd48:	1085883a 	add	r2,r2,r2
 100cd4c:	1007883a 	mov	r3,r2
 100cd50:	e0bfff17 	ldw	r2,-4(fp)
 100cd54:	1885883a 	add	r2,r3,r2
 100cd58:	e0fff917 	ldw	r3,-28(fp)
 100cd5c:	10c00035 	stwio	r3,0(r2)
		}
		else
		{
			limit_x = limit_x << 2;
			addr = addr + line_y * limit_x;
			for (x = l_x; x <= r_x; x++)
 100cd60:	e13ff717 	ldw	r4,-36(fp)
 100cd64:	21000044 	addi	r4,r4,1
 100cd68:	e13ff715 	stw	r4,-36(fp)
 100cd6c:	e0bffb17 	ldw	r2,-20(fp)
 100cd70:	e0fff717 	ldw	r3,-36(fp)
 100cd74:	10fff12e 	bgeu	r2,r3,100cd3c <alt_up_pixel_buffer_dma_draw_hline+0x308>
				IOWR_32DIRECT(addr, x << 2, local_color);
			}
			addr = addr + limit_x;
		}
	}
}
 100cd78:	e037883a 	mov	sp,fp
 100cd7c:	dfc00117 	ldw	ra,4(sp)
 100cd80:	df000017 	ldw	fp,0(sp)
 100cd84:	dec00204 	addi	sp,sp,8
 100cd88:	f800283a 	ret

0100cd8c <alt_up_pixel_buffer_dma_draw_vline>:


void alt_up_pixel_buffer_dma_draw_vline(alt_up_pixel_buffer_dma_dev *pixel_buffer, int x, int y0, int y1, int color, int backbuffer)
/* This method draws a vertical line. This method is faster than using the line method because we know the direction of the line. */

{
 100cd8c:	defff004 	addi	sp,sp,-64
 100cd90:	dfc00f15 	stw	ra,60(sp)
 100cd94:	df000e15 	stw	fp,56(sp)
 100cd98:	df000e04 	addi	fp,sp,56
 100cd9c:	e13ff215 	stw	r4,-56(fp)
 100cda0:	e17ff315 	stw	r5,-52(fp)
 100cda4:	e1bff415 	stw	r6,-48(fp)
 100cda8:	e1fff515 	stw	r7,-44(fp)
	register unsigned int addr;
	register unsigned int limit_x = pixel_buffer->x_resolution;
 100cdac:	e0bff217 	ldw	r2,-56(fp)
 100cdb0:	10800f17 	ldw	r2,60(r2)
 100cdb4:	e0bffe15 	stw	r2,-8(fp)
	register unsigned int limit_y = pixel_buffer->y_resolution;
 100cdb8:	e0bff217 	ldw	r2,-56(fp)
 100cdbc:	10801017 	ldw	r2,64(r2)
 100cdc0:	e0bffd15 	stw	r2,-12(fp)
	register unsigned int temp;
	register unsigned int line_x = x;
 100cdc4:	e0bff317 	ldw	r2,-52(fp)
 100cdc8:	e0bffc15 	stw	r2,-16(fp)
	register unsigned int t_y = y0;
 100cdcc:	e0fff417 	ldw	r3,-48(fp)
 100cdd0:	e0fffb15 	stw	r3,-20(fp)
	register unsigned int b_y = y1;
 100cdd4:	e13ff517 	ldw	r4,-44(fp)
 100cdd8:	e13ffa15 	stw	r4,-24(fp)
	register unsigned int local_color = color;
 100cddc:	e0800217 	ldw	r2,8(fp)
 100cde0:	e0bff915 	stw	r2,-28(fp)
	
	/* Check coordinates */
	if (t_y > b_y)
 100cde4:	e0fffa17 	ldw	r3,-24(fp)
 100cde8:	e13ffb17 	ldw	r4,-20(fp)
 100cdec:	1900042e 	bgeu	r3,r4,100ce00 <alt_up_pixel_buffer_dma_draw_vline+0x74>
	{
		temp = t_y;
 100cdf0:	e0bffb17 	ldw	r2,-20(fp)
		t_y = b_y;
 100cdf4:	e0fffa17 	ldw	r3,-24(fp)
 100cdf8:	e0fffb15 	stw	r3,-20(fp)
		b_y = temp;
 100cdfc:	e0bffa15 	stw	r2,-24(fp)
	}
	if ((line_x >= limit_x) || (t_y >= limit_y) || (line_x < 0) || (b_y < 0))
 100ce00:	e13ffc17 	ldw	r4,-16(fp)
 100ce04:	e0bffe17 	ldw	r2,-8(fp)
 100ce08:	2080d12e 	bgeu	r4,r2,100d150 <alt_up_pixel_buffer_dma_draw_vline+0x3c4>
 100ce0c:	e0fffb17 	ldw	r3,-20(fp)
 100ce10:	e13ffd17 	ldw	r4,-12(fp)
 100ce14:	19000136 	bltu	r3,r4,100ce1c <alt_up_pixel_buffer_dma_draw_vline+0x90>
	{
		/* Drawing outside of the window, so don't bother. */
		return;
 100ce18:	0000cd06 	br	100d150 <alt_up_pixel_buffer_dma_draw_vline+0x3c4>
	/* Clip the box and draw only within the confines of the screen. */
	if (t_y < 0)
	{
		t_y = 0;
	}
	if (b_y >= limit_y)
 100ce1c:	e0bffa17 	ldw	r2,-24(fp)
 100ce20:	e0fffd17 	ldw	r3,-12(fp)
 100ce24:	10c00336 	bltu	r2,r3,100ce34 <alt_up_pixel_buffer_dma_draw_vline+0xa8>
	{
		b_y = limit_y - 1;
 100ce28:	e13ffd17 	ldw	r4,-12(fp)
 100ce2c:	213fffc4 	addi	r4,r4,-1
 100ce30:	e13ffa15 	stw	r4,-24(fp)
	}

	/* Set up the address to start clearing from and the screen boundaries. */
	if (backbuffer == 1)
 100ce34:	e0800317 	ldw	r2,12(fp)
 100ce38:	10800058 	cmpnei	r2,r2,1
 100ce3c:	1000041e 	bne	r2,zero,100ce50 <alt_up_pixel_buffer_dma_draw_vline+0xc4>
		addr = pixel_buffer->back_buffer_start_address;
 100ce40:	e0bff217 	ldw	r2,-56(fp)
 100ce44:	10800c17 	ldw	r2,48(r2)
 100ce48:	e0bfff15 	stw	r2,-4(fp)
 100ce4c:	00000306 	br	100ce5c <alt_up_pixel_buffer_dma_draw_vline+0xd0>
	else
		addr = pixel_buffer->buffer_start_address;
 100ce50:	e0bff217 	ldw	r2,-56(fp)
 100ce54:	10800b17 	ldw	r2,44(r2)
 100ce58:	e0bfff15 	stw	r2,-4(fp)

	/* Draw the vertical line using one of the addressing modes. */
	if (pixel_buffer->addressing_mode == ALT_UP_PIXEL_BUFFER_XY_ADDRESS_MODE) {
 100ce5c:	e0bff217 	ldw	r2,-56(fp)
 100ce60:	10800d17 	ldw	r2,52(r2)
 100ce64:	1004c03a 	cmpne	r2,r2,zero
 100ce68:	1000571e 	bne	r2,zero,100cfc8 <alt_up_pixel_buffer_dma_draw_vline+0x23c>
		/* Draw a vertical line of a given color on the screen using the XY addressing mode. */
		register unsigned int y;
		register unsigned int offset_y;
		offset_y = pixel_buffer->y_coord_offset;
 100ce6c:	e0bff217 	ldw	r2,-56(fp)
 100ce70:	10801317 	ldw	r2,76(r2)
 100ce74:	e0bff715 	stw	r2,-36(fp)
		addr = addr + (t_y << offset_y);
 100ce78:	e0bff717 	ldw	r2,-36(fp)
 100ce7c:	e0fffb17 	ldw	r3,-20(fp)
 100ce80:	1884983a 	sll	r2,r3,r2
 100ce84:	e13fff17 	ldw	r4,-4(fp)
 100ce88:	2089883a 	add	r4,r4,r2
 100ce8c:	e13fff15 	stw	r4,-4(fp)
		
		/* This portion of the code is purposefully replicated. This is because having a text for
		 * the mode would unnecessarily slow down the drawing of a box. */
		if (pixel_buffer->color_mode == ALT_UP_8BIT_COLOR_MODE) {
 100ce90:	e0bff217 	ldw	r2,-56(fp)
 100ce94:	10800e17 	ldw	r2,56(r2)
 100ce98:	10800058 	cmpnei	r2,r2,1
 100ce9c:	1000151e 	bne	r2,zero,100cef4 <alt_up_pixel_buffer_dma_draw_vline+0x168>
			for (y = t_y; y <= b_y; y++)
 100cea0:	e0bffb17 	ldw	r2,-20(fp)
 100cea4:	e0bff815 	stw	r2,-32(fp)
 100cea8:	00000e06 	br	100cee4 <alt_up_pixel_buffer_dma_draw_vline+0x158>
			{
				IOWR_8DIRECT(addr, line_x, local_color);
 100ceac:	e0ffff17 	ldw	r3,-4(fp)
 100ceb0:	e0bffc17 	ldw	r2,-16(fp)
 100ceb4:	1885883a 	add	r2,r3,r2
 100ceb8:	e0fff917 	ldw	r3,-28(fp)
 100cebc:	10c00025 	stbio	r3,0(r2)
				addr = addr + (1 << offset_y);
 100cec0:	e0fff717 	ldw	r3,-36(fp)
 100cec4:	00800044 	movi	r2,1
 100cec8:	10c4983a 	sll	r2,r2,r3
 100cecc:	e0ffff17 	ldw	r3,-4(fp)
 100ced0:	1887883a 	add	r3,r3,r2
 100ced4:	e0ffff15 	stw	r3,-4(fp)
		addr = addr + (t_y << offset_y);
		
		/* This portion of the code is purposefully replicated. This is because having a text for
		 * the mode would unnecessarily slow down the drawing of a box. */
		if (pixel_buffer->color_mode == ALT_UP_8BIT_COLOR_MODE) {
			for (y = t_y; y <= b_y; y++)
 100ced8:	e13ff817 	ldw	r4,-32(fp)
 100cedc:	21000044 	addi	r4,r4,1
 100cee0:	e13ff815 	stw	r4,-32(fp)
 100cee4:	e0bffa17 	ldw	r2,-24(fp)
 100cee8:	e0fff817 	ldw	r3,-32(fp)
 100ceec:	10ffef2e 	bgeu	r2,r3,100ceac <alt_up_pixel_buffer_dma_draw_vline+0x120>
 100cef0:	00009706 	br	100d150 <alt_up_pixel_buffer_dma_draw_vline+0x3c4>
			{
				IOWR_8DIRECT(addr, line_x, local_color);
				addr = addr + (1 << offset_y);
			}
		} else if (pixel_buffer->color_mode == ALT_UP_16BIT_COLOR_MODE) {
 100cef4:	e0bff217 	ldw	r2,-56(fp)
 100cef8:	10800e17 	ldw	r2,56(r2)
 100cefc:	10800098 	cmpnei	r2,r2,2
 100cf00:	1000181e 	bne	r2,zero,100cf64 <alt_up_pixel_buffer_dma_draw_vline+0x1d8>
			for (y = t_y; y <= b_y; y++)
 100cf04:	e13ffb17 	ldw	r4,-20(fp)
 100cf08:	e13ff815 	stw	r4,-32(fp)
 100cf0c:	00001106 	br	100cf54 <alt_up_pixel_buffer_dma_draw_vline+0x1c8>
			{
				IOWR_16DIRECT(addr, line_x << 1, local_color);
 100cf10:	e0fffc17 	ldw	r3,-16(fp)
 100cf14:	e0fffc17 	ldw	r3,-16(fp)
 100cf18:	18c5883a 	add	r2,r3,r3
 100cf1c:	1007883a 	mov	r3,r2
 100cf20:	e0bfff17 	ldw	r2,-4(fp)
 100cf24:	1885883a 	add	r2,r3,r2
 100cf28:	e0fff917 	ldw	r3,-28(fp)
 100cf2c:	10c0002d 	sthio	r3,0(r2)
				addr = addr + (1 << offset_y);
 100cf30:	e0fff717 	ldw	r3,-36(fp)
 100cf34:	00800044 	movi	r2,1
 100cf38:	10c4983a 	sll	r2,r2,r3
 100cf3c:	e13fff17 	ldw	r4,-4(fp)
 100cf40:	2089883a 	add	r4,r4,r2
 100cf44:	e13fff15 	stw	r4,-4(fp)
			{
				IOWR_8DIRECT(addr, line_x, local_color);
				addr = addr + (1 << offset_y);
			}
		} else if (pixel_buffer->color_mode == ALT_UP_16BIT_COLOR_MODE) {
			for (y = t_y; y <= b_y; y++)
 100cf48:	e0bff817 	ldw	r2,-32(fp)
 100cf4c:	10800044 	addi	r2,r2,1
 100cf50:	e0bff815 	stw	r2,-32(fp)
 100cf54:	e0fffa17 	ldw	r3,-24(fp)
 100cf58:	e13ff817 	ldw	r4,-32(fp)
 100cf5c:	193fec2e 	bgeu	r3,r4,100cf10 <alt_up_pixel_buffer_dma_draw_vline+0x184>
 100cf60:	00007b06 	br	100d150 <alt_up_pixel_buffer_dma_draw_vline+0x3c4>
				addr = addr + (1 << offset_y);
			}
		}
		else
		{
			for (y = t_y; y <= b_y; y++)
 100cf64:	e0bffb17 	ldw	r2,-20(fp)
 100cf68:	e0bff815 	stw	r2,-32(fp)
 100cf6c:	00001206 	br	100cfb8 <alt_up_pixel_buffer_dma_draw_vline+0x22c>
			{
				IOWR_32DIRECT(addr, line_x << 2, local_color);
 100cf70:	e0fffc17 	ldw	r3,-16(fp)
 100cf74:	e0fffc17 	ldw	r3,-16(fp)
 100cf78:	18c5883a 	add	r2,r3,r3
 100cf7c:	1085883a 	add	r2,r2,r2
 100cf80:	1007883a 	mov	r3,r2
 100cf84:	e0bfff17 	ldw	r2,-4(fp)
 100cf88:	1885883a 	add	r2,r3,r2
 100cf8c:	e0fff917 	ldw	r3,-28(fp)
 100cf90:	10c00035 	stwio	r3,0(r2)
				addr = addr + (1 << offset_y);
 100cf94:	e0fff717 	ldw	r3,-36(fp)
 100cf98:	00800044 	movi	r2,1
 100cf9c:	10c4983a 	sll	r2,r2,r3
 100cfa0:	e13fff17 	ldw	r4,-4(fp)
 100cfa4:	2089883a 	add	r4,r4,r2
 100cfa8:	e13fff15 	stw	r4,-4(fp)
				addr = addr + (1 << offset_y);
			}
		}
		else
		{
			for (y = t_y; y <= b_y; y++)
 100cfac:	e0bff817 	ldw	r2,-32(fp)
 100cfb0:	10800044 	addi	r2,r2,1
 100cfb4:	e0bff815 	stw	r2,-32(fp)
 100cfb8:	e0fffa17 	ldw	r3,-24(fp)
 100cfbc:	e13ff817 	ldw	r4,-32(fp)
 100cfc0:	193feb2e 	bgeu	r3,r4,100cf70 <alt_up_pixel_buffer_dma_draw_vline+0x1e4>
 100cfc4:	00006206 	br	100d150 <alt_up_pixel_buffer_dma_draw_vline+0x3c4>
	} else {
		/* Draw a vertical line of a given color on the screen using the linear addressing mode. */
		register unsigned int y;
		/* This portion of the code is purposefully replicated. This is because having a text for
		 * the mode would unnecessarily slow down the drawing of a box. */
		if (pixel_buffer->color_mode == ALT_UP_8BIT_COLOR_MODE) {
 100cfc8:	e0bff217 	ldw	r2,-56(fp)
 100cfcc:	10800e17 	ldw	r2,56(r2)
 100cfd0:	10800058 	cmpnei	r2,r2,1
 100cfd4:	1000191e 	bne	r2,zero,100d03c <alt_up_pixel_buffer_dma_draw_vline+0x2b0>
			addr = addr + t_y * limit_x;
 100cfd8:	e13ffb17 	ldw	r4,-20(fp)
 100cfdc:	e17ffe17 	ldw	r5,-8(fp)
 100cfe0:	1009f0c0 	call	1009f0c <__mulsi3>
 100cfe4:	e0ffff17 	ldw	r3,-4(fp)
 100cfe8:	1887883a 	add	r3,r3,r2
 100cfec:	e0ffff15 	stw	r3,-4(fp)
			for (y = t_y; y <= b_y; y++)
 100cff0:	e13ffb17 	ldw	r4,-20(fp)
 100cff4:	e13ff615 	stw	r4,-40(fp)
 100cff8:	00000c06 	br	100d02c <alt_up_pixel_buffer_dma_draw_vline+0x2a0>
			{
				IOWR_8DIRECT(addr, line_x, local_color);
 100cffc:	e0ffff17 	ldw	r3,-4(fp)
 100d000:	e0bffc17 	ldw	r2,-16(fp)
 100d004:	1885883a 	add	r2,r3,r2
 100d008:	e0fff917 	ldw	r3,-28(fp)
 100d00c:	10c00025 	stbio	r3,0(r2)
				addr = addr + limit_x;
 100d010:	e0bfff17 	ldw	r2,-4(fp)
 100d014:	e0fffe17 	ldw	r3,-8(fp)
 100d018:	10c5883a 	add	r2,r2,r3
 100d01c:	e0bfff15 	stw	r2,-4(fp)
		register unsigned int y;
		/* This portion of the code is purposefully replicated. This is because having a text for
		 * the mode would unnecessarily slow down the drawing of a box. */
		if (pixel_buffer->color_mode == ALT_UP_8BIT_COLOR_MODE) {
			addr = addr + t_y * limit_x;
			for (y = t_y; y <= b_y; y++)
 100d020:	e13ff617 	ldw	r4,-40(fp)
 100d024:	21000044 	addi	r4,r4,1
 100d028:	e13ff615 	stw	r4,-40(fp)
 100d02c:	e0bffa17 	ldw	r2,-24(fp)
 100d030:	e0fff617 	ldw	r3,-40(fp)
 100d034:	10fff12e 	bgeu	r2,r3,100cffc <alt_up_pixel_buffer_dma_draw_vline+0x270>
 100d038:	00004506 	br	100d150 <alt_up_pixel_buffer_dma_draw_vline+0x3c4>
			{
				IOWR_8DIRECT(addr, line_x, local_color);
				addr = addr + limit_x;
			}
		} else if (pixel_buffer->color_mode == ALT_UP_16BIT_COLOR_MODE) {
 100d03c:	e0bff217 	ldw	r2,-56(fp)
 100d040:	10800e17 	ldw	r2,56(r2)
 100d044:	10800098 	cmpnei	r2,r2,2
 100d048:	1000201e 	bne	r2,zero,100d0cc <alt_up_pixel_buffer_dma_draw_vline+0x340>
			limit_x = limit_x << 1;
 100d04c:	e13ffe17 	ldw	r4,-8(fp)
 100d050:	e13ffe17 	ldw	r4,-8(fp)
 100d054:	2105883a 	add	r2,r4,r4
 100d058:	e0bffe15 	stw	r2,-8(fp)
			addr = addr + t_y * limit_x;
 100d05c:	e13ffb17 	ldw	r4,-20(fp)
 100d060:	e17ffe17 	ldw	r5,-8(fp)
 100d064:	1009f0c0 	call	1009f0c <__mulsi3>
 100d068:	e0ffff17 	ldw	r3,-4(fp)
 100d06c:	1887883a 	add	r3,r3,r2
 100d070:	e0ffff15 	stw	r3,-4(fp)
			for (y = t_y; y <= b_y; y++)
 100d074:	e13ffb17 	ldw	r4,-20(fp)
 100d078:	e13ff615 	stw	r4,-40(fp)
 100d07c:	00000f06 	br	100d0bc <alt_up_pixel_buffer_dma_draw_vline+0x330>
			{
				IOWR_16DIRECT(addr, line_x << 1, local_color);
 100d080:	e0fffc17 	ldw	r3,-16(fp)
 100d084:	e0fffc17 	ldw	r3,-16(fp)
 100d088:	18c5883a 	add	r2,r3,r3
 100d08c:	1007883a 	mov	r3,r2
 100d090:	e0bfff17 	ldw	r2,-4(fp)
 100d094:	1885883a 	add	r2,r3,r2
 100d098:	e0fff917 	ldw	r3,-28(fp)
 100d09c:	10c0002d 	sthio	r3,0(r2)
				addr = addr + limit_x;
 100d0a0:	e13fff17 	ldw	r4,-4(fp)
 100d0a4:	e0bffe17 	ldw	r2,-8(fp)
 100d0a8:	2089883a 	add	r4,r4,r2
 100d0ac:	e13fff15 	stw	r4,-4(fp)
				addr = addr + limit_x;
			}
		} else if (pixel_buffer->color_mode == ALT_UP_16BIT_COLOR_MODE) {
			limit_x = limit_x << 1;
			addr = addr + t_y * limit_x;
			for (y = t_y; y <= b_y; y++)
 100d0b0:	e0fff617 	ldw	r3,-40(fp)
 100d0b4:	18c00044 	addi	r3,r3,1
 100d0b8:	e0fff615 	stw	r3,-40(fp)
 100d0bc:	e13ffa17 	ldw	r4,-24(fp)
 100d0c0:	e0bff617 	ldw	r2,-40(fp)
 100d0c4:	20bfee2e 	bgeu	r4,r2,100d080 <alt_up_pixel_buffer_dma_draw_vline+0x2f4>
 100d0c8:	00002106 	br	100d150 <alt_up_pixel_buffer_dma_draw_vline+0x3c4>
				addr = addr + limit_x;
			}
		}
		else
		{
			limit_x = limit_x << 2;
 100d0cc:	e0fffe17 	ldw	r3,-8(fp)
 100d0d0:	e0fffe17 	ldw	r3,-8(fp)
 100d0d4:	18c5883a 	add	r2,r3,r3
 100d0d8:	1085883a 	add	r2,r2,r2
 100d0dc:	e0bffe15 	stw	r2,-8(fp)
			addr = addr + t_y * limit_x;
 100d0e0:	e13ffb17 	ldw	r4,-20(fp)
 100d0e4:	e17ffe17 	ldw	r5,-8(fp)
 100d0e8:	1009f0c0 	call	1009f0c <__mulsi3>
 100d0ec:	e13fff17 	ldw	r4,-4(fp)
 100d0f0:	2089883a 	add	r4,r4,r2
 100d0f4:	e13fff15 	stw	r4,-4(fp)
			for (y = t_y; y <= b_y; y++)
 100d0f8:	e0bffb17 	ldw	r2,-20(fp)
 100d0fc:	e0bff615 	stw	r2,-40(fp)
 100d100:	00001006 	br	100d144 <alt_up_pixel_buffer_dma_draw_vline+0x3b8>
			{
				IOWR_32DIRECT(addr, line_x << 2, local_color);
 100d104:	e0fffc17 	ldw	r3,-16(fp)
 100d108:	e0fffc17 	ldw	r3,-16(fp)
 100d10c:	18c5883a 	add	r2,r3,r3
 100d110:	1085883a 	add	r2,r2,r2
 100d114:	1007883a 	mov	r3,r2
 100d118:	e0bfff17 	ldw	r2,-4(fp)
 100d11c:	1885883a 	add	r2,r3,r2
 100d120:	e0fff917 	ldw	r3,-28(fp)
 100d124:	10c00035 	stwio	r3,0(r2)
				addr = addr + limit_x;
 100d128:	e13fff17 	ldw	r4,-4(fp)
 100d12c:	e0bffe17 	ldw	r2,-8(fp)
 100d130:	2089883a 	add	r4,r4,r2
 100d134:	e13fff15 	stw	r4,-4(fp)
		}
		else
		{
			limit_x = limit_x << 2;
			addr = addr + t_y * limit_x;
			for (y = t_y; y <= b_y; y++)
 100d138:	e0fff617 	ldw	r3,-40(fp)
 100d13c:	18c00044 	addi	r3,r3,1
 100d140:	e0fff615 	stw	r3,-40(fp)
 100d144:	e13ffa17 	ldw	r4,-24(fp)
 100d148:	e0bff617 	ldw	r2,-40(fp)
 100d14c:	20bfed2e 	bgeu	r4,r2,100d104 <alt_up_pixel_buffer_dma_draw_vline+0x378>
				IOWR_32DIRECT(addr, line_x << 2, local_color);
				addr = addr + limit_x;
			}
		}
	}
}
 100d150:	e037883a 	mov	sp,fp
 100d154:	dfc00117 	ldw	ra,4(sp)
 100d158:	df000017 	ldw	fp,0(sp)
 100d15c:	dec00204 	addi	sp,sp,8
 100d160:	f800283a 	ret

0100d164 <alt_up_pixel_buffer_dma_draw_rectangle>:

void alt_up_pixel_buffer_dma_draw_rectangle(alt_up_pixel_buffer_dma_dev *pixel_buffer, int x0, int y0, int x1, int y1, int color, int backbuffer)
{
 100d164:	defff804 	addi	sp,sp,-32
 100d168:	dfc00715 	stw	ra,28(sp)
 100d16c:	df000615 	stw	fp,24(sp)
 100d170:	df000604 	addi	fp,sp,24
 100d174:	e13ffc15 	stw	r4,-16(fp)
 100d178:	e17ffd15 	stw	r5,-12(fp)
 100d17c:	e1bffe15 	stw	r6,-8(fp)
 100d180:	e1ffff15 	stw	r7,-4(fp)
	alt_up_pixel_buffer_dma_draw_hline(pixel_buffer, x0, x1, y0, color, backbuffer);
 100d184:	e0800317 	ldw	r2,12(fp)
 100d188:	d8800015 	stw	r2,0(sp)
 100d18c:	e0800417 	ldw	r2,16(fp)
 100d190:	d8800115 	stw	r2,4(sp)
 100d194:	e13ffc17 	ldw	r4,-16(fp)
 100d198:	e17ffd17 	ldw	r5,-12(fp)
 100d19c:	e1bfff17 	ldw	r6,-4(fp)
 100d1a0:	e1fffe17 	ldw	r7,-8(fp)
 100d1a4:	100ca340 	call	100ca34 <alt_up_pixel_buffer_dma_draw_hline>
	alt_up_pixel_buffer_dma_draw_hline(pixel_buffer, x0, x1, y1, color, backbuffer);
 100d1a8:	e0800317 	ldw	r2,12(fp)
 100d1ac:	d8800015 	stw	r2,0(sp)
 100d1b0:	e0800417 	ldw	r2,16(fp)
 100d1b4:	d8800115 	stw	r2,4(sp)
 100d1b8:	e13ffc17 	ldw	r4,-16(fp)
 100d1bc:	e17ffd17 	ldw	r5,-12(fp)
 100d1c0:	e1bfff17 	ldw	r6,-4(fp)
 100d1c4:	e1c00217 	ldw	r7,8(fp)
 100d1c8:	100ca340 	call	100ca34 <alt_up_pixel_buffer_dma_draw_hline>
	alt_up_pixel_buffer_dma_draw_vline(pixel_buffer, x0, y0, y1, color, backbuffer);
 100d1cc:	e0800317 	ldw	r2,12(fp)
 100d1d0:	d8800015 	stw	r2,0(sp)
 100d1d4:	e0800417 	ldw	r2,16(fp)
 100d1d8:	d8800115 	stw	r2,4(sp)
 100d1dc:	e13ffc17 	ldw	r4,-16(fp)
 100d1e0:	e17ffd17 	ldw	r5,-12(fp)
 100d1e4:	e1bffe17 	ldw	r6,-8(fp)
 100d1e8:	e1c00217 	ldw	r7,8(fp)
 100d1ec:	100cd8c0 	call	100cd8c <alt_up_pixel_buffer_dma_draw_vline>
	alt_up_pixel_buffer_dma_draw_vline(pixel_buffer, x1, y0, y1, color, backbuffer);
 100d1f0:	e0800317 	ldw	r2,12(fp)
 100d1f4:	d8800015 	stw	r2,0(sp)
 100d1f8:	e0800417 	ldw	r2,16(fp)
 100d1fc:	d8800115 	stw	r2,4(sp)
 100d200:	e13ffc17 	ldw	r4,-16(fp)
 100d204:	e17fff17 	ldw	r5,-4(fp)
 100d208:	e1bffe17 	ldw	r6,-8(fp)
 100d20c:	e1c00217 	ldw	r7,8(fp)
 100d210:	100cd8c0 	call	100cd8c <alt_up_pixel_buffer_dma_draw_vline>
}
 100d214:	e037883a 	mov	sp,fp
 100d218:	dfc00117 	ldw	ra,4(sp)
 100d21c:	df000017 	ldw	fp,0(sp)
 100d220:	dec00204 	addi	sp,sp,8
 100d224:	f800283a 	ret

0100d228 <helper_plot_pixel>:

void helper_plot_pixel(register unsigned int buffer_start, register int line_size, register int x, register int y, register int color, register int mode)
/* This is a helper function that draws a pixel at a given location. Note that no boundary checks are made,
 * so drawing off-screen may cause unpredictable side effects. */
{
 100d228:	defffa04 	addi	sp,sp,-24
 100d22c:	dfc00515 	stw	ra,20(sp)
 100d230:	df000415 	stw	fp,16(sp)
 100d234:	df000404 	addi	fp,sp,16
 100d238:	e13ffc15 	stw	r4,-16(fp)
 100d23c:	e17ffd15 	stw	r5,-12(fp)
 100d240:	e1bffe15 	stw	r6,-8(fp)
 100d244:	e1ffff15 	stw	r7,-4(fp)
	if (mode == 0)
 100d248:	e0c00317 	ldw	r3,12(fp)
 100d24c:	1804c03a 	cmpne	r2,r3,zero
 100d250:	10000b1e 	bne	r2,zero,100d280 <helper_plot_pixel+0x58>
		IOWR_8DIRECT(buffer_start, line_size*y+x, color);
 100d254:	e13ffd17 	ldw	r4,-12(fp)
 100d258:	e17fff17 	ldw	r5,-4(fp)
 100d25c:	1009f0c0 	call	1009f0c <__mulsi3>
 100d260:	e0fffe17 	ldw	r3,-8(fp)
 100d264:	10c5883a 	add	r2,r2,r3
 100d268:	1007883a 	mov	r3,r2
 100d26c:	e0bffc17 	ldw	r2,-16(fp)
 100d270:	1885883a 	add	r2,r3,r2
 100d274:	e0c00217 	ldw	r3,8(fp)
 100d278:	10c00025 	stbio	r3,0(r2)
 100d27c:	00001b06 	br	100d2ec <helper_plot_pixel+0xc4>
	else if (mode == 1)
 100d280:	e0c00317 	ldw	r3,12(fp)
 100d284:	18800058 	cmpnei	r2,r3,1
 100d288:	10000c1e 	bne	r2,zero,100d2bc <helper_plot_pixel+0x94>
		IOWR_16DIRECT(buffer_start, (line_size*y+x) << 1, color);
 100d28c:	e13ffd17 	ldw	r4,-12(fp)
 100d290:	e17fff17 	ldw	r5,-4(fp)
 100d294:	1009f0c0 	call	1009f0c <__mulsi3>
 100d298:	e0fffe17 	ldw	r3,-8(fp)
 100d29c:	10c5883a 	add	r2,r2,r3
 100d2a0:	1085883a 	add	r2,r2,r2
 100d2a4:	1007883a 	mov	r3,r2
 100d2a8:	e0bffc17 	ldw	r2,-16(fp)
 100d2ac:	1885883a 	add	r2,r3,r2
 100d2b0:	e0c00217 	ldw	r3,8(fp)
 100d2b4:	10c0002d 	sthio	r3,0(r2)
 100d2b8:	00000c06 	br	100d2ec <helper_plot_pixel+0xc4>
	else
		IOWR_32DIRECT(buffer_start, (line_size*y+x) << 2, color);
 100d2bc:	e13ffd17 	ldw	r4,-12(fp)
 100d2c0:	e17fff17 	ldw	r5,-4(fp)
 100d2c4:	1009f0c0 	call	1009f0c <__mulsi3>
 100d2c8:	e0fffe17 	ldw	r3,-8(fp)
 100d2cc:	10c5883a 	add	r2,r2,r3
 100d2d0:	1085883a 	add	r2,r2,r2
 100d2d4:	1085883a 	add	r2,r2,r2
 100d2d8:	1007883a 	mov	r3,r2
 100d2dc:	e0bffc17 	ldw	r2,-16(fp)
 100d2e0:	1885883a 	add	r2,r3,r2
 100d2e4:	e0c00217 	ldw	r3,8(fp)
 100d2e8:	10c00035 	stwio	r3,0(r2)
}
 100d2ec:	e037883a 	mov	sp,fp
 100d2f0:	dfc00117 	ldw	ra,4(sp)
 100d2f4:	df000017 	ldw	fp,0(sp)
 100d2f8:	dec00204 	addi	sp,sp,8
 100d2fc:	f800283a 	ret

0100d300 <alt_up_pixel_buffer_dma_draw_line>:

void alt_up_pixel_buffer_dma_draw_line(alt_up_pixel_buffer_dma_dev *pixel_buffer, int x0, int y0, int x1, int y1, int color, int backbuffer)
/* This function draws a line between points (x0, y0) and (x1, y1). The function does not check if it draws a pixel within screen boundaries.
 * users should ensure that the line is drawn within the screen boundaries. */
{
 100d300:	deffe404 	addi	sp,sp,-112
 100d304:	dfc01b15 	stw	ra,108(sp)
 100d308:	df001a15 	stw	fp,104(sp)
 100d30c:	df001a04 	addi	fp,sp,104
 100d310:	e13fe815 	stw	r4,-96(fp)
 100d314:	e17fe915 	stw	r5,-92(fp)
 100d318:	e1bfea15 	stw	r6,-88(fp)
 100d31c:	e1ffeb15 	stw	r7,-84(fp)
	register int x_0 = x0;
 100d320:	e0bfe917 	ldw	r2,-92(fp)
 100d324:	e0bffa15 	stw	r2,-24(fp)
	register int y_0 = y0;
 100d328:	e0ffea17 	ldw	r3,-88(fp)
 100d32c:	e0fff915 	stw	r3,-28(fp)
	register int x_1 = x1;
 100d330:	e13feb17 	ldw	r4,-84(fp)
 100d334:	e13ff815 	stw	r4,-32(fp)
	register int y_1 = y1;
 100d338:	e0800217 	ldw	r2,8(fp)
 100d33c:	e0bff715 	stw	r2,-36(fp)
	register char steep = (ABS(y_1 - y_0) > ABS(x_1 - x_0)) ? 1 : 0;
 100d340:	e0fff717 	ldw	r3,-36(fp)
 100d344:	e13ff917 	ldw	r4,-28(fp)
 100d348:	1905c83a 	sub	r2,r3,r4
 100d34c:	e0bfff15 	stw	r2,-4(fp)
 100d350:	e0ffff17 	ldw	r3,-4(fp)
 100d354:	1804403a 	cmpge	r2,r3,zero
 100d358:	1000031e 	bne	r2,zero,100d368 <alt_up_pixel_buffer_dma_draw_line+0x68>
 100d35c:	e13fff17 	ldw	r4,-4(fp)
 100d360:	0109c83a 	sub	r4,zero,r4
 100d364:	e13fff15 	stw	r4,-4(fp)
 100d368:	e0fff817 	ldw	r3,-32(fp)
 100d36c:	e13ffa17 	ldw	r4,-24(fp)
 100d370:	1905c83a 	sub	r2,r3,r4
 100d374:	e0bffe15 	stw	r2,-8(fp)
 100d378:	e0fffe17 	ldw	r3,-8(fp)
 100d37c:	1804403a 	cmpge	r2,r3,zero
 100d380:	1000031e 	bne	r2,zero,100d390 <alt_up_pixel_buffer_dma_draw_line+0x90>
 100d384:	e13ffe17 	ldw	r4,-8(fp)
 100d388:	0109c83a 	sub	r4,zero,r4
 100d38c:	e13ffe15 	stw	r4,-8(fp)
 100d390:	e0fffe17 	ldw	r3,-8(fp)
 100d394:	e13fff17 	ldw	r4,-4(fp)
 100d398:	1904803a 	cmplt	r2,r3,r4
 100d39c:	e0bff605 	stb	r2,-40(fp)
	register int deltax, deltay, error, ystep, x, y;
	register int color_mode =	(pixel_buffer->color_mode == ALT_UP_8BIT_COLOR_MODE) ? 0 :
								(pixel_buffer->color_mode == ALT_UP_16BIT_COLOR_MODE) ? 1 : 2;
 100d3a0:	e0bfe817 	ldw	r2,-96(fp)
 100d3a4:	10800e17 	ldw	r2,56(r2)
 100d3a8:	10800060 	cmpeqi	r2,r2,1
 100d3ac:	10000c1e 	bne	r2,zero,100d3e0 <alt_up_pixel_buffer_dma_draw_line+0xe0>
 100d3b0:	e0bfe817 	ldw	r2,-96(fp)
 100d3b4:	10800e17 	ldw	r2,56(r2)
 100d3b8:	10800098 	cmpnei	r2,r2,2
 100d3bc:	1000031e 	bne	r2,zero,100d3cc <alt_up_pixel_buffer_dma_draw_line+0xcc>
 100d3c0:	00800044 	movi	r2,1
 100d3c4:	e0bffc15 	stw	r2,-16(fp)
 100d3c8:	00000206 	br	100d3d4 <alt_up_pixel_buffer_dma_draw_line+0xd4>
 100d3cc:	00c00084 	movi	r3,2
 100d3d0:	e0fffc15 	stw	r3,-16(fp)
 100d3d4:	e13ffc17 	ldw	r4,-16(fp)
 100d3d8:	e13ffd15 	stw	r4,-12(fp)
 100d3dc:	00000106 	br	100d3e4 <alt_up_pixel_buffer_dma_draw_line+0xe4>
 100d3e0:	e03ffd15 	stw	zero,-12(fp)
 100d3e4:	e0bffd17 	ldw	r2,-12(fp)
 100d3e8:	e0bfef15 	stw	r2,-68(fp)
	register int line_color = color;
 100d3ec:	e0c00317 	ldw	r3,12(fp)
 100d3f0:	e0ffee15 	stw	r3,-72(fp)
	register unsigned int buffer_start;
	register int line_size = (pixel_buffer->addressing_mode == ALT_UP_PIXEL_BUFFER_XY_ADDRESS_MODE) ? (1 << (pixel_buffer->y_coord_offset-color_mode)) : pixel_buffer->x_resolution;
 100d3f4:	e0bfe817 	ldw	r2,-96(fp)
 100d3f8:	10800d17 	ldw	r2,52(r2)
 100d3fc:	1004c03a 	cmpne	r2,r2,zero
 100d400:	1000091e 	bne	r2,zero,100d428 <alt_up_pixel_buffer_dma_draw_line+0x128>
 100d404:	e0bfe817 	ldw	r2,-96(fp)
 100d408:	10c01317 	ldw	r3,76(r2)
 100d40c:	e0bfef17 	ldw	r2,-68(fp)
 100d410:	1885c83a 	sub	r2,r3,r2
 100d414:	1007883a 	mov	r3,r2
 100d418:	00800044 	movi	r2,1
 100d41c:	10c4983a 	sll	r2,r2,r3
 100d420:	e0bffb15 	stw	r2,-20(fp)
 100d424:	00000306 	br	100d434 <alt_up_pixel_buffer_dma_draw_line+0x134>
 100d428:	e0bfe817 	ldw	r2,-96(fp)
 100d42c:	10800f17 	ldw	r2,60(r2)
 100d430:	e0bffb15 	stw	r2,-20(fp)
 100d434:	e13ffb17 	ldw	r4,-20(fp)
 100d438:	e13fec15 	stw	r4,-80(fp)

	if (backbuffer == 1)
 100d43c:	e0800417 	ldw	r2,16(fp)
 100d440:	10800058 	cmpnei	r2,r2,1
 100d444:	1000041e 	bne	r2,zero,100d458 <alt_up_pixel_buffer_dma_draw_line+0x158>
		buffer_start = pixel_buffer->back_buffer_start_address;
 100d448:	e0bfe817 	ldw	r2,-96(fp)
 100d44c:	10800c17 	ldw	r2,48(r2)
 100d450:	e0bfed15 	stw	r2,-76(fp)
 100d454:	00000306 	br	100d464 <alt_up_pixel_buffer_dma_draw_line+0x164>
	else
		buffer_start = pixel_buffer->buffer_start_address;
 100d458:	e0bfe817 	ldw	r2,-96(fp)
 100d45c:	10800b17 	ldw	r2,44(r2)
 100d460:	e0bfed15 	stw	r2,-76(fp)

	/* Preprocessing inputs */
	if (steep > 0) {
 100d464:	e0fff603 	ldbu	r3,-40(fp)
 100d468:	18803fcc 	andi	r2,r3,255
 100d46c:	1080201c 	xori	r2,r2,128
 100d470:	10bfe004 	addi	r2,r2,-128
 100d474:	10800050 	cmplti	r2,r2,1
 100d478:	10000c1e 	bne	r2,zero,100d4ac <alt_up_pixel_buffer_dma_draw_line+0x1ac>
		// Swap x_0 and y_0
		error = x_0;
 100d47c:	e13ffa17 	ldw	r4,-24(fp)
 100d480:	e13ff315 	stw	r4,-52(fp)
		x_0 = y_0;
 100d484:	e0bff917 	ldw	r2,-28(fp)
 100d488:	e0bffa15 	stw	r2,-24(fp)
		y_0 = error;
 100d48c:	e0fff317 	ldw	r3,-52(fp)
 100d490:	e0fff915 	stw	r3,-28(fp)
		// Swap x_1 and y_1
		error = x_1;
 100d494:	e13ff817 	ldw	r4,-32(fp)
 100d498:	e13ff315 	stw	r4,-52(fp)
		x_1 = y_1;
 100d49c:	e0bff717 	ldw	r2,-36(fp)
 100d4a0:	e0bff815 	stw	r2,-32(fp)
		y_1 = error;
 100d4a4:	e0fff317 	ldw	r3,-52(fp)
 100d4a8:	e0fff715 	stw	r3,-36(fp)
	}
	if (x_0 > x_1) {
 100d4ac:	e13ff817 	ldw	r4,-32(fp)
 100d4b0:	e0bffa17 	ldw	r2,-24(fp)
 100d4b4:	20800c0e 	bge	r4,r2,100d4e8 <alt_up_pixel_buffer_dma_draw_line+0x1e8>
		// Swap x_0 and x_1
		error = x_0;
 100d4b8:	e0fffa17 	ldw	r3,-24(fp)
 100d4bc:	e0fff315 	stw	r3,-52(fp)
		x_0 = x_1;
 100d4c0:	e13ff817 	ldw	r4,-32(fp)
 100d4c4:	e13ffa15 	stw	r4,-24(fp)
		x_1 = error;
 100d4c8:	e0bff317 	ldw	r2,-52(fp)
 100d4cc:	e0bff815 	stw	r2,-32(fp)
		// Swap y_0 and y_1
		error = y_0;
 100d4d0:	e0fff917 	ldw	r3,-28(fp)
 100d4d4:	e0fff315 	stw	r3,-52(fp)
		y_0 = y_1;
 100d4d8:	e13ff717 	ldw	r4,-36(fp)
 100d4dc:	e13ff915 	stw	r4,-28(fp)
		y_1 = error;
 100d4e0:	e0bff317 	ldw	r2,-52(fp)
 100d4e4:	e0bff715 	stw	r2,-36(fp)
	}

	/* Setup local variables */
	deltax = x_1 - x_0;
 100d4e8:	e0fff817 	ldw	r3,-32(fp)
 100d4ec:	e13ffa17 	ldw	r4,-24(fp)
 100d4f0:	1907c83a 	sub	r3,r3,r4
 100d4f4:	e0fff515 	stw	r3,-44(fp)
	deltay = ABS(y_1 - y_0);
 100d4f8:	e0fff717 	ldw	r3,-36(fp)
 100d4fc:	e13ff917 	ldw	r4,-28(fp)
 100d500:	1905c83a 	sub	r2,r3,r4
 100d504:	e0bff415 	stw	r2,-48(fp)
 100d508:	e0fff417 	ldw	r3,-48(fp)
 100d50c:	1804403a 	cmpge	r2,r3,zero
 100d510:	1000031e 	bne	r2,zero,100d520 <alt_up_pixel_buffer_dma_draw_line+0x220>
 100d514:	e13ff417 	ldw	r4,-48(fp)
 100d518:	0109c83a 	sub	r4,zero,r4
 100d51c:	e13ff415 	stw	r4,-48(fp)
	error = -(deltax / 2); 
 100d520:	e0fff517 	ldw	r3,-44(fp)
 100d524:	1804d7fa 	srli	r2,r3,31
 100d528:	e13ff517 	ldw	r4,-44(fp)
 100d52c:	1105883a 	add	r2,r2,r4
 100d530:	1005d07a 	srai	r2,r2,1
 100d534:	0085c83a 	sub	r2,zero,r2
 100d538:	e0bff315 	stw	r2,-52(fp)
	y = y_0;
 100d53c:	e0bff917 	ldw	r2,-28(fp)
 100d540:	e0bff015 	stw	r2,-64(fp)
	if (y_0 < y_1)
 100d544:	e0fff917 	ldw	r3,-28(fp)
 100d548:	e13ff717 	ldw	r4,-36(fp)
 100d54c:	1900030e 	bge	r3,r4,100d55c <alt_up_pixel_buffer_dma_draw_line+0x25c>
		ystep = 1;
 100d550:	00800044 	movi	r2,1
 100d554:	e0bff215 	stw	r2,-56(fp)
 100d558:	00000206 	br	100d564 <alt_up_pixel_buffer_dma_draw_line+0x264>
	else
		ystep = -1;
 100d55c:	00ffffc4 	movi	r3,-1
 100d560:	e0fff215 	stw	r3,-56(fp)

	/* Draw a line - either go along the x axis (steep = 0) or along the y axis (steep = 1). The code is replicated to
	 * compile well on low optimization levels. */
	if (steep == 1)
 100d564:	e13ff603 	ldbu	r4,-40(fp)
 100d568:	20803fcc 	andi	r2,r4,255
 100d56c:	1080201c 	xori	r2,r2,128
 100d570:	10bfe004 	addi	r2,r2,-128
 100d574:	10800058 	cmpnei	r2,r2,1
 100d578:	1000221e 	bne	r2,zero,100d604 <alt_up_pixel_buffer_dma_draw_line+0x304>
	{
		for (x=x_0; x <= x_1; x++) {
 100d57c:	e0bffa17 	ldw	r2,-24(fp)
 100d580:	e0bff115 	stw	r2,-60(fp)
 100d584:	00001b06 	br	100d5f4 <alt_up_pixel_buffer_dma_draw_line+0x2f4>
			helper_plot_pixel(buffer_start, line_size, y, x, line_color, color_mode);
 100d588:	e0ffee17 	ldw	r3,-72(fp)
 100d58c:	d8c00015 	stw	r3,0(sp)
 100d590:	e13fef17 	ldw	r4,-68(fp)
 100d594:	d9000115 	stw	r4,4(sp)
 100d598:	e13fed17 	ldw	r4,-76(fp)
 100d59c:	e17fec17 	ldw	r5,-80(fp)
 100d5a0:	e1bff017 	ldw	r6,-64(fp)
 100d5a4:	e1fff117 	ldw	r7,-60(fp)
 100d5a8:	100d2280 	call	100d228 <helper_plot_pixel>
			error = error + deltay;
 100d5ac:	e0bff317 	ldw	r2,-52(fp)
 100d5b0:	e0fff417 	ldw	r3,-48(fp)
 100d5b4:	10c5883a 	add	r2,r2,r3
 100d5b8:	e0bff315 	stw	r2,-52(fp)
			if (error > 0) {
 100d5bc:	e13ff317 	ldw	r4,-52(fp)
 100d5c0:	20800050 	cmplti	r2,r4,1
 100d5c4:	1000081e 	bne	r2,zero,100d5e8 <alt_up_pixel_buffer_dma_draw_line+0x2e8>
				y = y + ystep;
 100d5c8:	e0bff017 	ldw	r2,-64(fp)
 100d5cc:	e0fff217 	ldw	r3,-56(fp)
 100d5d0:	10c5883a 	add	r2,r2,r3
 100d5d4:	e0bff015 	stw	r2,-64(fp)
				error = error - deltax;
 100d5d8:	e13ff317 	ldw	r4,-52(fp)
 100d5dc:	e0bff517 	ldw	r2,-44(fp)
 100d5e0:	2089c83a 	sub	r4,r4,r2
 100d5e4:	e13ff315 	stw	r4,-52(fp)

	/* Draw a line - either go along the x axis (steep = 0) or along the y axis (steep = 1). The code is replicated to
	 * compile well on low optimization levels. */
	if (steep == 1)
	{
		for (x=x_0; x <= x_1; x++) {
 100d5e8:	e0fff117 	ldw	r3,-60(fp)
 100d5ec:	18c00044 	addi	r3,r3,1
 100d5f0:	e0fff115 	stw	r3,-60(fp)
 100d5f4:	e13ff817 	ldw	r4,-32(fp)
 100d5f8:	e0bff117 	ldw	r2,-60(fp)
 100d5fc:	20bfe20e 	bge	r4,r2,100d588 <alt_up_pixel_buffer_dma_draw_line+0x288>
 100d600:	00002106 	br	100d688 <alt_up_pixel_buffer_dma_draw_line+0x388>
			}
		}
	}
	else
	{
		for (x=x_0; x <= x_1; x++) {
 100d604:	e0fffa17 	ldw	r3,-24(fp)
 100d608:	e0fff115 	stw	r3,-60(fp)
 100d60c:	00001b06 	br	100d67c <alt_up_pixel_buffer_dma_draw_line+0x37c>
			helper_plot_pixel(buffer_start, line_size, x, y, line_color, color_mode);
 100d610:	e13fee17 	ldw	r4,-72(fp)
 100d614:	d9000015 	stw	r4,0(sp)
 100d618:	e0bfef17 	ldw	r2,-68(fp)
 100d61c:	d8800115 	stw	r2,4(sp)
 100d620:	e13fed17 	ldw	r4,-76(fp)
 100d624:	e17fec17 	ldw	r5,-80(fp)
 100d628:	e1bff117 	ldw	r6,-60(fp)
 100d62c:	e1fff017 	ldw	r7,-64(fp)
 100d630:	100d2280 	call	100d228 <helper_plot_pixel>
			error = error + deltay;
 100d634:	e0fff317 	ldw	r3,-52(fp)
 100d638:	e13ff417 	ldw	r4,-48(fp)
 100d63c:	1907883a 	add	r3,r3,r4
 100d640:	e0fff315 	stw	r3,-52(fp)
			if (error > 0) {
 100d644:	e0fff317 	ldw	r3,-52(fp)
 100d648:	18800050 	cmplti	r2,r3,1
 100d64c:	1000081e 	bne	r2,zero,100d670 <alt_up_pixel_buffer_dma_draw_line+0x370>
				y = y + ystep;
 100d650:	e13ff017 	ldw	r4,-64(fp)
 100d654:	e0bff217 	ldw	r2,-56(fp)
 100d658:	2089883a 	add	r4,r4,r2
 100d65c:	e13ff015 	stw	r4,-64(fp)
				error = error - deltax;
 100d660:	e0fff317 	ldw	r3,-52(fp)
 100d664:	e13ff517 	ldw	r4,-44(fp)
 100d668:	1907c83a 	sub	r3,r3,r4
 100d66c:	e0fff315 	stw	r3,-52(fp)
			}
		}
	}
	else
	{
		for (x=x_0; x <= x_1; x++) {
 100d670:	e0bff117 	ldw	r2,-60(fp)
 100d674:	10800044 	addi	r2,r2,1
 100d678:	e0bff115 	stw	r2,-60(fp)
 100d67c:	e0fff817 	ldw	r3,-32(fp)
 100d680:	e13ff117 	ldw	r4,-60(fp)
 100d684:	193fe20e 	bge	r3,r4,100d610 <alt_up_pixel_buffer_dma_draw_line+0x310>
				y = y + ystep;
				error = error - deltax;
			}
		}
	}
}
 100d688:	e037883a 	mov	sp,fp
 100d68c:	dfc00117 	ldw	ra,4(sp)
 100d690:	df000017 	ldw	fp,0(sp)
 100d694:	dec00204 	addi	sp,sp,8
 100d698:	f800283a 	ret

0100d69c <alt_alarm_start>:
 */ 

int alt_alarm_start (alt_alarm* alarm, alt_u32 nticks,
                     alt_u32 (*callback) (void* context),
                     void* context)
{
 100d69c:	defff404 	addi	sp,sp,-48
 100d6a0:	df000b15 	stw	fp,44(sp)
 100d6a4:	df000b04 	addi	fp,sp,44
 100d6a8:	e13ffb15 	stw	r4,-20(fp)
 100d6ac:	e17ffc15 	stw	r5,-16(fp)
 100d6b0:	e1bffd15 	stw	r6,-12(fp)
 100d6b4:	e1fffe15 	stw	r7,-8(fp)
  alt_irq_context irq_context;
  alt_u32 current_nticks = 0;
 100d6b8:	e03ff915 	stw	zero,-28(fp)
 100d6bc:	00804074 	movhi	r2,257
 100d6c0:	10892504 	addi	r2,r2,9364
 100d6c4:	10800017 	ldw	r2,0(r2)
  
  if (alt_ticks_per_second ())
 100d6c8:	1005003a 	cmpeq	r2,r2,zero
 100d6cc:	1000411e 	bne	r2,zero,100d7d4 <alt_alarm_start+0x138>
  {
    if (alarm)
 100d6d0:	e0bffb17 	ldw	r2,-20(fp)
 100d6d4:	1005003a 	cmpeq	r2,r2,zero
 100d6d8:	10003b1e 	bne	r2,zero,100d7c8 <alt_alarm_start+0x12c>
    {
      alarm->callback = callback;
 100d6dc:	e0fffb17 	ldw	r3,-20(fp)
 100d6e0:	e0bffd17 	ldw	r2,-12(fp)
 100d6e4:	18800315 	stw	r2,12(r3)
      alarm->context  = context;
 100d6e8:	e0fffb17 	ldw	r3,-20(fp)
 100d6ec:	e0bffe17 	ldw	r2,-8(fp)
 100d6f0:	18800515 	stw	r2,20(r3)
static ALT_INLINE alt_irq_context ALT_ALWAYS_INLINE 
       alt_irq_disable_all (void)
{
  alt_irq_context context;

  NIOS2_READ_STATUS (context);
 100d6f4:	0005303a 	rdctl	r2,status
 100d6f8:	e0bff815 	stw	r2,-32(fp)

  NIOS2_WRITE_STATUS (context & ~NIOS2_STATUS_PIE_MSK);
 100d6fc:	e0fff817 	ldw	r3,-32(fp)
 100d700:	00bfff84 	movi	r2,-2
 100d704:	1884703a 	and	r2,r3,r2
 100d708:	1001703a 	wrctl	status,r2
  
  return context;
 100d70c:	e0bff817 	ldw	r2,-32(fp)
 
      irq_context = alt_irq_disable_all ();
 100d710:	e0bffa15 	stw	r2,-24(fp)
 * alt_nticks() returns the elapsed number of system clock ticks since reset.
 */

static ALT_INLINE alt_u32 ALT_ALWAYS_INLINE alt_nticks (void)
{
  return _alt_nticks;
 100d714:	00804074 	movhi	r2,257
 100d718:	10892604 	addi	r2,r2,9368
 100d71c:	10800017 	ldw	r2,0(r2)
      
      current_nticks = alt_nticks();
 100d720:	e0bff915 	stw	r2,-28(fp)
      
      alarm->time = nticks + current_nticks + 1; 
 100d724:	e0fffc17 	ldw	r3,-16(fp)
 100d728:	e0bff917 	ldw	r2,-28(fp)
 100d72c:	1885883a 	add	r2,r3,r2
 100d730:	10c00044 	addi	r3,r2,1
 100d734:	e0bffb17 	ldw	r2,-20(fp)
 100d738:	10c00215 	stw	r3,8(r2)
      /* 
       * If the desired alarm time causes a roll-over, set the rollover
       * flag. This will prevent the subsequent tick event from causing
       * an alarm too early.
       */
      if(alarm->time < current_nticks)
 100d73c:	e0bffb17 	ldw	r2,-20(fp)
 100d740:	10c00217 	ldw	r3,8(r2)
 100d744:	e0bff917 	ldw	r2,-28(fp)
 100d748:	1880042e 	bgeu	r3,r2,100d75c <alt_alarm_start+0xc0>
      {
        alarm->rollover = 1;
 100d74c:	e0fffb17 	ldw	r3,-20(fp)
 100d750:	00800044 	movi	r2,1
 100d754:	18800405 	stb	r2,16(r3)
 100d758:	00000206 	br	100d764 <alt_alarm_start+0xc8>
      }
      else
      {
        alarm->rollover = 0;
 100d75c:	e0bffb17 	ldw	r2,-20(fp)
 100d760:	10000405 	stb	zero,16(r2)
      }
    
      alt_llist_insert (&alt_alarm_list, &alarm->llist);
 100d764:	e0fffb17 	ldw	r3,-20(fp)
 100d768:	00804074 	movhi	r2,257
 100d76c:	10825a04 	addi	r2,r2,2408
 100d770:	e0bff615 	stw	r2,-40(fp)
 100d774:	e0fff715 	stw	r3,-36(fp)
 */

static ALT_INLINE void ALT_ALWAYS_INLINE alt_llist_insert(alt_llist* list, 
                alt_llist* entry)
{
  entry->previous = list;
 100d778:	e0fff717 	ldw	r3,-36(fp)
 100d77c:	e0bff617 	ldw	r2,-40(fp)
 100d780:	18800115 	stw	r2,4(r3)
  entry->next     = list->next;
 100d784:	e0bff617 	ldw	r2,-40(fp)
 100d788:	10c00017 	ldw	r3,0(r2)
 100d78c:	e0bff717 	ldw	r2,-36(fp)
 100d790:	10c00015 	stw	r3,0(r2)

  list->next->previous = entry;
 100d794:	e0bff617 	ldw	r2,-40(fp)
 100d798:	10c00017 	ldw	r3,0(r2)
 100d79c:	e0bff717 	ldw	r2,-36(fp)
 100d7a0:	18800115 	stw	r2,4(r3)
  list->next           = entry;
 100d7a4:	e0fff617 	ldw	r3,-40(fp)
 100d7a8:	e0bff717 	ldw	r2,-36(fp)
 100d7ac:	18800015 	stw	r2,0(r3)
 100d7b0:	e0bffa17 	ldw	r2,-24(fp)
 100d7b4:	e0bff515 	stw	r2,-44(fp)
  status &= ~NIOS2_STATUS_PIE_MSK;
  status |= (context & NIOS2_STATUS_PIE_MSK);
  
  NIOS2_WRITE_STATUS (status);
#else
  NIOS2_WRITE_STATUS (context);
 100d7b8:	e0bff517 	ldw	r2,-44(fp)
 100d7bc:	1001703a 	wrctl	status,r2
      alt_irq_enable_all (irq_context);

      return 0;
 100d7c0:	e03fff15 	stw	zero,-4(fp)
 100d7c4:	00000506 	br	100d7dc <alt_alarm_start+0x140>
    }
    else
    {
      return -EINVAL;
 100d7c8:	00bffa84 	movi	r2,-22
 100d7cc:	e0bfff15 	stw	r2,-4(fp)
 100d7d0:	00000206 	br	100d7dc <alt_alarm_start+0x140>
    }
  }
  else
  {
    return -ENOTSUP;
 100d7d4:	00bfde84 	movi	r2,-134
 100d7d8:	e0bfff15 	stw	r2,-4(fp)
 100d7dc:	e0bfff17 	ldw	r2,-4(fp)
  }
}
 100d7e0:	e037883a 	mov	sp,fp
 100d7e4:	df000017 	ldw	fp,0(sp)
 100d7e8:	dec00104 	addi	sp,sp,4
 100d7ec:	f800283a 	ret

0100d7f0 <alt_dcache_flush_all>:
/*
 * alt_dcache_flush_all() is called to flush the entire data cache.
 */

void alt_dcache_flush_all (void)
{
 100d7f0:	deffff04 	addi	sp,sp,-4
 100d7f4:	df000015 	stw	fp,0(sp)
 100d7f8:	d839883a 	mov	fp,sp
  for (i = (char*) 0; i < (char*) NIOS2_DCACHE_SIZE; i+= NIOS2_DCACHE_LINE_SIZE)
  { 
    __asm__ volatile ("flushd (%0)" :: "r" (i));
  }
#endif /* NIOS2_DCACHE_SIZE > 0 */
}
 100d7fc:	e037883a 	mov	sp,fp
 100d800:	df000017 	ldw	fp,0(sp)
 100d804:	dec00104 	addi	sp,sp,4
 100d808:	f800283a 	ret

0100d80c <alt_dev_llist_insert>:
/*
 *
 */

int alt_dev_llist_insert (alt_dev_llist* dev, alt_llist* list)
{
 100d80c:	defff904 	addi	sp,sp,-28
 100d810:	dfc00615 	stw	ra,24(sp)
 100d814:	df000515 	stw	fp,20(sp)
 100d818:	df000504 	addi	fp,sp,20
 100d81c:	e13ffd15 	stw	r4,-12(fp)
 100d820:	e17ffe15 	stw	r5,-8(fp)
  /*
   * check that the device exists, and that it has a valid name.
   */

  if (!dev || !dev->name)
 100d824:	e0bffd17 	ldw	r2,-12(fp)
 100d828:	1005003a 	cmpeq	r2,r2,zero
 100d82c:	1000041e 	bne	r2,zero,100d840 <alt_dev_llist_insert+0x34>
 100d830:	e0bffd17 	ldw	r2,-12(fp)
 100d834:	10800217 	ldw	r2,8(r2)
 100d838:	1004c03a 	cmpne	r2,r2,zero
 100d83c:	1000071e 	bne	r2,zero,100d85c <alt_dev_llist_insert+0x50>
  {
    ALT_ERRNO = EINVAL;
 100d840:	100d8c00 	call	100d8c0 <alt_get_errno>
 100d844:	1007883a 	mov	r3,r2
 100d848:	00800584 	movi	r2,22
 100d84c:	18800015 	stw	r2,0(r3)
    return -EINVAL;
 100d850:	00bffa84 	movi	r2,-22
 100d854:	e0bfff15 	stw	r2,-4(fp)
 100d858:	00001306 	br	100d8a8 <alt_dev_llist_insert+0x9c>
  
  /*
   * register the device.
   */
  
  alt_llist_insert(list, &dev->llist);
 100d85c:	e0fffd17 	ldw	r3,-12(fp)
 100d860:	e0bffe17 	ldw	r2,-8(fp)
 100d864:	e0bffb15 	stw	r2,-20(fp)
 100d868:	e0fffc15 	stw	r3,-16(fp)
 */

static ALT_INLINE void ALT_ALWAYS_INLINE alt_llist_insert(alt_llist* list, 
                alt_llist* entry)
{
  entry->previous = list;
 100d86c:	e0fffc17 	ldw	r3,-16(fp)
 100d870:	e0bffb17 	ldw	r2,-20(fp)
 100d874:	18800115 	stw	r2,4(r3)
  entry->next     = list->next;
 100d878:	e0bffb17 	ldw	r2,-20(fp)
 100d87c:	10c00017 	ldw	r3,0(r2)
 100d880:	e0bffc17 	ldw	r2,-16(fp)
 100d884:	10c00015 	stw	r3,0(r2)

  list->next->previous = entry;
 100d888:	e0bffb17 	ldw	r2,-20(fp)
 100d88c:	10c00017 	ldw	r3,0(r2)
 100d890:	e0bffc17 	ldw	r2,-16(fp)
 100d894:	18800115 	stw	r2,4(r3)
  list->next           = entry;
 100d898:	e0fffb17 	ldw	r3,-20(fp)
 100d89c:	e0bffc17 	ldw	r2,-16(fp)
 100d8a0:	18800015 	stw	r2,0(r3)

  return 0;  
 100d8a4:	e03fff15 	stw	zero,-4(fp)
 100d8a8:	e0bfff17 	ldw	r2,-4(fp)
}
 100d8ac:	e037883a 	mov	sp,fp
 100d8b0:	dfc00117 	ldw	ra,4(sp)
 100d8b4:	df000017 	ldw	fp,0(sp)
 100d8b8:	dec00204 	addi	sp,sp,8
 100d8bc:	f800283a 	ret

0100d8c0 <alt_get_errno>:
#undef errno

extern int errno;

static ALT_INLINE int* alt_get_errno(void)
{
 100d8c0:	defffd04 	addi	sp,sp,-12
 100d8c4:	dfc00215 	stw	ra,8(sp)
 100d8c8:	df000115 	stw	fp,4(sp)
 100d8cc:	df000104 	addi	fp,sp,4
  return ((alt_errno) ? alt_errno() : &errno);
 100d8d0:	00804074 	movhi	r2,257
 100d8d4:	10825704 	addi	r2,r2,2396
 100d8d8:	10800017 	ldw	r2,0(r2)
 100d8dc:	1005003a 	cmpeq	r2,r2,zero
 100d8e0:	1000061e 	bne	r2,zero,100d8fc <alt_get_errno+0x3c>
 100d8e4:	00804074 	movhi	r2,257
 100d8e8:	10825704 	addi	r2,r2,2396
 100d8ec:	10800017 	ldw	r2,0(r2)
 100d8f0:	103ee83a 	callr	r2
 100d8f4:	e0bfff15 	stw	r2,-4(fp)
 100d8f8:	00000306 	br	100d908 <alt_get_errno+0x48>
 100d8fc:	00804074 	movhi	r2,257
 100d900:	10892004 	addi	r2,r2,9344
 100d904:	e0bfff15 	stw	r2,-4(fp)
 100d908:	e0bfff17 	ldw	r2,-4(fp)
}
 100d90c:	e037883a 	mov	sp,fp
 100d910:	dfc00117 	ldw	ra,4(sp)
 100d914:	df000017 	ldw	fp,0(sp)
 100d918:	dec00204 	addi	sp,sp,8
 100d91c:	f800283a 	ret

0100d920 <_do_ctors>:
/*
 * Run the C++ static constructors.
 */

void _do_ctors(void)
{
 100d920:	defffd04 	addi	sp,sp,-12
 100d924:	dfc00215 	stw	ra,8(sp)
 100d928:	df000115 	stw	fp,4(sp)
 100d92c:	df000104 	addi	fp,sp,4
  constructor* ctor;

  for (ctor = &__CTOR_END__[-1]; ctor >= __CTOR_LIST__; ctor--)
 100d930:	00bfff04 	movi	r2,-4
 100d934:	00c04074 	movhi	r3,257
 100d938:	18fa5604 	addi	r3,r3,-5800
 100d93c:	1885883a 	add	r2,r3,r2
 100d940:	e0bfff15 	stw	r2,-4(fp)
 100d944:	00000606 	br	100d960 <_do_ctors+0x40>
        (*ctor) (); 
 100d948:	e0bfff17 	ldw	r2,-4(fp)
 100d94c:	10800017 	ldw	r2,0(r2)
 100d950:	103ee83a 	callr	r2

void _do_ctors(void)
{
  constructor* ctor;

  for (ctor = &__CTOR_END__[-1]; ctor >= __CTOR_LIST__; ctor--)
 100d954:	e0bfff17 	ldw	r2,-4(fp)
 100d958:	10bfff04 	addi	r2,r2,-4
 100d95c:	e0bfff15 	stw	r2,-4(fp)
 100d960:	e0ffff17 	ldw	r3,-4(fp)
 100d964:	00804074 	movhi	r2,257
 100d968:	10ba5504 	addi	r2,r2,-5804
 100d96c:	18bff62e 	bgeu	r3,r2,100d948 <_do_ctors+0x28>
        (*ctor) (); 
}
 100d970:	e037883a 	mov	sp,fp
 100d974:	dfc00117 	ldw	ra,4(sp)
 100d978:	df000017 	ldw	fp,0(sp)
 100d97c:	dec00204 	addi	sp,sp,8
 100d980:	f800283a 	ret

0100d984 <_do_dtors>:
/*
 * Run the C++ static destructors.
 */

void _do_dtors(void)
{
 100d984:	defffd04 	addi	sp,sp,-12
 100d988:	dfc00215 	stw	ra,8(sp)
 100d98c:	df000115 	stw	fp,4(sp)
 100d990:	df000104 	addi	fp,sp,4
  destructor* dtor;

  for (dtor = &__DTOR_END__[-1]; dtor >= __DTOR_LIST__; dtor--)
 100d994:	00bfff04 	movi	r2,-4
 100d998:	00c04074 	movhi	r3,257
 100d99c:	18fa5604 	addi	r3,r3,-5800
 100d9a0:	1885883a 	add	r2,r3,r2
 100d9a4:	e0bfff15 	stw	r2,-4(fp)
 100d9a8:	00000606 	br	100d9c4 <_do_dtors+0x40>
        (*dtor) (); 
 100d9ac:	e0bfff17 	ldw	r2,-4(fp)
 100d9b0:	10800017 	ldw	r2,0(r2)
 100d9b4:	103ee83a 	callr	r2

void _do_dtors(void)
{
  destructor* dtor;

  for (dtor = &__DTOR_END__[-1]; dtor >= __DTOR_LIST__; dtor--)
 100d9b8:	e0bfff17 	ldw	r2,-4(fp)
 100d9bc:	10bfff04 	addi	r2,r2,-4
 100d9c0:	e0bfff15 	stw	r2,-4(fp)
 100d9c4:	e0ffff17 	ldw	r3,-4(fp)
 100d9c8:	00804074 	movhi	r2,257
 100d9cc:	10ba5604 	addi	r2,r2,-5800
 100d9d0:	18bff62e 	bgeu	r3,r2,100d9ac <_do_dtors+0x28>
        (*dtor) (); 
}
 100d9d4:	e037883a 	mov	sp,fp
 100d9d8:	dfc00117 	ldw	ra,4(sp)
 100d9dc:	df000017 	ldw	fp,0(sp)
 100d9e0:	dec00204 	addi	sp,sp,8
 100d9e4:	f800283a 	ret

0100d9e8 <alt_find_dev>:
 * "name" must be an exact match for the devices registered name for a match to
 * be found.
 */
 
alt_dev* alt_find_dev(const char* name, alt_llist* llist)
{
 100d9e8:	defff904 	addi	sp,sp,-28
 100d9ec:	dfc00615 	stw	ra,24(sp)
 100d9f0:	df000515 	stw	fp,20(sp)
 100d9f4:	df000504 	addi	fp,sp,20
 100d9f8:	e13ffd15 	stw	r4,-12(fp)
 100d9fc:	e17ffe15 	stw	r5,-8(fp)
  alt_dev* next = (alt_dev*) llist->next;
 100da00:	e0bffe17 	ldw	r2,-8(fp)
 100da04:	10800017 	ldw	r2,0(r2)
 100da08:	e0bffc15 	stw	r2,-16(fp)
  alt_32 len;

  len  = strlen(name) + 1;
 100da0c:	e13ffd17 	ldw	r4,-12(fp)
 100da10:	1000ce40 	call	1000ce4 <strlen>
 100da14:	10800044 	addi	r2,r2,1
 100da18:	e0bffb15 	stw	r2,-20(fp)
  /*
   * Check each list entry in turn, until a match is found, or we reach the
   * end of the list (i.e. next winds up pointing back to the list head).
   */ 

  while (next != (alt_dev*) llist)
 100da1c:	00000d06 	br	100da54 <alt_find_dev+0x6c>
    /* 
     * memcmp() is used here rather than strcmp() in order to reduce the size
     * of the executable.
     */

    if (!memcmp (next->name, name, len))
 100da20:	e0bffc17 	ldw	r2,-16(fp)
 100da24:	11000217 	ldw	r4,8(r2)
 100da28:	e1bffb17 	ldw	r6,-20(fp)
 100da2c:	e17ffd17 	ldw	r5,-12(fp)
 100da30:	100e5980 	call	100e598 <memcmp>
 100da34:	1004c03a 	cmpne	r2,r2,zero
 100da38:	1000031e 	bne	r2,zero,100da48 <alt_find_dev+0x60>
    {
      /* match found */

      return next;
 100da3c:	e0bffc17 	ldw	r2,-16(fp)
 100da40:	e0bfff15 	stw	r2,-4(fp)
 100da44:	00000706 	br	100da64 <alt_find_dev+0x7c>
    }
    next = (alt_dev*) next->llist.next;
 100da48:	e0bffc17 	ldw	r2,-16(fp)
 100da4c:	10800017 	ldw	r2,0(r2)
 100da50:	e0bffc15 	stw	r2,-16(fp)
  /*
   * Check each list entry in turn, until a match is found, or we reach the
   * end of the list (i.e. next winds up pointing back to the list head).
   */ 

  while (next != (alt_dev*) llist)
 100da54:	e0fffe17 	ldw	r3,-8(fp)
 100da58:	e0bffc17 	ldw	r2,-16(fp)
 100da5c:	10fff01e 	bne	r2,r3,100da20 <alt_find_dev+0x38>
    next = (alt_dev*) next->llist.next;
  }
  
  /* No match found */
  
  return NULL;
 100da60:	e03fff15 	stw	zero,-4(fp)
 100da64:	e0bfff17 	ldw	r2,-4(fp)
}
 100da68:	e037883a 	mov	sp,fp
 100da6c:	dfc00117 	ldw	ra,4(sp)
 100da70:	df000017 	ldw	fp,0(sp)
 100da74:	dec00204 	addi	sp,sp,8
 100da78:	f800283a 	ret

0100da7c <alt_icache_flush_all>:
/*
 * alt_icache_flush_all() is called to flush the entire instruction cache.
 */

void alt_icache_flush_all (void)
{
 100da7c:	deffff04 	addi	sp,sp,-4
 100da80:	df000015 	stw	fp,0(sp)
 100da84:	d839883a 	mov	fp,sp
#if NIOS2_ICACHE_SIZE > 0
  alt_icache_flush (0, NIOS2_ICACHE_SIZE);
#endif
}
 100da88:	e037883a 	mov	sp,fp
 100da8c:	df000017 	ldw	fp,0(sp)
 100da90:	dec00104 	addi	sp,sp,4
 100da94:	f800283a 	ret

0100da98 <alt_ic_isr_register>:
  * @param irq              IRQ number
  * @return                 0 if successful, else error (-1)
  */
int alt_ic_isr_register(alt_u32 ic_id, alt_u32 irq, alt_isr_func isr, 
  void *isr_context, void *flags)
{
 100da98:	defff904 	addi	sp,sp,-28
 100da9c:	dfc00615 	stw	ra,24(sp)
 100daa0:	df000515 	stw	fp,20(sp)
 100daa4:	df000504 	addi	fp,sp,20
 100daa8:	e13ffc15 	stw	r4,-16(fp)
 100daac:	e17ffd15 	stw	r5,-12(fp)
 100dab0:	e1bffe15 	stw	r6,-8(fp)
 100dab4:	e1ffff15 	stw	r7,-4(fp)
    return alt_iic_isr_register(ic_id, irq, isr, isr_context, flags);
 100dab8:	e0800217 	ldw	r2,8(fp)
 100dabc:	d8800015 	stw	r2,0(sp)
 100dac0:	e13ffc17 	ldw	r4,-16(fp)
 100dac4:	e17ffd17 	ldw	r5,-12(fp)
 100dac8:	e1bffe17 	ldw	r6,-8(fp)
 100dacc:	e1ffff17 	ldw	r7,-4(fp)
 100dad0:	100dc6c0 	call	100dc6c <alt_iic_isr_register>
}  
 100dad4:	e037883a 	mov	sp,fp
 100dad8:	dfc00117 	ldw	ra,4(sp)
 100dadc:	df000017 	ldw	fp,0(sp)
 100dae0:	dec00204 	addi	sp,sp,8
 100dae4:	f800283a 	ret

0100dae8 <alt_ic_irq_enable>:
  * @param ic_id            Ignored.
  * @param irq              IRQ number
  * @return                 0 if successful, else error (-1)
  */
int alt_ic_irq_enable (alt_u32 ic_id, alt_u32 irq)
{
 100dae8:	defff904 	addi	sp,sp,-28
 100daec:	df000615 	stw	fp,24(sp)
 100daf0:	df000604 	addi	fp,sp,24
 100daf4:	e13ffe15 	stw	r4,-8(fp)
 100daf8:	e17fff15 	stw	r5,-4(fp)
 100dafc:	e0bfff17 	ldw	r2,-4(fp)
 100db00:	e0bffc15 	stw	r2,-16(fp)
static ALT_INLINE alt_irq_context ALT_ALWAYS_INLINE 
       alt_irq_disable_all (void)
{
  alt_irq_context context;

  NIOS2_READ_STATUS (context);
 100db04:	0005303a 	rdctl	r2,status
 100db08:	e0bffb15 	stw	r2,-20(fp)

  NIOS2_WRITE_STATUS (context & ~NIOS2_STATUS_PIE_MSK);
 100db0c:	e0fffb17 	ldw	r3,-20(fp)
 100db10:	00bfff84 	movi	r2,-2
 100db14:	1884703a 	and	r2,r3,r2
 100db18:	1001703a 	wrctl	status,r2
  
  return context;
 100db1c:	e0bffb17 	ldw	r2,-20(fp)
static ALT_INLINE int ALT_ALWAYS_INLINE alt_irq_enable (alt_u32 id)
{
  alt_irq_context  status;
  extern volatile alt_u32 alt_irq_active;

  status = alt_irq_disable_all ();
 100db20:	e0bffd15 	stw	r2,-12(fp)

  alt_irq_active |= (1 << id);
 100db24:	e0fffc17 	ldw	r3,-16(fp)
 100db28:	00800044 	movi	r2,1
 100db2c:	10c4983a 	sll	r2,r2,r3
 100db30:	1007883a 	mov	r3,r2
 100db34:	00804074 	movhi	r2,257
 100db38:	10892404 	addi	r2,r2,9360
 100db3c:	10800017 	ldw	r2,0(r2)
 100db40:	1886b03a 	or	r3,r3,r2
 100db44:	00804074 	movhi	r2,257
 100db48:	10892404 	addi	r2,r2,9360
 100db4c:	10c00015 	stw	r3,0(r2)
  NIOS2_WRITE_IENABLE (alt_irq_active);
 100db50:	00804074 	movhi	r2,257
 100db54:	10892404 	addi	r2,r2,9360
 100db58:	10800017 	ldw	r2,0(r2)
 100db5c:	100170fa 	wrctl	ienable,r2
 100db60:	e0bffd17 	ldw	r2,-12(fp)
 100db64:	e0bffa15 	stw	r2,-24(fp)
  status &= ~NIOS2_STATUS_PIE_MSK;
  status |= (context & NIOS2_STATUS_PIE_MSK);
  
  NIOS2_WRITE_STATUS (status);
#else
  NIOS2_WRITE_STATUS (context);
 100db68:	e0bffa17 	ldw	r2,-24(fp)
 100db6c:	1001703a 	wrctl	status,r2

  alt_irq_enable_all(status);

  return 0;
 100db70:	0005883a 	mov	r2,zero
    return alt_irq_enable(irq);
}
 100db74:	e037883a 	mov	sp,fp
 100db78:	df000017 	ldw	fp,0(sp)
 100db7c:	dec00104 	addi	sp,sp,4
 100db80:	f800283a 	ret

0100db84 <alt_ic_irq_disable>:
  * @param ic_id            Ignored.
  * @param irq              IRQ number
  * @return                 0 if successful, else error (-1)
  */
int alt_ic_irq_disable(alt_u32 ic_id, alt_u32 irq)
{
 100db84:	defff904 	addi	sp,sp,-28
 100db88:	df000615 	stw	fp,24(sp)
 100db8c:	df000604 	addi	fp,sp,24
 100db90:	e13ffe15 	stw	r4,-8(fp)
 100db94:	e17fff15 	stw	r5,-4(fp)
 100db98:	e0bfff17 	ldw	r2,-4(fp)
 100db9c:	e0bffc15 	stw	r2,-16(fp)
static ALT_INLINE alt_irq_context ALT_ALWAYS_INLINE 
       alt_irq_disable_all (void)
{
  alt_irq_context context;

  NIOS2_READ_STATUS (context);
 100dba0:	0005303a 	rdctl	r2,status
 100dba4:	e0bffb15 	stw	r2,-20(fp)

  NIOS2_WRITE_STATUS (context & ~NIOS2_STATUS_PIE_MSK);
 100dba8:	e0fffb17 	ldw	r3,-20(fp)
 100dbac:	00bfff84 	movi	r2,-2
 100dbb0:	1884703a 	and	r2,r3,r2
 100dbb4:	1001703a 	wrctl	status,r2
  
  return context;
 100dbb8:	e0bffb17 	ldw	r2,-20(fp)
static ALT_INLINE int ALT_ALWAYS_INLINE alt_irq_disable (alt_u32 id)
{
  alt_irq_context  status;
  extern volatile alt_u32 alt_irq_active;

  status = alt_irq_disable_all ();
 100dbbc:	e0bffd15 	stw	r2,-12(fp)

  alt_irq_active &= ~(1 << id);
 100dbc0:	e0fffc17 	ldw	r3,-16(fp)
 100dbc4:	00800044 	movi	r2,1
 100dbc8:	10c4983a 	sll	r2,r2,r3
 100dbcc:	0084303a 	nor	r2,zero,r2
 100dbd0:	1007883a 	mov	r3,r2
 100dbd4:	00804074 	movhi	r2,257
 100dbd8:	10892404 	addi	r2,r2,9360
 100dbdc:	10800017 	ldw	r2,0(r2)
 100dbe0:	1886703a 	and	r3,r3,r2
 100dbe4:	00804074 	movhi	r2,257
 100dbe8:	10892404 	addi	r2,r2,9360
 100dbec:	10c00015 	stw	r3,0(r2)
  NIOS2_WRITE_IENABLE (alt_irq_active);
 100dbf0:	00804074 	movhi	r2,257
 100dbf4:	10892404 	addi	r2,r2,9360
 100dbf8:	10800017 	ldw	r2,0(r2)
 100dbfc:	100170fa 	wrctl	ienable,r2
 100dc00:	e0bffd17 	ldw	r2,-12(fp)
 100dc04:	e0bffa15 	stw	r2,-24(fp)
  status &= ~NIOS2_STATUS_PIE_MSK;
  status |= (context & NIOS2_STATUS_PIE_MSK);
  
  NIOS2_WRITE_STATUS (status);
#else
  NIOS2_WRITE_STATUS (context);
 100dc08:	e0bffa17 	ldw	r2,-24(fp)
 100dc0c:	1001703a 	wrctl	status,r2

  alt_irq_enable_all(status);

  return 0;
 100dc10:	0005883a 	mov	r2,zero
    return alt_irq_disable(irq);
}
 100dc14:	e037883a 	mov	sp,fp
 100dc18:	df000017 	ldw	fp,0(sp)
 100dc1c:	dec00104 	addi	sp,sp,4
 100dc20:	f800283a 	ret

0100dc24 <alt_ic_irq_enabled>:
  * @param irq              IRQ number
  * @return                 Zero if corresponding interrupt is disabled and
  *                         non-zero otherwise.
  */
alt_u32 alt_ic_irq_enabled(alt_u32 ic_id, alt_u32 irq)
{
 100dc24:	defffc04 	addi	sp,sp,-16
 100dc28:	df000315 	stw	fp,12(sp)
 100dc2c:	df000304 	addi	fp,sp,12
 100dc30:	e13ffe15 	stw	r4,-8(fp)
 100dc34:	e17fff15 	stw	r5,-4(fp)
    alt_u32 irq_enabled;

    NIOS2_READ_IENABLE(irq_enabled);
 100dc38:	000530fa 	rdctl	r2,ienable
 100dc3c:	e0bffd15 	stw	r2,-12(fp)

    return (irq_enabled & (1 << irq)) ? 1: 0;
 100dc40:	e0ffff17 	ldw	r3,-4(fp)
 100dc44:	00800044 	movi	r2,1
 100dc48:	10c4983a 	sll	r2,r2,r3
 100dc4c:	1007883a 	mov	r3,r2
 100dc50:	e0bffd17 	ldw	r2,-12(fp)
 100dc54:	1884703a 	and	r2,r3,r2
 100dc58:	1004c03a 	cmpne	r2,r2,zero
}
 100dc5c:	e037883a 	mov	sp,fp
 100dc60:	df000017 	ldw	fp,0(sp)
 100dc64:	dec00104 	addi	sp,sp,4
 100dc68:	f800283a 	ret

0100dc6c <alt_iic_isr_register>:
  * @param flags            
  * @return                 0 if successful, else error (-1)
  */
int alt_iic_isr_register(alt_u32 ic_id, alt_u32 irq, alt_isr_func isr, 
  void *isr_context, void *flags)
{
 100dc6c:	defff404 	addi	sp,sp,-48
 100dc70:	dfc00b15 	stw	ra,44(sp)
 100dc74:	df000a15 	stw	fp,40(sp)
 100dc78:	df000a04 	addi	fp,sp,40
 100dc7c:	e13ffb15 	stw	r4,-20(fp)
 100dc80:	e17ffc15 	stw	r5,-16(fp)
 100dc84:	e1bffd15 	stw	r6,-12(fp)
 100dc88:	e1fffe15 	stw	r7,-8(fp)
  int rc = -EINVAL;  
 100dc8c:	00bffa84 	movi	r2,-22
 100dc90:	e0bffa15 	stw	r2,-24(fp)
  int id = irq;             /* IRQ interpreted as the interrupt ID. */
 100dc94:	e0bffc17 	ldw	r2,-16(fp)
 100dc98:	e0bff915 	stw	r2,-28(fp)
  alt_irq_context status;

  if (id < ALT_NIRQ)
 100dc9c:	e0bff917 	ldw	r2,-28(fp)
 100dca0:	10800808 	cmpgei	r2,r2,32
 100dca4:	1000291e 	bne	r2,zero,100dd4c <alt_iic_isr_register+0xe0>
static ALT_INLINE alt_irq_context ALT_ALWAYS_INLINE 
       alt_irq_disable_all (void)
{
  alt_irq_context context;

  NIOS2_READ_STATUS (context);
 100dca8:	0005303a 	rdctl	r2,status
 100dcac:	e0bff715 	stw	r2,-36(fp)

  NIOS2_WRITE_STATUS (context & ~NIOS2_STATUS_PIE_MSK);
 100dcb0:	e0fff717 	ldw	r3,-36(fp)
 100dcb4:	00bfff84 	movi	r2,-2
 100dcb8:	1884703a 	and	r2,r3,r2
 100dcbc:	1001703a 	wrctl	status,r2
  
  return context;
 100dcc0:	e0bff717 	ldw	r2,-36(fp)
     * interrupts are disabled while the handler tables are updated to ensure
     * that an interrupt doesn't occur while the tables are in an inconsistant
     * state.
     */

    status = alt_irq_disable_all();
 100dcc4:	e0bff815 	stw	r2,-32(fp)

    alt_irq[id].handler = isr;
 100dcc8:	e0bff917 	ldw	r2,-28(fp)
 100dccc:	00c04074 	movhi	r3,257
 100dcd0:	18c93104 	addi	r3,r3,9412
 100dcd4:	100490fa 	slli	r2,r2,3
 100dcd8:	10c7883a 	add	r3,r2,r3
 100dcdc:	e0bffd17 	ldw	r2,-12(fp)
 100dce0:	18800015 	stw	r2,0(r3)
    alt_irq[id].context = isr_context;
 100dce4:	e0bff917 	ldw	r2,-28(fp)
 100dce8:	00c04074 	movhi	r3,257
 100dcec:	18c93104 	addi	r3,r3,9412
 100dcf0:	100490fa 	slli	r2,r2,3
 100dcf4:	10c5883a 	add	r2,r2,r3
 100dcf8:	10c00104 	addi	r3,r2,4
 100dcfc:	e0bffe17 	ldw	r2,-8(fp)
 100dd00:	18800015 	stw	r2,0(r3)

    rc = (isr) ? alt_ic_irq_enable(ic_id, id) : alt_ic_irq_disable(ic_id, id);
 100dd04:	e0bffd17 	ldw	r2,-12(fp)
 100dd08:	1005003a 	cmpeq	r2,r2,zero
 100dd0c:	1000051e 	bne	r2,zero,100dd24 <alt_iic_isr_register+0xb8>
 100dd10:	e17ff917 	ldw	r5,-28(fp)
 100dd14:	e13ffb17 	ldw	r4,-20(fp)
 100dd18:	100dae80 	call	100dae8 <alt_ic_irq_enable>
 100dd1c:	e0bfff15 	stw	r2,-4(fp)
 100dd20:	00000406 	br	100dd34 <alt_iic_isr_register+0xc8>
 100dd24:	e17ff917 	ldw	r5,-28(fp)
 100dd28:	e13ffb17 	ldw	r4,-20(fp)
 100dd2c:	100db840 	call	100db84 <alt_ic_irq_disable>
 100dd30:	e0bfff15 	stw	r2,-4(fp)
 100dd34:	e0bfff17 	ldw	r2,-4(fp)
 100dd38:	e0bffa15 	stw	r2,-24(fp)
 100dd3c:	e0bff817 	ldw	r2,-32(fp)
 100dd40:	e0bff615 	stw	r2,-40(fp)
  status &= ~NIOS2_STATUS_PIE_MSK;
  status |= (context & NIOS2_STATUS_PIE_MSK);
  
  NIOS2_WRITE_STATUS (status);
#else
  NIOS2_WRITE_STATUS (context);
 100dd44:	e0bff617 	ldw	r2,-40(fp)
 100dd48:	1001703a 	wrctl	status,r2

    alt_irq_enable_all(status);
  }

  return rc; 
 100dd4c:	e0bffa17 	ldw	r2,-24(fp)
}
 100dd50:	e037883a 	mov	sp,fp
 100dd54:	dfc00117 	ldw	ra,4(sp)
 100dd58:	df000017 	ldw	fp,0(sp)
 100dd5c:	dec00204 	addi	sp,sp,8
 100dd60:	f800283a 	ret

0100dd64 <alt_open_fd>:
 * If the device can not be succesfully opened, then the input file descriptor
 * remains unchanged.
 */

static void alt_open_fd(alt_fd* fd, const char* name, int flags, int mode)
{
 100dd64:	defff804 	addi	sp,sp,-32
 100dd68:	dfc00715 	stw	ra,28(sp)
 100dd6c:	df000615 	stw	fp,24(sp)
 100dd70:	dc000515 	stw	r16,20(sp)
 100dd74:	df000504 	addi	fp,sp,20
 100dd78:	e13ffc15 	stw	r4,-16(fp)
 100dd7c:	e17ffd15 	stw	r5,-12(fp)
 100dd80:	e1bffe15 	stw	r6,-8(fp)
 100dd84:	e1ffff15 	stw	r7,-4(fp)
  int old;

  old = open (name, flags, mode);
 100dd88:	e13ffd17 	ldw	r4,-12(fp)
 100dd8c:	e17ffe17 	ldw	r5,-8(fp)
 100dd90:	e1bfff17 	ldw	r6,-4(fp)
 100dd94:	100dfac0 	call	100dfac <open>
 100dd98:	e0bffb15 	stw	r2,-20(fp)

  if (old >= 0)
 100dd9c:	e0bffb17 	ldw	r2,-20(fp)
 100dda0:	1004803a 	cmplt	r2,r2,zero
 100dda4:	10001f1e 	bne	r2,zero,100de24 <alt_open_fd+0xc0>
  {
    fd->dev      = alt_fd_list[old].dev;
 100dda8:	e13ffb17 	ldw	r4,-20(fp)
 100ddac:	04004074 	movhi	r16,257
 100ddb0:	843dad04 	addi	r16,r16,-2380
 100ddb4:	01400304 	movi	r5,12
 100ddb8:	1009f0c0 	call	1009f0c <__mulsi3>
 100ddbc:	1405883a 	add	r2,r2,r16
 100ddc0:	10c00017 	ldw	r3,0(r2)
 100ddc4:	e0bffc17 	ldw	r2,-16(fp)
 100ddc8:	10c00015 	stw	r3,0(r2)
    fd->priv     = alt_fd_list[old].priv;
 100ddcc:	e13ffb17 	ldw	r4,-20(fp)
 100ddd0:	04004074 	movhi	r16,257
 100ddd4:	843dad04 	addi	r16,r16,-2380
 100ddd8:	01400304 	movi	r5,12
 100dddc:	1009f0c0 	call	1009f0c <__mulsi3>
 100dde0:	1405883a 	add	r2,r2,r16
 100dde4:	10800104 	addi	r2,r2,4
 100dde8:	10c00017 	ldw	r3,0(r2)
 100ddec:	e0bffc17 	ldw	r2,-16(fp)
 100ddf0:	10c00115 	stw	r3,4(r2)
    fd->fd_flags = alt_fd_list[old].fd_flags;
 100ddf4:	e13ffb17 	ldw	r4,-20(fp)
 100ddf8:	04004074 	movhi	r16,257
 100ddfc:	843dad04 	addi	r16,r16,-2380
 100de00:	01400304 	movi	r5,12
 100de04:	1009f0c0 	call	1009f0c <__mulsi3>
 100de08:	1405883a 	add	r2,r2,r16
 100de0c:	10800204 	addi	r2,r2,8
 100de10:	10c00017 	ldw	r3,0(r2)
 100de14:	e0bffc17 	ldw	r2,-16(fp)
 100de18:	10c00215 	stw	r3,8(r2)

    alt_release_fd (old);
 100de1c:	e13ffb17 	ldw	r4,-20(fp)
 100de20:	100ad300 	call	100ad30 <alt_release_fd>
  }
} 
 100de24:	e037883a 	mov	sp,fp
 100de28:	dfc00217 	ldw	ra,8(sp)
 100de2c:	df000117 	ldw	fp,4(sp)
 100de30:	dc000017 	ldw	r16,0(sp)
 100de34:	dec00304 	addi	sp,sp,12
 100de38:	f800283a 	ret

0100de3c <alt_io_redirect>:
 */
 
void alt_io_redirect(const char* stdout_dev, 
                     const char* stdin_dev, 
                     const char* stderr_dev)
{
 100de3c:	defffb04 	addi	sp,sp,-20
 100de40:	dfc00415 	stw	ra,16(sp)
 100de44:	df000315 	stw	fp,12(sp)
 100de48:	df000304 	addi	fp,sp,12
 100de4c:	e13ffd15 	stw	r4,-12(fp)
 100de50:	e17ffe15 	stw	r5,-8(fp)
 100de54:	e1bfff15 	stw	r6,-4(fp)
  /* Redirect the channels */

  alt_open_fd (&alt_fd_list[STDOUT_FILENO], stdout_dev, O_WRONLY, 0777);
 100de58:	01004074 	movhi	r4,257
 100de5c:	213db004 	addi	r4,r4,-2368
 100de60:	e17ffd17 	ldw	r5,-12(fp)
 100de64:	01800044 	movi	r6,1
 100de68:	01c07fc4 	movi	r7,511
 100de6c:	100dd640 	call	100dd64 <alt_open_fd>
  alt_open_fd (&alt_fd_list[STDIN_FILENO], stdin_dev, O_RDONLY, 0777);
 100de70:	01004074 	movhi	r4,257
 100de74:	213dad04 	addi	r4,r4,-2380
 100de78:	e17ffe17 	ldw	r5,-8(fp)
 100de7c:	000d883a 	mov	r6,zero
 100de80:	01c07fc4 	movi	r7,511
 100de84:	100dd640 	call	100dd64 <alt_open_fd>
  alt_open_fd (&alt_fd_list[STDERR_FILENO], stderr_dev, O_WRONLY, 0777);
 100de88:	01004074 	movhi	r4,257
 100de8c:	213db304 	addi	r4,r4,-2356
 100de90:	e17fff17 	ldw	r5,-4(fp)
 100de94:	01800044 	movi	r6,1
 100de98:	01c07fc4 	movi	r7,511
 100de9c:	100dd640 	call	100dd64 <alt_open_fd>
}  
 100dea0:	e037883a 	mov	sp,fp
 100dea4:	dfc00117 	ldw	ra,4(sp)
 100dea8:	df000017 	ldw	fp,0(sp)
 100deac:	dec00204 	addi	sp,sp,8
 100deb0:	f800283a 	ret

0100deb4 <alt_file_locked>:
 * performed for devices. Filesystems are required to handle the ioctl() call
 * themselves, and report the error from the filesystems open() function. 
 */ 

static int alt_file_locked (alt_fd* fd)
{
 100deb4:	defffa04 	addi	sp,sp,-24
 100deb8:	dfc00515 	stw	ra,20(sp)
 100debc:	df000415 	stw	fp,16(sp)
 100dec0:	dc000315 	stw	r16,12(sp)
 100dec4:	df000304 	addi	fp,sp,12
 100dec8:	e13ffe15 	stw	r4,-8(fp)

  /*
   * Mark the file descriptor as belonging to a device.
   */

  fd->fd_flags |= ALT_FD_DEV;
 100decc:	e0bffe17 	ldw	r2,-8(fp)
 100ded0:	10800217 	ldw	r2,8(r2)
 100ded4:	10d00034 	orhi	r3,r2,16384
 100ded8:	e0bffe17 	ldw	r2,-8(fp)
 100dedc:	10c00215 	stw	r3,8(r2)
  /*
   * Loop through all current file descriptors searching for one that's locked
   * for exclusive access. If a match is found, generate an error.
   */

  for (i = 0; i <= alt_max_fd; i++)
 100dee0:	e03ffd15 	stw	zero,-12(fp)
 100dee4:	00002306 	br	100df74 <alt_file_locked+0xc0>
  {
    if ((alt_fd_list[i].dev == fd->dev) &&
 100dee8:	e13ffd17 	ldw	r4,-12(fp)
 100deec:	04004074 	movhi	r16,257
 100def0:	843dad04 	addi	r16,r16,-2380
 100def4:	01400304 	movi	r5,12
 100def8:	1009f0c0 	call	1009f0c <__mulsi3>
 100defc:	1405883a 	add	r2,r2,r16
 100df00:	10c00017 	ldw	r3,0(r2)
 100df04:	e0bffe17 	ldw	r2,-8(fp)
 100df08:	10800017 	ldw	r2,0(r2)
 100df0c:	1880161e 	bne	r3,r2,100df68 <alt_file_locked+0xb4>
 100df10:	e13ffd17 	ldw	r4,-12(fp)
 100df14:	04004074 	movhi	r16,257
 100df18:	843dad04 	addi	r16,r16,-2380
 100df1c:	01400304 	movi	r5,12
 100df20:	1009f0c0 	call	1009f0c <__mulsi3>
 100df24:	1405883a 	add	r2,r2,r16
 100df28:	10800204 	addi	r2,r2,8
 100df2c:	10800017 	ldw	r2,0(r2)
 100df30:	1004403a 	cmpge	r2,r2,zero
 100df34:	10000c1e 	bne	r2,zero,100df68 <alt_file_locked+0xb4>
 100df38:	e13ffd17 	ldw	r4,-12(fp)
 100df3c:	01400304 	movi	r5,12
 100df40:	1009f0c0 	call	1009f0c <__mulsi3>
 100df44:	1007883a 	mov	r3,r2
 100df48:	00804074 	movhi	r2,257
 100df4c:	10bdad04 	addi	r2,r2,-2380
 100df50:	1887883a 	add	r3,r3,r2
 100df54:	e0bffe17 	ldw	r2,-8(fp)
 100df58:	18800326 	beq	r3,r2,100df68 <alt_file_locked+0xb4>
        (alt_fd_list[i].fd_flags & ALT_FD_EXCL) &&
        (&alt_fd_list[i] != fd))
    {
      return -EACCES;
 100df5c:	00bffcc4 	movi	r2,-13
 100df60:	e0bfff15 	stw	r2,-4(fp)
 100df64:	00000a06 	br	100df90 <alt_file_locked+0xdc>
  /*
   * Loop through all current file descriptors searching for one that's locked
   * for exclusive access. If a match is found, generate an error.
   */

  for (i = 0; i <= alt_max_fd; i++)
 100df68:	e0bffd17 	ldw	r2,-12(fp)
 100df6c:	10800044 	addi	r2,r2,1
 100df70:	e0bffd15 	stw	r2,-12(fp)
 100df74:	00804074 	movhi	r2,257
 100df78:	10825604 	addi	r2,r2,2392
 100df7c:	10800017 	ldw	r2,0(r2)
 100df80:	1007883a 	mov	r3,r2
 100df84:	e0bffd17 	ldw	r2,-12(fp)
 100df88:	18bfd72e 	bgeu	r3,r2,100dee8 <alt_file_locked+0x34>
    }
  }
  
  /* The device is not locked */
 
  return 0;
 100df8c:	e03fff15 	stw	zero,-4(fp)
 100df90:	e0bfff17 	ldw	r2,-4(fp)
}
 100df94:	e037883a 	mov	sp,fp
 100df98:	dfc00217 	ldw	ra,8(sp)
 100df9c:	df000117 	ldw	fp,4(sp)
 100dfa0:	dc000017 	ldw	r16,0(sp)
 100dfa4:	dec00304 	addi	sp,sp,12
 100dfa8:	f800283a 	ret

0100dfac <open>:
 *
 * ALT_OPEN is mapped onto the open() system call in alt_syscall.h
 */
 
int ALT_OPEN (const char* file, int flags, int mode)
{ 
 100dfac:	defff404 	addi	sp,sp,-48
 100dfb0:	dfc00b15 	stw	ra,44(sp)
 100dfb4:	df000a15 	stw	fp,40(sp)
 100dfb8:	df000a04 	addi	fp,sp,40
 100dfbc:	e13ffb15 	stw	r4,-20(fp)
 100dfc0:	e17ffc15 	stw	r5,-16(fp)
 100dfc4:	e1bffd15 	stw	r6,-12(fp)
  alt_dev* dev;
  alt_fd*  fd;
  int index  = -1;
 100dfc8:	00bfffc4 	movi	r2,-1
 100dfcc:	e0bff815 	stw	r2,-32(fp)
  int status = -ENODEV;
 100dfd0:	00bffb44 	movi	r2,-19
 100dfd4:	e0bff715 	stw	r2,-36(fp)
  int isafs = 0;
 100dfd8:	e03ff615 	stw	zero,-40(fp)
  /* 
   * Check the device list, to see if a device with a matching name is 
   * registered.
   */
  
  if (!(dev = alt_find_dev (file, &alt_dev_list)))
 100dfdc:	e13ffb17 	ldw	r4,-20(fp)
 100dfe0:	01404074 	movhi	r5,257
 100dfe4:	29425404 	addi	r5,r5,2384
 100dfe8:	100d9e80 	call	100d9e8 <alt_find_dev>
 100dfec:	e0bffa15 	stw	r2,-24(fp)
 100dff0:	e0bffa17 	ldw	r2,-24(fp)
 100dff4:	1004c03a 	cmpne	r2,r2,zero
 100dff8:	1000051e 	bne	r2,zero,100e010 <open+0x64>
  {
    /* No matching device, so try the filesystem list */

    dev   = alt_find_file (file);
 100dffc:	e13ffb17 	ldw	r4,-20(fp)
 100e000:	100e35c0 	call	100e35c <alt_find_file>
 100e004:	e0bffa15 	stw	r2,-24(fp)
    isafs = 1;
 100e008:	00800044 	movi	r2,1
 100e00c:	e0bff615 	stw	r2,-40(fp)

  /* 
   * If a matching device or filesystem is found, allocate a file descriptor. 
   */

  if (dev)
 100e010:	e0bffa17 	ldw	r2,-24(fp)
 100e014:	1005003a 	cmpeq	r2,r2,zero
 100e018:	1000311e 	bne	r2,zero,100e0e0 <open+0x134>
  {
    if ((index = alt_get_fd (dev)) < 0)
 100e01c:	e13ffa17 	ldw	r4,-24(fp)
 100e020:	100e47c0 	call	100e47c <alt_get_fd>
 100e024:	e0bff815 	stw	r2,-32(fp)
 100e028:	e0bff817 	ldw	r2,-32(fp)
 100e02c:	1004403a 	cmpge	r2,r2,zero
 100e030:	1000031e 	bne	r2,zero,100e040 <open+0x94>
    {
      status = index;
 100e034:	e0bff817 	ldw	r2,-32(fp)
 100e038:	e0bff715 	stw	r2,-36(fp)
 100e03c:	00002a06 	br	100e0e8 <open+0x13c>
    }
    else
    {
      fd = &alt_fd_list[index];
 100e040:	e13ff817 	ldw	r4,-32(fp)
 100e044:	01400304 	movi	r5,12
 100e048:	1009f0c0 	call	1009f0c <__mulsi3>
 100e04c:	1007883a 	mov	r3,r2
 100e050:	00804074 	movhi	r2,257
 100e054:	10bdad04 	addi	r2,r2,-2380
 100e058:	1885883a 	add	r2,r3,r2
 100e05c:	e0bff915 	stw	r2,-28(fp)
      fd->fd_flags = (flags & ~ALT_FD_FLAGS_MASK);
 100e060:	e0fffc17 	ldw	r3,-16(fp)
 100e064:	00900034 	movhi	r2,16384
 100e068:	10bfffc4 	addi	r2,r2,-1
 100e06c:	1886703a 	and	r3,r3,r2
 100e070:	e0bff917 	ldw	r2,-28(fp)
 100e074:	10c00215 	stw	r3,8(r2)
      
      /* If this is a device, ensure it isn't already locked */

      if (isafs || ((status = alt_file_locked (fd)) >= 0))
 100e078:	e0bff617 	ldw	r2,-40(fp)
 100e07c:	1004c03a 	cmpne	r2,r2,zero
 100e080:	1000061e 	bne	r2,zero,100e09c <open+0xf0>
 100e084:	e13ff917 	ldw	r4,-28(fp)
 100e088:	100deb40 	call	100deb4 <alt_file_locked>
 100e08c:	e0bff715 	stw	r2,-36(fp)
 100e090:	e0bff717 	ldw	r2,-36(fp)
 100e094:	1004803a 	cmplt	r2,r2,zero
 100e098:	1000131e 	bne	r2,zero,100e0e8 <open+0x13c>
        /* 
         * If the device or filesystem provides an open() callback function,
         * call it now to perform any device/filesystem specific operations.
         */
    
        status = (dev->open) ? dev->open(fd, file, flags, mode): 0;
 100e09c:	e0bffa17 	ldw	r2,-24(fp)
 100e0a0:	10800317 	ldw	r2,12(r2)
 100e0a4:	1005003a 	cmpeq	r2,r2,zero
 100e0a8:	1000091e 	bne	r2,zero,100e0d0 <open+0x124>
 100e0ac:	e0bffa17 	ldw	r2,-24(fp)
 100e0b0:	10800317 	ldw	r2,12(r2)
 100e0b4:	e13ff917 	ldw	r4,-28(fp)
 100e0b8:	e17ffb17 	ldw	r5,-20(fp)
 100e0bc:	e1bffc17 	ldw	r6,-16(fp)
 100e0c0:	e1fffd17 	ldw	r7,-12(fp)
 100e0c4:	103ee83a 	callr	r2
 100e0c8:	e0bfff15 	stw	r2,-4(fp)
 100e0cc:	00000106 	br	100e0d4 <open+0x128>
 100e0d0:	e03fff15 	stw	zero,-4(fp)
 100e0d4:	e0bfff17 	ldw	r2,-4(fp)
 100e0d8:	e0bff715 	stw	r2,-36(fp)
 100e0dc:	00000206 	br	100e0e8 <open+0x13c>
      }
    }
  }
  else
  {
    status = -ENODEV;
 100e0e0:	00bffb44 	movi	r2,-19
 100e0e4:	e0bff715 	stw	r2,-36(fp)
  }

  /* Allocation failed, so clean up and return an error */ 

  if (status < 0)
 100e0e8:	e0bff717 	ldw	r2,-36(fp)
 100e0ec:	1004403a 	cmpge	r2,r2,zero
 100e0f0:	1000091e 	bne	r2,zero,100e118 <open+0x16c>
  {
    alt_release_fd (index);  
 100e0f4:	e13ff817 	ldw	r4,-32(fp)
 100e0f8:	100ad300 	call	100ad30 <alt_release_fd>
    ALT_ERRNO = -status;
 100e0fc:	100e1380 	call	100e138 <alt_get_errno>
 100e100:	e0fff717 	ldw	r3,-36(fp)
 100e104:	00c7c83a 	sub	r3,zero,r3
 100e108:	10c00015 	stw	r3,0(r2)
    return -1;
 100e10c:	00bfffc4 	movi	r2,-1
 100e110:	e0bffe15 	stw	r2,-8(fp)
 100e114:	00000206 	br	100e120 <open+0x174>
  }
  
  /* return the reference upon success */

  return index;
 100e118:	e0bff817 	ldw	r2,-32(fp)
 100e11c:	e0bffe15 	stw	r2,-8(fp)
 100e120:	e0bffe17 	ldw	r2,-8(fp)
}
 100e124:	e037883a 	mov	sp,fp
 100e128:	dfc00117 	ldw	ra,4(sp)
 100e12c:	df000017 	ldw	fp,0(sp)
 100e130:	dec00204 	addi	sp,sp,8
 100e134:	f800283a 	ret

0100e138 <alt_get_errno>:
#undef errno

extern int errno;

static ALT_INLINE int* alt_get_errno(void)
{
 100e138:	defffd04 	addi	sp,sp,-12
 100e13c:	dfc00215 	stw	ra,8(sp)
 100e140:	df000115 	stw	fp,4(sp)
 100e144:	df000104 	addi	fp,sp,4
  return ((alt_errno) ? alt_errno() : &errno);
 100e148:	00804074 	movhi	r2,257
 100e14c:	10825704 	addi	r2,r2,2396
 100e150:	10800017 	ldw	r2,0(r2)
 100e154:	1005003a 	cmpeq	r2,r2,zero
 100e158:	1000061e 	bne	r2,zero,100e174 <alt_get_errno+0x3c>
 100e15c:	00804074 	movhi	r2,257
 100e160:	10825704 	addi	r2,r2,2396
 100e164:	10800017 	ldw	r2,0(r2)
 100e168:	103ee83a 	callr	r2
 100e16c:	e0bfff15 	stw	r2,-4(fp)
 100e170:	00000306 	br	100e180 <alt_get_errno+0x48>
 100e174:	00804074 	movhi	r2,257
 100e178:	10892004 	addi	r2,r2,9344
 100e17c:	e0bfff15 	stw	r2,-4(fp)
 100e180:	e0bfff17 	ldw	r2,-4(fp)
}
 100e184:	e037883a 	mov	sp,fp
 100e188:	dfc00117 	ldw	ra,4(sp)
 100e18c:	df000017 	ldw	fp,0(sp)
 100e190:	dec00204 	addi	sp,sp,8
 100e194:	f800283a 	ret

0100e198 <alt_alarm_stop>:
 * alarms. Alternatively an alarm can unregister itself by returning zero when 
 * the alarm executes.
 */

void alt_alarm_stop (alt_alarm* alarm)
{
 100e198:	defffa04 	addi	sp,sp,-24
 100e19c:	df000515 	stw	fp,20(sp)
 100e1a0:	df000504 	addi	fp,sp,20
 100e1a4:	e13fff15 	stw	r4,-4(fp)
static ALT_INLINE alt_irq_context ALT_ALWAYS_INLINE 
       alt_irq_disable_all (void)
{
  alt_irq_context context;

  NIOS2_READ_STATUS (context);
 100e1a8:	0005303a 	rdctl	r2,status
 100e1ac:	e0bffd15 	stw	r2,-12(fp)

  NIOS2_WRITE_STATUS (context & ~NIOS2_STATUS_PIE_MSK);
 100e1b0:	e0fffd17 	ldw	r3,-12(fp)
 100e1b4:	00bfff84 	movi	r2,-2
 100e1b8:	1884703a 	and	r2,r3,r2
 100e1bc:	1001703a 	wrctl	status,r2
  
  return context;
 100e1c0:	e0bffd17 	ldw	r2,-12(fp)
  alt_irq_context irq_context;

  irq_context = alt_irq_disable_all();
 100e1c4:	e0bffe15 	stw	r2,-8(fp)
  alt_llist_remove (&alarm->llist);
 100e1c8:	e0bfff17 	ldw	r2,-4(fp)
 100e1cc:	e0bffc15 	stw	r2,-16(fp)
 * input argument is the element to remove.
 */
     
static ALT_INLINE void ALT_ALWAYS_INLINE alt_llist_remove(alt_llist* entry)
{
  entry->next->previous = entry->previous;
 100e1d0:	e0bffc17 	ldw	r2,-16(fp)
 100e1d4:	10c00017 	ldw	r3,0(r2)
 100e1d8:	e0bffc17 	ldw	r2,-16(fp)
 100e1dc:	10800117 	ldw	r2,4(r2)
 100e1e0:	18800115 	stw	r2,4(r3)
  entry->previous->next = entry->next;
 100e1e4:	e0bffc17 	ldw	r2,-16(fp)
 100e1e8:	10c00117 	ldw	r3,4(r2)
 100e1ec:	e0bffc17 	ldw	r2,-16(fp)
 100e1f0:	10800017 	ldw	r2,0(r2)
 100e1f4:	18800015 	stw	r2,0(r3)
  /* 
   * Set the entry to point to itself, so that any further calls to
   * alt_llist_remove() are harmless.
   */

  entry->previous = entry;
 100e1f8:	e0fffc17 	ldw	r3,-16(fp)
 100e1fc:	e0bffc17 	ldw	r2,-16(fp)
 100e200:	18800115 	stw	r2,4(r3)
  entry->next     = entry;
 100e204:	e0fffc17 	ldw	r3,-16(fp)
 100e208:	e0bffc17 	ldw	r2,-16(fp)
 100e20c:	18800015 	stw	r2,0(r3)
 100e210:	e0bffe17 	ldw	r2,-8(fp)
 100e214:	e0bffb15 	stw	r2,-20(fp)
  status &= ~NIOS2_STATUS_PIE_MSK;
  status |= (context & NIOS2_STATUS_PIE_MSK);
  
  NIOS2_WRITE_STATUS (status);
#else
  NIOS2_WRITE_STATUS (context);
 100e218:	e0bffb17 	ldw	r2,-20(fp)
 100e21c:	1001703a 	wrctl	status,r2
  alt_irq_enable_all (irq_context);
}
 100e220:	e037883a 	mov	sp,fp
 100e224:	df000017 	ldw	fp,0(sp)
 100e228:	dec00104 	addi	sp,sp,4
 100e22c:	f800283a 	ret

0100e230 <alt_tick>:
 * 
 * alt_tick() is expected to run at interrupt level.
 */

void alt_tick (void)
{
 100e230:	defffb04 	addi	sp,sp,-20
 100e234:	dfc00415 	stw	ra,16(sp)
 100e238:	df000315 	stw	fp,12(sp)
 100e23c:	df000304 	addi	fp,sp,12
  alt_alarm* next;
  alt_alarm* alarm = (alt_alarm*) alt_alarm_list.next;
 100e240:	d0a00e17 	ldw	r2,-32712(gp)
 100e244:	e0bffe15 	stw	r2,-8(fp)

  alt_u32    next_callback;

  /* update the tick counter */

  _alt_nticks++;
 100e248:	d0a6da17 	ldw	r2,-25752(gp)
 100e24c:	10800044 	addi	r2,r2,1
 100e250:	d0a6da15 	stw	r2,-25752(gp)

  /* process the registered callbacks */

  while (alarm != (alt_alarm*) &alt_alarm_list)
 100e254:	00003106 	br	100e31c <alt_tick+0xec>
  {
    next = (alt_alarm*) alarm->llist.next;
 100e258:	e0bffe17 	ldw	r2,-8(fp)
 100e25c:	10800017 	ldw	r2,0(r2)
 100e260:	e0bfff15 	stw	r2,-4(fp)
    /* 
     * Upon the tick-counter rolling over it is safe to clear the 
     * roll-over flag; once the flag is cleared this (or subsequnt)
     * tick events are enabled to generate an alarm event. 
     */
    if ((alarm->rollover) && (_alt_nticks == 0))
 100e264:	e0bffe17 	ldw	r2,-8(fp)
 100e268:	10800403 	ldbu	r2,16(r2)
 100e26c:	10803fcc 	andi	r2,r2,255
 100e270:	1005003a 	cmpeq	r2,r2,zero
 100e274:	1000051e 	bne	r2,zero,100e28c <alt_tick+0x5c>
 100e278:	d0a6da17 	ldw	r2,-25752(gp)
 100e27c:	1004c03a 	cmpne	r2,r2,zero
 100e280:	1000021e 	bne	r2,zero,100e28c <alt_tick+0x5c>
    {
      alarm->rollover = 0;
 100e284:	e0bffe17 	ldw	r2,-8(fp)
 100e288:	10000405 	stb	zero,16(r2)
    }
    
    /* if the alarm period has expired, make the callback */    
    if ((alarm->time <= _alt_nticks) && (alarm->rollover == 0))
 100e28c:	e0bffe17 	ldw	r2,-8(fp)
 100e290:	10c00217 	ldw	r3,8(r2)
 100e294:	d0a6da17 	ldw	r2,-25752(gp)
 100e298:	10c01e36 	bltu	r2,r3,100e314 <alt_tick+0xe4>
 100e29c:	e0bffe17 	ldw	r2,-8(fp)
 100e2a0:	10800403 	ldbu	r2,16(r2)
 100e2a4:	10803fcc 	andi	r2,r2,255
 100e2a8:	1004c03a 	cmpne	r2,r2,zero
 100e2ac:	1000191e 	bne	r2,zero,100e314 <alt_tick+0xe4>
    {
      next_callback = alarm->callback (alarm->context);
 100e2b0:	e0bffe17 	ldw	r2,-8(fp)
 100e2b4:	10c00317 	ldw	r3,12(r2)
 100e2b8:	e0bffe17 	ldw	r2,-8(fp)
 100e2bc:	11000517 	ldw	r4,20(r2)
 100e2c0:	183ee83a 	callr	r3
 100e2c4:	e0bffd15 	stw	r2,-12(fp)

      /* deactivate the alarm if the return value is zero */

      if (next_callback == 0)
 100e2c8:	e0bffd17 	ldw	r2,-12(fp)
 100e2cc:	1004c03a 	cmpne	r2,r2,zero
 100e2d0:	1000031e 	bne	r2,zero,100e2e0 <alt_tick+0xb0>
      {
        alt_alarm_stop (alarm);
 100e2d4:	e13ffe17 	ldw	r4,-8(fp)
 100e2d8:	100e1980 	call	100e198 <alt_alarm_stop>
 100e2dc:	00000d06 	br	100e314 <alt_tick+0xe4>
      }
      else
      {
        alarm->time += next_callback;
 100e2e0:	e0bffe17 	ldw	r2,-8(fp)
 100e2e4:	10c00217 	ldw	r3,8(r2)
 100e2e8:	e0bffd17 	ldw	r2,-12(fp)
 100e2ec:	1887883a 	add	r3,r3,r2
 100e2f0:	e0bffe17 	ldw	r2,-8(fp)
 100e2f4:	10c00215 	stw	r3,8(r2)
        /* 
         * If the desired alarm time causes a roll-over, set the rollover
         * flag. This will prevent the subsequent tick event from causing
         * an alarm too early.
         */
        if(alarm->time < _alt_nticks)
 100e2f8:	e0bffe17 	ldw	r2,-8(fp)
 100e2fc:	10c00217 	ldw	r3,8(r2)
 100e300:	d0a6da17 	ldw	r2,-25752(gp)
 100e304:	1880032e 	bgeu	r3,r2,100e314 <alt_tick+0xe4>
        {
          alarm->rollover = 1;
 100e308:	e0fffe17 	ldw	r3,-8(fp)
 100e30c:	00800044 	movi	r2,1
 100e310:	18800405 	stb	r2,16(r3)
        }
      }
    }
    alarm = next;
 100e314:	e0bfff17 	ldw	r2,-4(fp)
 100e318:	e0bffe15 	stw	r2,-8(fp)

  _alt_nticks++;

  /* process the registered callbacks */

  while (alarm != (alt_alarm*) &alt_alarm_list)
 100e31c:	d0e00e04 	addi	r3,gp,-32712
 100e320:	e0bffe17 	ldw	r2,-8(fp)
 100e324:	10ffcc1e 	bne	r2,r3,100e258 <alt_tick+0x28>
  /* 
   * Update the operating system specific timer facilities.
   */

  ALT_OS_TIME_TICK();
}
 100e328:	e037883a 	mov	sp,fp
 100e32c:	dfc00117 	ldw	ra,4(sp)
 100e330:	df000017 	ldw	fp,0(sp)
 100e334:	dec00204 	addi	sp,sp,8
 100e338:	f800283a 	ret

0100e33c <altera_nios2_qsys_irq_init>:
/*
 * To initialize the internal interrupt controller, just clear the IENABLE
 * register so that all possible IRQs are disabled.
 */
void altera_nios2_qsys_irq_init(void) 
{
 100e33c:	deffff04 	addi	sp,sp,-4
 100e340:	df000015 	stw	fp,0(sp)
 100e344:	d839883a 	mov	fp,sp
    NIOS2_WRITE_IENABLE(0);
 100e348:	000170fa 	wrctl	ienable,zero
}
 100e34c:	e037883a 	mov	sp,fp
 100e350:	df000017 	ldw	fp,0(sp)
 100e354:	dec00104 	addi	sp,sp,4
 100e358:	f800283a 	ret

0100e35c <alt_find_file>:
 * either '/' or '\0' is the prefix of the filename. For example the filename:
 * "/myfilesystem/junk.txt" would match: "/myfilesystem", but not: "/myfile". 
 */
 
alt_dev* alt_find_file (const char* name)
{
 100e35c:	defffa04 	addi	sp,sp,-24
 100e360:	dfc00515 	stw	ra,20(sp)
 100e364:	df000415 	stw	fp,16(sp)
 100e368:	df000404 	addi	fp,sp,16
 100e36c:	e13ffe15 	stw	r4,-8(fp)
  alt_dev* next = (alt_dev*) alt_fs_list.next;   
 100e370:	00804074 	movhi	r2,257
 100e374:	10825204 	addi	r2,r2,2376
 100e378:	10800017 	ldw	r2,0(r2)
 100e37c:	e0bffd15 	stw	r2,-12(fp)
  /*
   * Check each list entry in turn, until a match is found, or we reach the
   * end of the list (i.e. next winds up pointing back to the list head).
   */ 
 
  while (next != (alt_dev*) &alt_fs_list)
 100e380:	00003306 	br	100e450 <alt_find_file+0xf4>
  {
    len = strlen(next->name);
 100e384:	e0bffd17 	ldw	r2,-12(fp)
 100e388:	11000217 	ldw	r4,8(r2)
 100e38c:	1000ce40 	call	1000ce4 <strlen>
 100e390:	e0bffc15 	stw	r2,-16(fp)
    
    if (next->name[len-1] == '/')
 100e394:	e0bffd17 	ldw	r2,-12(fp)
 100e398:	10c00217 	ldw	r3,8(r2)
 100e39c:	e0bffc17 	ldw	r2,-16(fp)
 100e3a0:	1885883a 	add	r2,r3,r2
 100e3a4:	10bfffc4 	addi	r2,r2,-1
 100e3a8:	10800003 	ldbu	r2,0(r2)
 100e3ac:	10803fcc 	andi	r2,r2,255
 100e3b0:	1080201c 	xori	r2,r2,128
 100e3b4:	10bfe004 	addi	r2,r2,-128
 100e3b8:	10800bd8 	cmpnei	r2,r2,47
 100e3bc:	1000031e 	bne	r2,zero,100e3cc <alt_find_file+0x70>
    {
      len -= 1;
 100e3c0:	e0bffc17 	ldw	r2,-16(fp)
 100e3c4:	10bfffc4 	addi	r2,r2,-1
 100e3c8:	e0bffc15 	stw	r2,-16(fp)
    }

    if (((name[len] == '/') || (name[len] == '\0')) && 
 100e3cc:	e0bffc17 	ldw	r2,-16(fp)
 100e3d0:	1007883a 	mov	r3,r2
 100e3d4:	e0bffe17 	ldw	r2,-8(fp)
 100e3d8:	1885883a 	add	r2,r3,r2
 100e3dc:	10800003 	ldbu	r2,0(r2)
 100e3e0:	10803fcc 	andi	r2,r2,255
 100e3e4:	1080201c 	xori	r2,r2,128
 100e3e8:	10bfe004 	addi	r2,r2,-128
 100e3ec:	10800be0 	cmpeqi	r2,r2,47
 100e3f0:	10000a1e 	bne	r2,zero,100e41c <alt_find_file+0xc0>
 100e3f4:	e0bffc17 	ldw	r2,-16(fp)
 100e3f8:	1007883a 	mov	r3,r2
 100e3fc:	e0bffe17 	ldw	r2,-8(fp)
 100e400:	1885883a 	add	r2,r3,r2
 100e404:	10800003 	ldbu	r2,0(r2)
 100e408:	10803fcc 	andi	r2,r2,255
 100e40c:	1080201c 	xori	r2,r2,128
 100e410:	10bfe004 	addi	r2,r2,-128
 100e414:	1004c03a 	cmpne	r2,r2,zero
 100e418:	10000a1e 	bne	r2,zero,100e444 <alt_find_file+0xe8>
 100e41c:	e0bffd17 	ldw	r2,-12(fp)
 100e420:	11000217 	ldw	r4,8(r2)
 100e424:	e1bffc17 	ldw	r6,-16(fp)
 100e428:	e17ffe17 	ldw	r5,-8(fp)
 100e42c:	100e5980 	call	100e598 <memcmp>
 100e430:	1004c03a 	cmpne	r2,r2,zero
 100e434:	1000031e 	bne	r2,zero,100e444 <alt_find_file+0xe8>
        !memcmp (next->name, name, len))
    {
      /* match found */

      return next;
 100e438:	e0bffd17 	ldw	r2,-12(fp)
 100e43c:	e0bfff15 	stw	r2,-4(fp)
 100e440:	00000806 	br	100e464 <alt_find_file+0x108>
    }
    next = (alt_dev*) next->llist.next;
 100e444:	e0bffd17 	ldw	r2,-12(fp)
 100e448:	10800017 	ldw	r2,0(r2)
 100e44c:	e0bffd15 	stw	r2,-12(fp)
  /*
   * Check each list entry in turn, until a match is found, or we reach the
   * end of the list (i.e. next winds up pointing back to the list head).
   */ 
 
  while (next != (alt_dev*) &alt_fs_list)
 100e450:	00c04074 	movhi	r3,257
 100e454:	18c25204 	addi	r3,r3,2376
 100e458:	e0bffd17 	ldw	r2,-12(fp)
 100e45c:	10ffc91e 	bne	r2,r3,100e384 <alt_find_file+0x28>
    next = (alt_dev*) next->llist.next;
  }
  
  /* No match found */
  
  return NULL;     
 100e460:	e03fff15 	stw	zero,-4(fp)
 100e464:	e0bfff17 	ldw	r2,-4(fp)
}
 100e468:	e037883a 	mov	sp,fp
 100e46c:	dfc00117 	ldw	ra,4(sp)
 100e470:	df000017 	ldw	fp,0(sp)
 100e474:	dec00204 	addi	sp,sp,8
 100e478:	f800283a 	ret

0100e47c <alt_get_fd>:
 * the offset of the file descriptor within the file descriptor array). A
 * negative value indicates failure.
 */

int alt_get_fd (alt_dev* dev)
{
 100e47c:	defffa04 	addi	sp,sp,-24
 100e480:	dfc00515 	stw	ra,20(sp)
 100e484:	df000415 	stw	fp,16(sp)
 100e488:	dc000315 	stw	r16,12(sp)
 100e48c:	df000304 	addi	fp,sp,12
 100e490:	e13fff15 	stw	r4,-4(fp)
  alt_32 i;
  int rc = -EMFILE;
 100e494:	00bffa04 	movi	r2,-24
 100e498:	e0bffd15 	stw	r2,-12(fp)
   * indicates the highest file descriptor ever allocated. This is used to
   * improve efficency when searching the file descriptor list, and 
   * therefore reduce contention on the alt_fd_list_lock semaphore. 
   */

  for (i = 0; i < ALT_MAX_FD; i++)
 100e49c:	e03ffe15 	stw	zero,-8(fp)
 100e4a0:	00002006 	br	100e524 <alt_get_fd+0xa8>
  {
    if (!alt_fd_list[i].dev)
 100e4a4:	e13ffe17 	ldw	r4,-8(fp)
 100e4a8:	04004074 	movhi	r16,257
 100e4ac:	843dad04 	addi	r16,r16,-2380
 100e4b0:	01400304 	movi	r5,12
 100e4b4:	1009f0c0 	call	1009f0c <__mulsi3>
 100e4b8:	1405883a 	add	r2,r2,r16
 100e4bc:	10800017 	ldw	r2,0(r2)
 100e4c0:	1004c03a 	cmpne	r2,r2,zero
 100e4c4:	1000141e 	bne	r2,zero,100e518 <alt_get_fd+0x9c>
    {
      alt_fd_list[i].dev = dev;
 100e4c8:	e13ffe17 	ldw	r4,-8(fp)
 100e4cc:	04004074 	movhi	r16,257
 100e4d0:	843dad04 	addi	r16,r16,-2380
 100e4d4:	01400304 	movi	r5,12
 100e4d8:	1009f0c0 	call	1009f0c <__mulsi3>
 100e4dc:	1407883a 	add	r3,r2,r16
 100e4e0:	e0bfff17 	ldw	r2,-4(fp)
 100e4e4:	18800015 	stw	r2,0(r3)
      if (i > alt_max_fd)
 100e4e8:	00804074 	movhi	r2,257
 100e4ec:	10825604 	addi	r2,r2,2392
 100e4f0:	10c00017 	ldw	r3,0(r2)
 100e4f4:	e0bffe17 	ldw	r2,-8(fp)
 100e4f8:	1880040e 	bge	r3,r2,100e50c <alt_get_fd+0x90>
      {
        alt_max_fd = i;
 100e4fc:	00c04074 	movhi	r3,257
 100e500:	18c25604 	addi	r3,r3,2392
 100e504:	e0bffe17 	ldw	r2,-8(fp)
 100e508:	18800015 	stw	r2,0(r3)
      }
      rc = i;
 100e50c:	e0bffe17 	ldw	r2,-8(fp)
 100e510:	e0bffd15 	stw	r2,-12(fp)
      goto alt_get_fd_exit;
 100e514:	00000606 	br	100e530 <alt_get_fd+0xb4>
   * indicates the highest file descriptor ever allocated. This is used to
   * improve efficency when searching the file descriptor list, and 
   * therefore reduce contention on the alt_fd_list_lock semaphore. 
   */

  for (i = 0; i < ALT_MAX_FD; i++)
 100e518:	e0bffe17 	ldw	r2,-8(fp)
 100e51c:	10800044 	addi	r2,r2,1
 100e520:	e0bffe15 	stw	r2,-8(fp)
 100e524:	e0bffe17 	ldw	r2,-8(fp)
 100e528:	10800810 	cmplti	r2,r2,32
 100e52c:	103fdd1e 	bne	r2,zero,100e4a4 <alt_get_fd+0x28>
   * file descriptor pool.
   */

  ALT_SEM_POST(alt_fd_list_lock);

  return rc;
 100e530:	e0bffd17 	ldw	r2,-12(fp)
}
 100e534:	e037883a 	mov	sp,fp
 100e538:	dfc00217 	ldw	ra,8(sp)
 100e53c:	df000117 	ldw	fp,4(sp)
 100e540:	dc000017 	ldw	r16,0(sp)
 100e544:	dec00304 	addi	sp,sp,12
 100e548:	f800283a 	ret

0100e54c <atexit>:
 100e54c:	200b883a 	mov	r5,r4
 100e550:	000d883a 	mov	r6,zero
 100e554:	0009883a 	mov	r4,zero
 100e558:	000f883a 	mov	r7,zero
 100e55c:	100e60c1 	jmpi	100e60c <__register_exitproc>

0100e560 <exit>:
 100e560:	defffe04 	addi	sp,sp,-8
 100e564:	000b883a 	mov	r5,zero
 100e568:	dc000015 	stw	r16,0(sp)
 100e56c:	dfc00115 	stw	ra,4(sp)
 100e570:	2021883a 	mov	r16,r4
 100e574:	100e7440 	call	100e744 <__call_exitprocs>
 100e578:	00804074 	movhi	r2,257
 100e57c:	10824d04 	addi	r2,r2,2356
 100e580:	11000017 	ldw	r4,0(r2)
 100e584:	20800f17 	ldw	r2,60(r4)
 100e588:	10000126 	beq	r2,zero,100e590 <exit+0x30>
 100e58c:	103ee83a 	callr	r2
 100e590:	8009883a 	mov	r4,r16
 100e594:	100e9340 	call	100e934 <_exit>

0100e598 <memcmp>:
 100e598:	00c000c4 	movi	r3,3
 100e59c:	1980032e 	bgeu	r3,r6,100e5ac <memcmp+0x14>
 100e5a0:	2144b03a 	or	r2,r4,r5
 100e5a4:	10c4703a 	and	r2,r2,r3
 100e5a8:	10000f26 	beq	r2,zero,100e5e8 <memcmp+0x50>
 100e5ac:	31ffffc4 	addi	r7,r6,-1
 100e5b0:	3000061e 	bne	r6,zero,100e5cc <memcmp+0x34>
 100e5b4:	00000a06 	br	100e5e0 <memcmp+0x48>
 100e5b8:	39ffffc4 	addi	r7,r7,-1
 100e5bc:	00bfffc4 	movi	r2,-1
 100e5c0:	21000044 	addi	r4,r4,1
 100e5c4:	29400044 	addi	r5,r5,1
 100e5c8:	38800526 	beq	r7,r2,100e5e0 <memcmp+0x48>
 100e5cc:	20c00003 	ldbu	r3,0(r4)
 100e5d0:	28800003 	ldbu	r2,0(r5)
 100e5d4:	18bff826 	beq	r3,r2,100e5b8 <memcmp+0x20>
 100e5d8:	1885c83a 	sub	r2,r3,r2
 100e5dc:	f800283a 	ret
 100e5e0:	0005883a 	mov	r2,zero
 100e5e4:	f800283a 	ret
 100e5e8:	180f883a 	mov	r7,r3
 100e5ec:	20c00017 	ldw	r3,0(r4)
 100e5f0:	28800017 	ldw	r2,0(r5)
 100e5f4:	18bfed1e 	bne	r3,r2,100e5ac <memcmp+0x14>
 100e5f8:	31bfff04 	addi	r6,r6,-4
 100e5fc:	21000104 	addi	r4,r4,4
 100e600:	29400104 	addi	r5,r5,4
 100e604:	39bff936 	bltu	r7,r6,100e5ec <memcmp+0x54>
 100e608:	003fe806 	br	100e5ac <memcmp+0x14>

0100e60c <__register_exitproc>:
 100e60c:	defffa04 	addi	sp,sp,-24
 100e610:	00804074 	movhi	r2,257
 100e614:	10824d04 	addi	r2,r2,2356
 100e618:	dc000015 	stw	r16,0(sp)
 100e61c:	14000017 	ldw	r16,0(r2)
 100e620:	dd000415 	stw	r20,16(sp)
 100e624:	2829883a 	mov	r20,r5
 100e628:	81405217 	ldw	r5,328(r16)
 100e62c:	dcc00315 	stw	r19,12(sp)
 100e630:	dc800215 	stw	r18,8(sp)
 100e634:	dc400115 	stw	r17,4(sp)
 100e638:	dfc00515 	stw	ra,20(sp)
 100e63c:	2023883a 	mov	r17,r4
 100e640:	3027883a 	mov	r19,r6
 100e644:	3825883a 	mov	r18,r7
 100e648:	28002526 	beq	r5,zero,100e6e0 <__register_exitproc+0xd4>
 100e64c:	29000117 	ldw	r4,4(r5)
 100e650:	008007c4 	movi	r2,31
 100e654:	11002716 	blt	r2,r4,100e6f4 <__register_exitproc+0xe8>
 100e658:	8800101e 	bne	r17,zero,100e69c <__register_exitproc+0x90>
 100e65c:	2105883a 	add	r2,r4,r4
 100e660:	1085883a 	add	r2,r2,r2
 100e664:	20c00044 	addi	r3,r4,1
 100e668:	1145883a 	add	r2,r2,r5
 100e66c:	0009883a 	mov	r4,zero
 100e670:	15000215 	stw	r20,8(r2)
 100e674:	28c00115 	stw	r3,4(r5)
 100e678:	2005883a 	mov	r2,r4
 100e67c:	dfc00517 	ldw	ra,20(sp)
 100e680:	dd000417 	ldw	r20,16(sp)
 100e684:	dcc00317 	ldw	r19,12(sp)
 100e688:	dc800217 	ldw	r18,8(sp)
 100e68c:	dc400117 	ldw	r17,4(sp)
 100e690:	dc000017 	ldw	r16,0(sp)
 100e694:	dec00604 	addi	sp,sp,24
 100e698:	f800283a 	ret
 100e69c:	29802204 	addi	r6,r5,136
 100e6a0:	00800044 	movi	r2,1
 100e6a4:	110e983a 	sll	r7,r2,r4
 100e6a8:	30c04017 	ldw	r3,256(r6)
 100e6ac:	2105883a 	add	r2,r4,r4
 100e6b0:	1085883a 	add	r2,r2,r2
 100e6b4:	1185883a 	add	r2,r2,r6
 100e6b8:	19c6b03a 	or	r3,r3,r7
 100e6bc:	14802015 	stw	r18,128(r2)
 100e6c0:	14c00015 	stw	r19,0(r2)
 100e6c4:	00800084 	movi	r2,2
 100e6c8:	30c04015 	stw	r3,256(r6)
 100e6cc:	88bfe31e 	bne	r17,r2,100e65c <__register_exitproc+0x50>
 100e6d0:	30804117 	ldw	r2,260(r6)
 100e6d4:	11c4b03a 	or	r2,r2,r7
 100e6d8:	30804115 	stw	r2,260(r6)
 100e6dc:	003fdf06 	br	100e65c <__register_exitproc+0x50>
 100e6e0:	00804074 	movhi	r2,257
 100e6e4:	10897104 	addi	r2,r2,9668
 100e6e8:	100b883a 	mov	r5,r2
 100e6ec:	80805215 	stw	r2,328(r16)
 100e6f0:	003fd606 	br	100e64c <__register_exitproc+0x40>
 100e6f4:	00800034 	movhi	r2,0
 100e6f8:	10800004 	addi	r2,r2,0
 100e6fc:	1000021e 	bne	r2,zero,100e708 <__register_exitproc+0xfc>
 100e700:	013fffc4 	movi	r4,-1
 100e704:	003fdc06 	br	100e678 <__register_exitproc+0x6c>
 100e708:	01006404 	movi	r4,400
 100e70c:	103ee83a 	callr	r2
 100e710:	1007883a 	mov	r3,r2
 100e714:	103ffa26 	beq	r2,zero,100e700 <__register_exitproc+0xf4>
 100e718:	80805217 	ldw	r2,328(r16)
 100e71c:	180b883a 	mov	r5,r3
 100e720:	18000115 	stw	zero,4(r3)
 100e724:	18800015 	stw	r2,0(r3)
 100e728:	80c05215 	stw	r3,328(r16)
 100e72c:	18006215 	stw	zero,392(r3)
 100e730:	18006315 	stw	zero,396(r3)
 100e734:	0009883a 	mov	r4,zero
 100e738:	883fc826 	beq	r17,zero,100e65c <__register_exitproc+0x50>
 100e73c:	003fd706 	br	100e69c <__register_exitproc+0x90>

0100e740 <register_fini>:
 100e740:	f800283a 	ret

0100e744 <__call_exitprocs>:
 100e744:	00804074 	movhi	r2,257
 100e748:	10824d04 	addi	r2,r2,2356
 100e74c:	10800017 	ldw	r2,0(r2)
 100e750:	defff304 	addi	sp,sp,-52
 100e754:	df000b15 	stw	fp,44(sp)
 100e758:	d8800115 	stw	r2,4(sp)
 100e75c:	00800034 	movhi	r2,0
 100e760:	10800004 	addi	r2,r2,0
 100e764:	1005003a 	cmpeq	r2,r2,zero
 100e768:	d8800215 	stw	r2,8(sp)
 100e76c:	d8800117 	ldw	r2,4(sp)
 100e770:	dd400815 	stw	r21,32(sp)
 100e774:	dd000715 	stw	r20,28(sp)
 100e778:	10805204 	addi	r2,r2,328
 100e77c:	dfc00c15 	stw	ra,48(sp)
 100e780:	ddc00a15 	stw	r23,40(sp)
 100e784:	dd800915 	stw	r22,36(sp)
 100e788:	dcc00615 	stw	r19,24(sp)
 100e78c:	dc800515 	stw	r18,20(sp)
 100e790:	dc400415 	stw	r17,16(sp)
 100e794:	dc000315 	stw	r16,12(sp)
 100e798:	282b883a 	mov	r21,r5
 100e79c:	2039883a 	mov	fp,r4
 100e7a0:	d8800015 	stw	r2,0(sp)
 100e7a4:	2829003a 	cmpeq	r20,r5,zero
 100e7a8:	d8800117 	ldw	r2,4(sp)
 100e7ac:	14405217 	ldw	r17,328(r2)
 100e7b0:	88001026 	beq	r17,zero,100e7f4 <__call_exitprocs+0xb0>
 100e7b4:	ddc00017 	ldw	r23,0(sp)
 100e7b8:	88800117 	ldw	r2,4(r17)
 100e7bc:	8c802204 	addi	r18,r17,136
 100e7c0:	143fffc4 	addi	r16,r2,-1
 100e7c4:	80000916 	blt	r16,zero,100e7ec <__call_exitprocs+0xa8>
 100e7c8:	05bfffc4 	movi	r22,-1
 100e7cc:	a000151e 	bne	r20,zero,100e824 <__call_exitprocs+0xe0>
 100e7d0:	8409883a 	add	r4,r16,r16
 100e7d4:	2105883a 	add	r2,r4,r4
 100e7d8:	1485883a 	add	r2,r2,r18
 100e7dc:	10c02017 	ldw	r3,128(r2)
 100e7e0:	a8c01126 	beq	r21,r3,100e828 <__call_exitprocs+0xe4>
 100e7e4:	843fffc4 	addi	r16,r16,-1
 100e7e8:	85bff81e 	bne	r16,r22,100e7cc <__call_exitprocs+0x88>
 100e7ec:	d8800217 	ldw	r2,8(sp)
 100e7f0:	10003126 	beq	r2,zero,100e8b8 <__call_exitprocs+0x174>
 100e7f4:	dfc00c17 	ldw	ra,48(sp)
 100e7f8:	df000b17 	ldw	fp,44(sp)
 100e7fc:	ddc00a17 	ldw	r23,40(sp)
 100e800:	dd800917 	ldw	r22,36(sp)
 100e804:	dd400817 	ldw	r21,32(sp)
 100e808:	dd000717 	ldw	r20,28(sp)
 100e80c:	dcc00617 	ldw	r19,24(sp)
 100e810:	dc800517 	ldw	r18,20(sp)
 100e814:	dc400417 	ldw	r17,16(sp)
 100e818:	dc000317 	ldw	r16,12(sp)
 100e81c:	dec00d04 	addi	sp,sp,52
 100e820:	f800283a 	ret
 100e824:	8409883a 	add	r4,r16,r16
 100e828:	88c00117 	ldw	r3,4(r17)
 100e82c:	2105883a 	add	r2,r4,r4
 100e830:	1445883a 	add	r2,r2,r17
 100e834:	18ffffc4 	addi	r3,r3,-1
 100e838:	11800217 	ldw	r6,8(r2)
 100e83c:	1c001526 	beq	r3,r16,100e894 <__call_exitprocs+0x150>
 100e840:	10000215 	stw	zero,8(r2)
 100e844:	303fe726 	beq	r6,zero,100e7e4 <__call_exitprocs+0xa0>
 100e848:	00c00044 	movi	r3,1
 100e84c:	1c06983a 	sll	r3,r3,r16
 100e850:	90804017 	ldw	r2,256(r18)
 100e854:	8cc00117 	ldw	r19,4(r17)
 100e858:	1884703a 	and	r2,r3,r2
 100e85c:	10001426 	beq	r2,zero,100e8b0 <__call_exitprocs+0x16c>
 100e860:	90804117 	ldw	r2,260(r18)
 100e864:	1884703a 	and	r2,r3,r2
 100e868:	10000c1e 	bne	r2,zero,100e89c <__call_exitprocs+0x158>
 100e86c:	2105883a 	add	r2,r4,r4
 100e870:	1485883a 	add	r2,r2,r18
 100e874:	11400017 	ldw	r5,0(r2)
 100e878:	e009883a 	mov	r4,fp
 100e87c:	303ee83a 	callr	r6
 100e880:	88800117 	ldw	r2,4(r17)
 100e884:	98bfc81e 	bne	r19,r2,100e7a8 <__call_exitprocs+0x64>
 100e888:	b8800017 	ldw	r2,0(r23)
 100e88c:	147fd526 	beq	r2,r17,100e7e4 <__call_exitprocs+0xa0>
 100e890:	003fc506 	br	100e7a8 <__call_exitprocs+0x64>
 100e894:	8c000115 	stw	r16,4(r17)
 100e898:	003fea06 	br	100e844 <__call_exitprocs+0x100>
 100e89c:	2105883a 	add	r2,r4,r4
 100e8a0:	1485883a 	add	r2,r2,r18
 100e8a4:	11000017 	ldw	r4,0(r2)
 100e8a8:	303ee83a 	callr	r6
 100e8ac:	003ff406 	br	100e880 <__call_exitprocs+0x13c>
 100e8b0:	303ee83a 	callr	r6
 100e8b4:	003ff206 	br	100e880 <__call_exitprocs+0x13c>
 100e8b8:	88800117 	ldw	r2,4(r17)
 100e8bc:	1000081e 	bne	r2,zero,100e8e0 <__call_exitprocs+0x19c>
 100e8c0:	89000017 	ldw	r4,0(r17)
 100e8c4:	20000726 	beq	r4,zero,100e8e4 <__call_exitprocs+0x1a0>
 100e8c8:	b9000015 	stw	r4,0(r23)
 100e8cc:	8809883a 	mov	r4,r17
 100e8d0:	00000000 	call	0 <__alt_mem_onchip_memory2_0>
 100e8d4:	bc400017 	ldw	r17,0(r23)
 100e8d8:	883fb71e 	bne	r17,zero,100e7b8 <__call_exitprocs+0x74>
 100e8dc:	003fc506 	br	100e7f4 <__call_exitprocs+0xb0>
 100e8e0:	89000017 	ldw	r4,0(r17)
 100e8e4:	882f883a 	mov	r23,r17
 100e8e8:	2023883a 	mov	r17,r4
 100e8ec:	883fb21e 	bne	r17,zero,100e7b8 <__call_exitprocs+0x74>
 100e8f0:	003fc006 	br	100e7f4 <__call_exitprocs+0xb0>

0100e8f4 <alt_sim_halt>:

/*
 * Routine called on exit.
 */
static ALT_ALWAYS_INLINE void alt_sim_halt(int exit_code)
{
 100e8f4:	defffd04 	addi	sp,sp,-12
 100e8f8:	df000215 	stw	fp,8(sp)
 100e8fc:	df000204 	addi	fp,sp,8
 100e900:	e13fff15 	stw	r4,-4(fp)
  int r2 = exit_code;
 100e904:	e0bfff17 	ldw	r2,-4(fp)
 100e908:	e0bffe15 	stw	r2,-8(fp)
  __asm__ volatile ("\n0:\n\taddi %0,%0, -1\n\tbgt %0,zero,0b" : : "r" (ALT_CPU_FREQ/100) ); /* Delay for >30ms */

  __asm__ volatile ("break 2" : : "D02"(r2), "D03"(r3) ALT_GMON_DATA );

#else /* !DEBUG_STUB */
  if (r2) {
 100e90c:	e0bffe17 	ldw	r2,-8(fp)
 100e910:	1005003a 	cmpeq	r2,r2,zero
 100e914:	1000021e 	bne	r2,zero,100e920 <alt_sim_halt+0x2c>
    ALT_SIM_FAIL();
 100e918:	002af070 	cmpltui	zero,zero,43969
 100e91c:	00000106 	br	100e924 <alt_sim_halt+0x30>
  } else {
    ALT_SIM_PASS();
 100e920:	002af0b0 	cmpltui	zero,zero,43970
  }
#endif /* DEBUG_STUB */
}
 100e924:	e037883a 	mov	sp,fp
 100e928:	df000017 	ldw	fp,0(sp)
 100e92c:	dec00104 	addi	sp,sp,4
 100e930:	f800283a 	ret

0100e934 <_exit>:
 *
 * ALT_EXIT is mapped onto the _exit() system call in alt_syscall.h
 */

void ALT_EXIT (int exit_code)
{
 100e934:	defffd04 	addi	sp,sp,-12
 100e938:	dfc00215 	stw	ra,8(sp)
 100e93c:	df000115 	stw	fp,4(sp)
 100e940:	df000104 	addi	fp,sp,4
 100e944:	e13fff15 	stw	r4,-4(fp)
  ALT_OS_STOP();

  /* Provide notification to the simulator that we've stopped */

  ALT_LOG_PRINT_BOOT("[alt_exit.c] Calling ALT_SIM_HALT().\r\n");
  ALT_SIM_HALT(exit_code);
 100e948:	e13fff17 	ldw	r4,-4(fp)
 100e94c:	100e8f40 	call	100e8f4 <alt_sim_halt>

  /* spin forever, since there's no where to go back to */

  ALT_LOG_PRINT_BOOT("[alt_exit.c] Spinning forever.\r\n");
  while (1);
 100e950:	003fff06 	br	100e950 <_exit+0x1c>
 100e954:	0100e740 	call	100e74 <__alt_mem_onchip_memory2_0+0x100e74>
