
time_stamp.elf:     file format elf32-littlenios2
time_stamp.elf
architecture: nios2, flags 0x00000112:
EXEC_P, HAS_SYMS, D_PAGED
start address 0x010001b4

Program Header:
    LOAD off    0x00001000 vaddr 0x01000000 paddr 0x01000000 align 2**12
         filesz 0x00000020 memsz 0x00000020 flags r-x
    LOAD off    0x00001020 vaddr 0x01000020 paddr 0x01000020 align 2**12
         filesz 0x0000de08 memsz 0x0000de08 flags r-x
    LOAD off    0x0000ee28 vaddr 0x0100de28 paddr 0x0100f8b0 align 2**12
         filesz 0x00001a88 memsz 0x00001a88 flags rw-
    LOAD off    0x00011338 vaddr 0x01011338 paddr 0x01011338 align 2**12
         filesz 0x00000000 memsz 0x00000304 flags rw-

Sections:
Idx Name          Size      VMA       LMA       File off  Algn
  0 .entry        00000020  01000000  01000000  00001000  2**5
                  CONTENTS, ALLOC, LOAD, READONLY, CODE
  1 .exceptions   00000194  01000020  01000020  00001020  2**2
                  CONTENTS, ALLOC, LOAD, READONLY, CODE
  2 .text         0000d8d8  010001b4  010001b4  000011b4  2**2
                  CONTENTS, ALLOC, LOAD, READONLY, CODE
  3 .rodata       0000039c  0100da8c  0100da8c  0000ea8c  2**2
                  CONTENTS, ALLOC, LOAD, READONLY, DATA
  4 .rwdata       00001a88  0100de28  0100f8b0  0000ee28  2**2
                  CONTENTS, ALLOC, LOAD, DATA, SMALL_DATA
  5 .bss          00000304  01011338  01011338  00011338  2**2
                  ALLOC, SMALL_DATA
  6 .comment      00000023  00000000  00000000  000108b0  2**0
                  CONTENTS, READONLY
  7 .debug_aranges 00000df8  00000000  00000000  000108d8  2**3
                  CONTENTS, READONLY, DEBUGGING
  8 .debug_pubnames 0000171d  00000000  00000000  000116d0  2**0
                  CONTENTS, READONLY, DEBUGGING
  9 .debug_info   00025d71  00000000  00000000  00012ded  2**0
                  CONTENTS, READONLY, DEBUGGING
 10 .debug_abbrev 00008919  00000000  00000000  00038b5e  2**0
                  CONTENTS, READONLY, DEBUGGING
 11 .debug_line   00014f69  00000000  00000000  00041477  2**0
                  CONTENTS, READONLY, DEBUGGING
 12 .debug_frame  00001b9c  00000000  00000000  000563e0  2**2
                  CONTENTS, READONLY, DEBUGGING
 13 .debug_str    00002477  00000000  00000000  00057f7c  2**0
                  CONTENTS, READONLY, DEBUGGING
 14 .debug_loc    0000c469  00000000  00000000  0005a3f3  2**0
                  CONTENTS, READONLY, DEBUGGING
 15 .debug_alt_sim_info 00000020  00000000  00000000  0006685c  2**2
                  CONTENTS, READONLY, DEBUGGING
 16 .debug_ranges 00000a98  00000000  00000000  00066880  2**3
                  CONTENTS, READONLY, DEBUGGING
 17 .thread_model 00000003  00000000  00000000  0006a6e5  2**0
                  CONTENTS, READONLY
 18 .cpu          0000000c  00000000  00000000  0006a6e8  2**0
                  CONTENTS, READONLY
 19 .qsys         00000001  00000000  00000000  0006a6f4  2**0
                  CONTENTS, READONLY
 20 .simulation_enabled 00000001  00000000  00000000  0006a6f5  2**0
                  CONTENTS, READONLY
 21 .stderr_dev   0000000b  00000000  00000000  0006a6f6  2**0
                  CONTENTS, READONLY
 22 .stdin_dev    0000000b  00000000  00000000  0006a701  2**0
                  CONTENTS, READONLY
 23 .stdout_dev   0000000b  00000000  00000000  0006a70c  2**0
                  CONTENTS, READONLY
 24 .sopc_system_name 00000007  00000000  00000000  0006a717  2**0
                  CONTENTS, READONLY
 25 .quartus_project_dir 0000001f  00000000  00000000  0006a71e  2**0
                  CONTENTS, READONLY
 26 .sopcinfo     00047402  00000000  00000000  0006a73d  2**0
                  CONTENTS, READONLY
SYMBOL TABLE:
01000000 l    d  .entry	00000000 .entry
01000020 l    d  .exceptions	00000000 .exceptions
010001b4 l    d  .text	00000000 .text
0100da8c l    d  .rodata	00000000 .rodata
0100de28 l    d  .rwdata	00000000 .rwdata
01011338 l    d  .bss	00000000 .bss
00000000 l    d  .comment	00000000 .comment
00000000 l    d  .debug_aranges	00000000 .debug_aranges
00000000 l    d  .debug_pubnames	00000000 .debug_pubnames
00000000 l    d  .debug_info	00000000 .debug_info
00000000 l    d  .debug_abbrev	00000000 .debug_abbrev
00000000 l    d  .debug_line	00000000 .debug_line
00000000 l    d  .debug_frame	00000000 .debug_frame
00000000 l    d  .debug_str	00000000 .debug_str
00000000 l    d  .debug_loc	00000000 .debug_loc
00000000 l    d  .debug_alt_sim_info	00000000 .debug_alt_sim_info
00000000 l    d  .debug_ranges	00000000 .debug_ranges
010001ec l       .text	00000000 alt_after_alt_main
00000000 l    df *ABS*	00000000 alt_irq_handler.c
00000000 l    df *ABS*	00000000 Interval_Timer.c
00000000 l    df *ABS*	00000000 fp-bit.c
00000000 l    df *ABS*	00000000 fp-bit.c
00000000 l    df *ABS*	00000000 fp-bit.c
00000000 l    df *ABS*	00000000 fp-bit.c
00000000 l    df *ABS*	00000000 fp-bit.c
00000000 l    df *ABS*	00000000 dp-bit.c
00000000 l    df *ABS*	00000000 lib2-mul.c
00000000 l    df *ABS*	00000000 libgcc2.c
00000000 l    df *ABS*	00000000 fp-bit.c
00000000 l    df *ABS*	00000000 fp-bit.c
00000000 l    df *ABS*	00000000 dp-bit.c
00000000 l    df *ABS*	00000000 libgcc2.c
00000000 l    df *ABS*	00000000 printf.c
00000000 l    df *ABS*	00000000 rand.c
00000000 l    df *ABS*	00000000 time.c
00000000 l    df *ABS*	00000000 vfprintf.c
010011e8 l     F .text	00000058 __sprint_r
0100dc40 l     O .rodata	00000010 blanks.3452
0100dc30 l     O .rodata	00000010 zeroes.3453
00000000 l    df *ABS*	00000000 wsetup.c
00000000 l    df *ABS*	00000000 dtoa.c
01003264 l     F .text	00000244 quorem
00000000 l    df *ABS*	00000000 fflush.c
00000000 l    df *ABS*	00000000 findfp.c
01004c8c l     F .text	00000058 std
01004d98 l     F .text	00000008 __fp_lock
01004da0 l     F .text	00000008 __fp_unlock
00000000 l    df *ABS*	00000000 mallocr.c
00000000 l    df *ABS*	00000000 fvwrite.c
00000000 l    df *ABS*	00000000 fwalk.c
00000000 l    df *ABS*	00000000 gettimeofdayr.c
00000000 l    df *ABS*	00000000 impure.c
0100de28 l     O .rwdata	00000400 impure_data
00000000 l    df *ABS*	00000000 int_errno.c
00000000 l    df *ABS*	00000000 locale.c
0100f87c l     O .rwdata	00000004 charset
0100dc74 l     O .rodata	00000030 lconv
00000000 l    df *ABS*	00000000 makebuf.c
00000000 l    df *ABS*	00000000 mallocr.c
00000000 l    df *ABS*	00000000 memchr.c
00000000 l    df *ABS*	00000000 memcpy.c
00000000 l    df *ABS*	00000000 memmove.c
00000000 l    df *ABS*	00000000 memset.c
00000000 l    df *ABS*	00000000 mprec.c
0100ddbc l     O .rodata	0000000c p05.2458
00000000 l    df *ABS*	00000000 mallocr.c
00000000 l    df *ABS*	00000000 s_isinfd.c
00000000 l    df *ABS*	00000000 s_isnand.c
00000000 l    df *ABS*	00000000 sbrkr.c
00000000 l    df *ABS*	00000000 stdio.c
00000000 l    df *ABS*	00000000 strcmp.c
00000000 l    df *ABS*	00000000 strlen.c
00000000 l    df *ABS*	00000000 writer.c
00000000 l    df *ABS*	00000000 mallocr.c
00000000 l    df *ABS*	00000000 closer.c
00000000 l    df *ABS*	00000000 fclose.c
00000000 l    df *ABS*	00000000 fstatr.c
00000000 l    df *ABS*	00000000 isattyr.c
00000000 l    df *ABS*	00000000 lseekr.c
00000000 l    df *ABS*	00000000 readr.c
00000000 l    df *ABS*	00000000 libgcc2.c
00000000 l    df *ABS*	00000000 libgcc2.c
00000000 l    df *ABS*	00000000 libgcc2.c
00000000 l    df *ABS*	00000000 dp-bit.c
01009358 l     F .text	00000410 _fpadd_parts
00000000 l    df *ABS*	00000000 dp-bit.c
00000000 l    df *ABS*	00000000 dp-bit.c
00000000 l    df *ABS*	00000000 dp-bit.c
00000000 l    df *ABS*	00000000 dp-bit.c
00000000 l    df *ABS*	00000000 dp-bit.c
00000000 l    df *ABS*	00000000 dp-bit.c
00000000 l    df *ABS*	00000000 dp-bit.c
00000000 l    df *ABS*	00000000 dp-bit.c
00000000 l    df *ABS*	00000000 dp-bit.c
00000000 l    df *ABS*	00000000 dp-bit.c
00000000 l    df *ABS*	00000000 dp-bit.c
00000000 l    df *ABS*	00000000 lib2-divmod.c
0100a484 l     F .text	0000007c udivmodsi4
00000000 l    df *ABS*	00000000 dp-bit.c
00000000 l    df *ABS*	00000000 dp-bit.c
00000000 l    df *ABS*	00000000 alt_close.c
0100a8d0 l     F .text	00000060 alt_get_errno
00000000 l    df *ABS*	00000000 alt_dev.c
0100a930 l     F .text	0000002c alt_dev_null_write
00000000 l    df *ABS*	00000000 alt_errno.c
00000000 l    df *ABS*	00000000 alt_fstat.c
0100aa34 l     F .text	00000060 alt_get_errno
00000000 l    df *ABS*	00000000 alt_gettod.c
00000000 l    df *ABS*	00000000 alt_isatty.c
0100ad74 l     F .text	00000060 alt_get_errno
00000000 l    df *ABS*	00000000 alt_load.c
0100ae54 l     F .text	0000006c alt_load_section
00000000 l    df *ABS*	00000000 alt_lseek.c
0100afb4 l     F .text	00000060 alt_get_errno
00000000 l    df *ABS*	00000000 alt_main.c
00000000 l    df *ABS*	00000000 alt_malloc_lock.c
00000000 l    df *ABS*	00000000 alt_read.c
0100b1e4 l     F .text	00000060 alt_get_errno
00000000 l    df *ABS*	00000000 alt_release_fd.c
00000000 l    df *ABS*	00000000 alt_sbrk.c
0100f8a0 l     O .rwdata	00000004 heap_end
00000000 l    df *ABS*	00000000 alt_tick.c
00000000 l    df *ABS*	00000000 alt_write.c
0100b640 l     F .text	00000060 alt_get_errno
00000000 l    df *ABS*	00000000 alt_sys_init.c
0100e7e4 l     O .rwdata	00001060 jtag_uart_0
0100f844 l     O .rwdata	0000002c character_lcd_0
0100b754 l     F .text	00000038 alt_dev_reg
00000000 l    df *ABS*	00000000 altera_avalon_jtag_uart_fd.c
00000000 l    df *ABS*	00000000 altera_avalon_jtag_uart_init.c
0100b994 l     F .text	00000228 altera_avalon_jtag_uart_irq
0100bbbc l     F .text	000000b0 altera_avalon_jtag_uart_timeout
00000000 l    df *ABS*	00000000 altera_avalon_jtag_uart_ioctl.c
00000000 l    df *ABS*	00000000 altera_avalon_jtag_uart_read.c
00000000 l    df *ABS*	00000000 altera_avalon_jtag_uart_write.c
00000000 l    df *ABS*	00000000 altera_avalon_timer_ts.c
00000000 l    df *ABS*	00000000 altera_avalon_timer_vars.c
00000000 l    df *ABS*	00000000 altera_up_avalon_character_lcd.c
00000000 l    df *ABS*	00000000 alt_alarm_start.c
00000000 l    df *ABS*	00000000 alt_dcache_flush_all.c
00000000 l    df *ABS*	00000000 alt_dev_llist_insert.c
0100caf4 l     F .text	00000060 alt_get_errno
00000000 l    df *ABS*	00000000 alt_do_ctors.c
00000000 l    df *ABS*	00000000 alt_do_dtors.c
00000000 l    df *ABS*	00000000 alt_find_dev.c
00000000 l    df *ABS*	00000000 alt_icache_flush_all.c
00000000 l    df *ABS*	00000000 alt_iic.c
00000000 l    df *ABS*	00000000 alt_iic_isr_register.c
00000000 l    df *ABS*	00000000 alt_io_redirect.c
0100cfac l     F .text	000000d8 alt_open_fd
00000000 l    df *ABS*	00000000 alt_irq_vars.c
00000000 l    df *ABS*	00000000 alt_open.c
0100d0fc l     F .text	000000f8 alt_file_locked
0100d380 l     F .text	00000060 alt_get_errno
00000000 l    df *ABS*	00000000 altera_nios2_qsys_irq.c
00000000 l    df *ABS*	00000000 alt_find_file.c
00000000 l    df *ABS*	00000000 alt_get_fd.c
00000000 l    df *ABS*	00000000 alt_icache_flush.c
00000000 l    df *ABS*	00000000 atexit.c
00000000 l    df *ABS*	00000000 exit.c
00000000 l    df *ABS*	00000000 memcmp.c
00000000 l    df *ABS*	00000000 __atexit.c
00000000 l    df *ABS*	00000000 __call_atexit.c
0100d874 l     F .text	00000004 register_fini
00000000 l    df *ABS*	00000000 alt_exit.c
0100da28 l     F .text	00000040 alt_sim_halt
01006af0 g     F .text	00000094 _mprec_log10
01006bdc g     F .text	00000088 __any_on
01008408 g     F .text	00000070 _isatty_r
0100dd94 g     O .rodata	00000028 __mprec_tinytens
0100b014 g     F .text	0000006c alt_main
010113ac g     O .bss	00000100 alt_irq
01008478 g     F .text	00000078 _lseek_r
0100f8b0 g       *ABS*	00000000 __flash_rwdata_start
0100c41c g     F .text	00000034 alt_up_character_lcd_send_cmd
01009e78 g     F .text	00000088 __eqdf2
010059dc g     F .text	00000074 _gettimeofday_r
0101163c g       *ABS*	00000000 __alt_heap_start
01001080 g     F .text	00000044 printf
01007e4c g     F .text	00000068 __sseek
01004cf4 g     F .text	000000a4 __sinit
01005a74 g     F .text	00000084 _setlocale_r
01004df4 g     F .text	0000009c __sfmoreglue
0100b0a0 g     F .text	00000020 __malloc_unlock
01000734 g     F .text	00000174 __divsf3
0101137c g     O .bss	00000004 altera_avalon_timer_ts_freq
0100656c g     F .text	000000e0 memmove
01004de4 g     F .text	00000010 _cleanup
01006c64 g     F .text	000000bc _Balloc
01009f88 g     F .text	00000088 __gtdf2
00000000  w      *UND*	00000000 __errno
0100c3a0 g     F .text	0000007c get_DDRAM_addr
01000000 g     F .entry	0000001c __reset
01000020 g       *ABS*	00000000 __flash_exceptions_start
01008394 g     F .text	00000074 _fstat_r
01011338 g     O .bss	00000004 errno
01000a54 g     F .text	00000038 __make_dp
01011368 g     O .bss	00000004 alt_argv
01017870 g       *ABS*	00000000 _gp
0100e664 g     O .rwdata	00000180 alt_fd_list
0100cc1c g     F .text	00000094 alt_find_dev
010064cc g     F .text	000000a0 memcpy
0100c5b4 g     F .text	0000004c alt_up_character_lcd_write_fd
01004dd8 g     F .text	0000000c _cleanup_r
0100a120 g     F .text	000000f8 __floatsidf
0100d084 g     F .text	00000078 alt_io_redirect
0100a098 g     F .text	00000088 __ltdf2
0100da8c g       *ABS*	00000000 __DTOR_END__
01006a40 g     F .text	000000b0 __ratio
0100bdd4 g     F .text	00000224 altera_avalon_jtag_uart_read
00000000  w      *UND*	00000000 malloc
010010c4 g     F .text	00000034 _printf_r
00000000 g       *ABS*	00000000 __alt_mem_onchip_memory2_0
0100a5c0 g     F .text	00000008 __udivsi3
0100acb0 g     F .text	000000c4 isatty
0100dca4 g     O .rodata	000000c8 __mprec_tens
01005a50 g     F .text	00000008 __locale_charset
01011354 g     O .bss	00000008 alt_timezone
0100d5f0 g     F .text	00000090 alt_icache_flush
01011348 g     O .bss	00000004 __malloc_top_pad
0100f878 g     O .rwdata	00000004 __mb_cur_max
01005a58 g     F .text	0000000c _localeconv_r
010073c8 g     F .text	0000003c __i2b
010053c0 g     F .text	0000049c __sfvwrite_r
01007dd4 g     F .text	00000070 _sbrk_r
010084f0 g     F .text	00000078 _read_r
0100e228 g     O .rwdata	0000000c __lc_ctype
0100f898 g     O .rwdata	00000004 alt_max_fd
0100a5d0 g     F .text	00000138 __unpack_d
01008270 g     F .text	00000110 _fclose_r
01004c58 g     F .text	00000034 fflush
0101134c g     O .bss	00000004 __malloc_max_sbrked_mem
01000940 g     F .text	00000054 __extendsfdf2
010097e8 g     F .text	00000074 __adddf3
01006920 g     F .text	00000120 __b2d
01008cf8 g     F .text	00000660 __umoddi3
0100aec0 g     F .text	000000f4 lseek
0100f874 g     O .rwdata	00000004 _global_impure_ptr
01007770 g     F .text	000005f4 _realloc_r
0101163c g       *ABS*	00000000 __bss_end
0100ceb4 g     F .text	000000f8 alt_iic_isr_register
0100b410 g     F .text	0000010c alt_tick
0100868c g     F .text	0000066c __udivdi3
0100dd6c g     O .rodata	00000028 __mprec_bigtens
01007650 g     F .text	00000120 __s2b
0100a2f0 g     F .text	00000194 __floatunsidf
01006840 g     F .text	00000060 __mcmp
01004dc0 g     F .text	00000018 __fp_lock_all
0100ce6c g     F .text	00000048 alt_ic_irq_enabled
0100b378 g     F .text	00000098 alt_alarm_stop
01011380 g     O .bss	00000004 alt_irq_active
010000ec g     F .exceptions	000000c8 alt_irq_handler
0100e63c g     O .rwdata	00000028 alt_dev_null
01000ca4 g     F .text	000000c8 __unpack_f
0100c89c g     F .text	00000034 alt_up_character_lcd_cursor_blink_on
0100ca24 g     F .text	0000001c alt_dcache_flush_all
0100670c g     F .text	00000070 __hi0bits
0100a218 g     F .text	000000d8 __fixdfsi
0100f8b0 g       *ABS*	00000000 __ram_rwdata_end
0100f890 g     O .rwdata	00000008 alt_dev_list
0100b51c g     F .text	00000124 write
0100c378 g     F .text	00000028 alt_timestamp_freq
0100de28 g       *ABS*	00000000 __ram_rodata_end
0100a95c g     F .text	000000d8 fstat
01007530 g     F .text	00000120 __pow5mult
0101133c g     O .bss	00000004 __nlocale_changed
0100a5c8 g     F .text	00000008 __umodsi3
0101163c g       *ABS*	00000000 end
01000b44 g     F .text	00000160 __pack_f
0100b8d4 g     F .text	000000c0 altera_avalon_jtag_uart_init
0100da88 g       *ABS*	00000000 __CTOR_LIST__
01800000 g       *ABS*	00000000 __alt_stack_pointer
01000ac4 g     F .text	00000080 __clzsi2
0100bff8 g     F .text	00000240 altera_avalon_jtag_uart_write
01004ce4 g     F .text	00000004 __sfp_lock_acquire
010063e8 g     F .text	000000e4 memchr
0100c4c4 g     F .text	00000078 alt_up_character_lcd_write
01001240 g     F .text	00001ec4 ___vfprintf_internal_r
010050ac g     F .text	00000314 _free_r
0100d878 g     F .text	000001b0 __call_exitprocs
01011340 g     O .bss	00000004 __mlocale_changed
0100f884 g     O .rwdata	00000004 __malloc_sbrk_base
010001b4 g     F .text	0000003c _start
01011370 g     O .bss	00000004 _alt_tick_rate
01001114 g     F .text	00000078 rand
01007028 g     F .text	0000014c __lshift
01011374 g     O .bss	00000004 _alt_nticks
0100b0c0 g     F .text	00000124 read
0100b6d4 g     F .text	00000080 alt_sys_init
0100c728 g     F .text	000000b0 alt_up_character_lcd_shift_display
010008a8 g     F .text	00000098 __floatsisf
0100d740 g     F .text	00000134 __register_exitproc
01007174 g     F .text	00000254 __multiply
0100c7d8 g     F .text	00000090 alt_up_character_lcd_erase_pos
0100bc6c g     F .text	00000074 altera_avalon_jtag_uart_close
01000a8c g     F .text	00000038 __mulsi3
0100de28 g       *ABS*	00000000 __ram_rwdata_start
0100da8c g       *ABS*	00000000 __ram_rodata_start
01011384 g     O .bss	00000028 __malloc_current_mallinfo
01006d20 g     F .text	0000017c __d2b
0100b78c g     F .text	00000058 altera_avalon_jtag_uart_read_fd
0100d520 g     F .text	000000d0 alt_get_fd
0100a708 g     F .text	000000c8 __fpcmp_parts_d
01008200 g     F .text	00000070 _close_r
0100d6cc g     F .text	00000074 memcmp
0100b83c g     F .text	00000048 altera_avalon_jtag_uart_close_fd
0101163c g       *ABS*	00000000 __alt_stack_base
0100b884 g     F .text	00000050 altera_avalon_jtag_uart_ioctl_fd
01003128 g     F .text	0000013c __swsetup_r
01009c20 g     F .text	00000258 __divdf3
01004e90 g     F .text	000000f0 __sfp
01006b84 g     F .text	00000058 __copybits
0100e234 g     O .rwdata	00000408 __malloc_av_
01004cf0 g     F .text	00000004 __sinit_lock_release
0100985c g     F .text	000003c4 __muldf3
01007f30 g     F .text	00000060 __sread
0100dac0 g     O .rodata	00000010 __thenan_sf
0100d400 g     F .text	00000120 alt_find_file
0100ca40 g     F .text	000000b4 alt_dev_llist_insert
0100b080 g     F .text	00000020 __malloc_lock
0100b2bc g     F .text	000000bc sbrk
01004a5c g     F .text	000001fc _fflush_r
01008138 g     F .text	000000c8 _calloc_r
0100aa94 g     F .text	0000021c gettimeofday
01011338 g       *ABS*	00000000 __bss_start
0100664c g     F .text	00000098 memset
010001f0 g     F .text	00000544 main
0101136c g     O .bss	00000004 alt_envp
01011350 g     O .bss	00000004 __malloc_max_total_mem
0100b7e4 g     F .text	00000058 altera_avalon_jtag_uart_write_fd
010010f8 g     F .text	0000001c srand
0100c678 g     F .text	000000b0 alt_up_character_lcd_shift_cursor
01007e44 g     F .text	00000008 __sclose
01800000 g       *ABS*	00000000 __alt_heap_limit
01008380 g     F .text	00000014 fclose
0100c238 g     F .text	000000a4 alt_timestamp_start
010114ac g     O .bss	00000190 _atexit0
010034a8 g     F .text	000015b4 _dtoa_r
01005ca8 g     F .text	00000740 _malloc_r
0100118c g     F .text	0000005c time
0100f89c g     O .rwdata	00000004 alt_errno
01005924 g     F .text	000000b8 _fwalk
0100a500 g     F .text	00000060 __divsi3
0100ddc8 g     O .rodata	00000014 __thenan_df
0100c484 g     F .text	00000040 alt_up_character_lcd_open_dev
01004f80 g     F .text	0000012c _malloc_trim_r
0100da8c g       *ABS*	00000000 __CTOR_END__
0100c450 g     F .text	00000034 alt_up_character_lcd_init
01007f90 g     F .text	000000bc strcmp
0100da8c g       *ABS*	00000000 __flash_rodata_start
0100da8c g       *ABS*	00000000 __DTOR_LIST__
01009f00 g     F .text	00000088 __nedf2
0100b6a0 g     F .text	00000034 alt_irq_init
0100b244 g     F .text	00000078 alt_release_fd
0100c868 g     F .text	00000034 alt_up_character_lcd_cursor_off
0100dad0 g     O .rodata	00000100 __clz_tab
01011344 g     O .bss	00000004 _PathLocale
0100d680 g     F .text	00000014 atexit
010080c0 g     F .text	00000078 _write_r
01005af8 g     F .text	0000001c setlocale
0100f870 g     O .rwdata	00000004 _impure_ptr
01011364 g     O .bss	00000004 alt_argc
01011378 g     O .bss	00000004 altera_avalon_timer_ts_base
0100cbb8 g     F .text	00000064 _do_dtors
01000020 g       .exceptions	00000000 alt_irq_entry
010068a0 g     F .text	00000080 __ulp
01007d64 g     F .text	00000040 __isinfd
01004da8 g     F .text	00000018 __fp_unlock_all
0100f888 g     O .rwdata	00000008 alt_fs_list
0101135c g     O .bss	00000008 alt_resettime
01000020 g       *ABS*	00000000 __ram_exceptions_start
01005a64 g     F .text	00000010 localeconv
0100c2dc g     F .text	0000009c alt_timestamp
0100cce0 g     F .text	00000050 alt_ic_isr_register
0100f8b0 g       *ABS*	00000000 _edata
0101163c g       *ABS*	00000000 _end
010001b4 g       *ABS*	00000000 __ram_exceptions_end
0100bce0 g     F .text	000000f4 altera_avalon_jtag_uart_ioctl
0100cdcc g     F .text	000000a0 alt_ic_irq_disable
01007eb4 g     F .text	0000007c __swrite
0100f880 g     O .rwdata	00000004 __malloc_trim_threshold
0100d3e0 g     F .text	00000020 altera_nios2_qsys_irq_init
0100d694 g     F .text	00000038 exit
0100585c g     F .text	000000c8 _fwalk_reent
01000994 g     F .text	000000c0 __floatunsisf
01006e9c g     F .text	0000018c __mdiff
0100a560 g     F .text	00000060 __modsi3
01800000 g       *ABS*	00000000 __alt_data_end
01000020 g     F .exceptions	00000000 alt_exception
01004ce8 g     F .text	00000004 __sfp_lock_release
01000000 g       *ABS*	00000000 __alt_mem_sdram
0100c53c g     F .text	00000078 alt_up_character_lcd_string
0100da68 g     F .text	00000020 _exit
01007da4 g     F .text	00000030 __isnand
0100c8d0 g     F .text	00000154 alt_alarm_start
01008568 g     F .text	00000124 __muldi3
01005b14 g     F .text	00000194 __smakebuf_r
0100804c g     F .text	00000074 strlen
0100d1f4 g     F .text	0000018c open
0100a010 g     F .text	00000088 __gedf2
0100ccb0 g     F .text	00000030 alt_icache_flush_all
0100c600 g     F .text	00000078 alt_up_character_lcd_set_cursor_pos
0100f8ac g     O .rwdata	00000004 alt_priority_mask
0100cd30 g     F .text	0000009c alt_ic_irq_enable
01003104 g     F .text	00000024 __vfprintf_internal
01009768 g     F .text	00000080 __subdf3
0100677c g     F .text	000000c4 __lo0bits
0100f8a4 g     O .rwdata	00000008 alt_alarm_list
0100cb54 g     F .text	00000064 _do_ctors
0100a7d0 g     F .text	00000100 close
0100add4 g     F .text	00000080 alt_load
01000d6c g     F .text	00000314 __pack_d
00000000  w      *UND*	00000000 free
01004cec g     F .text	00000004 __sinit_lock_acquire
01007404 g     F .text	0000012c __multadd
010066e4 g     F .text	00000028 _Bfree



Disassembly of section .entry:

01000000 <__reset>:
#if NIOS2_ICACHE_SIZE > 0 && defined(ALT_ALLOW_CODE_AT_RESET) && !defined(ALT_SIM_OPTIMIZE)
    /* Assume the instruction cache size is always a power of two. */
#if NIOS2_ICACHE_SIZE > 0x8000
    movhi r2, %hi(NIOS2_ICACHE_SIZE)
#else
    movui r2, NIOS2_ICACHE_SIZE
 1000000:	00840014 	movui	r2,4096
#endif

0:
    initi r2
 1000004:	1001483a 	initi	r2
    addi r2, r2, -NIOS2_ICACHE_LINE_SIZE
 1000008:	10bff804 	addi	r2,r2,-32
    bgt r2, zero, 0b
 100000c:	00bffd16 	blt	zero,r2,1000004 <__reset+0x4>
 * Jump to the _start entry point in the .text section if reset code
 * is allowed or if optimizing for RTL simulation.
 */
#if defined(ALT_ALLOW_CODE_AT_RESET) || defined(ALT_SIM_OPTIMIZE)
    /* Jump to the _start entry point in the .text section. */
    movhi r1, %hi(_start)
 1000010:	00404034 	movhi	at,256
    ori r1, r1, %lo(_start)
 1000014:	08406d14 	ori	at,at,436
    jmp r1
 1000018:	0800683a 	jmp	at
 100001c:	00000000 	call	0 <__alt_mem_onchip_memory2_0>

Disassembly of section .exceptions:

01000020 <alt_exception>:
         * Process an exception.  For all exceptions we must preserve all
         * caller saved registers on the stack (See the Nios2 ABI
         * documentation for details).
         */

        addi  sp, sp, -76
 1000020:	deffed04 	addi	sp,sp,-76

#endif

#endif

        stw   ra,  0(sp)
 1000024:	dfc00015 	stw	ra,0(sp)
        /*
         * Leave a gap in the stack frame at 4(sp) for the muldiv handler to
         * store zero into.
         */

        stw   r1,   8(sp)
 1000028:	d8400215 	stw	at,8(sp)
        stw   r2,  12(sp)
 100002c:	d8800315 	stw	r2,12(sp)
        stw   r3,  16(sp)
 1000030:	d8c00415 	stw	r3,16(sp)
        stw   r4,  20(sp)
 1000034:	d9000515 	stw	r4,20(sp)
        stw   r5,  24(sp)
 1000038:	d9400615 	stw	r5,24(sp)
        stw   r6,  28(sp)
 100003c:	d9800715 	stw	r6,28(sp)
        stw   r7,  32(sp)
 1000040:	d9c00815 	stw	r7,32(sp)

        rdctl r5, estatus
 1000044:	000b307a 	rdctl	r5,estatus

        stw   r8,  36(sp)
 1000048:	da000915 	stw	r8,36(sp)
        stw   r9,  40(sp)
 100004c:	da400a15 	stw	r9,40(sp)
        stw   r10, 44(sp)
 1000050:	da800b15 	stw	r10,44(sp)
        stw   r11, 48(sp)
 1000054:	dac00c15 	stw	r11,48(sp)
        stw   r12, 52(sp)
 1000058:	db000d15 	stw	r12,52(sp)
        stw   r13, 56(sp)
 100005c:	db400e15 	stw	r13,56(sp)
        stw   r14, 60(sp)
 1000060:	db800f15 	stw	r14,60(sp)
        stw   r15, 64(sp)
 1000064:	dbc01015 	stw	r15,64(sp)
        /*
         * ea-4 contains the address of the instruction being executed
         * when the exception occured. For interrupt exceptions, we will
         * will be re-issue the isntruction. Store it in 72(sp)
         */
        stw   r5,  68(sp)  /* estatus */
 1000068:	d9401115 	stw	r5,68(sp)
        addi  r15, ea, -4  /* instruction that caused exception */
 100006c:	ebffff04 	addi	r15,ea,-4
        stw   r15,  72(sp)
 1000070:	dbc01215 	stw	r15,72(sp)
#else
        /*
         * Test to see if the exception was a software exception or caused 
         * by an external interrupt, and vector accordingly.
         */
        rdctl r4, ipending
 1000074:	0009313a 	rdctl	r4,ipending
        andi  r2, r5, 1
 1000078:	2880004c 	andi	r2,r5,1
        beq   r2, zero, .Lnot_irq
 100007c:	10000326 	beq	r2,zero,100008c <alt_exception+0x6c>
        beq   r4, zero, .Lnot_irq
 1000080:	20000226 	beq	r4,zero,100008c <alt_exception+0x6c>
        /*
         * Now that all necessary registers have been preserved, call 
         * alt_irq_handler() to process the interrupts.
         */

        call alt_irq_handler
 1000084:	10000ec0 	call	10000ec <alt_irq_handler>

        .section .exceptions.irqreturn, "xa"

        br    .Lexception_exit
 1000088:	00000306 	br	1000098 <alt_exception+0x78>
         * upon completion, so we write ea (address of instruction *after*
         * the one where the exception occured) into 72(sp). The actual
         * instruction that caused the exception is written in r2, which these
         * handlers will utilize.
         */
        stw   ea,  72(sp)  /* Don't re-issue */
 100008c:	df401215 	stw	ea,72(sp)
        ldw   r2, -4(ea)   /* Instruction that caused exception */
 1000090:	e8bfff17 	ldw	r2,-4(ea)
#ifdef NIOS2_HAS_DEBUG_STUB
       /*
        *  Either tell the user now (if there is a debugger attached) or go into
        *  the debug monitor which will loop until a debugger is attached.
        */
        break
 1000094:	003da03a 	break	0
        /* 
         * Restore the saved registers, so that all general purpose registers 
         * have been restored to their state at the time the interrupt occured.
         */

        ldw   r5,  68(sp)
 1000098:	d9401117 	ldw	r5,68(sp)
        ldw   ea,  72(sp)  /* This becomes the PC once eret is executed */
 100009c:	df401217 	ldw	ea,72(sp)
        ldw   ra,   0(sp)
 10000a0:	dfc00017 	ldw	ra,0(sp)

        wrctl estatus, r5
 10000a4:	2801707a 	wrctl	estatus,r5

        ldw   r1,   8(sp)
 10000a8:	d8400217 	ldw	at,8(sp)
        ldw   r2,  12(sp)
 10000ac:	d8800317 	ldw	r2,12(sp)
        ldw   r3,  16(sp)
 10000b0:	d8c00417 	ldw	r3,16(sp)
        ldw   r4,  20(sp)
 10000b4:	d9000517 	ldw	r4,20(sp)
        ldw   r5,  24(sp)
 10000b8:	d9400617 	ldw	r5,24(sp)
        ldw   r6,  28(sp)
 10000bc:	d9800717 	ldw	r6,28(sp)
        ldw   r7,  32(sp)
 10000c0:	d9c00817 	ldw	r7,32(sp)
#ifdef ALT_STACK_CHECK
        ldw   et, %gprel(alt_exception_old_stack_limit)(gp)
#endif
#endif

        ldw   r8,  36(sp)
 10000c4:	da000917 	ldw	r8,36(sp)
        ldw   r9,  40(sp)
 10000c8:	da400a17 	ldw	r9,40(sp)
        ldw   r10, 44(sp)
 10000cc:	da800b17 	ldw	r10,44(sp)
        ldw   r11, 48(sp)
 10000d0:	dac00c17 	ldw	r11,48(sp)
        ldw   r12, 52(sp)
 10000d4:	db000d17 	ldw	r12,52(sp)
        ldw   r13, 56(sp)
 10000d8:	db400e17 	ldw	r13,56(sp)
        ldw   r14, 60(sp)
 10000dc:	db800f17 	ldw	r14,60(sp)
        ldw   r15, 64(sp)
 10000e0:	dbc01017 	ldw	r15,64(sp)
#endif

        ldw   sp,  76(sp)

#else
        addi  sp, sp, 76
 10000e4:	dec01304 	addi	sp,sp,76

        /*
         * Return to the interrupted instruction.
         */

        eret
 10000e8:	ef80083a 	eret

010000ec <alt_irq_handler>:
 * instruction is present if the macro ALT_CI_INTERRUPT_VECTOR defined.
 */

void alt_irq_handler (void) __attribute__ ((section (".exceptions")));
void alt_irq_handler (void)
{
 10000ec:	defff904 	addi	sp,sp,-28
 10000f0:	dfc00615 	stw	ra,24(sp)
 10000f4:	df000515 	stw	fp,20(sp)
 10000f8:	df000504 	addi	fp,sp,20
#ifndef NIOS2_EIC_PRESENT
static ALT_INLINE alt_u32 ALT_ALWAYS_INLINE alt_irq_pending (void)
{
  alt_u32 active;

  NIOS2_READ_IPENDING (active);
 10000fc:	0005313a 	rdctl	r2,ipending
 1000100:	e0bffc15 	stw	r2,-16(fp)

  return active;
 1000104:	e0bffc17 	ldw	r2,-16(fp)
   * Consider the case where the high priority interupt is asserted during
   * the interrupt entry sequence for a lower priority interrupt to see why
   * this is the case.
   */

  active = alt_irq_pending ();
 1000108:	e0bfff15 	stw	r2,-4(fp)

  do
  {
    i = 0;
 100010c:	e03ffd15 	stw	zero,-12(fp)
    mask = 1;
 1000110:	00800044 	movi	r2,1
 1000114:	e0bffe15 	stw	r2,-8(fp)
     * called to clear the interrupt condition.
     */

    do
    {
      if (active & mask)
 1000118:	e0ffff17 	ldw	r3,-4(fp)
 100011c:	e0bffe17 	ldw	r2,-8(fp)
 1000120:	1884703a 	and	r2,r3,r2
 1000124:	1005003a 	cmpeq	r2,r2,zero
 1000128:	1000161e 	bne	r2,zero,1000184 <alt_irq_handler+0x98>
      { 
#ifdef ALT_ENHANCED_INTERRUPT_API_PRESENT
        alt_irq[i].handler(alt_irq[i].context); 
 100012c:	e0bffd17 	ldw	r2,-12(fp)
 1000130:	00c04074 	movhi	r3,257
 1000134:	18c4eb04 	addi	r3,r3,5036
 1000138:	100490fa 	slli	r2,r2,3
 100013c:	10c5883a 	add	r2,r2,r3
 1000140:	11400017 	ldw	r5,0(r2)
 1000144:	e0bffd17 	ldw	r2,-12(fp)
 1000148:	00c04074 	movhi	r3,257
 100014c:	18c4eb04 	addi	r3,r3,5036
 1000150:	100490fa 	slli	r2,r2,3
 1000154:	10c5883a 	add	r2,r2,r3
 1000158:	10800104 	addi	r2,r2,4
 100015c:	11000017 	ldw	r4,0(r2)
 1000160:	283ee83a 	callr	r5
#ifndef NIOS2_EIC_PRESENT
static ALT_INLINE alt_u32 ALT_ALWAYS_INLINE alt_irq_pending (void)
{
  alt_u32 active;

  NIOS2_READ_IPENDING (active);
 1000164:	0005313a 	rdctl	r2,ipending
 1000168:	e0bffb15 	stw	r2,-20(fp)

  return active;
 100016c:	e0bffb17 	ldw	r2,-20(fp)
      mask <<= 1;
      i++;

    } while (1);

    active = alt_irq_pending ();
 1000170:	e0bfff15 	stw	r2,-4(fp)
    
  } while (active);
 1000174:	e0bfff17 	ldw	r2,-4(fp)
 1000178:	1004c03a 	cmpne	r2,r2,zero
 100017c:	103fe31e 	bne	r2,zero,100010c <alt_irq_handler+0x20>
 1000180:	00000706 	br	10001a0 <alt_irq_handler+0xb4>
#else
        alt_irq[i].handler(alt_irq[i].context, i); 
#endif
        break;
      }
      mask <<= 1;
 1000184:	e0bffe17 	ldw	r2,-8(fp)
 1000188:	1085883a 	add	r2,r2,r2
 100018c:	e0bffe15 	stw	r2,-8(fp)
      i++;
 1000190:	e0bffd17 	ldw	r2,-12(fp)
 1000194:	10800044 	addi	r2,r2,1
 1000198:	e0bffd15 	stw	r2,-12(fp)

    } while (1);
 100019c:	003fde06 	br	1000118 <alt_irq_handler+0x2c>
  /*
   * Notify the operating system that interrupt processing is complete.
   */ 

  ALT_OS_INT_EXIT();
}
 10001a0:	e037883a 	mov	sp,fp
 10001a4:	dfc00117 	ldw	ra,4(sp)
 10001a8:	df000017 	ldw	fp,0(sp)
 10001ac:	dec00204 	addi	sp,sp,8
 10001b0:	f800283a 	ret

Disassembly of section .text:

010001b4 <_start>:
#if (NIOS2_NUM_OF_SHADOW_REG_SETS == 0)    
    /*
     * Now that the caches are initialized, set up the stack pointer.
     * The value provided by the linker is assumed to be correctly aligned.
     */
    movhi sp, %hi(__alt_stack_pointer)
 10001b4:	06c06034 	movhi	sp,384
    ori sp, sp, %lo(__alt_stack_pointer)
 10001b8:	dec00014 	ori	sp,sp,0

    /* Set up the global pointer. */
    movhi gp, %hi(_gp)
 10001bc:	06804074 	movhi	gp,257
    ori gp, gp, %lo(_gp)
 10001c0:	d69e1c14 	ori	gp,gp,30832
 */
#ifndef ALT_SIM_OPTIMIZE
    /* Log that the BSS is about to be cleared. */
    ALT_LOG_PUTS(alt_log_msg_bss)

    movhi r2, %hi(__bss_start)
 10001c4:	00804074 	movhi	r2,257
    ori r2, r2, %lo(__bss_start)
 10001c8:	1084ce14 	ori	r2,r2,4920

    movhi r3, %hi(__bss_end)
 10001cc:	00c04074 	movhi	r3,257
    ori r3, r3, %lo(__bss_end)
 10001d0:	18c58f14 	ori	r3,r3,5692

    beq r2, r3, 1f
 10001d4:	10c00326 	beq	r2,r3,10001e4 <_start+0x30>

0:
    stw zero, (r2)
 10001d8:	10000015 	stw	zero,0(r2)
    addi r2, r2, 4
 10001dc:	10800104 	addi	r2,r2,4
    bltu r2, r3, 0b
 10001e0:	10fffd36 	bltu	r2,r3,10001d8 <_start+0x24>
     * section aren't defined until alt_load() has been called).
     */
    mov   et, zero
#endif

    call alt_load
 10001e4:	100add40 	call	100add4 <alt_load>

    /* Log that alt_main is about to be called. */
    ALT_LOG_PUTS(alt_log_msg_alt_main)

    /* Call the C entry point. It should never return. */
    call alt_main
 10001e8:	100b0140 	call	100b014 <alt_main>

010001ec <alt_after_alt_main>:

    /* Wait in infinite loop in case alt_main does return. */
alt_after_alt_main:
    br alt_after_alt_main
 10001ec:	003fff06 	br	10001ec <alt_after_alt_main>

010001f0 <main>:
#include <stdio.h>
#include "sys/alt_timestamp.h"
#include "altera_up_avalon_character_lcd.h"
#include <time.h>
int main()
{
 10001f0:	defffa04 	addi	sp,sp,-24
 10001f4:	dfc00515 	stw	ra,20(sp)
 10001f8:	df000415 	stw	fp,16(sp)
 10001fc:	dcc00315 	stw	r19,12(sp)
 1000200:	dc800215 	stw	r18,8(sp)
 1000204:	dc400115 	stw	r17,4(sp)
 1000208:	dc000015 	stw	r16,0(sp)
 100020c:	d839883a 	mov	fp,sp
 1000210:	023fffb4 	movhi	r8,65534
 1000214:	420ac604 	addi	r8,r8,11032
 1000218:	da37883a 	add	sp,sp,r8
	  int sum;
	  int start_time;
	  int end_time;
	  float freq;
  //for random num generation
	  srand(time(NULL));
 100021c:	0009883a 	mov	r4,zero
 1000220:	100118c0 	call	100118c <time>
 1000224:	1009883a 	mov	r4,r2
 1000228:	10010f80 	call	10010f8 <srand>
  	  alt_up_character_lcd_dev* d = alt_up_character_lcd_open_dev("/dev/character_lcd_0");
  	  alt_up_character_lcd_init(d);
  	  alt_up_character_lcd_string(d, yala);*/

  	  //random 100x100 matrix gen
	  for(x = 0; x < 100; x++) {
 100022c:	00bfffb4 	movhi	r2,65534
 1000230:	108acf04 	addi	r2,r2,11068
 1000234:	1705883a 	add	r2,r2,fp
 1000238:	10000015 	stw	zero,0(r2)
 100023c:	00003306 	br	100030c <main+0x11c>
		  for(y = 0; y < 100; y++)
 1000240:	00ffffb4 	movhi	r3,65534
 1000244:	18cace04 	addi	r3,r3,11064
 1000248:	1f07883a 	add	r3,r3,fp
 100024c:	18000015 	stw	zero,0(r3)
 1000250:	00001f06 	br	10002d0 <main+0xe0>
			  a[x][y] = rand();
 1000254:	013fffb4 	movhi	r4,65534
 1000258:	210acf04 	addi	r4,r4,11068
 100025c:	2709883a 	add	r4,r4,fp
 1000260:	24000017 	ldw	r16,0(r4)
 1000264:	00bfffb4 	movhi	r2,65534
 1000268:	108ace04 	addi	r2,r2,11064
 100026c:	1705883a 	add	r2,r2,fp
 1000270:	14400017 	ldw	r17,0(r2)
 1000274:	10011140 	call	1001114 <rand>
 1000278:	1025883a 	mov	r18,r2
 100027c:	8009883a 	mov	r4,r16
 1000280:	01401904 	movi	r5,100
 1000284:	1000a8c0 	call	1000a8c <__mulsi3>
 1000288:	1445883a 	add	r2,r2,r17
 100028c:	1085883a 	add	r2,r2,r2
 1000290:	1085883a 	add	r2,r2,r2
 1000294:	00ffffb4 	movhi	r3,65534
 1000298:	18cac604 	addi	r3,r3,11032
 100029c:	1f07883a 	add	r3,r3,fp
 10002a0:	10c5883a 	add	r2,r2,r3
 10002a4:	10800a04 	addi	r2,r2,40
 10002a8:	14800015 	stw	r18,0(r2)
  	  alt_up_character_lcd_init(d);
  	  alt_up_character_lcd_string(d, yala);*/

  	  //random 100x100 matrix gen
	  for(x = 0; x < 100; x++) {
		  for(y = 0; y < 100; y++)
 10002ac:	013fffb4 	movhi	r4,65534
 10002b0:	210ace04 	addi	r4,r4,11064
 10002b4:	2709883a 	add	r4,r4,fp
 10002b8:	20800017 	ldw	r2,0(r4)
 10002bc:	10800044 	addi	r2,r2,1
 10002c0:	00ffffb4 	movhi	r3,65534
 10002c4:	18cace04 	addi	r3,r3,11064
 10002c8:	1f07883a 	add	r3,r3,fp
 10002cc:	18800015 	stw	r2,0(r3)
 10002d0:	013fffb4 	movhi	r4,65534
 10002d4:	210ace04 	addi	r4,r4,11064
 10002d8:	2709883a 	add	r4,r4,fp
 10002dc:	20800017 	ldw	r2,0(r4)
 10002e0:	10801910 	cmplti	r2,r2,100
 10002e4:	103fdb1e 	bne	r2,zero,1000254 <main+0x64>
  	  alt_up_character_lcd_dev* d = alt_up_character_lcd_open_dev("/dev/character_lcd_0");
  	  alt_up_character_lcd_init(d);
  	  alt_up_character_lcd_string(d, yala);*/

  	  //random 100x100 matrix gen
	  for(x = 0; x < 100; x++) {
 10002e8:	00ffffb4 	movhi	r3,65534
 10002ec:	18cacf04 	addi	r3,r3,11068
 10002f0:	1f07883a 	add	r3,r3,fp
 10002f4:	18800017 	ldw	r2,0(r3)
 10002f8:	10800044 	addi	r2,r2,1
 10002fc:	013fffb4 	movhi	r4,65534
 1000300:	210acf04 	addi	r4,r4,11068
 1000304:	2709883a 	add	r4,r4,fp
 1000308:	20800015 	stw	r2,0(r4)
 100030c:	00ffffb4 	movhi	r3,65534
 1000310:	18cacf04 	addi	r3,r3,11068
 1000314:	1f07883a 	add	r3,r3,fp
 1000318:	18800017 	ldw	r2,0(r3)
 100031c:	10801910 	cmplti	r2,r2,100
 1000320:	103fc71e 	bne	r2,zero,1000240 <main+0x50>
		  for(y = 0; y < 100; y++)
			  a[x][y] = rand();
	  }
	  for(x = 0; x < 100; x++) {
 1000324:	013fffb4 	movhi	r4,65534
 1000328:	210acf04 	addi	r4,r4,11068
 100032c:	2709883a 	add	r4,r4,fp
 1000330:	20000015 	stw	zero,0(r4)
 1000334:	00003406 	br	1000408 <main+0x218>
			for(y = 0; y < 100; y++)
 1000338:	00bfffb4 	movhi	r2,65534
 100033c:	108ace04 	addi	r2,r2,11064
 1000340:	1705883a 	add	r2,r2,fp
 1000344:	10000015 	stw	zero,0(r2)
 1000348:	00002006 	br	10003cc <main+0x1dc>
				b[x][y] = rand();
 100034c:	00ffffb4 	movhi	r3,65534
 1000350:	18cacf04 	addi	r3,r3,11068
 1000354:	1f07883a 	add	r3,r3,fp
 1000358:	1c000017 	ldw	r16,0(r3)
 100035c:	013fffb4 	movhi	r4,65534
 1000360:	210ace04 	addi	r4,r4,11064
 1000364:	2709883a 	add	r4,r4,fp
 1000368:	24400017 	ldw	r17,0(r4)
 100036c:	10011140 	call	1001114 <rand>
 1000370:	1027883a 	mov	r19,r2
 1000374:	00a71a14 	movui	r2,40040
 1000378:	00ffffb4 	movhi	r3,65534
 100037c:	18cac604 	addi	r3,r3,11032
 1000380:	1f07883a 	add	r3,r3,fp
 1000384:	18a5883a 	add	r18,r3,r2
 1000388:	8009883a 	mov	r4,r16
 100038c:	01401904 	movi	r5,100
 1000390:	1000a8c0 	call	1000a8c <__mulsi3>
 1000394:	1445883a 	add	r2,r2,r17
 1000398:	1085883a 	add	r2,r2,r2
 100039c:	1085883a 	add	r2,r2,r2
 10003a0:	1485883a 	add	r2,r2,r18
 10003a4:	14c00015 	stw	r19,0(r2)
	  for(x = 0; x < 100; x++) {
		  for(y = 0; y < 100; y++)
			  a[x][y] = rand();
	  }
	  for(x = 0; x < 100; x++) {
			for(y = 0; y < 100; y++)
 10003a8:	013fffb4 	movhi	r4,65534
 10003ac:	210ace04 	addi	r4,r4,11064
 10003b0:	2709883a 	add	r4,r4,fp
 10003b4:	20800017 	ldw	r2,0(r4)
 10003b8:	10800044 	addi	r2,r2,1
 10003bc:	00ffffb4 	movhi	r3,65534
 10003c0:	18cace04 	addi	r3,r3,11064
 10003c4:	1f07883a 	add	r3,r3,fp
 10003c8:	18800015 	stw	r2,0(r3)
 10003cc:	013fffb4 	movhi	r4,65534
 10003d0:	210ace04 	addi	r4,r4,11064
 10003d4:	2709883a 	add	r4,r4,fp
 10003d8:	20800017 	ldw	r2,0(r4)
 10003dc:	10801910 	cmplti	r2,r2,100
 10003e0:	103fda1e 	bne	r2,zero,100034c <main+0x15c>
  	  //random 100x100 matrix gen
	  for(x = 0; x < 100; x++) {
		  for(y = 0; y < 100; y++)
			  a[x][y] = rand();
	  }
	  for(x = 0; x < 100; x++) {
 10003e4:	00ffffb4 	movhi	r3,65534
 10003e8:	18cacf04 	addi	r3,r3,11068
 10003ec:	1f07883a 	add	r3,r3,fp
 10003f0:	18800017 	ldw	r2,0(r3)
 10003f4:	10800044 	addi	r2,r2,1
 10003f8:	013fffb4 	movhi	r4,65534
 10003fc:	210acf04 	addi	r4,r4,11068
 1000400:	2709883a 	add	r4,r4,fp
 1000404:	20800015 	stw	r2,0(r4)
 1000408:	00ffffb4 	movhi	r3,65534
 100040c:	18cacf04 	addi	r3,r3,11068
 1000410:	1f07883a 	add	r3,r3,fp
 1000414:	18800017 	ldw	r2,0(r3)
 1000418:	10801910 	cmplti	r2,r2,100
 100041c:	103fc61e 	bne	r2,zero,1000338 <main+0x148>
			for(y = 0; y < 100; y++)
				b[x][y] = rand();
		}

	  // Interval Timer for 100x100 matrix multiplication
	  freq=alt_timestamp_freq();
 1000420:	100c3780 	call	100c378 <alt_timestamp_freq>
 1000424:	1009883a 	mov	r4,r2
 1000428:	10009940 	call	1000994 <__floatunsisf>
 100042c:	013fffb4 	movhi	r4,65534
 1000430:	210ac704 	addi	r4,r4,11036
 1000434:	2709883a 	add	r4,r4,fp
 1000438:	20800015 	stw	r2,0(r4)

	  alt_timestamp_start();
 100043c:	100c2380 	call	100c238 <alt_timestamp_start>
	  for(i= 0; i < 100; i++) {
 1000440:	00bfffb4 	movhi	r2,65534
 1000444:	108acd04 	addi	r2,r2,11060
 1000448:	1705883a 	add	r2,r2,fp
 100044c:	10000015 	stw	zero,0(r2)
 1000450:	00008106 	br	1000658 <main+0x468>
			for(j= 0; j < 100; j++){
 1000454:	00ffffb4 	movhi	r3,65534
 1000458:	18cacc04 	addi	r3,r3,11056
 100045c:	1f07883a 	add	r3,r3,fp
 1000460:	18000015 	stw	zero,0(r3)
 1000464:	00006d06 	br	100061c <main+0x42c>
				sum = 0;
 1000468:	013fffb4 	movhi	r4,65534
 100046c:	210aca04 	addi	r4,r4,11048
 1000470:	2709883a 	add	r4,r4,fp
 1000474:	20000015 	stw	zero,0(r4)
				for (k=0; k<100; k++){
 1000478:	00bfffb4 	movhi	r2,65534
 100047c:	108acb04 	addi	r2,r2,11052
 1000480:	1705883a 	add	r2,r2,fp
 1000484:	10000015 	stw	zero,0(r2)
 1000488:	00003c06 	br	100057c <main+0x38c>
					sum = sum + a[i][k] * b[k][j];
 100048c:	00ffffb4 	movhi	r3,65534
 1000490:	18cacd04 	addi	r3,r3,11060
 1000494:	1f07883a 	add	r3,r3,fp
 1000498:	19000017 	ldw	r4,0(r3)
 100049c:	00bfffb4 	movhi	r2,65534
 10004a0:	108acb04 	addi	r2,r2,11052
 10004a4:	1705883a 	add	r2,r2,fp
 10004a8:	14000017 	ldw	r16,0(r2)
 10004ac:	01401904 	movi	r5,100
 10004b0:	1000a8c0 	call	1000a8c <__mulsi3>
 10004b4:	1405883a 	add	r2,r2,r16
 10004b8:	1085883a 	add	r2,r2,r2
 10004bc:	1085883a 	add	r2,r2,r2
 10004c0:	00ffffb4 	movhi	r3,65534
 10004c4:	18cac604 	addi	r3,r3,11032
 10004c8:	1f07883a 	add	r3,r3,fp
 10004cc:	10c5883a 	add	r2,r2,r3
 10004d0:	10800a04 	addi	r2,r2,40
 10004d4:	14800017 	ldw	r18,0(r2)
 10004d8:	00bfffb4 	movhi	r2,65534
 10004dc:	108acb04 	addi	r2,r2,11052
 10004e0:	1705883a 	add	r2,r2,fp
 10004e4:	11000017 	ldw	r4,0(r2)
 10004e8:	00ffffb4 	movhi	r3,65534
 10004ec:	18cacc04 	addi	r3,r3,11056
 10004f0:	1f07883a 	add	r3,r3,fp
 10004f4:	1c000017 	ldw	r16,0(r3)
 10004f8:	00a71a14 	movui	r2,40040
 10004fc:	00ffffb4 	movhi	r3,65534
 1000500:	18cac604 	addi	r3,r3,11032
 1000504:	1f07883a 	add	r3,r3,fp
 1000508:	18a3883a 	add	r17,r3,r2
 100050c:	01401904 	movi	r5,100
 1000510:	1000a8c0 	call	1000a8c <__mulsi3>
 1000514:	1405883a 	add	r2,r2,r16
 1000518:	1085883a 	add	r2,r2,r2
 100051c:	1085883a 	add	r2,r2,r2
 1000520:	1445883a 	add	r2,r2,r17
 1000524:	11400017 	ldw	r5,0(r2)
 1000528:	9009883a 	mov	r4,r18
 100052c:	1000a8c0 	call	1000a8c <__mulsi3>
 1000530:	1007883a 	mov	r3,r2
 1000534:	013fffb4 	movhi	r4,65534
 1000538:	210aca04 	addi	r4,r4,11048
 100053c:	2709883a 	add	r4,r4,fp
 1000540:	20800017 	ldw	r2,0(r4)
 1000544:	10c5883a 	add	r2,r2,r3
 1000548:	00ffffb4 	movhi	r3,65534
 100054c:	18caca04 	addi	r3,r3,11048
 1000550:	1f07883a 	add	r3,r3,fp
 1000554:	18800015 	stw	r2,0(r3)

	  alt_timestamp_start();
	  for(i= 0; i < 100; i++) {
			for(j= 0; j < 100; j++){
				sum = 0;
				for (k=0; k<100; k++){
 1000558:	013fffb4 	movhi	r4,65534
 100055c:	210acb04 	addi	r4,r4,11052
 1000560:	2709883a 	add	r4,r4,fp
 1000564:	20800017 	ldw	r2,0(r4)
 1000568:	10800044 	addi	r2,r2,1
 100056c:	00ffffb4 	movhi	r3,65534
 1000570:	18cacb04 	addi	r3,r3,11052
 1000574:	1f07883a 	add	r3,r3,fp
 1000578:	18800015 	stw	r2,0(r3)
 100057c:	013fffb4 	movhi	r4,65534
 1000580:	210acb04 	addi	r4,r4,11052
 1000584:	2709883a 	add	r4,r4,fp
 1000588:	20800017 	ldw	r2,0(r4)
 100058c:	10801910 	cmplti	r2,r2,100
 1000590:	103fbe1e 	bne	r2,zero,100048c <main+0x29c>
					sum = sum + a[i][k] * b[k][j];
				}
				c[i][j]= sum;
 1000594:	00bfffb4 	movhi	r2,65534
 1000598:	108acd04 	addi	r2,r2,11060
 100059c:	1705883a 	add	r2,r2,fp
 10005a0:	11000017 	ldw	r4,0(r2)
 10005a4:	00ffffb4 	movhi	r3,65534
 10005a8:	18cacc04 	addi	r3,r3,11056
 10005ac:	1f07883a 	add	r3,r3,fp
 10005b0:	1c000017 	ldw	r16,0(r3)
 10005b4:	00800074 	movhi	r2,1
 10005b8:	108e2a04 	addi	r2,r2,14504
 10005bc:	00ffffb4 	movhi	r3,65534
 10005c0:	18cac604 	addi	r3,r3,11032
 10005c4:	1f07883a 	add	r3,r3,fp
 10005c8:	18a3883a 	add	r17,r3,r2
 10005cc:	01401904 	movi	r5,100
 10005d0:	1000a8c0 	call	1000a8c <__mulsi3>
 10005d4:	1405883a 	add	r2,r2,r16
 10005d8:	1085883a 	add	r2,r2,r2
 10005dc:	1085883a 	add	r2,r2,r2
 10005e0:	1447883a 	add	r3,r2,r17
 10005e4:	013fffb4 	movhi	r4,65534
 10005e8:	210aca04 	addi	r4,r4,11048
 10005ec:	2709883a 	add	r4,r4,fp
 10005f0:	20800017 	ldw	r2,0(r4)
 10005f4:	18800015 	stw	r2,0(r3)
	  // Interval Timer for 100x100 matrix multiplication
	  freq=alt_timestamp_freq();

	  alt_timestamp_start();
	  for(i= 0; i < 100; i++) {
			for(j= 0; j < 100; j++){
 10005f8:	00ffffb4 	movhi	r3,65534
 10005fc:	18cacc04 	addi	r3,r3,11056
 1000600:	1f07883a 	add	r3,r3,fp
 1000604:	18800017 	ldw	r2,0(r3)
 1000608:	10800044 	addi	r2,r2,1
 100060c:	013fffb4 	movhi	r4,65534
 1000610:	210acc04 	addi	r4,r4,11056
 1000614:	2709883a 	add	r4,r4,fp
 1000618:	20800015 	stw	r2,0(r4)
 100061c:	00ffffb4 	movhi	r3,65534
 1000620:	18cacc04 	addi	r3,r3,11056
 1000624:	1f07883a 	add	r3,r3,fp
 1000628:	18800017 	ldw	r2,0(r3)
 100062c:	10801910 	cmplti	r2,r2,100
 1000630:	103f8d1e 	bne	r2,zero,1000468 <main+0x278>

	  // Interval Timer for 100x100 matrix multiplication
	  freq=alt_timestamp_freq();

	  alt_timestamp_start();
	  for(i= 0; i < 100; i++) {
 1000634:	013fffb4 	movhi	r4,65534
 1000638:	210acd04 	addi	r4,r4,11060
 100063c:	2709883a 	add	r4,r4,fp
 1000640:	20800017 	ldw	r2,0(r4)
 1000644:	10800044 	addi	r2,r2,1
 1000648:	00ffffb4 	movhi	r3,65534
 100064c:	18cacd04 	addi	r3,r3,11060
 1000650:	1f07883a 	add	r3,r3,fp
 1000654:	18800015 	stw	r2,0(r3)
 1000658:	013fffb4 	movhi	r4,65534
 100065c:	210acd04 	addi	r4,r4,11060
 1000660:	2709883a 	add	r4,r4,fp
 1000664:	20800017 	ldw	r2,0(r4)
 1000668:	10801910 	cmplti	r2,r2,100
 100066c:	103f791e 	bne	r2,zero,1000454 <main+0x264>
					sum = sum + a[i][k] * b[k][j];
				}
				c[i][j]= sum;
			}
		}
	  end_time=alt_timestamp();
 1000670:	100c2dc0 	call	100c2dc <alt_timestamp>
 1000674:	00ffffb4 	movhi	r3,65534
 1000678:	18cac804 	addi	r3,r3,11040
 100067c:	1f07883a 	add	r3,r3,fp
 1000680:	18800015 	stw	r2,0(r3)

	  float sec= end_time/freq;
 1000684:	00bfffb4 	movhi	r2,65534
 1000688:	108ac804 	addi	r2,r2,11040
 100068c:	1705883a 	add	r2,r2,fp
 1000690:	11000017 	ldw	r4,0(r2)
 1000694:	10008a80 	call	10008a8 <__floatsisf>
 1000698:	1009883a 	mov	r4,r2
 100069c:	00ffffb4 	movhi	r3,65534
 10006a0:	18cac704 	addi	r3,r3,11036
 10006a4:	1f07883a 	add	r3,r3,fp
 10006a8:	19400017 	ldw	r5,0(r3)
 10006ac:	10007340 	call	1000734 <__divsf3>
 10006b0:	013fffb4 	movhi	r4,65534
 10006b4:	210ac604 	addi	r4,r4,11032
 10006b8:	2709883a 	add	r4,r4,fp
 10006bc:	20800015 	stw	r2,0(r4)
	  printf("Time taken: %d clock ticks\n", end_time);
 10006c0:	01004074 	movhi	r4,257
 10006c4:	2136a304 	addi	r4,r4,-9588
 10006c8:	00bfffb4 	movhi	r2,65534
 10006cc:	108ac804 	addi	r2,r2,11040
 10006d0:	1705883a 	add	r2,r2,fp
 10006d4:	11400017 	ldw	r5,0(r2)
 10006d8:	10010800 	call	1001080 <printf>
	  printf("            %f seconds\n", sec );
 10006dc:	00ffffb4 	movhi	r3,65534
 10006e0:	18cac604 	addi	r3,r3,11032
 10006e4:	1f07883a 	add	r3,r3,fp
 10006e8:	19000017 	ldw	r4,0(r3)
 10006ec:	10009400 	call	1000940 <__extendsfdf2>
 10006f0:	100d883a 	mov	r6,r2
 10006f4:	180f883a 	mov	r7,r3
 10006f8:	01004074 	movhi	r4,257
 10006fc:	2136aa04 	addi	r4,r4,-9560
 1000700:	300b883a 	mov	r5,r6
 1000704:	380d883a 	mov	r6,r7
 1000708:	10010800 	call	1001080 <printf>
	  return 0;
 100070c:	0005883a 	mov	r2,zero
}
 1000710:	e037883a 	mov	sp,fp
 1000714:	dfc00517 	ldw	ra,20(sp)
 1000718:	df000417 	ldw	fp,16(sp)
 100071c:	dcc00317 	ldw	r19,12(sp)
 1000720:	dc800217 	ldw	r18,8(sp)
 1000724:	dc400117 	ldw	r17,4(sp)
 1000728:	dc000017 	ldw	r16,0(sp)
 100072c:	dec00604 	addi	sp,sp,24
 1000730:	f800283a 	ret

01000734 <__divsf3>:
 1000734:	defff304 	addi	sp,sp,-52
 1000738:	dc400b15 	stw	r17,44(sp)
 100073c:	dc400204 	addi	r17,sp,8
 1000740:	dc000a15 	stw	r16,40(sp)
 1000744:	d9000015 	stw	r4,0(sp)
 1000748:	d9400115 	stw	r5,4(sp)
 100074c:	d809883a 	mov	r4,sp
 1000750:	880b883a 	mov	r5,r17
 1000754:	dc000604 	addi	r16,sp,24
 1000758:	dfc00c15 	stw	ra,48(sp)
 100075c:	1000ca40 	call	1000ca4 <__unpack_f>
 1000760:	d9000104 	addi	r4,sp,4
 1000764:	800b883a 	mov	r5,r16
 1000768:	1000ca40 	call	1000ca4 <__unpack_f>
 100076c:	d9000217 	ldw	r4,8(sp)
 1000770:	00800044 	movi	r2,1
 1000774:	01800104 	movi	r6,4
 1000778:	11000a2e 	bgeu	r2,r4,10007a4 <__divsf3+0x70>
 100077c:	d9400617 	ldw	r5,24(sp)
 1000780:	1140432e 	bgeu	r2,r5,1000890 <__divsf3+0x15c>
 1000784:	d8800317 	ldw	r2,12(sp)
 1000788:	d8c00717 	ldw	r3,28(sp)
 100078c:	10c4f03a 	xor	r2,r2,r3
 1000790:	d8800315 	stw	r2,12(sp)
 1000794:	21800226 	beq	r4,r6,10007a0 <__divsf3+0x6c>
 1000798:	00800084 	movi	r2,2
 100079c:	2080101e 	bne	r4,r2,10007e0 <__divsf3+0xac>
 10007a0:	29000726 	beq	r5,r4,10007c0 <__divsf3+0x8c>
 10007a4:	8809883a 	mov	r4,r17
 10007a8:	1000b440 	call	1000b44 <__pack_f>
 10007ac:	dfc00c17 	ldw	ra,48(sp)
 10007b0:	dc400b17 	ldw	r17,44(sp)
 10007b4:	dc000a17 	ldw	r16,40(sp)
 10007b8:	dec00d04 	addi	sp,sp,52
 10007bc:	f800283a 	ret
 10007c0:	01004074 	movhi	r4,257
 10007c4:	2136b004 	addi	r4,r4,-9536
 10007c8:	1000b440 	call	1000b44 <__pack_f>
 10007cc:	dfc00c17 	ldw	ra,48(sp)
 10007d0:	dc400b17 	ldw	r17,44(sp)
 10007d4:	dc000a17 	ldw	r16,40(sp)
 10007d8:	dec00d04 	addi	sp,sp,52
 10007dc:	f800283a 	ret
 10007e0:	29802d26 	beq	r5,r6,1000898 <__divsf3+0x164>
 10007e4:	28801a26 	beq	r5,r2,1000850 <__divsf3+0x11c>
 10007e8:	d8c00417 	ldw	r3,16(sp)
 10007ec:	d8800817 	ldw	r2,32(sp)
 10007f0:	d9000517 	ldw	r4,20(sp)
 10007f4:	d9800917 	ldw	r6,36(sp)
 10007f8:	1885c83a 	sub	r2,r3,r2
 10007fc:	d8800415 	stw	r2,16(sp)
 1000800:	2180032e 	bgeu	r4,r6,1000810 <__divsf3+0xdc>
 1000804:	10bfffc4 	addi	r2,r2,-1
 1000808:	d8800415 	stw	r2,16(sp)
 100080c:	2109883a 	add	r4,r4,r4
 1000810:	01500034 	movhi	r5,16384
 1000814:	0007883a 	mov	r3,zero
 1000818:	0005883a 	mov	r2,zero
 100081c:	01c007c4 	movi	r7,31
 1000820:	10800044 	addi	r2,r2,1
 1000824:	21800236 	bltu	r4,r6,1000830 <__divsf3+0xfc>
 1000828:	1946b03a 	or	r3,r3,r5
 100082c:	2189c83a 	sub	r4,r4,r6
 1000830:	280ad07a 	srli	r5,r5,1
 1000834:	2109883a 	add	r4,r4,r4
 1000838:	11fff91e 	bne	r2,r7,1000820 <__divsf3+0xec>
 100083c:	19401fcc 	andi	r5,r3,127
 1000840:	00801004 	movi	r2,64
 1000844:	28800a26 	beq	r5,r2,1000870 <__divsf3+0x13c>
 1000848:	d8c00515 	stw	r3,20(sp)
 100084c:	003fd506 	br	10007a4 <__divsf3+0x70>
 1000850:	8809883a 	mov	r4,r17
 1000854:	d9800215 	stw	r6,8(sp)
 1000858:	1000b440 	call	1000b44 <__pack_f>
 100085c:	dfc00c17 	ldw	ra,48(sp)
 1000860:	dc400b17 	ldw	r17,44(sp)
 1000864:	dc000a17 	ldw	r16,40(sp)
 1000868:	dec00d04 	addi	sp,sp,52
 100086c:	f800283a 	ret
 1000870:	1880200c 	andi	r2,r3,128
 1000874:	103ff41e 	bne	r2,zero,1000848 <__divsf3+0x114>
 1000878:	203ff326 	beq	r4,zero,1000848 <__divsf3+0x114>
 100087c:	1947883a 	add	r3,r3,r5
 1000880:	00bfe004 	movi	r2,-128
 1000884:	1886703a 	and	r3,r3,r2
 1000888:	d8c00515 	stw	r3,20(sp)
 100088c:	003fc506 	br	10007a4 <__divsf3+0x70>
 1000890:	8009883a 	mov	r4,r16
 1000894:	003fc406 	br	10007a8 <__divsf3+0x74>
 1000898:	8809883a 	mov	r4,r17
 100089c:	d8000515 	stw	zero,20(sp)
 10008a0:	d8000415 	stw	zero,16(sp)
 10008a4:	003fc006 	br	10007a8 <__divsf3+0x74>

010008a8 <__floatsisf>:
 10008a8:	2006d7fa 	srli	r3,r4,31
 10008ac:	defffa04 	addi	sp,sp,-24
 10008b0:	008000c4 	movi	r2,3
 10008b4:	dfc00515 	stw	ra,20(sp)
 10008b8:	dc000415 	stw	r16,16(sp)
 10008bc:	d8800015 	stw	r2,0(sp)
 10008c0:	d8c00115 	stw	r3,4(sp)
 10008c4:	2000081e 	bne	r4,zero,10008e8 <__floatsisf+0x40>
 10008c8:	00800084 	movi	r2,2
 10008cc:	d8800015 	stw	r2,0(sp)
 10008d0:	d809883a 	mov	r4,sp
 10008d4:	1000b440 	call	1000b44 <__pack_f>
 10008d8:	dfc00517 	ldw	ra,20(sp)
 10008dc:	dc000417 	ldw	r16,16(sp)
 10008e0:	dec00604 	addi	sp,sp,24
 10008e4:	f800283a 	ret
 10008e8:	00800784 	movi	r2,30
 10008ec:	1807003a 	cmpeq	r3,r3,zero
 10008f0:	d8800215 	stw	r2,8(sp)
 10008f4:	18000e1e 	bne	r3,zero,1000930 <__floatsisf+0x88>
 10008f8:	00a00034 	movhi	r2,32768
 10008fc:	20800e26 	beq	r4,r2,1000938 <__floatsisf+0x90>
 1000900:	0121c83a 	sub	r16,zero,r4
 1000904:	8009883a 	mov	r4,r16
 1000908:	dc000315 	stw	r16,12(sp)
 100090c:	1000ac40 	call	1000ac4 <__clzsi2>
 1000910:	117fffc4 	addi	r5,r2,-1
 1000914:	017fee0e 	bge	zero,r5,10008d0 <__floatsisf+0x28>
 1000918:	d8800217 	ldw	r2,8(sp)
 100091c:	8146983a 	sll	r3,r16,r5
 1000920:	1145c83a 	sub	r2,r2,r5
 1000924:	d8c00315 	stw	r3,12(sp)
 1000928:	d8800215 	stw	r2,8(sp)
 100092c:	003fe806 	br	10008d0 <__floatsisf+0x28>
 1000930:	2021883a 	mov	r16,r4
 1000934:	003ff306 	br	1000904 <__floatsisf+0x5c>
 1000938:	00b3c034 	movhi	r2,52992
 100093c:	003fe606 	br	10008d8 <__floatsisf+0x30>

01000940 <__extendsfdf2>:
 1000940:	defff904 	addi	sp,sp,-28
 1000944:	d9000115 	stw	r4,4(sp)
 1000948:	d9400204 	addi	r5,sp,8
 100094c:	d9000104 	addi	r4,sp,4
 1000950:	dfc00615 	stw	ra,24(sp)
 1000954:	1000ca40 	call	1000ca4 <__unpack_f>
 1000958:	d9c00517 	ldw	r7,20(sp)
 100095c:	0011883a 	mov	r8,zero
 1000960:	400697ba 	slli	r3,r8,30
 1000964:	3812d0ba 	srli	r9,r7,2
 1000968:	380497ba 	slli	r2,r7,30
 100096c:	d9000217 	ldw	r4,8(sp)
 1000970:	d9400317 	ldw	r5,12(sp)
 1000974:	d9800417 	ldw	r6,16(sp)
 1000978:	48c6b03a 	or	r3,r9,r3
 100097c:	100f883a 	mov	r7,r2
 1000980:	d8c00015 	stw	r3,0(sp)
 1000984:	1000a540 	call	1000a54 <__make_dp>
 1000988:	dfc00617 	ldw	ra,24(sp)
 100098c:	dec00704 	addi	sp,sp,28
 1000990:	f800283a 	ret

01000994 <__floatunsisf>:
 1000994:	defff904 	addi	sp,sp,-28
 1000998:	dc400515 	stw	r17,20(sp)
 100099c:	dc000415 	stw	r16,16(sp)
 10009a0:	dfc00615 	stw	ra,24(sp)
 10009a4:	04400784 	movi	r17,30
 10009a8:	2021883a 	mov	r16,r4
 10009ac:	d8000115 	stw	zero,4(sp)
 10009b0:	2000091e 	bne	r4,zero,10009d8 <__floatunsisf+0x44>
 10009b4:	00800084 	movi	r2,2
 10009b8:	d8800015 	stw	r2,0(sp)
 10009bc:	d809883a 	mov	r4,sp
 10009c0:	1000b440 	call	1000b44 <__pack_f>
 10009c4:	dfc00617 	ldw	ra,24(sp)
 10009c8:	dc400517 	ldw	r17,20(sp)
 10009cc:	dc000417 	ldw	r16,16(sp)
 10009d0:	dec00704 	addi	sp,sp,28
 10009d4:	f800283a 	ret
 10009d8:	008000c4 	movi	r2,3
 10009dc:	d9000315 	stw	r4,12(sp)
 10009e0:	d8800015 	stw	r2,0(sp)
 10009e4:	dc400215 	stw	r17,8(sp)
 10009e8:	1000ac40 	call	1000ac4 <__clzsi2>
 10009ec:	117fffc4 	addi	r5,r2,-1
 10009f0:	0147c83a 	sub	r3,zero,r5
 10009f4:	00800044 	movi	r2,1
 10009f8:	10c4983a 	sll	r2,r2,r3
 10009fc:	80c6d83a 	srl	r3,r16,r3
 1000a00:	8949c83a 	sub	r4,r17,r5
 1000a04:	10bfffc4 	addi	r2,r2,-1
 1000a08:	8084703a 	and	r2,r16,r2
 1000a0c:	1004c03a 	cmpne	r2,r2,zero
 1000a10:	1886b03a 	or	r3,r3,r2
 1000a14:	28000c16 	blt	r5,zero,1000a48 <__floatunsisf+0xb4>
 1000a18:	8144983a 	sll	r2,r16,r5
 1000a1c:	8947c83a 	sub	r3,r17,r5
 1000a20:	283fe626 	beq	r5,zero,10009bc <__floatunsisf+0x28>
 1000a24:	d809883a 	mov	r4,sp
 1000a28:	d8800315 	stw	r2,12(sp)
 1000a2c:	d8c00215 	stw	r3,8(sp)
 1000a30:	1000b440 	call	1000b44 <__pack_f>
 1000a34:	dfc00617 	ldw	ra,24(sp)
 1000a38:	dc400517 	ldw	r17,20(sp)
 1000a3c:	dc000417 	ldw	r16,16(sp)
 1000a40:	dec00704 	addi	sp,sp,28
 1000a44:	f800283a 	ret
 1000a48:	d8c00315 	stw	r3,12(sp)
 1000a4c:	d9000215 	stw	r4,8(sp)
 1000a50:	003fda06 	br	10009bc <__floatunsisf+0x28>

01000a54 <__make_dp>:
 1000a54:	defff904 	addi	sp,sp,-28
 1000a58:	d8c00717 	ldw	r3,28(sp)
 1000a5c:	d9000015 	stw	r4,0(sp)
 1000a60:	d809883a 	mov	r4,sp
 1000a64:	dfc00515 	stw	ra,20(sp)
 1000a68:	d9c00615 	stw	r7,24(sp)
 1000a6c:	d9400115 	stw	r5,4(sp)
 1000a70:	d9800215 	stw	r6,8(sp)
 1000a74:	d8c00415 	stw	r3,16(sp)
 1000a78:	d9c00315 	stw	r7,12(sp)
 1000a7c:	1000d6c0 	call	1000d6c <__pack_d>
 1000a80:	dfc00517 	ldw	ra,20(sp)
 1000a84:	dec00704 	addi	sp,sp,28
 1000a88:	f800283a 	ret

01000a8c <__mulsi3>:
 1000a8c:	20000a26 	beq	r4,zero,1000ab8 <__mulsi3+0x2c>
 1000a90:	0007883a 	mov	r3,zero
 1000a94:	2080004c 	andi	r2,r4,1
 1000a98:	1005003a 	cmpeq	r2,r2,zero
 1000a9c:	2008d07a 	srli	r4,r4,1
 1000aa0:	1000011e 	bne	r2,zero,1000aa8 <__mulsi3+0x1c>
 1000aa4:	1947883a 	add	r3,r3,r5
 1000aa8:	294b883a 	add	r5,r5,r5
 1000aac:	203ff91e 	bne	r4,zero,1000a94 <__mulsi3+0x8>
 1000ab0:	1805883a 	mov	r2,r3
 1000ab4:	f800283a 	ret
 1000ab8:	0007883a 	mov	r3,zero
 1000abc:	1805883a 	mov	r2,r3
 1000ac0:	f800283a 	ret

01000ac4 <__clzsi2>:
 1000ac4:	00bfffd4 	movui	r2,65535
 1000ac8:	11000e36 	bltu	r2,r4,1000b04 <__clzsi2+0x40>
 1000acc:	00803fc4 	movi	r2,255
 1000ad0:	01400204 	movi	r5,8
 1000ad4:	0007883a 	mov	r3,zero
 1000ad8:	11001036 	bltu	r2,r4,1000b1c <__clzsi2+0x58>
 1000adc:	000b883a 	mov	r5,zero
 1000ae0:	20c6d83a 	srl	r3,r4,r3
 1000ae4:	00804074 	movhi	r2,257
 1000ae8:	10b6b404 	addi	r2,r2,-9520
 1000aec:	1887883a 	add	r3,r3,r2
 1000af0:	18800003 	ldbu	r2,0(r3)
 1000af4:	00c00804 	movi	r3,32
 1000af8:	2885883a 	add	r2,r5,r2
 1000afc:	1885c83a 	sub	r2,r3,r2
 1000b00:	f800283a 	ret
 1000b04:	01400404 	movi	r5,16
 1000b08:	00804034 	movhi	r2,256
 1000b0c:	10bfffc4 	addi	r2,r2,-1
 1000b10:	2807883a 	mov	r3,r5
 1000b14:	113ff22e 	bgeu	r2,r4,1000ae0 <__clzsi2+0x1c>
 1000b18:	01400604 	movi	r5,24
 1000b1c:	2807883a 	mov	r3,r5
 1000b20:	20c6d83a 	srl	r3,r4,r3
 1000b24:	00804074 	movhi	r2,257
 1000b28:	10b6b404 	addi	r2,r2,-9520
 1000b2c:	1887883a 	add	r3,r3,r2
 1000b30:	18800003 	ldbu	r2,0(r3)
 1000b34:	00c00804 	movi	r3,32
 1000b38:	2885883a 	add	r2,r5,r2
 1000b3c:	1885c83a 	sub	r2,r3,r2
 1000b40:	f800283a 	ret

01000b44 <__pack_f>:
 1000b44:	20c00017 	ldw	r3,0(r4)
 1000b48:	01c00044 	movi	r7,1
 1000b4c:	21800317 	ldw	r6,12(r4)
 1000b50:	21400117 	ldw	r5,4(r4)
 1000b54:	38c02d2e 	bgeu	r7,r3,1000c0c <__pack_f+0xc8>
 1000b58:	00800104 	movi	r2,4
 1000b5c:	18802826 	beq	r3,r2,1000c00 <__pack_f+0xbc>
 1000b60:	00800084 	movi	r2,2
 1000b64:	18800126 	beq	r3,r2,1000b6c <__pack_f+0x28>
 1000b68:	3000101e 	bne	r6,zero,1000bac <__pack_f+0x68>
 1000b6c:	000d883a 	mov	r6,zero
 1000b70:	0007883a 	mov	r3,zero
 1000b74:	19003fcc 	andi	r4,r3,255
 1000b78:	200895fa 	slli	r4,r4,23
 1000b7c:	00c02034 	movhi	r3,128
 1000b80:	18ffffc4 	addi	r3,r3,-1
 1000b84:	30c6703a 	and	r3,r6,r3
 1000b88:	10a0002c 	andhi	r2,r2,32768
 1000b8c:	10c4b03a 	or	r2,r2,r3
 1000b90:	280a97fa 	slli	r5,r5,31
 1000b94:	1104b03a 	or	r2,r2,r4
 1000b98:	00e00034 	movhi	r3,32768
 1000b9c:	18ffffc4 	addi	r3,r3,-1
 1000ba0:	10c4703a 	and	r2,r2,r3
 1000ba4:	1144b03a 	or	r2,r2,r5
 1000ba8:	f800283a 	ret
 1000bac:	21000217 	ldw	r4,8(r4)
 1000bb0:	00bfe084 	movi	r2,-126
 1000bb4:	20801b16 	blt	r4,r2,1000c24 <__pack_f+0xe0>
 1000bb8:	00801fc4 	movi	r2,127
 1000bbc:	11001016 	blt	r2,r4,1000c00 <__pack_f+0xbc>
 1000bc0:	308e703a 	and	r7,r6,r2
 1000bc4:	2087883a 	add	r3,r4,r2
 1000bc8:	00801004 	movi	r2,64
 1000bcc:	38800526 	beq	r7,r2,1000be4 <__pack_f+0xa0>
 1000bd0:	31800fc4 	addi	r6,r6,63
 1000bd4:	30000716 	blt	r6,zero,1000bf4 <__pack_f+0xb0>
 1000bd8:	300490ba 	slli	r2,r6,2
 1000bdc:	100cd27a 	srli	r6,r2,9
 1000be0:	003fe406 	br	1000b74 <__pack_f+0x30>
 1000be4:	3080200c 	andi	r2,r6,128
 1000be8:	103ffa26 	beq	r2,zero,1000bd4 <__pack_f+0x90>
 1000bec:	31cd883a 	add	r6,r6,r7
 1000bf0:	003ff806 	br	1000bd4 <__pack_f+0x90>
 1000bf4:	300cd07a 	srli	r6,r6,1
 1000bf8:	18c00044 	addi	r3,r3,1
 1000bfc:	003ff606 	br	1000bd8 <__pack_f+0x94>
 1000c00:	000d883a 	mov	r6,zero
 1000c04:	00ffffc4 	movi	r3,-1
 1000c08:	003fda06 	br	1000b74 <__pack_f+0x30>
 1000c0c:	31800434 	orhi	r6,r6,16
 1000c10:	00802034 	movhi	r2,128
 1000c14:	10bfffc4 	addi	r2,r2,-1
 1000c18:	308c703a 	and	r6,r6,r2
 1000c1c:	00ffffc4 	movi	r3,-1
 1000c20:	003fd406 	br	1000b74 <__pack_f+0x30>
 1000c24:	1109c83a 	sub	r4,r2,r4
 1000c28:	00800644 	movi	r2,25
 1000c2c:	11001216 	blt	r2,r4,1000c78 <__pack_f+0x134>
 1000c30:	3904983a 	sll	r2,r7,r4
 1000c34:	3106d83a 	srl	r3,r6,r4
 1000c38:	10bfffc4 	addi	r2,r2,-1
 1000c3c:	3084703a 	and	r2,r6,r2
 1000c40:	1004c03a 	cmpne	r2,r2,zero
 1000c44:	1886b03a 	or	r3,r3,r2
 1000c48:	19001fcc 	andi	r4,r3,127
 1000c4c:	00801004 	movi	r2,64
 1000c50:	20800c26 	beq	r4,r2,1000c84 <__pack_f+0x140>
 1000c54:	18c00fc4 	addi	r3,r3,63
 1000c58:	00900034 	movhi	r2,16384
 1000c5c:	10bfffc4 	addi	r2,r2,-1
 1000c60:	180cd1fa 	srli	r6,r3,7
 1000c64:	10c7803a 	cmpltu	r3,r2,r3
 1000c68:	00802034 	movhi	r2,128
 1000c6c:	10bfffc4 	addi	r2,r2,-1
 1000c70:	308c703a 	and	r6,r6,r2
 1000c74:	003fbf06 	br	1000b74 <__pack_f+0x30>
 1000c78:	0007883a 	mov	r3,zero
 1000c7c:	000d883a 	mov	r6,zero
 1000c80:	003ff906 	br	1000c68 <__pack_f+0x124>
 1000c84:	1880200c 	andi	r2,r3,128
 1000c88:	10000126 	beq	r2,zero,1000c90 <__pack_f+0x14c>
 1000c8c:	1907883a 	add	r3,r3,r4
 1000c90:	180cd1fa 	srli	r6,r3,7
 1000c94:	00900034 	movhi	r2,16384
 1000c98:	10bfffc4 	addi	r2,r2,-1
 1000c9c:	10c7803a 	cmpltu	r3,r2,r3
 1000ca0:	003ff106 	br	1000c68 <__pack_f+0x124>

01000ca4 <__unpack_f>:
 1000ca4:	21800017 	ldw	r6,0(r4)
 1000ca8:	00c02034 	movhi	r3,128
 1000cac:	18ffffc4 	addi	r3,r3,-1
 1000cb0:	3004d5fa 	srli	r2,r6,23
 1000cb4:	3008d7fa 	srli	r4,r6,31
 1000cb8:	30ce703a 	and	r7,r6,r3
 1000cbc:	10c03fcc 	andi	r3,r2,255
 1000cc0:	29000115 	stw	r4,4(r5)
 1000cc4:	1800131e 	bne	r3,zero,1000d14 <__unpack_f+0x70>
 1000cc8:	38000f26 	beq	r7,zero,1000d08 <__unpack_f+0x64>
 1000ccc:	380691fa 	slli	r3,r7,7
 1000cd0:	01bfe084 	movi	r6,-126
 1000cd4:	008000c4 	movi	r2,3
 1000cd8:	01100034 	movhi	r4,16384
 1000cdc:	213fffc4 	addi	r4,r4,-1
 1000ce0:	28800015 	stw	r2,0(r5)
 1000ce4:	29800215 	stw	r6,8(r5)
 1000ce8:	20c00536 	bltu	r4,r3,1000d00 <__unpack_f+0x5c>
 1000cec:	3005883a 	mov	r2,r6
 1000cf0:	18c7883a 	add	r3,r3,r3
 1000cf4:	10bfffc4 	addi	r2,r2,-1
 1000cf8:	20fffd2e 	bgeu	r4,r3,1000cf0 <__unpack_f+0x4c>
 1000cfc:	28800215 	stw	r2,8(r5)
 1000d00:	28c00315 	stw	r3,12(r5)
 1000d04:	f800283a 	ret
 1000d08:	00800084 	movi	r2,2
 1000d0c:	28800015 	stw	r2,0(r5)
 1000d10:	f800283a 	ret
 1000d14:	00803fc4 	movi	r2,255
 1000d18:	18800826 	beq	r3,r2,1000d3c <__unpack_f+0x98>
 1000d1c:	380491fa 	slli	r2,r7,7
 1000d20:	18ffe044 	addi	r3,r3,-127
 1000d24:	28c00215 	stw	r3,8(r5)
 1000d28:	10900034 	orhi	r2,r2,16384
 1000d2c:	28800315 	stw	r2,12(r5)
 1000d30:	008000c4 	movi	r2,3
 1000d34:	28800015 	stw	r2,0(r5)
 1000d38:	f800283a 	ret
 1000d3c:	3800031e 	bne	r7,zero,1000d4c <__unpack_f+0xa8>
 1000d40:	00800104 	movi	r2,4
 1000d44:	28800015 	stw	r2,0(r5)
 1000d48:	f800283a 	ret
 1000d4c:	3080042c 	andhi	r2,r6,16
 1000d50:	10000426 	beq	r2,zero,1000d64 <__unpack_f+0xc0>
 1000d54:	00800044 	movi	r2,1
 1000d58:	28800015 	stw	r2,0(r5)
 1000d5c:	29c00315 	stw	r7,12(r5)
 1000d60:	f800283a 	ret
 1000d64:	28000015 	stw	zero,0(r5)
 1000d68:	003ffc06 	br	1000d5c <__unpack_f+0xb8>

01000d6c <__pack_d>:
 1000d6c:	20c00017 	ldw	r3,0(r4)
 1000d70:	defffd04 	addi	sp,sp,-12
 1000d74:	dc000015 	stw	r16,0(sp)
 1000d78:	dc800215 	stw	r18,8(sp)
 1000d7c:	dc400115 	stw	r17,4(sp)
 1000d80:	00800044 	movi	r2,1
 1000d84:	22000317 	ldw	r8,12(r4)
 1000d88:	001f883a 	mov	r15,zero
 1000d8c:	22400417 	ldw	r9,16(r4)
 1000d90:	24000117 	ldw	r16,4(r4)
 1000d94:	10c0552e 	bgeu	r2,r3,1000eec <__pack_d+0x180>
 1000d98:	00800104 	movi	r2,4
 1000d9c:	18804f26 	beq	r3,r2,1000edc <__pack_d+0x170>
 1000da0:	00800084 	movi	r2,2
 1000da4:	18800226 	beq	r3,r2,1000db0 <__pack_d+0x44>
 1000da8:	4244b03a 	or	r2,r8,r9
 1000dac:	10001a1e 	bne	r2,zero,1000e18 <__pack_d+0xac>
 1000db0:	000d883a 	mov	r6,zero
 1000db4:	000f883a 	mov	r7,zero
 1000db8:	0011883a 	mov	r8,zero
 1000dbc:	00800434 	movhi	r2,16
 1000dc0:	10bfffc4 	addi	r2,r2,-1
 1000dc4:	301d883a 	mov	r14,r6
 1000dc8:	3884703a 	and	r2,r7,r2
 1000dcc:	400a953a 	slli	r5,r8,20
 1000dd0:	79bffc2c 	andhi	r6,r15,65520
 1000dd4:	308cb03a 	or	r6,r6,r2
 1000dd8:	00e00434 	movhi	r3,32784
 1000ddc:	18ffffc4 	addi	r3,r3,-1
 1000de0:	800497fa 	slli	r2,r16,31
 1000de4:	30c6703a 	and	r3,r6,r3
 1000de8:	1946b03a 	or	r3,r3,r5
 1000dec:	01600034 	movhi	r5,32768
 1000df0:	297fffc4 	addi	r5,r5,-1
 1000df4:	194a703a 	and	r5,r3,r5
 1000df8:	288ab03a 	or	r5,r5,r2
 1000dfc:	2807883a 	mov	r3,r5
 1000e00:	7005883a 	mov	r2,r14
 1000e04:	dc800217 	ldw	r18,8(sp)
 1000e08:	dc400117 	ldw	r17,4(sp)
 1000e0c:	dc000017 	ldw	r16,0(sp)
 1000e10:	dec00304 	addi	sp,sp,12
 1000e14:	f800283a 	ret
 1000e18:	21000217 	ldw	r4,8(r4)
 1000e1c:	00bf0084 	movi	r2,-1022
 1000e20:	20803f16 	blt	r4,r2,1000f20 <__pack_d+0x1b4>
 1000e24:	0080ffc4 	movi	r2,1023
 1000e28:	11002c16 	blt	r2,r4,1000edc <__pack_d+0x170>
 1000e2c:	00803fc4 	movi	r2,255
 1000e30:	408c703a 	and	r6,r8,r2
 1000e34:	00802004 	movi	r2,128
 1000e38:	0007883a 	mov	r3,zero
 1000e3c:	000f883a 	mov	r7,zero
 1000e40:	2280ffc4 	addi	r10,r4,1023
 1000e44:	30801e26 	beq	r6,r2,1000ec0 <__pack_d+0x154>
 1000e48:	00801fc4 	movi	r2,127
 1000e4c:	4089883a 	add	r4,r8,r2
 1000e50:	220d803a 	cmpltu	r6,r4,r8
 1000e54:	324d883a 	add	r6,r6,r9
 1000e58:	2011883a 	mov	r8,r4
 1000e5c:	3013883a 	mov	r9,r6
 1000e60:	00880034 	movhi	r2,8192
 1000e64:	10bfffc4 	addi	r2,r2,-1
 1000e68:	12400d36 	bltu	r2,r9,1000ea0 <__pack_d+0x134>
 1000e6c:	4804963a 	slli	r2,r9,24
 1000e70:	400cd23a 	srli	r6,r8,8
 1000e74:	480ed23a 	srli	r7,r9,8
 1000e78:	013fffc4 	movi	r4,-1
 1000e7c:	118cb03a 	or	r6,r2,r6
 1000e80:	01400434 	movhi	r5,16
 1000e84:	297fffc4 	addi	r5,r5,-1
 1000e88:	3104703a 	and	r2,r6,r4
 1000e8c:	3946703a 	and	r3,r7,r5
 1000e90:	5201ffcc 	andi	r8,r10,2047
 1000e94:	100d883a 	mov	r6,r2
 1000e98:	180f883a 	mov	r7,r3
 1000e9c:	003fc706 	br	1000dbc <__pack_d+0x50>
 1000ea0:	480897fa 	slli	r4,r9,31
 1000ea4:	4004d07a 	srli	r2,r8,1
 1000ea8:	4806d07a 	srli	r3,r9,1
 1000eac:	52800044 	addi	r10,r10,1
 1000eb0:	2084b03a 	or	r2,r4,r2
 1000eb4:	1011883a 	mov	r8,r2
 1000eb8:	1813883a 	mov	r9,r3
 1000ebc:	003feb06 	br	1000e6c <__pack_d+0x100>
 1000ec0:	383fe11e 	bne	r7,zero,1000e48 <__pack_d+0xdc>
 1000ec4:	01004004 	movi	r4,256
 1000ec8:	4104703a 	and	r2,r8,r4
 1000ecc:	10c4b03a 	or	r2,r2,r3
 1000ed0:	103fe326 	beq	r2,zero,1000e60 <__pack_d+0xf4>
 1000ed4:	3005883a 	mov	r2,r6
 1000ed8:	003fdc06 	br	1000e4c <__pack_d+0xe0>
 1000edc:	000d883a 	mov	r6,zero
 1000ee0:	000f883a 	mov	r7,zero
 1000ee4:	0201ffc4 	movi	r8,2047
 1000ee8:	003fb406 	br	1000dbc <__pack_d+0x50>
 1000eec:	0005883a 	mov	r2,zero
 1000ef0:	00c00234 	movhi	r3,8
 1000ef4:	408cb03a 	or	r6,r8,r2
 1000ef8:	48ceb03a 	or	r7,r9,r3
 1000efc:	013fffc4 	movi	r4,-1
 1000f00:	01400434 	movhi	r5,16
 1000f04:	297fffc4 	addi	r5,r5,-1
 1000f08:	3104703a 	and	r2,r6,r4
 1000f0c:	3946703a 	and	r3,r7,r5
 1000f10:	100d883a 	mov	r6,r2
 1000f14:	180f883a 	mov	r7,r3
 1000f18:	0201ffc4 	movi	r8,2047
 1000f1c:	003fa706 	br	1000dbc <__pack_d+0x50>
 1000f20:	1109c83a 	sub	r4,r2,r4
 1000f24:	00800e04 	movi	r2,56
 1000f28:	11004316 	blt	r2,r4,1001038 <__pack_d+0x2cc>
 1000f2c:	21fff804 	addi	r7,r4,-32
 1000f30:	38004516 	blt	r7,zero,1001048 <__pack_d+0x2dc>
 1000f34:	49d8d83a 	srl	r12,r9,r7
 1000f38:	001b883a 	mov	r13,zero
 1000f3c:	0023883a 	mov	r17,zero
 1000f40:	01400044 	movi	r5,1
 1000f44:	0025883a 	mov	r18,zero
 1000f48:	38004716 	blt	r7,zero,1001068 <__pack_d+0x2fc>
 1000f4c:	29d6983a 	sll	r11,r5,r7
 1000f50:	0015883a 	mov	r10,zero
 1000f54:	00bfffc4 	movi	r2,-1
 1000f58:	5089883a 	add	r4,r10,r2
 1000f5c:	588b883a 	add	r5,r11,r2
 1000f60:	228d803a 	cmpltu	r6,r4,r10
 1000f64:	314b883a 	add	r5,r6,r5
 1000f68:	4104703a 	and	r2,r8,r4
 1000f6c:	4946703a 	and	r3,r9,r5
 1000f70:	10c4b03a 	or	r2,r2,r3
 1000f74:	10000226 	beq	r2,zero,1000f80 <__pack_d+0x214>
 1000f78:	04400044 	movi	r17,1
 1000f7c:	0025883a 	mov	r18,zero
 1000f80:	00803fc4 	movi	r2,255
 1000f84:	644eb03a 	or	r7,r12,r17
 1000f88:	3892703a 	and	r9,r7,r2
 1000f8c:	00802004 	movi	r2,128
 1000f90:	6c90b03a 	or	r8,r13,r18
 1000f94:	0015883a 	mov	r10,zero
 1000f98:	48801626 	beq	r9,r2,1000ff4 <__pack_d+0x288>
 1000f9c:	01001fc4 	movi	r4,127
 1000fa0:	3905883a 	add	r2,r7,r4
 1000fa4:	11cd803a 	cmpltu	r6,r2,r7
 1000fa8:	320d883a 	add	r6,r6,r8
 1000fac:	100f883a 	mov	r7,r2
 1000fb0:	00840034 	movhi	r2,4096
 1000fb4:	10bfffc4 	addi	r2,r2,-1
 1000fb8:	3011883a 	mov	r8,r6
 1000fbc:	0007883a 	mov	r3,zero
 1000fc0:	11801b36 	bltu	r2,r6,1001030 <__pack_d+0x2c4>
 1000fc4:	4004963a 	slli	r2,r8,24
 1000fc8:	3808d23a 	srli	r4,r7,8
 1000fcc:	400ad23a 	srli	r5,r8,8
 1000fd0:	1813883a 	mov	r9,r3
 1000fd4:	1108b03a 	or	r4,r2,r4
 1000fd8:	00bfffc4 	movi	r2,-1
 1000fdc:	00c00434 	movhi	r3,16
 1000fe0:	18ffffc4 	addi	r3,r3,-1
 1000fe4:	208c703a 	and	r6,r4,r2
 1000fe8:	28ce703a 	and	r7,r5,r3
 1000fec:	4a01ffcc 	andi	r8,r9,2047
 1000ff0:	003f7206 	br	1000dbc <__pack_d+0x50>
 1000ff4:	503fe91e 	bne	r10,zero,1000f9c <__pack_d+0x230>
 1000ff8:	01004004 	movi	r4,256
 1000ffc:	3904703a 	and	r2,r7,r4
 1001000:	0007883a 	mov	r3,zero
 1001004:	10c4b03a 	or	r2,r2,r3
 1001008:	10000626 	beq	r2,zero,1001024 <__pack_d+0x2b8>
 100100c:	3a45883a 	add	r2,r7,r9
 1001010:	11cd803a 	cmpltu	r6,r2,r7
 1001014:	320d883a 	add	r6,r6,r8
 1001018:	100f883a 	mov	r7,r2
 100101c:	3011883a 	mov	r8,r6
 1001020:	0007883a 	mov	r3,zero
 1001024:	00840034 	movhi	r2,4096
 1001028:	10bfffc4 	addi	r2,r2,-1
 100102c:	123fe52e 	bgeu	r2,r8,1000fc4 <__pack_d+0x258>
 1001030:	00c00044 	movi	r3,1
 1001034:	003fe306 	br	1000fc4 <__pack_d+0x258>
 1001038:	0009883a 	mov	r4,zero
 100103c:	0013883a 	mov	r9,zero
 1001040:	000b883a 	mov	r5,zero
 1001044:	003fe406 	br	1000fd8 <__pack_d+0x26c>
 1001048:	4a47883a 	add	r3,r9,r9
 100104c:	008007c4 	movi	r2,31
 1001050:	1105c83a 	sub	r2,r2,r4
 1001054:	1886983a 	sll	r3,r3,r2
 1001058:	4118d83a 	srl	r12,r8,r4
 100105c:	491ad83a 	srl	r13,r9,r4
 1001060:	1b18b03a 	or	r12,r3,r12
 1001064:	003fb506 	br	1000f3c <__pack_d+0x1d0>
 1001068:	2806d07a 	srli	r3,r5,1
 100106c:	008007c4 	movi	r2,31
 1001070:	1105c83a 	sub	r2,r2,r4
 1001074:	1896d83a 	srl	r11,r3,r2
 1001078:	2914983a 	sll	r10,r5,r4
 100107c:	003fb506 	br	1000f54 <__pack_d+0x1e8>

01001080 <printf>:
 1001080:	defffb04 	addi	sp,sp,-20
 1001084:	dfc00115 	stw	ra,4(sp)
 1001088:	d9400215 	stw	r5,8(sp)
 100108c:	d9800315 	stw	r6,12(sp)
 1001090:	d9c00415 	stw	r7,16(sp)
 1001094:	00804074 	movhi	r2,257
 1001098:	10be1c04 	addi	r2,r2,-1936
 100109c:	10c00017 	ldw	r3,0(r2)
 10010a0:	200b883a 	mov	r5,r4
 10010a4:	d8800204 	addi	r2,sp,8
 10010a8:	19000217 	ldw	r4,8(r3)
 10010ac:	100d883a 	mov	r6,r2
 10010b0:	d8800015 	stw	r2,0(sp)
 10010b4:	10031040 	call	1003104 <__vfprintf_internal>
 10010b8:	dfc00117 	ldw	ra,4(sp)
 10010bc:	dec00504 	addi	sp,sp,20
 10010c0:	f800283a 	ret

010010c4 <_printf_r>:
 10010c4:	defffc04 	addi	sp,sp,-16
 10010c8:	dfc00115 	stw	ra,4(sp)
 10010cc:	d9800215 	stw	r6,8(sp)
 10010d0:	d9c00315 	stw	r7,12(sp)
 10010d4:	280d883a 	mov	r6,r5
 10010d8:	21400217 	ldw	r5,8(r4)
 10010dc:	d8c00204 	addi	r3,sp,8
 10010e0:	180f883a 	mov	r7,r3
 10010e4:	d8c00015 	stw	r3,0(sp)
 10010e8:	10012400 	call	1001240 <___vfprintf_internal_r>
 10010ec:	dfc00117 	ldw	ra,4(sp)
 10010f0:	dec00404 	addi	sp,sp,16
 10010f4:	f800283a 	ret

010010f8 <srand>:
 10010f8:	00804074 	movhi	r2,257
 10010fc:	10be1c04 	addi	r2,r2,-1936
 1001100:	11400017 	ldw	r5,0(r2)
 1001104:	0007883a 	mov	r3,zero
 1001108:	28c02a15 	stw	r3,168(r5)
 100110c:	29002915 	stw	r4,164(r5)
 1001110:	f800283a 	ret

01001114 <rand>:
 1001114:	defffe04 	addi	sp,sp,-8
 1001118:	00804074 	movhi	r2,257
 100111c:	10be1c04 	addi	r2,r2,-1936
 1001120:	dc000015 	stw	r16,0(sp)
 1001124:	14000017 	ldw	r16,0(r2)
 1001128:	dfc00115 	stw	ra,4(sp)
 100112c:	00932574 	movhi	r2,19605
 1001130:	109fcb44 	addi	r2,r2,32557
 1001134:	82002917 	ldw	r8,164(r16)
 1001138:	82402a17 	ldw	r9,168(r16)
 100113c:	00d614b4 	movhi	r3,22610
 1001140:	18fd0b44 	addi	r3,r3,-3027
 1001144:	4009883a 	mov	r4,r8
 1001148:	180f883a 	mov	r7,r3
 100114c:	100d883a 	mov	r6,r2
 1001150:	480b883a 	mov	r5,r9
 1001154:	10085680 	call	1008568 <__muldi3>
 1001158:	02000044 	movi	r8,1
 100115c:	1209883a 	add	r4,r2,r8
 1001160:	2095803a 	cmpltu	r10,r4,r2
 1001164:	50d5883a 	add	r10,r10,r3
 1001168:	81002915 	stw	r4,164(r16)
 100116c:	01200034 	movhi	r4,32768
 1001170:	213fffc4 	addi	r4,r4,-1
 1001174:	2284703a 	and	r2,r4,r10
 1001178:	82802a15 	stw	r10,168(r16)
 100117c:	dfc00117 	ldw	ra,4(sp)
 1001180:	dc000017 	ldw	r16,0(sp)
 1001184:	dec00204 	addi	sp,sp,8
 1001188:	f800283a 	ret

0100118c <time>:
 100118c:	defffc04 	addi	sp,sp,-16
 1001190:	00804074 	movhi	r2,257
 1001194:	10be1c04 	addi	r2,r2,-1936
 1001198:	dc000215 	stw	r16,8(sp)
 100119c:	2021883a 	mov	r16,r4
 10011a0:	11000017 	ldw	r4,0(r2)
 10011a4:	d80b883a 	mov	r5,sp
 10011a8:	000d883a 	mov	r6,zero
 10011ac:	dfc00315 	stw	ra,12(sp)
 10011b0:	10059dc0 	call	10059dc <_gettimeofday_r>
 10011b4:	00ffffc4 	movi	r3,-1
 10011b8:	10000416 	blt	r2,zero,10011cc <time+0x40>
 10011bc:	80000826 	beq	r16,zero,10011e0 <time+0x54>
 10011c0:	d8800017 	ldw	r2,0(sp)
 10011c4:	80800015 	stw	r2,0(r16)
 10011c8:	1007883a 	mov	r3,r2
 10011cc:	1805883a 	mov	r2,r3
 10011d0:	dfc00317 	ldw	ra,12(sp)
 10011d4:	dc000217 	ldw	r16,8(sp)
 10011d8:	dec00404 	addi	sp,sp,16
 10011dc:	f800283a 	ret
 10011e0:	d8800017 	ldw	r2,0(sp)
 10011e4:	003ff806 	br	10011c8 <time+0x3c>

010011e8 <__sprint_r>:
 10011e8:	30800217 	ldw	r2,8(r6)
 10011ec:	defffe04 	addi	sp,sp,-8
 10011f0:	dc000015 	stw	r16,0(sp)
 10011f4:	dfc00115 	stw	ra,4(sp)
 10011f8:	3021883a 	mov	r16,r6
 10011fc:	0007883a 	mov	r3,zero
 1001200:	1000061e 	bne	r2,zero,100121c <__sprint_r+0x34>
 1001204:	1805883a 	mov	r2,r3
 1001208:	30000115 	stw	zero,4(r6)
 100120c:	dfc00117 	ldw	ra,4(sp)
 1001210:	dc000017 	ldw	r16,0(sp)
 1001214:	dec00204 	addi	sp,sp,8
 1001218:	f800283a 	ret
 100121c:	10053c00 	call	10053c0 <__sfvwrite_r>
 1001220:	1007883a 	mov	r3,r2
 1001224:	1805883a 	mov	r2,r3
 1001228:	80000115 	stw	zero,4(r16)
 100122c:	80000215 	stw	zero,8(r16)
 1001230:	dfc00117 	ldw	ra,4(sp)
 1001234:	dc000017 	ldw	r16,0(sp)
 1001238:	dec00204 	addi	sp,sp,8
 100123c:	f800283a 	ret

01001240 <___vfprintf_internal_r>:
 1001240:	defea304 	addi	sp,sp,-1396
 1001244:	dd815915 	stw	r22,1380(sp)
 1001248:	dc015315 	stw	r16,1356(sp)
 100124c:	d9c15215 	stw	r7,1352(sp)
 1001250:	dfc15c15 	stw	ra,1392(sp)
 1001254:	df015b15 	stw	fp,1388(sp)
 1001258:	ddc15a15 	stw	r23,1384(sp)
 100125c:	dd415815 	stw	r21,1376(sp)
 1001260:	dd015715 	stw	r20,1372(sp)
 1001264:	dcc15615 	stw	r19,1368(sp)
 1001268:	dc815515 	stw	r18,1364(sp)
 100126c:	dc415415 	stw	r17,1360(sp)
 1001270:	282d883a 	mov	r22,r5
 1001274:	3021883a 	mov	r16,r6
 1001278:	d9015015 	stw	r4,1344(sp)
 100127c:	1005a580 	call	1005a58 <_localeconv_r>
 1001280:	10800017 	ldw	r2,0(r2)
 1001284:	d9c15217 	ldw	r7,1352(sp)
 1001288:	d8814a15 	stw	r2,1320(sp)
 100128c:	d8815017 	ldw	r2,1344(sp)
 1001290:	10000226 	beq	r2,zero,100129c <___vfprintf_internal_r+0x5c>
 1001294:	10800e17 	ldw	r2,56(r2)
 1001298:	10020d26 	beq	r2,zero,1001ad0 <___vfprintf_internal_r+0x890>
 100129c:	b080030b 	ldhu	r2,12(r22)
 10012a0:	1080020c 	andi	r2,r2,8
 10012a4:	10020e26 	beq	r2,zero,1001ae0 <___vfprintf_internal_r+0x8a0>
 10012a8:	b0800417 	ldw	r2,16(r22)
 10012ac:	10020c26 	beq	r2,zero,1001ae0 <___vfprintf_internal_r+0x8a0>
 10012b0:	b200030b 	ldhu	r8,12(r22)
 10012b4:	00800284 	movi	r2,10
 10012b8:	40c0068c 	andi	r3,r8,26
 10012bc:	18802f1e 	bne	r3,r2,100137c <___vfprintf_internal_r+0x13c>
 10012c0:	b080038f 	ldh	r2,14(r22)
 10012c4:	10002d16 	blt	r2,zero,100137c <___vfprintf_internal_r+0x13c>
 10012c8:	b240038b 	ldhu	r9,14(r22)
 10012cc:	b2800717 	ldw	r10,28(r22)
 10012d0:	b2c00917 	ldw	r11,36(r22)
 10012d4:	d9015017 	ldw	r4,1344(sp)
 10012d8:	dc402a04 	addi	r17,sp,168
 10012dc:	d8804104 	addi	r2,sp,260
 10012e0:	00c10004 	movi	r3,1024
 10012e4:	423fff4c 	andi	r8,r8,65533
 10012e8:	800d883a 	mov	r6,r16
 10012ec:	880b883a 	mov	r5,r17
 10012f0:	da002d0d 	sth	r8,180(sp)
 10012f4:	da402d8d 	sth	r9,182(sp)
 10012f8:	da803115 	stw	r10,196(sp)
 10012fc:	dac03315 	stw	r11,204(sp)
 1001300:	d8802e15 	stw	r2,184(sp)
 1001304:	d8c02f15 	stw	r3,188(sp)
 1001308:	d8802a15 	stw	r2,168(sp)
 100130c:	d8c02c15 	stw	r3,176(sp)
 1001310:	d8003015 	stw	zero,192(sp)
 1001314:	10012400 	call	1001240 <___vfprintf_internal_r>
 1001318:	d8814c15 	stw	r2,1328(sp)
 100131c:	10000416 	blt	r2,zero,1001330 <___vfprintf_internal_r+0xf0>
 1001320:	d9015017 	ldw	r4,1344(sp)
 1001324:	880b883a 	mov	r5,r17
 1001328:	1004a5c0 	call	1004a5c <_fflush_r>
 100132c:	1002321e 	bne	r2,zero,1001bf8 <___vfprintf_internal_r+0x9b8>
 1001330:	d8802d0b 	ldhu	r2,180(sp)
 1001334:	1080100c 	andi	r2,r2,64
 1001338:	10000326 	beq	r2,zero,1001348 <___vfprintf_internal_r+0x108>
 100133c:	b080030b 	ldhu	r2,12(r22)
 1001340:	10801014 	ori	r2,r2,64
 1001344:	b080030d 	sth	r2,12(r22)
 1001348:	d8814c17 	ldw	r2,1328(sp)
 100134c:	dfc15c17 	ldw	ra,1392(sp)
 1001350:	df015b17 	ldw	fp,1388(sp)
 1001354:	ddc15a17 	ldw	r23,1384(sp)
 1001358:	dd815917 	ldw	r22,1380(sp)
 100135c:	dd415817 	ldw	r21,1376(sp)
 1001360:	dd015717 	ldw	r20,1372(sp)
 1001364:	dcc15617 	ldw	r19,1368(sp)
 1001368:	dc815517 	ldw	r18,1364(sp)
 100136c:	dc415417 	ldw	r17,1360(sp)
 1001370:	dc015317 	ldw	r16,1356(sp)
 1001374:	dec15d04 	addi	sp,sp,1396
 1001378:	f800283a 	ret
 100137c:	0005883a 	mov	r2,zero
 1001380:	0007883a 	mov	r3,zero
 1001384:	dd401a04 	addi	r21,sp,104
 1001388:	d8814315 	stw	r2,1292(sp)
 100138c:	802f883a 	mov	r23,r16
 1001390:	d8c14415 	stw	r3,1296(sp)
 1001394:	d8014c15 	stw	zero,1328(sp)
 1001398:	d8014915 	stw	zero,1316(sp)
 100139c:	d8014515 	stw	zero,1300(sp)
 10013a0:	d8014815 	stw	zero,1312(sp)
 10013a4:	dd400d15 	stw	r21,52(sp)
 10013a8:	d8000f15 	stw	zero,60(sp)
 10013ac:	d8000e15 	stw	zero,56(sp)
 10013b0:	b8800007 	ldb	r2,0(r23)
 10013b4:	10001926 	beq	r2,zero,100141c <___vfprintf_internal_r+0x1dc>
 10013b8:	00c00944 	movi	r3,37
 10013bc:	10c01726 	beq	r2,r3,100141c <___vfprintf_internal_r+0x1dc>
 10013c0:	b821883a 	mov	r16,r23
 10013c4:	00000106 	br	10013cc <___vfprintf_internal_r+0x18c>
 10013c8:	10c00326 	beq	r2,r3,10013d8 <___vfprintf_internal_r+0x198>
 10013cc:	84000044 	addi	r16,r16,1
 10013d0:	80800007 	ldb	r2,0(r16)
 10013d4:	103ffc1e 	bne	r2,zero,10013c8 <___vfprintf_internal_r+0x188>
 10013d8:	85e7c83a 	sub	r19,r16,r23
 10013dc:	98000e26 	beq	r19,zero,1001418 <___vfprintf_internal_r+0x1d8>
 10013e0:	dc800f17 	ldw	r18,60(sp)
 10013e4:	dc400e17 	ldw	r17,56(sp)
 10013e8:	008001c4 	movi	r2,7
 10013ec:	94e5883a 	add	r18,r18,r19
 10013f0:	8c400044 	addi	r17,r17,1
 10013f4:	adc00015 	stw	r23,0(r21)
 10013f8:	dc800f15 	stw	r18,60(sp)
 10013fc:	acc00115 	stw	r19,4(r21)
 1001400:	dc400e15 	stw	r17,56(sp)
 1001404:	14428b16 	blt	r2,r17,1001e34 <___vfprintf_internal_r+0xbf4>
 1001408:	ad400204 	addi	r21,r21,8
 100140c:	d9014c17 	ldw	r4,1328(sp)
 1001410:	24c9883a 	add	r4,r4,r19
 1001414:	d9014c15 	stw	r4,1328(sp)
 1001418:	802f883a 	mov	r23,r16
 100141c:	b8800007 	ldb	r2,0(r23)
 1001420:	10013c26 	beq	r2,zero,1001914 <___vfprintf_internal_r+0x6d4>
 1001424:	bdc00044 	addi	r23,r23,1
 1001428:	d8000405 	stb	zero,16(sp)
 100142c:	b8c00007 	ldb	r3,0(r23)
 1001430:	04ffffc4 	movi	r19,-1
 1001434:	d8014d15 	stw	zero,1332(sp)
 1001438:	d8014b15 	stw	zero,1324(sp)
 100143c:	d8c14e15 	stw	r3,1336(sp)
 1001440:	bdc00044 	addi	r23,r23,1
 1001444:	d9414e17 	ldw	r5,1336(sp)
 1001448:	00801604 	movi	r2,88
 100144c:	28fff804 	addi	r3,r5,-32
 1001450:	10c06036 	bltu	r2,r3,10015d4 <___vfprintf_internal_r+0x394>
 1001454:	18c5883a 	add	r2,r3,r3
 1001458:	1085883a 	add	r2,r2,r2
 100145c:	00c04034 	movhi	r3,256
 1001460:	18c51c04 	addi	r3,r3,5232
 1001464:	10c5883a 	add	r2,r2,r3
 1001468:	11000017 	ldw	r4,0(r2)
 100146c:	2000683a 	jmp	r4
 1001470:	010023e4 	muli	r4,zero,143
 1001474:	010015d4 	movui	r4,87
 1001478:	010015d4 	movui	r4,87
 100147c:	010023d0 	cmplti	r4,zero,143
 1001480:	010015d4 	movui	r4,87
 1001484:	010015d4 	movui	r4,87
 1001488:	010015d4 	movui	r4,87
 100148c:	010015d4 	movui	r4,87
 1001490:	010015d4 	movui	r4,87
 1001494:	010015d4 	movui	r4,87
 1001498:	010021b0 	cmpltui	r4,zero,134
 100149c:	010023c0 	call	10023c <__alt_mem_onchip_memory2_0+0x10023c>
 10014a0:	010015d4 	movui	r4,87
 10014a4:	010021c8 	cmpgei	r4,zero,135
 10014a8:	01002468 	cmpgeui	r4,zero,145
 10014ac:	010015d4 	movui	r4,87
 10014b0:	01002454 	movui	r4,145
 10014b4:	01002410 	cmplti	r4,zero,144
 10014b8:	01002410 	cmplti	r4,zero,144
 10014bc:	01002410 	cmplti	r4,zero,144
 10014c0:	01002410 	cmplti	r4,zero,144
 10014c4:	01002410 	cmplti	r4,zero,144
 10014c8:	01002410 	cmplti	r4,zero,144
 10014cc:	01002410 	cmplti	r4,zero,144
 10014d0:	01002410 	cmplti	r4,zero,144
 10014d4:	01002410 	cmplti	r4,zero,144
 10014d8:	010015d4 	movui	r4,87
 10014dc:	010015d4 	movui	r4,87
 10014e0:	010015d4 	movui	r4,87
 10014e4:	010015d4 	movui	r4,87
 10014e8:	010015d4 	movui	r4,87
 10014ec:	010015d4 	movui	r4,87
 10014f0:	010015d4 	movui	r4,87
 10014f4:	010015d4 	movui	r4,87
 10014f8:	010015d4 	movui	r4,87
 10014fc:	010015d4 	movui	r4,87
 1001500:	01001c2c 	andhi	r4,zero,112
 1001504:	01002298 	cmpnei	r4,zero,138
 1001508:	010015d4 	movui	r4,87
 100150c:	01002298 	cmpnei	r4,zero,138
 1001510:	010015d4 	movui	r4,87
 1001514:	010015d4 	movui	r4,87
 1001518:	010015d4 	movui	r4,87
 100151c:	010015d4 	movui	r4,87
 1001520:	010023fc 	xorhi	r4,zero,143
 1001524:	010015d4 	movui	r4,87
 1001528:	010015d4 	movui	r4,87
 100152c:	01001ce0 	cmpeqi	r4,zero,115
 1001530:	010015d4 	movui	r4,87
 1001534:	010015d4 	movui	r4,87
 1001538:	010015d4 	movui	r4,87
 100153c:	010015d4 	movui	r4,87
 1001540:	010015d4 	movui	r4,87
 1001544:	01001d2c 	andhi	r4,zero,116
 1001548:	010015d4 	movui	r4,87
 100154c:	010015d4 	movui	r4,87
 1001550:	0100234c 	andi	r4,zero,141
 1001554:	010015d4 	movui	r4,87
 1001558:	010015d4 	movui	r4,87
 100155c:	010015d4 	movui	r4,87
 1001560:	010015d4 	movui	r4,87
 1001564:	010015d4 	movui	r4,87
 1001568:	010015d4 	movui	r4,87
 100156c:	010015d4 	movui	r4,87
 1001570:	010015d4 	movui	r4,87
 1001574:	010015d4 	movui	r4,87
 1001578:	010015d4 	movui	r4,87
 100157c:	01002320 	cmpeqi	r4,zero,140
 1001580:	01001c38 	rdprs	r4,zero,112
 1001584:	01002298 	cmpnei	r4,zero,138
 1001588:	01002298 	cmpnei	r4,zero,138
 100158c:	01002298 	cmpnei	r4,zero,138
 1001590:	01002284 	movi	r4,138
 1001594:	01001c38 	rdprs	r4,zero,112
 1001598:	010015d4 	movui	r4,87
 100159c:	010015d4 	movui	r4,87
 10015a0:	0100220c 	andi	r4,zero,136
 10015a4:	010015d4 	movui	r4,87
 10015a8:	010021dc 	xori	r4,zero,135
 10015ac:	01001cec 	andhi	r4,zero,115
 10015b0:	0100223c 	xorhi	r4,zero,136
 10015b4:	01002228 	cmpgeui	r4,zero,136
 10015b8:	010015d4 	movui	r4,87
 10015bc:	010024d0 	cmplti	r4,zero,147
 10015c0:	010015d4 	movui	r4,87
 10015c4:	01001d38 	rdprs	r4,zero,116
 10015c8:	010015d4 	movui	r4,87
 10015cc:	010015d4 	movui	r4,87
 10015d0:	010023b0 	cmpltui	r4,zero,142
 10015d4:	d9014e17 	ldw	r4,1336(sp)
 10015d8:	2000ce26 	beq	r4,zero,1001914 <___vfprintf_internal_r+0x6d4>
 10015dc:	01400044 	movi	r5,1
 10015e0:	d9801004 	addi	r6,sp,64
 10015e4:	d9c14115 	stw	r7,1284(sp)
 10015e8:	d9414615 	stw	r5,1304(sp)
 10015ec:	d9814215 	stw	r6,1288(sp)
 10015f0:	280f883a 	mov	r7,r5
 10015f4:	d9001005 	stb	r4,64(sp)
 10015f8:	d8000405 	stb	zero,16(sp)
 10015fc:	d8014715 	stw	zero,1308(sp)
 1001600:	d8c14d17 	ldw	r3,1332(sp)
 1001604:	1880008c 	andi	r2,r3,2
 1001608:	1005003a 	cmpeq	r2,r2,zero
 100160c:	d8815115 	stw	r2,1348(sp)
 1001610:	1000031e 	bne	r2,zero,1001620 <___vfprintf_internal_r+0x3e0>
 1001614:	d9014617 	ldw	r4,1304(sp)
 1001618:	21000084 	addi	r4,r4,2
 100161c:	d9014615 	stw	r4,1304(sp)
 1001620:	d9414d17 	ldw	r5,1332(sp)
 1001624:	2940210c 	andi	r5,r5,132
 1001628:	d9414f15 	stw	r5,1340(sp)
 100162c:	28002d1e 	bne	r5,zero,10016e4 <___vfprintf_internal_r+0x4a4>
 1001630:	d9814b17 	ldw	r6,1324(sp)
 1001634:	d8814617 	ldw	r2,1304(sp)
 1001638:	30a1c83a 	sub	r16,r6,r2
 100163c:	0400290e 	bge	zero,r16,10016e4 <___vfprintf_internal_r+0x4a4>
 1001640:	00800404 	movi	r2,16
 1001644:	14045e0e 	bge	r2,r16,10027c0 <___vfprintf_internal_r+0x1580>
 1001648:	dc800f17 	ldw	r18,60(sp)
 100164c:	dc400e17 	ldw	r17,56(sp)
 1001650:	1027883a 	mov	r19,r2
 1001654:	07004074 	movhi	fp,257
 1001658:	e7371004 	addi	fp,fp,-9152
 100165c:	050001c4 	movi	r20,7
 1001660:	00000306 	br	1001670 <___vfprintf_internal_r+0x430>
 1001664:	843ffc04 	addi	r16,r16,-16
 1001668:	ad400204 	addi	r21,r21,8
 100166c:	9c00130e 	bge	r19,r16,10016bc <___vfprintf_internal_r+0x47c>
 1001670:	94800404 	addi	r18,r18,16
 1001674:	8c400044 	addi	r17,r17,1
 1001678:	af000015 	stw	fp,0(r21)
 100167c:	acc00115 	stw	r19,4(r21)
 1001680:	dc800f15 	stw	r18,60(sp)
 1001684:	dc400e15 	stw	r17,56(sp)
 1001688:	a47ff60e 	bge	r20,r17,1001664 <___vfprintf_internal_r+0x424>
 100168c:	d9015017 	ldw	r4,1344(sp)
 1001690:	b00b883a 	mov	r5,r22
 1001694:	d9800d04 	addi	r6,sp,52
 1001698:	d9c15215 	stw	r7,1352(sp)
 100169c:	10011e80 	call	10011e8 <__sprint_r>
 10016a0:	d9c15217 	ldw	r7,1352(sp)
 10016a4:	10009e1e 	bne	r2,zero,1001920 <___vfprintf_internal_r+0x6e0>
 10016a8:	843ffc04 	addi	r16,r16,-16
 10016ac:	dc800f17 	ldw	r18,60(sp)
 10016b0:	dc400e17 	ldw	r17,56(sp)
 10016b4:	dd401a04 	addi	r21,sp,104
 10016b8:	9c3fed16 	blt	r19,r16,1001670 <___vfprintf_internal_r+0x430>
 10016bc:	9425883a 	add	r18,r18,r16
 10016c0:	8c400044 	addi	r17,r17,1
 10016c4:	008001c4 	movi	r2,7
 10016c8:	af000015 	stw	fp,0(r21)
 10016cc:	ac000115 	stw	r16,4(r21)
 10016d0:	dc800f15 	stw	r18,60(sp)
 10016d4:	dc400e15 	stw	r17,56(sp)
 10016d8:	1441f516 	blt	r2,r17,1001eb0 <___vfprintf_internal_r+0xc70>
 10016dc:	ad400204 	addi	r21,r21,8
 10016e0:	00000206 	br	10016ec <___vfprintf_internal_r+0x4ac>
 10016e4:	dc800f17 	ldw	r18,60(sp)
 10016e8:	dc400e17 	ldw	r17,56(sp)
 10016ec:	d8800407 	ldb	r2,16(sp)
 10016f0:	10000b26 	beq	r2,zero,1001720 <___vfprintf_internal_r+0x4e0>
 10016f4:	00800044 	movi	r2,1
 10016f8:	94800044 	addi	r18,r18,1
 10016fc:	8c400044 	addi	r17,r17,1
 1001700:	a8800115 	stw	r2,4(r21)
 1001704:	d8c00404 	addi	r3,sp,16
 1001708:	008001c4 	movi	r2,7
 100170c:	a8c00015 	stw	r3,0(r21)
 1001710:	dc800f15 	stw	r18,60(sp)
 1001714:	dc400e15 	stw	r17,56(sp)
 1001718:	1441da16 	blt	r2,r17,1001e84 <___vfprintf_internal_r+0xc44>
 100171c:	ad400204 	addi	r21,r21,8
 1001720:	d9015117 	ldw	r4,1348(sp)
 1001724:	20000b1e 	bne	r4,zero,1001754 <___vfprintf_internal_r+0x514>
 1001728:	d8800504 	addi	r2,sp,20
 100172c:	94800084 	addi	r18,r18,2
 1001730:	8c400044 	addi	r17,r17,1
 1001734:	a8800015 	stw	r2,0(r21)
 1001738:	00c00084 	movi	r3,2
 100173c:	008001c4 	movi	r2,7
 1001740:	a8c00115 	stw	r3,4(r21)
 1001744:	dc800f15 	stw	r18,60(sp)
 1001748:	dc400e15 	stw	r17,56(sp)
 100174c:	1441c216 	blt	r2,r17,1001e58 <___vfprintf_internal_r+0xc18>
 1001750:	ad400204 	addi	r21,r21,8
 1001754:	d9414f17 	ldw	r5,1340(sp)
 1001758:	00802004 	movi	r2,128
 100175c:	2880b126 	beq	r5,r2,1001a24 <___vfprintf_internal_r+0x7e4>
 1001760:	d8c14717 	ldw	r3,1308(sp)
 1001764:	19e1c83a 	sub	r16,r3,r7
 1001768:	0400260e 	bge	zero,r16,1001804 <___vfprintf_internal_r+0x5c4>
 100176c:	00800404 	movi	r2,16
 1001770:	1403cf0e 	bge	r2,r16,10026b0 <___vfprintf_internal_r+0x1470>
 1001774:	1027883a 	mov	r19,r2
 1001778:	07004074 	movhi	fp,257
 100177c:	e7370c04 	addi	fp,fp,-9168
 1001780:	050001c4 	movi	r20,7
 1001784:	00000306 	br	1001794 <___vfprintf_internal_r+0x554>
 1001788:	843ffc04 	addi	r16,r16,-16
 100178c:	ad400204 	addi	r21,r21,8
 1001790:	9c00130e 	bge	r19,r16,10017e0 <___vfprintf_internal_r+0x5a0>
 1001794:	94800404 	addi	r18,r18,16
 1001798:	8c400044 	addi	r17,r17,1
 100179c:	af000015 	stw	fp,0(r21)
 10017a0:	acc00115 	stw	r19,4(r21)
 10017a4:	dc800f15 	stw	r18,60(sp)
 10017a8:	dc400e15 	stw	r17,56(sp)
 10017ac:	a47ff60e 	bge	r20,r17,1001788 <___vfprintf_internal_r+0x548>
 10017b0:	d9015017 	ldw	r4,1344(sp)
 10017b4:	b00b883a 	mov	r5,r22
 10017b8:	d9800d04 	addi	r6,sp,52
 10017bc:	d9c15215 	stw	r7,1352(sp)
 10017c0:	10011e80 	call	10011e8 <__sprint_r>
 10017c4:	d9c15217 	ldw	r7,1352(sp)
 10017c8:	1000551e 	bne	r2,zero,1001920 <___vfprintf_internal_r+0x6e0>
 10017cc:	843ffc04 	addi	r16,r16,-16
 10017d0:	dc800f17 	ldw	r18,60(sp)
 10017d4:	dc400e17 	ldw	r17,56(sp)
 10017d8:	dd401a04 	addi	r21,sp,104
 10017dc:	9c3fed16 	blt	r19,r16,1001794 <___vfprintf_internal_r+0x554>
 10017e0:	9425883a 	add	r18,r18,r16
 10017e4:	8c400044 	addi	r17,r17,1
 10017e8:	008001c4 	movi	r2,7
 10017ec:	af000015 	stw	fp,0(r21)
 10017f0:	ac000115 	stw	r16,4(r21)
 10017f4:	dc800f15 	stw	r18,60(sp)
 10017f8:	dc400e15 	stw	r17,56(sp)
 10017fc:	14418216 	blt	r2,r17,1001e08 <___vfprintf_internal_r+0xbc8>
 1001800:	ad400204 	addi	r21,r21,8
 1001804:	d9014d17 	ldw	r4,1332(sp)
 1001808:	2080400c 	andi	r2,r4,256
 100180c:	10004a1e 	bne	r2,zero,1001938 <___vfprintf_internal_r+0x6f8>
 1001810:	d9414217 	ldw	r5,1288(sp)
 1001814:	91e5883a 	add	r18,r18,r7
 1001818:	8c400044 	addi	r17,r17,1
 100181c:	008001c4 	movi	r2,7
 1001820:	a9400015 	stw	r5,0(r21)
 1001824:	a9c00115 	stw	r7,4(r21)
 1001828:	dc800f15 	stw	r18,60(sp)
 100182c:	dc400e15 	stw	r17,56(sp)
 1001830:	14416716 	blt	r2,r17,1001dd0 <___vfprintf_internal_r+0xb90>
 1001834:	a8c00204 	addi	r3,r21,8
 1001838:	d9814d17 	ldw	r6,1332(sp)
 100183c:	3080010c 	andi	r2,r6,4
 1001840:	10002826 	beq	r2,zero,10018e4 <___vfprintf_internal_r+0x6a4>
 1001844:	d8814b17 	ldw	r2,1324(sp)
 1001848:	d9014617 	ldw	r4,1304(sp)
 100184c:	1121c83a 	sub	r16,r2,r4
 1001850:	0400240e 	bge	zero,r16,10018e4 <___vfprintf_internal_r+0x6a4>
 1001854:	00800404 	movi	r2,16
 1001858:	1404550e 	bge	r2,r16,10029b0 <___vfprintf_internal_r+0x1770>
 100185c:	dc400e17 	ldw	r17,56(sp)
 1001860:	1027883a 	mov	r19,r2
 1001864:	07004074 	movhi	fp,257
 1001868:	e7371004 	addi	fp,fp,-9152
 100186c:	050001c4 	movi	r20,7
 1001870:	00000306 	br	1001880 <___vfprintf_internal_r+0x640>
 1001874:	843ffc04 	addi	r16,r16,-16
 1001878:	18c00204 	addi	r3,r3,8
 100187c:	9c00110e 	bge	r19,r16,10018c4 <___vfprintf_internal_r+0x684>
 1001880:	94800404 	addi	r18,r18,16
 1001884:	8c400044 	addi	r17,r17,1
 1001888:	1f000015 	stw	fp,0(r3)
 100188c:	1cc00115 	stw	r19,4(r3)
 1001890:	dc800f15 	stw	r18,60(sp)
 1001894:	dc400e15 	stw	r17,56(sp)
 1001898:	a47ff60e 	bge	r20,r17,1001874 <___vfprintf_internal_r+0x634>
 100189c:	d9015017 	ldw	r4,1344(sp)
 10018a0:	b00b883a 	mov	r5,r22
 10018a4:	d9800d04 	addi	r6,sp,52
 10018a8:	10011e80 	call	10011e8 <__sprint_r>
 10018ac:	10001c1e 	bne	r2,zero,1001920 <___vfprintf_internal_r+0x6e0>
 10018b0:	843ffc04 	addi	r16,r16,-16
 10018b4:	dc800f17 	ldw	r18,60(sp)
 10018b8:	dc400e17 	ldw	r17,56(sp)
 10018bc:	d8c01a04 	addi	r3,sp,104
 10018c0:	9c3fef16 	blt	r19,r16,1001880 <___vfprintf_internal_r+0x640>
 10018c4:	9425883a 	add	r18,r18,r16
 10018c8:	8c400044 	addi	r17,r17,1
 10018cc:	008001c4 	movi	r2,7
 10018d0:	1f000015 	stw	fp,0(r3)
 10018d4:	1c000115 	stw	r16,4(r3)
 10018d8:	dc800f15 	stw	r18,60(sp)
 10018dc:	dc400e15 	stw	r17,56(sp)
 10018e0:	1440cb16 	blt	r2,r17,1001c10 <___vfprintf_internal_r+0x9d0>
 10018e4:	d8814b17 	ldw	r2,1324(sp)
 10018e8:	d9414617 	ldw	r5,1304(sp)
 10018ec:	1140010e 	bge	r2,r5,10018f4 <___vfprintf_internal_r+0x6b4>
 10018f0:	2805883a 	mov	r2,r5
 10018f4:	d9814c17 	ldw	r6,1328(sp)
 10018f8:	308d883a 	add	r6,r6,r2
 10018fc:	d9814c15 	stw	r6,1328(sp)
 1001900:	90013b1e 	bne	r18,zero,1001df0 <___vfprintf_internal_r+0xbb0>
 1001904:	d9c14117 	ldw	r7,1284(sp)
 1001908:	dd401a04 	addi	r21,sp,104
 100190c:	d8000e15 	stw	zero,56(sp)
 1001910:	003ea706 	br	10013b0 <___vfprintf_internal_r+0x170>
 1001914:	d8800f17 	ldw	r2,60(sp)
 1001918:	1005451e 	bne	r2,zero,1002e30 <___vfprintf_internal_r+0x1bf0>
 100191c:	d8000e15 	stw	zero,56(sp)
 1001920:	b080030b 	ldhu	r2,12(r22)
 1001924:	1080100c 	andi	r2,r2,64
 1001928:	103e8726 	beq	r2,zero,1001348 <___vfprintf_internal_r+0x108>
 100192c:	00bfffc4 	movi	r2,-1
 1001930:	d8814c15 	stw	r2,1328(sp)
 1001934:	003e8406 	br	1001348 <___vfprintf_internal_r+0x108>
 1001938:	d9814e17 	ldw	r6,1336(sp)
 100193c:	00801944 	movi	r2,101
 1001940:	11806e16 	blt	r2,r6,1001afc <___vfprintf_internal_r+0x8bc>
 1001944:	d9414817 	ldw	r5,1312(sp)
 1001948:	00c00044 	movi	r3,1
 100194c:	1943490e 	bge	r3,r5,1002674 <___vfprintf_internal_r+0x1434>
 1001950:	d8814217 	ldw	r2,1288(sp)
 1001954:	94800044 	addi	r18,r18,1
 1001958:	8c400044 	addi	r17,r17,1
 100195c:	a8800015 	stw	r2,0(r21)
 1001960:	008001c4 	movi	r2,7
 1001964:	a8c00115 	stw	r3,4(r21)
 1001968:	dc800f15 	stw	r18,60(sp)
 100196c:	dc400e15 	stw	r17,56(sp)
 1001970:	1441ca16 	blt	r2,r17,100209c <___vfprintf_internal_r+0xe5c>
 1001974:	a8c00204 	addi	r3,r21,8
 1001978:	d9014a17 	ldw	r4,1320(sp)
 100197c:	00800044 	movi	r2,1
 1001980:	94800044 	addi	r18,r18,1
 1001984:	8c400044 	addi	r17,r17,1
 1001988:	18800115 	stw	r2,4(r3)
 100198c:	008001c4 	movi	r2,7
 1001990:	19000015 	stw	r4,0(r3)
 1001994:	dc800f15 	stw	r18,60(sp)
 1001998:	dc400e15 	stw	r17,56(sp)
 100199c:	1441b616 	blt	r2,r17,1002078 <___vfprintf_internal_r+0xe38>
 10019a0:	1cc00204 	addi	r19,r3,8
 10019a4:	d9014317 	ldw	r4,1292(sp)
 10019a8:	d9414417 	ldw	r5,1296(sp)
 10019ac:	000d883a 	mov	r6,zero
 10019b0:	000f883a 	mov	r7,zero
 10019b4:	1009f000 	call	1009f00 <__nedf2>
 10019b8:	10017426 	beq	r2,zero,1001f8c <___vfprintf_internal_r+0xd4c>
 10019bc:	d9414817 	ldw	r5,1312(sp)
 10019c0:	d9814217 	ldw	r6,1288(sp)
 10019c4:	8c400044 	addi	r17,r17,1
 10019c8:	2c85883a 	add	r2,r5,r18
 10019cc:	14bfffc4 	addi	r18,r2,-1
 10019d0:	28bfffc4 	addi	r2,r5,-1
 10019d4:	30c00044 	addi	r3,r6,1
 10019d8:	98800115 	stw	r2,4(r19)
 10019dc:	008001c4 	movi	r2,7
 10019e0:	98c00015 	stw	r3,0(r19)
 10019e4:	dc800f15 	stw	r18,60(sp)
 10019e8:	dc400e15 	stw	r17,56(sp)
 10019ec:	14418e16 	blt	r2,r17,1002028 <___vfprintf_internal_r+0xde8>
 10019f0:	9cc00204 	addi	r19,r19,8
 10019f4:	d9414917 	ldw	r5,1316(sp)
 10019f8:	d8800904 	addi	r2,sp,36
 10019fc:	8c400044 	addi	r17,r17,1
 1001a00:	9165883a 	add	r18,r18,r5
 1001a04:	98800015 	stw	r2,0(r19)
 1001a08:	008001c4 	movi	r2,7
 1001a0c:	99400115 	stw	r5,4(r19)
 1001a10:	dc800f15 	stw	r18,60(sp)
 1001a14:	dc400e15 	stw	r17,56(sp)
 1001a18:	1440ed16 	blt	r2,r17,1001dd0 <___vfprintf_internal_r+0xb90>
 1001a1c:	98c00204 	addi	r3,r19,8
 1001a20:	003f8506 	br	1001838 <___vfprintf_internal_r+0x5f8>
 1001a24:	d9814b17 	ldw	r6,1324(sp)
 1001a28:	d8814617 	ldw	r2,1304(sp)
 1001a2c:	30a1c83a 	sub	r16,r6,r2
 1001a30:	043f4b0e 	bge	zero,r16,1001760 <___vfprintf_internal_r+0x520>
 1001a34:	00800404 	movi	r2,16
 1001a38:	14043a0e 	bge	r2,r16,1002b24 <___vfprintf_internal_r+0x18e4>
 1001a3c:	1027883a 	mov	r19,r2
 1001a40:	07004074 	movhi	fp,257
 1001a44:	e7370c04 	addi	fp,fp,-9168
 1001a48:	050001c4 	movi	r20,7
 1001a4c:	00000306 	br	1001a5c <___vfprintf_internal_r+0x81c>
 1001a50:	843ffc04 	addi	r16,r16,-16
 1001a54:	ad400204 	addi	r21,r21,8
 1001a58:	9c00130e 	bge	r19,r16,1001aa8 <___vfprintf_internal_r+0x868>
 1001a5c:	94800404 	addi	r18,r18,16
 1001a60:	8c400044 	addi	r17,r17,1
 1001a64:	af000015 	stw	fp,0(r21)
 1001a68:	acc00115 	stw	r19,4(r21)
 1001a6c:	dc800f15 	stw	r18,60(sp)
 1001a70:	dc400e15 	stw	r17,56(sp)
 1001a74:	a47ff60e 	bge	r20,r17,1001a50 <___vfprintf_internal_r+0x810>
 1001a78:	d9015017 	ldw	r4,1344(sp)
 1001a7c:	b00b883a 	mov	r5,r22
 1001a80:	d9800d04 	addi	r6,sp,52
 1001a84:	d9c15215 	stw	r7,1352(sp)
 1001a88:	10011e80 	call	10011e8 <__sprint_r>
 1001a8c:	d9c15217 	ldw	r7,1352(sp)
 1001a90:	103fa31e 	bne	r2,zero,1001920 <___vfprintf_internal_r+0x6e0>
 1001a94:	843ffc04 	addi	r16,r16,-16
 1001a98:	dc800f17 	ldw	r18,60(sp)
 1001a9c:	dc400e17 	ldw	r17,56(sp)
 1001aa0:	dd401a04 	addi	r21,sp,104
 1001aa4:	9c3fed16 	blt	r19,r16,1001a5c <___vfprintf_internal_r+0x81c>
 1001aa8:	9425883a 	add	r18,r18,r16
 1001aac:	8c400044 	addi	r17,r17,1
 1001ab0:	008001c4 	movi	r2,7
 1001ab4:	af000015 	stw	fp,0(r21)
 1001ab8:	ac000115 	stw	r16,4(r21)
 1001abc:	dc800f15 	stw	r18,60(sp)
 1001ac0:	dc400e15 	stw	r17,56(sp)
 1001ac4:	14416116 	blt	r2,r17,100204c <___vfprintf_internal_r+0xe0c>
 1001ac8:	ad400204 	addi	r21,r21,8
 1001acc:	003f2406 	br	1001760 <___vfprintf_internal_r+0x520>
 1001ad0:	d9015017 	ldw	r4,1344(sp)
 1001ad4:	1004cf40 	call	1004cf4 <__sinit>
 1001ad8:	d9c15217 	ldw	r7,1352(sp)
 1001adc:	003def06 	br	100129c <___vfprintf_internal_r+0x5c>
 1001ae0:	d9015017 	ldw	r4,1344(sp)
 1001ae4:	b00b883a 	mov	r5,r22
 1001ae8:	d9c15215 	stw	r7,1352(sp)
 1001aec:	10031280 	call	1003128 <__swsetup_r>
 1001af0:	d9c15217 	ldw	r7,1352(sp)
 1001af4:	103dee26 	beq	r2,zero,10012b0 <___vfprintf_internal_r+0x70>
 1001af8:	003f8c06 	br	100192c <___vfprintf_internal_r+0x6ec>
 1001afc:	d9014317 	ldw	r4,1292(sp)
 1001b00:	d9414417 	ldw	r5,1296(sp)
 1001b04:	000d883a 	mov	r6,zero
 1001b08:	000f883a 	mov	r7,zero
 1001b0c:	1009e780 	call	1009e78 <__eqdf2>
 1001b10:	1000f21e 	bne	r2,zero,1001edc <___vfprintf_internal_r+0xc9c>
 1001b14:	00804074 	movhi	r2,257
 1001b18:	10b70b04 	addi	r2,r2,-9172
 1001b1c:	94800044 	addi	r18,r18,1
 1001b20:	8c400044 	addi	r17,r17,1
 1001b24:	a8800015 	stw	r2,0(r21)
 1001b28:	00c00044 	movi	r3,1
 1001b2c:	008001c4 	movi	r2,7
 1001b30:	a8c00115 	stw	r3,4(r21)
 1001b34:	dc800f15 	stw	r18,60(sp)
 1001b38:	dc400e15 	stw	r17,56(sp)
 1001b3c:	14430016 	blt	r2,r17,1002740 <___vfprintf_internal_r+0x1500>
 1001b40:	a8c00204 	addi	r3,r21,8
 1001b44:	d8800617 	ldw	r2,24(sp)
 1001b48:	d9014817 	ldw	r4,1312(sp)
 1001b4c:	11015c0e 	bge	r2,r4,10020c0 <___vfprintf_internal_r+0xe80>
 1001b50:	dc400e17 	ldw	r17,56(sp)
 1001b54:	d9814a17 	ldw	r6,1320(sp)
 1001b58:	00800044 	movi	r2,1
 1001b5c:	94800044 	addi	r18,r18,1
 1001b60:	8c400044 	addi	r17,r17,1
 1001b64:	18800115 	stw	r2,4(r3)
 1001b68:	008001c4 	movi	r2,7
 1001b6c:	19800015 	stw	r6,0(r3)
 1001b70:	dc800f15 	stw	r18,60(sp)
 1001b74:	dc400e15 	stw	r17,56(sp)
 1001b78:	14431616 	blt	r2,r17,10027d4 <___vfprintf_internal_r+0x1594>
 1001b7c:	18c00204 	addi	r3,r3,8
 1001b80:	d8814817 	ldw	r2,1312(sp)
 1001b84:	143fffc4 	addi	r16,r2,-1
 1001b88:	043f2b0e 	bge	zero,r16,1001838 <___vfprintf_internal_r+0x5f8>
 1001b8c:	00800404 	movi	r2,16
 1001b90:	1402a80e 	bge	r2,r16,1002634 <___vfprintf_internal_r+0x13f4>
 1001b94:	dc400e17 	ldw	r17,56(sp)
 1001b98:	1027883a 	mov	r19,r2
 1001b9c:	07004074 	movhi	fp,257
 1001ba0:	e7370c04 	addi	fp,fp,-9168
 1001ba4:	050001c4 	movi	r20,7
 1001ba8:	00000306 	br	1001bb8 <___vfprintf_internal_r+0x978>
 1001bac:	18c00204 	addi	r3,r3,8
 1001bb0:	843ffc04 	addi	r16,r16,-16
 1001bb4:	9c02a20e 	bge	r19,r16,1002640 <___vfprintf_internal_r+0x1400>
 1001bb8:	94800404 	addi	r18,r18,16
 1001bbc:	8c400044 	addi	r17,r17,1
 1001bc0:	1f000015 	stw	fp,0(r3)
 1001bc4:	1cc00115 	stw	r19,4(r3)
 1001bc8:	dc800f15 	stw	r18,60(sp)
 1001bcc:	dc400e15 	stw	r17,56(sp)
 1001bd0:	a47ff60e 	bge	r20,r17,1001bac <___vfprintf_internal_r+0x96c>
 1001bd4:	d9015017 	ldw	r4,1344(sp)
 1001bd8:	b00b883a 	mov	r5,r22
 1001bdc:	d9800d04 	addi	r6,sp,52
 1001be0:	10011e80 	call	10011e8 <__sprint_r>
 1001be4:	103f4e1e 	bne	r2,zero,1001920 <___vfprintf_internal_r+0x6e0>
 1001be8:	dc800f17 	ldw	r18,60(sp)
 1001bec:	dc400e17 	ldw	r17,56(sp)
 1001bf0:	d8c01a04 	addi	r3,sp,104
 1001bf4:	003fee06 	br	1001bb0 <___vfprintf_internal_r+0x970>
 1001bf8:	d8802d0b 	ldhu	r2,180(sp)
 1001bfc:	00ffffc4 	movi	r3,-1
 1001c00:	d8c14c15 	stw	r3,1328(sp)
 1001c04:	1080100c 	andi	r2,r2,64
 1001c08:	103dcc1e 	bne	r2,zero,100133c <___vfprintf_internal_r+0xfc>
 1001c0c:	003dce06 	br	1001348 <___vfprintf_internal_r+0x108>
 1001c10:	d9015017 	ldw	r4,1344(sp)
 1001c14:	b00b883a 	mov	r5,r22
 1001c18:	d9800d04 	addi	r6,sp,52
 1001c1c:	10011e80 	call	10011e8 <__sprint_r>
 1001c20:	103f3f1e 	bne	r2,zero,1001920 <___vfprintf_internal_r+0x6e0>
 1001c24:	dc800f17 	ldw	r18,60(sp)
 1001c28:	003f2e06 	br	10018e4 <___vfprintf_internal_r+0x6a4>
 1001c2c:	d9414d17 	ldw	r5,1332(sp)
 1001c30:	29400414 	ori	r5,r5,16
 1001c34:	d9414d15 	stw	r5,1332(sp)
 1001c38:	d9814d17 	ldw	r6,1332(sp)
 1001c3c:	3080080c 	andi	r2,r6,32
 1001c40:	10014f1e 	bne	r2,zero,1002180 <___vfprintf_internal_r+0xf40>
 1001c44:	d8c14d17 	ldw	r3,1332(sp)
 1001c48:	1880040c 	andi	r2,r3,16
 1001c4c:	1002f01e 	bne	r2,zero,1002810 <___vfprintf_internal_r+0x15d0>
 1001c50:	d9014d17 	ldw	r4,1332(sp)
 1001c54:	2080100c 	andi	r2,r4,64
 1001c58:	1002ed26 	beq	r2,zero,1002810 <___vfprintf_internal_r+0x15d0>
 1001c5c:	3880000f 	ldh	r2,0(r7)
 1001c60:	39c00104 	addi	r7,r7,4
 1001c64:	d9c14115 	stw	r7,1284(sp)
 1001c68:	1023d7fa 	srai	r17,r2,31
 1001c6c:	1021883a 	mov	r16,r2
 1001c70:	88037816 	blt	r17,zero,1002a54 <___vfprintf_internal_r+0x1814>
 1001c74:	01000044 	movi	r4,1
 1001c78:	98000416 	blt	r19,zero,1001c8c <___vfprintf_internal_r+0xa4c>
 1001c7c:	d8c14d17 	ldw	r3,1332(sp)
 1001c80:	00bfdfc4 	movi	r2,-129
 1001c84:	1886703a 	and	r3,r3,r2
 1001c88:	d8c14d15 	stw	r3,1332(sp)
 1001c8c:	8444b03a 	or	r2,r16,r17
 1001c90:	10022c1e 	bne	r2,zero,1002544 <___vfprintf_internal_r+0x1304>
 1001c94:	98022b1e 	bne	r19,zero,1002544 <___vfprintf_internal_r+0x1304>
 1001c98:	20803fcc 	andi	r2,r4,255
 1001c9c:	1002a126 	beq	r2,zero,1002724 <___vfprintf_internal_r+0x14e4>
 1001ca0:	d8c01a04 	addi	r3,sp,104
 1001ca4:	dd001004 	addi	r20,sp,64
 1001ca8:	d8c14215 	stw	r3,1288(sp)
 1001cac:	d8c14217 	ldw	r3,1288(sp)
 1001cb0:	dcc14615 	stw	r19,1304(sp)
 1001cb4:	a0c5c83a 	sub	r2,r20,r3
 1001cb8:	11c00a04 	addi	r7,r2,40
 1001cbc:	99c0010e 	bge	r19,r7,1001cc4 <___vfprintf_internal_r+0xa84>
 1001cc0:	d9c14615 	stw	r7,1304(sp)
 1001cc4:	dcc14715 	stw	r19,1308(sp)
 1001cc8:	d8800407 	ldb	r2,16(sp)
 1001ccc:	103e4c26 	beq	r2,zero,1001600 <___vfprintf_internal_r+0x3c0>
 1001cd0:	d8814617 	ldw	r2,1304(sp)
 1001cd4:	10800044 	addi	r2,r2,1
 1001cd8:	d8814615 	stw	r2,1304(sp)
 1001cdc:	003e4806 	br	1001600 <___vfprintf_internal_r+0x3c0>
 1001ce0:	d9814d17 	ldw	r6,1332(sp)
 1001ce4:	31800414 	ori	r6,r6,16
 1001ce8:	d9814d15 	stw	r6,1332(sp)
 1001cec:	d8c14d17 	ldw	r3,1332(sp)
 1001cf0:	1880080c 	andi	r2,r3,32
 1001cf4:	1001271e 	bne	r2,zero,1002194 <___vfprintf_internal_r+0xf54>
 1001cf8:	d9414d17 	ldw	r5,1332(sp)
 1001cfc:	2880040c 	andi	r2,r5,16
 1001d00:	1002bc1e 	bne	r2,zero,10027f4 <___vfprintf_internal_r+0x15b4>
 1001d04:	d9814d17 	ldw	r6,1332(sp)
 1001d08:	3080100c 	andi	r2,r6,64
 1001d0c:	1002b926 	beq	r2,zero,10027f4 <___vfprintf_internal_r+0x15b4>
 1001d10:	3c00000b 	ldhu	r16,0(r7)
 1001d14:	0009883a 	mov	r4,zero
 1001d18:	39c00104 	addi	r7,r7,4
 1001d1c:	0023883a 	mov	r17,zero
 1001d20:	d9c14115 	stw	r7,1284(sp)
 1001d24:	d8000405 	stb	zero,16(sp)
 1001d28:	003fd306 	br	1001c78 <___vfprintf_internal_r+0xa38>
 1001d2c:	d9014d17 	ldw	r4,1332(sp)
 1001d30:	21000414 	ori	r4,r4,16
 1001d34:	d9014d15 	stw	r4,1332(sp)
 1001d38:	d9414d17 	ldw	r5,1332(sp)
 1001d3c:	2880080c 	andi	r2,r5,32
 1001d40:	1001081e 	bne	r2,zero,1002164 <___vfprintf_internal_r+0xf24>
 1001d44:	d8c14d17 	ldw	r3,1332(sp)
 1001d48:	1880040c 	andi	r2,r3,16
 1001d4c:	1002b61e 	bne	r2,zero,1002828 <___vfprintf_internal_r+0x15e8>
 1001d50:	d9014d17 	ldw	r4,1332(sp)
 1001d54:	2080100c 	andi	r2,r4,64
 1001d58:	1002b326 	beq	r2,zero,1002828 <___vfprintf_internal_r+0x15e8>
 1001d5c:	3c00000b 	ldhu	r16,0(r7)
 1001d60:	01000044 	movi	r4,1
 1001d64:	39c00104 	addi	r7,r7,4
 1001d68:	0023883a 	mov	r17,zero
 1001d6c:	d9c14115 	stw	r7,1284(sp)
 1001d70:	d8000405 	stb	zero,16(sp)
 1001d74:	003fc006 	br	1001c78 <___vfprintf_internal_r+0xa38>
 1001d78:	d9015017 	ldw	r4,1344(sp)
 1001d7c:	b00b883a 	mov	r5,r22
 1001d80:	d9800d04 	addi	r6,sp,52
 1001d84:	10011e80 	call	10011e8 <__sprint_r>
 1001d88:	103ee51e 	bne	r2,zero,1001920 <___vfprintf_internal_r+0x6e0>
 1001d8c:	dc800f17 	ldw	r18,60(sp)
 1001d90:	d8c01a04 	addi	r3,sp,104
 1001d94:	d9814d17 	ldw	r6,1332(sp)
 1001d98:	3080004c 	andi	r2,r6,1
 1001d9c:	1005003a 	cmpeq	r2,r2,zero
 1001da0:	103ea51e 	bne	r2,zero,1001838 <___vfprintf_internal_r+0x5f8>
 1001da4:	00800044 	movi	r2,1
 1001da8:	dc400e17 	ldw	r17,56(sp)
 1001dac:	18800115 	stw	r2,4(r3)
 1001db0:	d8814a17 	ldw	r2,1320(sp)
 1001db4:	94800044 	addi	r18,r18,1
 1001db8:	8c400044 	addi	r17,r17,1
 1001dbc:	18800015 	stw	r2,0(r3)
 1001dc0:	008001c4 	movi	r2,7
 1001dc4:	dc800f15 	stw	r18,60(sp)
 1001dc8:	dc400e15 	stw	r17,56(sp)
 1001dcc:	1442240e 	bge	r2,r17,1002660 <___vfprintf_internal_r+0x1420>
 1001dd0:	d9015017 	ldw	r4,1344(sp)
 1001dd4:	b00b883a 	mov	r5,r22
 1001dd8:	d9800d04 	addi	r6,sp,52
 1001ddc:	10011e80 	call	10011e8 <__sprint_r>
 1001de0:	103ecf1e 	bne	r2,zero,1001920 <___vfprintf_internal_r+0x6e0>
 1001de4:	dc800f17 	ldw	r18,60(sp)
 1001de8:	d8c01a04 	addi	r3,sp,104
 1001dec:	003e9206 	br	1001838 <___vfprintf_internal_r+0x5f8>
 1001df0:	d9015017 	ldw	r4,1344(sp)
 1001df4:	b00b883a 	mov	r5,r22
 1001df8:	d9800d04 	addi	r6,sp,52
 1001dfc:	10011e80 	call	10011e8 <__sprint_r>
 1001e00:	103ec026 	beq	r2,zero,1001904 <___vfprintf_internal_r+0x6c4>
 1001e04:	003ec606 	br	1001920 <___vfprintf_internal_r+0x6e0>
 1001e08:	d9015017 	ldw	r4,1344(sp)
 1001e0c:	b00b883a 	mov	r5,r22
 1001e10:	d9800d04 	addi	r6,sp,52
 1001e14:	d9c15215 	stw	r7,1352(sp)
 1001e18:	10011e80 	call	10011e8 <__sprint_r>
 1001e1c:	d9c15217 	ldw	r7,1352(sp)
 1001e20:	103ebf1e 	bne	r2,zero,1001920 <___vfprintf_internal_r+0x6e0>
 1001e24:	dc800f17 	ldw	r18,60(sp)
 1001e28:	dc400e17 	ldw	r17,56(sp)
 1001e2c:	dd401a04 	addi	r21,sp,104
 1001e30:	003e7406 	br	1001804 <___vfprintf_internal_r+0x5c4>
 1001e34:	d9015017 	ldw	r4,1344(sp)
 1001e38:	b00b883a 	mov	r5,r22
 1001e3c:	d9800d04 	addi	r6,sp,52
 1001e40:	d9c15215 	stw	r7,1352(sp)
 1001e44:	10011e80 	call	10011e8 <__sprint_r>
 1001e48:	d9c15217 	ldw	r7,1352(sp)
 1001e4c:	103eb41e 	bne	r2,zero,1001920 <___vfprintf_internal_r+0x6e0>
 1001e50:	dd401a04 	addi	r21,sp,104
 1001e54:	003d6d06 	br	100140c <___vfprintf_internal_r+0x1cc>
 1001e58:	d9015017 	ldw	r4,1344(sp)
 1001e5c:	b00b883a 	mov	r5,r22
 1001e60:	d9800d04 	addi	r6,sp,52
 1001e64:	d9c15215 	stw	r7,1352(sp)
 1001e68:	10011e80 	call	10011e8 <__sprint_r>
 1001e6c:	d9c15217 	ldw	r7,1352(sp)
 1001e70:	103eab1e 	bne	r2,zero,1001920 <___vfprintf_internal_r+0x6e0>
 1001e74:	dc800f17 	ldw	r18,60(sp)
 1001e78:	dc400e17 	ldw	r17,56(sp)
 1001e7c:	dd401a04 	addi	r21,sp,104
 1001e80:	003e3406 	br	1001754 <___vfprintf_internal_r+0x514>
 1001e84:	d9015017 	ldw	r4,1344(sp)
 1001e88:	b00b883a 	mov	r5,r22
 1001e8c:	d9800d04 	addi	r6,sp,52
 1001e90:	d9c15215 	stw	r7,1352(sp)
 1001e94:	10011e80 	call	10011e8 <__sprint_r>
 1001e98:	d9c15217 	ldw	r7,1352(sp)
 1001e9c:	103ea01e 	bne	r2,zero,1001920 <___vfprintf_internal_r+0x6e0>
 1001ea0:	dc800f17 	ldw	r18,60(sp)
 1001ea4:	dc400e17 	ldw	r17,56(sp)
 1001ea8:	dd401a04 	addi	r21,sp,104
 1001eac:	003e1c06 	br	1001720 <___vfprintf_internal_r+0x4e0>
 1001eb0:	d9015017 	ldw	r4,1344(sp)
 1001eb4:	b00b883a 	mov	r5,r22
 1001eb8:	d9800d04 	addi	r6,sp,52
 1001ebc:	d9c15215 	stw	r7,1352(sp)
 1001ec0:	10011e80 	call	10011e8 <__sprint_r>
 1001ec4:	d9c15217 	ldw	r7,1352(sp)
 1001ec8:	103e951e 	bne	r2,zero,1001920 <___vfprintf_internal_r+0x6e0>
 1001ecc:	dc800f17 	ldw	r18,60(sp)
 1001ed0:	dc400e17 	ldw	r17,56(sp)
 1001ed4:	dd401a04 	addi	r21,sp,104
 1001ed8:	003e0406 	br	10016ec <___vfprintf_internal_r+0x4ac>
 1001edc:	d9000617 	ldw	r4,24(sp)
 1001ee0:	0102580e 	bge	zero,r4,1002844 <___vfprintf_internal_r+0x1604>
 1001ee4:	d9814817 	ldw	r6,1312(sp)
 1001ee8:	21807a16 	blt	r4,r6,10020d4 <___vfprintf_internal_r+0xe94>
 1001eec:	d8814217 	ldw	r2,1288(sp)
 1001ef0:	91a5883a 	add	r18,r18,r6
 1001ef4:	8c400044 	addi	r17,r17,1
 1001ef8:	a8800015 	stw	r2,0(r21)
 1001efc:	008001c4 	movi	r2,7
 1001f00:	a9800115 	stw	r6,4(r21)
 1001f04:	dc800f15 	stw	r18,60(sp)
 1001f08:	dc400e15 	stw	r17,56(sp)
 1001f0c:	1442fc16 	blt	r2,r17,1002b00 <___vfprintf_internal_r+0x18c0>
 1001f10:	a8c00204 	addi	r3,r21,8
 1001f14:	d9414817 	ldw	r5,1312(sp)
 1001f18:	2161c83a 	sub	r16,r4,r5
 1001f1c:	043f9d0e 	bge	zero,r16,1001d94 <___vfprintf_internal_r+0xb54>
 1001f20:	00800404 	movi	r2,16
 1001f24:	1402190e 	bge	r2,r16,100278c <___vfprintf_internal_r+0x154c>
 1001f28:	dc400e17 	ldw	r17,56(sp)
 1001f2c:	1027883a 	mov	r19,r2
 1001f30:	07004074 	movhi	fp,257
 1001f34:	e7370c04 	addi	fp,fp,-9168
 1001f38:	050001c4 	movi	r20,7
 1001f3c:	00000306 	br	1001f4c <___vfprintf_internal_r+0xd0c>
 1001f40:	18c00204 	addi	r3,r3,8
 1001f44:	843ffc04 	addi	r16,r16,-16
 1001f48:	9c02130e 	bge	r19,r16,1002798 <___vfprintf_internal_r+0x1558>
 1001f4c:	94800404 	addi	r18,r18,16
 1001f50:	8c400044 	addi	r17,r17,1
 1001f54:	1f000015 	stw	fp,0(r3)
 1001f58:	1cc00115 	stw	r19,4(r3)
 1001f5c:	dc800f15 	stw	r18,60(sp)
 1001f60:	dc400e15 	stw	r17,56(sp)
 1001f64:	a47ff60e 	bge	r20,r17,1001f40 <___vfprintf_internal_r+0xd00>
 1001f68:	d9015017 	ldw	r4,1344(sp)
 1001f6c:	b00b883a 	mov	r5,r22
 1001f70:	d9800d04 	addi	r6,sp,52
 1001f74:	10011e80 	call	10011e8 <__sprint_r>
 1001f78:	103e691e 	bne	r2,zero,1001920 <___vfprintf_internal_r+0x6e0>
 1001f7c:	dc800f17 	ldw	r18,60(sp)
 1001f80:	dc400e17 	ldw	r17,56(sp)
 1001f84:	d8c01a04 	addi	r3,sp,104
 1001f88:	003fee06 	br	1001f44 <___vfprintf_internal_r+0xd04>
 1001f8c:	d8814817 	ldw	r2,1312(sp)
 1001f90:	143fffc4 	addi	r16,r2,-1
 1001f94:	043e970e 	bge	zero,r16,10019f4 <___vfprintf_internal_r+0x7b4>
 1001f98:	00800404 	movi	r2,16
 1001f9c:	1400180e 	bge	r2,r16,1002000 <___vfprintf_internal_r+0xdc0>
 1001fa0:	1029883a 	mov	r20,r2
 1001fa4:	07004074 	movhi	fp,257
 1001fa8:	e7370c04 	addi	fp,fp,-9168
 1001fac:	054001c4 	movi	r21,7
 1001fb0:	00000306 	br	1001fc0 <___vfprintf_internal_r+0xd80>
 1001fb4:	9cc00204 	addi	r19,r19,8
 1001fb8:	843ffc04 	addi	r16,r16,-16
 1001fbc:	a400120e 	bge	r20,r16,1002008 <___vfprintf_internal_r+0xdc8>
 1001fc0:	94800404 	addi	r18,r18,16
 1001fc4:	8c400044 	addi	r17,r17,1
 1001fc8:	9f000015 	stw	fp,0(r19)
 1001fcc:	9d000115 	stw	r20,4(r19)
 1001fd0:	dc800f15 	stw	r18,60(sp)
 1001fd4:	dc400e15 	stw	r17,56(sp)
 1001fd8:	ac7ff60e 	bge	r21,r17,1001fb4 <___vfprintf_internal_r+0xd74>
 1001fdc:	d9015017 	ldw	r4,1344(sp)
 1001fe0:	b00b883a 	mov	r5,r22
 1001fe4:	d9800d04 	addi	r6,sp,52
 1001fe8:	10011e80 	call	10011e8 <__sprint_r>
 1001fec:	103e4c1e 	bne	r2,zero,1001920 <___vfprintf_internal_r+0x6e0>
 1001ff0:	dc800f17 	ldw	r18,60(sp)
 1001ff4:	dc400e17 	ldw	r17,56(sp)
 1001ff8:	dcc01a04 	addi	r19,sp,104
 1001ffc:	003fee06 	br	1001fb8 <___vfprintf_internal_r+0xd78>
 1002000:	07004074 	movhi	fp,257
 1002004:	e7370c04 	addi	fp,fp,-9168
 1002008:	9425883a 	add	r18,r18,r16
 100200c:	8c400044 	addi	r17,r17,1
 1002010:	008001c4 	movi	r2,7
 1002014:	9f000015 	stw	fp,0(r19)
 1002018:	9c000115 	stw	r16,4(r19)
 100201c:	dc800f15 	stw	r18,60(sp)
 1002020:	dc400e15 	stw	r17,56(sp)
 1002024:	147e720e 	bge	r2,r17,10019f0 <___vfprintf_internal_r+0x7b0>
 1002028:	d9015017 	ldw	r4,1344(sp)
 100202c:	b00b883a 	mov	r5,r22
 1002030:	d9800d04 	addi	r6,sp,52
 1002034:	10011e80 	call	10011e8 <__sprint_r>
 1002038:	103e391e 	bne	r2,zero,1001920 <___vfprintf_internal_r+0x6e0>
 100203c:	dc800f17 	ldw	r18,60(sp)
 1002040:	dc400e17 	ldw	r17,56(sp)
 1002044:	dcc01a04 	addi	r19,sp,104
 1002048:	003e6a06 	br	10019f4 <___vfprintf_internal_r+0x7b4>
 100204c:	d9015017 	ldw	r4,1344(sp)
 1002050:	b00b883a 	mov	r5,r22
 1002054:	d9800d04 	addi	r6,sp,52
 1002058:	d9c15215 	stw	r7,1352(sp)
 100205c:	10011e80 	call	10011e8 <__sprint_r>
 1002060:	d9c15217 	ldw	r7,1352(sp)
 1002064:	103e2e1e 	bne	r2,zero,1001920 <___vfprintf_internal_r+0x6e0>
 1002068:	dc800f17 	ldw	r18,60(sp)
 100206c:	dc400e17 	ldw	r17,56(sp)
 1002070:	dd401a04 	addi	r21,sp,104
 1002074:	003dba06 	br	1001760 <___vfprintf_internal_r+0x520>
 1002078:	d9015017 	ldw	r4,1344(sp)
 100207c:	b00b883a 	mov	r5,r22
 1002080:	d9800d04 	addi	r6,sp,52
 1002084:	10011e80 	call	10011e8 <__sprint_r>
 1002088:	103e251e 	bne	r2,zero,1001920 <___vfprintf_internal_r+0x6e0>
 100208c:	dc800f17 	ldw	r18,60(sp)
 1002090:	dc400e17 	ldw	r17,56(sp)
 1002094:	dcc01a04 	addi	r19,sp,104
 1002098:	003e4206 	br	10019a4 <___vfprintf_internal_r+0x764>
 100209c:	d9015017 	ldw	r4,1344(sp)
 10020a0:	b00b883a 	mov	r5,r22
 10020a4:	d9800d04 	addi	r6,sp,52
 10020a8:	10011e80 	call	10011e8 <__sprint_r>
 10020ac:	103e1c1e 	bne	r2,zero,1001920 <___vfprintf_internal_r+0x6e0>
 10020b0:	dc800f17 	ldw	r18,60(sp)
 10020b4:	dc400e17 	ldw	r17,56(sp)
 10020b8:	d8c01a04 	addi	r3,sp,104
 10020bc:	003e2e06 	br	1001978 <___vfprintf_internal_r+0x738>
 10020c0:	d9414d17 	ldw	r5,1332(sp)
 10020c4:	2880004c 	andi	r2,r5,1
 10020c8:	1005003a 	cmpeq	r2,r2,zero
 10020cc:	103dda1e 	bne	r2,zero,1001838 <___vfprintf_internal_r+0x5f8>
 10020d0:	003e9f06 	br	1001b50 <___vfprintf_internal_r+0x910>
 10020d4:	d8c14217 	ldw	r3,1288(sp)
 10020d8:	9125883a 	add	r18,r18,r4
 10020dc:	8c400044 	addi	r17,r17,1
 10020e0:	008001c4 	movi	r2,7
 10020e4:	a8c00015 	stw	r3,0(r21)
 10020e8:	a9000115 	stw	r4,4(r21)
 10020ec:	dc800f15 	stw	r18,60(sp)
 10020f0:	dc400e15 	stw	r17,56(sp)
 10020f4:	14426c16 	blt	r2,r17,1002aa8 <___vfprintf_internal_r+0x1868>
 10020f8:	a8c00204 	addi	r3,r21,8
 10020fc:	d9414a17 	ldw	r5,1320(sp)
 1002100:	00800044 	movi	r2,1
 1002104:	94800044 	addi	r18,r18,1
 1002108:	8c400044 	addi	r17,r17,1
 100210c:	18800115 	stw	r2,4(r3)
 1002110:	008001c4 	movi	r2,7
 1002114:	19400015 	stw	r5,0(r3)
 1002118:	dc800f15 	stw	r18,60(sp)
 100211c:	dc400e15 	stw	r17,56(sp)
 1002120:	2021883a 	mov	r16,r4
 1002124:	14425616 	blt	r2,r17,1002a80 <___vfprintf_internal_r+0x1840>
 1002128:	19400204 	addi	r5,r3,8
 100212c:	d9814817 	ldw	r6,1312(sp)
 1002130:	8c400044 	addi	r17,r17,1
 1002134:	dc400e15 	stw	r17,56(sp)
 1002138:	3107c83a 	sub	r3,r6,r4
 100213c:	d9014217 	ldw	r4,1288(sp)
 1002140:	90e5883a 	add	r18,r18,r3
 1002144:	28c00115 	stw	r3,4(r5)
 1002148:	8105883a 	add	r2,r16,r4
 100214c:	28800015 	stw	r2,0(r5)
 1002150:	008001c4 	movi	r2,7
 1002154:	dc800f15 	stw	r18,60(sp)
 1002158:	147f1d16 	blt	r2,r17,1001dd0 <___vfprintf_internal_r+0xb90>
 100215c:	28c00204 	addi	r3,r5,8
 1002160:	003db506 	br	1001838 <___vfprintf_internal_r+0x5f8>
 1002164:	3c000017 	ldw	r16,0(r7)
 1002168:	3c400117 	ldw	r17,4(r7)
 100216c:	39800204 	addi	r6,r7,8
 1002170:	01000044 	movi	r4,1
 1002174:	d9814115 	stw	r6,1284(sp)
 1002178:	d8000405 	stb	zero,16(sp)
 100217c:	003ebe06 	br	1001c78 <___vfprintf_internal_r+0xa38>
 1002180:	3c000017 	ldw	r16,0(r7)
 1002184:	3c400117 	ldw	r17,4(r7)
 1002188:	38800204 	addi	r2,r7,8
 100218c:	d8814115 	stw	r2,1284(sp)
 1002190:	003eb706 	br	1001c70 <___vfprintf_internal_r+0xa30>
 1002194:	3c000017 	ldw	r16,0(r7)
 1002198:	3c400117 	ldw	r17,4(r7)
 100219c:	39000204 	addi	r4,r7,8
 10021a0:	d9014115 	stw	r4,1284(sp)
 10021a4:	0009883a 	mov	r4,zero
 10021a8:	d8000405 	stb	zero,16(sp)
 10021ac:	003eb206 	br	1001c78 <___vfprintf_internal_r+0xa38>
 10021b0:	38c00017 	ldw	r3,0(r7)
 10021b4:	39c00104 	addi	r7,r7,4
 10021b8:	d8c14b15 	stw	r3,1324(sp)
 10021bc:	1800d70e 	bge	r3,zero,100251c <___vfprintf_internal_r+0x12dc>
 10021c0:	00c7c83a 	sub	r3,zero,r3
 10021c4:	d8c14b15 	stw	r3,1324(sp)
 10021c8:	d9014d17 	ldw	r4,1332(sp)
 10021cc:	b8c00007 	ldb	r3,0(r23)
 10021d0:	21000114 	ori	r4,r4,4
 10021d4:	d9014d15 	stw	r4,1332(sp)
 10021d8:	003c9806 	br	100143c <___vfprintf_internal_r+0x1fc>
 10021dc:	d9814d17 	ldw	r6,1332(sp)
 10021e0:	3080080c 	andi	r2,r6,32
 10021e4:	1001f626 	beq	r2,zero,10029c0 <___vfprintf_internal_r+0x1780>
 10021e8:	d9014c17 	ldw	r4,1328(sp)
 10021ec:	38800017 	ldw	r2,0(r7)
 10021f0:	39c00104 	addi	r7,r7,4
 10021f4:	d9c14115 	stw	r7,1284(sp)
 10021f8:	2007d7fa 	srai	r3,r4,31
 10021fc:	d9c14117 	ldw	r7,1284(sp)
 1002200:	11000015 	stw	r4,0(r2)
 1002204:	10c00115 	stw	r3,4(r2)
 1002208:	003c6906 	br	10013b0 <___vfprintf_internal_r+0x170>
 100220c:	b8c00007 	ldb	r3,0(r23)
 1002210:	00801b04 	movi	r2,108
 1002214:	18825526 	beq	r3,r2,1002b6c <___vfprintf_internal_r+0x192c>
 1002218:	d9414d17 	ldw	r5,1332(sp)
 100221c:	29400414 	ori	r5,r5,16
 1002220:	d9414d15 	stw	r5,1332(sp)
 1002224:	003c8506 	br	100143c <___vfprintf_internal_r+0x1fc>
 1002228:	d9814d17 	ldw	r6,1332(sp)
 100222c:	b8c00007 	ldb	r3,0(r23)
 1002230:	31800814 	ori	r6,r6,32
 1002234:	d9814d15 	stw	r6,1332(sp)
 1002238:	003c8006 	br	100143c <___vfprintf_internal_r+0x1fc>
 100223c:	d8814d17 	ldw	r2,1332(sp)
 1002240:	3c000017 	ldw	r16,0(r7)
 1002244:	00c01e04 	movi	r3,120
 1002248:	10800094 	ori	r2,r2,2
 100224c:	d8814d15 	stw	r2,1332(sp)
 1002250:	39c00104 	addi	r7,r7,4
 1002254:	01404074 	movhi	r5,257
 1002258:	2976f404 	addi	r5,r5,-9264
 100225c:	00800c04 	movi	r2,48
 1002260:	0023883a 	mov	r17,zero
 1002264:	01000084 	movi	r4,2
 1002268:	d9c14115 	stw	r7,1284(sp)
 100226c:	d8c14e15 	stw	r3,1336(sp)
 1002270:	d9414515 	stw	r5,1300(sp)
 1002274:	d8800505 	stb	r2,20(sp)
 1002278:	d8c00545 	stb	r3,21(sp)
 100227c:	d8000405 	stb	zero,16(sp)
 1002280:	003e7d06 	br	1001c78 <___vfprintf_internal_r+0xa38>
 1002284:	d8814d17 	ldw	r2,1332(sp)
 1002288:	b8c00007 	ldb	r3,0(r23)
 100228c:	10801014 	ori	r2,r2,64
 1002290:	d8814d15 	stw	r2,1332(sp)
 1002294:	003c6906 	br	100143c <___vfprintf_internal_r+0x1fc>
 1002298:	d9414d17 	ldw	r5,1332(sp)
 100229c:	2880020c 	andi	r2,r5,8
 10022a0:	1001e526 	beq	r2,zero,1002a38 <___vfprintf_internal_r+0x17f8>
 10022a4:	39800017 	ldw	r6,0(r7)
 10022a8:	38800204 	addi	r2,r7,8
 10022ac:	d8814115 	stw	r2,1284(sp)
 10022b0:	d9814315 	stw	r6,1292(sp)
 10022b4:	39c00117 	ldw	r7,4(r7)
 10022b8:	d9c14415 	stw	r7,1296(sp)
 10022bc:	d9014317 	ldw	r4,1292(sp)
 10022c0:	d9414417 	ldw	r5,1296(sp)
 10022c4:	1007d640 	call	1007d64 <__isinfd>
 10022c8:	10021d26 	beq	r2,zero,1002b40 <___vfprintf_internal_r+0x1900>
 10022cc:	d9014317 	ldw	r4,1292(sp)
 10022d0:	d9414417 	ldw	r5,1296(sp)
 10022d4:	000d883a 	mov	r6,zero
 10022d8:	000f883a 	mov	r7,zero
 10022dc:	100a0980 	call	100a098 <__ltdf2>
 10022e0:	1002d016 	blt	r2,zero,1002e24 <___vfprintf_internal_r+0x1be4>
 10022e4:	d9414e17 	ldw	r5,1336(sp)
 10022e8:	008011c4 	movi	r2,71
 10022ec:	11421016 	blt	r2,r5,1002b30 <___vfprintf_internal_r+0x18f0>
 10022f0:	01804074 	movhi	r6,257
 10022f4:	31b6f904 	addi	r6,r6,-9244
 10022f8:	d9814215 	stw	r6,1288(sp)
 10022fc:	d9014d17 	ldw	r4,1332(sp)
 1002300:	00c000c4 	movi	r3,3
 1002304:	00bfdfc4 	movi	r2,-129
 1002308:	2088703a 	and	r4,r4,r2
 100230c:	180f883a 	mov	r7,r3
 1002310:	d8c14615 	stw	r3,1304(sp)
 1002314:	d9014d15 	stw	r4,1332(sp)
 1002318:	d8014715 	stw	zero,1308(sp)
 100231c:	003e6a06 	br	1001cc8 <___vfprintf_internal_r+0xa88>
 1002320:	38800017 	ldw	r2,0(r7)
 1002324:	00c00044 	movi	r3,1
 1002328:	39c00104 	addi	r7,r7,4
 100232c:	d9c14115 	stw	r7,1284(sp)
 1002330:	d9001004 	addi	r4,sp,64
 1002334:	180f883a 	mov	r7,r3
 1002338:	d8c14615 	stw	r3,1304(sp)
 100233c:	d9014215 	stw	r4,1288(sp)
 1002340:	d8801005 	stb	r2,64(sp)
 1002344:	d8000405 	stb	zero,16(sp)
 1002348:	003cac06 	br	10015fc <___vfprintf_internal_r+0x3bc>
 100234c:	01404074 	movhi	r5,257
 1002350:	2976ff04 	addi	r5,r5,-9220
 1002354:	d9414515 	stw	r5,1300(sp)
 1002358:	d9814d17 	ldw	r6,1332(sp)
 100235c:	3080080c 	andi	r2,r6,32
 1002360:	1000ff26 	beq	r2,zero,1002760 <___vfprintf_internal_r+0x1520>
 1002364:	3c000017 	ldw	r16,0(r7)
 1002368:	3c400117 	ldw	r17,4(r7)
 100236c:	38800204 	addi	r2,r7,8
 1002370:	d8814115 	stw	r2,1284(sp)
 1002374:	d9414d17 	ldw	r5,1332(sp)
 1002378:	2880004c 	andi	r2,r5,1
 100237c:	1005003a 	cmpeq	r2,r2,zero
 1002380:	1000b91e 	bne	r2,zero,1002668 <___vfprintf_internal_r+0x1428>
 1002384:	8444b03a 	or	r2,r16,r17
 1002388:	1000b726 	beq	r2,zero,1002668 <___vfprintf_internal_r+0x1428>
 100238c:	d9814e17 	ldw	r6,1336(sp)
 1002390:	29400094 	ori	r5,r5,2
 1002394:	00800c04 	movi	r2,48
 1002398:	01000084 	movi	r4,2
 100239c:	d9414d15 	stw	r5,1332(sp)
 10023a0:	d8800505 	stb	r2,20(sp)
 10023a4:	d9800545 	stb	r6,21(sp)
 10023a8:	d8000405 	stb	zero,16(sp)
 10023ac:	003e3206 	br	1001c78 <___vfprintf_internal_r+0xa38>
 10023b0:	01804074 	movhi	r6,257
 10023b4:	31b6f404 	addi	r6,r6,-9264
 10023b8:	d9814515 	stw	r6,1300(sp)
 10023bc:	003fe606 	br	1002358 <___vfprintf_internal_r+0x1118>
 10023c0:	00800ac4 	movi	r2,43
 10023c4:	d8800405 	stb	r2,16(sp)
 10023c8:	b8c00007 	ldb	r3,0(r23)
 10023cc:	003c1b06 	br	100143c <___vfprintf_internal_r+0x1fc>
 10023d0:	d8814d17 	ldw	r2,1332(sp)
 10023d4:	b8c00007 	ldb	r3,0(r23)
 10023d8:	10800054 	ori	r2,r2,1
 10023dc:	d8814d15 	stw	r2,1332(sp)
 10023e0:	003c1606 	br	100143c <___vfprintf_internal_r+0x1fc>
 10023e4:	d8800407 	ldb	r2,16(sp)
 10023e8:	10004c1e 	bne	r2,zero,100251c <___vfprintf_internal_r+0x12dc>
 10023ec:	00800804 	movi	r2,32
 10023f0:	d8800405 	stb	r2,16(sp)
 10023f4:	b8c00007 	ldb	r3,0(r23)
 10023f8:	003c1006 	br	100143c <___vfprintf_internal_r+0x1fc>
 10023fc:	d9814d17 	ldw	r6,1332(sp)
 1002400:	b8c00007 	ldb	r3,0(r23)
 1002404:	31800214 	ori	r6,r6,8
 1002408:	d9814d15 	stw	r6,1332(sp)
 100240c:	003c0b06 	br	100143c <___vfprintf_internal_r+0x1fc>
 1002410:	0009883a 	mov	r4,zero
 1002414:	04000244 	movi	r16,9
 1002418:	01400284 	movi	r5,10
 100241c:	d9c15215 	stw	r7,1352(sp)
 1002420:	1000a8c0 	call	1000a8c <__mulsi3>
 1002424:	b9000007 	ldb	r4,0(r23)
 1002428:	d8c14e17 	ldw	r3,1336(sp)
 100242c:	bdc00044 	addi	r23,r23,1
 1002430:	d9014e15 	stw	r4,1336(sp)
 1002434:	d9414e17 	ldw	r5,1336(sp)
 1002438:	1885883a 	add	r2,r3,r2
 100243c:	113ff404 	addi	r4,r2,-48
 1002440:	28bff404 	addi	r2,r5,-48
 1002444:	d9c15217 	ldw	r7,1352(sp)
 1002448:	80bff32e 	bgeu	r16,r2,1002418 <___vfprintf_internal_r+0x11d8>
 100244c:	d9014b15 	stw	r4,1324(sp)
 1002450:	003bfc06 	br	1001444 <___vfprintf_internal_r+0x204>
 1002454:	d8814d17 	ldw	r2,1332(sp)
 1002458:	b8c00007 	ldb	r3,0(r23)
 100245c:	10802014 	ori	r2,r2,128
 1002460:	d8814d15 	stw	r2,1332(sp)
 1002464:	003bf506 	br	100143c <___vfprintf_internal_r+0x1fc>
 1002468:	b8c00007 	ldb	r3,0(r23)
 100246c:	00800a84 	movi	r2,42
 1002470:	bdc00044 	addi	r23,r23,1
 1002474:	18831826 	beq	r3,r2,10030d8 <___vfprintf_internal_r+0x1e98>
 1002478:	d8c14e15 	stw	r3,1336(sp)
 100247c:	18bff404 	addi	r2,r3,-48
 1002480:	00c00244 	movi	r3,9
 1002484:	18827b36 	bltu	r3,r2,1002e74 <___vfprintf_internal_r+0x1c34>
 1002488:	1821883a 	mov	r16,r3
 100248c:	0009883a 	mov	r4,zero
 1002490:	01400284 	movi	r5,10
 1002494:	d9c15215 	stw	r7,1352(sp)
 1002498:	1000a8c0 	call	1000a8c <__mulsi3>
 100249c:	d9414e17 	ldw	r5,1336(sp)
 10024a0:	b9800007 	ldb	r6,0(r23)
 10024a4:	d9c15217 	ldw	r7,1352(sp)
 10024a8:	1145883a 	add	r2,r2,r5
 10024ac:	113ff404 	addi	r4,r2,-48
 10024b0:	30bff404 	addi	r2,r6,-48
 10024b4:	d9814e15 	stw	r6,1336(sp)
 10024b8:	bdc00044 	addi	r23,r23,1
 10024bc:	80bff42e 	bgeu	r16,r2,1002490 <___vfprintf_internal_r+0x1250>
 10024c0:	2027883a 	mov	r19,r4
 10024c4:	203bdf0e 	bge	r4,zero,1001444 <___vfprintf_internal_r+0x204>
 10024c8:	04ffffc4 	movi	r19,-1
 10024cc:	003bdd06 	br	1001444 <___vfprintf_internal_r+0x204>
 10024d0:	d8000405 	stb	zero,16(sp)
 10024d4:	39800017 	ldw	r6,0(r7)
 10024d8:	39c00104 	addi	r7,r7,4
 10024dc:	d9c14115 	stw	r7,1284(sp)
 10024e0:	d9814215 	stw	r6,1288(sp)
 10024e4:	3001c926 	beq	r6,zero,1002c0c <___vfprintf_internal_r+0x19cc>
 10024e8:	98000e16 	blt	r19,zero,1002524 <___vfprintf_internal_r+0x12e4>
 10024ec:	d9014217 	ldw	r4,1288(sp)
 10024f0:	000b883a 	mov	r5,zero
 10024f4:	980d883a 	mov	r6,r19
 10024f8:	10063e80 	call	10063e8 <memchr>
 10024fc:	10025926 	beq	r2,zero,1002e64 <___vfprintf_internal_r+0x1c24>
 1002500:	d8c14217 	ldw	r3,1288(sp)
 1002504:	10cfc83a 	sub	r7,r2,r3
 1002508:	99c19e16 	blt	r19,r7,1002b84 <___vfprintf_internal_r+0x1944>
 100250c:	d9c14615 	stw	r7,1304(sp)
 1002510:	38000916 	blt	r7,zero,1002538 <___vfprintf_internal_r+0x12f8>
 1002514:	d8014715 	stw	zero,1308(sp)
 1002518:	003deb06 	br	1001cc8 <___vfprintf_internal_r+0xa88>
 100251c:	b8c00007 	ldb	r3,0(r23)
 1002520:	003bc606 	br	100143c <___vfprintf_internal_r+0x1fc>
 1002524:	d9014217 	ldw	r4,1288(sp)
 1002528:	100804c0 	call	100804c <strlen>
 100252c:	d8814615 	stw	r2,1304(sp)
 1002530:	100f883a 	mov	r7,r2
 1002534:	103ff70e 	bge	r2,zero,1002514 <___vfprintf_internal_r+0x12d4>
 1002538:	d8014615 	stw	zero,1304(sp)
 100253c:	d8014715 	stw	zero,1308(sp)
 1002540:	003de106 	br	1001cc8 <___vfprintf_internal_r+0xa88>
 1002544:	20c03fcc 	andi	r3,r4,255
 1002548:	00800044 	movi	r2,1
 100254c:	18802d26 	beq	r3,r2,1002604 <___vfprintf_internal_r+0x13c4>
 1002550:	18800e36 	bltu	r3,r2,100258c <___vfprintf_internal_r+0x134c>
 1002554:	00800084 	movi	r2,2
 1002558:	1880fa26 	beq	r3,r2,1002944 <___vfprintf_internal_r+0x1704>
 100255c:	01004074 	movhi	r4,257
 1002560:	21370404 	addi	r4,r4,-9200
 1002564:	100804c0 	call	100804c <strlen>
 1002568:	100f883a 	mov	r7,r2
 100256c:	dcc14615 	stw	r19,1304(sp)
 1002570:	9880010e 	bge	r19,r2,1002578 <___vfprintf_internal_r+0x1338>
 1002574:	d8814615 	stw	r2,1304(sp)
 1002578:	00804074 	movhi	r2,257
 100257c:	10b70404 	addi	r2,r2,-9200
 1002580:	dcc14715 	stw	r19,1308(sp)
 1002584:	d8814215 	stw	r2,1288(sp)
 1002588:	003dcf06 	br	1001cc8 <___vfprintf_internal_r+0xa88>
 100258c:	d9401a04 	addi	r5,sp,104
 1002590:	dd001004 	addi	r20,sp,64
 1002594:	d9414215 	stw	r5,1288(sp)
 1002598:	880a977a 	slli	r5,r17,29
 100259c:	d9814217 	ldw	r6,1288(sp)
 10025a0:	8004d0fa 	srli	r2,r16,3
 10025a4:	8806d0fa 	srli	r3,r17,3
 10025a8:	810001cc 	andi	r4,r16,7
 10025ac:	2884b03a 	or	r2,r5,r2
 10025b0:	31bfffc4 	addi	r6,r6,-1
 10025b4:	21000c04 	addi	r4,r4,48
 10025b8:	d9814215 	stw	r6,1288(sp)
 10025bc:	10cab03a 	or	r5,r2,r3
 10025c0:	31000005 	stb	r4,0(r6)
 10025c4:	1021883a 	mov	r16,r2
 10025c8:	1823883a 	mov	r17,r3
 10025cc:	283ff21e 	bne	r5,zero,1002598 <___vfprintf_internal_r+0x1358>
 10025d0:	d8c14d17 	ldw	r3,1332(sp)
 10025d4:	1880004c 	andi	r2,r3,1
 10025d8:	1005003a 	cmpeq	r2,r2,zero
 10025dc:	103db31e 	bne	r2,zero,1001cac <___vfprintf_internal_r+0xa6c>
 10025e0:	20803fcc 	andi	r2,r4,255
 10025e4:	1080201c 	xori	r2,r2,128
 10025e8:	10bfe004 	addi	r2,r2,-128
 10025ec:	00c00c04 	movi	r3,48
 10025f0:	10fdae26 	beq	r2,r3,1001cac <___vfprintf_internal_r+0xa6c>
 10025f4:	31bfffc4 	addi	r6,r6,-1
 10025f8:	d9814215 	stw	r6,1288(sp)
 10025fc:	30c00005 	stb	r3,0(r6)
 1002600:	003daa06 	br	1001cac <___vfprintf_internal_r+0xa6c>
 1002604:	88800068 	cmpgeui	r2,r17,1
 1002608:	10002c1e 	bne	r2,zero,10026bc <___vfprintf_internal_r+0x147c>
 100260c:	8800021e 	bne	r17,zero,1002618 <___vfprintf_internal_r+0x13d8>
 1002610:	00800244 	movi	r2,9
 1002614:	14002936 	bltu	r2,r16,10026bc <___vfprintf_internal_r+0x147c>
 1002618:	d90019c4 	addi	r4,sp,103
 100261c:	dd001004 	addi	r20,sp,64
 1002620:	d9014215 	stw	r4,1288(sp)
 1002624:	d9014217 	ldw	r4,1288(sp)
 1002628:	80800c04 	addi	r2,r16,48
 100262c:	20800005 	stb	r2,0(r4)
 1002630:	003d9e06 	br	1001cac <___vfprintf_internal_r+0xa6c>
 1002634:	dc400e17 	ldw	r17,56(sp)
 1002638:	07004074 	movhi	fp,257
 100263c:	e7370c04 	addi	fp,fp,-9168
 1002640:	9425883a 	add	r18,r18,r16
 1002644:	8c400044 	addi	r17,r17,1
 1002648:	008001c4 	movi	r2,7
 100264c:	1f000015 	stw	fp,0(r3)
 1002650:	1c000115 	stw	r16,4(r3)
 1002654:	dc800f15 	stw	r18,60(sp)
 1002658:	dc400e15 	stw	r17,56(sp)
 100265c:	147ddc16 	blt	r2,r17,1001dd0 <___vfprintf_internal_r+0xb90>
 1002660:	18c00204 	addi	r3,r3,8
 1002664:	003c7406 	br	1001838 <___vfprintf_internal_r+0x5f8>
 1002668:	01000084 	movi	r4,2
 100266c:	d8000405 	stb	zero,16(sp)
 1002670:	003d8106 	br	1001c78 <___vfprintf_internal_r+0xa38>
 1002674:	d9814d17 	ldw	r6,1332(sp)
 1002678:	30c4703a 	and	r2,r6,r3
 100267c:	1005003a 	cmpeq	r2,r2,zero
 1002680:	103cb326 	beq	r2,zero,1001950 <___vfprintf_internal_r+0x710>
 1002684:	d9014217 	ldw	r4,1288(sp)
 1002688:	94800044 	addi	r18,r18,1
 100268c:	8c400044 	addi	r17,r17,1
 1002690:	008001c4 	movi	r2,7
 1002694:	a9000015 	stw	r4,0(r21)
 1002698:	a8c00115 	stw	r3,4(r21)
 100269c:	dc800f15 	stw	r18,60(sp)
 10026a0:	dc400e15 	stw	r17,56(sp)
 10026a4:	147e6016 	blt	r2,r17,1002028 <___vfprintf_internal_r+0xde8>
 10026a8:	acc00204 	addi	r19,r21,8
 10026ac:	003cd106 	br	10019f4 <___vfprintf_internal_r+0x7b4>
 10026b0:	07004074 	movhi	fp,257
 10026b4:	e7370c04 	addi	fp,fp,-9168
 10026b8:	003c4906 	br	10017e0 <___vfprintf_internal_r+0x5a0>
 10026bc:	dd001004 	addi	r20,sp,64
 10026c0:	dc801a04 	addi	r18,sp,104
 10026c4:	8009883a 	mov	r4,r16
 10026c8:	880b883a 	mov	r5,r17
 10026cc:	01800284 	movi	r6,10
 10026d0:	000f883a 	mov	r7,zero
 10026d4:	1008cf80 	call	1008cf8 <__umoddi3>
 10026d8:	12000c04 	addi	r8,r2,48
 10026dc:	94bfffc4 	addi	r18,r18,-1
 10026e0:	8009883a 	mov	r4,r16
 10026e4:	880b883a 	mov	r5,r17
 10026e8:	01800284 	movi	r6,10
 10026ec:	000f883a 	mov	r7,zero
 10026f0:	92000005 	stb	r8,0(r18)
 10026f4:	100868c0 	call	100868c <__udivdi3>
 10026f8:	1009883a 	mov	r4,r2
 10026fc:	1021883a 	mov	r16,r2
 1002700:	18800068 	cmpgeui	r2,r3,1
 1002704:	1823883a 	mov	r17,r3
 1002708:	103fee1e 	bne	r2,zero,10026c4 <___vfprintf_internal_r+0x1484>
 100270c:	1800021e 	bne	r3,zero,1002718 <___vfprintf_internal_r+0x14d8>
 1002710:	00800244 	movi	r2,9
 1002714:	113feb36 	bltu	r2,r4,10026c4 <___vfprintf_internal_r+0x1484>
 1002718:	94bfffc4 	addi	r18,r18,-1
 100271c:	dc814215 	stw	r18,1288(sp)
 1002720:	003fc006 	br	1002624 <___vfprintf_internal_r+0x13e4>
 1002724:	d9014d17 	ldw	r4,1332(sp)
 1002728:	2080004c 	andi	r2,r4,1
 100272c:	10009a1e 	bne	r2,zero,1002998 <___vfprintf_internal_r+0x1758>
 1002730:	d9401a04 	addi	r5,sp,104
 1002734:	dd001004 	addi	r20,sp,64
 1002738:	d9414215 	stw	r5,1288(sp)
 100273c:	003d5b06 	br	1001cac <___vfprintf_internal_r+0xa6c>
 1002740:	d9015017 	ldw	r4,1344(sp)
 1002744:	b00b883a 	mov	r5,r22
 1002748:	d9800d04 	addi	r6,sp,52
 100274c:	10011e80 	call	10011e8 <__sprint_r>
 1002750:	103c731e 	bne	r2,zero,1001920 <___vfprintf_internal_r+0x6e0>
 1002754:	dc800f17 	ldw	r18,60(sp)
 1002758:	d8c01a04 	addi	r3,sp,104
 100275c:	003cf906 	br	1001b44 <___vfprintf_internal_r+0x904>
 1002760:	d8c14d17 	ldw	r3,1332(sp)
 1002764:	1880040c 	andi	r2,r3,16
 1002768:	1000711e 	bne	r2,zero,1002930 <___vfprintf_internal_r+0x16f0>
 100276c:	d9014d17 	ldw	r4,1332(sp)
 1002770:	2080100c 	andi	r2,r4,64
 1002774:	10006e26 	beq	r2,zero,1002930 <___vfprintf_internal_r+0x16f0>
 1002778:	3c00000b 	ldhu	r16,0(r7)
 100277c:	0023883a 	mov	r17,zero
 1002780:	39c00104 	addi	r7,r7,4
 1002784:	d9c14115 	stw	r7,1284(sp)
 1002788:	003efa06 	br	1002374 <___vfprintf_internal_r+0x1134>
 100278c:	dc400e17 	ldw	r17,56(sp)
 1002790:	07004074 	movhi	fp,257
 1002794:	e7370c04 	addi	fp,fp,-9168
 1002798:	9425883a 	add	r18,r18,r16
 100279c:	8c400044 	addi	r17,r17,1
 10027a0:	008001c4 	movi	r2,7
 10027a4:	1f000015 	stw	fp,0(r3)
 10027a8:	1c000115 	stw	r16,4(r3)
 10027ac:	dc800f15 	stw	r18,60(sp)
 10027b0:	dc400e15 	stw	r17,56(sp)
 10027b4:	147d7016 	blt	r2,r17,1001d78 <___vfprintf_internal_r+0xb38>
 10027b8:	18c00204 	addi	r3,r3,8
 10027bc:	003d7506 	br	1001d94 <___vfprintf_internal_r+0xb54>
 10027c0:	dc800f17 	ldw	r18,60(sp)
 10027c4:	dc400e17 	ldw	r17,56(sp)
 10027c8:	07004074 	movhi	fp,257
 10027cc:	e7371004 	addi	fp,fp,-9152
 10027d0:	003bba06 	br	10016bc <___vfprintf_internal_r+0x47c>
 10027d4:	d9015017 	ldw	r4,1344(sp)
 10027d8:	b00b883a 	mov	r5,r22
 10027dc:	d9800d04 	addi	r6,sp,52
 10027e0:	10011e80 	call	10011e8 <__sprint_r>
 10027e4:	103c4e1e 	bne	r2,zero,1001920 <___vfprintf_internal_r+0x6e0>
 10027e8:	dc800f17 	ldw	r18,60(sp)
 10027ec:	d8c01a04 	addi	r3,sp,104
 10027f0:	003ce306 	br	1001b80 <___vfprintf_internal_r+0x940>
 10027f4:	3c000017 	ldw	r16,0(r7)
 10027f8:	0009883a 	mov	r4,zero
 10027fc:	39c00104 	addi	r7,r7,4
 1002800:	0023883a 	mov	r17,zero
 1002804:	d9c14115 	stw	r7,1284(sp)
 1002808:	d8000405 	stb	zero,16(sp)
 100280c:	003d1a06 	br	1001c78 <___vfprintf_internal_r+0xa38>
 1002810:	38800017 	ldw	r2,0(r7)
 1002814:	39c00104 	addi	r7,r7,4
 1002818:	d9c14115 	stw	r7,1284(sp)
 100281c:	1023d7fa 	srai	r17,r2,31
 1002820:	1021883a 	mov	r16,r2
 1002824:	003d1206 	br	1001c70 <___vfprintf_internal_r+0xa30>
 1002828:	3c000017 	ldw	r16,0(r7)
 100282c:	01000044 	movi	r4,1
 1002830:	39c00104 	addi	r7,r7,4
 1002834:	0023883a 	mov	r17,zero
 1002838:	d9c14115 	stw	r7,1284(sp)
 100283c:	d8000405 	stb	zero,16(sp)
 1002840:	003d0d06 	br	1001c78 <___vfprintf_internal_r+0xa38>
 1002844:	00804074 	movhi	r2,257
 1002848:	10b70b04 	addi	r2,r2,-9172
 100284c:	94800044 	addi	r18,r18,1
 1002850:	8c400044 	addi	r17,r17,1
 1002854:	a8800015 	stw	r2,0(r21)
 1002858:	00c00044 	movi	r3,1
 100285c:	008001c4 	movi	r2,7
 1002860:	a8c00115 	stw	r3,4(r21)
 1002864:	dc800f15 	stw	r18,60(sp)
 1002868:	dc400e15 	stw	r17,56(sp)
 100286c:	1440ca16 	blt	r2,r17,1002b98 <___vfprintf_internal_r+0x1958>
 1002870:	a8c00204 	addi	r3,r21,8
 1002874:	2000061e 	bne	r4,zero,1002890 <___vfprintf_internal_r+0x1650>
 1002878:	d9414817 	ldw	r5,1312(sp)
 100287c:	2800041e 	bne	r5,zero,1002890 <___vfprintf_internal_r+0x1650>
 1002880:	d9814d17 	ldw	r6,1332(sp)
 1002884:	3080004c 	andi	r2,r6,1
 1002888:	1005003a 	cmpeq	r2,r2,zero
 100288c:	103bea1e 	bne	r2,zero,1001838 <___vfprintf_internal_r+0x5f8>
 1002890:	00800044 	movi	r2,1
 1002894:	dc400e17 	ldw	r17,56(sp)
 1002898:	18800115 	stw	r2,4(r3)
 100289c:	d8814a17 	ldw	r2,1320(sp)
 10028a0:	94800044 	addi	r18,r18,1
 10028a4:	8c400044 	addi	r17,r17,1
 10028a8:	18800015 	stw	r2,0(r3)
 10028ac:	008001c4 	movi	r2,7
 10028b0:	dc800f15 	stw	r18,60(sp)
 10028b4:	dc400e15 	stw	r17,56(sp)
 10028b8:	1440ca16 	blt	r2,r17,1002be4 <___vfprintf_internal_r+0x19a4>
 10028bc:	18c00204 	addi	r3,r3,8
 10028c0:	0121c83a 	sub	r16,zero,r4
 10028c4:	0400500e 	bge	zero,r16,1002a08 <___vfprintf_internal_r+0x17c8>
 10028c8:	00800404 	movi	r2,16
 10028cc:	1400800e 	bge	r2,r16,1002ad0 <___vfprintf_internal_r+0x1890>
 10028d0:	1027883a 	mov	r19,r2
 10028d4:	07004074 	movhi	fp,257
 10028d8:	e7370c04 	addi	fp,fp,-9168
 10028dc:	050001c4 	movi	r20,7
 10028e0:	00000306 	br	10028f0 <___vfprintf_internal_r+0x16b0>
 10028e4:	18c00204 	addi	r3,r3,8
 10028e8:	843ffc04 	addi	r16,r16,-16
 10028ec:	9c007a0e 	bge	r19,r16,1002ad8 <___vfprintf_internal_r+0x1898>
 10028f0:	94800404 	addi	r18,r18,16
 10028f4:	8c400044 	addi	r17,r17,1
 10028f8:	1f000015 	stw	fp,0(r3)
 10028fc:	1cc00115 	stw	r19,4(r3)
 1002900:	dc800f15 	stw	r18,60(sp)
 1002904:	dc400e15 	stw	r17,56(sp)
 1002908:	a47ff60e 	bge	r20,r17,10028e4 <___vfprintf_internal_r+0x16a4>
 100290c:	d9015017 	ldw	r4,1344(sp)
 1002910:	b00b883a 	mov	r5,r22
 1002914:	d9800d04 	addi	r6,sp,52
 1002918:	10011e80 	call	10011e8 <__sprint_r>
 100291c:	103c001e 	bne	r2,zero,1001920 <___vfprintf_internal_r+0x6e0>
 1002920:	dc800f17 	ldw	r18,60(sp)
 1002924:	dc400e17 	ldw	r17,56(sp)
 1002928:	d8c01a04 	addi	r3,sp,104
 100292c:	003fee06 	br	10028e8 <___vfprintf_internal_r+0x16a8>
 1002930:	3c000017 	ldw	r16,0(r7)
 1002934:	0023883a 	mov	r17,zero
 1002938:	39c00104 	addi	r7,r7,4
 100293c:	d9c14115 	stw	r7,1284(sp)
 1002940:	003e8c06 	br	1002374 <___vfprintf_internal_r+0x1134>
 1002944:	d9401a04 	addi	r5,sp,104
 1002948:	dd001004 	addi	r20,sp,64
 100294c:	d9414215 	stw	r5,1288(sp)
 1002950:	d9814517 	ldw	r6,1300(sp)
 1002954:	880a973a 	slli	r5,r17,28
 1002958:	8004d13a 	srli	r2,r16,4
 100295c:	810003cc 	andi	r4,r16,15
 1002960:	3109883a 	add	r4,r6,r4
 1002964:	2884b03a 	or	r2,r5,r2
 1002968:	21400003 	ldbu	r5,0(r4)
 100296c:	d9014217 	ldw	r4,1288(sp)
 1002970:	8806d13a 	srli	r3,r17,4
 1002974:	1021883a 	mov	r16,r2
 1002978:	213fffc4 	addi	r4,r4,-1
 100297c:	d9014215 	stw	r4,1288(sp)
 1002980:	d9814217 	ldw	r6,1288(sp)
 1002984:	10c8b03a 	or	r4,r2,r3
 1002988:	1823883a 	mov	r17,r3
 100298c:	31400005 	stb	r5,0(r6)
 1002990:	203fef1e 	bne	r4,zero,1002950 <___vfprintf_internal_r+0x1710>
 1002994:	003cc506 	br	1001cac <___vfprintf_internal_r+0xa6c>
 1002998:	00800c04 	movi	r2,48
 100299c:	d98019c4 	addi	r6,sp,103
 10029a0:	dd001004 	addi	r20,sp,64
 10029a4:	d88019c5 	stb	r2,103(sp)
 10029a8:	d9814215 	stw	r6,1288(sp)
 10029ac:	003cbf06 	br	1001cac <___vfprintf_internal_r+0xa6c>
 10029b0:	dc400e17 	ldw	r17,56(sp)
 10029b4:	07004074 	movhi	fp,257
 10029b8:	e7371004 	addi	fp,fp,-9152
 10029bc:	003bc106 	br	10018c4 <___vfprintf_internal_r+0x684>
 10029c0:	d9414d17 	ldw	r5,1332(sp)
 10029c4:	2880040c 	andi	r2,r5,16
 10029c8:	10007c26 	beq	r2,zero,1002bbc <___vfprintf_internal_r+0x197c>
 10029cc:	38800017 	ldw	r2,0(r7)
 10029d0:	39c00104 	addi	r7,r7,4
 10029d4:	d9c14115 	stw	r7,1284(sp)
 10029d8:	d9814c17 	ldw	r6,1328(sp)
 10029dc:	d9c14117 	ldw	r7,1284(sp)
 10029e0:	11800015 	stw	r6,0(r2)
 10029e4:	003a7206 	br	10013b0 <___vfprintf_internal_r+0x170>
 10029e8:	d9015017 	ldw	r4,1344(sp)
 10029ec:	b00b883a 	mov	r5,r22
 10029f0:	d9800d04 	addi	r6,sp,52
 10029f4:	10011e80 	call	10011e8 <__sprint_r>
 10029f8:	103bc91e 	bne	r2,zero,1001920 <___vfprintf_internal_r+0x6e0>
 10029fc:	dc800f17 	ldw	r18,60(sp)
 1002a00:	dc400e17 	ldw	r17,56(sp)
 1002a04:	d8c01a04 	addi	r3,sp,104
 1002a08:	d9014817 	ldw	r4,1312(sp)
 1002a0c:	d9414217 	ldw	r5,1288(sp)
 1002a10:	8c400044 	addi	r17,r17,1
 1002a14:	9125883a 	add	r18,r18,r4
 1002a18:	008001c4 	movi	r2,7
 1002a1c:	19400015 	stw	r5,0(r3)
 1002a20:	19000115 	stw	r4,4(r3)
 1002a24:	dc800f15 	stw	r18,60(sp)
 1002a28:	dc400e15 	stw	r17,56(sp)
 1002a2c:	147ce816 	blt	r2,r17,1001dd0 <___vfprintf_internal_r+0xb90>
 1002a30:	18c00204 	addi	r3,r3,8
 1002a34:	003b8006 	br	1001838 <___vfprintf_internal_r+0x5f8>
 1002a38:	38c00017 	ldw	r3,0(r7)
 1002a3c:	39000204 	addi	r4,r7,8
 1002a40:	d9014115 	stw	r4,1284(sp)
 1002a44:	d8c14315 	stw	r3,1292(sp)
 1002a48:	39c00117 	ldw	r7,4(r7)
 1002a4c:	d9c14415 	stw	r7,1296(sp)
 1002a50:	003e1a06 	br	10022bc <___vfprintf_internal_r+0x107c>
 1002a54:	0005883a 	mov	r2,zero
 1002a58:	1409c83a 	sub	r4,r2,r16
 1002a5c:	1105803a 	cmpltu	r2,r2,r4
 1002a60:	044bc83a 	sub	r5,zero,r17
 1002a64:	2885c83a 	sub	r2,r5,r2
 1002a68:	2021883a 	mov	r16,r4
 1002a6c:	1023883a 	mov	r17,r2
 1002a70:	01000044 	movi	r4,1
 1002a74:	00800b44 	movi	r2,45
 1002a78:	d8800405 	stb	r2,16(sp)
 1002a7c:	003c7e06 	br	1001c78 <___vfprintf_internal_r+0xa38>
 1002a80:	d9015017 	ldw	r4,1344(sp)
 1002a84:	b00b883a 	mov	r5,r22
 1002a88:	d9800d04 	addi	r6,sp,52
 1002a8c:	10011e80 	call	10011e8 <__sprint_r>
 1002a90:	103ba31e 	bne	r2,zero,1001920 <___vfprintf_internal_r+0x6e0>
 1002a94:	dc800f17 	ldw	r18,60(sp)
 1002a98:	dc400e17 	ldw	r17,56(sp)
 1002a9c:	d9000617 	ldw	r4,24(sp)
 1002aa0:	d9401a04 	addi	r5,sp,104
 1002aa4:	003da106 	br	100212c <___vfprintf_internal_r+0xeec>
 1002aa8:	d9015017 	ldw	r4,1344(sp)
 1002aac:	b00b883a 	mov	r5,r22
 1002ab0:	d9800d04 	addi	r6,sp,52
 1002ab4:	10011e80 	call	10011e8 <__sprint_r>
 1002ab8:	103b991e 	bne	r2,zero,1001920 <___vfprintf_internal_r+0x6e0>
 1002abc:	dc800f17 	ldw	r18,60(sp)
 1002ac0:	dc400e17 	ldw	r17,56(sp)
 1002ac4:	d9000617 	ldw	r4,24(sp)
 1002ac8:	d8c01a04 	addi	r3,sp,104
 1002acc:	003d8b06 	br	10020fc <___vfprintf_internal_r+0xebc>
 1002ad0:	07004074 	movhi	fp,257
 1002ad4:	e7370c04 	addi	fp,fp,-9168
 1002ad8:	9425883a 	add	r18,r18,r16
 1002adc:	8c400044 	addi	r17,r17,1
 1002ae0:	008001c4 	movi	r2,7
 1002ae4:	1f000015 	stw	fp,0(r3)
 1002ae8:	1c000115 	stw	r16,4(r3)
 1002aec:	dc800f15 	stw	r18,60(sp)
 1002af0:	dc400e15 	stw	r17,56(sp)
 1002af4:	147fbc16 	blt	r2,r17,10029e8 <___vfprintf_internal_r+0x17a8>
 1002af8:	18c00204 	addi	r3,r3,8
 1002afc:	003fc206 	br	1002a08 <___vfprintf_internal_r+0x17c8>
 1002b00:	d9015017 	ldw	r4,1344(sp)
 1002b04:	b00b883a 	mov	r5,r22
 1002b08:	d9800d04 	addi	r6,sp,52
 1002b0c:	10011e80 	call	10011e8 <__sprint_r>
 1002b10:	103b831e 	bne	r2,zero,1001920 <___vfprintf_internal_r+0x6e0>
 1002b14:	dc800f17 	ldw	r18,60(sp)
 1002b18:	d9000617 	ldw	r4,24(sp)
 1002b1c:	d8c01a04 	addi	r3,sp,104
 1002b20:	003cfc06 	br	1001f14 <___vfprintf_internal_r+0xcd4>
 1002b24:	07004074 	movhi	fp,257
 1002b28:	e7370c04 	addi	fp,fp,-9168
 1002b2c:	003bde06 	br	1001aa8 <___vfprintf_internal_r+0x868>
 1002b30:	00804074 	movhi	r2,257
 1002b34:	10b6fa04 	addi	r2,r2,-9240
 1002b38:	d8814215 	stw	r2,1288(sp)
 1002b3c:	003def06 	br	10022fc <___vfprintf_internal_r+0x10bc>
 1002b40:	d9014317 	ldw	r4,1292(sp)
 1002b44:	d9414417 	ldw	r5,1296(sp)
 1002b48:	1007da40 	call	1007da4 <__isnand>
 1002b4c:	10003926 	beq	r2,zero,1002c34 <___vfprintf_internal_r+0x19f4>
 1002b50:	d9414e17 	ldw	r5,1336(sp)
 1002b54:	008011c4 	movi	r2,71
 1002b58:	1140ce16 	blt	r2,r5,1002e94 <___vfprintf_internal_r+0x1c54>
 1002b5c:	01804074 	movhi	r6,257
 1002b60:	31b6fb04 	addi	r6,r6,-9236
 1002b64:	d9814215 	stw	r6,1288(sp)
 1002b68:	003de406 	br	10022fc <___vfprintf_internal_r+0x10bc>
 1002b6c:	d9014d17 	ldw	r4,1332(sp)
 1002b70:	bdc00044 	addi	r23,r23,1
 1002b74:	b8c00007 	ldb	r3,0(r23)
 1002b78:	21000814 	ori	r4,r4,32
 1002b7c:	d9014d15 	stw	r4,1332(sp)
 1002b80:	003a2e06 	br	100143c <___vfprintf_internal_r+0x1fc>
 1002b84:	dcc14615 	stw	r19,1304(sp)
 1002b88:	98011016 	blt	r19,zero,1002fcc <___vfprintf_internal_r+0x1d8c>
 1002b8c:	980f883a 	mov	r7,r19
 1002b90:	d8014715 	stw	zero,1308(sp)
 1002b94:	003c4c06 	br	1001cc8 <___vfprintf_internal_r+0xa88>
 1002b98:	d9015017 	ldw	r4,1344(sp)
 1002b9c:	b00b883a 	mov	r5,r22
 1002ba0:	d9800d04 	addi	r6,sp,52
 1002ba4:	10011e80 	call	10011e8 <__sprint_r>
 1002ba8:	103b5d1e 	bne	r2,zero,1001920 <___vfprintf_internal_r+0x6e0>
 1002bac:	dc800f17 	ldw	r18,60(sp)
 1002bb0:	d9000617 	ldw	r4,24(sp)
 1002bb4:	d8c01a04 	addi	r3,sp,104
 1002bb8:	003f2e06 	br	1002874 <___vfprintf_internal_r+0x1634>
 1002bbc:	d8c14d17 	ldw	r3,1332(sp)
 1002bc0:	1880100c 	andi	r2,r3,64
 1002bc4:	1000a026 	beq	r2,zero,1002e48 <___vfprintf_internal_r+0x1c08>
 1002bc8:	38800017 	ldw	r2,0(r7)
 1002bcc:	39c00104 	addi	r7,r7,4
 1002bd0:	d9c14115 	stw	r7,1284(sp)
 1002bd4:	d9014c17 	ldw	r4,1328(sp)
 1002bd8:	d9c14117 	ldw	r7,1284(sp)
 1002bdc:	1100000d 	sth	r4,0(r2)
 1002be0:	0039f306 	br	10013b0 <___vfprintf_internal_r+0x170>
 1002be4:	d9015017 	ldw	r4,1344(sp)
 1002be8:	b00b883a 	mov	r5,r22
 1002bec:	d9800d04 	addi	r6,sp,52
 1002bf0:	10011e80 	call	10011e8 <__sprint_r>
 1002bf4:	103b4a1e 	bne	r2,zero,1001920 <___vfprintf_internal_r+0x6e0>
 1002bf8:	dc800f17 	ldw	r18,60(sp)
 1002bfc:	dc400e17 	ldw	r17,56(sp)
 1002c00:	d9000617 	ldw	r4,24(sp)
 1002c04:	d8c01a04 	addi	r3,sp,104
 1002c08:	003f2d06 	br	10028c0 <___vfprintf_internal_r+0x1680>
 1002c0c:	00800184 	movi	r2,6
 1002c10:	14c09a36 	bltu	r2,r19,1002e7c <___vfprintf_internal_r+0x1c3c>
 1002c14:	dcc14615 	stw	r19,1304(sp)
 1002c18:	9800010e 	bge	r19,zero,1002c20 <___vfprintf_internal_r+0x19e0>
 1002c1c:	d8014615 	stw	zero,1304(sp)
 1002c20:	00804074 	movhi	r2,257
 1002c24:	10b6fd04 	addi	r2,r2,-9228
 1002c28:	980f883a 	mov	r7,r19
 1002c2c:	d8814215 	stw	r2,1288(sp)
 1002c30:	003a7206 	br	10015fc <___vfprintf_internal_r+0x3bc>
 1002c34:	00bfffc4 	movi	r2,-1
 1002c38:	9880e226 	beq	r19,r2,1002fc4 <___vfprintf_internal_r+0x1d84>
 1002c3c:	d9414e17 	ldw	r5,1336(sp)
 1002c40:	008019c4 	movi	r2,103
 1002c44:	2880dc26 	beq	r5,r2,1002fb8 <___vfprintf_internal_r+0x1d78>
 1002c48:	008011c4 	movi	r2,71
 1002c4c:	2880da26 	beq	r5,r2,1002fb8 <___vfprintf_internal_r+0x1d78>
 1002c50:	d9414d17 	ldw	r5,1332(sp)
 1002c54:	d9014417 	ldw	r4,1296(sp)
 1002c58:	d9814317 	ldw	r6,1292(sp)
 1002c5c:	29404014 	ori	r5,r5,256
 1002c60:	d9414d15 	stw	r5,1332(sp)
 1002c64:	2000cc16 	blt	r4,zero,1002f98 <___vfprintf_internal_r+0x1d58>
 1002c68:	3021883a 	mov	r16,r6
 1002c6c:	2023883a 	mov	r17,r4
 1002c70:	0039883a 	mov	fp,zero
 1002c74:	d9414e17 	ldw	r5,1336(sp)
 1002c78:	00801984 	movi	r2,102
 1002c7c:	2880b726 	beq	r5,r2,1002f5c <___vfprintf_internal_r+0x1d1c>
 1002c80:	00801184 	movi	r2,70
 1002c84:	2880b526 	beq	r5,r2,1002f5c <___vfprintf_internal_r+0x1d1c>
 1002c88:	00801944 	movi	r2,101
 1002c8c:	2880c826 	beq	r5,r2,1002fb0 <___vfprintf_internal_r+0x1d70>
 1002c90:	00801144 	movi	r2,69
 1002c94:	2880c626 	beq	r5,r2,1002fb0 <___vfprintf_internal_r+0x1d70>
 1002c98:	9829883a 	mov	r20,r19
 1002c9c:	d9015017 	ldw	r4,1344(sp)
 1002ca0:	d8800604 	addi	r2,sp,24
 1002ca4:	880d883a 	mov	r6,r17
 1002ca8:	d8800115 	stw	r2,4(sp)
 1002cac:	d8c00704 	addi	r3,sp,28
 1002cb0:	d8800804 	addi	r2,sp,32
 1002cb4:	800b883a 	mov	r5,r16
 1002cb8:	01c00084 	movi	r7,2
 1002cbc:	d8c00215 	stw	r3,8(sp)
 1002cc0:	d8800315 	stw	r2,12(sp)
 1002cc4:	dd000015 	stw	r20,0(sp)
 1002cc8:	10034a80 	call	10034a8 <_dtoa_r>
 1002ccc:	d9814e17 	ldw	r6,1336(sp)
 1002cd0:	d8814215 	stw	r2,1288(sp)
 1002cd4:	008019c4 	movi	r2,103
 1002cd8:	30809526 	beq	r6,r2,1002f30 <___vfprintf_internal_r+0x1cf0>
 1002cdc:	d8c14e17 	ldw	r3,1336(sp)
 1002ce0:	008011c4 	movi	r2,71
 1002ce4:	18809226 	beq	r3,r2,1002f30 <___vfprintf_internal_r+0x1cf0>
 1002ce8:	d9414217 	ldw	r5,1288(sp)
 1002cec:	d9814e17 	ldw	r6,1336(sp)
 1002cf0:	00801984 	movi	r2,102
 1002cf4:	2d25883a 	add	r18,r5,r20
 1002cf8:	30808626 	beq	r6,r2,1002f14 <___vfprintf_internal_r+0x1cd4>
 1002cfc:	00801184 	movi	r2,70
 1002d00:	30808426 	beq	r6,r2,1002f14 <___vfprintf_internal_r+0x1cd4>
 1002d04:	000d883a 	mov	r6,zero
 1002d08:	000f883a 	mov	r7,zero
 1002d0c:	880b883a 	mov	r5,r17
 1002d10:	8009883a 	mov	r4,r16
 1002d14:	1009e780 	call	1009e78 <__eqdf2>
 1002d18:	1000751e 	bne	r2,zero,1002ef0 <___vfprintf_internal_r+0x1cb0>
 1002d1c:	9005883a 	mov	r2,r18
 1002d20:	dc800815 	stw	r18,32(sp)
 1002d24:	d9014217 	ldw	r4,1288(sp)
 1002d28:	d9414e17 	ldw	r5,1336(sp)
 1002d2c:	00c019c4 	movi	r3,103
 1002d30:	1125c83a 	sub	r18,r2,r4
 1002d34:	28c06826 	beq	r5,r3,1002ed8 <___vfprintf_internal_r+0x1c98>
 1002d38:	008011c4 	movi	r2,71
 1002d3c:	28806626 	beq	r5,r2,1002ed8 <___vfprintf_internal_r+0x1c98>
 1002d40:	d9000617 	ldw	r4,24(sp)
 1002d44:	d8c14e17 	ldw	r3,1336(sp)
 1002d48:	00801944 	movi	r2,101
 1002d4c:	10c05516 	blt	r2,r3,1002ea4 <___vfprintf_internal_r+0x1c64>
 1002d50:	213fffc4 	addi	r4,r4,-1
 1002d54:	d9000615 	stw	r4,24(sp)
 1002d58:	d8c00905 	stb	r3,36(sp)
 1002d5c:	2021883a 	mov	r16,r4
 1002d60:	2000c116 	blt	r4,zero,1003068 <___vfprintf_internal_r+0x1e28>
 1002d64:	00800ac4 	movi	r2,43
 1002d68:	d8800945 	stb	r2,37(sp)
 1002d6c:	00800244 	movi	r2,9
 1002d70:	1400af0e 	bge	r2,r16,1003030 <___vfprintf_internal_r+0x1df0>
 1002d74:	1027883a 	mov	r19,r2
 1002d78:	dc400cc4 	addi	r17,sp,51
 1002d7c:	8009883a 	mov	r4,r16
 1002d80:	01400284 	movi	r5,10
 1002d84:	100a5600 	call	100a560 <__modsi3>
 1002d88:	10800c04 	addi	r2,r2,48
 1002d8c:	8c7fffc4 	addi	r17,r17,-1
 1002d90:	8009883a 	mov	r4,r16
 1002d94:	01400284 	movi	r5,10
 1002d98:	88800005 	stb	r2,0(r17)
 1002d9c:	100a5000 	call	100a500 <__divsi3>
 1002da0:	1021883a 	mov	r16,r2
 1002da4:	98bff516 	blt	r19,r2,1002d7c <___vfprintf_internal_r+0x1b3c>
 1002da8:	10c00c04 	addi	r3,r2,48
 1002dac:	d8800b04 	addi	r2,sp,44
 1002db0:	108001c4 	addi	r2,r2,7
 1002db4:	897fffc4 	addi	r5,r17,-1
 1002db8:	88ffffc5 	stb	r3,-1(r17)
 1002dbc:	2880a72e 	bgeu	r5,r2,100305c <___vfprintf_internal_r+0x1e1c>
 1002dc0:	1009883a 	mov	r4,r2
 1002dc4:	d9800904 	addi	r6,sp,36
 1002dc8:	d8c00984 	addi	r3,sp,38
 1002dcc:	28800003 	ldbu	r2,0(r5)
 1002dd0:	29400044 	addi	r5,r5,1
 1002dd4:	18800005 	stb	r2,0(r3)
 1002dd8:	18c00044 	addi	r3,r3,1
 1002ddc:	293ffb36 	bltu	r5,r4,1002dcc <___vfprintf_internal_r+0x1b8c>
 1002de0:	1987c83a 	sub	r3,r3,r6
 1002de4:	00800044 	movi	r2,1
 1002de8:	d8c14915 	stw	r3,1316(sp)
 1002dec:	90cf883a 	add	r7,r18,r3
 1002df0:	1480960e 	bge	r2,r18,100304c <___vfprintf_internal_r+0x1e0c>
 1002df4:	39c00044 	addi	r7,r7,1
 1002df8:	d9c14615 	stw	r7,1304(sp)
 1002dfc:	38003416 	blt	r7,zero,1002ed0 <___vfprintf_internal_r+0x1c90>
 1002e00:	e0803fcc 	andi	r2,fp,255
 1002e04:	1080201c 	xori	r2,r2,128
 1002e08:	10bfe004 	addi	r2,r2,-128
 1002e0c:	10004e26 	beq	r2,zero,1002f48 <___vfprintf_internal_r+0x1d08>
 1002e10:	00800b44 	movi	r2,45
 1002e14:	dc814815 	stw	r18,1312(sp)
 1002e18:	d8014715 	stw	zero,1308(sp)
 1002e1c:	d8800405 	stb	r2,16(sp)
 1002e20:	003bab06 	br	1001cd0 <___vfprintf_internal_r+0xa90>
 1002e24:	00800b44 	movi	r2,45
 1002e28:	d8800405 	stb	r2,16(sp)
 1002e2c:	003d2d06 	br	10022e4 <___vfprintf_internal_r+0x10a4>
 1002e30:	d9015017 	ldw	r4,1344(sp)
 1002e34:	b00b883a 	mov	r5,r22
 1002e38:	d9800d04 	addi	r6,sp,52
 1002e3c:	10011e80 	call	10011e8 <__sprint_r>
 1002e40:	103ab71e 	bne	r2,zero,1001920 <___vfprintf_internal_r+0x6e0>
 1002e44:	003ab506 	br	100191c <___vfprintf_internal_r+0x6dc>
 1002e48:	38800017 	ldw	r2,0(r7)
 1002e4c:	39c00104 	addi	r7,r7,4
 1002e50:	d9c14115 	stw	r7,1284(sp)
 1002e54:	d9414c17 	ldw	r5,1328(sp)
 1002e58:	d9c14117 	ldw	r7,1284(sp)
 1002e5c:	11400015 	stw	r5,0(r2)
 1002e60:	00395306 	br	10013b0 <___vfprintf_internal_r+0x170>
 1002e64:	980f883a 	mov	r7,r19
 1002e68:	dcc14615 	stw	r19,1304(sp)
 1002e6c:	d8014715 	stw	zero,1308(sp)
 1002e70:	003b9506 	br	1001cc8 <___vfprintf_internal_r+0xa88>
 1002e74:	0027883a 	mov	r19,zero
 1002e78:	00397206 	br	1001444 <___vfprintf_internal_r+0x204>
 1002e7c:	00c04074 	movhi	r3,257
 1002e80:	18f6fd04 	addi	r3,r3,-9228
 1002e84:	100f883a 	mov	r7,r2
 1002e88:	d8814615 	stw	r2,1304(sp)
 1002e8c:	d8c14215 	stw	r3,1288(sp)
 1002e90:	0039da06 	br	10015fc <___vfprintf_internal_r+0x3bc>
 1002e94:	00804074 	movhi	r2,257
 1002e98:	10b6fc04 	addi	r2,r2,-9232
 1002e9c:	d8814215 	stw	r2,1288(sp)
 1002ea0:	003d1606 	br	10022fc <___vfprintf_internal_r+0x10bc>
 1002ea4:	d9414e17 	ldw	r5,1336(sp)
 1002ea8:	00801984 	movi	r2,102
 1002eac:	28804926 	beq	r5,r2,1002fd4 <___vfprintf_internal_r+0x1d94>
 1002eb0:	200f883a 	mov	r7,r4
 1002eb4:	24805716 	blt	r4,r18,1003014 <___vfprintf_internal_r+0x1dd4>
 1002eb8:	d9414d17 	ldw	r5,1332(sp)
 1002ebc:	2880004c 	andi	r2,r5,1
 1002ec0:	10000126 	beq	r2,zero,1002ec8 <___vfprintf_internal_r+0x1c88>
 1002ec4:	21c00044 	addi	r7,r4,1
 1002ec8:	d9c14615 	stw	r7,1304(sp)
 1002ecc:	383fcc0e 	bge	r7,zero,1002e00 <___vfprintf_internal_r+0x1bc0>
 1002ed0:	d8014615 	stw	zero,1304(sp)
 1002ed4:	003fca06 	br	1002e00 <___vfprintf_internal_r+0x1bc0>
 1002ed8:	d9000617 	ldw	r4,24(sp)
 1002edc:	00bfff04 	movi	r2,-4
 1002ee0:	1100480e 	bge	r2,r4,1003004 <___vfprintf_internal_r+0x1dc4>
 1002ee4:	99004716 	blt	r19,r4,1003004 <___vfprintf_internal_r+0x1dc4>
 1002ee8:	d8c14e15 	stw	r3,1336(sp)
 1002eec:	003ff006 	br	1002eb0 <___vfprintf_internal_r+0x1c70>
 1002ef0:	d8800817 	ldw	r2,32(sp)
 1002ef4:	14bf8b2e 	bgeu	r2,r18,1002d24 <___vfprintf_internal_r+0x1ae4>
 1002ef8:	9007883a 	mov	r3,r18
 1002efc:	01000c04 	movi	r4,48
 1002f00:	11000005 	stb	r4,0(r2)
 1002f04:	10800044 	addi	r2,r2,1
 1002f08:	d8800815 	stw	r2,32(sp)
 1002f0c:	18bffc1e 	bne	r3,r2,1002f00 <___vfprintf_internal_r+0x1cc0>
 1002f10:	003f8406 	br	1002d24 <___vfprintf_internal_r+0x1ae4>
 1002f14:	d8814217 	ldw	r2,1288(sp)
 1002f18:	10c00007 	ldb	r3,0(r2)
 1002f1c:	00800c04 	movi	r2,48
 1002f20:	18805b26 	beq	r3,r2,1003090 <___vfprintf_internal_r+0x1e50>
 1002f24:	d9000617 	ldw	r4,24(sp)
 1002f28:	9125883a 	add	r18,r18,r4
 1002f2c:	003f7506 	br	1002d04 <___vfprintf_internal_r+0x1ac4>
 1002f30:	d9014d17 	ldw	r4,1332(sp)
 1002f34:	2080004c 	andi	r2,r4,1
 1002f38:	1005003a 	cmpeq	r2,r2,zero
 1002f3c:	103f6a26 	beq	r2,zero,1002ce8 <___vfprintf_internal_r+0x1aa8>
 1002f40:	d8800817 	ldw	r2,32(sp)
 1002f44:	003f7706 	br	1002d24 <___vfprintf_internal_r+0x1ae4>
 1002f48:	d9c14615 	stw	r7,1304(sp)
 1002f4c:	38004d16 	blt	r7,zero,1003084 <___vfprintf_internal_r+0x1e44>
 1002f50:	dc814815 	stw	r18,1312(sp)
 1002f54:	d8014715 	stw	zero,1308(sp)
 1002f58:	003b5b06 	br	1001cc8 <___vfprintf_internal_r+0xa88>
 1002f5c:	d9015017 	ldw	r4,1344(sp)
 1002f60:	d8800604 	addi	r2,sp,24
 1002f64:	d8800115 	stw	r2,4(sp)
 1002f68:	d8c00704 	addi	r3,sp,28
 1002f6c:	d8800804 	addi	r2,sp,32
 1002f70:	800b883a 	mov	r5,r16
 1002f74:	880d883a 	mov	r6,r17
 1002f78:	01c000c4 	movi	r7,3
 1002f7c:	d8c00215 	stw	r3,8(sp)
 1002f80:	d8800315 	stw	r2,12(sp)
 1002f84:	dcc00015 	stw	r19,0(sp)
 1002f88:	9829883a 	mov	r20,r19
 1002f8c:	10034a80 	call	10034a8 <_dtoa_r>
 1002f90:	d8814215 	stw	r2,1288(sp)
 1002f94:	003f5106 	br	1002cdc <___vfprintf_internal_r+0x1a9c>
 1002f98:	d8c14317 	ldw	r3,1292(sp)
 1002f9c:	d9014417 	ldw	r4,1296(sp)
 1002fa0:	07000b44 	movi	fp,45
 1002fa4:	1821883a 	mov	r16,r3
 1002fa8:	2460003c 	xorhi	r17,r4,32768
 1002fac:	003f3106 	br	1002c74 <___vfprintf_internal_r+0x1a34>
 1002fb0:	9d000044 	addi	r20,r19,1
 1002fb4:	003f3906 	br	1002c9c <___vfprintf_internal_r+0x1a5c>
 1002fb8:	983f251e 	bne	r19,zero,1002c50 <___vfprintf_internal_r+0x1a10>
 1002fbc:	04c00044 	movi	r19,1
 1002fc0:	003f2306 	br	1002c50 <___vfprintf_internal_r+0x1a10>
 1002fc4:	04c00184 	movi	r19,6
 1002fc8:	003f2106 	br	1002c50 <___vfprintf_internal_r+0x1a10>
 1002fcc:	d8014615 	stw	zero,1304(sp)
 1002fd0:	003eee06 	br	1002b8c <___vfprintf_internal_r+0x194c>
 1002fd4:	200f883a 	mov	r7,r4
 1002fd8:	0100370e 	bge	zero,r4,10030b8 <___vfprintf_internal_r+0x1e78>
 1002fdc:	9800031e 	bne	r19,zero,1002fec <___vfprintf_internal_r+0x1dac>
 1002fe0:	d9814d17 	ldw	r6,1332(sp)
 1002fe4:	3080004c 	andi	r2,r6,1
 1002fe8:	103fb726 	beq	r2,zero,1002ec8 <___vfprintf_internal_r+0x1c88>
 1002fec:	20800044 	addi	r2,r4,1
 1002ff0:	98a7883a 	add	r19,r19,r2
 1002ff4:	dcc14615 	stw	r19,1304(sp)
 1002ff8:	980f883a 	mov	r7,r19
 1002ffc:	983f800e 	bge	r19,zero,1002e00 <___vfprintf_internal_r+0x1bc0>
 1003000:	003fb306 	br	1002ed0 <___vfprintf_internal_r+0x1c90>
 1003004:	d9814e17 	ldw	r6,1336(sp)
 1003008:	31bfff84 	addi	r6,r6,-2
 100300c:	d9814e15 	stw	r6,1336(sp)
 1003010:	003f4c06 	br	1002d44 <___vfprintf_internal_r+0x1b04>
 1003014:	0100180e 	bge	zero,r4,1003078 <___vfprintf_internal_r+0x1e38>
 1003018:	00800044 	movi	r2,1
 100301c:	1485883a 	add	r2,r2,r18
 1003020:	d8814615 	stw	r2,1304(sp)
 1003024:	100f883a 	mov	r7,r2
 1003028:	103f750e 	bge	r2,zero,1002e00 <___vfprintf_internal_r+0x1bc0>
 100302c:	003fa806 	br	1002ed0 <___vfprintf_internal_r+0x1c90>
 1003030:	80c00c04 	addi	r3,r16,48
 1003034:	00800c04 	movi	r2,48
 1003038:	d8c009c5 	stb	r3,39(sp)
 100303c:	d9800904 	addi	r6,sp,36
 1003040:	d8c00a04 	addi	r3,sp,40
 1003044:	d8800985 	stb	r2,38(sp)
 1003048:	003f6506 	br	1002de0 <___vfprintf_internal_r+0x1ba0>
 100304c:	d9014d17 	ldw	r4,1332(sp)
 1003050:	2084703a 	and	r2,r4,r2
 1003054:	103f9c26 	beq	r2,zero,1002ec8 <___vfprintf_internal_r+0x1c88>
 1003058:	003f6606 	br	1002df4 <___vfprintf_internal_r+0x1bb4>
 100305c:	d9800904 	addi	r6,sp,36
 1003060:	d8c00984 	addi	r3,sp,38
 1003064:	003f5e06 	br	1002de0 <___vfprintf_internal_r+0x1ba0>
 1003068:	00800b44 	movi	r2,45
 100306c:	0121c83a 	sub	r16,zero,r4
 1003070:	d8800945 	stb	r2,37(sp)
 1003074:	003f3d06 	br	1002d6c <___vfprintf_internal_r+0x1b2c>
 1003078:	00800084 	movi	r2,2
 100307c:	1105c83a 	sub	r2,r2,r4
 1003080:	003fe606 	br	100301c <___vfprintf_internal_r+0x1ddc>
 1003084:	d8014615 	stw	zero,1304(sp)
 1003088:	dc814815 	stw	r18,1312(sp)
 100308c:	003fb106 	br	1002f54 <___vfprintf_internal_r+0x1d14>
 1003090:	000d883a 	mov	r6,zero
 1003094:	000f883a 	mov	r7,zero
 1003098:	8009883a 	mov	r4,r16
 100309c:	880b883a 	mov	r5,r17
 10030a0:	1009f000 	call	1009f00 <__nedf2>
 10030a4:	103f9f26 	beq	r2,zero,1002f24 <___vfprintf_internal_r+0x1ce4>
 10030a8:	00800044 	movi	r2,1
 10030ac:	1509c83a 	sub	r4,r2,r20
 10030b0:	d9000615 	stw	r4,24(sp)
 10030b4:	003f9b06 	br	1002f24 <___vfprintf_internal_r+0x1ce4>
 10030b8:	98000d1e 	bne	r19,zero,10030f0 <___vfprintf_internal_r+0x1eb0>
 10030bc:	d8c14d17 	ldw	r3,1332(sp)
 10030c0:	1880004c 	andi	r2,r3,1
 10030c4:	10000a1e 	bne	r2,zero,10030f0 <___vfprintf_internal_r+0x1eb0>
 10030c8:	01000044 	movi	r4,1
 10030cc:	200f883a 	mov	r7,r4
 10030d0:	d9014615 	stw	r4,1304(sp)
 10030d4:	003f4a06 	br	1002e00 <___vfprintf_internal_r+0x1bc0>
 10030d8:	3cc00017 	ldw	r19,0(r7)
 10030dc:	39c00104 	addi	r7,r7,4
 10030e0:	983d0e0e 	bge	r19,zero,100251c <___vfprintf_internal_r+0x12dc>
 10030e4:	b8c00007 	ldb	r3,0(r23)
 10030e8:	04ffffc4 	movi	r19,-1
 10030ec:	0038d306 	br	100143c <___vfprintf_internal_r+0x1fc>
 10030f0:	9cc00084 	addi	r19,r19,2
 10030f4:	dcc14615 	stw	r19,1304(sp)
 10030f8:	980f883a 	mov	r7,r19
 10030fc:	983f400e 	bge	r19,zero,1002e00 <___vfprintf_internal_r+0x1bc0>
 1003100:	003f7306 	br	1002ed0 <___vfprintf_internal_r+0x1c90>

01003104 <__vfprintf_internal>:
 1003104:	00804074 	movhi	r2,257
 1003108:	10be1c04 	addi	r2,r2,-1936
 100310c:	2013883a 	mov	r9,r4
 1003110:	11000017 	ldw	r4,0(r2)
 1003114:	2805883a 	mov	r2,r5
 1003118:	300f883a 	mov	r7,r6
 100311c:	480b883a 	mov	r5,r9
 1003120:	100d883a 	mov	r6,r2
 1003124:	10012401 	jmpi	1001240 <___vfprintf_internal_r>

01003128 <__swsetup_r>:
 1003128:	00804074 	movhi	r2,257
 100312c:	10be1c04 	addi	r2,r2,-1936
 1003130:	10c00017 	ldw	r3,0(r2)
 1003134:	defffd04 	addi	sp,sp,-12
 1003138:	dc400115 	stw	r17,4(sp)
 100313c:	dc000015 	stw	r16,0(sp)
 1003140:	dfc00215 	stw	ra,8(sp)
 1003144:	2023883a 	mov	r17,r4
 1003148:	2821883a 	mov	r16,r5
 100314c:	18000226 	beq	r3,zero,1003158 <__swsetup_r+0x30>
 1003150:	18800e17 	ldw	r2,56(r3)
 1003154:	10001f26 	beq	r2,zero,10031d4 <__swsetup_r+0xac>
 1003158:	8100030b 	ldhu	r4,12(r16)
 100315c:	2080020c 	andi	r2,r4,8
 1003160:	10002826 	beq	r2,zero,1003204 <__swsetup_r+0xdc>
 1003164:	81400417 	ldw	r5,16(r16)
 1003168:	28001d26 	beq	r5,zero,10031e0 <__swsetup_r+0xb8>
 100316c:	2080004c 	andi	r2,r4,1
 1003170:	1005003a 	cmpeq	r2,r2,zero
 1003174:	10000b26 	beq	r2,zero,10031a4 <__swsetup_r+0x7c>
 1003178:	2080008c 	andi	r2,r4,2
 100317c:	10001226 	beq	r2,zero,10031c8 <__swsetup_r+0xa0>
 1003180:	0005883a 	mov	r2,zero
 1003184:	80800215 	stw	r2,8(r16)
 1003188:	28000b26 	beq	r5,zero,10031b8 <__swsetup_r+0x90>
 100318c:	0005883a 	mov	r2,zero
 1003190:	dfc00217 	ldw	ra,8(sp)
 1003194:	dc400117 	ldw	r17,4(sp)
 1003198:	dc000017 	ldw	r16,0(sp)
 100319c:	dec00304 	addi	sp,sp,12
 10031a0:	f800283a 	ret
 10031a4:	80800517 	ldw	r2,20(r16)
 10031a8:	80000215 	stw	zero,8(r16)
 10031ac:	0085c83a 	sub	r2,zero,r2
 10031b0:	80800615 	stw	r2,24(r16)
 10031b4:	283ff51e 	bne	r5,zero,100318c <__swsetup_r+0x64>
 10031b8:	2080200c 	andi	r2,r4,128
 10031bc:	103ff326 	beq	r2,zero,100318c <__swsetup_r+0x64>
 10031c0:	00bfffc4 	movi	r2,-1
 10031c4:	003ff206 	br	1003190 <__swsetup_r+0x68>
 10031c8:	80800517 	ldw	r2,20(r16)
 10031cc:	80800215 	stw	r2,8(r16)
 10031d0:	003fed06 	br	1003188 <__swsetup_r+0x60>
 10031d4:	1809883a 	mov	r4,r3
 10031d8:	1004cf40 	call	1004cf4 <__sinit>
 10031dc:	003fde06 	br	1003158 <__swsetup_r+0x30>
 10031e0:	20c0a00c 	andi	r3,r4,640
 10031e4:	00808004 	movi	r2,512
 10031e8:	18bfe026 	beq	r3,r2,100316c <__swsetup_r+0x44>
 10031ec:	8809883a 	mov	r4,r17
 10031f0:	800b883a 	mov	r5,r16
 10031f4:	1005b140 	call	1005b14 <__smakebuf_r>
 10031f8:	8100030b 	ldhu	r4,12(r16)
 10031fc:	81400417 	ldw	r5,16(r16)
 1003200:	003fda06 	br	100316c <__swsetup_r+0x44>
 1003204:	2080040c 	andi	r2,r4,16
 1003208:	103fed26 	beq	r2,zero,10031c0 <__swsetup_r+0x98>
 100320c:	2080010c 	andi	r2,r4,4
 1003210:	10001226 	beq	r2,zero,100325c <__swsetup_r+0x134>
 1003214:	81400c17 	ldw	r5,48(r16)
 1003218:	28000526 	beq	r5,zero,1003230 <__swsetup_r+0x108>
 100321c:	80801004 	addi	r2,r16,64
 1003220:	28800226 	beq	r5,r2,100322c <__swsetup_r+0x104>
 1003224:	8809883a 	mov	r4,r17
 1003228:	10050ac0 	call	10050ac <_free_r>
 100322c:	80000c15 	stw	zero,48(r16)
 1003230:	8080030b 	ldhu	r2,12(r16)
 1003234:	81400417 	ldw	r5,16(r16)
 1003238:	80000115 	stw	zero,4(r16)
 100323c:	10bff6cc 	andi	r2,r2,65499
 1003240:	8080030d 	sth	r2,12(r16)
 1003244:	81400015 	stw	r5,0(r16)
 1003248:	8080030b 	ldhu	r2,12(r16)
 100324c:	10800214 	ori	r2,r2,8
 1003250:	113fffcc 	andi	r4,r2,65535
 1003254:	8080030d 	sth	r2,12(r16)
 1003258:	003fc306 	br	1003168 <__swsetup_r+0x40>
 100325c:	81400417 	ldw	r5,16(r16)
 1003260:	003ff906 	br	1003248 <__swsetup_r+0x120>

01003264 <quorem>:
 1003264:	28c00417 	ldw	r3,16(r5)
 1003268:	20800417 	ldw	r2,16(r4)
 100326c:	defff104 	addi	sp,sp,-60
 1003270:	dfc00e15 	stw	ra,56(sp)
 1003274:	df000d15 	stw	fp,52(sp)
 1003278:	ddc00c15 	stw	r23,48(sp)
 100327c:	dd800b15 	stw	r22,44(sp)
 1003280:	dd400a15 	stw	r21,40(sp)
 1003284:	dd000915 	stw	r20,36(sp)
 1003288:	dcc00815 	stw	r19,32(sp)
 100328c:	dc800715 	stw	r18,28(sp)
 1003290:	dc400615 	stw	r17,24(sp)
 1003294:	dc000515 	stw	r16,20(sp)
 1003298:	d9000315 	stw	r4,12(sp)
 100329c:	d9400415 	stw	r5,16(sp)
 10032a0:	10c07f16 	blt	r2,r3,10034a0 <quorem+0x23c>
 10032a4:	1d3fffc4 	addi	r20,r3,-1
 10032a8:	d8c00417 	ldw	r3,16(sp)
 10032ac:	d9000317 	ldw	r4,12(sp)
 10032b0:	a505883a 	add	r2,r20,r20
 10032b4:	1085883a 	add	r2,r2,r2
 10032b8:	1cc00504 	addi	r19,r3,20
 10032bc:	25c00504 	addi	r23,r4,20
 10032c0:	98ad883a 	add	r22,r19,r2
 10032c4:	15c7883a 	add	r3,r2,r23
 10032c8:	b1400017 	ldw	r5,0(r22)
 10032cc:	19000017 	ldw	r4,0(r3)
 10032d0:	d8c00015 	stw	r3,0(sp)
 10032d4:	29400044 	addi	r5,r5,1
 10032d8:	d9000215 	stw	r4,8(sp)
 10032dc:	100a5c00 	call	100a5c0 <__udivsi3>
 10032e0:	1039883a 	mov	fp,r2
 10032e4:	10003d1e 	bne	r2,zero,10033dc <quorem+0x178>
 10032e8:	d9400417 	ldw	r5,16(sp)
 10032ec:	d9000317 	ldw	r4,12(sp)
 10032f0:	10068400 	call	1006840 <__mcmp>
 10032f4:	10002c16 	blt	r2,zero,10033a8 <quorem+0x144>
 10032f8:	e7000044 	addi	fp,fp,1
 10032fc:	b80f883a 	mov	r7,r23
 1003300:	0011883a 	mov	r8,zero
 1003304:	0009883a 	mov	r4,zero
 1003308:	99400017 	ldw	r5,0(r19)
 100330c:	38c00017 	ldw	r3,0(r7)
 1003310:	9cc00104 	addi	r19,r19,4
 1003314:	28bfffcc 	andi	r2,r5,65535
 1003318:	2085883a 	add	r2,r4,r2
 100331c:	11bfffcc 	andi	r6,r2,65535
 1003320:	193fffcc 	andi	r4,r3,65535
 1003324:	1004d43a 	srli	r2,r2,16
 1003328:	280ad43a 	srli	r5,r5,16
 100332c:	2189c83a 	sub	r4,r4,r6
 1003330:	2209883a 	add	r4,r4,r8
 1003334:	1806d43a 	srli	r3,r3,16
 1003338:	288b883a 	add	r5,r5,r2
 100333c:	200dd43a 	srai	r6,r4,16
 1003340:	28bfffcc 	andi	r2,r5,65535
 1003344:	1887c83a 	sub	r3,r3,r2
 1003348:	1987883a 	add	r3,r3,r6
 100334c:	3900000d 	sth	r4,0(r7)
 1003350:	38c0008d 	sth	r3,2(r7)
 1003354:	2808d43a 	srli	r4,r5,16
 1003358:	39c00104 	addi	r7,r7,4
 100335c:	1811d43a 	srai	r8,r3,16
 1003360:	b4ffe92e 	bgeu	r22,r19,1003308 <quorem+0xa4>
 1003364:	a505883a 	add	r2,r20,r20
 1003368:	1085883a 	add	r2,r2,r2
 100336c:	b885883a 	add	r2,r23,r2
 1003370:	10c00017 	ldw	r3,0(r2)
 1003374:	18000c1e 	bne	r3,zero,10033a8 <quorem+0x144>
 1003378:	113fff04 	addi	r4,r2,-4
 100337c:	b900082e 	bgeu	r23,r4,10033a0 <quorem+0x13c>
 1003380:	10bfff17 	ldw	r2,-4(r2)
 1003384:	10000326 	beq	r2,zero,1003394 <quorem+0x130>
 1003388:	00000506 	br	10033a0 <quorem+0x13c>
 100338c:	20800017 	ldw	r2,0(r4)
 1003390:	1000031e 	bne	r2,zero,10033a0 <quorem+0x13c>
 1003394:	213fff04 	addi	r4,r4,-4
 1003398:	a53fffc4 	addi	r20,r20,-1
 100339c:	b93ffb36 	bltu	r23,r4,100338c <quorem+0x128>
 10033a0:	d9000317 	ldw	r4,12(sp)
 10033a4:	25000415 	stw	r20,16(r4)
 10033a8:	e005883a 	mov	r2,fp
 10033ac:	dfc00e17 	ldw	ra,56(sp)
 10033b0:	df000d17 	ldw	fp,52(sp)
 10033b4:	ddc00c17 	ldw	r23,48(sp)
 10033b8:	dd800b17 	ldw	r22,44(sp)
 10033bc:	dd400a17 	ldw	r21,40(sp)
 10033c0:	dd000917 	ldw	r20,36(sp)
 10033c4:	dcc00817 	ldw	r19,32(sp)
 10033c8:	dc800717 	ldw	r18,28(sp)
 10033cc:	dc400617 	ldw	r17,24(sp)
 10033d0:	dc000517 	ldw	r16,20(sp)
 10033d4:	dec00f04 	addi	sp,sp,60
 10033d8:	f800283a 	ret
 10033dc:	b823883a 	mov	r17,r23
 10033e0:	9825883a 	mov	r18,r19
 10033e4:	d8000115 	stw	zero,4(sp)
 10033e8:	002b883a 	mov	r21,zero
 10033ec:	94000017 	ldw	r16,0(r18)
 10033f0:	e009883a 	mov	r4,fp
 10033f4:	94800104 	addi	r18,r18,4
 10033f8:	817fffcc 	andi	r5,r16,65535
 10033fc:	1000a8c0 	call	1000a8c <__mulsi3>
 1003400:	800ad43a 	srli	r5,r16,16
 1003404:	e009883a 	mov	r4,fp
 1003408:	a8a1883a 	add	r16,r21,r2
 100340c:	1000a8c0 	call	1000a8c <__mulsi3>
 1003410:	89000017 	ldw	r4,0(r17)
 1003414:	80ffffcc 	andi	r3,r16,65535
 1003418:	8020d43a 	srli	r16,r16,16
 100341c:	217fffcc 	andi	r5,r4,65535
 1003420:	28cbc83a 	sub	r5,r5,r3
 1003424:	d8c00117 	ldw	r3,4(sp)
 1003428:	2008d43a 	srli	r4,r4,16
 100342c:	1405883a 	add	r2,r2,r16
 1003430:	28cb883a 	add	r5,r5,r3
 1003434:	280dd43a 	srai	r6,r5,16
 1003438:	10ffffcc 	andi	r3,r2,65535
 100343c:	20c9c83a 	sub	r4,r4,r3
 1003440:	2189883a 	add	r4,r4,r6
 1003444:	8900008d 	sth	r4,2(r17)
 1003448:	2009d43a 	srai	r4,r4,16
 100344c:	8940000d 	sth	r5,0(r17)
 1003450:	102ad43a 	srli	r21,r2,16
 1003454:	8c400104 	addi	r17,r17,4
 1003458:	d9000115 	stw	r4,4(sp)
 100345c:	b4bfe32e 	bgeu	r22,r18,10033ec <quorem+0x188>
 1003460:	d9000217 	ldw	r4,8(sp)
 1003464:	203fa01e 	bne	r4,zero,10032e8 <quorem+0x84>
 1003468:	d8800017 	ldw	r2,0(sp)
 100346c:	10ffff04 	addi	r3,r2,-4
 1003470:	b8c0082e 	bgeu	r23,r3,1003494 <quorem+0x230>
 1003474:	10bfff17 	ldw	r2,-4(r2)
 1003478:	10000326 	beq	r2,zero,1003488 <quorem+0x224>
 100347c:	00000506 	br	1003494 <quorem+0x230>
 1003480:	18800017 	ldw	r2,0(r3)
 1003484:	1000031e 	bne	r2,zero,1003494 <quorem+0x230>
 1003488:	18ffff04 	addi	r3,r3,-4
 100348c:	a53fffc4 	addi	r20,r20,-1
 1003490:	b8fffb36 	bltu	r23,r3,1003480 <quorem+0x21c>
 1003494:	d8c00317 	ldw	r3,12(sp)
 1003498:	1d000415 	stw	r20,16(r3)
 100349c:	003f9206 	br	10032e8 <quorem+0x84>
 10034a0:	0005883a 	mov	r2,zero
 10034a4:	003fc106 	br	10033ac <quorem+0x148>

010034a8 <_dtoa_r>:
 10034a8:	22001017 	ldw	r8,64(r4)
 10034ac:	deffda04 	addi	sp,sp,-152
 10034b0:	dd402115 	stw	r21,132(sp)
 10034b4:	dd002015 	stw	r20,128(sp)
 10034b8:	dc801e15 	stw	r18,120(sp)
 10034bc:	dc401d15 	stw	r17,116(sp)
 10034c0:	dfc02515 	stw	ra,148(sp)
 10034c4:	df002415 	stw	fp,144(sp)
 10034c8:	ddc02315 	stw	r23,140(sp)
 10034cc:	dd802215 	stw	r22,136(sp)
 10034d0:	dcc01f15 	stw	r19,124(sp)
 10034d4:	dc001c15 	stw	r16,112(sp)
 10034d8:	d9001615 	stw	r4,88(sp)
 10034dc:	3023883a 	mov	r17,r6
 10034e0:	2829883a 	mov	r20,r5
 10034e4:	d9c01715 	stw	r7,92(sp)
 10034e8:	dc802817 	ldw	r18,160(sp)
 10034ec:	302b883a 	mov	r21,r6
 10034f0:	40000a26 	beq	r8,zero,100351c <_dtoa_r+0x74>
 10034f4:	20801117 	ldw	r2,68(r4)
 10034f8:	400b883a 	mov	r5,r8
 10034fc:	40800115 	stw	r2,4(r8)
 1003500:	20c01117 	ldw	r3,68(r4)
 1003504:	00800044 	movi	r2,1
 1003508:	10c4983a 	sll	r2,r2,r3
 100350c:	40800215 	stw	r2,8(r8)
 1003510:	10066e40 	call	10066e4 <_Bfree>
 1003514:	d8c01617 	ldw	r3,88(sp)
 1003518:	18001015 	stw	zero,64(r3)
 100351c:	8800a316 	blt	r17,zero,10037ac <_dtoa_r+0x304>
 1003520:	90000015 	stw	zero,0(r18)
 1003524:	a8dffc2c 	andhi	r3,r21,32752
 1003528:	009ffc34 	movhi	r2,32752
 100352c:	18809126 	beq	r3,r2,1003774 <_dtoa_r+0x2cc>
 1003530:	000d883a 	mov	r6,zero
 1003534:	000f883a 	mov	r7,zero
 1003538:	a009883a 	mov	r4,r20
 100353c:	a80b883a 	mov	r5,r21
 1003540:	dd001215 	stw	r20,72(sp)
 1003544:	dd401315 	stw	r21,76(sp)
 1003548:	1009f000 	call	1009f00 <__nedf2>
 100354c:	1000171e 	bne	r2,zero,10035ac <_dtoa_r+0x104>
 1003550:	d9802717 	ldw	r6,156(sp)
 1003554:	00800044 	movi	r2,1
 1003558:	30800015 	stw	r2,0(r6)
 100355c:	d8802917 	ldw	r2,164(sp)
 1003560:	10029b26 	beq	r2,zero,1003fd0 <_dtoa_r+0xb28>
 1003564:	d9002917 	ldw	r4,164(sp)
 1003568:	00804074 	movhi	r2,257
 100356c:	10b70b44 	addi	r2,r2,-9171
 1003570:	10ffffc4 	addi	r3,r2,-1
 1003574:	20800015 	stw	r2,0(r4)
 1003578:	1805883a 	mov	r2,r3
 100357c:	dfc02517 	ldw	ra,148(sp)
 1003580:	df002417 	ldw	fp,144(sp)
 1003584:	ddc02317 	ldw	r23,140(sp)
 1003588:	dd802217 	ldw	r22,136(sp)
 100358c:	dd402117 	ldw	r21,132(sp)
 1003590:	dd002017 	ldw	r20,128(sp)
 1003594:	dcc01f17 	ldw	r19,124(sp)
 1003598:	dc801e17 	ldw	r18,120(sp)
 100359c:	dc401d17 	ldw	r17,116(sp)
 10035a0:	dc001c17 	ldw	r16,112(sp)
 10035a4:	dec02604 	addi	sp,sp,152
 10035a8:	f800283a 	ret
 10035ac:	d9001617 	ldw	r4,88(sp)
 10035b0:	d9401217 	ldw	r5,72(sp)
 10035b4:	d8800104 	addi	r2,sp,4
 10035b8:	a80d883a 	mov	r6,r21
 10035bc:	d9c00204 	addi	r7,sp,8
 10035c0:	d8800015 	stw	r2,0(sp)
 10035c4:	1006d200 	call	1006d20 <__d2b>
 10035c8:	d8800715 	stw	r2,28(sp)
 10035cc:	a804d53a 	srli	r2,r21,20
 10035d0:	1101ffcc 	andi	r4,r2,2047
 10035d4:	20008626 	beq	r4,zero,10037f0 <_dtoa_r+0x348>
 10035d8:	d8c01217 	ldw	r3,72(sp)
 10035dc:	00800434 	movhi	r2,16
 10035e0:	10bfffc4 	addi	r2,r2,-1
 10035e4:	ddc00117 	ldw	r23,4(sp)
 10035e8:	a884703a 	and	r2,r21,r2
 10035ec:	1811883a 	mov	r8,r3
 10035f0:	124ffc34 	orhi	r9,r2,16368
 10035f4:	25bf0044 	addi	r22,r4,-1023
 10035f8:	d8000815 	stw	zero,32(sp)
 10035fc:	0005883a 	mov	r2,zero
 1003600:	00cffe34 	movhi	r3,16376
 1003604:	480b883a 	mov	r5,r9
 1003608:	4009883a 	mov	r4,r8
 100360c:	180f883a 	mov	r7,r3
 1003610:	100d883a 	mov	r6,r2
 1003614:	10097680 	call	1009768 <__subdf3>
 1003618:	0218dbf4 	movhi	r8,25455
 100361c:	4210d844 	addi	r8,r8,17249
 1003620:	024ff4f4 	movhi	r9,16339
 1003624:	4a61e9c4 	addi	r9,r9,-30809
 1003628:	480f883a 	mov	r7,r9
 100362c:	400d883a 	mov	r6,r8
 1003630:	180b883a 	mov	r5,r3
 1003634:	1009883a 	mov	r4,r2
 1003638:	100985c0 	call	100985c <__muldf3>
 100363c:	0222d874 	movhi	r8,35681
 1003640:	42322cc4 	addi	r8,r8,-14157
 1003644:	024ff1f4 	movhi	r9,16327
 1003648:	4a628a04 	addi	r9,r9,-30168
 100364c:	480f883a 	mov	r7,r9
 1003650:	400d883a 	mov	r6,r8
 1003654:	180b883a 	mov	r5,r3
 1003658:	1009883a 	mov	r4,r2
 100365c:	10097e80 	call	10097e8 <__adddf3>
 1003660:	b009883a 	mov	r4,r22
 1003664:	1021883a 	mov	r16,r2
 1003668:	1823883a 	mov	r17,r3
 100366c:	100a1200 	call	100a120 <__floatsidf>
 1003670:	021427f4 	movhi	r8,20639
 1003674:	421e7ec4 	addi	r8,r8,31227
 1003678:	024ff4f4 	movhi	r9,16339
 100367c:	4a5104c4 	addi	r9,r9,17427
 1003680:	480f883a 	mov	r7,r9
 1003684:	400d883a 	mov	r6,r8
 1003688:	180b883a 	mov	r5,r3
 100368c:	1009883a 	mov	r4,r2
 1003690:	100985c0 	call	100985c <__muldf3>
 1003694:	180f883a 	mov	r7,r3
 1003698:	880b883a 	mov	r5,r17
 100369c:	100d883a 	mov	r6,r2
 10036a0:	8009883a 	mov	r4,r16
 10036a4:	10097e80 	call	10097e8 <__adddf3>
 10036a8:	1009883a 	mov	r4,r2
 10036ac:	180b883a 	mov	r5,r3
 10036b0:	1021883a 	mov	r16,r2
 10036b4:	1823883a 	mov	r17,r3
 10036b8:	100a2180 	call	100a218 <__fixdfsi>
 10036bc:	000d883a 	mov	r6,zero
 10036c0:	000f883a 	mov	r7,zero
 10036c4:	8009883a 	mov	r4,r16
 10036c8:	880b883a 	mov	r5,r17
 10036cc:	d8800d15 	stw	r2,52(sp)
 10036d0:	100a0980 	call	100a098 <__ltdf2>
 10036d4:	10031716 	blt	r2,zero,1004334 <_dtoa_r+0xe8c>
 10036d8:	d8c00d17 	ldw	r3,52(sp)
 10036dc:	00800584 	movi	r2,22
 10036e0:	10c1482e 	bgeu	r2,r3,1003c04 <_dtoa_r+0x75c>
 10036e4:	01000044 	movi	r4,1
 10036e8:	d9000c15 	stw	r4,48(sp)
 10036ec:	bd85c83a 	sub	r2,r23,r22
 10036f0:	11bfffc4 	addi	r6,r2,-1
 10036f4:	30030b16 	blt	r6,zero,1004324 <_dtoa_r+0xe7c>
 10036f8:	d9800a15 	stw	r6,40(sp)
 10036fc:	d8001115 	stw	zero,68(sp)
 1003700:	d8c00d17 	ldw	r3,52(sp)
 1003704:	1802ff16 	blt	r3,zero,1004304 <_dtoa_r+0xe5c>
 1003708:	d9000a17 	ldw	r4,40(sp)
 100370c:	d8c00915 	stw	r3,36(sp)
 1003710:	d8001015 	stw	zero,64(sp)
 1003714:	20c9883a 	add	r4,r4,r3
 1003718:	d9000a15 	stw	r4,40(sp)
 100371c:	d9001717 	ldw	r4,92(sp)
 1003720:	00800244 	movi	r2,9
 1003724:	11004636 	bltu	r2,r4,1003840 <_dtoa_r+0x398>
 1003728:	00800144 	movi	r2,5
 100372c:	11020416 	blt	r2,r4,1003f40 <_dtoa_r+0xa98>
 1003730:	04400044 	movi	r17,1
 1003734:	d8c01717 	ldw	r3,92(sp)
 1003738:	00800144 	movi	r2,5
 100373c:	10c1ed36 	bltu	r2,r3,1003ef4 <_dtoa_r+0xa4c>
 1003740:	18c5883a 	add	r2,r3,r3
 1003744:	1085883a 	add	r2,r2,r2
 1003748:	00c04034 	movhi	r3,256
 100374c:	18cdd704 	addi	r3,r3,14172
 1003750:	10c5883a 	add	r2,r2,r3
 1003754:	11000017 	ldw	r4,0(r2)
 1003758:	2000683a 	jmp	r4
 100375c:	01003848 	cmpgei	r4,zero,225
 1003760:	01003848 	cmpgei	r4,zero,225
 1003764:	01004248 	cmpgei	r4,zero,265
 1003768:	01004220 	cmpeqi	r4,zero,264
 100376c:	01004264 	muli	r4,zero,265
 1003770:	01004270 	cmpltui	r4,zero,265
 1003774:	d9002717 	ldw	r4,156(sp)
 1003778:	0089c3c4 	movi	r2,9999
 100377c:	20800015 	stw	r2,0(r4)
 1003780:	a0001026 	beq	r20,zero,10037c4 <_dtoa_r+0x31c>
 1003784:	00c04074 	movhi	r3,257
 1003788:	18f71704 	addi	r3,r3,-9124
 100378c:	d9802917 	ldw	r6,164(sp)
 1003790:	303f7926 	beq	r6,zero,1003578 <_dtoa_r+0xd0>
 1003794:	188000c7 	ldb	r2,3(r3)
 1003798:	190000c4 	addi	r4,r3,3
 100379c:	1000101e 	bne	r2,zero,10037e0 <_dtoa_r+0x338>
 10037a0:	d8802917 	ldw	r2,164(sp)
 10037a4:	11000015 	stw	r4,0(r2)
 10037a8:	003f7306 	br	1003578 <_dtoa_r+0xd0>
 10037ac:	00a00034 	movhi	r2,32768
 10037b0:	10bfffc4 	addi	r2,r2,-1
 10037b4:	00c00044 	movi	r3,1
 10037b8:	88aa703a 	and	r21,r17,r2
 10037bc:	90c00015 	stw	r3,0(r18)
 10037c0:	003f5806 	br	1003524 <_dtoa_r+0x7c>
 10037c4:	00800434 	movhi	r2,16
 10037c8:	10bfffc4 	addi	r2,r2,-1
 10037cc:	a884703a 	and	r2,r21,r2
 10037d0:	103fec1e 	bne	r2,zero,1003784 <_dtoa_r+0x2dc>
 10037d4:	00c04074 	movhi	r3,257
 10037d8:	18f71404 	addi	r3,r3,-9136
 10037dc:	003feb06 	br	100378c <_dtoa_r+0x2e4>
 10037e0:	d8802917 	ldw	r2,164(sp)
 10037e4:	19000204 	addi	r4,r3,8
 10037e8:	11000015 	stw	r4,0(r2)
 10037ec:	003f6206 	br	1003578 <_dtoa_r+0xd0>
 10037f0:	ddc00117 	ldw	r23,4(sp)
 10037f4:	d8800217 	ldw	r2,8(sp)
 10037f8:	01000804 	movi	r4,32
 10037fc:	b8c10c84 	addi	r3,r23,1074
 1003800:	18a3883a 	add	r17,r3,r2
 1003804:	2441b80e 	bge	r4,r17,1003ee8 <_dtoa_r+0xa40>
 1003808:	00c01004 	movi	r3,64
 100380c:	1c47c83a 	sub	r3,r3,r17
 1003810:	88bff804 	addi	r2,r17,-32
 1003814:	a8c6983a 	sll	r3,r21,r3
 1003818:	a084d83a 	srl	r2,r20,r2
 100381c:	1888b03a 	or	r4,r3,r2
 1003820:	100a2f00 	call	100a2f0 <__floatunsidf>
 1003824:	1011883a 	mov	r8,r2
 1003828:	00bf8434 	movhi	r2,65040
 100382c:	01000044 	movi	r4,1
 1003830:	10d3883a 	add	r9,r2,r3
 1003834:	8dbef344 	addi	r22,r17,-1075
 1003838:	d9000815 	stw	r4,32(sp)
 100383c:	003f6f06 	br	10035fc <_dtoa_r+0x154>
 1003840:	d8001715 	stw	zero,92(sp)
 1003844:	04400044 	movi	r17,1
 1003848:	00bfffc4 	movi	r2,-1
 100384c:	00c00044 	movi	r3,1
 1003850:	d8800e15 	stw	r2,56(sp)
 1003854:	d8002615 	stw	zero,152(sp)
 1003858:	d8800f15 	stw	r2,60(sp)
 100385c:	d8c00b15 	stw	r3,44(sp)
 1003860:	1021883a 	mov	r16,r2
 1003864:	d8801617 	ldw	r2,88(sp)
 1003868:	10001115 	stw	zero,68(r2)
 100386c:	d8801617 	ldw	r2,88(sp)
 1003870:	11401117 	ldw	r5,68(r2)
 1003874:	1009883a 	mov	r4,r2
 1003878:	1006c640 	call	1006c64 <_Balloc>
 100387c:	d8c01617 	ldw	r3,88(sp)
 1003880:	d8800515 	stw	r2,20(sp)
 1003884:	18801015 	stw	r2,64(r3)
 1003888:	00800384 	movi	r2,14
 100388c:	14006836 	bltu	r2,r16,1003a30 <_dtoa_r+0x588>
 1003890:	8805003a 	cmpeq	r2,r17,zero
 1003894:	1000661e 	bne	r2,zero,1003a30 <_dtoa_r+0x588>
 1003898:	d9000d17 	ldw	r4,52(sp)
 100389c:	0102300e 	bge	zero,r4,1004160 <_dtoa_r+0xcb8>
 10038a0:	208003cc 	andi	r2,r4,15
 10038a4:	100490fa 	slli	r2,r2,3
 10038a8:	2025d13a 	srai	r18,r4,4
 10038ac:	00c04074 	movhi	r3,257
 10038b0:	18f72904 	addi	r3,r3,-9052
 10038b4:	10c5883a 	add	r2,r2,r3
 10038b8:	90c0040c 	andi	r3,r18,16
 10038bc:	14000017 	ldw	r16,0(r2)
 10038c0:	14400117 	ldw	r17,4(r2)
 10038c4:	18036a1e 	bne	r3,zero,1004670 <_dtoa_r+0x11c8>
 10038c8:	05800084 	movi	r22,2
 10038cc:	90001026 	beq	r18,zero,1003910 <_dtoa_r+0x468>
 10038d0:	04c04074 	movhi	r19,257
 10038d4:	9cf75b04 	addi	r19,r19,-8852
 10038d8:	9080004c 	andi	r2,r18,1
 10038dc:	1005003a 	cmpeq	r2,r2,zero
 10038e0:	1000081e 	bne	r2,zero,1003904 <_dtoa_r+0x45c>
 10038e4:	99800017 	ldw	r6,0(r19)
 10038e8:	99c00117 	ldw	r7,4(r19)
 10038ec:	880b883a 	mov	r5,r17
 10038f0:	8009883a 	mov	r4,r16
 10038f4:	100985c0 	call	100985c <__muldf3>
 10038f8:	1021883a 	mov	r16,r2
 10038fc:	b5800044 	addi	r22,r22,1
 1003900:	1823883a 	mov	r17,r3
 1003904:	9025d07a 	srai	r18,r18,1
 1003908:	9cc00204 	addi	r19,r19,8
 100390c:	903ff21e 	bne	r18,zero,10038d8 <_dtoa_r+0x430>
 1003910:	a80b883a 	mov	r5,r21
 1003914:	a009883a 	mov	r4,r20
 1003918:	880f883a 	mov	r7,r17
 100391c:	800d883a 	mov	r6,r16
 1003920:	1009c200 	call	1009c20 <__divdf3>
 1003924:	1029883a 	mov	r20,r2
 1003928:	182b883a 	mov	r21,r3
 100392c:	d8c00c17 	ldw	r3,48(sp)
 1003930:	1805003a 	cmpeq	r2,r3,zero
 1003934:	1000081e 	bne	r2,zero,1003958 <_dtoa_r+0x4b0>
 1003938:	0005883a 	mov	r2,zero
 100393c:	00cffc34 	movhi	r3,16368
 1003940:	180f883a 	mov	r7,r3
 1003944:	a009883a 	mov	r4,r20
 1003948:	a80b883a 	mov	r5,r21
 100394c:	100d883a 	mov	r6,r2
 1003950:	100a0980 	call	100a098 <__ltdf2>
 1003954:	1003fe16 	blt	r2,zero,1004950 <_dtoa_r+0x14a8>
 1003958:	b009883a 	mov	r4,r22
 100395c:	100a1200 	call	100a120 <__floatsidf>
 1003960:	180b883a 	mov	r5,r3
 1003964:	1009883a 	mov	r4,r2
 1003968:	a00d883a 	mov	r6,r20
 100396c:	a80f883a 	mov	r7,r21
 1003970:	100985c0 	call	100985c <__muldf3>
 1003974:	0011883a 	mov	r8,zero
 1003978:	02500734 	movhi	r9,16412
 100397c:	1009883a 	mov	r4,r2
 1003980:	180b883a 	mov	r5,r3
 1003984:	480f883a 	mov	r7,r9
 1003988:	400d883a 	mov	r6,r8
 100398c:	10097e80 	call	10097e8 <__adddf3>
 1003990:	d9000f17 	ldw	r4,60(sp)
 1003994:	102d883a 	mov	r22,r2
 1003998:	00bf3034 	movhi	r2,64704
 100399c:	18b9883a 	add	fp,r3,r2
 10039a0:	e02f883a 	mov	r23,fp
 10039a4:	20028f1e 	bne	r4,zero,10043e4 <_dtoa_r+0xf3c>
 10039a8:	0005883a 	mov	r2,zero
 10039ac:	00d00534 	movhi	r3,16404
 10039b0:	a009883a 	mov	r4,r20
 10039b4:	a80b883a 	mov	r5,r21
 10039b8:	180f883a 	mov	r7,r3
 10039bc:	100d883a 	mov	r6,r2
 10039c0:	10097680 	call	1009768 <__subdf3>
 10039c4:	1009883a 	mov	r4,r2
 10039c8:	e00f883a 	mov	r7,fp
 10039cc:	180b883a 	mov	r5,r3
 10039d0:	b00d883a 	mov	r6,r22
 10039d4:	1025883a 	mov	r18,r2
 10039d8:	1827883a 	mov	r19,r3
 10039dc:	1009f880 	call	1009f88 <__gtdf2>
 10039e0:	00834f16 	blt	zero,r2,1004720 <_dtoa_r+0x1278>
 10039e4:	e0e0003c 	xorhi	r3,fp,32768
 10039e8:	9009883a 	mov	r4,r18
 10039ec:	980b883a 	mov	r5,r19
 10039f0:	180f883a 	mov	r7,r3
 10039f4:	b00d883a 	mov	r6,r22
 10039f8:	100a0980 	call	100a098 <__ltdf2>
 10039fc:	1000080e 	bge	r2,zero,1003a20 <_dtoa_r+0x578>
 1003a00:	0027883a 	mov	r19,zero
 1003a04:	0025883a 	mov	r18,zero
 1003a08:	d8802617 	ldw	r2,152(sp)
 1003a0c:	df000517 	ldw	fp,20(sp)
 1003a10:	d8000615 	stw	zero,24(sp)
 1003a14:	0084303a 	nor	r2,zero,r2
 1003a18:	d8800d15 	stw	r2,52(sp)
 1003a1c:	00019b06 	br	100408c <_dtoa_r+0xbe4>
 1003a20:	d9801217 	ldw	r6,72(sp)
 1003a24:	d8801317 	ldw	r2,76(sp)
 1003a28:	3029883a 	mov	r20,r6
 1003a2c:	102b883a 	mov	r21,r2
 1003a30:	d8c00217 	ldw	r3,8(sp)
 1003a34:	18008516 	blt	r3,zero,1003c4c <_dtoa_r+0x7a4>
 1003a38:	d9000d17 	ldw	r4,52(sp)
 1003a3c:	00800384 	movi	r2,14
 1003a40:	11008216 	blt	r2,r4,1003c4c <_dtoa_r+0x7a4>
 1003a44:	200490fa 	slli	r2,r4,3
 1003a48:	d9802617 	ldw	r6,152(sp)
 1003a4c:	00c04074 	movhi	r3,257
 1003a50:	18f72904 	addi	r3,r3,-9052
 1003a54:	10c5883a 	add	r2,r2,r3
 1003a58:	14800017 	ldw	r18,0(r2)
 1003a5c:	14c00117 	ldw	r19,4(r2)
 1003a60:	30031e16 	blt	r6,zero,10046dc <_dtoa_r+0x1234>
 1003a64:	d9000517 	ldw	r4,20(sp)
 1003a68:	d8c00f17 	ldw	r3,60(sp)
 1003a6c:	a823883a 	mov	r17,r21
 1003a70:	a021883a 	mov	r16,r20
 1003a74:	192b883a 	add	r21,r3,r4
 1003a78:	2039883a 	mov	fp,r4
 1003a7c:	00000f06 	br	1003abc <_dtoa_r+0x614>
 1003a80:	0005883a 	mov	r2,zero
 1003a84:	00d00934 	movhi	r3,16420
 1003a88:	5009883a 	mov	r4,r10
 1003a8c:	580b883a 	mov	r5,r11
 1003a90:	180f883a 	mov	r7,r3
 1003a94:	100d883a 	mov	r6,r2
 1003a98:	100985c0 	call	100985c <__muldf3>
 1003a9c:	180b883a 	mov	r5,r3
 1003aa0:	000d883a 	mov	r6,zero
 1003aa4:	000f883a 	mov	r7,zero
 1003aa8:	1009883a 	mov	r4,r2
 1003aac:	1021883a 	mov	r16,r2
 1003ab0:	1823883a 	mov	r17,r3
 1003ab4:	1009f000 	call	1009f00 <__nedf2>
 1003ab8:	10004526 	beq	r2,zero,1003bd0 <_dtoa_r+0x728>
 1003abc:	900d883a 	mov	r6,r18
 1003ac0:	980f883a 	mov	r7,r19
 1003ac4:	8009883a 	mov	r4,r16
 1003ac8:	880b883a 	mov	r5,r17
 1003acc:	1009c200 	call	1009c20 <__divdf3>
 1003ad0:	180b883a 	mov	r5,r3
 1003ad4:	1009883a 	mov	r4,r2
 1003ad8:	100a2180 	call	100a218 <__fixdfsi>
 1003adc:	1009883a 	mov	r4,r2
 1003ae0:	1029883a 	mov	r20,r2
 1003ae4:	100a1200 	call	100a120 <__floatsidf>
 1003ae8:	180f883a 	mov	r7,r3
 1003aec:	9009883a 	mov	r4,r18
 1003af0:	980b883a 	mov	r5,r19
 1003af4:	100d883a 	mov	r6,r2
 1003af8:	100985c0 	call	100985c <__muldf3>
 1003afc:	180f883a 	mov	r7,r3
 1003b00:	880b883a 	mov	r5,r17
 1003b04:	8009883a 	mov	r4,r16
 1003b08:	100d883a 	mov	r6,r2
 1003b0c:	10097680 	call	1009768 <__subdf3>
 1003b10:	1015883a 	mov	r10,r2
 1003b14:	a0800c04 	addi	r2,r20,48
 1003b18:	e0800005 	stb	r2,0(fp)
 1003b1c:	e7000044 	addi	fp,fp,1
 1003b20:	1817883a 	mov	r11,r3
 1003b24:	e57fd61e 	bne	fp,r21,1003a80 <_dtoa_r+0x5d8>
 1003b28:	500d883a 	mov	r6,r10
 1003b2c:	180f883a 	mov	r7,r3
 1003b30:	5009883a 	mov	r4,r10
 1003b34:	180b883a 	mov	r5,r3
 1003b38:	10097e80 	call	10097e8 <__adddf3>
 1003b3c:	100d883a 	mov	r6,r2
 1003b40:	9009883a 	mov	r4,r18
 1003b44:	980b883a 	mov	r5,r19
 1003b48:	180f883a 	mov	r7,r3
 1003b4c:	1021883a 	mov	r16,r2
 1003b50:	1823883a 	mov	r17,r3
 1003b54:	100a0980 	call	100a098 <__ltdf2>
 1003b58:	10000816 	blt	r2,zero,1003b7c <_dtoa_r+0x6d4>
 1003b5c:	980b883a 	mov	r5,r19
 1003b60:	800d883a 	mov	r6,r16
 1003b64:	880f883a 	mov	r7,r17
 1003b68:	9009883a 	mov	r4,r18
 1003b6c:	1009e780 	call	1009e78 <__eqdf2>
 1003b70:	1000171e 	bne	r2,zero,1003bd0 <_dtoa_r+0x728>
 1003b74:	a080004c 	andi	r2,r20,1
 1003b78:	10001526 	beq	r2,zero,1003bd0 <_dtoa_r+0x728>
 1003b7c:	d8800d17 	ldw	r2,52(sp)
 1003b80:	d8800415 	stw	r2,16(sp)
 1003b84:	e009883a 	mov	r4,fp
 1003b88:	213fffc4 	addi	r4,r4,-1
 1003b8c:	20c00007 	ldb	r3,0(r4)
 1003b90:	00800e44 	movi	r2,57
 1003b94:	1880081e 	bne	r3,r2,1003bb8 <_dtoa_r+0x710>
 1003b98:	d8800517 	ldw	r2,20(sp)
 1003b9c:	113ffa1e 	bne	r2,r4,1003b88 <_dtoa_r+0x6e0>
 1003ba0:	d8c00417 	ldw	r3,16(sp)
 1003ba4:	d9800517 	ldw	r6,20(sp)
 1003ba8:	00800c04 	movi	r2,48
 1003bac:	18c00044 	addi	r3,r3,1
 1003bb0:	d8c00415 	stw	r3,16(sp)
 1003bb4:	30800005 	stb	r2,0(r6)
 1003bb8:	20800003 	ldbu	r2,0(r4)
 1003bbc:	d8c00417 	ldw	r3,16(sp)
 1003bc0:	27000044 	addi	fp,r4,1
 1003bc4:	10800044 	addi	r2,r2,1
 1003bc8:	d8c00d15 	stw	r3,52(sp)
 1003bcc:	20800005 	stb	r2,0(r4)
 1003bd0:	d9001617 	ldw	r4,88(sp)
 1003bd4:	d9400717 	ldw	r5,28(sp)
 1003bd8:	10066e40 	call	10066e4 <_Bfree>
 1003bdc:	e0000005 	stb	zero,0(fp)
 1003be0:	d9800d17 	ldw	r6,52(sp)
 1003be4:	d8c02717 	ldw	r3,156(sp)
 1003be8:	d9002917 	ldw	r4,164(sp)
 1003bec:	30800044 	addi	r2,r6,1
 1003bf0:	18800015 	stw	r2,0(r3)
 1003bf4:	20029c26 	beq	r4,zero,1004668 <_dtoa_r+0x11c0>
 1003bf8:	d8c00517 	ldw	r3,20(sp)
 1003bfc:	27000015 	stw	fp,0(r4)
 1003c00:	003e5d06 	br	1003578 <_dtoa_r+0xd0>
 1003c04:	d9800d17 	ldw	r6,52(sp)
 1003c08:	00c04074 	movhi	r3,257
 1003c0c:	18f72904 	addi	r3,r3,-9052
 1003c10:	d9001217 	ldw	r4,72(sp)
 1003c14:	300490fa 	slli	r2,r6,3
 1003c18:	d9401317 	ldw	r5,76(sp)
 1003c1c:	10c5883a 	add	r2,r2,r3
 1003c20:	12000017 	ldw	r8,0(r2)
 1003c24:	12400117 	ldw	r9,4(r2)
 1003c28:	400d883a 	mov	r6,r8
 1003c2c:	480f883a 	mov	r7,r9
 1003c30:	100a0980 	call	100a098 <__ltdf2>
 1003c34:	1000030e 	bge	r2,zero,1003c44 <_dtoa_r+0x79c>
 1003c38:	d8800d17 	ldw	r2,52(sp)
 1003c3c:	10bfffc4 	addi	r2,r2,-1
 1003c40:	d8800d15 	stw	r2,52(sp)
 1003c44:	d8000c15 	stw	zero,48(sp)
 1003c48:	003ea806 	br	10036ec <_dtoa_r+0x244>
 1003c4c:	d9000b17 	ldw	r4,44(sp)
 1003c50:	202cc03a 	cmpne	r22,r4,zero
 1003c54:	b000c71e 	bne	r22,zero,1003f74 <_dtoa_r+0xacc>
 1003c58:	dc001117 	ldw	r16,68(sp)
 1003c5c:	dc801017 	ldw	r18,64(sp)
 1003c60:	0027883a 	mov	r19,zero
 1003c64:	04000b0e 	bge	zero,r16,1003c94 <_dtoa_r+0x7ec>
 1003c68:	d8c00a17 	ldw	r3,40(sp)
 1003c6c:	00c0090e 	bge	zero,r3,1003c94 <_dtoa_r+0x7ec>
 1003c70:	8005883a 	mov	r2,r16
 1003c74:	1c011316 	blt	r3,r16,10040c4 <_dtoa_r+0xc1c>
 1003c78:	d9000a17 	ldw	r4,40(sp)
 1003c7c:	d9801117 	ldw	r6,68(sp)
 1003c80:	80a1c83a 	sub	r16,r16,r2
 1003c84:	2089c83a 	sub	r4,r4,r2
 1003c88:	308dc83a 	sub	r6,r6,r2
 1003c8c:	d9000a15 	stw	r4,40(sp)
 1003c90:	d9801115 	stw	r6,68(sp)
 1003c94:	d8801017 	ldw	r2,64(sp)
 1003c98:	0080150e 	bge	zero,r2,1003cf0 <_dtoa_r+0x848>
 1003c9c:	d8c00b17 	ldw	r3,44(sp)
 1003ca0:	1805003a 	cmpeq	r2,r3,zero
 1003ca4:	1001c91e 	bne	r2,zero,10043cc <_dtoa_r+0xf24>
 1003ca8:	04800e0e 	bge	zero,r18,1003ce4 <_dtoa_r+0x83c>
 1003cac:	d9001617 	ldw	r4,88(sp)
 1003cb0:	980b883a 	mov	r5,r19
 1003cb4:	900d883a 	mov	r6,r18
 1003cb8:	10075300 	call	1007530 <__pow5mult>
 1003cbc:	d9001617 	ldw	r4,88(sp)
 1003cc0:	d9800717 	ldw	r6,28(sp)
 1003cc4:	100b883a 	mov	r5,r2
 1003cc8:	1027883a 	mov	r19,r2
 1003ccc:	10071740 	call	1007174 <__multiply>
 1003cd0:	d9001617 	ldw	r4,88(sp)
 1003cd4:	d9400717 	ldw	r5,28(sp)
 1003cd8:	1023883a 	mov	r17,r2
 1003cdc:	10066e40 	call	10066e4 <_Bfree>
 1003ce0:	dc400715 	stw	r17,28(sp)
 1003ce4:	d9001017 	ldw	r4,64(sp)
 1003ce8:	248dc83a 	sub	r6,r4,r18
 1003cec:	30010e1e 	bne	r6,zero,1004128 <_dtoa_r+0xc80>
 1003cf0:	d9001617 	ldw	r4,88(sp)
 1003cf4:	04400044 	movi	r17,1
 1003cf8:	880b883a 	mov	r5,r17
 1003cfc:	10073c80 	call	10073c8 <__i2b>
 1003d00:	d9800917 	ldw	r6,36(sp)
 1003d04:	1025883a 	mov	r18,r2
 1003d08:	0180040e 	bge	zero,r6,1003d1c <_dtoa_r+0x874>
 1003d0c:	d9001617 	ldw	r4,88(sp)
 1003d10:	100b883a 	mov	r5,r2
 1003d14:	10075300 	call	1007530 <__pow5mult>
 1003d18:	1025883a 	mov	r18,r2
 1003d1c:	d8801717 	ldw	r2,92(sp)
 1003d20:	8880f30e 	bge	r17,r2,10040f0 <_dtoa_r+0xc48>
 1003d24:	0023883a 	mov	r17,zero
 1003d28:	d9800917 	ldw	r6,36(sp)
 1003d2c:	30019e1e 	bne	r6,zero,10043a8 <_dtoa_r+0xf00>
 1003d30:	00c00044 	movi	r3,1
 1003d34:	d9000a17 	ldw	r4,40(sp)
 1003d38:	20c5883a 	add	r2,r4,r3
 1003d3c:	10c007cc 	andi	r3,r2,31
 1003d40:	1800841e 	bne	r3,zero,1003f54 <_dtoa_r+0xaac>
 1003d44:	00800704 	movi	r2,28
 1003d48:	d9000a17 	ldw	r4,40(sp)
 1003d4c:	d9801117 	ldw	r6,68(sp)
 1003d50:	80a1883a 	add	r16,r16,r2
 1003d54:	2089883a 	add	r4,r4,r2
 1003d58:	308d883a 	add	r6,r6,r2
 1003d5c:	d9000a15 	stw	r4,40(sp)
 1003d60:	d9801115 	stw	r6,68(sp)
 1003d64:	d8801117 	ldw	r2,68(sp)
 1003d68:	0080050e 	bge	zero,r2,1003d80 <_dtoa_r+0x8d8>
 1003d6c:	d9400717 	ldw	r5,28(sp)
 1003d70:	d9001617 	ldw	r4,88(sp)
 1003d74:	100d883a 	mov	r6,r2
 1003d78:	10070280 	call	1007028 <__lshift>
 1003d7c:	d8800715 	stw	r2,28(sp)
 1003d80:	d8c00a17 	ldw	r3,40(sp)
 1003d84:	00c0050e 	bge	zero,r3,1003d9c <_dtoa_r+0x8f4>
 1003d88:	d9001617 	ldw	r4,88(sp)
 1003d8c:	900b883a 	mov	r5,r18
 1003d90:	180d883a 	mov	r6,r3
 1003d94:	10070280 	call	1007028 <__lshift>
 1003d98:	1025883a 	mov	r18,r2
 1003d9c:	d9000c17 	ldw	r4,48(sp)
 1003da0:	2005003a 	cmpeq	r2,r4,zero
 1003da4:	10016f26 	beq	r2,zero,1004364 <_dtoa_r+0xebc>
 1003da8:	d9000f17 	ldw	r4,60(sp)
 1003dac:	0102170e 	bge	zero,r4,100460c <_dtoa_r+0x1164>
 1003db0:	d9800b17 	ldw	r6,44(sp)
 1003db4:	3005003a 	cmpeq	r2,r6,zero
 1003db8:	1000881e 	bne	r2,zero,1003fdc <_dtoa_r+0xb34>
 1003dbc:	0400050e 	bge	zero,r16,1003dd4 <_dtoa_r+0x92c>
 1003dc0:	d9001617 	ldw	r4,88(sp)
 1003dc4:	980b883a 	mov	r5,r19
 1003dc8:	800d883a 	mov	r6,r16
 1003dcc:	10070280 	call	1007028 <__lshift>
 1003dd0:	1027883a 	mov	r19,r2
 1003dd4:	8804c03a 	cmpne	r2,r17,zero
 1003dd8:	1002541e 	bne	r2,zero,100472c <_dtoa_r+0x1284>
 1003ddc:	980b883a 	mov	r5,r19
 1003de0:	dd800517 	ldw	r22,20(sp)
 1003de4:	dcc00615 	stw	r19,24(sp)
 1003de8:	a700004c 	andi	fp,r20,1
 1003dec:	2827883a 	mov	r19,r5
 1003df0:	d9000717 	ldw	r4,28(sp)
 1003df4:	900b883a 	mov	r5,r18
 1003df8:	10032640 	call	1003264 <quorem>
 1003dfc:	d9000717 	ldw	r4,28(sp)
 1003e00:	d9400617 	ldw	r5,24(sp)
 1003e04:	1023883a 	mov	r17,r2
 1003e08:	8dc00c04 	addi	r23,r17,48
 1003e0c:	10068400 	call	1006840 <__mcmp>
 1003e10:	d9001617 	ldw	r4,88(sp)
 1003e14:	900b883a 	mov	r5,r18
 1003e18:	980d883a 	mov	r6,r19
 1003e1c:	1029883a 	mov	r20,r2
 1003e20:	1006e9c0 	call	1006e9c <__mdiff>
 1003e24:	102b883a 	mov	r21,r2
 1003e28:	10800317 	ldw	r2,12(r2)
 1003e2c:	1001281e 	bne	r2,zero,10042d0 <_dtoa_r+0xe28>
 1003e30:	d9000717 	ldw	r4,28(sp)
 1003e34:	a80b883a 	mov	r5,r21
 1003e38:	10068400 	call	1006840 <__mcmp>
 1003e3c:	d9001617 	ldw	r4,88(sp)
 1003e40:	1021883a 	mov	r16,r2
 1003e44:	a80b883a 	mov	r5,r21
 1003e48:	10066e40 	call	10066e4 <_Bfree>
 1003e4c:	8000041e 	bne	r16,zero,1003e60 <_dtoa_r+0x9b8>
 1003e50:	d8801717 	ldw	r2,92(sp)
 1003e54:	1000021e 	bne	r2,zero,1003e60 <_dtoa_r+0x9b8>
 1003e58:	e004c03a 	cmpne	r2,fp,zero
 1003e5c:	10011726 	beq	r2,zero,10042bc <_dtoa_r+0xe14>
 1003e60:	a0010616 	blt	r20,zero,100427c <_dtoa_r+0xdd4>
 1003e64:	a000041e 	bne	r20,zero,1003e78 <_dtoa_r+0x9d0>
 1003e68:	d8c01717 	ldw	r3,92(sp)
 1003e6c:	1800021e 	bne	r3,zero,1003e78 <_dtoa_r+0x9d0>
 1003e70:	e004c03a 	cmpne	r2,fp,zero
 1003e74:	10010126 	beq	r2,zero,100427c <_dtoa_r+0xdd4>
 1003e78:	04023d16 	blt	zero,r16,1004770 <_dtoa_r+0x12c8>
 1003e7c:	b5c00005 	stb	r23,0(r22)
 1003e80:	d9800517 	ldw	r6,20(sp)
 1003e84:	d9000f17 	ldw	r4,60(sp)
 1003e88:	b5800044 	addi	r22,r22,1
 1003e8c:	3105883a 	add	r2,r6,r4
 1003e90:	b0806526 	beq	r22,r2,1004028 <_dtoa_r+0xb80>
 1003e94:	d9400717 	ldw	r5,28(sp)
 1003e98:	d9001617 	ldw	r4,88(sp)
 1003e9c:	01800284 	movi	r6,10
 1003ea0:	000f883a 	mov	r7,zero
 1003ea4:	10074040 	call	1007404 <__multadd>
 1003ea8:	d8800715 	stw	r2,28(sp)
 1003eac:	d8800617 	ldw	r2,24(sp)
 1003eb0:	14c10c26 	beq	r2,r19,10042e4 <_dtoa_r+0xe3c>
 1003eb4:	d9400617 	ldw	r5,24(sp)
 1003eb8:	d9001617 	ldw	r4,88(sp)
 1003ebc:	01800284 	movi	r6,10
 1003ec0:	000f883a 	mov	r7,zero
 1003ec4:	10074040 	call	1007404 <__multadd>
 1003ec8:	d9001617 	ldw	r4,88(sp)
 1003ecc:	980b883a 	mov	r5,r19
 1003ed0:	01800284 	movi	r6,10
 1003ed4:	000f883a 	mov	r7,zero
 1003ed8:	d8800615 	stw	r2,24(sp)
 1003edc:	10074040 	call	1007404 <__multadd>
 1003ee0:	1027883a 	mov	r19,r2
 1003ee4:	003fc206 	br	1003df0 <_dtoa_r+0x948>
 1003ee8:	2445c83a 	sub	r2,r4,r17
 1003eec:	a088983a 	sll	r4,r20,r2
 1003ef0:	003e4b06 	br	1003820 <_dtoa_r+0x378>
 1003ef4:	01bfffc4 	movi	r6,-1
 1003ef8:	00800044 	movi	r2,1
 1003efc:	d9800e15 	stw	r6,56(sp)
 1003f00:	d9800f15 	stw	r6,60(sp)
 1003f04:	d8800b15 	stw	r2,44(sp)
 1003f08:	d8c01617 	ldw	r3,88(sp)
 1003f0c:	008005c4 	movi	r2,23
 1003f10:	18001115 	stw	zero,68(r3)
 1003f14:	1580082e 	bgeu	r2,r22,1003f38 <_dtoa_r+0xa90>
 1003f18:	00c00104 	movi	r3,4
 1003f1c:	0009883a 	mov	r4,zero
 1003f20:	18c7883a 	add	r3,r3,r3
 1003f24:	18800504 	addi	r2,r3,20
 1003f28:	21000044 	addi	r4,r4,1
 1003f2c:	b0bffc2e 	bgeu	r22,r2,1003f20 <_dtoa_r+0xa78>
 1003f30:	d9801617 	ldw	r6,88(sp)
 1003f34:	31001115 	stw	r4,68(r6)
 1003f38:	dc000f17 	ldw	r16,60(sp)
 1003f3c:	003e4b06 	br	100386c <_dtoa_r+0x3c4>
 1003f40:	d9801717 	ldw	r6,92(sp)
 1003f44:	0023883a 	mov	r17,zero
 1003f48:	31bfff04 	addi	r6,r6,-4
 1003f4c:	d9801715 	stw	r6,92(sp)
 1003f50:	003df806 	br	1003734 <_dtoa_r+0x28c>
 1003f54:	00800804 	movi	r2,32
 1003f58:	10c9c83a 	sub	r4,r2,r3
 1003f5c:	00c00104 	movi	r3,4
 1003f60:	19005a16 	blt	r3,r4,10040cc <_dtoa_r+0xc24>
 1003f64:	008000c4 	movi	r2,3
 1003f68:	113f7e16 	blt	r2,r4,1003d64 <_dtoa_r+0x8bc>
 1003f6c:	20800704 	addi	r2,r4,28
 1003f70:	003f7506 	br	1003d48 <_dtoa_r+0x8a0>
 1003f74:	d9801717 	ldw	r6,92(sp)
 1003f78:	00800044 	movi	r2,1
 1003f7c:	1180a10e 	bge	r2,r6,1004204 <_dtoa_r+0xd5c>
 1003f80:	d9800f17 	ldw	r6,60(sp)
 1003f84:	d8c01017 	ldw	r3,64(sp)
 1003f88:	30bfffc4 	addi	r2,r6,-1
 1003f8c:	1881c616 	blt	r3,r2,10046a8 <_dtoa_r+0x1200>
 1003f90:	18a5c83a 	sub	r18,r3,r2
 1003f94:	d8800f17 	ldw	r2,60(sp)
 1003f98:	10026216 	blt	r2,zero,1004924 <_dtoa_r+0x147c>
 1003f9c:	dc001117 	ldw	r16,68(sp)
 1003fa0:	1007883a 	mov	r3,r2
 1003fa4:	d9800a17 	ldw	r6,40(sp)
 1003fa8:	d8801117 	ldw	r2,68(sp)
 1003fac:	d9001617 	ldw	r4,88(sp)
 1003fb0:	30cd883a 	add	r6,r6,r3
 1003fb4:	10c5883a 	add	r2,r2,r3
 1003fb8:	01400044 	movi	r5,1
 1003fbc:	d9800a15 	stw	r6,40(sp)
 1003fc0:	d8801115 	stw	r2,68(sp)
 1003fc4:	10073c80 	call	10073c8 <__i2b>
 1003fc8:	1027883a 	mov	r19,r2
 1003fcc:	003f2506 	br	1003c64 <_dtoa_r+0x7bc>
 1003fd0:	00c04074 	movhi	r3,257
 1003fd4:	18f70b04 	addi	r3,r3,-9172
 1003fd8:	003d6706 	br	1003578 <_dtoa_r+0xd0>
 1003fdc:	dd800517 	ldw	r22,20(sp)
 1003fe0:	04000044 	movi	r16,1
 1003fe4:	00000706 	br	1004004 <_dtoa_r+0xb5c>
 1003fe8:	d9400717 	ldw	r5,28(sp)
 1003fec:	d9001617 	ldw	r4,88(sp)
 1003ff0:	01800284 	movi	r6,10
 1003ff4:	000f883a 	mov	r7,zero
 1003ff8:	10074040 	call	1007404 <__multadd>
 1003ffc:	d8800715 	stw	r2,28(sp)
 1004000:	84000044 	addi	r16,r16,1
 1004004:	d9000717 	ldw	r4,28(sp)
 1004008:	900b883a 	mov	r5,r18
 100400c:	10032640 	call	1003264 <quorem>
 1004010:	15c00c04 	addi	r23,r2,48
 1004014:	b5c00005 	stb	r23,0(r22)
 1004018:	d8c00f17 	ldw	r3,60(sp)
 100401c:	b5800044 	addi	r22,r22,1
 1004020:	80fff116 	blt	r16,r3,1003fe8 <_dtoa_r+0xb40>
 1004024:	d8000615 	stw	zero,24(sp)
 1004028:	d9400717 	ldw	r5,28(sp)
 100402c:	d9001617 	ldw	r4,88(sp)
 1004030:	01800044 	movi	r6,1
 1004034:	10070280 	call	1007028 <__lshift>
 1004038:	1009883a 	mov	r4,r2
 100403c:	900b883a 	mov	r5,r18
 1004040:	d8800715 	stw	r2,28(sp)
 1004044:	10068400 	call	1006840 <__mcmp>
 1004048:	00803c0e 	bge	zero,r2,100413c <_dtoa_r+0xc94>
 100404c:	b009883a 	mov	r4,r22
 1004050:	213fffc4 	addi	r4,r4,-1
 1004054:	21400003 	ldbu	r5,0(r4)
 1004058:	00800e44 	movi	r2,57
 100405c:	28c03fcc 	andi	r3,r5,255
 1004060:	18c0201c 	xori	r3,r3,128
 1004064:	18ffe004 	addi	r3,r3,-128
 1004068:	1881981e 	bne	r3,r2,10046cc <_dtoa_r+0x1224>
 100406c:	d9800517 	ldw	r6,20(sp)
 1004070:	21bff71e 	bne	r4,r6,1004050 <_dtoa_r+0xba8>
 1004074:	d8800d17 	ldw	r2,52(sp)
 1004078:	37000044 	addi	fp,r6,1
 100407c:	10800044 	addi	r2,r2,1
 1004080:	d8800d15 	stw	r2,52(sp)
 1004084:	00800c44 	movi	r2,49
 1004088:	30800005 	stb	r2,0(r6)
 100408c:	d9001617 	ldw	r4,88(sp)
 1004090:	900b883a 	mov	r5,r18
 1004094:	10066e40 	call	10066e4 <_Bfree>
 1004098:	983ecd26 	beq	r19,zero,1003bd0 <_dtoa_r+0x728>
 100409c:	d8c00617 	ldw	r3,24(sp)
 10040a0:	18000426 	beq	r3,zero,10040b4 <_dtoa_r+0xc0c>
 10040a4:	1cc00326 	beq	r3,r19,10040b4 <_dtoa_r+0xc0c>
 10040a8:	d9001617 	ldw	r4,88(sp)
 10040ac:	180b883a 	mov	r5,r3
 10040b0:	10066e40 	call	10066e4 <_Bfree>
 10040b4:	d9001617 	ldw	r4,88(sp)
 10040b8:	980b883a 	mov	r5,r19
 10040bc:	10066e40 	call	10066e4 <_Bfree>
 10040c0:	003ec306 	br	1003bd0 <_dtoa_r+0x728>
 10040c4:	1805883a 	mov	r2,r3
 10040c8:	003eeb06 	br	1003c78 <_dtoa_r+0x7d0>
 10040cc:	d9800a17 	ldw	r6,40(sp)
 10040d0:	d8c01117 	ldw	r3,68(sp)
 10040d4:	20bfff04 	addi	r2,r4,-4
 10040d8:	308d883a 	add	r6,r6,r2
 10040dc:	1887883a 	add	r3,r3,r2
 10040e0:	80a1883a 	add	r16,r16,r2
 10040e4:	d9800a15 	stw	r6,40(sp)
 10040e8:	d8c01115 	stw	r3,68(sp)
 10040ec:	003f1d06 	br	1003d64 <_dtoa_r+0x8bc>
 10040f0:	a03f0c1e 	bne	r20,zero,1003d24 <_dtoa_r+0x87c>
 10040f4:	00800434 	movhi	r2,16
 10040f8:	10bfffc4 	addi	r2,r2,-1
 10040fc:	a884703a 	and	r2,r21,r2
 1004100:	103f081e 	bne	r2,zero,1003d24 <_dtoa_r+0x87c>
 1004104:	a89ffc2c 	andhi	r2,r21,32752
 1004108:	103f0626 	beq	r2,zero,1003d24 <_dtoa_r+0x87c>
 100410c:	d8c01117 	ldw	r3,68(sp)
 1004110:	d9000a17 	ldw	r4,40(sp)
 1004114:	18c00044 	addi	r3,r3,1
 1004118:	21000044 	addi	r4,r4,1
 100411c:	d8c01115 	stw	r3,68(sp)
 1004120:	d9000a15 	stw	r4,40(sp)
 1004124:	003f0006 	br	1003d28 <_dtoa_r+0x880>
 1004128:	d9400717 	ldw	r5,28(sp)
 100412c:	d9001617 	ldw	r4,88(sp)
 1004130:	10075300 	call	1007530 <__pow5mult>
 1004134:	d8800715 	stw	r2,28(sp)
 1004138:	003eed06 	br	1003cf0 <_dtoa_r+0x848>
 100413c:	1000021e 	bne	r2,zero,1004148 <_dtoa_r+0xca0>
 1004140:	b880004c 	andi	r2,r23,1
 1004144:	103fc11e 	bne	r2,zero,100404c <_dtoa_r+0xba4>
 1004148:	b5bfffc4 	addi	r22,r22,-1
 100414c:	b0c00007 	ldb	r3,0(r22)
 1004150:	00800c04 	movi	r2,48
 1004154:	18bffc26 	beq	r3,r2,1004148 <_dtoa_r+0xca0>
 1004158:	b7000044 	addi	fp,r22,1
 100415c:	003fcb06 	br	100408c <_dtoa_r+0xbe4>
 1004160:	d9800d17 	ldw	r6,52(sp)
 1004164:	018fc83a 	sub	r7,zero,r6
 1004168:	3801f726 	beq	r7,zero,1004948 <_dtoa_r+0x14a0>
 100416c:	398003cc 	andi	r6,r7,15
 1004170:	300c90fa 	slli	r6,r6,3
 1004174:	01404074 	movhi	r5,257
 1004178:	29772904 	addi	r5,r5,-9052
 100417c:	d9001217 	ldw	r4,72(sp)
 1004180:	314d883a 	add	r6,r6,r5
 1004184:	30c00117 	ldw	r3,4(r6)
 1004188:	30800017 	ldw	r2,0(r6)
 100418c:	d9401317 	ldw	r5,76(sp)
 1004190:	3821d13a 	srai	r16,r7,4
 1004194:	100d883a 	mov	r6,r2
 1004198:	180f883a 	mov	r7,r3
 100419c:	100985c0 	call	100985c <__muldf3>
 10041a0:	1011883a 	mov	r8,r2
 10041a4:	1813883a 	mov	r9,r3
 10041a8:	1029883a 	mov	r20,r2
 10041ac:	182b883a 	mov	r21,r3
 10041b0:	8001e526 	beq	r16,zero,1004948 <_dtoa_r+0x14a0>
 10041b4:	05800084 	movi	r22,2
 10041b8:	04404074 	movhi	r17,257
 10041bc:	8c775b04 	addi	r17,r17,-8852
 10041c0:	8080004c 	andi	r2,r16,1
 10041c4:	1005003a 	cmpeq	r2,r2,zero
 10041c8:	1000081e 	bne	r2,zero,10041ec <_dtoa_r+0xd44>
 10041cc:	89800017 	ldw	r6,0(r17)
 10041d0:	89c00117 	ldw	r7,4(r17)
 10041d4:	480b883a 	mov	r5,r9
 10041d8:	4009883a 	mov	r4,r8
 10041dc:	100985c0 	call	100985c <__muldf3>
 10041e0:	1011883a 	mov	r8,r2
 10041e4:	b5800044 	addi	r22,r22,1
 10041e8:	1813883a 	mov	r9,r3
 10041ec:	8021d07a 	srai	r16,r16,1
 10041f0:	8c400204 	addi	r17,r17,8
 10041f4:	803ff21e 	bne	r16,zero,10041c0 <_dtoa_r+0xd18>
 10041f8:	4029883a 	mov	r20,r8
 10041fc:	482b883a 	mov	r21,r9
 1004200:	003dca06 	br	100392c <_dtoa_r+0x484>
 1004204:	d9000817 	ldw	r4,32(sp)
 1004208:	2005003a 	cmpeq	r2,r4,zero
 100420c:	1001f61e 	bne	r2,zero,10049e8 <_dtoa_r+0x1540>
 1004210:	dc001117 	ldw	r16,68(sp)
 1004214:	dc801017 	ldw	r18,64(sp)
 1004218:	18c10cc4 	addi	r3,r3,1075
 100421c:	003f6106 	br	1003fa4 <_dtoa_r+0xafc>
 1004220:	d8000b15 	stw	zero,44(sp)
 1004224:	d9802617 	ldw	r6,152(sp)
 1004228:	d8c00d17 	ldw	r3,52(sp)
 100422c:	30800044 	addi	r2,r6,1
 1004230:	18ad883a 	add	r22,r3,r2
 1004234:	b13fffc4 	addi	r4,r22,-1
 1004238:	d9000e15 	stw	r4,56(sp)
 100423c:	0581f60e 	bge	zero,r22,1004a18 <_dtoa_r+0x1570>
 1004240:	dd800f15 	stw	r22,60(sp)
 1004244:	003f3006 	br	1003f08 <_dtoa_r+0xa60>
 1004248:	d8000b15 	stw	zero,44(sp)
 100424c:	d9002617 	ldw	r4,152(sp)
 1004250:	0101eb0e 	bge	zero,r4,1004a00 <_dtoa_r+0x1558>
 1004254:	202d883a 	mov	r22,r4
 1004258:	d9000e15 	stw	r4,56(sp)
 100425c:	d9000f15 	stw	r4,60(sp)
 1004260:	003f2906 	br	1003f08 <_dtoa_r+0xa60>
 1004264:	01800044 	movi	r6,1
 1004268:	d9800b15 	stw	r6,44(sp)
 100426c:	003ff706 	br	100424c <_dtoa_r+0xda4>
 1004270:	01000044 	movi	r4,1
 1004274:	d9000b15 	stw	r4,44(sp)
 1004278:	003fea06 	br	1004224 <_dtoa_r+0xd7c>
 100427c:	04000c0e 	bge	zero,r16,10042b0 <_dtoa_r+0xe08>
 1004280:	d9400717 	ldw	r5,28(sp)
 1004284:	d9001617 	ldw	r4,88(sp)
 1004288:	01800044 	movi	r6,1
 100428c:	10070280 	call	1007028 <__lshift>
 1004290:	1009883a 	mov	r4,r2
 1004294:	900b883a 	mov	r5,r18
 1004298:	d8800715 	stw	r2,28(sp)
 100429c:	10068400 	call	1006840 <__mcmp>
 10042a0:	0081e00e 	bge	zero,r2,1004a24 <_dtoa_r+0x157c>
 10042a4:	bdc00044 	addi	r23,r23,1
 10042a8:	00800e84 	movi	r2,58
 10042ac:	b881a226 	beq	r23,r2,1004938 <_dtoa_r+0x1490>
 10042b0:	b7000044 	addi	fp,r22,1
 10042b4:	b5c00005 	stb	r23,0(r22)
 10042b8:	003f7406 	br	100408c <_dtoa_r+0xbe4>
 10042bc:	00800e44 	movi	r2,57
 10042c0:	b8819d26 	beq	r23,r2,1004938 <_dtoa_r+0x1490>
 10042c4:	053ffa0e 	bge	zero,r20,10042b0 <_dtoa_r+0xe08>
 10042c8:	8dc00c44 	addi	r23,r17,49
 10042cc:	003ff806 	br	10042b0 <_dtoa_r+0xe08>
 10042d0:	d9001617 	ldw	r4,88(sp)
 10042d4:	a80b883a 	mov	r5,r21
 10042d8:	04000044 	movi	r16,1
 10042dc:	10066e40 	call	10066e4 <_Bfree>
 10042e0:	003edf06 	br	1003e60 <_dtoa_r+0x9b8>
 10042e4:	d9001617 	ldw	r4,88(sp)
 10042e8:	980b883a 	mov	r5,r19
 10042ec:	01800284 	movi	r6,10
 10042f0:	000f883a 	mov	r7,zero
 10042f4:	10074040 	call	1007404 <__multadd>
 10042f8:	1027883a 	mov	r19,r2
 10042fc:	d8800615 	stw	r2,24(sp)
 1004300:	003ebb06 	br	1003df0 <_dtoa_r+0x948>
 1004304:	d9801117 	ldw	r6,68(sp)
 1004308:	d8800d17 	ldw	r2,52(sp)
 100430c:	d8000915 	stw	zero,36(sp)
 1004310:	308dc83a 	sub	r6,r6,r2
 1004314:	0087c83a 	sub	r3,zero,r2
 1004318:	d9801115 	stw	r6,68(sp)
 100431c:	d8c01015 	stw	r3,64(sp)
 1004320:	003cfe06 	br	100371c <_dtoa_r+0x274>
 1004324:	018dc83a 	sub	r6,zero,r6
 1004328:	d9801115 	stw	r6,68(sp)
 100432c:	d8000a15 	stw	zero,40(sp)
 1004330:	003cf306 	br	1003700 <_dtoa_r+0x258>
 1004334:	d9000d17 	ldw	r4,52(sp)
 1004338:	100a1200 	call	100a120 <__floatsidf>
 100433c:	880b883a 	mov	r5,r17
 1004340:	8009883a 	mov	r4,r16
 1004344:	180f883a 	mov	r7,r3
 1004348:	100d883a 	mov	r6,r2
 100434c:	1009f000 	call	1009f00 <__nedf2>
 1004350:	103ce126 	beq	r2,zero,10036d8 <_dtoa_r+0x230>
 1004354:	d9800d17 	ldw	r6,52(sp)
 1004358:	31bfffc4 	addi	r6,r6,-1
 100435c:	d9800d15 	stw	r6,52(sp)
 1004360:	003cdd06 	br	10036d8 <_dtoa_r+0x230>
 1004364:	d9000717 	ldw	r4,28(sp)
 1004368:	900b883a 	mov	r5,r18
 100436c:	10068400 	call	1006840 <__mcmp>
 1004370:	103e8d0e 	bge	r2,zero,1003da8 <_dtoa_r+0x900>
 1004374:	d9400717 	ldw	r5,28(sp)
 1004378:	d9001617 	ldw	r4,88(sp)
 100437c:	01800284 	movi	r6,10
 1004380:	000f883a 	mov	r7,zero
 1004384:	10074040 	call	1007404 <__multadd>
 1004388:	d9800d17 	ldw	r6,52(sp)
 100438c:	d8800715 	stw	r2,28(sp)
 1004390:	31bfffc4 	addi	r6,r6,-1
 1004394:	d9800d15 	stw	r6,52(sp)
 1004398:	b001a71e 	bne	r22,zero,1004a38 <_dtoa_r+0x1590>
 100439c:	d8800e17 	ldw	r2,56(sp)
 10043a0:	d8800f15 	stw	r2,60(sp)
 10043a4:	003e8006 	br	1003da8 <_dtoa_r+0x900>
 10043a8:	90800417 	ldw	r2,16(r18)
 10043ac:	1085883a 	add	r2,r2,r2
 10043b0:	1085883a 	add	r2,r2,r2
 10043b4:	1485883a 	add	r2,r2,r18
 10043b8:	11000417 	ldw	r4,16(r2)
 10043bc:	100670c0 	call	100670c <__hi0bits>
 10043c0:	00c00804 	movi	r3,32
 10043c4:	1887c83a 	sub	r3,r3,r2
 10043c8:	003e5a06 	br	1003d34 <_dtoa_r+0x88c>
 10043cc:	d9400717 	ldw	r5,28(sp)
 10043d0:	d9801017 	ldw	r6,64(sp)
 10043d4:	d9001617 	ldw	r4,88(sp)
 10043d8:	10075300 	call	1007530 <__pow5mult>
 10043dc:	d8800715 	stw	r2,28(sp)
 10043e0:	003e4306 	br	1003cf0 <_dtoa_r+0x848>
 10043e4:	d9800f17 	ldw	r6,60(sp)
 10043e8:	d8800d17 	ldw	r2,52(sp)
 10043ec:	d9800315 	stw	r6,12(sp)
 10043f0:	d8800415 	stw	r2,16(sp)
 10043f4:	d8c00b17 	ldw	r3,44(sp)
 10043f8:	1805003a 	cmpeq	r2,r3,zero
 10043fc:	1000e21e 	bne	r2,zero,1004788 <_dtoa_r+0x12e0>
 1004400:	d9000317 	ldw	r4,12(sp)
 1004404:	0005883a 	mov	r2,zero
 1004408:	00cff834 	movhi	r3,16352
 100440c:	200c90fa 	slli	r6,r4,3
 1004410:	01004074 	movhi	r4,257
 1004414:	21372904 	addi	r4,r4,-9052
 1004418:	180b883a 	mov	r5,r3
 100441c:	310d883a 	add	r6,r6,r4
 1004420:	327fff17 	ldw	r9,-4(r6)
 1004424:	323ffe17 	ldw	r8,-8(r6)
 1004428:	1009883a 	mov	r4,r2
 100442c:	480f883a 	mov	r7,r9
 1004430:	400d883a 	mov	r6,r8
 1004434:	1009c200 	call	1009c20 <__divdf3>
 1004438:	180b883a 	mov	r5,r3
 100443c:	b00d883a 	mov	r6,r22
 1004440:	b80f883a 	mov	r7,r23
 1004444:	1009883a 	mov	r4,r2
 1004448:	10097680 	call	1009768 <__subdf3>
 100444c:	a80b883a 	mov	r5,r21
 1004450:	a009883a 	mov	r4,r20
 1004454:	d8c01915 	stw	r3,100(sp)
 1004458:	d8801815 	stw	r2,96(sp)
 100445c:	100a2180 	call	100a218 <__fixdfsi>
 1004460:	1009883a 	mov	r4,r2
 1004464:	1027883a 	mov	r19,r2
 1004468:	100a1200 	call	100a120 <__floatsidf>
 100446c:	a80b883a 	mov	r5,r21
 1004470:	a009883a 	mov	r4,r20
 1004474:	180f883a 	mov	r7,r3
 1004478:	100d883a 	mov	r6,r2
 100447c:	10097680 	call	1009768 <__subdf3>
 1004480:	d9801817 	ldw	r6,96(sp)
 1004484:	1823883a 	mov	r17,r3
 1004488:	d8801415 	stw	r2,80(sp)
 100448c:	302d883a 	mov	r22,r6
 1004490:	d9800517 	ldw	r6,20(sp)
 1004494:	9cc00c04 	addi	r19,r19,48
 1004498:	dc401515 	stw	r17,84(sp)
 100449c:	d8c01917 	ldw	r3,100(sp)
 10044a0:	34c00005 	stb	r19,0(r6)
 10044a4:	d8800517 	ldw	r2,20(sp)
 10044a8:	d9401917 	ldw	r5,100(sp)
 10044ac:	d9801417 	ldw	r6,80(sp)
 10044b0:	b009883a 	mov	r4,r22
 10044b4:	880f883a 	mov	r7,r17
 10044b8:	182f883a 	mov	r23,r3
 10044bc:	17000044 	addi	fp,r2,1
 10044c0:	1009f880 	call	1009f88 <__gtdf2>
 10044c4:	00804e16 	blt	zero,r2,1004600 <_dtoa_r+0x1158>
 10044c8:	d9801417 	ldw	r6,80(sp)
 10044cc:	0005883a 	mov	r2,zero
 10044d0:	00cffc34 	movhi	r3,16368
 10044d4:	180b883a 	mov	r5,r3
 10044d8:	880f883a 	mov	r7,r17
 10044dc:	1009883a 	mov	r4,r2
 10044e0:	10097680 	call	1009768 <__subdf3>
 10044e4:	d9401917 	ldw	r5,100(sp)
 10044e8:	180f883a 	mov	r7,r3
 10044ec:	b009883a 	mov	r4,r22
 10044f0:	100d883a 	mov	r6,r2
 10044f4:	1009f880 	call	1009f88 <__gtdf2>
 10044f8:	00bda216 	blt	zero,r2,1003b84 <_dtoa_r+0x6dc>
 10044fc:	d8c00317 	ldw	r3,12(sp)
 1004500:	00800044 	movi	r2,1
 1004504:	10c01216 	blt	r2,r3,1004550 <_dtoa_r+0x10a8>
 1004508:	003d4506 	br	1003a20 <_dtoa_r+0x578>
 100450c:	d9801417 	ldw	r6,80(sp)
 1004510:	0005883a 	mov	r2,zero
 1004514:	00cffc34 	movhi	r3,16368
 1004518:	180b883a 	mov	r5,r3
 100451c:	880f883a 	mov	r7,r17
 1004520:	1009883a 	mov	r4,r2
 1004524:	10097680 	call	1009768 <__subdf3>
 1004528:	d9c01b17 	ldw	r7,108(sp)
 100452c:	180b883a 	mov	r5,r3
 1004530:	1009883a 	mov	r4,r2
 1004534:	b00d883a 	mov	r6,r22
 1004538:	100a0980 	call	100a098 <__ltdf2>
 100453c:	103d9116 	blt	r2,zero,1003b84 <_dtoa_r+0x6dc>
 1004540:	d9800517 	ldw	r6,20(sp)
 1004544:	d9000317 	ldw	r4,12(sp)
 1004548:	3105883a 	add	r2,r6,r4
 100454c:	e0bd3426 	beq	fp,r2,1003a20 <_dtoa_r+0x578>
 1004550:	04500934 	movhi	r17,16420
 1004554:	0021883a 	mov	r16,zero
 1004558:	b80b883a 	mov	r5,r23
 100455c:	b009883a 	mov	r4,r22
 1004560:	800d883a 	mov	r6,r16
 1004564:	880f883a 	mov	r7,r17
 1004568:	100985c0 	call	100985c <__muldf3>
 100456c:	d9401517 	ldw	r5,84(sp)
 1004570:	d9001417 	ldw	r4,80(sp)
 1004574:	880f883a 	mov	r7,r17
 1004578:	000d883a 	mov	r6,zero
 100457c:	d8801a15 	stw	r2,104(sp)
 1004580:	d8c01b15 	stw	r3,108(sp)
 1004584:	100985c0 	call	100985c <__muldf3>
 1004588:	180b883a 	mov	r5,r3
 100458c:	1009883a 	mov	r4,r2
 1004590:	1823883a 	mov	r17,r3
 1004594:	1021883a 	mov	r16,r2
 1004598:	100a2180 	call	100a218 <__fixdfsi>
 100459c:	1009883a 	mov	r4,r2
 10045a0:	102b883a 	mov	r21,r2
 10045a4:	100a1200 	call	100a120 <__floatsidf>
 10045a8:	880b883a 	mov	r5,r17
 10045ac:	8009883a 	mov	r4,r16
 10045b0:	180f883a 	mov	r7,r3
 10045b4:	100d883a 	mov	r6,r2
 10045b8:	10097680 	call	1009768 <__subdf3>
 10045bc:	1021883a 	mov	r16,r2
 10045c0:	d9001b17 	ldw	r4,108(sp)
 10045c4:	1823883a 	mov	r17,r3
 10045c8:	dc001415 	stw	r16,80(sp)
 10045cc:	ad400c04 	addi	r21,r21,48
 10045d0:	dc401515 	stw	r17,84(sp)
 10045d4:	d8801a17 	ldw	r2,104(sp)
 10045d8:	e5400005 	stb	r21,0(fp)
 10045dc:	202f883a 	mov	r23,r4
 10045e0:	d9c01b17 	ldw	r7,108(sp)
 10045e4:	d9001417 	ldw	r4,80(sp)
 10045e8:	880b883a 	mov	r5,r17
 10045ec:	100d883a 	mov	r6,r2
 10045f0:	102d883a 	mov	r22,r2
 10045f4:	e7000044 	addi	fp,fp,1
 10045f8:	100a0980 	call	100a098 <__ltdf2>
 10045fc:	103fc30e 	bge	r2,zero,100450c <_dtoa_r+0x1064>
 1004600:	d9000417 	ldw	r4,16(sp)
 1004604:	d9000d15 	stw	r4,52(sp)
 1004608:	003d7106 	br	1003bd0 <_dtoa_r+0x728>
 100460c:	d9801717 	ldw	r6,92(sp)
 1004610:	00800084 	movi	r2,2
 1004614:	11bde60e 	bge	r2,r6,1003db0 <_dtoa_r+0x908>
 1004618:	203cfb1e 	bne	r4,zero,1003a08 <_dtoa_r+0x560>
 100461c:	d9001617 	ldw	r4,88(sp)
 1004620:	900b883a 	mov	r5,r18
 1004624:	01800144 	movi	r6,5
 1004628:	000f883a 	mov	r7,zero
 100462c:	10074040 	call	1007404 <__multadd>
 1004630:	d9000717 	ldw	r4,28(sp)
 1004634:	100b883a 	mov	r5,r2
 1004638:	1025883a 	mov	r18,r2
 100463c:	10068400 	call	1006840 <__mcmp>
 1004640:	00bcf10e 	bge	zero,r2,1003a08 <_dtoa_r+0x560>
 1004644:	d8c00d17 	ldw	r3,52(sp)
 1004648:	d9000517 	ldw	r4,20(sp)
 100464c:	d8000615 	stw	zero,24(sp)
 1004650:	18c00044 	addi	r3,r3,1
 1004654:	d8c00d15 	stw	r3,52(sp)
 1004658:	00800c44 	movi	r2,49
 100465c:	27000044 	addi	fp,r4,1
 1004660:	20800005 	stb	r2,0(r4)
 1004664:	003e8906 	br	100408c <_dtoa_r+0xbe4>
 1004668:	d8c00517 	ldw	r3,20(sp)
 100466c:	003bc206 	br	1003578 <_dtoa_r+0xd0>
 1004670:	01804074 	movhi	r6,257
 1004674:	31b75b04 	addi	r6,r6,-8852
 1004678:	30c00917 	ldw	r3,36(r6)
 100467c:	30800817 	ldw	r2,32(r6)
 1004680:	d9001217 	ldw	r4,72(sp)
 1004684:	d9401317 	ldw	r5,76(sp)
 1004688:	180f883a 	mov	r7,r3
 100468c:	100d883a 	mov	r6,r2
 1004690:	1009c200 	call	1009c20 <__divdf3>
 1004694:	948003cc 	andi	r18,r18,15
 1004698:	058000c4 	movi	r22,3
 100469c:	1029883a 	mov	r20,r2
 10046a0:	182b883a 	mov	r21,r3
 10046a4:	003c8906 	br	10038cc <_dtoa_r+0x424>
 10046a8:	d9001017 	ldw	r4,64(sp)
 10046ac:	d9800917 	ldw	r6,36(sp)
 10046b0:	0025883a 	mov	r18,zero
 10046b4:	1105c83a 	sub	r2,r2,r4
 10046b8:	2089883a 	add	r4,r4,r2
 10046bc:	308d883a 	add	r6,r6,r2
 10046c0:	d9001015 	stw	r4,64(sp)
 10046c4:	d9800915 	stw	r6,36(sp)
 10046c8:	003e3206 	br	1003f94 <_dtoa_r+0xaec>
 10046cc:	28800044 	addi	r2,r5,1
 10046d0:	27000044 	addi	fp,r4,1
 10046d4:	20800005 	stb	r2,0(r4)
 10046d8:	003e6c06 	br	100408c <_dtoa_r+0xbe4>
 10046dc:	d8800f17 	ldw	r2,60(sp)
 10046e0:	00bce016 	blt	zero,r2,1003a64 <_dtoa_r+0x5bc>
 10046e4:	d9800f17 	ldw	r6,60(sp)
 10046e8:	303cc51e 	bne	r6,zero,1003a00 <_dtoa_r+0x558>
 10046ec:	0005883a 	mov	r2,zero
 10046f0:	00d00534 	movhi	r3,16404
 10046f4:	980b883a 	mov	r5,r19
 10046f8:	180f883a 	mov	r7,r3
 10046fc:	9009883a 	mov	r4,r18
 1004700:	100d883a 	mov	r6,r2
 1004704:	100985c0 	call	100985c <__muldf3>
 1004708:	180b883a 	mov	r5,r3
 100470c:	a80f883a 	mov	r7,r21
 1004710:	1009883a 	mov	r4,r2
 1004714:	a00d883a 	mov	r6,r20
 1004718:	100a0100 	call	100a010 <__gedf2>
 100471c:	103cb80e 	bge	r2,zero,1003a00 <_dtoa_r+0x558>
 1004720:	0027883a 	mov	r19,zero
 1004724:	0025883a 	mov	r18,zero
 1004728:	003fc606 	br	1004644 <_dtoa_r+0x119c>
 100472c:	99400117 	ldw	r5,4(r19)
 1004730:	d9001617 	ldw	r4,88(sp)
 1004734:	1006c640 	call	1006c64 <_Balloc>
 1004738:	99800417 	ldw	r6,16(r19)
 100473c:	11000304 	addi	r4,r2,12
 1004740:	99400304 	addi	r5,r19,12
 1004744:	318d883a 	add	r6,r6,r6
 1004748:	318d883a 	add	r6,r6,r6
 100474c:	31800204 	addi	r6,r6,8
 1004750:	1023883a 	mov	r17,r2
 1004754:	10064cc0 	call	10064cc <memcpy>
 1004758:	d9001617 	ldw	r4,88(sp)
 100475c:	880b883a 	mov	r5,r17
 1004760:	01800044 	movi	r6,1
 1004764:	10070280 	call	1007028 <__lshift>
 1004768:	100b883a 	mov	r5,r2
 100476c:	003d9c06 	br	1003de0 <_dtoa_r+0x938>
 1004770:	00800e44 	movi	r2,57
 1004774:	b8807026 	beq	r23,r2,1004938 <_dtoa_r+0x1490>
 1004778:	b8800044 	addi	r2,r23,1
 100477c:	b7000044 	addi	fp,r22,1
 1004780:	b0800005 	stb	r2,0(r22)
 1004784:	003e4106 	br	100408c <_dtoa_r+0xbe4>
 1004788:	d8800317 	ldw	r2,12(sp)
 100478c:	01804074 	movhi	r6,257
 1004790:	31b72904 	addi	r6,r6,-9052
 1004794:	b009883a 	mov	r4,r22
 1004798:	100e90fa 	slli	r7,r2,3
 100479c:	b80b883a 	mov	r5,r23
 10047a0:	398f883a 	add	r7,r7,r6
 10047a4:	38bffe17 	ldw	r2,-8(r7)
 10047a8:	d9800517 	ldw	r6,20(sp)
 10047ac:	38ffff17 	ldw	r3,-4(r7)
 10047b0:	37000044 	addi	fp,r6,1
 10047b4:	180f883a 	mov	r7,r3
 10047b8:	100d883a 	mov	r6,r2
 10047bc:	100985c0 	call	100985c <__muldf3>
 10047c0:	a80b883a 	mov	r5,r21
 10047c4:	a009883a 	mov	r4,r20
 10047c8:	182f883a 	mov	r23,r3
 10047cc:	102d883a 	mov	r22,r2
 10047d0:	100a2180 	call	100a218 <__fixdfsi>
 10047d4:	1009883a 	mov	r4,r2
 10047d8:	1027883a 	mov	r19,r2
 10047dc:	100a1200 	call	100a120 <__floatsidf>
 10047e0:	a80b883a 	mov	r5,r21
 10047e4:	a009883a 	mov	r4,r20
 10047e8:	180f883a 	mov	r7,r3
 10047ec:	100d883a 	mov	r6,r2
 10047f0:	10097680 	call	1009768 <__subdf3>
 10047f4:	180b883a 	mov	r5,r3
 10047f8:	d8c00517 	ldw	r3,20(sp)
 10047fc:	9cc00c04 	addi	r19,r19,48
 1004800:	1009883a 	mov	r4,r2
 1004804:	1cc00005 	stb	r19,0(r3)
 1004808:	2021883a 	mov	r16,r4
 100480c:	d9000317 	ldw	r4,12(sp)
 1004810:	00800044 	movi	r2,1
 1004814:	2823883a 	mov	r17,r5
 1004818:	20802226 	beq	r4,r2,10048a4 <_dtoa_r+0x13fc>
 100481c:	1029883a 	mov	r20,r2
 1004820:	0005883a 	mov	r2,zero
 1004824:	00d00934 	movhi	r3,16420
 1004828:	180f883a 	mov	r7,r3
 100482c:	100d883a 	mov	r6,r2
 1004830:	880b883a 	mov	r5,r17
 1004834:	8009883a 	mov	r4,r16
 1004838:	100985c0 	call	100985c <__muldf3>
 100483c:	180b883a 	mov	r5,r3
 1004840:	1009883a 	mov	r4,r2
 1004844:	1823883a 	mov	r17,r3
 1004848:	1021883a 	mov	r16,r2
 100484c:	100a2180 	call	100a218 <__fixdfsi>
 1004850:	1009883a 	mov	r4,r2
 1004854:	102b883a 	mov	r21,r2
 1004858:	100a1200 	call	100a120 <__floatsidf>
 100485c:	880b883a 	mov	r5,r17
 1004860:	8009883a 	mov	r4,r16
 1004864:	180f883a 	mov	r7,r3
 1004868:	100d883a 	mov	r6,r2
 100486c:	10097680 	call	1009768 <__subdf3>
 1004870:	180b883a 	mov	r5,r3
 1004874:	d8c00517 	ldw	r3,20(sp)
 1004878:	1009883a 	mov	r4,r2
 100487c:	ad400c04 	addi	r21,r21,48
 1004880:	1d05883a 	add	r2,r3,r20
 1004884:	15400005 	stb	r21,0(r2)
 1004888:	2021883a 	mov	r16,r4
 100488c:	d9000317 	ldw	r4,12(sp)
 1004890:	a5000044 	addi	r20,r20,1
 1004894:	2823883a 	mov	r17,r5
 1004898:	a13fe11e 	bne	r20,r4,1004820 <_dtoa_r+0x1378>
 100489c:	e505883a 	add	r2,fp,r20
 10048a0:	173fffc4 	addi	fp,r2,-1
 10048a4:	0025883a 	mov	r18,zero
 10048a8:	04cff834 	movhi	r19,16352
 10048ac:	b009883a 	mov	r4,r22
 10048b0:	b80b883a 	mov	r5,r23
 10048b4:	900d883a 	mov	r6,r18
 10048b8:	980f883a 	mov	r7,r19
 10048bc:	10097e80 	call	10097e8 <__adddf3>
 10048c0:	180b883a 	mov	r5,r3
 10048c4:	1009883a 	mov	r4,r2
 10048c8:	800d883a 	mov	r6,r16
 10048cc:	880f883a 	mov	r7,r17
 10048d0:	100a0980 	call	100a098 <__ltdf2>
 10048d4:	103cab16 	blt	r2,zero,1003b84 <_dtoa_r+0x6dc>
 10048d8:	0009883a 	mov	r4,zero
 10048dc:	980b883a 	mov	r5,r19
 10048e0:	b80f883a 	mov	r7,r23
 10048e4:	b00d883a 	mov	r6,r22
 10048e8:	10097680 	call	1009768 <__subdf3>
 10048ec:	180b883a 	mov	r5,r3
 10048f0:	880f883a 	mov	r7,r17
 10048f4:	1009883a 	mov	r4,r2
 10048f8:	800d883a 	mov	r6,r16
 10048fc:	1009f880 	call	1009f88 <__gtdf2>
 1004900:	00bc470e 	bge	zero,r2,1003a20 <_dtoa_r+0x578>
 1004904:	00c00c04 	movi	r3,48
 1004908:	e73fffc4 	addi	fp,fp,-1
 100490c:	e0800007 	ldb	r2,0(fp)
 1004910:	10fffd26 	beq	r2,r3,1004908 <_dtoa_r+0x1460>
 1004914:	d9800417 	ldw	r6,16(sp)
 1004918:	e7000044 	addi	fp,fp,1
 100491c:	d9800d15 	stw	r6,52(sp)
 1004920:	003cab06 	br	1003bd0 <_dtoa_r+0x728>
 1004924:	d8c00f17 	ldw	r3,60(sp)
 1004928:	d9001117 	ldw	r4,68(sp)
 100492c:	20e1c83a 	sub	r16,r4,r3
 1004930:	0007883a 	mov	r3,zero
 1004934:	003d9b06 	br	1003fa4 <_dtoa_r+0xafc>
 1004938:	00800e44 	movi	r2,57
 100493c:	b0800005 	stb	r2,0(r22)
 1004940:	b5800044 	addi	r22,r22,1
 1004944:	003dc106 	br	100404c <_dtoa_r+0xba4>
 1004948:	05800084 	movi	r22,2
 100494c:	003bf706 	br	100392c <_dtoa_r+0x484>
 1004950:	d9000f17 	ldw	r4,60(sp)
 1004954:	013c000e 	bge	zero,r4,1003958 <_dtoa_r+0x4b0>
 1004958:	d9800e17 	ldw	r6,56(sp)
 100495c:	01bc300e 	bge	zero,r6,1003a20 <_dtoa_r+0x578>
 1004960:	0005883a 	mov	r2,zero
 1004964:	00d00934 	movhi	r3,16420
 1004968:	a80b883a 	mov	r5,r21
 100496c:	180f883a 	mov	r7,r3
 1004970:	a009883a 	mov	r4,r20
 1004974:	100d883a 	mov	r6,r2
 1004978:	100985c0 	call	100985c <__muldf3>
 100497c:	b1000044 	addi	r4,r22,1
 1004980:	1021883a 	mov	r16,r2
 1004984:	1823883a 	mov	r17,r3
 1004988:	100a1200 	call	100a120 <__floatsidf>
 100498c:	880b883a 	mov	r5,r17
 1004990:	8009883a 	mov	r4,r16
 1004994:	180f883a 	mov	r7,r3
 1004998:	100d883a 	mov	r6,r2
 100499c:	100985c0 	call	100985c <__muldf3>
 10049a0:	0011883a 	mov	r8,zero
 10049a4:	02500734 	movhi	r9,16412
 10049a8:	180b883a 	mov	r5,r3
 10049ac:	480f883a 	mov	r7,r9
 10049b0:	1009883a 	mov	r4,r2
 10049b4:	400d883a 	mov	r6,r8
 10049b8:	10097e80 	call	10097e8 <__adddf3>
 10049bc:	102d883a 	mov	r22,r2
 10049c0:	00bf3034 	movhi	r2,64704
 10049c4:	10ef883a 	add	r23,r2,r3
 10049c8:	d8800d17 	ldw	r2,52(sp)
 10049cc:	d8c00e17 	ldw	r3,56(sp)
 10049d0:	8029883a 	mov	r20,r16
 10049d4:	10bfffc4 	addi	r2,r2,-1
 10049d8:	882b883a 	mov	r21,r17
 10049dc:	d8800415 	stw	r2,16(sp)
 10049e0:	d8c00315 	stw	r3,12(sp)
 10049e4:	003e8306 	br	10043f4 <_dtoa_r+0xf4c>
 10049e8:	d8800117 	ldw	r2,4(sp)
 10049ec:	dc001117 	ldw	r16,68(sp)
 10049f0:	dc801017 	ldw	r18,64(sp)
 10049f4:	00c00d84 	movi	r3,54
 10049f8:	1887c83a 	sub	r3,r3,r2
 10049fc:	003d6906 	br	1003fa4 <_dtoa_r+0xafc>
 1004a00:	01800044 	movi	r6,1
 1004a04:	3021883a 	mov	r16,r6
 1004a08:	d9800f15 	stw	r6,60(sp)
 1004a0c:	d9802615 	stw	r6,152(sp)
 1004a10:	d9800e15 	stw	r6,56(sp)
 1004a14:	003b9306 	br	1003864 <_dtoa_r+0x3bc>
 1004a18:	b021883a 	mov	r16,r22
 1004a1c:	dd800f15 	stw	r22,60(sp)
 1004a20:	003b9006 	br	1003864 <_dtoa_r+0x3bc>
 1004a24:	103e221e 	bne	r2,zero,10042b0 <_dtoa_r+0xe08>
 1004a28:	b880004c 	andi	r2,r23,1
 1004a2c:	1005003a 	cmpeq	r2,r2,zero
 1004a30:	103e1f1e 	bne	r2,zero,10042b0 <_dtoa_r+0xe08>
 1004a34:	003e1b06 	br	10042a4 <_dtoa_r+0xdfc>
 1004a38:	d9001617 	ldw	r4,88(sp)
 1004a3c:	980b883a 	mov	r5,r19
 1004a40:	01800284 	movi	r6,10
 1004a44:	000f883a 	mov	r7,zero
 1004a48:	10074040 	call	1007404 <__multadd>
 1004a4c:	d8c00e17 	ldw	r3,56(sp)
 1004a50:	1027883a 	mov	r19,r2
 1004a54:	d8c00f15 	stw	r3,60(sp)
 1004a58:	003cd306 	br	1003da8 <_dtoa_r+0x900>

01004a5c <_fflush_r>:
 1004a5c:	defffb04 	addi	sp,sp,-20
 1004a60:	dcc00315 	stw	r19,12(sp)
 1004a64:	dc800215 	stw	r18,8(sp)
 1004a68:	dfc00415 	stw	ra,16(sp)
 1004a6c:	dc400115 	stw	r17,4(sp)
 1004a70:	dc000015 	stw	r16,0(sp)
 1004a74:	2027883a 	mov	r19,r4
 1004a78:	2825883a 	mov	r18,r5
 1004a7c:	20000226 	beq	r4,zero,1004a88 <_fflush_r+0x2c>
 1004a80:	20800e17 	ldw	r2,56(r4)
 1004a84:	10005626 	beq	r2,zero,1004be0 <_fflush_r+0x184>
 1004a88:	9100030b 	ldhu	r4,12(r18)
 1004a8c:	20ffffcc 	andi	r3,r4,65535
 1004a90:	18e0001c 	xori	r3,r3,32768
 1004a94:	18e00004 	addi	r3,r3,-32768
 1004a98:	1880020c 	andi	r2,r3,8
 1004a9c:	1000261e 	bne	r2,zero,1004b38 <_fflush_r+0xdc>
 1004aa0:	90c00117 	ldw	r3,4(r18)
 1004aa4:	20820014 	ori	r2,r4,2048
 1004aa8:	9080030d 	sth	r2,12(r18)
 1004aac:	1009883a 	mov	r4,r2
 1004ab0:	00c0400e 	bge	zero,r3,1004bb4 <_fflush_r+0x158>
 1004ab4:	92000a17 	ldw	r8,40(r18)
 1004ab8:	40004026 	beq	r8,zero,1004bbc <_fflush_r+0x160>
 1004abc:	2084000c 	andi	r2,r4,4096
 1004ac0:	10005326 	beq	r2,zero,1004c10 <_fflush_r+0x1b4>
 1004ac4:	94001417 	ldw	r16,80(r18)
 1004ac8:	9080030b 	ldhu	r2,12(r18)
 1004acc:	1080010c 	andi	r2,r2,4
 1004ad0:	1000481e 	bne	r2,zero,1004bf4 <_fflush_r+0x198>
 1004ad4:	91400717 	ldw	r5,28(r18)
 1004ad8:	9809883a 	mov	r4,r19
 1004adc:	800d883a 	mov	r6,r16
 1004ae0:	000f883a 	mov	r7,zero
 1004ae4:	403ee83a 	callr	r8
 1004ae8:	8080261e 	bne	r16,r2,1004b84 <_fflush_r+0x128>
 1004aec:	9080030b 	ldhu	r2,12(r18)
 1004af0:	91000417 	ldw	r4,16(r18)
 1004af4:	90000115 	stw	zero,4(r18)
 1004af8:	10bdffcc 	andi	r2,r2,63487
 1004afc:	10ffffcc 	andi	r3,r2,65535
 1004b00:	18c4000c 	andi	r3,r3,4096
 1004b04:	9080030d 	sth	r2,12(r18)
 1004b08:	91000015 	stw	r4,0(r18)
 1004b0c:	18002b26 	beq	r3,zero,1004bbc <_fflush_r+0x160>
 1004b10:	0007883a 	mov	r3,zero
 1004b14:	1805883a 	mov	r2,r3
 1004b18:	94001415 	stw	r16,80(r18)
 1004b1c:	dfc00417 	ldw	ra,16(sp)
 1004b20:	dcc00317 	ldw	r19,12(sp)
 1004b24:	dc800217 	ldw	r18,8(sp)
 1004b28:	dc400117 	ldw	r17,4(sp)
 1004b2c:	dc000017 	ldw	r16,0(sp)
 1004b30:	dec00504 	addi	sp,sp,20
 1004b34:	f800283a 	ret
 1004b38:	94400417 	ldw	r17,16(r18)
 1004b3c:	88001f26 	beq	r17,zero,1004bbc <_fflush_r+0x160>
 1004b40:	90800017 	ldw	r2,0(r18)
 1004b44:	18c000cc 	andi	r3,r3,3
 1004b48:	94400015 	stw	r17,0(r18)
 1004b4c:	1461c83a 	sub	r16,r2,r17
 1004b50:	18002526 	beq	r3,zero,1004be8 <_fflush_r+0x18c>
 1004b54:	0005883a 	mov	r2,zero
 1004b58:	90800215 	stw	r2,8(r18)
 1004b5c:	0400170e 	bge	zero,r16,1004bbc <_fflush_r+0x160>
 1004b60:	90c00917 	ldw	r3,36(r18)
 1004b64:	91400717 	ldw	r5,28(r18)
 1004b68:	880d883a 	mov	r6,r17
 1004b6c:	800f883a 	mov	r7,r16
 1004b70:	9809883a 	mov	r4,r19
 1004b74:	183ee83a 	callr	r3
 1004b78:	88a3883a 	add	r17,r17,r2
 1004b7c:	80a1c83a 	sub	r16,r16,r2
 1004b80:	00bff616 	blt	zero,r2,1004b5c <_fflush_r+0x100>
 1004b84:	9080030b 	ldhu	r2,12(r18)
 1004b88:	00ffffc4 	movi	r3,-1
 1004b8c:	10801014 	ori	r2,r2,64
 1004b90:	9080030d 	sth	r2,12(r18)
 1004b94:	1805883a 	mov	r2,r3
 1004b98:	dfc00417 	ldw	ra,16(sp)
 1004b9c:	dcc00317 	ldw	r19,12(sp)
 1004ba0:	dc800217 	ldw	r18,8(sp)
 1004ba4:	dc400117 	ldw	r17,4(sp)
 1004ba8:	dc000017 	ldw	r16,0(sp)
 1004bac:	dec00504 	addi	sp,sp,20
 1004bb0:	f800283a 	ret
 1004bb4:	90800f17 	ldw	r2,60(r18)
 1004bb8:	00bfbe16 	blt	zero,r2,1004ab4 <_fflush_r+0x58>
 1004bbc:	0007883a 	mov	r3,zero
 1004bc0:	1805883a 	mov	r2,r3
 1004bc4:	dfc00417 	ldw	ra,16(sp)
 1004bc8:	dcc00317 	ldw	r19,12(sp)
 1004bcc:	dc800217 	ldw	r18,8(sp)
 1004bd0:	dc400117 	ldw	r17,4(sp)
 1004bd4:	dc000017 	ldw	r16,0(sp)
 1004bd8:	dec00504 	addi	sp,sp,20
 1004bdc:	f800283a 	ret
 1004be0:	1004cf40 	call	1004cf4 <__sinit>
 1004be4:	003fa806 	br	1004a88 <_fflush_r+0x2c>
 1004be8:	90800517 	ldw	r2,20(r18)
 1004bec:	90800215 	stw	r2,8(r18)
 1004bf0:	003fda06 	br	1004b5c <_fflush_r+0x100>
 1004bf4:	90800117 	ldw	r2,4(r18)
 1004bf8:	90c00c17 	ldw	r3,48(r18)
 1004bfc:	80a1c83a 	sub	r16,r16,r2
 1004c00:	183fb426 	beq	r3,zero,1004ad4 <_fflush_r+0x78>
 1004c04:	90800f17 	ldw	r2,60(r18)
 1004c08:	80a1c83a 	sub	r16,r16,r2
 1004c0c:	003fb106 	br	1004ad4 <_fflush_r+0x78>
 1004c10:	91400717 	ldw	r5,28(r18)
 1004c14:	9809883a 	mov	r4,r19
 1004c18:	000d883a 	mov	r6,zero
 1004c1c:	01c00044 	movi	r7,1
 1004c20:	403ee83a 	callr	r8
 1004c24:	1021883a 	mov	r16,r2
 1004c28:	00bfffc4 	movi	r2,-1
 1004c2c:	80800226 	beq	r16,r2,1004c38 <_fflush_r+0x1dc>
 1004c30:	92000a17 	ldw	r8,40(r18)
 1004c34:	003fa406 	br	1004ac8 <_fflush_r+0x6c>
 1004c38:	98c00017 	ldw	r3,0(r19)
 1004c3c:	00800744 	movi	r2,29
 1004c40:	18bfde26 	beq	r3,r2,1004bbc <_fflush_r+0x160>
 1004c44:	9080030b 	ldhu	r2,12(r18)
 1004c48:	8007883a 	mov	r3,r16
 1004c4c:	10801014 	ori	r2,r2,64
 1004c50:	9080030d 	sth	r2,12(r18)
 1004c54:	003fcf06 	br	1004b94 <_fflush_r+0x138>

01004c58 <fflush>:
 1004c58:	01404034 	movhi	r5,256
 1004c5c:	29529704 	addi	r5,r5,19036
 1004c60:	2007883a 	mov	r3,r4
 1004c64:	20000526 	beq	r4,zero,1004c7c <fflush+0x24>
 1004c68:	00804074 	movhi	r2,257
 1004c6c:	10be1c04 	addi	r2,r2,-1936
 1004c70:	11000017 	ldw	r4,0(r2)
 1004c74:	180b883a 	mov	r5,r3
 1004c78:	1004a5c1 	jmpi	1004a5c <_fflush_r>
 1004c7c:	00804074 	movhi	r2,257
 1004c80:	10be1d04 	addi	r2,r2,-1932
 1004c84:	11000017 	ldw	r4,0(r2)
 1004c88:	100585c1 	jmpi	100585c <_fwalk_reent>

01004c8c <std>:
 1004c8c:	00804034 	movhi	r2,256
 1004c90:	109f9104 	addi	r2,r2,32324
 1004c94:	20800b15 	stw	r2,44(r4)
 1004c98:	00804034 	movhi	r2,256
 1004c9c:	109fcc04 	addi	r2,r2,32560
 1004ca0:	20800815 	stw	r2,32(r4)
 1004ca4:	00c04034 	movhi	r3,256
 1004ca8:	18dfad04 	addi	r3,r3,32436
 1004cac:	00804034 	movhi	r2,256
 1004cb0:	109f9304 	addi	r2,r2,32332
 1004cb4:	2140030d 	sth	r5,12(r4)
 1004cb8:	2180038d 	sth	r6,14(r4)
 1004cbc:	20c00915 	stw	r3,36(r4)
 1004cc0:	20800a15 	stw	r2,40(r4)
 1004cc4:	20000015 	stw	zero,0(r4)
 1004cc8:	20000115 	stw	zero,4(r4)
 1004ccc:	20000215 	stw	zero,8(r4)
 1004cd0:	20000415 	stw	zero,16(r4)
 1004cd4:	20000515 	stw	zero,20(r4)
 1004cd8:	20000615 	stw	zero,24(r4)
 1004cdc:	21000715 	stw	r4,28(r4)
 1004ce0:	f800283a 	ret

01004ce4 <__sfp_lock_acquire>:
 1004ce4:	f800283a 	ret

01004ce8 <__sfp_lock_release>:
 1004ce8:	f800283a 	ret

01004cec <__sinit_lock_acquire>:
 1004cec:	f800283a 	ret

01004cf0 <__sinit_lock_release>:
 1004cf0:	f800283a 	ret

01004cf4 <__sinit>:
 1004cf4:	20800e17 	ldw	r2,56(r4)
 1004cf8:	defffd04 	addi	sp,sp,-12
 1004cfc:	dc400115 	stw	r17,4(sp)
 1004d00:	dc000015 	stw	r16,0(sp)
 1004d04:	dfc00215 	stw	ra,8(sp)
 1004d08:	04400044 	movi	r17,1
 1004d0c:	01400104 	movi	r5,4
 1004d10:	000d883a 	mov	r6,zero
 1004d14:	2021883a 	mov	r16,r4
 1004d18:	2200bb04 	addi	r8,r4,748
 1004d1c:	200f883a 	mov	r7,r4
 1004d20:	10000526 	beq	r2,zero,1004d38 <__sinit+0x44>
 1004d24:	dfc00217 	ldw	ra,8(sp)
 1004d28:	dc400117 	ldw	r17,4(sp)
 1004d2c:	dc000017 	ldw	r16,0(sp)
 1004d30:	dec00304 	addi	sp,sp,12
 1004d34:	f800283a 	ret
 1004d38:	21000117 	ldw	r4,4(r4)
 1004d3c:	00804034 	movhi	r2,256
 1004d40:	10937604 	addi	r2,r2,19928
 1004d44:	00c000c4 	movi	r3,3
 1004d48:	80800f15 	stw	r2,60(r16)
 1004d4c:	80c0b915 	stw	r3,740(r16)
 1004d50:	8200ba15 	stw	r8,744(r16)
 1004d54:	84400e15 	stw	r17,56(r16)
 1004d58:	8000b815 	stw	zero,736(r16)
 1004d5c:	1004c8c0 	call	1004c8c <std>
 1004d60:	81000217 	ldw	r4,8(r16)
 1004d64:	880d883a 	mov	r6,r17
 1004d68:	800f883a 	mov	r7,r16
 1004d6c:	01400284 	movi	r5,10
 1004d70:	1004c8c0 	call	1004c8c <std>
 1004d74:	81000317 	ldw	r4,12(r16)
 1004d78:	800f883a 	mov	r7,r16
 1004d7c:	01400484 	movi	r5,18
 1004d80:	01800084 	movi	r6,2
 1004d84:	dfc00217 	ldw	ra,8(sp)
 1004d88:	dc400117 	ldw	r17,4(sp)
 1004d8c:	dc000017 	ldw	r16,0(sp)
 1004d90:	dec00304 	addi	sp,sp,12
 1004d94:	1004c8c1 	jmpi	1004c8c <std>

01004d98 <__fp_lock>:
 1004d98:	0005883a 	mov	r2,zero
 1004d9c:	f800283a 	ret

01004da0 <__fp_unlock>:
 1004da0:	0005883a 	mov	r2,zero
 1004da4:	f800283a 	ret

01004da8 <__fp_unlock_all>:
 1004da8:	00804074 	movhi	r2,257
 1004dac:	10be1c04 	addi	r2,r2,-1936
 1004db0:	11000017 	ldw	r4,0(r2)
 1004db4:	01404034 	movhi	r5,256
 1004db8:	29536804 	addi	r5,r5,19872
 1004dbc:	10059241 	jmpi	1005924 <_fwalk>

01004dc0 <__fp_lock_all>:
 1004dc0:	00804074 	movhi	r2,257
 1004dc4:	10be1c04 	addi	r2,r2,-1936
 1004dc8:	11000017 	ldw	r4,0(r2)
 1004dcc:	01404034 	movhi	r5,256
 1004dd0:	29536604 	addi	r5,r5,19864
 1004dd4:	10059241 	jmpi	1005924 <_fwalk>

01004dd8 <_cleanup_r>:
 1004dd8:	01404074 	movhi	r5,257
 1004ddc:	2960e004 	addi	r5,r5,-31872
 1004de0:	10059241 	jmpi	1005924 <_fwalk>

01004de4 <_cleanup>:
 1004de4:	00804074 	movhi	r2,257
 1004de8:	10be1d04 	addi	r2,r2,-1932
 1004dec:	11000017 	ldw	r4,0(r2)
 1004df0:	1004dd81 	jmpi	1004dd8 <_cleanup_r>

01004df4 <__sfmoreglue>:
 1004df4:	defffc04 	addi	sp,sp,-16
 1004df8:	dc000015 	stw	r16,0(sp)
 1004dfc:	2821883a 	mov	r16,r5
 1004e00:	dc400115 	stw	r17,4(sp)
 1004e04:	01401704 	movi	r5,92
 1004e08:	2023883a 	mov	r17,r4
 1004e0c:	8009883a 	mov	r4,r16
 1004e10:	dfc00315 	stw	ra,12(sp)
 1004e14:	dcc00215 	stw	r19,8(sp)
 1004e18:	1000a8c0 	call	1000a8c <__mulsi3>
 1004e1c:	11400304 	addi	r5,r2,12
 1004e20:	8809883a 	mov	r4,r17
 1004e24:	1027883a 	mov	r19,r2
 1004e28:	1005ca80 	call	1005ca8 <_malloc_r>
 1004e2c:	10c00304 	addi	r3,r2,12
 1004e30:	1023883a 	mov	r17,r2
 1004e34:	1809883a 	mov	r4,r3
 1004e38:	980d883a 	mov	r6,r19
 1004e3c:	000b883a 	mov	r5,zero
 1004e40:	10000b26 	beq	r2,zero,1004e70 <__sfmoreglue+0x7c>
 1004e44:	14000115 	stw	r16,4(r2)
 1004e48:	10c00215 	stw	r3,8(r2)
 1004e4c:	10000015 	stw	zero,0(r2)
 1004e50:	100664c0 	call	100664c <memset>
 1004e54:	8805883a 	mov	r2,r17
 1004e58:	dfc00317 	ldw	ra,12(sp)
 1004e5c:	dcc00217 	ldw	r19,8(sp)
 1004e60:	dc400117 	ldw	r17,4(sp)
 1004e64:	dc000017 	ldw	r16,0(sp)
 1004e68:	dec00404 	addi	sp,sp,16
 1004e6c:	f800283a 	ret
 1004e70:	0023883a 	mov	r17,zero
 1004e74:	8805883a 	mov	r2,r17
 1004e78:	dfc00317 	ldw	ra,12(sp)
 1004e7c:	dcc00217 	ldw	r19,8(sp)
 1004e80:	dc400117 	ldw	r17,4(sp)
 1004e84:	dc000017 	ldw	r16,0(sp)
 1004e88:	dec00404 	addi	sp,sp,16
 1004e8c:	f800283a 	ret

01004e90 <__sfp>:
 1004e90:	defffd04 	addi	sp,sp,-12
 1004e94:	00804074 	movhi	r2,257
 1004e98:	10be1d04 	addi	r2,r2,-1932
 1004e9c:	dc000015 	stw	r16,0(sp)
 1004ea0:	14000017 	ldw	r16,0(r2)
 1004ea4:	dc400115 	stw	r17,4(sp)
 1004ea8:	dfc00215 	stw	ra,8(sp)
 1004eac:	80800e17 	ldw	r2,56(r16)
 1004eb0:	2023883a 	mov	r17,r4
 1004eb4:	10002626 	beq	r2,zero,1004f50 <__sfp+0xc0>
 1004eb8:	8400b804 	addi	r16,r16,736
 1004ebc:	80800117 	ldw	r2,4(r16)
 1004ec0:	81000217 	ldw	r4,8(r16)
 1004ec4:	10ffffc4 	addi	r3,r2,-1
 1004ec8:	18000916 	blt	r3,zero,1004ef0 <__sfp+0x60>
 1004ecc:	2080030f 	ldh	r2,12(r4)
 1004ed0:	10000b26 	beq	r2,zero,1004f00 <__sfp+0x70>
 1004ed4:	017fffc4 	movi	r5,-1
 1004ed8:	00000206 	br	1004ee4 <__sfp+0x54>
 1004edc:	2080030f 	ldh	r2,12(r4)
 1004ee0:	10000726 	beq	r2,zero,1004f00 <__sfp+0x70>
 1004ee4:	18ffffc4 	addi	r3,r3,-1
 1004ee8:	21001704 	addi	r4,r4,92
 1004eec:	197ffb1e 	bne	r3,r5,1004edc <__sfp+0x4c>
 1004ef0:	80800017 	ldw	r2,0(r16)
 1004ef4:	10001926 	beq	r2,zero,1004f5c <__sfp+0xcc>
 1004ef8:	1021883a 	mov	r16,r2
 1004efc:	003fef06 	br	1004ebc <__sfp+0x2c>
 1004f00:	00bfffc4 	movi	r2,-1
 1004f04:	00c00044 	movi	r3,1
 1004f08:	2080038d 	sth	r2,14(r4)
 1004f0c:	20c0030d 	sth	r3,12(r4)
 1004f10:	20000015 	stw	zero,0(r4)
 1004f14:	20000215 	stw	zero,8(r4)
 1004f18:	20000115 	stw	zero,4(r4)
 1004f1c:	20000415 	stw	zero,16(r4)
 1004f20:	20000515 	stw	zero,20(r4)
 1004f24:	20000615 	stw	zero,24(r4)
 1004f28:	20000c15 	stw	zero,48(r4)
 1004f2c:	20000d15 	stw	zero,52(r4)
 1004f30:	20001115 	stw	zero,68(r4)
 1004f34:	20001215 	stw	zero,72(r4)
 1004f38:	2005883a 	mov	r2,r4
 1004f3c:	dfc00217 	ldw	ra,8(sp)
 1004f40:	dc400117 	ldw	r17,4(sp)
 1004f44:	dc000017 	ldw	r16,0(sp)
 1004f48:	dec00304 	addi	sp,sp,12
 1004f4c:	f800283a 	ret
 1004f50:	8009883a 	mov	r4,r16
 1004f54:	1004cf40 	call	1004cf4 <__sinit>
 1004f58:	003fd706 	br	1004eb8 <__sfp+0x28>
 1004f5c:	8809883a 	mov	r4,r17
 1004f60:	01400104 	movi	r5,4
 1004f64:	1004df40 	call	1004df4 <__sfmoreglue>
 1004f68:	80800015 	stw	r2,0(r16)
 1004f6c:	103fe21e 	bne	r2,zero,1004ef8 <__sfp+0x68>
 1004f70:	00800304 	movi	r2,12
 1004f74:	0009883a 	mov	r4,zero
 1004f78:	88800015 	stw	r2,0(r17)
 1004f7c:	003fee06 	br	1004f38 <__sfp+0xa8>

01004f80 <_malloc_trim_r>:
 1004f80:	defffb04 	addi	sp,sp,-20
 1004f84:	dcc00315 	stw	r19,12(sp)
 1004f88:	04c04074 	movhi	r19,257
 1004f8c:	9cf88d04 	addi	r19,r19,-7628
 1004f90:	dc800215 	stw	r18,8(sp)
 1004f94:	dc400115 	stw	r17,4(sp)
 1004f98:	dc000015 	stw	r16,0(sp)
 1004f9c:	2823883a 	mov	r17,r5
 1004fa0:	2025883a 	mov	r18,r4
 1004fa4:	dfc00415 	stw	ra,16(sp)
 1004fa8:	100b0800 	call	100b080 <__malloc_lock>
 1004fac:	98800217 	ldw	r2,8(r19)
 1004fb0:	9009883a 	mov	r4,r18
 1004fb4:	000b883a 	mov	r5,zero
 1004fb8:	10c00117 	ldw	r3,4(r2)
 1004fbc:	00bfff04 	movi	r2,-4
 1004fc0:	18a0703a 	and	r16,r3,r2
 1004fc4:	8463c83a 	sub	r17,r16,r17
 1004fc8:	8c43fbc4 	addi	r17,r17,4079
 1004fcc:	8822d33a 	srli	r17,r17,12
 1004fd0:	0083ffc4 	movi	r2,4095
 1004fd4:	8c7fffc4 	addi	r17,r17,-1
 1004fd8:	8822933a 	slli	r17,r17,12
 1004fdc:	1440060e 	bge	r2,r17,1004ff8 <_malloc_trim_r+0x78>
 1004fe0:	1007dd40 	call	1007dd4 <_sbrk_r>
 1004fe4:	98c00217 	ldw	r3,8(r19)
 1004fe8:	9009883a 	mov	r4,r18
 1004fec:	044bc83a 	sub	r5,zero,r17
 1004ff0:	80c7883a 	add	r3,r16,r3
 1004ff4:	10c00926 	beq	r2,r3,100501c <_malloc_trim_r+0x9c>
 1004ff8:	100b0a00 	call	100b0a0 <__malloc_unlock>
 1004ffc:	0005883a 	mov	r2,zero
 1005000:	dfc00417 	ldw	ra,16(sp)
 1005004:	dcc00317 	ldw	r19,12(sp)
 1005008:	dc800217 	ldw	r18,8(sp)
 100500c:	dc400117 	ldw	r17,4(sp)
 1005010:	dc000017 	ldw	r16,0(sp)
 1005014:	dec00504 	addi	sp,sp,20
 1005018:	f800283a 	ret
 100501c:	9009883a 	mov	r4,r18
 1005020:	1007dd40 	call	1007dd4 <_sbrk_r>
 1005024:	844dc83a 	sub	r6,r16,r17
 1005028:	00ffffc4 	movi	r3,-1
 100502c:	9009883a 	mov	r4,r18
 1005030:	000b883a 	mov	r5,zero
 1005034:	01c04074 	movhi	r7,257
 1005038:	39c4e104 	addi	r7,r7,4996
 100503c:	31800054 	ori	r6,r6,1
 1005040:	10c00926 	beq	r2,r3,1005068 <_malloc_trim_r+0xe8>
 1005044:	38800017 	ldw	r2,0(r7)
 1005048:	98c00217 	ldw	r3,8(r19)
 100504c:	9009883a 	mov	r4,r18
 1005050:	1445c83a 	sub	r2,r2,r17
 1005054:	38800015 	stw	r2,0(r7)
 1005058:	19800115 	stw	r6,4(r3)
 100505c:	100b0a00 	call	100b0a0 <__malloc_unlock>
 1005060:	00800044 	movi	r2,1
 1005064:	003fe606 	br	1005000 <_malloc_trim_r+0x80>
 1005068:	1007dd40 	call	1007dd4 <_sbrk_r>
 100506c:	99800217 	ldw	r6,8(r19)
 1005070:	100f883a 	mov	r7,r2
 1005074:	9009883a 	mov	r4,r18
 1005078:	1187c83a 	sub	r3,r2,r6
 100507c:	008003c4 	movi	r2,15
 1005080:	19400054 	ori	r5,r3,1
 1005084:	10ffdc0e 	bge	r2,r3,1004ff8 <_malloc_trim_r+0x78>
 1005088:	00804074 	movhi	r2,257
 100508c:	10be2104 	addi	r2,r2,-1916
 1005090:	10c00017 	ldw	r3,0(r2)
 1005094:	00804074 	movhi	r2,257
 1005098:	1084e104 	addi	r2,r2,4996
 100509c:	31400115 	stw	r5,4(r6)
 10050a0:	38c7c83a 	sub	r3,r7,r3
 10050a4:	10c00015 	stw	r3,0(r2)
 10050a8:	003fd306 	br	1004ff8 <_malloc_trim_r+0x78>

010050ac <_free_r>:
 10050ac:	defffd04 	addi	sp,sp,-12
 10050b0:	dc400115 	stw	r17,4(sp)
 10050b4:	dc000015 	stw	r16,0(sp)
 10050b8:	dfc00215 	stw	ra,8(sp)
 10050bc:	2821883a 	mov	r16,r5
 10050c0:	2023883a 	mov	r17,r4
 10050c4:	28005a26 	beq	r5,zero,1005230 <_free_r+0x184>
 10050c8:	100b0800 	call	100b080 <__malloc_lock>
 10050cc:	823ffe04 	addi	r8,r16,-8
 10050d0:	41400117 	ldw	r5,4(r8)
 10050d4:	00bfff84 	movi	r2,-2
 10050d8:	02804074 	movhi	r10,257
 10050dc:	52b88d04 	addi	r10,r10,-7628
 10050e0:	288e703a 	and	r7,r5,r2
 10050e4:	41cd883a 	add	r6,r8,r7
 10050e8:	30c00117 	ldw	r3,4(r6)
 10050ec:	51000217 	ldw	r4,8(r10)
 10050f0:	00bfff04 	movi	r2,-4
 10050f4:	1892703a 	and	r9,r3,r2
 10050f8:	5017883a 	mov	r11,r10
 10050fc:	31006726 	beq	r6,r4,100529c <_free_r+0x1f0>
 1005100:	2880004c 	andi	r2,r5,1
 1005104:	1005003a 	cmpeq	r2,r2,zero
 1005108:	32400115 	stw	r9,4(r6)
 100510c:	10001a1e 	bne	r2,zero,1005178 <_free_r+0xcc>
 1005110:	000b883a 	mov	r5,zero
 1005114:	3247883a 	add	r3,r6,r9
 1005118:	18800117 	ldw	r2,4(r3)
 100511c:	1080004c 	andi	r2,r2,1
 1005120:	1000231e 	bne	r2,zero,10051b0 <_free_r+0x104>
 1005124:	280ac03a 	cmpne	r5,r5,zero
 1005128:	3a4f883a 	add	r7,r7,r9
 100512c:	2800451e 	bne	r5,zero,1005244 <_free_r+0x198>
 1005130:	31000217 	ldw	r4,8(r6)
 1005134:	00804074 	movhi	r2,257
 1005138:	10b88f04 	addi	r2,r2,-7620
 100513c:	20807b26 	beq	r4,r2,100532c <_free_r+0x280>
 1005140:	30800317 	ldw	r2,12(r6)
 1005144:	3a07883a 	add	r3,r7,r8
 1005148:	19c00015 	stw	r7,0(r3)
 100514c:	11000215 	stw	r4,8(r2)
 1005150:	20800315 	stw	r2,12(r4)
 1005154:	38800054 	ori	r2,r7,1
 1005158:	40800115 	stw	r2,4(r8)
 100515c:	28001a26 	beq	r5,zero,10051c8 <_free_r+0x11c>
 1005160:	8809883a 	mov	r4,r17
 1005164:	dfc00217 	ldw	ra,8(sp)
 1005168:	dc400117 	ldw	r17,4(sp)
 100516c:	dc000017 	ldw	r16,0(sp)
 1005170:	dec00304 	addi	sp,sp,12
 1005174:	100b0a01 	jmpi	100b0a0 <__malloc_unlock>
 1005178:	80bffe17 	ldw	r2,-8(r16)
 100517c:	50c00204 	addi	r3,r10,8
 1005180:	4091c83a 	sub	r8,r8,r2
 1005184:	41000217 	ldw	r4,8(r8)
 1005188:	388f883a 	add	r7,r7,r2
 100518c:	20c06126 	beq	r4,r3,1005314 <_free_r+0x268>
 1005190:	40800317 	ldw	r2,12(r8)
 1005194:	3247883a 	add	r3,r6,r9
 1005198:	000b883a 	mov	r5,zero
 100519c:	11000215 	stw	r4,8(r2)
 10051a0:	20800315 	stw	r2,12(r4)
 10051a4:	18800117 	ldw	r2,4(r3)
 10051a8:	1080004c 	andi	r2,r2,1
 10051ac:	103fdd26 	beq	r2,zero,1005124 <_free_r+0x78>
 10051b0:	38800054 	ori	r2,r7,1
 10051b4:	3a07883a 	add	r3,r7,r8
 10051b8:	280ac03a 	cmpne	r5,r5,zero
 10051bc:	40800115 	stw	r2,4(r8)
 10051c0:	19c00015 	stw	r7,0(r3)
 10051c4:	283fe61e 	bne	r5,zero,1005160 <_free_r+0xb4>
 10051c8:	00807fc4 	movi	r2,511
 10051cc:	11c01f2e 	bgeu	r2,r7,100524c <_free_r+0x1a0>
 10051d0:	3806d27a 	srli	r3,r7,9
 10051d4:	1800481e 	bne	r3,zero,10052f8 <_free_r+0x24c>
 10051d8:	3804d0fa 	srli	r2,r7,3
 10051dc:	100690fa 	slli	r3,r2,3
 10051e0:	1acd883a 	add	r6,r3,r11
 10051e4:	31400217 	ldw	r5,8(r6)
 10051e8:	31405926 	beq	r6,r5,1005350 <_free_r+0x2a4>
 10051ec:	28800117 	ldw	r2,4(r5)
 10051f0:	00ffff04 	movi	r3,-4
 10051f4:	10c4703a 	and	r2,r2,r3
 10051f8:	3880022e 	bgeu	r7,r2,1005204 <_free_r+0x158>
 10051fc:	29400217 	ldw	r5,8(r5)
 1005200:	317ffa1e 	bne	r6,r5,10051ec <_free_r+0x140>
 1005204:	29800317 	ldw	r6,12(r5)
 1005208:	41800315 	stw	r6,12(r8)
 100520c:	41400215 	stw	r5,8(r8)
 1005210:	8809883a 	mov	r4,r17
 1005214:	2a000315 	stw	r8,12(r5)
 1005218:	32000215 	stw	r8,8(r6)
 100521c:	dfc00217 	ldw	ra,8(sp)
 1005220:	dc400117 	ldw	r17,4(sp)
 1005224:	dc000017 	ldw	r16,0(sp)
 1005228:	dec00304 	addi	sp,sp,12
 100522c:	100b0a01 	jmpi	100b0a0 <__malloc_unlock>
 1005230:	dfc00217 	ldw	ra,8(sp)
 1005234:	dc400117 	ldw	r17,4(sp)
 1005238:	dc000017 	ldw	r16,0(sp)
 100523c:	dec00304 	addi	sp,sp,12
 1005240:	f800283a 	ret
 1005244:	31000217 	ldw	r4,8(r6)
 1005248:	003fbd06 	br	1005140 <_free_r+0x94>
 100524c:	3806d0fa 	srli	r3,r7,3
 1005250:	00800044 	movi	r2,1
 1005254:	51400117 	ldw	r5,4(r10)
 1005258:	180890fa 	slli	r4,r3,3
 100525c:	1807d0ba 	srai	r3,r3,2
 1005260:	22c9883a 	add	r4,r4,r11
 1005264:	21800217 	ldw	r6,8(r4)
 1005268:	10c4983a 	sll	r2,r2,r3
 100526c:	41000315 	stw	r4,12(r8)
 1005270:	41800215 	stw	r6,8(r8)
 1005274:	288ab03a 	or	r5,r5,r2
 1005278:	22000215 	stw	r8,8(r4)
 100527c:	8809883a 	mov	r4,r17
 1005280:	51400115 	stw	r5,4(r10)
 1005284:	32000315 	stw	r8,12(r6)
 1005288:	dfc00217 	ldw	ra,8(sp)
 100528c:	dc400117 	ldw	r17,4(sp)
 1005290:	dc000017 	ldw	r16,0(sp)
 1005294:	dec00304 	addi	sp,sp,12
 1005298:	100b0a01 	jmpi	100b0a0 <__malloc_unlock>
 100529c:	2880004c 	andi	r2,r5,1
 10052a0:	3a4d883a 	add	r6,r7,r9
 10052a4:	1000071e 	bne	r2,zero,10052c4 <_free_r+0x218>
 10052a8:	80bffe17 	ldw	r2,-8(r16)
 10052ac:	4091c83a 	sub	r8,r8,r2
 10052b0:	41000317 	ldw	r4,12(r8)
 10052b4:	40c00217 	ldw	r3,8(r8)
 10052b8:	308d883a 	add	r6,r6,r2
 10052bc:	20c00215 	stw	r3,8(r4)
 10052c0:	19000315 	stw	r4,12(r3)
 10052c4:	00804074 	movhi	r2,257
 10052c8:	10be2004 	addi	r2,r2,-1920
 10052cc:	11000017 	ldw	r4,0(r2)
 10052d0:	30c00054 	ori	r3,r6,1
 10052d4:	52000215 	stw	r8,8(r10)
 10052d8:	40c00115 	stw	r3,4(r8)
 10052dc:	313fa036 	bltu	r6,r4,1005160 <_free_r+0xb4>
 10052e0:	00804074 	movhi	r2,257
 10052e4:	1084d204 	addi	r2,r2,4936
 10052e8:	11400017 	ldw	r5,0(r2)
 10052ec:	8809883a 	mov	r4,r17
 10052f0:	1004f800 	call	1004f80 <_malloc_trim_r>
 10052f4:	003f9a06 	br	1005160 <_free_r+0xb4>
 10052f8:	00800104 	movi	r2,4
 10052fc:	10c0072e 	bgeu	r2,r3,100531c <_free_r+0x270>
 1005300:	00800504 	movi	r2,20
 1005304:	10c01936 	bltu	r2,r3,100536c <_free_r+0x2c0>
 1005308:	188016c4 	addi	r2,r3,91
 100530c:	100690fa 	slli	r3,r2,3
 1005310:	003fb306 	br	10051e0 <_free_r+0x134>
 1005314:	01400044 	movi	r5,1
 1005318:	003f7e06 	br	1005114 <_free_r+0x68>
 100531c:	3804d1ba 	srli	r2,r7,6
 1005320:	10800e04 	addi	r2,r2,56
 1005324:	100690fa 	slli	r3,r2,3
 1005328:	003fad06 	br	10051e0 <_free_r+0x134>
 100532c:	22000315 	stw	r8,12(r4)
 1005330:	22000215 	stw	r8,8(r4)
 1005334:	3a05883a 	add	r2,r7,r8
 1005338:	38c00054 	ori	r3,r7,1
 100533c:	11c00015 	stw	r7,0(r2)
 1005340:	41000215 	stw	r4,8(r8)
 1005344:	40c00115 	stw	r3,4(r8)
 1005348:	41000315 	stw	r4,12(r8)
 100534c:	003f8406 	br	1005160 <_free_r+0xb4>
 1005350:	1005d0ba 	srai	r2,r2,2
 1005354:	00c00044 	movi	r3,1
 1005358:	51000117 	ldw	r4,4(r10)
 100535c:	1886983a 	sll	r3,r3,r2
 1005360:	20c8b03a 	or	r4,r4,r3
 1005364:	51000115 	stw	r4,4(r10)
 1005368:	003fa706 	br	1005208 <_free_r+0x15c>
 100536c:	00801504 	movi	r2,84
 1005370:	10c00436 	bltu	r2,r3,1005384 <_free_r+0x2d8>
 1005374:	3804d33a 	srli	r2,r7,12
 1005378:	10801b84 	addi	r2,r2,110
 100537c:	100690fa 	slli	r3,r2,3
 1005380:	003f9706 	br	10051e0 <_free_r+0x134>
 1005384:	00805504 	movi	r2,340
 1005388:	10c00436 	bltu	r2,r3,100539c <_free_r+0x2f0>
 100538c:	3804d3fa 	srli	r2,r7,15
 1005390:	10801dc4 	addi	r2,r2,119
 1005394:	100690fa 	slli	r3,r2,3
 1005398:	003f9106 	br	10051e0 <_free_r+0x134>
 100539c:	00815504 	movi	r2,1364
 10053a0:	10c0032e 	bgeu	r2,r3,10053b0 <_free_r+0x304>
 10053a4:	00801f84 	movi	r2,126
 10053a8:	00c0fc04 	movi	r3,1008
 10053ac:	003f8c06 	br	10051e0 <_free_r+0x134>
 10053b0:	3804d4ba 	srli	r2,r7,18
 10053b4:	10801f04 	addi	r2,r2,124
 10053b8:	100690fa 	slli	r3,r2,3
 10053bc:	003f8806 	br	10051e0 <_free_r+0x134>

010053c0 <__sfvwrite_r>:
 10053c0:	30800217 	ldw	r2,8(r6)
 10053c4:	defff504 	addi	sp,sp,-44
 10053c8:	df000915 	stw	fp,36(sp)
 10053cc:	dd800715 	stw	r22,28(sp)
 10053d0:	dc800315 	stw	r18,12(sp)
 10053d4:	dfc00a15 	stw	ra,40(sp)
 10053d8:	ddc00815 	stw	r23,32(sp)
 10053dc:	dd400615 	stw	r21,24(sp)
 10053e0:	dd000515 	stw	r20,20(sp)
 10053e4:	dcc00415 	stw	r19,16(sp)
 10053e8:	dc400215 	stw	r17,8(sp)
 10053ec:	dc000115 	stw	r16,4(sp)
 10053f0:	302d883a 	mov	r22,r6
 10053f4:	2039883a 	mov	fp,r4
 10053f8:	2825883a 	mov	r18,r5
 10053fc:	10001c26 	beq	r2,zero,1005470 <__sfvwrite_r+0xb0>
 1005400:	29c0030b 	ldhu	r7,12(r5)
 1005404:	3880020c 	andi	r2,r7,8
 1005408:	10002726 	beq	r2,zero,10054a8 <__sfvwrite_r+0xe8>
 100540c:	28800417 	ldw	r2,16(r5)
 1005410:	10002526 	beq	r2,zero,10054a8 <__sfvwrite_r+0xe8>
 1005414:	3880008c 	andi	r2,r7,2
 1005418:	b5400017 	ldw	r21,0(r22)
 100541c:	10002826 	beq	r2,zero,10054c0 <__sfvwrite_r+0x100>
 1005420:	0021883a 	mov	r16,zero
 1005424:	0023883a 	mov	r17,zero
 1005428:	880d883a 	mov	r6,r17
 100542c:	e009883a 	mov	r4,fp
 1005430:	00810004 	movi	r2,1024
 1005434:	80006e26 	beq	r16,zero,10055f0 <__sfvwrite_r+0x230>
 1005438:	800f883a 	mov	r7,r16
 100543c:	91400717 	ldw	r5,28(r18)
 1005440:	1400012e 	bgeu	r2,r16,1005448 <__sfvwrite_r+0x88>
 1005444:	100f883a 	mov	r7,r2
 1005448:	90c00917 	ldw	r3,36(r18)
 100544c:	183ee83a 	callr	r3
 1005450:	1007883a 	mov	r3,r2
 1005454:	80a1c83a 	sub	r16,r16,r2
 1005458:	88a3883a 	add	r17,r17,r2
 100545c:	00806d0e 	bge	zero,r2,1005614 <__sfvwrite_r+0x254>
 1005460:	b0800217 	ldw	r2,8(r22)
 1005464:	10c5c83a 	sub	r2,r2,r3
 1005468:	b0800215 	stw	r2,8(r22)
 100546c:	103fee1e 	bne	r2,zero,1005428 <__sfvwrite_r+0x68>
 1005470:	0009883a 	mov	r4,zero
 1005474:	2005883a 	mov	r2,r4
 1005478:	dfc00a17 	ldw	ra,40(sp)
 100547c:	df000917 	ldw	fp,36(sp)
 1005480:	ddc00817 	ldw	r23,32(sp)
 1005484:	dd800717 	ldw	r22,28(sp)
 1005488:	dd400617 	ldw	r21,24(sp)
 100548c:	dd000517 	ldw	r20,20(sp)
 1005490:	dcc00417 	ldw	r19,16(sp)
 1005494:	dc800317 	ldw	r18,12(sp)
 1005498:	dc400217 	ldw	r17,8(sp)
 100549c:	dc000117 	ldw	r16,4(sp)
 10054a0:	dec00b04 	addi	sp,sp,44
 10054a4:	f800283a 	ret
 10054a8:	10031280 	call	1003128 <__swsetup_r>
 10054ac:	1000e41e 	bne	r2,zero,1005840 <__sfvwrite_r+0x480>
 10054b0:	91c0030b 	ldhu	r7,12(r18)
 10054b4:	b5400017 	ldw	r21,0(r22)
 10054b8:	3880008c 	andi	r2,r7,2
 10054bc:	103fd81e 	bne	r2,zero,1005420 <__sfvwrite_r+0x60>
 10054c0:	3880004c 	andi	r2,r7,1
 10054c4:	1005003a 	cmpeq	r2,r2,zero
 10054c8:	10005726 	beq	r2,zero,1005628 <__sfvwrite_r+0x268>
 10054cc:	0029883a 	mov	r20,zero
 10054d0:	002f883a 	mov	r23,zero
 10054d4:	a0004226 	beq	r20,zero,10055e0 <__sfvwrite_r+0x220>
 10054d8:	3880800c 	andi	r2,r7,512
 10054dc:	94000217 	ldw	r16,8(r18)
 10054e0:	10008b26 	beq	r2,zero,1005710 <__sfvwrite_r+0x350>
 10054e4:	800d883a 	mov	r6,r16
 10054e8:	a400a536 	bltu	r20,r16,1005780 <__sfvwrite_r+0x3c0>
 10054ec:	3881200c 	andi	r2,r7,1152
 10054f0:	10002726 	beq	r2,zero,1005590 <__sfvwrite_r+0x1d0>
 10054f4:	90800517 	ldw	r2,20(r18)
 10054f8:	92000417 	ldw	r8,16(r18)
 10054fc:	91400017 	ldw	r5,0(r18)
 1005500:	1087883a 	add	r3,r2,r2
 1005504:	1887883a 	add	r3,r3,r2
 1005508:	1808d7fa 	srli	r4,r3,31
 100550c:	2a21c83a 	sub	r16,r5,r8
 1005510:	80800044 	addi	r2,r16,1
 1005514:	20c9883a 	add	r4,r4,r3
 1005518:	2027d07a 	srai	r19,r4,1
 100551c:	a085883a 	add	r2,r20,r2
 1005520:	980d883a 	mov	r6,r19
 1005524:	9880022e 	bgeu	r19,r2,1005530 <__sfvwrite_r+0x170>
 1005528:	1027883a 	mov	r19,r2
 100552c:	100d883a 	mov	r6,r2
 1005530:	3881000c 	andi	r2,r7,1024
 1005534:	1000b826 	beq	r2,zero,1005818 <__sfvwrite_r+0x458>
 1005538:	300b883a 	mov	r5,r6
 100553c:	e009883a 	mov	r4,fp
 1005540:	1005ca80 	call	1005ca8 <_malloc_r>
 1005544:	10003126 	beq	r2,zero,100560c <__sfvwrite_r+0x24c>
 1005548:	91400417 	ldw	r5,16(r18)
 100554c:	1009883a 	mov	r4,r2
 1005550:	800d883a 	mov	r6,r16
 1005554:	1023883a 	mov	r17,r2
 1005558:	10064cc0 	call	10064cc <memcpy>
 100555c:	90c0030b 	ldhu	r3,12(r18)
 1005560:	00beffc4 	movi	r2,-1025
 1005564:	1886703a 	and	r3,r3,r2
 1005568:	18c02014 	ori	r3,r3,128
 100556c:	90c0030d 	sth	r3,12(r18)
 1005570:	9c07c83a 	sub	r3,r19,r16
 1005574:	8c05883a 	add	r2,r17,r16
 1005578:	a00d883a 	mov	r6,r20
 100557c:	a021883a 	mov	r16,r20
 1005580:	90800015 	stw	r2,0(r18)
 1005584:	90c00215 	stw	r3,8(r18)
 1005588:	94400415 	stw	r17,16(r18)
 100558c:	94c00515 	stw	r19,20(r18)
 1005590:	91000017 	ldw	r4,0(r18)
 1005594:	b80b883a 	mov	r5,r23
 1005598:	a023883a 	mov	r17,r20
 100559c:	100656c0 	call	100656c <memmove>
 10055a0:	90c00217 	ldw	r3,8(r18)
 10055a4:	90800017 	ldw	r2,0(r18)
 10055a8:	a027883a 	mov	r19,r20
 10055ac:	1c07c83a 	sub	r3,r3,r16
 10055b0:	1405883a 	add	r2,r2,r16
 10055b4:	90c00215 	stw	r3,8(r18)
 10055b8:	a021883a 	mov	r16,r20
 10055bc:	90800015 	stw	r2,0(r18)
 10055c0:	b0800217 	ldw	r2,8(r22)
 10055c4:	1405c83a 	sub	r2,r2,r16
 10055c8:	b0800215 	stw	r2,8(r22)
 10055cc:	103fa826 	beq	r2,zero,1005470 <__sfvwrite_r+0xb0>
 10055d0:	a469c83a 	sub	r20,r20,r17
 10055d4:	91c0030b 	ldhu	r7,12(r18)
 10055d8:	bcef883a 	add	r23,r23,r19
 10055dc:	a03fbe1e 	bne	r20,zero,10054d8 <__sfvwrite_r+0x118>
 10055e0:	adc00017 	ldw	r23,0(r21)
 10055e4:	ad000117 	ldw	r20,4(r21)
 10055e8:	ad400204 	addi	r21,r21,8
 10055ec:	003fb906 	br	10054d4 <__sfvwrite_r+0x114>
 10055f0:	ac400017 	ldw	r17,0(r21)
 10055f4:	ac000117 	ldw	r16,4(r21)
 10055f8:	ad400204 	addi	r21,r21,8
 10055fc:	003f8a06 	br	1005428 <__sfvwrite_r+0x68>
 1005600:	91400417 	ldw	r5,16(r18)
 1005604:	e009883a 	mov	r4,fp
 1005608:	10050ac0 	call	10050ac <_free_r>
 100560c:	00800304 	movi	r2,12
 1005610:	e0800015 	stw	r2,0(fp)
 1005614:	9080030b 	ldhu	r2,12(r18)
 1005618:	013fffc4 	movi	r4,-1
 100561c:	10801014 	ori	r2,r2,64
 1005620:	9080030d 	sth	r2,12(r18)
 1005624:	003f9306 	br	1005474 <__sfvwrite_r+0xb4>
 1005628:	0027883a 	mov	r19,zero
 100562c:	002f883a 	mov	r23,zero
 1005630:	d8000015 	stw	zero,0(sp)
 1005634:	0029883a 	mov	r20,zero
 1005638:	98001e26 	beq	r19,zero,10056b4 <__sfvwrite_r+0x2f4>
 100563c:	d8c00017 	ldw	r3,0(sp)
 1005640:	1804c03a 	cmpne	r2,r3,zero
 1005644:	10005e26 	beq	r2,zero,10057c0 <__sfvwrite_r+0x400>
 1005648:	9821883a 	mov	r16,r19
 100564c:	a4c0012e 	bgeu	r20,r19,1005654 <__sfvwrite_r+0x294>
 1005650:	a021883a 	mov	r16,r20
 1005654:	91000017 	ldw	r4,0(r18)
 1005658:	90800417 	ldw	r2,16(r18)
 100565c:	91800217 	ldw	r6,8(r18)
 1005660:	91c00517 	ldw	r7,20(r18)
 1005664:	1100022e 	bgeu	r2,r4,1005670 <__sfvwrite_r+0x2b0>
 1005668:	31e3883a 	add	r17,r6,r7
 100566c:	8c001616 	blt	r17,r16,10056c8 <__sfvwrite_r+0x308>
 1005670:	81c03816 	blt	r16,r7,1005754 <__sfvwrite_r+0x394>
 1005674:	90c00917 	ldw	r3,36(r18)
 1005678:	91400717 	ldw	r5,28(r18)
 100567c:	e009883a 	mov	r4,fp
 1005680:	b80d883a 	mov	r6,r23
 1005684:	183ee83a 	callr	r3
 1005688:	1023883a 	mov	r17,r2
 100568c:	00bfe10e 	bge	zero,r2,1005614 <__sfvwrite_r+0x254>
 1005690:	a469c83a 	sub	r20,r20,r17
 1005694:	a0001826 	beq	r20,zero,10056f8 <__sfvwrite_r+0x338>
 1005698:	b0800217 	ldw	r2,8(r22)
 100569c:	1445c83a 	sub	r2,r2,r17
 10056a0:	b0800215 	stw	r2,8(r22)
 10056a4:	103f7226 	beq	r2,zero,1005470 <__sfvwrite_r+0xb0>
 10056a8:	9c67c83a 	sub	r19,r19,r17
 10056ac:	bc6f883a 	add	r23,r23,r17
 10056b0:	983fe21e 	bne	r19,zero,100563c <__sfvwrite_r+0x27c>
 10056b4:	adc00017 	ldw	r23,0(r21)
 10056b8:	acc00117 	ldw	r19,4(r21)
 10056bc:	ad400204 	addi	r21,r21,8
 10056c0:	d8000015 	stw	zero,0(sp)
 10056c4:	003fdc06 	br	1005638 <__sfvwrite_r+0x278>
 10056c8:	b80b883a 	mov	r5,r23
 10056cc:	880d883a 	mov	r6,r17
 10056d0:	100656c0 	call	100656c <memmove>
 10056d4:	90c00017 	ldw	r3,0(r18)
 10056d8:	e009883a 	mov	r4,fp
 10056dc:	900b883a 	mov	r5,r18
 10056e0:	1c47883a 	add	r3,r3,r17
 10056e4:	90c00015 	stw	r3,0(r18)
 10056e8:	1004a5c0 	call	1004a5c <_fflush_r>
 10056ec:	103fc91e 	bne	r2,zero,1005614 <__sfvwrite_r+0x254>
 10056f0:	a469c83a 	sub	r20,r20,r17
 10056f4:	a03fe81e 	bne	r20,zero,1005698 <__sfvwrite_r+0x2d8>
 10056f8:	e009883a 	mov	r4,fp
 10056fc:	900b883a 	mov	r5,r18
 1005700:	1004a5c0 	call	1004a5c <_fflush_r>
 1005704:	103fc31e 	bne	r2,zero,1005614 <__sfvwrite_r+0x254>
 1005708:	d8000015 	stw	zero,0(sp)
 100570c:	003fe206 	br	1005698 <__sfvwrite_r+0x2d8>
 1005710:	91000017 	ldw	r4,0(r18)
 1005714:	90800417 	ldw	r2,16(r18)
 1005718:	1100022e 	bgeu	r2,r4,1005724 <__sfvwrite_r+0x364>
 100571c:	8023883a 	mov	r17,r16
 1005720:	85003136 	bltu	r16,r20,10057e8 <__sfvwrite_r+0x428>
 1005724:	91c00517 	ldw	r7,20(r18)
 1005728:	a1c01836 	bltu	r20,r7,100578c <__sfvwrite_r+0x3cc>
 100572c:	90c00917 	ldw	r3,36(r18)
 1005730:	91400717 	ldw	r5,28(r18)
 1005734:	e009883a 	mov	r4,fp
 1005738:	b80d883a 	mov	r6,r23
 100573c:	183ee83a 	callr	r3
 1005740:	1021883a 	mov	r16,r2
 1005744:	00bfb30e 	bge	zero,r2,1005614 <__sfvwrite_r+0x254>
 1005748:	1023883a 	mov	r17,r2
 100574c:	1027883a 	mov	r19,r2
 1005750:	003f9b06 	br	10055c0 <__sfvwrite_r+0x200>
 1005754:	b80b883a 	mov	r5,r23
 1005758:	800d883a 	mov	r6,r16
 100575c:	100656c0 	call	100656c <memmove>
 1005760:	90c00217 	ldw	r3,8(r18)
 1005764:	90800017 	ldw	r2,0(r18)
 1005768:	8023883a 	mov	r17,r16
 100576c:	1c07c83a 	sub	r3,r3,r16
 1005770:	1405883a 	add	r2,r2,r16
 1005774:	90c00215 	stw	r3,8(r18)
 1005778:	90800015 	stw	r2,0(r18)
 100577c:	003fc406 	br	1005690 <__sfvwrite_r+0x2d0>
 1005780:	a00d883a 	mov	r6,r20
 1005784:	a021883a 	mov	r16,r20
 1005788:	003f8106 	br	1005590 <__sfvwrite_r+0x1d0>
 100578c:	b80b883a 	mov	r5,r23
 1005790:	a00d883a 	mov	r6,r20
 1005794:	100656c0 	call	100656c <memmove>
 1005798:	90c00217 	ldw	r3,8(r18)
 100579c:	90800017 	ldw	r2,0(r18)
 10057a0:	a021883a 	mov	r16,r20
 10057a4:	1d07c83a 	sub	r3,r3,r20
 10057a8:	1505883a 	add	r2,r2,r20
 10057ac:	a023883a 	mov	r17,r20
 10057b0:	a027883a 	mov	r19,r20
 10057b4:	90c00215 	stw	r3,8(r18)
 10057b8:	90800015 	stw	r2,0(r18)
 10057bc:	003f8006 	br	10055c0 <__sfvwrite_r+0x200>
 10057c0:	b809883a 	mov	r4,r23
 10057c4:	01400284 	movi	r5,10
 10057c8:	980d883a 	mov	r6,r19
 10057cc:	10063e80 	call	10063e8 <memchr>
 10057d0:	10001726 	beq	r2,zero,1005830 <__sfvwrite_r+0x470>
 10057d4:	15c5c83a 	sub	r2,r2,r23
 10057d8:	15000044 	addi	r20,r2,1
 10057dc:	00800044 	movi	r2,1
 10057e0:	d8800015 	stw	r2,0(sp)
 10057e4:	003f9806 	br	1005648 <__sfvwrite_r+0x288>
 10057e8:	b80b883a 	mov	r5,r23
 10057ec:	800d883a 	mov	r6,r16
 10057f0:	100656c0 	call	100656c <memmove>
 10057f4:	90c00017 	ldw	r3,0(r18)
 10057f8:	e009883a 	mov	r4,fp
 10057fc:	900b883a 	mov	r5,r18
 1005800:	1c07883a 	add	r3,r3,r16
 1005804:	90c00015 	stw	r3,0(r18)
 1005808:	8027883a 	mov	r19,r16
 100580c:	1004a5c0 	call	1004a5c <_fflush_r>
 1005810:	103f6b26 	beq	r2,zero,10055c0 <__sfvwrite_r+0x200>
 1005814:	003f7f06 	br	1005614 <__sfvwrite_r+0x254>
 1005818:	400b883a 	mov	r5,r8
 100581c:	e009883a 	mov	r4,fp
 1005820:	10077700 	call	1007770 <_realloc_r>
 1005824:	103f7626 	beq	r2,zero,1005600 <__sfvwrite_r+0x240>
 1005828:	1023883a 	mov	r17,r2
 100582c:	003f5006 	br	1005570 <__sfvwrite_r+0x1b0>
 1005830:	00c00044 	movi	r3,1
 1005834:	9d000044 	addi	r20,r19,1
 1005838:	d8c00015 	stw	r3,0(sp)
 100583c:	003f8206 	br	1005648 <__sfvwrite_r+0x288>
 1005840:	9080030b 	ldhu	r2,12(r18)
 1005844:	00c00244 	movi	r3,9
 1005848:	013fffc4 	movi	r4,-1
 100584c:	10801014 	ori	r2,r2,64
 1005850:	9080030d 	sth	r2,12(r18)
 1005854:	e0c00015 	stw	r3,0(fp)
 1005858:	003f0606 	br	1005474 <__sfvwrite_r+0xb4>

0100585c <_fwalk_reent>:
 100585c:	defff704 	addi	sp,sp,-36
 1005860:	dcc00315 	stw	r19,12(sp)
 1005864:	24c0b804 	addi	r19,r4,736
 1005868:	dd800615 	stw	r22,24(sp)
 100586c:	dd400515 	stw	r21,20(sp)
 1005870:	dfc00815 	stw	ra,32(sp)
 1005874:	ddc00715 	stw	r23,28(sp)
 1005878:	dd000415 	stw	r20,16(sp)
 100587c:	dc800215 	stw	r18,8(sp)
 1005880:	dc400115 	stw	r17,4(sp)
 1005884:	dc000015 	stw	r16,0(sp)
 1005888:	202b883a 	mov	r21,r4
 100588c:	282d883a 	mov	r22,r5
 1005890:	1004ce40 	call	1004ce4 <__sfp_lock_acquire>
 1005894:	98002126 	beq	r19,zero,100591c <_fwalk_reent+0xc0>
 1005898:	002f883a 	mov	r23,zero
 100589c:	9c800117 	ldw	r18,4(r19)
 10058a0:	9c000217 	ldw	r16,8(r19)
 10058a4:	90bfffc4 	addi	r2,r18,-1
 10058a8:	10000d16 	blt	r2,zero,10058e0 <_fwalk_reent+0x84>
 10058ac:	0023883a 	mov	r17,zero
 10058b0:	053fffc4 	movi	r20,-1
 10058b4:	8080030f 	ldh	r2,12(r16)
 10058b8:	8c400044 	addi	r17,r17,1
 10058bc:	10000626 	beq	r2,zero,10058d8 <_fwalk_reent+0x7c>
 10058c0:	8080038f 	ldh	r2,14(r16)
 10058c4:	800b883a 	mov	r5,r16
 10058c8:	a809883a 	mov	r4,r21
 10058cc:	15000226 	beq	r2,r20,10058d8 <_fwalk_reent+0x7c>
 10058d0:	b03ee83a 	callr	r22
 10058d4:	b8aeb03a 	or	r23,r23,r2
 10058d8:	84001704 	addi	r16,r16,92
 10058dc:	947ff51e 	bne	r18,r17,10058b4 <_fwalk_reent+0x58>
 10058e0:	9cc00017 	ldw	r19,0(r19)
 10058e4:	983fed1e 	bne	r19,zero,100589c <_fwalk_reent+0x40>
 10058e8:	1004ce80 	call	1004ce8 <__sfp_lock_release>
 10058ec:	b805883a 	mov	r2,r23
 10058f0:	dfc00817 	ldw	ra,32(sp)
 10058f4:	ddc00717 	ldw	r23,28(sp)
 10058f8:	dd800617 	ldw	r22,24(sp)
 10058fc:	dd400517 	ldw	r21,20(sp)
 1005900:	dd000417 	ldw	r20,16(sp)
 1005904:	dcc00317 	ldw	r19,12(sp)
 1005908:	dc800217 	ldw	r18,8(sp)
 100590c:	dc400117 	ldw	r17,4(sp)
 1005910:	dc000017 	ldw	r16,0(sp)
 1005914:	dec00904 	addi	sp,sp,36
 1005918:	f800283a 	ret
 100591c:	002f883a 	mov	r23,zero
 1005920:	003ff106 	br	10058e8 <_fwalk_reent+0x8c>

01005924 <_fwalk>:
 1005924:	defff804 	addi	sp,sp,-32
 1005928:	dcc00315 	stw	r19,12(sp)
 100592c:	24c0b804 	addi	r19,r4,736
 1005930:	dd400515 	stw	r21,20(sp)
 1005934:	dfc00715 	stw	ra,28(sp)
 1005938:	dd800615 	stw	r22,24(sp)
 100593c:	dd000415 	stw	r20,16(sp)
 1005940:	dc800215 	stw	r18,8(sp)
 1005944:	dc400115 	stw	r17,4(sp)
 1005948:	dc000015 	stw	r16,0(sp)
 100594c:	282b883a 	mov	r21,r5
 1005950:	1004ce40 	call	1004ce4 <__sfp_lock_acquire>
 1005954:	98001f26 	beq	r19,zero,10059d4 <_fwalk+0xb0>
 1005958:	002d883a 	mov	r22,zero
 100595c:	9c800117 	ldw	r18,4(r19)
 1005960:	9c000217 	ldw	r16,8(r19)
 1005964:	90bfffc4 	addi	r2,r18,-1
 1005968:	10000c16 	blt	r2,zero,100599c <_fwalk+0x78>
 100596c:	0023883a 	mov	r17,zero
 1005970:	053fffc4 	movi	r20,-1
 1005974:	8080030f 	ldh	r2,12(r16)
 1005978:	8c400044 	addi	r17,r17,1
 100597c:	10000526 	beq	r2,zero,1005994 <_fwalk+0x70>
 1005980:	8080038f 	ldh	r2,14(r16)
 1005984:	8009883a 	mov	r4,r16
 1005988:	15000226 	beq	r2,r20,1005994 <_fwalk+0x70>
 100598c:	a83ee83a 	callr	r21
 1005990:	b0acb03a 	or	r22,r22,r2
 1005994:	84001704 	addi	r16,r16,92
 1005998:	947ff61e 	bne	r18,r17,1005974 <_fwalk+0x50>
 100599c:	9cc00017 	ldw	r19,0(r19)
 10059a0:	983fee1e 	bne	r19,zero,100595c <_fwalk+0x38>
 10059a4:	1004ce80 	call	1004ce8 <__sfp_lock_release>
 10059a8:	b005883a 	mov	r2,r22
 10059ac:	dfc00717 	ldw	ra,28(sp)
 10059b0:	dd800617 	ldw	r22,24(sp)
 10059b4:	dd400517 	ldw	r21,20(sp)
 10059b8:	dd000417 	ldw	r20,16(sp)
 10059bc:	dcc00317 	ldw	r19,12(sp)
 10059c0:	dc800217 	ldw	r18,8(sp)
 10059c4:	dc400117 	ldw	r17,4(sp)
 10059c8:	dc000017 	ldw	r16,0(sp)
 10059cc:	dec00804 	addi	sp,sp,32
 10059d0:	f800283a 	ret
 10059d4:	002d883a 	mov	r22,zero
 10059d8:	003ff206 	br	10059a4 <_fwalk+0x80>

010059dc <_gettimeofday_r>:
 10059dc:	defffd04 	addi	sp,sp,-12
 10059e0:	dc000015 	stw	r16,0(sp)
 10059e4:	04004074 	movhi	r16,257
 10059e8:	8404ce04 	addi	r16,r16,4920
 10059ec:	dc400115 	stw	r17,4(sp)
 10059f0:	80000015 	stw	zero,0(r16)
 10059f4:	2023883a 	mov	r17,r4
 10059f8:	2809883a 	mov	r4,r5
 10059fc:	300b883a 	mov	r5,r6
 1005a00:	dfc00215 	stw	ra,8(sp)
 1005a04:	100aa940 	call	100aa94 <gettimeofday>
 1005a08:	1007883a 	mov	r3,r2
 1005a0c:	00bfffc4 	movi	r2,-1
 1005a10:	18800626 	beq	r3,r2,1005a2c <_gettimeofday_r+0x50>
 1005a14:	1805883a 	mov	r2,r3
 1005a18:	dfc00217 	ldw	ra,8(sp)
 1005a1c:	dc400117 	ldw	r17,4(sp)
 1005a20:	dc000017 	ldw	r16,0(sp)
 1005a24:	dec00304 	addi	sp,sp,12
 1005a28:	f800283a 	ret
 1005a2c:	80800017 	ldw	r2,0(r16)
 1005a30:	103ff826 	beq	r2,zero,1005a14 <_gettimeofday_r+0x38>
 1005a34:	88800015 	stw	r2,0(r17)
 1005a38:	1805883a 	mov	r2,r3
 1005a3c:	dfc00217 	ldw	ra,8(sp)
 1005a40:	dc400117 	ldw	r17,4(sp)
 1005a44:	dc000017 	ldw	r16,0(sp)
 1005a48:	dec00304 	addi	sp,sp,12
 1005a4c:	f800283a 	ret

01005a50 <__locale_charset>:
 1005a50:	d0a00317 	ldw	r2,-32756(gp)
 1005a54:	f800283a 	ret

01005a58 <_localeconv_r>:
 1005a58:	00804074 	movhi	r2,257
 1005a5c:	10b71d04 	addi	r2,r2,-9100
 1005a60:	f800283a 	ret

01005a64 <localeconv>:
 1005a64:	00804074 	movhi	r2,257
 1005a68:	10be1c04 	addi	r2,r2,-1936
 1005a6c:	11000017 	ldw	r4,0(r2)
 1005a70:	1005a581 	jmpi	1005a58 <_localeconv_r>

01005a74 <_setlocale_r>:
 1005a74:	defffc04 	addi	sp,sp,-16
 1005a78:	00c04074 	movhi	r3,257
 1005a7c:	18f71804 	addi	r3,r3,-9120
 1005a80:	dc800215 	stw	r18,8(sp)
 1005a84:	dc400115 	stw	r17,4(sp)
 1005a88:	dc000015 	stw	r16,0(sp)
 1005a8c:	2023883a 	mov	r17,r4
 1005a90:	2825883a 	mov	r18,r5
 1005a94:	dfc00315 	stw	ra,12(sp)
 1005a98:	3021883a 	mov	r16,r6
 1005a9c:	3009883a 	mov	r4,r6
 1005aa0:	180b883a 	mov	r5,r3
 1005aa4:	30000926 	beq	r6,zero,1005acc <_setlocale_r+0x58>
 1005aa8:	1007f900 	call	1007f90 <strcmp>
 1005aac:	8009883a 	mov	r4,r16
 1005ab0:	01404074 	movhi	r5,257
 1005ab4:	29770304 	addi	r5,r5,-9204
 1005ab8:	10000b1e 	bne	r2,zero,1005ae8 <_setlocale_r+0x74>
 1005abc:	8c000d15 	stw	r16,52(r17)
 1005ac0:	8c800c15 	stw	r18,48(r17)
 1005ac4:	00c04074 	movhi	r3,257
 1005ac8:	18f71804 	addi	r3,r3,-9120
 1005acc:	1805883a 	mov	r2,r3
 1005ad0:	dfc00317 	ldw	ra,12(sp)
 1005ad4:	dc800217 	ldw	r18,8(sp)
 1005ad8:	dc400117 	ldw	r17,4(sp)
 1005adc:	dc000017 	ldw	r16,0(sp)
 1005ae0:	dec00404 	addi	sp,sp,16
 1005ae4:	f800283a 	ret
 1005ae8:	1007f900 	call	1007f90 <strcmp>
 1005aec:	0007883a 	mov	r3,zero
 1005af0:	103ff226 	beq	r2,zero,1005abc <_setlocale_r+0x48>
 1005af4:	003ff506 	br	1005acc <_setlocale_r+0x58>

01005af8 <setlocale>:
 1005af8:	01804074 	movhi	r6,257
 1005afc:	31be1c04 	addi	r6,r6,-1936
 1005b00:	2007883a 	mov	r3,r4
 1005b04:	31000017 	ldw	r4,0(r6)
 1005b08:	280d883a 	mov	r6,r5
 1005b0c:	180b883a 	mov	r5,r3
 1005b10:	1005a741 	jmpi	1005a74 <_setlocale_r>

01005b14 <__smakebuf_r>:
 1005b14:	2880030b 	ldhu	r2,12(r5)
 1005b18:	deffed04 	addi	sp,sp,-76
 1005b1c:	dc401015 	stw	r17,64(sp)
 1005b20:	1080008c 	andi	r2,r2,2
 1005b24:	dc000f15 	stw	r16,60(sp)
 1005b28:	dfc01215 	stw	ra,72(sp)
 1005b2c:	dc801115 	stw	r18,68(sp)
 1005b30:	2821883a 	mov	r16,r5
 1005b34:	2023883a 	mov	r17,r4
 1005b38:	10000b26 	beq	r2,zero,1005b68 <__smakebuf_r+0x54>
 1005b3c:	28c010c4 	addi	r3,r5,67
 1005b40:	00800044 	movi	r2,1
 1005b44:	28800515 	stw	r2,20(r5)
 1005b48:	28c00415 	stw	r3,16(r5)
 1005b4c:	28c00015 	stw	r3,0(r5)
 1005b50:	dfc01217 	ldw	ra,72(sp)
 1005b54:	dc801117 	ldw	r18,68(sp)
 1005b58:	dc401017 	ldw	r17,64(sp)
 1005b5c:	dc000f17 	ldw	r16,60(sp)
 1005b60:	dec01304 	addi	sp,sp,76
 1005b64:	f800283a 	ret
 1005b68:	2940038f 	ldh	r5,14(r5)
 1005b6c:	28002116 	blt	r5,zero,1005bf4 <__smakebuf_r+0xe0>
 1005b70:	d80d883a 	mov	r6,sp
 1005b74:	10083940 	call	1008394 <_fstat_r>
 1005b78:	10001e16 	blt	r2,zero,1005bf4 <__smakebuf_r+0xe0>
 1005b7c:	d8800117 	ldw	r2,4(sp)
 1005b80:	00e00014 	movui	r3,32768
 1005b84:	113c000c 	andi	r4,r2,61440
 1005b88:	20c03126 	beq	r4,r3,1005c50 <__smakebuf_r+0x13c>
 1005b8c:	8080030b 	ldhu	r2,12(r16)
 1005b90:	00c80004 	movi	r3,8192
 1005b94:	10820014 	ori	r2,r2,2048
 1005b98:	8080030d 	sth	r2,12(r16)
 1005b9c:	20c01e26 	beq	r4,r3,1005c18 <__smakebuf_r+0x104>
 1005ba0:	04810004 	movi	r18,1024
 1005ba4:	8809883a 	mov	r4,r17
 1005ba8:	900b883a 	mov	r5,r18
 1005bac:	1005ca80 	call	1005ca8 <_malloc_r>
 1005bb0:	1009883a 	mov	r4,r2
 1005bb4:	10003126 	beq	r2,zero,1005c7c <__smakebuf_r+0x168>
 1005bb8:	80c0030b 	ldhu	r3,12(r16)
 1005bbc:	00804034 	movhi	r2,256
 1005bc0:	10937604 	addi	r2,r2,19928
 1005bc4:	88800f15 	stw	r2,60(r17)
 1005bc8:	18c02014 	ori	r3,r3,128
 1005bcc:	84800515 	stw	r18,20(r16)
 1005bd0:	80c0030d 	sth	r3,12(r16)
 1005bd4:	81000415 	stw	r4,16(r16)
 1005bd8:	81000015 	stw	r4,0(r16)
 1005bdc:	dfc01217 	ldw	ra,72(sp)
 1005be0:	dc801117 	ldw	r18,68(sp)
 1005be4:	dc401017 	ldw	r17,64(sp)
 1005be8:	dc000f17 	ldw	r16,60(sp)
 1005bec:	dec01304 	addi	sp,sp,76
 1005bf0:	f800283a 	ret
 1005bf4:	80c0030b 	ldhu	r3,12(r16)
 1005bf8:	1880200c 	andi	r2,r3,128
 1005bfc:	10000426 	beq	r2,zero,1005c10 <__smakebuf_r+0xfc>
 1005c00:	04801004 	movi	r18,64
 1005c04:	18820014 	ori	r2,r3,2048
 1005c08:	8080030d 	sth	r2,12(r16)
 1005c0c:	003fe506 	br	1005ba4 <__smakebuf_r+0x90>
 1005c10:	04810004 	movi	r18,1024
 1005c14:	003ffb06 	br	1005c04 <__smakebuf_r+0xf0>
 1005c18:	8140038f 	ldh	r5,14(r16)
 1005c1c:	8809883a 	mov	r4,r17
 1005c20:	10084080 	call	1008408 <_isatty_r>
 1005c24:	103fde26 	beq	r2,zero,1005ba0 <__smakebuf_r+0x8c>
 1005c28:	8080030b 	ldhu	r2,12(r16)
 1005c2c:	80c010c4 	addi	r3,r16,67
 1005c30:	04810004 	movi	r18,1024
 1005c34:	10800054 	ori	r2,r2,1
 1005c38:	8080030d 	sth	r2,12(r16)
 1005c3c:	00800044 	movi	r2,1
 1005c40:	80c00415 	stw	r3,16(r16)
 1005c44:	80800515 	stw	r2,20(r16)
 1005c48:	80c00015 	stw	r3,0(r16)
 1005c4c:	003fd506 	br	1005ba4 <__smakebuf_r+0x90>
 1005c50:	80c00a17 	ldw	r3,40(r16)
 1005c54:	00804034 	movhi	r2,256
 1005c58:	109f9304 	addi	r2,r2,32332
 1005c5c:	18bfcb1e 	bne	r3,r2,1005b8c <__smakebuf_r+0x78>
 1005c60:	8080030b 	ldhu	r2,12(r16)
 1005c64:	00c10004 	movi	r3,1024
 1005c68:	1825883a 	mov	r18,r3
 1005c6c:	10c4b03a 	or	r2,r2,r3
 1005c70:	8080030d 	sth	r2,12(r16)
 1005c74:	80c01315 	stw	r3,76(r16)
 1005c78:	003fca06 	br	1005ba4 <__smakebuf_r+0x90>
 1005c7c:	8100030b 	ldhu	r4,12(r16)
 1005c80:	2080800c 	andi	r2,r4,512
 1005c84:	103fb21e 	bne	r2,zero,1005b50 <__smakebuf_r+0x3c>
 1005c88:	80c010c4 	addi	r3,r16,67
 1005c8c:	21000094 	ori	r4,r4,2
 1005c90:	00800044 	movi	r2,1
 1005c94:	80800515 	stw	r2,20(r16)
 1005c98:	8100030d 	sth	r4,12(r16)
 1005c9c:	80c00415 	stw	r3,16(r16)
 1005ca0:	80c00015 	stw	r3,0(r16)
 1005ca4:	003faa06 	br	1005b50 <__smakebuf_r+0x3c>

01005ca8 <_malloc_r>:
 1005ca8:	defff604 	addi	sp,sp,-40
 1005cac:	28c002c4 	addi	r3,r5,11
 1005cb0:	00800584 	movi	r2,22
 1005cb4:	dc800215 	stw	r18,8(sp)
 1005cb8:	dfc00915 	stw	ra,36(sp)
 1005cbc:	df000815 	stw	fp,32(sp)
 1005cc0:	ddc00715 	stw	r23,28(sp)
 1005cc4:	dd800615 	stw	r22,24(sp)
 1005cc8:	dd400515 	stw	r21,20(sp)
 1005ccc:	dd000415 	stw	r20,16(sp)
 1005cd0:	dcc00315 	stw	r19,12(sp)
 1005cd4:	dc400115 	stw	r17,4(sp)
 1005cd8:	dc000015 	stw	r16,0(sp)
 1005cdc:	2025883a 	mov	r18,r4
 1005ce0:	10c01236 	bltu	r2,r3,1005d2c <_malloc_r+0x84>
 1005ce4:	04400404 	movi	r17,16
 1005ce8:	8940142e 	bgeu	r17,r5,1005d3c <_malloc_r+0x94>
 1005cec:	00800304 	movi	r2,12
 1005cf0:	0007883a 	mov	r3,zero
 1005cf4:	90800015 	stw	r2,0(r18)
 1005cf8:	1805883a 	mov	r2,r3
 1005cfc:	dfc00917 	ldw	ra,36(sp)
 1005d00:	df000817 	ldw	fp,32(sp)
 1005d04:	ddc00717 	ldw	r23,28(sp)
 1005d08:	dd800617 	ldw	r22,24(sp)
 1005d0c:	dd400517 	ldw	r21,20(sp)
 1005d10:	dd000417 	ldw	r20,16(sp)
 1005d14:	dcc00317 	ldw	r19,12(sp)
 1005d18:	dc800217 	ldw	r18,8(sp)
 1005d1c:	dc400117 	ldw	r17,4(sp)
 1005d20:	dc000017 	ldw	r16,0(sp)
 1005d24:	dec00a04 	addi	sp,sp,40
 1005d28:	f800283a 	ret
 1005d2c:	00bffe04 	movi	r2,-8
 1005d30:	18a2703a 	and	r17,r3,r2
 1005d34:	883fed16 	blt	r17,zero,1005cec <_malloc_r+0x44>
 1005d38:	897fec36 	bltu	r17,r5,1005cec <_malloc_r+0x44>
 1005d3c:	9009883a 	mov	r4,r18
 1005d40:	100b0800 	call	100b080 <__malloc_lock>
 1005d44:	00807dc4 	movi	r2,503
 1005d48:	14402b2e 	bgeu	r2,r17,1005df8 <_malloc_r+0x150>
 1005d4c:	8806d27a 	srli	r3,r17,9
 1005d50:	18003f1e 	bne	r3,zero,1005e50 <_malloc_r+0x1a8>
 1005d54:	880cd0fa 	srli	r6,r17,3
 1005d58:	300490fa 	slli	r2,r6,3
 1005d5c:	02c04074 	movhi	r11,257
 1005d60:	5af88d04 	addi	r11,r11,-7628
 1005d64:	12cb883a 	add	r5,r2,r11
 1005d68:	2c000317 	ldw	r16,12(r5)
 1005d6c:	580f883a 	mov	r7,r11
 1005d70:	2c00041e 	bne	r5,r16,1005d84 <_malloc_r+0xdc>
 1005d74:	00000a06 	br	1005da0 <_malloc_r+0xf8>
 1005d78:	1800860e 	bge	r3,zero,1005f94 <_malloc_r+0x2ec>
 1005d7c:	84000317 	ldw	r16,12(r16)
 1005d80:	2c000726 	beq	r5,r16,1005da0 <_malloc_r+0xf8>
 1005d84:	80800117 	ldw	r2,4(r16)
 1005d88:	00ffff04 	movi	r3,-4
 1005d8c:	10c8703a 	and	r4,r2,r3
 1005d90:	2447c83a 	sub	r3,r4,r17
 1005d94:	008003c4 	movi	r2,15
 1005d98:	10fff70e 	bge	r2,r3,1005d78 <_malloc_r+0xd0>
 1005d9c:	31bfffc4 	addi	r6,r6,-1
 1005da0:	32400044 	addi	r9,r6,1
 1005da4:	02804074 	movhi	r10,257
 1005da8:	52b88f04 	addi	r10,r10,-7620
 1005dac:	54000217 	ldw	r16,8(r10)
 1005db0:	8280a026 	beq	r16,r10,1006034 <_malloc_r+0x38c>
 1005db4:	80800117 	ldw	r2,4(r16)
 1005db8:	00ffff04 	movi	r3,-4
 1005dbc:	10ca703a 	and	r5,r2,r3
 1005dc0:	2c4dc83a 	sub	r6,r5,r17
 1005dc4:	008003c4 	movi	r2,15
 1005dc8:	11808316 	blt	r2,r6,1005fd8 <_malloc_r+0x330>
 1005dcc:	52800315 	stw	r10,12(r10)
 1005dd0:	52800215 	stw	r10,8(r10)
 1005dd4:	30002916 	blt	r6,zero,1005e7c <_malloc_r+0x1d4>
 1005dd8:	8147883a 	add	r3,r16,r5
 1005ddc:	18800117 	ldw	r2,4(r3)
 1005de0:	9009883a 	mov	r4,r18
 1005de4:	10800054 	ori	r2,r2,1
 1005de8:	18800115 	stw	r2,4(r3)
 1005dec:	100b0a00 	call	100b0a0 <__malloc_unlock>
 1005df0:	80c00204 	addi	r3,r16,8
 1005df4:	003fc006 	br	1005cf8 <_malloc_r+0x50>
 1005df8:	02c04074 	movhi	r11,257
 1005dfc:	5af88d04 	addi	r11,r11,-7628
 1005e00:	8ac5883a 	add	r2,r17,r11
 1005e04:	14000317 	ldw	r16,12(r2)
 1005e08:	580f883a 	mov	r7,r11
 1005e0c:	8806d0fa 	srli	r3,r17,3
 1005e10:	14006c26 	beq	r2,r16,1005fc4 <_malloc_r+0x31c>
 1005e14:	80c00117 	ldw	r3,4(r16)
 1005e18:	00bfff04 	movi	r2,-4
 1005e1c:	81800317 	ldw	r6,12(r16)
 1005e20:	1886703a 	and	r3,r3,r2
 1005e24:	80c7883a 	add	r3,r16,r3
 1005e28:	18800117 	ldw	r2,4(r3)
 1005e2c:	81400217 	ldw	r5,8(r16)
 1005e30:	9009883a 	mov	r4,r18
 1005e34:	10800054 	ori	r2,r2,1
 1005e38:	18800115 	stw	r2,4(r3)
 1005e3c:	31400215 	stw	r5,8(r6)
 1005e40:	29800315 	stw	r6,12(r5)
 1005e44:	100b0a00 	call	100b0a0 <__malloc_unlock>
 1005e48:	80c00204 	addi	r3,r16,8
 1005e4c:	003faa06 	br	1005cf8 <_malloc_r+0x50>
 1005e50:	00800104 	movi	r2,4
 1005e54:	10c0052e 	bgeu	r2,r3,1005e6c <_malloc_r+0x1c4>
 1005e58:	00800504 	movi	r2,20
 1005e5c:	10c07836 	bltu	r2,r3,1006040 <_malloc_r+0x398>
 1005e60:	198016c4 	addi	r6,r3,91
 1005e64:	300490fa 	slli	r2,r6,3
 1005e68:	003fbc06 	br	1005d5c <_malloc_r+0xb4>
 1005e6c:	8804d1ba 	srli	r2,r17,6
 1005e70:	11800e04 	addi	r6,r2,56
 1005e74:	300490fa 	slli	r2,r6,3
 1005e78:	003fb806 	br	1005d5c <_malloc_r+0xb4>
 1005e7c:	00807fc4 	movi	r2,511
 1005e80:	1140bb36 	bltu	r2,r5,1006170 <_malloc_r+0x4c8>
 1005e84:	2806d0fa 	srli	r3,r5,3
 1005e88:	573ffe04 	addi	fp,r10,-8
 1005e8c:	00800044 	movi	r2,1
 1005e90:	180890fa 	slli	r4,r3,3
 1005e94:	1807d0ba 	srai	r3,r3,2
 1005e98:	e1c00117 	ldw	r7,4(fp)
 1005e9c:	5909883a 	add	r4,r11,r4
 1005ea0:	21400217 	ldw	r5,8(r4)
 1005ea4:	10c4983a 	sll	r2,r2,r3
 1005ea8:	81000315 	stw	r4,12(r16)
 1005eac:	81400215 	stw	r5,8(r16)
 1005eb0:	388eb03a 	or	r7,r7,r2
 1005eb4:	2c000315 	stw	r16,12(r5)
 1005eb8:	24000215 	stw	r16,8(r4)
 1005ebc:	e1c00115 	stw	r7,4(fp)
 1005ec0:	4807883a 	mov	r3,r9
 1005ec4:	4800cd16 	blt	r9,zero,10061fc <_malloc_r+0x554>
 1005ec8:	1807d0ba 	srai	r3,r3,2
 1005ecc:	00800044 	movi	r2,1
 1005ed0:	10c8983a 	sll	r4,r2,r3
 1005ed4:	39004436 	bltu	r7,r4,1005fe8 <_malloc_r+0x340>
 1005ed8:	21c4703a 	and	r2,r4,r7
 1005edc:	10000a1e 	bne	r2,zero,1005f08 <_malloc_r+0x260>
 1005ee0:	2109883a 	add	r4,r4,r4
 1005ee4:	00bfff04 	movi	r2,-4
 1005ee8:	4884703a 	and	r2,r9,r2
 1005eec:	3906703a 	and	r3,r7,r4
 1005ef0:	12400104 	addi	r9,r2,4
 1005ef4:	1800041e 	bne	r3,zero,1005f08 <_malloc_r+0x260>
 1005ef8:	2109883a 	add	r4,r4,r4
 1005efc:	3904703a 	and	r2,r7,r4
 1005f00:	4a400104 	addi	r9,r9,4
 1005f04:	103ffc26 	beq	r2,zero,1005ef8 <_malloc_r+0x250>
 1005f08:	480490fa 	slli	r2,r9,3
 1005f0c:	4819883a 	mov	r12,r9
 1005f10:	023fff04 	movi	r8,-4
 1005f14:	589b883a 	add	r13,r11,r2
 1005f18:	6807883a 	mov	r3,r13
 1005f1c:	014003c4 	movi	r5,15
 1005f20:	1c000317 	ldw	r16,12(r3)
 1005f24:	1c00041e 	bne	r3,r16,1005f38 <_malloc_r+0x290>
 1005f28:	0000a706 	br	10061c8 <_malloc_r+0x520>
 1005f2c:	3000ab0e 	bge	r6,zero,10061dc <_malloc_r+0x534>
 1005f30:	84000317 	ldw	r16,12(r16)
 1005f34:	1c00a426 	beq	r3,r16,10061c8 <_malloc_r+0x520>
 1005f38:	80800117 	ldw	r2,4(r16)
 1005f3c:	1204703a 	and	r2,r2,r8
 1005f40:	144dc83a 	sub	r6,r2,r17
 1005f44:	29bff90e 	bge	r5,r6,1005f2c <_malloc_r+0x284>
 1005f48:	81000317 	ldw	r4,12(r16)
 1005f4c:	80c00217 	ldw	r3,8(r16)
 1005f50:	89400054 	ori	r5,r17,1
 1005f54:	8445883a 	add	r2,r16,r17
 1005f58:	20c00215 	stw	r3,8(r4)
 1005f5c:	19000315 	stw	r4,12(r3)
 1005f60:	81400115 	stw	r5,4(r16)
 1005f64:	1187883a 	add	r3,r2,r6
 1005f68:	31000054 	ori	r4,r6,1
 1005f6c:	50800315 	stw	r2,12(r10)
 1005f70:	50800215 	stw	r2,8(r10)
 1005f74:	19800015 	stw	r6,0(r3)
 1005f78:	11000115 	stw	r4,4(r2)
 1005f7c:	12800215 	stw	r10,8(r2)
 1005f80:	12800315 	stw	r10,12(r2)
 1005f84:	9009883a 	mov	r4,r18
 1005f88:	100b0a00 	call	100b0a0 <__malloc_unlock>
 1005f8c:	80c00204 	addi	r3,r16,8
 1005f90:	003f5906 	br	1005cf8 <_malloc_r+0x50>
 1005f94:	8109883a 	add	r4,r16,r4
 1005f98:	20800117 	ldw	r2,4(r4)
 1005f9c:	80c00217 	ldw	r3,8(r16)
 1005fa0:	81400317 	ldw	r5,12(r16)
 1005fa4:	10800054 	ori	r2,r2,1
 1005fa8:	20800115 	stw	r2,4(r4)
 1005fac:	28c00215 	stw	r3,8(r5)
 1005fb0:	19400315 	stw	r5,12(r3)
 1005fb4:	9009883a 	mov	r4,r18
 1005fb8:	100b0a00 	call	100b0a0 <__malloc_unlock>
 1005fbc:	80c00204 	addi	r3,r16,8
 1005fc0:	003f4d06 	br	1005cf8 <_malloc_r+0x50>
 1005fc4:	80800204 	addi	r2,r16,8
 1005fc8:	14000317 	ldw	r16,12(r2)
 1005fcc:	143f911e 	bne	r2,r16,1005e14 <_malloc_r+0x16c>
 1005fd0:	1a400084 	addi	r9,r3,2
 1005fd4:	003f7306 	br	1005da4 <_malloc_r+0xfc>
 1005fd8:	88c00054 	ori	r3,r17,1
 1005fdc:	8445883a 	add	r2,r16,r17
 1005fe0:	80c00115 	stw	r3,4(r16)
 1005fe4:	003fdf06 	br	1005f64 <_malloc_r+0x2bc>
 1005fe8:	e4000217 	ldw	r16,8(fp)
 1005fec:	00bfff04 	movi	r2,-4
 1005ff0:	80c00117 	ldw	r3,4(r16)
 1005ff4:	802d883a 	mov	r22,r16
 1005ff8:	18aa703a 	and	r21,r3,r2
 1005ffc:	ac401636 	bltu	r21,r17,1006058 <_malloc_r+0x3b0>
 1006000:	ac49c83a 	sub	r4,r21,r17
 1006004:	008003c4 	movi	r2,15
 1006008:	1100130e 	bge	r2,r4,1006058 <_malloc_r+0x3b0>
 100600c:	88800054 	ori	r2,r17,1
 1006010:	8447883a 	add	r3,r16,r17
 1006014:	80800115 	stw	r2,4(r16)
 1006018:	20800054 	ori	r2,r4,1
 100601c:	18800115 	stw	r2,4(r3)
 1006020:	e0c00215 	stw	r3,8(fp)
 1006024:	9009883a 	mov	r4,r18
 1006028:	100b0a00 	call	100b0a0 <__malloc_unlock>
 100602c:	80c00204 	addi	r3,r16,8
 1006030:	003f3106 	br	1005cf8 <_malloc_r+0x50>
 1006034:	39c00117 	ldw	r7,4(r7)
 1006038:	573ffe04 	addi	fp,r10,-8
 100603c:	003fa006 	br	1005ec0 <_malloc_r+0x218>
 1006040:	00801504 	movi	r2,84
 1006044:	10c06736 	bltu	r2,r3,10061e4 <_malloc_r+0x53c>
 1006048:	8804d33a 	srli	r2,r17,12
 100604c:	11801b84 	addi	r6,r2,110
 1006050:	300490fa 	slli	r2,r6,3
 1006054:	003f4106 	br	1005d5c <_malloc_r+0xb4>
 1006058:	d0a6b617 	ldw	r2,-25896(gp)
 100605c:	d0e00517 	ldw	r3,-32748(gp)
 1006060:	053fffc4 	movi	r20,-1
 1006064:	10800404 	addi	r2,r2,16
 1006068:	88a7883a 	add	r19,r17,r2
 100606c:	1d000326 	beq	r3,r20,100607c <_malloc_r+0x3d4>
 1006070:	98c3ffc4 	addi	r3,r19,4095
 1006074:	00bc0004 	movi	r2,-4096
 1006078:	18a6703a 	and	r19,r3,r2
 100607c:	9009883a 	mov	r4,r18
 1006080:	980b883a 	mov	r5,r19
 1006084:	1007dd40 	call	1007dd4 <_sbrk_r>
 1006088:	1009883a 	mov	r4,r2
 100608c:	15000426 	beq	r2,r20,10060a0 <_malloc_r+0x3f8>
 1006090:	854b883a 	add	r5,r16,r21
 1006094:	1029883a 	mov	r20,r2
 1006098:	11405a2e 	bgeu	r2,r5,1006204 <_malloc_r+0x55c>
 100609c:	87000c26 	beq	r16,fp,10060d0 <_malloc_r+0x428>
 10060a0:	e4000217 	ldw	r16,8(fp)
 10060a4:	80c00117 	ldw	r3,4(r16)
 10060a8:	00bfff04 	movi	r2,-4
 10060ac:	1884703a 	and	r2,r3,r2
 10060b0:	14400336 	bltu	r2,r17,10060c0 <_malloc_r+0x418>
 10060b4:	1449c83a 	sub	r4,r2,r17
 10060b8:	008003c4 	movi	r2,15
 10060bc:	113fd316 	blt	r2,r4,100600c <_malloc_r+0x364>
 10060c0:	9009883a 	mov	r4,r18
 10060c4:	100b0a00 	call	100b0a0 <__malloc_unlock>
 10060c8:	0007883a 	mov	r3,zero
 10060cc:	003f0a06 	br	1005cf8 <_malloc_r+0x50>
 10060d0:	05c04074 	movhi	r23,257
 10060d4:	bdc4e104 	addi	r23,r23,4996
 10060d8:	b8800017 	ldw	r2,0(r23)
 10060dc:	988d883a 	add	r6,r19,r2
 10060e0:	b9800015 	stw	r6,0(r23)
 10060e4:	d0e00517 	ldw	r3,-32748(gp)
 10060e8:	00bfffc4 	movi	r2,-1
 10060ec:	18808e26 	beq	r3,r2,1006328 <_malloc_r+0x680>
 10060f0:	2145c83a 	sub	r2,r4,r5
 10060f4:	3085883a 	add	r2,r6,r2
 10060f8:	b8800015 	stw	r2,0(r23)
 10060fc:	20c001cc 	andi	r3,r4,7
 1006100:	18005f1e 	bne	r3,zero,1006280 <_malloc_r+0x5d8>
 1006104:	000b883a 	mov	r5,zero
 1006108:	a4c5883a 	add	r2,r20,r19
 100610c:	1083ffcc 	andi	r2,r2,4095
 1006110:	00c40004 	movi	r3,4096
 1006114:	1887c83a 	sub	r3,r3,r2
 1006118:	28e7883a 	add	r19,r5,r3
 100611c:	9009883a 	mov	r4,r18
 1006120:	980b883a 	mov	r5,r19
 1006124:	1007dd40 	call	1007dd4 <_sbrk_r>
 1006128:	1007883a 	mov	r3,r2
 100612c:	00bfffc4 	movi	r2,-1
 1006130:	18807a26 	beq	r3,r2,100631c <_malloc_r+0x674>
 1006134:	1d05c83a 	sub	r2,r3,r20
 1006138:	9885883a 	add	r2,r19,r2
 100613c:	10c00054 	ori	r3,r2,1
 1006140:	b8800017 	ldw	r2,0(r23)
 1006144:	a021883a 	mov	r16,r20
 1006148:	a0c00115 	stw	r3,4(r20)
 100614c:	9885883a 	add	r2,r19,r2
 1006150:	b8800015 	stw	r2,0(r23)
 1006154:	e5000215 	stw	r20,8(fp)
 1006158:	b7003626 	beq	r22,fp,1006234 <_malloc_r+0x58c>
 100615c:	018003c4 	movi	r6,15
 1006160:	35404b36 	bltu	r6,r21,1006290 <_malloc_r+0x5e8>
 1006164:	00800044 	movi	r2,1
 1006168:	a0800115 	stw	r2,4(r20)
 100616c:	003fcd06 	br	10060a4 <_malloc_r+0x3fc>
 1006170:	2808d27a 	srli	r4,r5,9
 1006174:	2000371e 	bne	r4,zero,1006254 <_malloc_r+0x5ac>
 1006178:	2808d0fa 	srli	r4,r5,3
 100617c:	200690fa 	slli	r3,r4,3
 1006180:	1ad1883a 	add	r8,r3,r11
 1006184:	41800217 	ldw	r6,8(r8)
 1006188:	41805b26 	beq	r8,r6,10062f8 <_malloc_r+0x650>
 100618c:	30800117 	ldw	r2,4(r6)
 1006190:	00ffff04 	movi	r3,-4
 1006194:	10c4703a 	and	r2,r2,r3
 1006198:	2880022e 	bgeu	r5,r2,10061a4 <_malloc_r+0x4fc>
 100619c:	31800217 	ldw	r6,8(r6)
 10061a0:	41bffa1e 	bne	r8,r6,100618c <_malloc_r+0x4e4>
 10061a4:	32000317 	ldw	r8,12(r6)
 10061a8:	39c00117 	ldw	r7,4(r7)
 10061ac:	82000315 	stw	r8,12(r16)
 10061b0:	81800215 	stw	r6,8(r16)
 10061b4:	07004074 	movhi	fp,257
 10061b8:	e7388d04 	addi	fp,fp,-7628
 10061bc:	34000315 	stw	r16,12(r6)
 10061c0:	44000215 	stw	r16,8(r8)
 10061c4:	003f3e06 	br	1005ec0 <_malloc_r+0x218>
 10061c8:	63000044 	addi	r12,r12,1
 10061cc:	608000cc 	andi	r2,r12,3
 10061d0:	10005d26 	beq	r2,zero,1006348 <_malloc_r+0x6a0>
 10061d4:	18c00204 	addi	r3,r3,8
 10061d8:	003f5106 	br	1005f20 <_malloc_r+0x278>
 10061dc:	8089883a 	add	r4,r16,r2
 10061e0:	003f6d06 	br	1005f98 <_malloc_r+0x2f0>
 10061e4:	00805504 	movi	r2,340
 10061e8:	10c02036 	bltu	r2,r3,100626c <_malloc_r+0x5c4>
 10061ec:	8804d3fa 	srli	r2,r17,15
 10061f0:	11801dc4 	addi	r6,r2,119
 10061f4:	300490fa 	slli	r2,r6,3
 10061f8:	003ed806 	br	1005d5c <_malloc_r+0xb4>
 10061fc:	48c000c4 	addi	r3,r9,3
 1006200:	003f3106 	br	1005ec8 <_malloc_r+0x220>
 1006204:	05c04074 	movhi	r23,257
 1006208:	bdc4e104 	addi	r23,r23,4996
 100620c:	b8800017 	ldw	r2,0(r23)
 1006210:	988d883a 	add	r6,r19,r2
 1006214:	b9800015 	stw	r6,0(r23)
 1006218:	293fb21e 	bne	r5,r4,10060e4 <_malloc_r+0x43c>
 100621c:	2083ffcc 	andi	r2,r4,4095
 1006220:	103fb01e 	bne	r2,zero,10060e4 <_malloc_r+0x43c>
 1006224:	e4000217 	ldw	r16,8(fp)
 1006228:	9d45883a 	add	r2,r19,r21
 100622c:	10800054 	ori	r2,r2,1
 1006230:	80800115 	stw	r2,4(r16)
 1006234:	b8c00017 	ldw	r3,0(r23)
 1006238:	d0a6b717 	ldw	r2,-25892(gp)
 100623c:	10c0012e 	bgeu	r2,r3,1006244 <_malloc_r+0x59c>
 1006240:	d0e6b715 	stw	r3,-25892(gp)
 1006244:	d0a6b817 	ldw	r2,-25888(gp)
 1006248:	10ff962e 	bgeu	r2,r3,10060a4 <_malloc_r+0x3fc>
 100624c:	d0e6b815 	stw	r3,-25888(gp)
 1006250:	003f9406 	br	10060a4 <_malloc_r+0x3fc>
 1006254:	00800104 	movi	r2,4
 1006258:	11001e36 	bltu	r2,r4,10062d4 <_malloc_r+0x62c>
 100625c:	2804d1ba 	srli	r2,r5,6
 1006260:	11000e04 	addi	r4,r2,56
 1006264:	200690fa 	slli	r3,r4,3
 1006268:	003fc506 	br	1006180 <_malloc_r+0x4d8>
 100626c:	00815504 	movi	r2,1364
 1006270:	10c01d2e 	bgeu	r2,r3,10062e8 <_malloc_r+0x640>
 1006274:	01801f84 	movi	r6,126
 1006278:	0080fc04 	movi	r2,1008
 100627c:	003eb706 	br	1005d5c <_malloc_r+0xb4>
 1006280:	00800204 	movi	r2,8
 1006284:	10cbc83a 	sub	r5,r2,r3
 1006288:	2169883a 	add	r20,r4,r5
 100628c:	003f9e06 	br	1006108 <_malloc_r+0x460>
 1006290:	00bffe04 	movi	r2,-8
 1006294:	a93ffd04 	addi	r4,r21,-12
 1006298:	2088703a 	and	r4,r4,r2
 100629c:	b10b883a 	add	r5,r22,r4
 10062a0:	00c00144 	movi	r3,5
 10062a4:	28c00215 	stw	r3,8(r5)
 10062a8:	28c00115 	stw	r3,4(r5)
 10062ac:	b0800117 	ldw	r2,4(r22)
 10062b0:	1080004c 	andi	r2,r2,1
 10062b4:	2084b03a 	or	r2,r4,r2
 10062b8:	b0800115 	stw	r2,4(r22)
 10062bc:	313fdd2e 	bgeu	r6,r4,1006234 <_malloc_r+0x58c>
 10062c0:	b1400204 	addi	r5,r22,8
 10062c4:	9009883a 	mov	r4,r18
 10062c8:	10050ac0 	call	10050ac <_free_r>
 10062cc:	e4000217 	ldw	r16,8(fp)
 10062d0:	003fd806 	br	1006234 <_malloc_r+0x58c>
 10062d4:	00800504 	movi	r2,20
 10062d8:	11001536 	bltu	r2,r4,1006330 <_malloc_r+0x688>
 10062dc:	210016c4 	addi	r4,r4,91
 10062e0:	200690fa 	slli	r3,r4,3
 10062e4:	003fa606 	br	1006180 <_malloc_r+0x4d8>
 10062e8:	8804d4ba 	srli	r2,r17,18
 10062ec:	11801f04 	addi	r6,r2,124
 10062f0:	300490fa 	slli	r2,r6,3
 10062f4:	003e9906 	br	1005d5c <_malloc_r+0xb4>
 10062f8:	2009d0ba 	srai	r4,r4,2
 10062fc:	01404074 	movhi	r5,257
 1006300:	29788d04 	addi	r5,r5,-7628
 1006304:	00c00044 	movi	r3,1
 1006308:	28800117 	ldw	r2,4(r5)
 100630c:	1906983a 	sll	r3,r3,r4
 1006310:	10c4b03a 	or	r2,r2,r3
 1006314:	28800115 	stw	r2,4(r5)
 1006318:	003fa306 	br	10061a8 <_malloc_r+0x500>
 100631c:	0027883a 	mov	r19,zero
 1006320:	00c00044 	movi	r3,1
 1006324:	003f8606 	br	1006140 <_malloc_r+0x498>
 1006328:	d1200515 	stw	r4,-32748(gp)
 100632c:	003f7306 	br	10060fc <_malloc_r+0x454>
 1006330:	00801504 	movi	r2,84
 1006334:	11001936 	bltu	r2,r4,100639c <_malloc_r+0x6f4>
 1006338:	2804d33a 	srli	r2,r5,12
 100633c:	11001b84 	addi	r4,r2,110
 1006340:	200690fa 	slli	r3,r4,3
 1006344:	003f8e06 	br	1006180 <_malloc_r+0x4d8>
 1006348:	480b883a 	mov	r5,r9
 100634c:	6807883a 	mov	r3,r13
 1006350:	288000cc 	andi	r2,r5,3
 1006354:	18fffe04 	addi	r3,r3,-8
 1006358:	297fffc4 	addi	r5,r5,-1
 100635c:	10001526 	beq	r2,zero,10063b4 <_malloc_r+0x70c>
 1006360:	18800217 	ldw	r2,8(r3)
 1006364:	10fffa26 	beq	r2,r3,1006350 <_malloc_r+0x6a8>
 1006368:	2109883a 	add	r4,r4,r4
 100636c:	393f1e36 	bltu	r7,r4,1005fe8 <_malloc_r+0x340>
 1006370:	203f1d26 	beq	r4,zero,1005fe8 <_malloc_r+0x340>
 1006374:	21c4703a 	and	r2,r4,r7
 1006378:	10000226 	beq	r2,zero,1006384 <_malloc_r+0x6dc>
 100637c:	6013883a 	mov	r9,r12
 1006380:	003ee106 	br	1005f08 <_malloc_r+0x260>
 1006384:	2109883a 	add	r4,r4,r4
 1006388:	3904703a 	and	r2,r7,r4
 100638c:	63000104 	addi	r12,r12,4
 1006390:	103ffc26 	beq	r2,zero,1006384 <_malloc_r+0x6dc>
 1006394:	6013883a 	mov	r9,r12
 1006398:	003edb06 	br	1005f08 <_malloc_r+0x260>
 100639c:	00805504 	movi	r2,340
 10063a0:	11000836 	bltu	r2,r4,10063c4 <_malloc_r+0x71c>
 10063a4:	2804d3fa 	srli	r2,r5,15
 10063a8:	11001dc4 	addi	r4,r2,119
 10063ac:	200690fa 	slli	r3,r4,3
 10063b0:	003f7306 	br	1006180 <_malloc_r+0x4d8>
 10063b4:	0104303a 	nor	r2,zero,r4
 10063b8:	388e703a 	and	r7,r7,r2
 10063bc:	e1c00115 	stw	r7,4(fp)
 10063c0:	003fe906 	br	1006368 <_malloc_r+0x6c0>
 10063c4:	00815504 	movi	r2,1364
 10063c8:	1100032e 	bgeu	r2,r4,10063d8 <_malloc_r+0x730>
 10063cc:	01001f84 	movi	r4,126
 10063d0:	00c0fc04 	movi	r3,1008
 10063d4:	003f6a06 	br	1006180 <_malloc_r+0x4d8>
 10063d8:	2804d4ba 	srli	r2,r5,18
 10063dc:	11001f04 	addi	r4,r2,124
 10063e0:	200690fa 	slli	r3,r4,3
 10063e4:	003f6606 	br	1006180 <_malloc_r+0x4d8>

010063e8 <memchr>:
 10063e8:	008000c4 	movi	r2,3
 10063ec:	29403fcc 	andi	r5,r5,255
 10063f0:	2007883a 	mov	r3,r4
 10063f4:	1180022e 	bgeu	r2,r6,1006400 <memchr+0x18>
 10063f8:	2084703a 	and	r2,r4,r2
 10063fc:	10000b26 	beq	r2,zero,100642c <memchr+0x44>
 1006400:	313fffc4 	addi	r4,r6,-1
 1006404:	3000051e 	bne	r6,zero,100641c <memchr+0x34>
 1006408:	00002c06 	br	10064bc <memchr+0xd4>
 100640c:	213fffc4 	addi	r4,r4,-1
 1006410:	00bfffc4 	movi	r2,-1
 1006414:	18c00044 	addi	r3,r3,1
 1006418:	20802826 	beq	r4,r2,10064bc <memchr+0xd4>
 100641c:	18800003 	ldbu	r2,0(r3)
 1006420:	28bffa1e 	bne	r5,r2,100640c <memchr+0x24>
 1006424:	1805883a 	mov	r2,r3
 1006428:	f800283a 	ret
 100642c:	0011883a 	mov	r8,zero
 1006430:	0007883a 	mov	r3,zero
 1006434:	01c00104 	movi	r7,4
 1006438:	4004923a 	slli	r2,r8,8
 100643c:	18c00044 	addi	r3,r3,1
 1006440:	1151883a 	add	r8,r2,r5
 1006444:	19fffc1e 	bne	r3,r7,1006438 <memchr+0x50>
 1006448:	02bfbff4 	movhi	r10,65279
 100644c:	52bfbfc4 	addi	r10,r10,-257
 1006450:	02602074 	movhi	r9,32897
 1006454:	4a602004 	addi	r9,r9,-32640
 1006458:	02c000c4 	movi	r11,3
 100645c:	20800017 	ldw	r2,0(r4)
 1006460:	31bfff04 	addi	r6,r6,-4
 1006464:	200f883a 	mov	r7,r4
 1006468:	1204f03a 	xor	r2,r2,r8
 100646c:	1287883a 	add	r3,r2,r10
 1006470:	1a46703a 	and	r3,r3,r9
 1006474:	0084303a 	nor	r2,zero,r2
 1006478:	10c4703a 	and	r2,r2,r3
 100647c:	10000b26 	beq	r2,zero,10064ac <memchr+0xc4>
 1006480:	20800003 	ldbu	r2,0(r4)
 1006484:	28800f26 	beq	r5,r2,10064c4 <memchr+0xdc>
 1006488:	20800043 	ldbu	r2,1(r4)
 100648c:	21c00044 	addi	r7,r4,1
 1006490:	28800c26 	beq	r5,r2,10064c4 <memchr+0xdc>
 1006494:	20800083 	ldbu	r2,2(r4)
 1006498:	21c00084 	addi	r7,r4,2
 100649c:	28800926 	beq	r5,r2,10064c4 <memchr+0xdc>
 10064a0:	208000c3 	ldbu	r2,3(r4)
 10064a4:	21c000c4 	addi	r7,r4,3
 10064a8:	28800626 	beq	r5,r2,10064c4 <memchr+0xdc>
 10064ac:	21000104 	addi	r4,r4,4
 10064b0:	59bfea36 	bltu	r11,r6,100645c <memchr+0x74>
 10064b4:	2007883a 	mov	r3,r4
 10064b8:	003fd106 	br	1006400 <memchr+0x18>
 10064bc:	0005883a 	mov	r2,zero
 10064c0:	f800283a 	ret
 10064c4:	3805883a 	mov	r2,r7
 10064c8:	f800283a 	ret

010064cc <memcpy>:
 10064cc:	01c003c4 	movi	r7,15
 10064d0:	2007883a 	mov	r3,r4
 10064d4:	3980032e 	bgeu	r7,r6,10064e4 <memcpy+0x18>
 10064d8:	2904b03a 	or	r2,r5,r4
 10064dc:	108000cc 	andi	r2,r2,3
 10064e0:	10000926 	beq	r2,zero,1006508 <memcpy+0x3c>
 10064e4:	30000626 	beq	r6,zero,1006500 <memcpy+0x34>
 10064e8:	30cd883a 	add	r6,r6,r3
 10064ec:	28800003 	ldbu	r2,0(r5)
 10064f0:	29400044 	addi	r5,r5,1
 10064f4:	18800005 	stb	r2,0(r3)
 10064f8:	18c00044 	addi	r3,r3,1
 10064fc:	30fffb1e 	bne	r6,r3,10064ec <memcpy+0x20>
 1006500:	2005883a 	mov	r2,r4
 1006504:	f800283a 	ret
 1006508:	3811883a 	mov	r8,r7
 100650c:	200f883a 	mov	r7,r4
 1006510:	28c00017 	ldw	r3,0(r5)
 1006514:	31bffc04 	addi	r6,r6,-16
 1006518:	38c00015 	stw	r3,0(r7)
 100651c:	28800117 	ldw	r2,4(r5)
 1006520:	38800115 	stw	r2,4(r7)
 1006524:	28c00217 	ldw	r3,8(r5)
 1006528:	38c00215 	stw	r3,8(r7)
 100652c:	28800317 	ldw	r2,12(r5)
 1006530:	29400404 	addi	r5,r5,16
 1006534:	38800315 	stw	r2,12(r7)
 1006538:	39c00404 	addi	r7,r7,16
 100653c:	41bff436 	bltu	r8,r6,1006510 <memcpy+0x44>
 1006540:	008000c4 	movi	r2,3
 1006544:	1180072e 	bgeu	r2,r6,1006564 <memcpy+0x98>
 1006548:	1007883a 	mov	r3,r2
 100654c:	28800017 	ldw	r2,0(r5)
 1006550:	31bfff04 	addi	r6,r6,-4
 1006554:	29400104 	addi	r5,r5,4
 1006558:	38800015 	stw	r2,0(r7)
 100655c:	39c00104 	addi	r7,r7,4
 1006560:	19bffa36 	bltu	r3,r6,100654c <memcpy+0x80>
 1006564:	3807883a 	mov	r3,r7
 1006568:	003fde06 	br	10064e4 <memcpy+0x18>

0100656c <memmove>:
 100656c:	2807883a 	mov	r3,r5
 1006570:	2011883a 	mov	r8,r4
 1006574:	29000c2e 	bgeu	r5,r4,10065a8 <memmove+0x3c>
 1006578:	298f883a 	add	r7,r5,r6
 100657c:	21c00a2e 	bgeu	r4,r7,10065a8 <memmove+0x3c>
 1006580:	30000726 	beq	r6,zero,10065a0 <memmove+0x34>
 1006584:	2187883a 	add	r3,r4,r6
 1006588:	198dc83a 	sub	r6,r3,r6
 100658c:	39ffffc4 	addi	r7,r7,-1
 1006590:	38800003 	ldbu	r2,0(r7)
 1006594:	18ffffc4 	addi	r3,r3,-1
 1006598:	18800005 	stb	r2,0(r3)
 100659c:	19bffb1e 	bne	r3,r6,100658c <memmove+0x20>
 10065a0:	2005883a 	mov	r2,r4
 10065a4:	f800283a 	ret
 10065a8:	01c003c4 	movi	r7,15
 10065ac:	39800a36 	bltu	r7,r6,10065d8 <memmove+0x6c>
 10065b0:	303ffb26 	beq	r6,zero,10065a0 <memmove+0x34>
 10065b4:	400f883a 	mov	r7,r8
 10065b8:	320d883a 	add	r6,r6,r8
 10065bc:	28800003 	ldbu	r2,0(r5)
 10065c0:	29400044 	addi	r5,r5,1
 10065c4:	38800005 	stb	r2,0(r7)
 10065c8:	39c00044 	addi	r7,r7,1
 10065cc:	39bffb1e 	bne	r7,r6,10065bc <memmove+0x50>
 10065d0:	2005883a 	mov	r2,r4
 10065d4:	f800283a 	ret
 10065d8:	1904b03a 	or	r2,r3,r4
 10065dc:	108000cc 	andi	r2,r2,3
 10065e0:	103ff31e 	bne	r2,zero,10065b0 <memmove+0x44>
 10065e4:	3811883a 	mov	r8,r7
 10065e8:	180b883a 	mov	r5,r3
 10065ec:	200f883a 	mov	r7,r4
 10065f0:	28c00017 	ldw	r3,0(r5)
 10065f4:	31bffc04 	addi	r6,r6,-16
 10065f8:	38c00015 	stw	r3,0(r7)
 10065fc:	28800117 	ldw	r2,4(r5)
 1006600:	38800115 	stw	r2,4(r7)
 1006604:	28c00217 	ldw	r3,8(r5)
 1006608:	38c00215 	stw	r3,8(r7)
 100660c:	28800317 	ldw	r2,12(r5)
 1006610:	29400404 	addi	r5,r5,16
 1006614:	38800315 	stw	r2,12(r7)
 1006618:	39c00404 	addi	r7,r7,16
 100661c:	41bff436 	bltu	r8,r6,10065f0 <memmove+0x84>
 1006620:	008000c4 	movi	r2,3
 1006624:	1180072e 	bgeu	r2,r6,1006644 <memmove+0xd8>
 1006628:	1007883a 	mov	r3,r2
 100662c:	28800017 	ldw	r2,0(r5)
 1006630:	31bfff04 	addi	r6,r6,-4
 1006634:	29400104 	addi	r5,r5,4
 1006638:	38800015 	stw	r2,0(r7)
 100663c:	39c00104 	addi	r7,r7,4
 1006640:	19bffa36 	bltu	r3,r6,100662c <memmove+0xc0>
 1006644:	3811883a 	mov	r8,r7
 1006648:	003fd906 	br	10065b0 <memmove+0x44>

0100664c <memset>:
 100664c:	008000c4 	movi	r2,3
 1006650:	29403fcc 	andi	r5,r5,255
 1006654:	2007883a 	mov	r3,r4
 1006658:	1180022e 	bgeu	r2,r6,1006664 <memset+0x18>
 100665c:	2084703a 	and	r2,r4,r2
 1006660:	10000826 	beq	r2,zero,1006684 <memset+0x38>
 1006664:	30000526 	beq	r6,zero,100667c <memset+0x30>
 1006668:	2805883a 	mov	r2,r5
 100666c:	30cd883a 	add	r6,r6,r3
 1006670:	18800005 	stb	r2,0(r3)
 1006674:	18c00044 	addi	r3,r3,1
 1006678:	19bffd1e 	bne	r3,r6,1006670 <memset+0x24>
 100667c:	2005883a 	mov	r2,r4
 1006680:	f800283a 	ret
 1006684:	2804923a 	slli	r2,r5,8
 1006688:	020003c4 	movi	r8,15
 100668c:	200f883a 	mov	r7,r4
 1006690:	2884b03a 	or	r2,r5,r2
 1006694:	1006943a 	slli	r3,r2,16
 1006698:	10c6b03a 	or	r3,r2,r3
 100669c:	41800a2e 	bgeu	r8,r6,10066c8 <memset+0x7c>
 10066a0:	4005883a 	mov	r2,r8
 10066a4:	31bffc04 	addi	r6,r6,-16
 10066a8:	38c00015 	stw	r3,0(r7)
 10066ac:	38c00115 	stw	r3,4(r7)
 10066b0:	38c00215 	stw	r3,8(r7)
 10066b4:	38c00315 	stw	r3,12(r7)
 10066b8:	39c00404 	addi	r7,r7,16
 10066bc:	11bff936 	bltu	r2,r6,10066a4 <memset+0x58>
 10066c0:	008000c4 	movi	r2,3
 10066c4:	1180052e 	bgeu	r2,r6,10066dc <memset+0x90>
 10066c8:	31bfff04 	addi	r6,r6,-4
 10066cc:	008000c4 	movi	r2,3
 10066d0:	38c00015 	stw	r3,0(r7)
 10066d4:	39c00104 	addi	r7,r7,4
 10066d8:	11bffb36 	bltu	r2,r6,10066c8 <memset+0x7c>
 10066dc:	3807883a 	mov	r3,r7
 10066e0:	003fe006 	br	1006664 <memset+0x18>

010066e4 <_Bfree>:
 10066e4:	28000826 	beq	r5,zero,1006708 <_Bfree+0x24>
 10066e8:	28800117 	ldw	r2,4(r5)
 10066ec:	21001317 	ldw	r4,76(r4)
 10066f0:	1085883a 	add	r2,r2,r2
 10066f4:	1085883a 	add	r2,r2,r2
 10066f8:	1105883a 	add	r2,r2,r4
 10066fc:	10c00017 	ldw	r3,0(r2)
 1006700:	28c00015 	stw	r3,0(r5)
 1006704:	11400015 	stw	r5,0(r2)
 1006708:	f800283a 	ret

0100670c <__hi0bits>:
 100670c:	20bfffec 	andhi	r2,r4,65535
 1006710:	10001426 	beq	r2,zero,1006764 <__hi0bits+0x58>
 1006714:	0007883a 	mov	r3,zero
 1006718:	20bfc02c 	andhi	r2,r4,65280
 100671c:	1000021e 	bne	r2,zero,1006728 <__hi0bits+0x1c>
 1006720:	2008923a 	slli	r4,r4,8
 1006724:	18c00204 	addi	r3,r3,8
 1006728:	20bc002c 	andhi	r2,r4,61440
 100672c:	1000021e 	bne	r2,zero,1006738 <__hi0bits+0x2c>
 1006730:	2008913a 	slli	r4,r4,4
 1006734:	18c00104 	addi	r3,r3,4
 1006738:	20b0002c 	andhi	r2,r4,49152
 100673c:	1000031e 	bne	r2,zero,100674c <__hi0bits+0x40>
 1006740:	2105883a 	add	r2,r4,r4
 1006744:	18c00084 	addi	r3,r3,2
 1006748:	1089883a 	add	r4,r2,r2
 100674c:	20000316 	blt	r4,zero,100675c <__hi0bits+0x50>
 1006750:	2090002c 	andhi	r2,r4,16384
 1006754:	10000626 	beq	r2,zero,1006770 <__hi0bits+0x64>
 1006758:	18c00044 	addi	r3,r3,1
 100675c:	1805883a 	mov	r2,r3
 1006760:	f800283a 	ret
 1006764:	2008943a 	slli	r4,r4,16
 1006768:	00c00404 	movi	r3,16
 100676c:	003fea06 	br	1006718 <__hi0bits+0xc>
 1006770:	00c00804 	movi	r3,32
 1006774:	1805883a 	mov	r2,r3
 1006778:	f800283a 	ret

0100677c <__lo0bits>:
 100677c:	20c00017 	ldw	r3,0(r4)
 1006780:	188001cc 	andi	r2,r3,7
 1006784:	10000a26 	beq	r2,zero,10067b0 <__lo0bits+0x34>
 1006788:	1880004c 	andi	r2,r3,1
 100678c:	1005003a 	cmpeq	r2,r2,zero
 1006790:	10002126 	beq	r2,zero,1006818 <__lo0bits+0x9c>
 1006794:	1880008c 	andi	r2,r3,2
 1006798:	1000251e 	bne	r2,zero,1006830 <__lo0bits+0xb4>
 100679c:	1804d0ba 	srli	r2,r3,2
 10067a0:	01400084 	movi	r5,2
 10067a4:	20800015 	stw	r2,0(r4)
 10067a8:	2805883a 	mov	r2,r5
 10067ac:	f800283a 	ret
 10067b0:	18bfffcc 	andi	r2,r3,65535
 10067b4:	10001526 	beq	r2,zero,100680c <__lo0bits+0x90>
 10067b8:	000b883a 	mov	r5,zero
 10067bc:	18803fcc 	andi	r2,r3,255
 10067c0:	1000021e 	bne	r2,zero,10067cc <__lo0bits+0x50>
 10067c4:	1806d23a 	srli	r3,r3,8
 10067c8:	29400204 	addi	r5,r5,8
 10067cc:	188003cc 	andi	r2,r3,15
 10067d0:	1000021e 	bne	r2,zero,10067dc <__lo0bits+0x60>
 10067d4:	1806d13a 	srli	r3,r3,4
 10067d8:	29400104 	addi	r5,r5,4
 10067dc:	188000cc 	andi	r2,r3,3
 10067e0:	1000021e 	bne	r2,zero,10067ec <__lo0bits+0x70>
 10067e4:	1806d0ba 	srli	r3,r3,2
 10067e8:	29400084 	addi	r5,r5,2
 10067ec:	1880004c 	andi	r2,r3,1
 10067f0:	1000031e 	bne	r2,zero,1006800 <__lo0bits+0x84>
 10067f4:	1806d07a 	srli	r3,r3,1
 10067f8:	18000a26 	beq	r3,zero,1006824 <__lo0bits+0xa8>
 10067fc:	29400044 	addi	r5,r5,1
 1006800:	2805883a 	mov	r2,r5
 1006804:	20c00015 	stw	r3,0(r4)
 1006808:	f800283a 	ret
 100680c:	1806d43a 	srli	r3,r3,16
 1006810:	01400404 	movi	r5,16
 1006814:	003fe906 	br	10067bc <__lo0bits+0x40>
 1006818:	000b883a 	mov	r5,zero
 100681c:	2805883a 	mov	r2,r5
 1006820:	f800283a 	ret
 1006824:	01400804 	movi	r5,32
 1006828:	2805883a 	mov	r2,r5
 100682c:	f800283a 	ret
 1006830:	1804d07a 	srli	r2,r3,1
 1006834:	01400044 	movi	r5,1
 1006838:	20800015 	stw	r2,0(r4)
 100683c:	003fda06 	br	10067a8 <__lo0bits+0x2c>

01006840 <__mcmp>:
 1006840:	20800417 	ldw	r2,16(r4)
 1006844:	28c00417 	ldw	r3,16(r5)
 1006848:	10cfc83a 	sub	r7,r2,r3
 100684c:	38000c1e 	bne	r7,zero,1006880 <__mcmp+0x40>
 1006850:	18c5883a 	add	r2,r3,r3
 1006854:	1085883a 	add	r2,r2,r2
 1006858:	10c00504 	addi	r3,r2,20
 100685c:	21000504 	addi	r4,r4,20
 1006860:	28cb883a 	add	r5,r5,r3
 1006864:	2085883a 	add	r2,r4,r2
 1006868:	10bfff04 	addi	r2,r2,-4
 100686c:	297fff04 	addi	r5,r5,-4
 1006870:	11800017 	ldw	r6,0(r2)
 1006874:	28c00017 	ldw	r3,0(r5)
 1006878:	30c0031e 	bne	r6,r3,1006888 <__mcmp+0x48>
 100687c:	20bffa36 	bltu	r4,r2,1006868 <__mcmp+0x28>
 1006880:	3805883a 	mov	r2,r7
 1006884:	f800283a 	ret
 1006888:	30c00336 	bltu	r6,r3,1006898 <__mcmp+0x58>
 100688c:	01c00044 	movi	r7,1
 1006890:	3805883a 	mov	r2,r7
 1006894:	f800283a 	ret
 1006898:	01ffffc4 	movi	r7,-1
 100689c:	003ff806 	br	1006880 <__mcmp+0x40>

010068a0 <__ulp>:
 10068a0:	295ffc2c 	andhi	r5,r5,32752
 10068a4:	013f3034 	movhi	r4,64704
 10068a8:	290b883a 	add	r5,r5,r4
 10068ac:	0145c83a 	sub	r2,zero,r5
 10068b0:	1007d53a 	srai	r3,r2,20
 10068b4:	000d883a 	mov	r6,zero
 10068b8:	0140040e 	bge	zero,r5,10068cc <__ulp+0x2c>
 10068bc:	280f883a 	mov	r7,r5
 10068c0:	3807883a 	mov	r3,r7
 10068c4:	3005883a 	mov	r2,r6
 10068c8:	f800283a 	ret
 10068cc:	008004c4 	movi	r2,19
 10068d0:	193ffb04 	addi	r4,r3,-20
 10068d4:	10c00c0e 	bge	r2,r3,1006908 <__ulp+0x68>
 10068d8:	008007c4 	movi	r2,31
 10068dc:	1107c83a 	sub	r3,r2,r4
 10068e0:	00800784 	movi	r2,30
 10068e4:	01400044 	movi	r5,1
 10068e8:	11000216 	blt	r2,r4,10068f4 <__ulp+0x54>
 10068ec:	00800044 	movi	r2,1
 10068f0:	10ca983a 	sll	r5,r2,r3
 10068f4:	000f883a 	mov	r7,zero
 10068f8:	280d883a 	mov	r6,r5
 10068fc:	3807883a 	mov	r3,r7
 1006900:	3005883a 	mov	r2,r6
 1006904:	f800283a 	ret
 1006908:	00800234 	movhi	r2,8
 100690c:	10cfd83a 	sra	r7,r2,r3
 1006910:	000d883a 	mov	r6,zero
 1006914:	3005883a 	mov	r2,r6
 1006918:	3807883a 	mov	r3,r7
 100691c:	f800283a 	ret

01006920 <__b2d>:
 1006920:	20800417 	ldw	r2,16(r4)
 1006924:	defff904 	addi	sp,sp,-28
 1006928:	dd000415 	stw	r20,16(sp)
 100692c:	1085883a 	add	r2,r2,r2
 1006930:	25000504 	addi	r20,r4,20
 1006934:	1085883a 	add	r2,r2,r2
 1006938:	dc000015 	stw	r16,0(sp)
 100693c:	a0a1883a 	add	r16,r20,r2
 1006940:	dd400515 	stw	r21,20(sp)
 1006944:	857fff17 	ldw	r21,-4(r16)
 1006948:	dc400115 	stw	r17,4(sp)
 100694c:	dfc00615 	stw	ra,24(sp)
 1006950:	a809883a 	mov	r4,r21
 1006954:	2823883a 	mov	r17,r5
 1006958:	dcc00315 	stw	r19,12(sp)
 100695c:	dc800215 	stw	r18,8(sp)
 1006960:	100670c0 	call	100670c <__hi0bits>
 1006964:	100b883a 	mov	r5,r2
 1006968:	00800804 	movi	r2,32
 100696c:	1145c83a 	sub	r2,r2,r5
 1006970:	88800015 	stw	r2,0(r17)
 1006974:	00800284 	movi	r2,10
 1006978:	80ffff04 	addi	r3,r16,-4
 100697c:	11401416 	blt	r2,r5,10069d0 <__b2d+0xb0>
 1006980:	008002c4 	movi	r2,11
 1006984:	1149c83a 	sub	r4,r2,r5
 1006988:	a0c02736 	bltu	r20,r3,1006a28 <__b2d+0x108>
 100698c:	000d883a 	mov	r6,zero
 1006990:	28800544 	addi	r2,r5,21
 1006994:	a906d83a 	srl	r3,r21,r4
 1006998:	a884983a 	sll	r2,r21,r2
 100699c:	1ccffc34 	orhi	r19,r3,16368
 10069a0:	11a4b03a 	or	r18,r2,r6
 10069a4:	9005883a 	mov	r2,r18
 10069a8:	9807883a 	mov	r3,r19
 10069ac:	dfc00617 	ldw	ra,24(sp)
 10069b0:	dd400517 	ldw	r21,20(sp)
 10069b4:	dd000417 	ldw	r20,16(sp)
 10069b8:	dcc00317 	ldw	r19,12(sp)
 10069bc:	dc800217 	ldw	r18,8(sp)
 10069c0:	dc400117 	ldw	r17,4(sp)
 10069c4:	dc000017 	ldw	r16,0(sp)
 10069c8:	dec00704 	addi	sp,sp,28
 10069cc:	f800283a 	ret
 10069d0:	a0c00e36 	bltu	r20,r3,1006a0c <__b2d+0xec>
 10069d4:	293ffd44 	addi	r4,r5,-11
 10069d8:	000d883a 	mov	r6,zero
 10069dc:	20000f26 	beq	r4,zero,1006a1c <__b2d+0xfc>
 10069e0:	00800804 	movi	r2,32
 10069e4:	110bc83a 	sub	r5,r2,r4
 10069e8:	a0c01236 	bltu	r20,r3,1006a34 <__b2d+0x114>
 10069ec:	000f883a 	mov	r7,zero
 10069f0:	a904983a 	sll	r2,r21,r4
 10069f4:	3146d83a 	srl	r3,r6,r5
 10069f8:	3108983a 	sll	r4,r6,r4
 10069fc:	108ffc34 	orhi	r2,r2,16368
 1006a00:	18a6b03a 	or	r19,r3,r2
 1006a04:	3924b03a 	or	r18,r7,r4
 1006a08:	003fe606 	br	10069a4 <__b2d+0x84>
 1006a0c:	293ffd44 	addi	r4,r5,-11
 1006a10:	81bffe17 	ldw	r6,-8(r16)
 1006a14:	80fffe04 	addi	r3,r16,-8
 1006a18:	203ff11e 	bne	r4,zero,10069e0 <__b2d+0xc0>
 1006a1c:	accffc34 	orhi	r19,r21,16368
 1006a20:	3025883a 	mov	r18,r6
 1006a24:	003fdf06 	br	10069a4 <__b2d+0x84>
 1006a28:	18bfff17 	ldw	r2,-4(r3)
 1006a2c:	110cd83a 	srl	r6,r2,r4
 1006a30:	003fd706 	br	1006990 <__b2d+0x70>
 1006a34:	18bfff17 	ldw	r2,-4(r3)
 1006a38:	114ed83a 	srl	r7,r2,r5
 1006a3c:	003fec06 	br	10069f0 <__b2d+0xd0>

01006a40 <__ratio>:
 1006a40:	defff904 	addi	sp,sp,-28
 1006a44:	dc400215 	stw	r17,8(sp)
 1006a48:	2823883a 	mov	r17,r5
 1006a4c:	d80b883a 	mov	r5,sp
 1006a50:	dfc00615 	stw	ra,24(sp)
 1006a54:	dd000515 	stw	r20,20(sp)
 1006a58:	dcc00415 	stw	r19,16(sp)
 1006a5c:	dc800315 	stw	r18,12(sp)
 1006a60:	2025883a 	mov	r18,r4
 1006a64:	10069200 	call	1006920 <__b2d>
 1006a68:	8809883a 	mov	r4,r17
 1006a6c:	d9400104 	addi	r5,sp,4
 1006a70:	1027883a 	mov	r19,r2
 1006a74:	1829883a 	mov	r20,r3
 1006a78:	10069200 	call	1006920 <__b2d>
 1006a7c:	89000417 	ldw	r4,16(r17)
 1006a80:	91c00417 	ldw	r7,16(r18)
 1006a84:	d9800117 	ldw	r6,4(sp)
 1006a88:	180b883a 	mov	r5,r3
 1006a8c:	390fc83a 	sub	r7,r7,r4
 1006a90:	1009883a 	mov	r4,r2
 1006a94:	d8800017 	ldw	r2,0(sp)
 1006a98:	380e917a 	slli	r7,r7,5
 1006a9c:	2011883a 	mov	r8,r4
 1006aa0:	1185c83a 	sub	r2,r2,r6
 1006aa4:	11c5883a 	add	r2,r2,r7
 1006aa8:	1006953a 	slli	r3,r2,20
 1006aac:	2813883a 	mov	r9,r5
 1006ab0:	00800d0e 	bge	zero,r2,1006ae8 <__ratio+0xa8>
 1006ab4:	1d29883a 	add	r20,r3,r20
 1006ab8:	a00b883a 	mov	r5,r20
 1006abc:	480f883a 	mov	r7,r9
 1006ac0:	9809883a 	mov	r4,r19
 1006ac4:	400d883a 	mov	r6,r8
 1006ac8:	1009c200 	call	1009c20 <__divdf3>
 1006acc:	dfc00617 	ldw	ra,24(sp)
 1006ad0:	dd000517 	ldw	r20,20(sp)
 1006ad4:	dcc00417 	ldw	r19,16(sp)
 1006ad8:	dc800317 	ldw	r18,12(sp)
 1006adc:	dc400217 	ldw	r17,8(sp)
 1006ae0:	dec00704 	addi	sp,sp,28
 1006ae4:	f800283a 	ret
 1006ae8:	28d3c83a 	sub	r9,r5,r3
 1006aec:	003ff206 	br	1006ab8 <__ratio+0x78>

01006af0 <_mprec_log10>:
 1006af0:	defffe04 	addi	sp,sp,-8
 1006af4:	008005c4 	movi	r2,23
 1006af8:	dc000015 	stw	r16,0(sp)
 1006afc:	dfc00115 	stw	ra,4(sp)
 1006b00:	2021883a 	mov	r16,r4
 1006b04:	11000c16 	blt	r2,r4,1006b38 <_mprec_log10+0x48>
 1006b08:	200490fa 	slli	r2,r4,3
 1006b0c:	00c04074 	movhi	r3,257
 1006b10:	18f72904 	addi	r3,r3,-9052
 1006b14:	10c5883a 	add	r2,r2,r3
 1006b18:	12400117 	ldw	r9,4(r2)
 1006b1c:	12000017 	ldw	r8,0(r2)
 1006b20:	4807883a 	mov	r3,r9
 1006b24:	4005883a 	mov	r2,r8
 1006b28:	dfc00117 	ldw	ra,4(sp)
 1006b2c:	dc000017 	ldw	r16,0(sp)
 1006b30:	dec00204 	addi	sp,sp,8
 1006b34:	f800283a 	ret
 1006b38:	0011883a 	mov	r8,zero
 1006b3c:	024ffc34 	movhi	r9,16368
 1006b40:	0005883a 	mov	r2,zero
 1006b44:	00d00934 	movhi	r3,16420
 1006b48:	480b883a 	mov	r5,r9
 1006b4c:	4009883a 	mov	r4,r8
 1006b50:	180f883a 	mov	r7,r3
 1006b54:	100d883a 	mov	r6,r2
 1006b58:	100985c0 	call	100985c <__muldf3>
 1006b5c:	843fffc4 	addi	r16,r16,-1
 1006b60:	1011883a 	mov	r8,r2
 1006b64:	1813883a 	mov	r9,r3
 1006b68:	803ff51e 	bne	r16,zero,1006b40 <_mprec_log10+0x50>
 1006b6c:	4005883a 	mov	r2,r8
 1006b70:	4807883a 	mov	r3,r9
 1006b74:	dfc00117 	ldw	ra,4(sp)
 1006b78:	dc000017 	ldw	r16,0(sp)
 1006b7c:	dec00204 	addi	sp,sp,8
 1006b80:	f800283a 	ret

01006b84 <__copybits>:
 1006b84:	297fffc4 	addi	r5,r5,-1
 1006b88:	30800417 	ldw	r2,16(r6)
 1006b8c:	280bd17a 	srai	r5,r5,5
 1006b90:	31800504 	addi	r6,r6,20
 1006b94:	1085883a 	add	r2,r2,r2
 1006b98:	294b883a 	add	r5,r5,r5
 1006b9c:	294b883a 	add	r5,r5,r5
 1006ba0:	1085883a 	add	r2,r2,r2
 1006ba4:	290b883a 	add	r5,r5,r4
 1006ba8:	3087883a 	add	r3,r6,r2
 1006bac:	29400104 	addi	r5,r5,4
 1006bb0:	30c0052e 	bgeu	r6,r3,1006bc8 <__copybits+0x44>
 1006bb4:	30800017 	ldw	r2,0(r6)
 1006bb8:	31800104 	addi	r6,r6,4
 1006bbc:	20800015 	stw	r2,0(r4)
 1006bc0:	21000104 	addi	r4,r4,4
 1006bc4:	30fffb36 	bltu	r6,r3,1006bb4 <__copybits+0x30>
 1006bc8:	2140032e 	bgeu	r4,r5,1006bd8 <__copybits+0x54>
 1006bcc:	20000015 	stw	zero,0(r4)
 1006bd0:	21000104 	addi	r4,r4,4
 1006bd4:	217ffd36 	bltu	r4,r5,1006bcc <__copybits+0x48>
 1006bd8:	f800283a 	ret

01006bdc <__any_on>:
 1006bdc:	20800417 	ldw	r2,16(r4)
 1006be0:	2807d17a 	srai	r3,r5,5
 1006be4:	21000504 	addi	r4,r4,20
 1006be8:	10c00d0e 	bge	r2,r3,1006c20 <__any_on+0x44>
 1006bec:	1085883a 	add	r2,r2,r2
 1006bf0:	1085883a 	add	r2,r2,r2
 1006bf4:	208d883a 	add	r6,r4,r2
 1006bf8:	2180182e 	bgeu	r4,r6,1006c5c <__any_on+0x80>
 1006bfc:	30bfff17 	ldw	r2,-4(r6)
 1006c00:	30ffff04 	addi	r3,r6,-4
 1006c04:	1000041e 	bne	r2,zero,1006c18 <__any_on+0x3c>
 1006c08:	20c0142e 	bgeu	r4,r3,1006c5c <__any_on+0x80>
 1006c0c:	18ffff04 	addi	r3,r3,-4
 1006c10:	18800017 	ldw	r2,0(r3)
 1006c14:	103ffc26 	beq	r2,zero,1006c08 <__any_on+0x2c>
 1006c18:	00800044 	movi	r2,1
 1006c1c:	f800283a 	ret
 1006c20:	18800a0e 	bge	r3,r2,1006c4c <__any_on+0x70>
 1006c24:	294007cc 	andi	r5,r5,31
 1006c28:	28000826 	beq	r5,zero,1006c4c <__any_on+0x70>
 1006c2c:	18c5883a 	add	r2,r3,r3
 1006c30:	1085883a 	add	r2,r2,r2
 1006c34:	208d883a 	add	r6,r4,r2
 1006c38:	30c00017 	ldw	r3,0(r6)
 1006c3c:	1944d83a 	srl	r2,r3,r5
 1006c40:	1144983a 	sll	r2,r2,r5
 1006c44:	18bff41e 	bne	r3,r2,1006c18 <__any_on+0x3c>
 1006c48:	003feb06 	br	1006bf8 <__any_on+0x1c>
 1006c4c:	18c5883a 	add	r2,r3,r3
 1006c50:	1085883a 	add	r2,r2,r2
 1006c54:	208d883a 	add	r6,r4,r2
 1006c58:	003fe706 	br	1006bf8 <__any_on+0x1c>
 1006c5c:	0005883a 	mov	r2,zero
 1006c60:	f800283a 	ret

01006c64 <_Balloc>:
 1006c64:	20c01317 	ldw	r3,76(r4)
 1006c68:	defffb04 	addi	sp,sp,-20
 1006c6c:	dcc00315 	stw	r19,12(sp)
 1006c70:	dc800215 	stw	r18,8(sp)
 1006c74:	dfc00415 	stw	ra,16(sp)
 1006c78:	2825883a 	mov	r18,r5
 1006c7c:	dc400115 	stw	r17,4(sp)
 1006c80:	dc000015 	stw	r16,0(sp)
 1006c84:	2027883a 	mov	r19,r4
 1006c88:	01800404 	movi	r6,16
 1006c8c:	01400104 	movi	r5,4
 1006c90:	18001726 	beq	r3,zero,1006cf0 <_Balloc+0x8c>
 1006c94:	01400044 	movi	r5,1
 1006c98:	9485883a 	add	r2,r18,r18
 1006c9c:	2ca2983a 	sll	r17,r5,r18
 1006ca0:	1085883a 	add	r2,r2,r2
 1006ca4:	10c7883a 	add	r3,r2,r3
 1006ca8:	1c000017 	ldw	r16,0(r3)
 1006cac:	8c4d883a 	add	r6,r17,r17
 1006cb0:	318d883a 	add	r6,r6,r6
 1006cb4:	9809883a 	mov	r4,r19
 1006cb8:	31800504 	addi	r6,r6,20
 1006cbc:	80001226 	beq	r16,zero,1006d08 <_Balloc+0xa4>
 1006cc0:	80800017 	ldw	r2,0(r16)
 1006cc4:	18800015 	stw	r2,0(r3)
 1006cc8:	80000415 	stw	zero,16(r16)
 1006ccc:	80000315 	stw	zero,12(r16)
 1006cd0:	8005883a 	mov	r2,r16
 1006cd4:	dfc00417 	ldw	ra,16(sp)
 1006cd8:	dcc00317 	ldw	r19,12(sp)
 1006cdc:	dc800217 	ldw	r18,8(sp)
 1006ce0:	dc400117 	ldw	r17,4(sp)
 1006ce4:	dc000017 	ldw	r16,0(sp)
 1006ce8:	dec00504 	addi	sp,sp,20
 1006cec:	f800283a 	ret
 1006cf0:	10081380 	call	1008138 <_calloc_r>
 1006cf4:	1007883a 	mov	r3,r2
 1006cf8:	0021883a 	mov	r16,zero
 1006cfc:	98801315 	stw	r2,76(r19)
 1006d00:	103fe41e 	bne	r2,zero,1006c94 <_Balloc+0x30>
 1006d04:	003ff206 	br	1006cd0 <_Balloc+0x6c>
 1006d08:	10081380 	call	1008138 <_calloc_r>
 1006d0c:	103ff026 	beq	r2,zero,1006cd0 <_Balloc+0x6c>
 1006d10:	1021883a 	mov	r16,r2
 1006d14:	14800115 	stw	r18,4(r2)
 1006d18:	14400215 	stw	r17,8(r2)
 1006d1c:	003fea06 	br	1006cc8 <_Balloc+0x64>

01006d20 <__d2b>:
 1006d20:	defff504 	addi	sp,sp,-44
 1006d24:	dcc00515 	stw	r19,20(sp)
 1006d28:	04c00044 	movi	r19,1
 1006d2c:	dc000215 	stw	r16,8(sp)
 1006d30:	2821883a 	mov	r16,r5
 1006d34:	980b883a 	mov	r5,r19
 1006d38:	ddc00915 	stw	r23,36(sp)
 1006d3c:	dd800815 	stw	r22,32(sp)
 1006d40:	dd400715 	stw	r21,28(sp)
 1006d44:	dd000615 	stw	r20,24(sp)
 1006d48:	dc800415 	stw	r18,16(sp)
 1006d4c:	dc400315 	stw	r17,12(sp)
 1006d50:	dfc00a15 	stw	ra,40(sp)
 1006d54:	3023883a 	mov	r17,r6
 1006d58:	382d883a 	mov	r22,r7
 1006d5c:	ddc00b17 	ldw	r23,44(sp)
 1006d60:	1006c640 	call	1006c64 <_Balloc>
 1006d64:	1025883a 	mov	r18,r2
 1006d68:	00a00034 	movhi	r2,32768
 1006d6c:	10bfffc4 	addi	r2,r2,-1
 1006d70:	8888703a 	and	r4,r17,r2
 1006d74:	202ad53a 	srli	r21,r4,20
 1006d78:	00800434 	movhi	r2,16
 1006d7c:	10bfffc4 	addi	r2,r2,-1
 1006d80:	8886703a 	and	r3,r17,r2
 1006d84:	a829003a 	cmpeq	r20,r21,zero
 1006d88:	800b883a 	mov	r5,r16
 1006d8c:	d8c00115 	stw	r3,4(sp)
 1006d90:	94000504 	addi	r16,r18,20
 1006d94:	a000021e 	bne	r20,zero,1006da0 <__d2b+0x80>
 1006d98:	18c00434 	orhi	r3,r3,16
 1006d9c:	d8c00115 	stw	r3,4(sp)
 1006da0:	28002726 	beq	r5,zero,1006e40 <__d2b+0x120>
 1006da4:	d809883a 	mov	r4,sp
 1006da8:	d9400015 	stw	r5,0(sp)
 1006dac:	100677c0 	call	100677c <__lo0bits>
 1006db0:	100d883a 	mov	r6,r2
 1006db4:	10003526 	beq	r2,zero,1006e8c <__d2b+0x16c>
 1006db8:	d8c00117 	ldw	r3,4(sp)
 1006dbc:	00800804 	movi	r2,32
 1006dc0:	1185c83a 	sub	r2,r2,r6
 1006dc4:	d9000017 	ldw	r4,0(sp)
 1006dc8:	1886983a 	sll	r3,r3,r2
 1006dcc:	1906b03a 	or	r3,r3,r4
 1006dd0:	90c00515 	stw	r3,20(r18)
 1006dd4:	d8c00117 	ldw	r3,4(sp)
 1006dd8:	1986d83a 	srl	r3,r3,r6
 1006ddc:	d8c00115 	stw	r3,4(sp)
 1006de0:	180b003a 	cmpeq	r5,r3,zero
 1006de4:	00800084 	movi	r2,2
 1006de8:	114bc83a 	sub	r5,r2,r5
 1006dec:	80c00115 	stw	r3,4(r16)
 1006df0:	91400415 	stw	r5,16(r18)
 1006df4:	a0001a1e 	bne	r20,zero,1006e60 <__d2b+0x140>
 1006df8:	3545883a 	add	r2,r6,r21
 1006dfc:	10bef344 	addi	r2,r2,-1075
 1006e00:	00c00d44 	movi	r3,53
 1006e04:	b0800015 	stw	r2,0(r22)
 1006e08:	1987c83a 	sub	r3,r3,r6
 1006e0c:	b8c00015 	stw	r3,0(r23)
 1006e10:	9005883a 	mov	r2,r18
 1006e14:	dfc00a17 	ldw	ra,40(sp)
 1006e18:	ddc00917 	ldw	r23,36(sp)
 1006e1c:	dd800817 	ldw	r22,32(sp)
 1006e20:	dd400717 	ldw	r21,28(sp)
 1006e24:	dd000617 	ldw	r20,24(sp)
 1006e28:	dcc00517 	ldw	r19,20(sp)
 1006e2c:	dc800417 	ldw	r18,16(sp)
 1006e30:	dc400317 	ldw	r17,12(sp)
 1006e34:	dc000217 	ldw	r16,8(sp)
 1006e38:	dec00b04 	addi	sp,sp,44
 1006e3c:	f800283a 	ret
 1006e40:	d9000104 	addi	r4,sp,4
 1006e44:	100677c0 	call	100677c <__lo0bits>
 1006e48:	11800804 	addi	r6,r2,32
 1006e4c:	d8800117 	ldw	r2,4(sp)
 1006e50:	94c00415 	stw	r19,16(r18)
 1006e54:	980b883a 	mov	r5,r19
 1006e58:	90800515 	stw	r2,20(r18)
 1006e5c:	a03fe626 	beq	r20,zero,1006df8 <__d2b+0xd8>
 1006e60:	2945883a 	add	r2,r5,r5
 1006e64:	1085883a 	add	r2,r2,r2
 1006e68:	1405883a 	add	r2,r2,r16
 1006e6c:	113fff17 	ldw	r4,-4(r2)
 1006e70:	30fef384 	addi	r3,r6,-1074
 1006e74:	2820917a 	slli	r16,r5,5
 1006e78:	b0c00015 	stw	r3,0(r22)
 1006e7c:	100670c0 	call	100670c <__hi0bits>
 1006e80:	80a1c83a 	sub	r16,r16,r2
 1006e84:	bc000015 	stw	r16,0(r23)
 1006e88:	003fe106 	br	1006e10 <__d2b+0xf0>
 1006e8c:	d8800017 	ldw	r2,0(sp)
 1006e90:	90800515 	stw	r2,20(r18)
 1006e94:	d8c00117 	ldw	r3,4(sp)
 1006e98:	003fd106 	br	1006de0 <__d2b+0xc0>

01006e9c <__mdiff>:
 1006e9c:	defffb04 	addi	sp,sp,-20
 1006ea0:	dc000015 	stw	r16,0(sp)
 1006ea4:	2821883a 	mov	r16,r5
 1006ea8:	dc800215 	stw	r18,8(sp)
 1006eac:	300b883a 	mov	r5,r6
 1006eb0:	2025883a 	mov	r18,r4
 1006eb4:	8009883a 	mov	r4,r16
 1006eb8:	dc400115 	stw	r17,4(sp)
 1006ebc:	dfc00415 	stw	ra,16(sp)
 1006ec0:	dcc00315 	stw	r19,12(sp)
 1006ec4:	3023883a 	mov	r17,r6
 1006ec8:	10068400 	call	1006840 <__mcmp>
 1006ecc:	10004226 	beq	r2,zero,1006fd8 <__mdiff+0x13c>
 1006ed0:	10005016 	blt	r2,zero,1007014 <__mdiff+0x178>
 1006ed4:	0027883a 	mov	r19,zero
 1006ed8:	81400117 	ldw	r5,4(r16)
 1006edc:	9009883a 	mov	r4,r18
 1006ee0:	1006c640 	call	1006c64 <_Balloc>
 1006ee4:	1019883a 	mov	r12,r2
 1006ee8:	82800417 	ldw	r10,16(r16)
 1006eec:	88800417 	ldw	r2,16(r17)
 1006ef0:	81800504 	addi	r6,r16,20
 1006ef4:	5287883a 	add	r3,r10,r10
 1006ef8:	1085883a 	add	r2,r2,r2
 1006efc:	18c7883a 	add	r3,r3,r3
 1006f00:	1085883a 	add	r2,r2,r2
 1006f04:	8a000504 	addi	r8,r17,20
 1006f08:	64c00315 	stw	r19,12(r12)
 1006f0c:	30db883a 	add	r13,r6,r3
 1006f10:	4097883a 	add	r11,r8,r2
 1006f14:	61c00504 	addi	r7,r12,20
 1006f18:	0013883a 	mov	r9,zero
 1006f1c:	31000017 	ldw	r4,0(r6)
 1006f20:	41400017 	ldw	r5,0(r8)
 1006f24:	42000104 	addi	r8,r8,4
 1006f28:	20bfffcc 	andi	r2,r4,65535
 1006f2c:	28ffffcc 	andi	r3,r5,65535
 1006f30:	10c5c83a 	sub	r2,r2,r3
 1006f34:	1245883a 	add	r2,r2,r9
 1006f38:	2008d43a 	srli	r4,r4,16
 1006f3c:	280ad43a 	srli	r5,r5,16
 1006f40:	1007d43a 	srai	r3,r2,16
 1006f44:	3880000d 	sth	r2,0(r7)
 1006f48:	2149c83a 	sub	r4,r4,r5
 1006f4c:	20c9883a 	add	r4,r4,r3
 1006f50:	3900008d 	sth	r4,2(r7)
 1006f54:	31800104 	addi	r6,r6,4
 1006f58:	39c00104 	addi	r7,r7,4
 1006f5c:	2013d43a 	srai	r9,r4,16
 1006f60:	42ffee36 	bltu	r8,r11,1006f1c <__mdiff+0x80>
 1006f64:	33400c2e 	bgeu	r6,r13,1006f98 <__mdiff+0xfc>
 1006f68:	30800017 	ldw	r2,0(r6)
 1006f6c:	31800104 	addi	r6,r6,4
 1006f70:	10ffffcc 	andi	r3,r2,65535
 1006f74:	1a47883a 	add	r3,r3,r9
 1006f78:	1004d43a 	srli	r2,r2,16
 1006f7c:	1809d43a 	srai	r4,r3,16
 1006f80:	38c0000d 	sth	r3,0(r7)
 1006f84:	1105883a 	add	r2,r2,r4
 1006f88:	3880008d 	sth	r2,2(r7)
 1006f8c:	1013d43a 	srai	r9,r2,16
 1006f90:	39c00104 	addi	r7,r7,4
 1006f94:	337ff436 	bltu	r6,r13,1006f68 <__mdiff+0xcc>
 1006f98:	38bfff17 	ldw	r2,-4(r7)
 1006f9c:	38ffff04 	addi	r3,r7,-4
 1006fa0:	1000041e 	bne	r2,zero,1006fb4 <__mdiff+0x118>
 1006fa4:	18ffff04 	addi	r3,r3,-4
 1006fa8:	18800017 	ldw	r2,0(r3)
 1006fac:	52bfffc4 	addi	r10,r10,-1
 1006fb0:	103ffc26 	beq	r2,zero,1006fa4 <__mdiff+0x108>
 1006fb4:	6005883a 	mov	r2,r12
 1006fb8:	62800415 	stw	r10,16(r12)
 1006fbc:	dfc00417 	ldw	ra,16(sp)
 1006fc0:	dcc00317 	ldw	r19,12(sp)
 1006fc4:	dc800217 	ldw	r18,8(sp)
 1006fc8:	dc400117 	ldw	r17,4(sp)
 1006fcc:	dc000017 	ldw	r16,0(sp)
 1006fd0:	dec00504 	addi	sp,sp,20
 1006fd4:	f800283a 	ret
 1006fd8:	9009883a 	mov	r4,r18
 1006fdc:	000b883a 	mov	r5,zero
 1006fe0:	1006c640 	call	1006c64 <_Balloc>
 1006fe4:	1019883a 	mov	r12,r2
 1006fe8:	00800044 	movi	r2,1
 1006fec:	60800415 	stw	r2,16(r12)
 1006ff0:	6005883a 	mov	r2,r12
 1006ff4:	60000515 	stw	zero,20(r12)
 1006ff8:	dfc00417 	ldw	ra,16(sp)
 1006ffc:	dcc00317 	ldw	r19,12(sp)
 1007000:	dc800217 	ldw	r18,8(sp)
 1007004:	dc400117 	ldw	r17,4(sp)
 1007008:	dc000017 	ldw	r16,0(sp)
 100700c:	dec00504 	addi	sp,sp,20
 1007010:	f800283a 	ret
 1007014:	880d883a 	mov	r6,r17
 1007018:	04c00044 	movi	r19,1
 100701c:	8023883a 	mov	r17,r16
 1007020:	3021883a 	mov	r16,r6
 1007024:	003fac06 	br	1006ed8 <__mdiff+0x3c>

01007028 <__lshift>:
 1007028:	defff904 	addi	sp,sp,-28
 100702c:	28800417 	ldw	r2,16(r5)
 1007030:	dc000015 	stw	r16,0(sp)
 1007034:	3021d17a 	srai	r16,r6,5
 1007038:	28c00217 	ldw	r3,8(r5)
 100703c:	10800044 	addi	r2,r2,1
 1007040:	dc400115 	stw	r17,4(sp)
 1007044:	80a3883a 	add	r17,r16,r2
 1007048:	dd400515 	stw	r21,20(sp)
 100704c:	dd000415 	stw	r20,16(sp)
 1007050:	dc800215 	stw	r18,8(sp)
 1007054:	dfc00615 	stw	ra,24(sp)
 1007058:	2825883a 	mov	r18,r5
 100705c:	dcc00315 	stw	r19,12(sp)
 1007060:	3029883a 	mov	r20,r6
 1007064:	202b883a 	mov	r21,r4
 1007068:	29400117 	ldw	r5,4(r5)
 100706c:	1c40030e 	bge	r3,r17,100707c <__lshift+0x54>
 1007070:	18c7883a 	add	r3,r3,r3
 1007074:	29400044 	addi	r5,r5,1
 1007078:	1c7ffd16 	blt	r3,r17,1007070 <__lshift+0x48>
 100707c:	a809883a 	mov	r4,r21
 1007080:	1006c640 	call	1006c64 <_Balloc>
 1007084:	1027883a 	mov	r19,r2
 1007088:	11400504 	addi	r5,r2,20
 100708c:	0400090e 	bge	zero,r16,10070b4 <__lshift+0x8c>
 1007090:	2805883a 	mov	r2,r5
 1007094:	0007883a 	mov	r3,zero
 1007098:	18c00044 	addi	r3,r3,1
 100709c:	10000015 	stw	zero,0(r2)
 10070a0:	10800104 	addi	r2,r2,4
 10070a4:	80fffc1e 	bne	r16,r3,1007098 <__lshift+0x70>
 10070a8:	8405883a 	add	r2,r16,r16
 10070ac:	1085883a 	add	r2,r2,r2
 10070b0:	288b883a 	add	r5,r5,r2
 10070b4:	90800417 	ldw	r2,16(r18)
 10070b8:	91000504 	addi	r4,r18,20
 10070bc:	a18007cc 	andi	r6,r20,31
 10070c0:	1085883a 	add	r2,r2,r2
 10070c4:	1085883a 	add	r2,r2,r2
 10070c8:	208f883a 	add	r7,r4,r2
 10070cc:	30001e26 	beq	r6,zero,1007148 <__lshift+0x120>
 10070d0:	00800804 	movi	r2,32
 10070d4:	1191c83a 	sub	r8,r2,r6
 10070d8:	0007883a 	mov	r3,zero
 10070dc:	20800017 	ldw	r2,0(r4)
 10070e0:	1184983a 	sll	r2,r2,r6
 10070e4:	1884b03a 	or	r2,r3,r2
 10070e8:	28800015 	stw	r2,0(r5)
 10070ec:	20c00017 	ldw	r3,0(r4)
 10070f0:	21000104 	addi	r4,r4,4
 10070f4:	29400104 	addi	r5,r5,4
 10070f8:	1a06d83a 	srl	r3,r3,r8
 10070fc:	21fff736 	bltu	r4,r7,10070dc <__lshift+0xb4>
 1007100:	28c00015 	stw	r3,0(r5)
 1007104:	18000126 	beq	r3,zero,100710c <__lshift+0xe4>
 1007108:	8c400044 	addi	r17,r17,1
 100710c:	88bfffc4 	addi	r2,r17,-1
 1007110:	98800415 	stw	r2,16(r19)
 1007114:	a809883a 	mov	r4,r21
 1007118:	900b883a 	mov	r5,r18
 100711c:	10066e40 	call	10066e4 <_Bfree>
 1007120:	9805883a 	mov	r2,r19
 1007124:	dfc00617 	ldw	ra,24(sp)
 1007128:	dd400517 	ldw	r21,20(sp)
 100712c:	dd000417 	ldw	r20,16(sp)
 1007130:	dcc00317 	ldw	r19,12(sp)
 1007134:	dc800217 	ldw	r18,8(sp)
 1007138:	dc400117 	ldw	r17,4(sp)
 100713c:	dc000017 	ldw	r16,0(sp)
 1007140:	dec00704 	addi	sp,sp,28
 1007144:	f800283a 	ret
 1007148:	20800017 	ldw	r2,0(r4)
 100714c:	21000104 	addi	r4,r4,4
 1007150:	28800015 	stw	r2,0(r5)
 1007154:	29400104 	addi	r5,r5,4
 1007158:	21ffec2e 	bgeu	r4,r7,100710c <__lshift+0xe4>
 100715c:	20800017 	ldw	r2,0(r4)
 1007160:	21000104 	addi	r4,r4,4
 1007164:	28800015 	stw	r2,0(r5)
 1007168:	29400104 	addi	r5,r5,4
 100716c:	21fff636 	bltu	r4,r7,1007148 <__lshift+0x120>
 1007170:	003fe606 	br	100710c <__lshift+0xe4>

01007174 <__multiply>:
 1007174:	defff004 	addi	sp,sp,-64
 1007178:	dc800815 	stw	r18,32(sp)
 100717c:	dc400715 	stw	r17,28(sp)
 1007180:	2c800417 	ldw	r18,16(r5)
 1007184:	34400417 	ldw	r17,16(r6)
 1007188:	dcc00915 	stw	r19,36(sp)
 100718c:	dc000615 	stw	r16,24(sp)
 1007190:	dfc00f15 	stw	ra,60(sp)
 1007194:	df000e15 	stw	fp,56(sp)
 1007198:	ddc00d15 	stw	r23,52(sp)
 100719c:	dd800c15 	stw	r22,48(sp)
 10071a0:	dd400b15 	stw	r21,44(sp)
 10071a4:	dd000a15 	stw	r20,40(sp)
 10071a8:	2821883a 	mov	r16,r5
 10071ac:	3027883a 	mov	r19,r6
 10071b0:	9440040e 	bge	r18,r17,10071c4 <__multiply+0x50>
 10071b4:	8825883a 	mov	r18,r17
 10071b8:	2c400417 	ldw	r17,16(r5)
 10071bc:	2827883a 	mov	r19,r5
 10071c0:	3021883a 	mov	r16,r6
 10071c4:	80800217 	ldw	r2,8(r16)
 10071c8:	9447883a 	add	r3,r18,r17
 10071cc:	d8c00415 	stw	r3,16(sp)
 10071d0:	81400117 	ldw	r5,4(r16)
 10071d4:	10c0010e 	bge	r2,r3,10071dc <__multiply+0x68>
 10071d8:	29400044 	addi	r5,r5,1
 10071dc:	1006c640 	call	1006c64 <_Balloc>
 10071e0:	d8800515 	stw	r2,20(sp)
 10071e4:	d9000417 	ldw	r4,16(sp)
 10071e8:	d8c00517 	ldw	r3,20(sp)
 10071ec:	2105883a 	add	r2,r4,r4
 10071f0:	1085883a 	add	r2,r2,r2
 10071f4:	19000504 	addi	r4,r3,20
 10071f8:	2085883a 	add	r2,r4,r2
 10071fc:	d8800315 	stw	r2,12(sp)
 1007200:	2080052e 	bgeu	r4,r2,1007218 <__multiply+0xa4>
 1007204:	2005883a 	mov	r2,r4
 1007208:	d8c00317 	ldw	r3,12(sp)
 100720c:	10000015 	stw	zero,0(r2)
 1007210:	10800104 	addi	r2,r2,4
 1007214:	10fffc36 	bltu	r2,r3,1007208 <__multiply+0x94>
 1007218:	8c45883a 	add	r2,r17,r17
 100721c:	9487883a 	add	r3,r18,r18
 1007220:	9dc00504 	addi	r23,r19,20
 1007224:	1085883a 	add	r2,r2,r2
 1007228:	84000504 	addi	r16,r16,20
 100722c:	18c7883a 	add	r3,r3,r3
 1007230:	b885883a 	add	r2,r23,r2
 1007234:	dc000015 	stw	r16,0(sp)
 1007238:	d8800215 	stw	r2,8(sp)
 100723c:	80f9883a 	add	fp,r16,r3
 1007240:	b880432e 	bgeu	r23,r2,1007350 <__multiply+0x1dc>
 1007244:	d9000115 	stw	r4,4(sp)
 1007248:	b9000017 	ldw	r4,0(r23)
 100724c:	253fffcc 	andi	r20,r4,65535
 1007250:	a0001a26 	beq	r20,zero,10072bc <__multiply+0x148>
 1007254:	dcc00017 	ldw	r19,0(sp)
 1007258:	dc800117 	ldw	r18,4(sp)
 100725c:	002b883a 	mov	r21,zero
 1007260:	9c400017 	ldw	r17,0(r19)
 1007264:	94000017 	ldw	r16,0(r18)
 1007268:	a009883a 	mov	r4,r20
 100726c:	897fffcc 	andi	r5,r17,65535
 1007270:	1000a8c0 	call	1000a8c <__mulsi3>
 1007274:	880ad43a 	srli	r5,r17,16
 1007278:	80ffffcc 	andi	r3,r16,65535
 100727c:	a8c7883a 	add	r3,r21,r3
 1007280:	a009883a 	mov	r4,r20
 1007284:	10e3883a 	add	r17,r2,r3
 1007288:	8020d43a 	srli	r16,r16,16
 100728c:	1000a8c0 	call	1000a8c <__mulsi3>
 1007290:	8806d43a 	srli	r3,r17,16
 1007294:	1405883a 	add	r2,r2,r16
 1007298:	9cc00104 	addi	r19,r19,4
 100729c:	1887883a 	add	r3,r3,r2
 10072a0:	90c0008d 	sth	r3,2(r18)
 10072a4:	9440000d 	sth	r17,0(r18)
 10072a8:	182ad43a 	srli	r21,r3,16
 10072ac:	94800104 	addi	r18,r18,4
 10072b0:	9f3feb36 	bltu	r19,fp,1007260 <__multiply+0xec>
 10072b4:	95400015 	stw	r21,0(r18)
 10072b8:	b9000017 	ldw	r4,0(r23)
 10072bc:	202ad43a 	srli	r21,r4,16
 10072c0:	a8001c26 	beq	r21,zero,1007334 <__multiply+0x1c0>
 10072c4:	d9000117 	ldw	r4,4(sp)
 10072c8:	dd000017 	ldw	r20,0(sp)
 10072cc:	002d883a 	mov	r22,zero
 10072d0:	24c00017 	ldw	r19,0(r4)
 10072d4:	2025883a 	mov	r18,r4
 10072d8:	9823883a 	mov	r17,r19
 10072dc:	a4000017 	ldw	r16,0(r20)
 10072e0:	a809883a 	mov	r4,r21
 10072e4:	a5000104 	addi	r20,r20,4
 10072e8:	817fffcc 	andi	r5,r16,65535
 10072ec:	1000a8c0 	call	1000a8c <__mulsi3>
 10072f0:	8806d43a 	srli	r3,r17,16
 10072f4:	800ad43a 	srli	r5,r16,16
 10072f8:	94c0000d 	sth	r19,0(r18)
 10072fc:	b0c7883a 	add	r3,r22,r3
 1007300:	10e1883a 	add	r16,r2,r3
 1007304:	9400008d 	sth	r16,2(r18)
 1007308:	a809883a 	mov	r4,r21
 100730c:	94800104 	addi	r18,r18,4
 1007310:	1000a8c0 	call	1000a8c <__mulsi3>
 1007314:	94400017 	ldw	r17,0(r18)
 1007318:	8020d43a 	srli	r16,r16,16
 100731c:	88ffffcc 	andi	r3,r17,65535
 1007320:	10c5883a 	add	r2,r2,r3
 1007324:	80a7883a 	add	r19,r16,r2
 1007328:	982cd43a 	srli	r22,r19,16
 100732c:	a73feb36 	bltu	r20,fp,10072dc <__multiply+0x168>
 1007330:	94c00015 	stw	r19,0(r18)
 1007334:	d8800217 	ldw	r2,8(sp)
 1007338:	bdc00104 	addi	r23,r23,4
 100733c:	b880042e 	bgeu	r23,r2,1007350 <__multiply+0x1dc>
 1007340:	d8c00117 	ldw	r3,4(sp)
 1007344:	18c00104 	addi	r3,r3,4
 1007348:	d8c00115 	stw	r3,4(sp)
 100734c:	003fbe06 	br	1007248 <__multiply+0xd4>
 1007350:	d9000417 	ldw	r4,16(sp)
 1007354:	01000c0e 	bge	zero,r4,1007388 <__multiply+0x214>
 1007358:	d8c00317 	ldw	r3,12(sp)
 100735c:	18bfff17 	ldw	r2,-4(r3)
 1007360:	18ffff04 	addi	r3,r3,-4
 1007364:	10000326 	beq	r2,zero,1007374 <__multiply+0x200>
 1007368:	00000706 	br	1007388 <__multiply+0x214>
 100736c:	18800017 	ldw	r2,0(r3)
 1007370:	1000051e 	bne	r2,zero,1007388 <__multiply+0x214>
 1007374:	d9000417 	ldw	r4,16(sp)
 1007378:	18ffff04 	addi	r3,r3,-4
 100737c:	213fffc4 	addi	r4,r4,-1
 1007380:	d9000415 	stw	r4,16(sp)
 1007384:	203ff91e 	bne	r4,zero,100736c <__multiply+0x1f8>
 1007388:	d8800417 	ldw	r2,16(sp)
 100738c:	d8c00517 	ldw	r3,20(sp)
 1007390:	18800415 	stw	r2,16(r3)
 1007394:	1805883a 	mov	r2,r3
 1007398:	dfc00f17 	ldw	ra,60(sp)
 100739c:	df000e17 	ldw	fp,56(sp)
 10073a0:	ddc00d17 	ldw	r23,52(sp)
 10073a4:	dd800c17 	ldw	r22,48(sp)
 10073a8:	dd400b17 	ldw	r21,44(sp)
 10073ac:	dd000a17 	ldw	r20,40(sp)
 10073b0:	dcc00917 	ldw	r19,36(sp)
 10073b4:	dc800817 	ldw	r18,32(sp)
 10073b8:	dc400717 	ldw	r17,28(sp)
 10073bc:	dc000617 	ldw	r16,24(sp)
 10073c0:	dec01004 	addi	sp,sp,64
 10073c4:	f800283a 	ret

010073c8 <__i2b>:
 10073c8:	defffd04 	addi	sp,sp,-12
 10073cc:	dc000015 	stw	r16,0(sp)
 10073d0:	04000044 	movi	r16,1
 10073d4:	dc800115 	stw	r18,4(sp)
 10073d8:	2825883a 	mov	r18,r5
 10073dc:	800b883a 	mov	r5,r16
 10073e0:	dfc00215 	stw	ra,8(sp)
 10073e4:	1006c640 	call	1006c64 <_Balloc>
 10073e8:	14000415 	stw	r16,16(r2)
 10073ec:	14800515 	stw	r18,20(r2)
 10073f0:	dfc00217 	ldw	ra,8(sp)
 10073f4:	dc800117 	ldw	r18,4(sp)
 10073f8:	dc000017 	ldw	r16,0(sp)
 10073fc:	dec00304 	addi	sp,sp,12
 1007400:	f800283a 	ret

01007404 <__multadd>:
 1007404:	defff604 	addi	sp,sp,-40
 1007408:	dd800615 	stw	r22,24(sp)
 100740c:	2d800417 	ldw	r22,16(r5)
 1007410:	df000815 	stw	fp,32(sp)
 1007414:	ddc00715 	stw	r23,28(sp)
 1007418:	dd400515 	stw	r21,20(sp)
 100741c:	dd000415 	stw	r20,16(sp)
 1007420:	dcc00315 	stw	r19,12(sp)
 1007424:	dc800215 	stw	r18,8(sp)
 1007428:	dfc00915 	stw	ra,36(sp)
 100742c:	dc400115 	stw	r17,4(sp)
 1007430:	dc000015 	stw	r16,0(sp)
 1007434:	282f883a 	mov	r23,r5
 1007438:	2039883a 	mov	fp,r4
 100743c:	302b883a 	mov	r21,r6
 1007440:	3829883a 	mov	r20,r7
 1007444:	2c800504 	addi	r18,r5,20
 1007448:	0027883a 	mov	r19,zero
 100744c:	94400017 	ldw	r17,0(r18)
 1007450:	a80b883a 	mov	r5,r21
 1007454:	9cc00044 	addi	r19,r19,1
 1007458:	893fffcc 	andi	r4,r17,65535
 100745c:	1000a8c0 	call	1000a8c <__mulsi3>
 1007460:	8808d43a 	srli	r4,r17,16
 1007464:	1521883a 	add	r16,r2,r20
 1007468:	a80b883a 	mov	r5,r21
 100746c:	1000a8c0 	call	1000a8c <__mulsi3>
 1007470:	8008d43a 	srli	r4,r16,16
 1007474:	843fffcc 	andi	r16,r16,65535
 1007478:	1105883a 	add	r2,r2,r4
 100747c:	1006943a 	slli	r3,r2,16
 1007480:	1028d43a 	srli	r20,r2,16
 1007484:	1c07883a 	add	r3,r3,r16
 1007488:	90c00015 	stw	r3,0(r18)
 100748c:	94800104 	addi	r18,r18,4
 1007490:	9dbfee16 	blt	r19,r22,100744c <__multadd+0x48>
 1007494:	a0000826 	beq	r20,zero,10074b8 <__multadd+0xb4>
 1007498:	b8800217 	ldw	r2,8(r23)
 100749c:	b080130e 	bge	r22,r2,10074ec <__multadd+0xe8>
 10074a0:	b585883a 	add	r2,r22,r22
 10074a4:	1085883a 	add	r2,r2,r2
 10074a8:	15c5883a 	add	r2,r2,r23
 10074ac:	b0c00044 	addi	r3,r22,1
 10074b0:	15000515 	stw	r20,20(r2)
 10074b4:	b8c00415 	stw	r3,16(r23)
 10074b8:	b805883a 	mov	r2,r23
 10074bc:	dfc00917 	ldw	ra,36(sp)
 10074c0:	df000817 	ldw	fp,32(sp)
 10074c4:	ddc00717 	ldw	r23,28(sp)
 10074c8:	dd800617 	ldw	r22,24(sp)
 10074cc:	dd400517 	ldw	r21,20(sp)
 10074d0:	dd000417 	ldw	r20,16(sp)
 10074d4:	dcc00317 	ldw	r19,12(sp)
 10074d8:	dc800217 	ldw	r18,8(sp)
 10074dc:	dc400117 	ldw	r17,4(sp)
 10074e0:	dc000017 	ldw	r16,0(sp)
 10074e4:	dec00a04 	addi	sp,sp,40
 10074e8:	f800283a 	ret
 10074ec:	b9400117 	ldw	r5,4(r23)
 10074f0:	e009883a 	mov	r4,fp
 10074f4:	29400044 	addi	r5,r5,1
 10074f8:	1006c640 	call	1006c64 <_Balloc>
 10074fc:	b9800417 	ldw	r6,16(r23)
 1007500:	b9400304 	addi	r5,r23,12
 1007504:	11000304 	addi	r4,r2,12
 1007508:	318d883a 	add	r6,r6,r6
 100750c:	318d883a 	add	r6,r6,r6
 1007510:	31800204 	addi	r6,r6,8
 1007514:	1023883a 	mov	r17,r2
 1007518:	10064cc0 	call	10064cc <memcpy>
 100751c:	b80b883a 	mov	r5,r23
 1007520:	e009883a 	mov	r4,fp
 1007524:	10066e40 	call	10066e4 <_Bfree>
 1007528:	882f883a 	mov	r23,r17
 100752c:	003fdc06 	br	10074a0 <__multadd+0x9c>

01007530 <__pow5mult>:
 1007530:	defffa04 	addi	sp,sp,-24
 1007534:	308000cc 	andi	r2,r6,3
 1007538:	dd000415 	stw	r20,16(sp)
 100753c:	dcc00315 	stw	r19,12(sp)
 1007540:	dc000015 	stw	r16,0(sp)
 1007544:	dfc00515 	stw	ra,20(sp)
 1007548:	dc800215 	stw	r18,8(sp)
 100754c:	dc400115 	stw	r17,4(sp)
 1007550:	3021883a 	mov	r16,r6
 1007554:	2027883a 	mov	r19,r4
 1007558:	2829883a 	mov	r20,r5
 100755c:	10002b1e 	bne	r2,zero,100760c <__pow5mult+0xdc>
 1007560:	8025d0ba 	srai	r18,r16,2
 1007564:	90001b26 	beq	r18,zero,10075d4 <__pow5mult+0xa4>
 1007568:	9c001217 	ldw	r16,72(r19)
 100756c:	8000081e 	bne	r16,zero,1007590 <__pow5mult+0x60>
 1007570:	00003006 	br	1007634 <__pow5mult+0x104>
 1007574:	800b883a 	mov	r5,r16
 1007578:	800d883a 	mov	r6,r16
 100757c:	9809883a 	mov	r4,r19
 1007580:	90001426 	beq	r18,zero,10075d4 <__pow5mult+0xa4>
 1007584:	80800017 	ldw	r2,0(r16)
 1007588:	10001b26 	beq	r2,zero,10075f8 <__pow5mult+0xc8>
 100758c:	1021883a 	mov	r16,r2
 1007590:	9080004c 	andi	r2,r18,1
 1007594:	1005003a 	cmpeq	r2,r2,zero
 1007598:	9025d07a 	srai	r18,r18,1
 100759c:	800d883a 	mov	r6,r16
 10075a0:	9809883a 	mov	r4,r19
 10075a4:	a00b883a 	mov	r5,r20
 10075a8:	103ff21e 	bne	r2,zero,1007574 <__pow5mult+0x44>
 10075ac:	10071740 	call	1007174 <__multiply>
 10075b0:	a00b883a 	mov	r5,r20
 10075b4:	9809883a 	mov	r4,r19
 10075b8:	1023883a 	mov	r17,r2
 10075bc:	10066e40 	call	10066e4 <_Bfree>
 10075c0:	8829883a 	mov	r20,r17
 10075c4:	800b883a 	mov	r5,r16
 10075c8:	800d883a 	mov	r6,r16
 10075cc:	9809883a 	mov	r4,r19
 10075d0:	903fec1e 	bne	r18,zero,1007584 <__pow5mult+0x54>
 10075d4:	a005883a 	mov	r2,r20
 10075d8:	dfc00517 	ldw	ra,20(sp)
 10075dc:	dd000417 	ldw	r20,16(sp)
 10075e0:	dcc00317 	ldw	r19,12(sp)
 10075e4:	dc800217 	ldw	r18,8(sp)
 10075e8:	dc400117 	ldw	r17,4(sp)
 10075ec:	dc000017 	ldw	r16,0(sp)
 10075f0:	dec00604 	addi	sp,sp,24
 10075f4:	f800283a 	ret
 10075f8:	10071740 	call	1007174 <__multiply>
 10075fc:	80800015 	stw	r2,0(r16)
 1007600:	1021883a 	mov	r16,r2
 1007604:	10000015 	stw	zero,0(r2)
 1007608:	003fe106 	br	1007590 <__pow5mult+0x60>
 100760c:	1085883a 	add	r2,r2,r2
 1007610:	00c04074 	movhi	r3,257
 1007614:	18f76f04 	addi	r3,r3,-8772
 1007618:	1085883a 	add	r2,r2,r2
 100761c:	10c5883a 	add	r2,r2,r3
 1007620:	11bfff17 	ldw	r6,-4(r2)
 1007624:	000f883a 	mov	r7,zero
 1007628:	10074040 	call	1007404 <__multadd>
 100762c:	1029883a 	mov	r20,r2
 1007630:	003fcb06 	br	1007560 <__pow5mult+0x30>
 1007634:	9809883a 	mov	r4,r19
 1007638:	01409c44 	movi	r5,625
 100763c:	10073c80 	call	10073c8 <__i2b>
 1007640:	98801215 	stw	r2,72(r19)
 1007644:	1021883a 	mov	r16,r2
 1007648:	10000015 	stw	zero,0(r2)
 100764c:	003fd006 	br	1007590 <__pow5mult+0x60>

01007650 <__s2b>:
 1007650:	defff904 	addi	sp,sp,-28
 1007654:	dcc00315 	stw	r19,12(sp)
 1007658:	dc800215 	stw	r18,8(sp)
 100765c:	2827883a 	mov	r19,r5
 1007660:	2025883a 	mov	r18,r4
 1007664:	01400244 	movi	r5,9
 1007668:	39000204 	addi	r4,r7,8
 100766c:	dd000415 	stw	r20,16(sp)
 1007670:	dc400115 	stw	r17,4(sp)
 1007674:	dfc00615 	stw	ra,24(sp)
 1007678:	dd400515 	stw	r21,20(sp)
 100767c:	dc000015 	stw	r16,0(sp)
 1007680:	3829883a 	mov	r20,r7
 1007684:	3023883a 	mov	r17,r6
 1007688:	100a5000 	call	100a500 <__divsi3>
 100768c:	00c00044 	movi	r3,1
 1007690:	1880350e 	bge	r3,r2,1007768 <__s2b+0x118>
 1007694:	000b883a 	mov	r5,zero
 1007698:	18c7883a 	add	r3,r3,r3
 100769c:	29400044 	addi	r5,r5,1
 10076a0:	18bffd16 	blt	r3,r2,1007698 <__s2b+0x48>
 10076a4:	9009883a 	mov	r4,r18
 10076a8:	1006c640 	call	1006c64 <_Balloc>
 10076ac:	1011883a 	mov	r8,r2
 10076b0:	d8800717 	ldw	r2,28(sp)
 10076b4:	00c00044 	movi	r3,1
 10076b8:	01800244 	movi	r6,9
 10076bc:	40800515 	stw	r2,20(r8)
 10076c0:	40c00415 	stw	r3,16(r8)
 10076c4:	3440260e 	bge	r6,r17,1007760 <__s2b+0x110>
 10076c8:	3021883a 	mov	r16,r6
 10076cc:	99ab883a 	add	r21,r19,r6
 10076d0:	9c05883a 	add	r2,r19,r16
 10076d4:	11c00007 	ldb	r7,0(r2)
 10076d8:	400b883a 	mov	r5,r8
 10076dc:	9009883a 	mov	r4,r18
 10076e0:	39fff404 	addi	r7,r7,-48
 10076e4:	01800284 	movi	r6,10
 10076e8:	10074040 	call	1007404 <__multadd>
 10076ec:	84000044 	addi	r16,r16,1
 10076f0:	1011883a 	mov	r8,r2
 10076f4:	8c3ff61e 	bne	r17,r16,10076d0 <__s2b+0x80>
 10076f8:	ac45883a 	add	r2,r21,r17
 10076fc:	117ffe04 	addi	r5,r2,-8
 1007700:	880d883a 	mov	r6,r17
 1007704:	35000c0e 	bge	r6,r20,1007738 <__s2b+0xe8>
 1007708:	a185c83a 	sub	r2,r20,r6
 100770c:	2821883a 	mov	r16,r5
 1007710:	28a3883a 	add	r17,r5,r2
 1007714:	81c00007 	ldb	r7,0(r16)
 1007718:	400b883a 	mov	r5,r8
 100771c:	9009883a 	mov	r4,r18
 1007720:	39fff404 	addi	r7,r7,-48
 1007724:	01800284 	movi	r6,10
 1007728:	10074040 	call	1007404 <__multadd>
 100772c:	84000044 	addi	r16,r16,1
 1007730:	1011883a 	mov	r8,r2
 1007734:	847ff71e 	bne	r16,r17,1007714 <__s2b+0xc4>
 1007738:	4005883a 	mov	r2,r8
 100773c:	dfc00617 	ldw	ra,24(sp)
 1007740:	dd400517 	ldw	r21,20(sp)
 1007744:	dd000417 	ldw	r20,16(sp)
 1007748:	dcc00317 	ldw	r19,12(sp)
 100774c:	dc800217 	ldw	r18,8(sp)
 1007750:	dc400117 	ldw	r17,4(sp)
 1007754:	dc000017 	ldw	r16,0(sp)
 1007758:	dec00704 	addi	sp,sp,28
 100775c:	f800283a 	ret
 1007760:	99400284 	addi	r5,r19,10
 1007764:	003fe706 	br	1007704 <__s2b+0xb4>
 1007768:	000b883a 	mov	r5,zero
 100776c:	003fcd06 	br	10076a4 <__s2b+0x54>

01007770 <_realloc_r>:
 1007770:	defff404 	addi	sp,sp,-48
 1007774:	dd800815 	stw	r22,32(sp)
 1007778:	dc800415 	stw	r18,16(sp)
 100777c:	dc400315 	stw	r17,12(sp)
 1007780:	dfc00b15 	stw	ra,44(sp)
 1007784:	df000a15 	stw	fp,40(sp)
 1007788:	ddc00915 	stw	r23,36(sp)
 100778c:	dd400715 	stw	r21,28(sp)
 1007790:	dd000615 	stw	r20,24(sp)
 1007794:	dcc00515 	stw	r19,20(sp)
 1007798:	dc000215 	stw	r16,8(sp)
 100779c:	2825883a 	mov	r18,r5
 10077a0:	3023883a 	mov	r17,r6
 10077a4:	202d883a 	mov	r22,r4
 10077a8:	2800c926 	beq	r5,zero,1007ad0 <_realloc_r+0x360>
 10077ac:	100b0800 	call	100b080 <__malloc_lock>
 10077b0:	943ffe04 	addi	r16,r18,-8
 10077b4:	88c002c4 	addi	r3,r17,11
 10077b8:	00800584 	movi	r2,22
 10077bc:	82000117 	ldw	r8,4(r16)
 10077c0:	10c01b2e 	bgeu	r2,r3,1007830 <_realloc_r+0xc0>
 10077c4:	00bffe04 	movi	r2,-8
 10077c8:	188e703a 	and	r7,r3,r2
 10077cc:	3839883a 	mov	fp,r7
 10077d0:	38001a16 	blt	r7,zero,100783c <_realloc_r+0xcc>
 10077d4:	e4401936 	bltu	fp,r17,100783c <_realloc_r+0xcc>
 10077d8:	013fff04 	movi	r4,-4
 10077dc:	4126703a 	and	r19,r8,r4
 10077e0:	99c02616 	blt	r19,r7,100787c <_realloc_r+0x10c>
 10077e4:	802b883a 	mov	r21,r16
 10077e8:	9829883a 	mov	r20,r19
 10077ec:	84000204 	addi	r16,r16,8
 10077f0:	a80f883a 	mov	r7,r21
 10077f4:	a70dc83a 	sub	r6,r20,fp
 10077f8:	008003c4 	movi	r2,15
 10077fc:	1180c136 	bltu	r2,r6,1007b04 <_realloc_r+0x394>
 1007800:	38800117 	ldw	r2,4(r7)
 1007804:	a549883a 	add	r4,r20,r21
 1007808:	1080004c 	andi	r2,r2,1
 100780c:	a084b03a 	or	r2,r20,r2
 1007810:	38800115 	stw	r2,4(r7)
 1007814:	20c00117 	ldw	r3,4(r4)
 1007818:	18c00054 	ori	r3,r3,1
 100781c:	20c00115 	stw	r3,4(r4)
 1007820:	b009883a 	mov	r4,r22
 1007824:	100b0a00 	call	100b0a0 <__malloc_unlock>
 1007828:	8023883a 	mov	r17,r16
 100782c:	00000606 	br	1007848 <_realloc_r+0xd8>
 1007830:	01c00404 	movi	r7,16
 1007834:	3839883a 	mov	fp,r7
 1007838:	e47fe72e 	bgeu	fp,r17,10077d8 <_realloc_r+0x68>
 100783c:	00800304 	movi	r2,12
 1007840:	0023883a 	mov	r17,zero
 1007844:	b0800015 	stw	r2,0(r22)
 1007848:	8805883a 	mov	r2,r17
 100784c:	dfc00b17 	ldw	ra,44(sp)
 1007850:	df000a17 	ldw	fp,40(sp)
 1007854:	ddc00917 	ldw	r23,36(sp)
 1007858:	dd800817 	ldw	r22,32(sp)
 100785c:	dd400717 	ldw	r21,28(sp)
 1007860:	dd000617 	ldw	r20,24(sp)
 1007864:	dcc00517 	ldw	r19,20(sp)
 1007868:	dc800417 	ldw	r18,16(sp)
 100786c:	dc400317 	ldw	r17,12(sp)
 1007870:	dc000217 	ldw	r16,8(sp)
 1007874:	dec00c04 	addi	sp,sp,48
 1007878:	f800283a 	ret
 100787c:	00804074 	movhi	r2,257
 1007880:	10b88d04 	addi	r2,r2,-7628
 1007884:	12400217 	ldw	r9,8(r2)
 1007888:	84cd883a 	add	r6,r16,r19
 100788c:	802b883a 	mov	r21,r16
 1007890:	3240b926 	beq	r6,r9,1007b78 <_realloc_r+0x408>
 1007894:	31400117 	ldw	r5,4(r6)
 1007898:	00bfff84 	movi	r2,-2
 100789c:	2884703a 	and	r2,r5,r2
 10078a0:	1185883a 	add	r2,r2,r6
 10078a4:	10c00117 	ldw	r3,4(r2)
 10078a8:	18c0004c 	andi	r3,r3,1
 10078ac:	1807003a 	cmpeq	r3,r3,zero
 10078b0:	1800a326 	beq	r3,zero,1007b40 <_realloc_r+0x3d0>
 10078b4:	2908703a 	and	r4,r5,r4
 10078b8:	9929883a 	add	r20,r19,r4
 10078bc:	a1c0a30e 	bge	r20,r7,1007b4c <_realloc_r+0x3dc>
 10078c0:	4080004c 	andi	r2,r8,1
 10078c4:	1000551e 	bne	r2,zero,1007a1c <_realloc_r+0x2ac>
 10078c8:	80800017 	ldw	r2,0(r16)
 10078cc:	80afc83a 	sub	r23,r16,r2
 10078d0:	b8c00117 	ldw	r3,4(r23)
 10078d4:	00bfff04 	movi	r2,-4
 10078d8:	1884703a 	and	r2,r3,r2
 10078dc:	30002e26 	beq	r6,zero,1007998 <_realloc_r+0x228>
 10078e0:	3240b926 	beq	r6,r9,1007bc8 <_realloc_r+0x458>
 10078e4:	98a9883a 	add	r20,r19,r2
 10078e8:	2509883a 	add	r4,r4,r20
 10078ec:	d9000015 	stw	r4,0(sp)
 10078f0:	21c02a16 	blt	r4,r7,100799c <_realloc_r+0x22c>
 10078f4:	30800317 	ldw	r2,12(r6)
 10078f8:	30c00217 	ldw	r3,8(r6)
 10078fc:	01400904 	movi	r5,36
 1007900:	99bfff04 	addi	r6,r19,-4
 1007904:	18800315 	stw	r2,12(r3)
 1007908:	10c00215 	stw	r3,8(r2)
 100790c:	b9000317 	ldw	r4,12(r23)
 1007910:	b8800217 	ldw	r2,8(r23)
 1007914:	b82b883a 	mov	r21,r23
 1007918:	bc000204 	addi	r16,r23,8
 100791c:	20800215 	stw	r2,8(r4)
 1007920:	11000315 	stw	r4,12(r2)
 1007924:	2980e436 	bltu	r5,r6,1007cb8 <_realloc_r+0x548>
 1007928:	008004c4 	movi	r2,19
 100792c:	9009883a 	mov	r4,r18
 1007930:	8011883a 	mov	r8,r16
 1007934:	11800f2e 	bgeu	r2,r6,1007974 <_realloc_r+0x204>
 1007938:	90800017 	ldw	r2,0(r18)
 100793c:	ba000404 	addi	r8,r23,16
 1007940:	91000204 	addi	r4,r18,8
 1007944:	b8800215 	stw	r2,8(r23)
 1007948:	90c00117 	ldw	r3,4(r18)
 100794c:	008006c4 	movi	r2,27
 1007950:	b8c00315 	stw	r3,12(r23)
 1007954:	1180072e 	bgeu	r2,r6,1007974 <_realloc_r+0x204>
 1007958:	90c00217 	ldw	r3,8(r18)
 100795c:	ba000604 	addi	r8,r23,24
 1007960:	91000404 	addi	r4,r18,16
 1007964:	b8c00415 	stw	r3,16(r23)
 1007968:	90800317 	ldw	r2,12(r18)
 100796c:	b8800515 	stw	r2,20(r23)
 1007970:	3140e726 	beq	r6,r5,1007d10 <_realloc_r+0x5a0>
 1007974:	20800017 	ldw	r2,0(r4)
 1007978:	dd000017 	ldw	r20,0(sp)
 100797c:	b80f883a 	mov	r7,r23
 1007980:	40800015 	stw	r2,0(r8)
 1007984:	20c00117 	ldw	r3,4(r4)
 1007988:	40c00115 	stw	r3,4(r8)
 100798c:	20800217 	ldw	r2,8(r4)
 1007990:	40800215 	stw	r2,8(r8)
 1007994:	003f9706 	br	10077f4 <_realloc_r+0x84>
 1007998:	98a9883a 	add	r20,r19,r2
 100799c:	a1c01f16 	blt	r20,r7,1007a1c <_realloc_r+0x2ac>
 10079a0:	b8c00317 	ldw	r3,12(r23)
 10079a4:	b8800217 	ldw	r2,8(r23)
 10079a8:	99bfff04 	addi	r6,r19,-4
 10079ac:	01400904 	movi	r5,36
 10079b0:	b82b883a 	mov	r21,r23
 10079b4:	18800215 	stw	r2,8(r3)
 10079b8:	10c00315 	stw	r3,12(r2)
 10079bc:	bc000204 	addi	r16,r23,8
 10079c0:	2980c336 	bltu	r5,r6,1007cd0 <_realloc_r+0x560>
 10079c4:	008004c4 	movi	r2,19
 10079c8:	9009883a 	mov	r4,r18
 10079cc:	8011883a 	mov	r8,r16
 10079d0:	11800f2e 	bgeu	r2,r6,1007a10 <_realloc_r+0x2a0>
 10079d4:	90800017 	ldw	r2,0(r18)
 10079d8:	ba000404 	addi	r8,r23,16
 10079dc:	91000204 	addi	r4,r18,8
 10079e0:	b8800215 	stw	r2,8(r23)
 10079e4:	90c00117 	ldw	r3,4(r18)
 10079e8:	008006c4 	movi	r2,27
 10079ec:	b8c00315 	stw	r3,12(r23)
 10079f0:	1180072e 	bgeu	r2,r6,1007a10 <_realloc_r+0x2a0>
 10079f4:	90c00217 	ldw	r3,8(r18)
 10079f8:	ba000604 	addi	r8,r23,24
 10079fc:	91000404 	addi	r4,r18,16
 1007a00:	b8c00415 	stw	r3,16(r23)
 1007a04:	90800317 	ldw	r2,12(r18)
 1007a08:	b8800515 	stw	r2,20(r23)
 1007a0c:	3140c726 	beq	r6,r5,1007d2c <_realloc_r+0x5bc>
 1007a10:	20800017 	ldw	r2,0(r4)
 1007a14:	b80f883a 	mov	r7,r23
 1007a18:	003fd906 	br	1007980 <_realloc_r+0x210>
 1007a1c:	880b883a 	mov	r5,r17
 1007a20:	b009883a 	mov	r4,r22
 1007a24:	1005ca80 	call	1005ca8 <_malloc_r>
 1007a28:	1023883a 	mov	r17,r2
 1007a2c:	10002526 	beq	r2,zero,1007ac4 <_realloc_r+0x354>
 1007a30:	80800117 	ldw	r2,4(r16)
 1007a34:	00ffff84 	movi	r3,-2
 1007a38:	893ffe04 	addi	r4,r17,-8
 1007a3c:	10c4703a 	and	r2,r2,r3
 1007a40:	8085883a 	add	r2,r16,r2
 1007a44:	20809526 	beq	r4,r2,1007c9c <_realloc_r+0x52c>
 1007a48:	99bfff04 	addi	r6,r19,-4
 1007a4c:	01c00904 	movi	r7,36
 1007a50:	39804536 	bltu	r7,r6,1007b68 <_realloc_r+0x3f8>
 1007a54:	008004c4 	movi	r2,19
 1007a58:	9009883a 	mov	r4,r18
 1007a5c:	880b883a 	mov	r5,r17
 1007a60:	11800f2e 	bgeu	r2,r6,1007aa0 <_realloc_r+0x330>
 1007a64:	90800017 	ldw	r2,0(r18)
 1007a68:	89400204 	addi	r5,r17,8
 1007a6c:	91000204 	addi	r4,r18,8
 1007a70:	88800015 	stw	r2,0(r17)
 1007a74:	90c00117 	ldw	r3,4(r18)
 1007a78:	008006c4 	movi	r2,27
 1007a7c:	88c00115 	stw	r3,4(r17)
 1007a80:	1180072e 	bgeu	r2,r6,1007aa0 <_realloc_r+0x330>
 1007a84:	90c00217 	ldw	r3,8(r18)
 1007a88:	89400404 	addi	r5,r17,16
 1007a8c:	91000404 	addi	r4,r18,16
 1007a90:	88c00215 	stw	r3,8(r17)
 1007a94:	90800317 	ldw	r2,12(r18)
 1007a98:	88800315 	stw	r2,12(r17)
 1007a9c:	31c09126 	beq	r6,r7,1007ce4 <_realloc_r+0x574>
 1007aa0:	20800017 	ldw	r2,0(r4)
 1007aa4:	28800015 	stw	r2,0(r5)
 1007aa8:	20c00117 	ldw	r3,4(r4)
 1007aac:	28c00115 	stw	r3,4(r5)
 1007ab0:	20800217 	ldw	r2,8(r4)
 1007ab4:	28800215 	stw	r2,8(r5)
 1007ab8:	900b883a 	mov	r5,r18
 1007abc:	b009883a 	mov	r4,r22
 1007ac0:	10050ac0 	call	10050ac <_free_r>
 1007ac4:	b009883a 	mov	r4,r22
 1007ac8:	100b0a00 	call	100b0a0 <__malloc_unlock>
 1007acc:	003f5e06 	br	1007848 <_realloc_r+0xd8>
 1007ad0:	300b883a 	mov	r5,r6
 1007ad4:	dfc00b17 	ldw	ra,44(sp)
 1007ad8:	df000a17 	ldw	fp,40(sp)
 1007adc:	ddc00917 	ldw	r23,36(sp)
 1007ae0:	dd800817 	ldw	r22,32(sp)
 1007ae4:	dd400717 	ldw	r21,28(sp)
 1007ae8:	dd000617 	ldw	r20,24(sp)
 1007aec:	dcc00517 	ldw	r19,20(sp)
 1007af0:	dc800417 	ldw	r18,16(sp)
 1007af4:	dc400317 	ldw	r17,12(sp)
 1007af8:	dc000217 	ldw	r16,8(sp)
 1007afc:	dec00c04 	addi	sp,sp,48
 1007b00:	1005ca81 	jmpi	1005ca8 <_malloc_r>
 1007b04:	38800117 	ldw	r2,4(r7)
 1007b08:	e54b883a 	add	r5,fp,r21
 1007b0c:	31000054 	ori	r4,r6,1
 1007b10:	1080004c 	andi	r2,r2,1
 1007b14:	1704b03a 	or	r2,r2,fp
 1007b18:	38800115 	stw	r2,4(r7)
 1007b1c:	29000115 	stw	r4,4(r5)
 1007b20:	2987883a 	add	r3,r5,r6
 1007b24:	18800117 	ldw	r2,4(r3)
 1007b28:	29400204 	addi	r5,r5,8
 1007b2c:	b009883a 	mov	r4,r22
 1007b30:	10800054 	ori	r2,r2,1
 1007b34:	18800115 	stw	r2,4(r3)
 1007b38:	10050ac0 	call	10050ac <_free_r>
 1007b3c:	003f3806 	br	1007820 <_realloc_r+0xb0>
 1007b40:	000d883a 	mov	r6,zero
 1007b44:	0009883a 	mov	r4,zero
 1007b48:	003f5d06 	br	10078c0 <_realloc_r+0x150>
 1007b4c:	30c00217 	ldw	r3,8(r6)
 1007b50:	30800317 	ldw	r2,12(r6)
 1007b54:	800f883a 	mov	r7,r16
 1007b58:	84000204 	addi	r16,r16,8
 1007b5c:	10c00215 	stw	r3,8(r2)
 1007b60:	18800315 	stw	r2,12(r3)
 1007b64:	003f2306 	br	10077f4 <_realloc_r+0x84>
 1007b68:	8809883a 	mov	r4,r17
 1007b6c:	900b883a 	mov	r5,r18
 1007b70:	100656c0 	call	100656c <memmove>
 1007b74:	003fd006 	br	1007ab8 <_realloc_r+0x348>
 1007b78:	30800117 	ldw	r2,4(r6)
 1007b7c:	e0c00404 	addi	r3,fp,16
 1007b80:	1108703a 	and	r4,r2,r4
 1007b84:	9905883a 	add	r2,r19,r4
 1007b88:	10ff4d16 	blt	r2,r3,10078c0 <_realloc_r+0x150>
 1007b8c:	1705c83a 	sub	r2,r2,fp
 1007b90:	870b883a 	add	r5,r16,fp
 1007b94:	10800054 	ori	r2,r2,1
 1007b98:	28800115 	stw	r2,4(r5)
 1007b9c:	80c00117 	ldw	r3,4(r16)
 1007ba0:	00804074 	movhi	r2,257
 1007ba4:	10b88d04 	addi	r2,r2,-7628
 1007ba8:	b009883a 	mov	r4,r22
 1007bac:	18c0004c 	andi	r3,r3,1
 1007bb0:	e0c6b03a 	or	r3,fp,r3
 1007bb4:	11400215 	stw	r5,8(r2)
 1007bb8:	80c00115 	stw	r3,4(r16)
 1007bbc:	100b0a00 	call	100b0a0 <__malloc_unlock>
 1007bc0:	84400204 	addi	r17,r16,8
 1007bc4:	003f2006 	br	1007848 <_realloc_r+0xd8>
 1007bc8:	98a9883a 	add	r20,r19,r2
 1007bcc:	2509883a 	add	r4,r4,r20
 1007bd0:	e0800404 	addi	r2,fp,16
 1007bd4:	d9000115 	stw	r4,4(sp)
 1007bd8:	20bf7016 	blt	r4,r2,100799c <_realloc_r+0x22c>
 1007bdc:	b8c00317 	ldw	r3,12(r23)
 1007be0:	b8800217 	ldw	r2,8(r23)
 1007be4:	99bfff04 	addi	r6,r19,-4
 1007be8:	01400904 	movi	r5,36
 1007bec:	18800215 	stw	r2,8(r3)
 1007bf0:	10c00315 	stw	r3,12(r2)
 1007bf4:	bc400204 	addi	r17,r23,8
 1007bf8:	29804136 	bltu	r5,r6,1007d00 <_realloc_r+0x590>
 1007bfc:	008004c4 	movi	r2,19
 1007c00:	9009883a 	mov	r4,r18
 1007c04:	880f883a 	mov	r7,r17
 1007c08:	11800f2e 	bgeu	r2,r6,1007c48 <_realloc_r+0x4d8>
 1007c0c:	90800017 	ldw	r2,0(r18)
 1007c10:	b9c00404 	addi	r7,r23,16
 1007c14:	91000204 	addi	r4,r18,8
 1007c18:	b8800215 	stw	r2,8(r23)
 1007c1c:	90c00117 	ldw	r3,4(r18)
 1007c20:	008006c4 	movi	r2,27
 1007c24:	b8c00315 	stw	r3,12(r23)
 1007c28:	1180072e 	bgeu	r2,r6,1007c48 <_realloc_r+0x4d8>
 1007c2c:	90c00217 	ldw	r3,8(r18)
 1007c30:	b9c00604 	addi	r7,r23,24
 1007c34:	91000404 	addi	r4,r18,16
 1007c38:	b8c00415 	stw	r3,16(r23)
 1007c3c:	90800317 	ldw	r2,12(r18)
 1007c40:	b8800515 	stw	r2,20(r23)
 1007c44:	31404026 	beq	r6,r5,1007d48 <_realloc_r+0x5d8>
 1007c48:	20800017 	ldw	r2,0(r4)
 1007c4c:	38800015 	stw	r2,0(r7)
 1007c50:	20c00117 	ldw	r3,4(r4)
 1007c54:	38c00115 	stw	r3,4(r7)
 1007c58:	20800217 	ldw	r2,8(r4)
 1007c5c:	38800215 	stw	r2,8(r7)
 1007c60:	d8c00117 	ldw	r3,4(sp)
 1007c64:	bf0b883a 	add	r5,r23,fp
 1007c68:	b009883a 	mov	r4,r22
 1007c6c:	1f05c83a 	sub	r2,r3,fp
 1007c70:	10800054 	ori	r2,r2,1
 1007c74:	28800115 	stw	r2,4(r5)
 1007c78:	b8c00117 	ldw	r3,4(r23)
 1007c7c:	00804074 	movhi	r2,257
 1007c80:	10b88d04 	addi	r2,r2,-7628
 1007c84:	11400215 	stw	r5,8(r2)
 1007c88:	18c0004c 	andi	r3,r3,1
 1007c8c:	e0c6b03a 	or	r3,fp,r3
 1007c90:	b8c00115 	stw	r3,4(r23)
 1007c94:	100b0a00 	call	100b0a0 <__malloc_unlock>
 1007c98:	003eeb06 	br	1007848 <_realloc_r+0xd8>
 1007c9c:	20800117 	ldw	r2,4(r4)
 1007ca0:	00ffff04 	movi	r3,-4
 1007ca4:	800f883a 	mov	r7,r16
 1007ca8:	10c4703a 	and	r2,r2,r3
 1007cac:	98a9883a 	add	r20,r19,r2
 1007cb0:	84000204 	addi	r16,r16,8
 1007cb4:	003ecf06 	br	10077f4 <_realloc_r+0x84>
 1007cb8:	900b883a 	mov	r5,r18
 1007cbc:	8009883a 	mov	r4,r16
 1007cc0:	100656c0 	call	100656c <memmove>
 1007cc4:	dd000017 	ldw	r20,0(sp)
 1007cc8:	b80f883a 	mov	r7,r23
 1007ccc:	003ec906 	br	10077f4 <_realloc_r+0x84>
 1007cd0:	900b883a 	mov	r5,r18
 1007cd4:	8009883a 	mov	r4,r16
 1007cd8:	100656c0 	call	100656c <memmove>
 1007cdc:	b80f883a 	mov	r7,r23
 1007ce0:	003ec406 	br	10077f4 <_realloc_r+0x84>
 1007ce4:	90c00417 	ldw	r3,16(r18)
 1007ce8:	89400604 	addi	r5,r17,24
 1007cec:	91000604 	addi	r4,r18,24
 1007cf0:	88c00415 	stw	r3,16(r17)
 1007cf4:	90800517 	ldw	r2,20(r18)
 1007cf8:	88800515 	stw	r2,20(r17)
 1007cfc:	003f6806 	br	1007aa0 <_realloc_r+0x330>
 1007d00:	900b883a 	mov	r5,r18
 1007d04:	8809883a 	mov	r4,r17
 1007d08:	100656c0 	call	100656c <memmove>
 1007d0c:	003fd406 	br	1007c60 <_realloc_r+0x4f0>
 1007d10:	90c00417 	ldw	r3,16(r18)
 1007d14:	91000604 	addi	r4,r18,24
 1007d18:	ba000804 	addi	r8,r23,32
 1007d1c:	b8c00615 	stw	r3,24(r23)
 1007d20:	90800517 	ldw	r2,20(r18)
 1007d24:	b8800715 	stw	r2,28(r23)
 1007d28:	003f1206 	br	1007974 <_realloc_r+0x204>
 1007d2c:	90c00417 	ldw	r3,16(r18)
 1007d30:	91000604 	addi	r4,r18,24
 1007d34:	ba000804 	addi	r8,r23,32
 1007d38:	b8c00615 	stw	r3,24(r23)
 1007d3c:	90800517 	ldw	r2,20(r18)
 1007d40:	b8800715 	stw	r2,28(r23)
 1007d44:	003f3206 	br	1007a10 <_realloc_r+0x2a0>
 1007d48:	90c00417 	ldw	r3,16(r18)
 1007d4c:	91000604 	addi	r4,r18,24
 1007d50:	b9c00804 	addi	r7,r23,32
 1007d54:	b8c00615 	stw	r3,24(r23)
 1007d58:	90800517 	ldw	r2,20(r18)
 1007d5c:	b8800715 	stw	r2,28(r23)
 1007d60:	003fb906 	br	1007c48 <_realloc_r+0x4d8>

01007d64 <__isinfd>:
 1007d64:	200d883a 	mov	r6,r4
 1007d68:	0109c83a 	sub	r4,zero,r4
 1007d6c:	2188b03a 	or	r4,r4,r6
 1007d70:	2008d7fa 	srli	r4,r4,31
 1007d74:	00a00034 	movhi	r2,32768
 1007d78:	10bfffc4 	addi	r2,r2,-1
 1007d7c:	1144703a 	and	r2,r2,r5
 1007d80:	2088b03a 	or	r4,r4,r2
 1007d84:	009ffc34 	movhi	r2,32752
 1007d88:	1105c83a 	sub	r2,r2,r4
 1007d8c:	0087c83a 	sub	r3,zero,r2
 1007d90:	10c4b03a 	or	r2,r2,r3
 1007d94:	1004d7fa 	srli	r2,r2,31
 1007d98:	00c00044 	movi	r3,1
 1007d9c:	1885c83a 	sub	r2,r3,r2
 1007da0:	f800283a 	ret

01007da4 <__isnand>:
 1007da4:	200d883a 	mov	r6,r4
 1007da8:	0109c83a 	sub	r4,zero,r4
 1007dac:	2188b03a 	or	r4,r4,r6
 1007db0:	2008d7fa 	srli	r4,r4,31
 1007db4:	00a00034 	movhi	r2,32768
 1007db8:	10bfffc4 	addi	r2,r2,-1
 1007dbc:	1144703a 	and	r2,r2,r5
 1007dc0:	2088b03a 	or	r4,r4,r2
 1007dc4:	009ffc34 	movhi	r2,32752
 1007dc8:	1105c83a 	sub	r2,r2,r4
 1007dcc:	1004d7fa 	srli	r2,r2,31
 1007dd0:	f800283a 	ret

01007dd4 <_sbrk_r>:
 1007dd4:	defffd04 	addi	sp,sp,-12
 1007dd8:	dc000015 	stw	r16,0(sp)
 1007ddc:	04004074 	movhi	r16,257
 1007de0:	8404ce04 	addi	r16,r16,4920
 1007de4:	dc400115 	stw	r17,4(sp)
 1007de8:	80000015 	stw	zero,0(r16)
 1007dec:	2023883a 	mov	r17,r4
 1007df0:	2809883a 	mov	r4,r5
 1007df4:	dfc00215 	stw	ra,8(sp)
 1007df8:	100b2bc0 	call	100b2bc <sbrk>
 1007dfc:	1007883a 	mov	r3,r2
 1007e00:	00bfffc4 	movi	r2,-1
 1007e04:	18800626 	beq	r3,r2,1007e20 <_sbrk_r+0x4c>
 1007e08:	1805883a 	mov	r2,r3
 1007e0c:	dfc00217 	ldw	ra,8(sp)
 1007e10:	dc400117 	ldw	r17,4(sp)
 1007e14:	dc000017 	ldw	r16,0(sp)
 1007e18:	dec00304 	addi	sp,sp,12
 1007e1c:	f800283a 	ret
 1007e20:	80800017 	ldw	r2,0(r16)
 1007e24:	103ff826 	beq	r2,zero,1007e08 <_sbrk_r+0x34>
 1007e28:	88800015 	stw	r2,0(r17)
 1007e2c:	1805883a 	mov	r2,r3
 1007e30:	dfc00217 	ldw	ra,8(sp)
 1007e34:	dc400117 	ldw	r17,4(sp)
 1007e38:	dc000017 	ldw	r16,0(sp)
 1007e3c:	dec00304 	addi	sp,sp,12
 1007e40:	f800283a 	ret

01007e44 <__sclose>:
 1007e44:	2940038f 	ldh	r5,14(r5)
 1007e48:	10082001 	jmpi	1008200 <_close_r>

01007e4c <__sseek>:
 1007e4c:	defffe04 	addi	sp,sp,-8
 1007e50:	dc000015 	stw	r16,0(sp)
 1007e54:	2821883a 	mov	r16,r5
 1007e58:	2940038f 	ldh	r5,14(r5)
 1007e5c:	dfc00115 	stw	ra,4(sp)
 1007e60:	10084780 	call	1008478 <_lseek_r>
 1007e64:	1007883a 	mov	r3,r2
 1007e68:	00bfffc4 	movi	r2,-1
 1007e6c:	18800926 	beq	r3,r2,1007e94 <__sseek+0x48>
 1007e70:	8080030b 	ldhu	r2,12(r16)
 1007e74:	80c01415 	stw	r3,80(r16)
 1007e78:	10840014 	ori	r2,r2,4096
 1007e7c:	8080030d 	sth	r2,12(r16)
 1007e80:	1805883a 	mov	r2,r3
 1007e84:	dfc00117 	ldw	ra,4(sp)
 1007e88:	dc000017 	ldw	r16,0(sp)
 1007e8c:	dec00204 	addi	sp,sp,8
 1007e90:	f800283a 	ret
 1007e94:	8080030b 	ldhu	r2,12(r16)
 1007e98:	10bbffcc 	andi	r2,r2,61439
 1007e9c:	8080030d 	sth	r2,12(r16)
 1007ea0:	1805883a 	mov	r2,r3
 1007ea4:	dfc00117 	ldw	ra,4(sp)
 1007ea8:	dc000017 	ldw	r16,0(sp)
 1007eac:	dec00204 	addi	sp,sp,8
 1007eb0:	f800283a 	ret

01007eb4 <__swrite>:
 1007eb4:	2880030b 	ldhu	r2,12(r5)
 1007eb8:	defffb04 	addi	sp,sp,-20
 1007ebc:	dcc00315 	stw	r19,12(sp)
 1007ec0:	1080400c 	andi	r2,r2,256
 1007ec4:	dc800215 	stw	r18,8(sp)
 1007ec8:	dc400115 	stw	r17,4(sp)
 1007ecc:	dc000015 	stw	r16,0(sp)
 1007ed0:	3027883a 	mov	r19,r6
 1007ed4:	3825883a 	mov	r18,r7
 1007ed8:	dfc00415 	stw	ra,16(sp)
 1007edc:	2821883a 	mov	r16,r5
 1007ee0:	000d883a 	mov	r6,zero
 1007ee4:	01c00084 	movi	r7,2
 1007ee8:	2023883a 	mov	r17,r4
 1007eec:	10000226 	beq	r2,zero,1007ef8 <__swrite+0x44>
 1007ef0:	2940038f 	ldh	r5,14(r5)
 1007ef4:	10084780 	call	1008478 <_lseek_r>
 1007ef8:	8080030b 	ldhu	r2,12(r16)
 1007efc:	8140038f 	ldh	r5,14(r16)
 1007f00:	8809883a 	mov	r4,r17
 1007f04:	10bbffcc 	andi	r2,r2,61439
 1007f08:	980d883a 	mov	r6,r19
 1007f0c:	900f883a 	mov	r7,r18
 1007f10:	8080030d 	sth	r2,12(r16)
 1007f14:	dfc00417 	ldw	ra,16(sp)
 1007f18:	dcc00317 	ldw	r19,12(sp)
 1007f1c:	dc800217 	ldw	r18,8(sp)
 1007f20:	dc400117 	ldw	r17,4(sp)
 1007f24:	dc000017 	ldw	r16,0(sp)
 1007f28:	dec00504 	addi	sp,sp,20
 1007f2c:	10080c01 	jmpi	10080c0 <_write_r>

01007f30 <__sread>:
 1007f30:	defffe04 	addi	sp,sp,-8
 1007f34:	dc000015 	stw	r16,0(sp)
 1007f38:	2821883a 	mov	r16,r5
 1007f3c:	2940038f 	ldh	r5,14(r5)
 1007f40:	dfc00115 	stw	ra,4(sp)
 1007f44:	10084f00 	call	10084f0 <_read_r>
 1007f48:	1007883a 	mov	r3,r2
 1007f4c:	10000816 	blt	r2,zero,1007f70 <__sread+0x40>
 1007f50:	80801417 	ldw	r2,80(r16)
 1007f54:	10c5883a 	add	r2,r2,r3
 1007f58:	80801415 	stw	r2,80(r16)
 1007f5c:	1805883a 	mov	r2,r3
 1007f60:	dfc00117 	ldw	ra,4(sp)
 1007f64:	dc000017 	ldw	r16,0(sp)
 1007f68:	dec00204 	addi	sp,sp,8
 1007f6c:	f800283a 	ret
 1007f70:	8080030b 	ldhu	r2,12(r16)
 1007f74:	10bbffcc 	andi	r2,r2,61439
 1007f78:	8080030d 	sth	r2,12(r16)
 1007f7c:	1805883a 	mov	r2,r3
 1007f80:	dfc00117 	ldw	ra,4(sp)
 1007f84:	dc000017 	ldw	r16,0(sp)
 1007f88:	dec00204 	addi	sp,sp,8
 1007f8c:	f800283a 	ret

01007f90 <strcmp>:
 1007f90:	2144b03a 	or	r2,r4,r5
 1007f94:	108000cc 	andi	r2,r2,3
 1007f98:	10001d1e 	bne	r2,zero,1008010 <strcmp+0x80>
 1007f9c:	200f883a 	mov	r7,r4
 1007fa0:	28800017 	ldw	r2,0(r5)
 1007fa4:	21000017 	ldw	r4,0(r4)
 1007fa8:	280d883a 	mov	r6,r5
 1007fac:	2080161e 	bne	r4,r2,1008008 <strcmp+0x78>
 1007fb0:	023fbff4 	movhi	r8,65279
 1007fb4:	423fbfc4 	addi	r8,r8,-257
 1007fb8:	2207883a 	add	r3,r4,r8
 1007fbc:	01602074 	movhi	r5,32897
 1007fc0:	29602004 	addi	r5,r5,-32640
 1007fc4:	1946703a 	and	r3,r3,r5
 1007fc8:	0104303a 	nor	r2,zero,r4
 1007fcc:	10c4703a 	and	r2,r2,r3
 1007fd0:	10001c1e 	bne	r2,zero,1008044 <strcmp+0xb4>
 1007fd4:	4013883a 	mov	r9,r8
 1007fd8:	2811883a 	mov	r8,r5
 1007fdc:	00000106 	br	1007fe4 <strcmp+0x54>
 1007fe0:	1800181e 	bne	r3,zero,1008044 <strcmp+0xb4>
 1007fe4:	39c00104 	addi	r7,r7,4
 1007fe8:	39000017 	ldw	r4,0(r7)
 1007fec:	31800104 	addi	r6,r6,4
 1007ff0:	31400017 	ldw	r5,0(r6)
 1007ff4:	2245883a 	add	r2,r4,r9
 1007ff8:	1204703a 	and	r2,r2,r8
 1007ffc:	0106303a 	nor	r3,zero,r4
 1008000:	1886703a 	and	r3,r3,r2
 1008004:	217ff626 	beq	r4,r5,1007fe0 <strcmp+0x50>
 1008008:	3809883a 	mov	r4,r7
 100800c:	300b883a 	mov	r5,r6
 1008010:	20c00007 	ldb	r3,0(r4)
 1008014:	1800051e 	bne	r3,zero,100802c <strcmp+0x9c>
 1008018:	00000606 	br	1008034 <strcmp+0xa4>
 100801c:	21000044 	addi	r4,r4,1
 1008020:	20c00007 	ldb	r3,0(r4)
 1008024:	29400044 	addi	r5,r5,1
 1008028:	18000226 	beq	r3,zero,1008034 <strcmp+0xa4>
 100802c:	28800007 	ldb	r2,0(r5)
 1008030:	18bffa26 	beq	r3,r2,100801c <strcmp+0x8c>
 1008034:	20c00003 	ldbu	r3,0(r4)
 1008038:	28800003 	ldbu	r2,0(r5)
 100803c:	1885c83a 	sub	r2,r3,r2
 1008040:	f800283a 	ret
 1008044:	0005883a 	mov	r2,zero
 1008048:	f800283a 	ret

0100804c <strlen>:
 100804c:	208000cc 	andi	r2,r4,3
 1008050:	2011883a 	mov	r8,r4
 1008054:	1000161e 	bne	r2,zero,10080b0 <strlen+0x64>
 1008058:	20c00017 	ldw	r3,0(r4)
 100805c:	017fbff4 	movhi	r5,65279
 1008060:	297fbfc4 	addi	r5,r5,-257
 1008064:	01e02074 	movhi	r7,32897
 1008068:	39e02004 	addi	r7,r7,-32640
 100806c:	1945883a 	add	r2,r3,r5
 1008070:	11c4703a 	and	r2,r2,r7
 1008074:	00c6303a 	nor	r3,zero,r3
 1008078:	1886703a 	and	r3,r3,r2
 100807c:	18000c1e 	bne	r3,zero,10080b0 <strlen+0x64>
 1008080:	280d883a 	mov	r6,r5
 1008084:	380b883a 	mov	r5,r7
 1008088:	21000104 	addi	r4,r4,4
 100808c:	20800017 	ldw	r2,0(r4)
 1008090:	1187883a 	add	r3,r2,r6
 1008094:	1946703a 	and	r3,r3,r5
 1008098:	0084303a 	nor	r2,zero,r2
 100809c:	10c4703a 	and	r2,r2,r3
 10080a0:	103ff926 	beq	r2,zero,1008088 <strlen+0x3c>
 10080a4:	20800007 	ldb	r2,0(r4)
 10080a8:	10000326 	beq	r2,zero,10080b8 <strlen+0x6c>
 10080ac:	21000044 	addi	r4,r4,1
 10080b0:	20800007 	ldb	r2,0(r4)
 10080b4:	103ffd1e 	bne	r2,zero,10080ac <strlen+0x60>
 10080b8:	2205c83a 	sub	r2,r4,r8
 10080bc:	f800283a 	ret

010080c0 <_write_r>:
 10080c0:	defffd04 	addi	sp,sp,-12
 10080c4:	dc000015 	stw	r16,0(sp)
 10080c8:	04004074 	movhi	r16,257
 10080cc:	8404ce04 	addi	r16,r16,4920
 10080d0:	dc400115 	stw	r17,4(sp)
 10080d4:	80000015 	stw	zero,0(r16)
 10080d8:	2023883a 	mov	r17,r4
 10080dc:	2809883a 	mov	r4,r5
 10080e0:	300b883a 	mov	r5,r6
 10080e4:	380d883a 	mov	r6,r7
 10080e8:	dfc00215 	stw	ra,8(sp)
 10080ec:	100b51c0 	call	100b51c <write>
 10080f0:	1007883a 	mov	r3,r2
 10080f4:	00bfffc4 	movi	r2,-1
 10080f8:	18800626 	beq	r3,r2,1008114 <_write_r+0x54>
 10080fc:	1805883a 	mov	r2,r3
 1008100:	dfc00217 	ldw	ra,8(sp)
 1008104:	dc400117 	ldw	r17,4(sp)
 1008108:	dc000017 	ldw	r16,0(sp)
 100810c:	dec00304 	addi	sp,sp,12
 1008110:	f800283a 	ret
 1008114:	80800017 	ldw	r2,0(r16)
 1008118:	103ff826 	beq	r2,zero,10080fc <_write_r+0x3c>
 100811c:	88800015 	stw	r2,0(r17)
 1008120:	1805883a 	mov	r2,r3
 1008124:	dfc00217 	ldw	ra,8(sp)
 1008128:	dc400117 	ldw	r17,4(sp)
 100812c:	dc000017 	ldw	r16,0(sp)
 1008130:	dec00304 	addi	sp,sp,12
 1008134:	f800283a 	ret

01008138 <_calloc_r>:
 1008138:	defffe04 	addi	sp,sp,-8
 100813c:	dc400015 	stw	r17,0(sp)
 1008140:	2023883a 	mov	r17,r4
 1008144:	2809883a 	mov	r4,r5
 1008148:	300b883a 	mov	r5,r6
 100814c:	dfc00115 	stw	ra,4(sp)
 1008150:	1000a8c0 	call	1000a8c <__mulsi3>
 1008154:	100b883a 	mov	r5,r2
 1008158:	8809883a 	mov	r4,r17
 100815c:	1005ca80 	call	1005ca8 <_malloc_r>
 1008160:	1023883a 	mov	r17,r2
 1008164:	01c00904 	movi	r7,36
 1008168:	10000d26 	beq	r2,zero,10081a0 <_calloc_r+0x68>
 100816c:	10ffff17 	ldw	r3,-4(r2)
 1008170:	1009883a 	mov	r4,r2
 1008174:	00bfff04 	movi	r2,-4
 1008178:	1886703a 	and	r3,r3,r2
 100817c:	1887883a 	add	r3,r3,r2
 1008180:	180d883a 	mov	r6,r3
 1008184:	000b883a 	mov	r5,zero
 1008188:	38c01736 	bltu	r7,r3,10081e8 <_calloc_r+0xb0>
 100818c:	008004c4 	movi	r2,19
 1008190:	10c00836 	bltu	r2,r3,10081b4 <_calloc_r+0x7c>
 1008194:	20000215 	stw	zero,8(r4)
 1008198:	20000015 	stw	zero,0(r4)
 100819c:	20000115 	stw	zero,4(r4)
 10081a0:	8805883a 	mov	r2,r17
 10081a4:	dfc00117 	ldw	ra,4(sp)
 10081a8:	dc400017 	ldw	r17,0(sp)
 10081ac:	dec00204 	addi	sp,sp,8
 10081b0:	f800283a 	ret
 10081b4:	008006c4 	movi	r2,27
 10081b8:	88000015 	stw	zero,0(r17)
 10081bc:	88000115 	stw	zero,4(r17)
 10081c0:	89000204 	addi	r4,r17,8
 10081c4:	10fff32e 	bgeu	r2,r3,1008194 <_calloc_r+0x5c>
 10081c8:	88000215 	stw	zero,8(r17)
 10081cc:	88000315 	stw	zero,12(r17)
 10081d0:	89000404 	addi	r4,r17,16
 10081d4:	19ffef1e 	bne	r3,r7,1008194 <_calloc_r+0x5c>
 10081d8:	89000604 	addi	r4,r17,24
 10081dc:	88000415 	stw	zero,16(r17)
 10081e0:	88000515 	stw	zero,20(r17)
 10081e4:	003feb06 	br	1008194 <_calloc_r+0x5c>
 10081e8:	100664c0 	call	100664c <memset>
 10081ec:	8805883a 	mov	r2,r17
 10081f0:	dfc00117 	ldw	ra,4(sp)
 10081f4:	dc400017 	ldw	r17,0(sp)
 10081f8:	dec00204 	addi	sp,sp,8
 10081fc:	f800283a 	ret

01008200 <_close_r>:
 1008200:	defffd04 	addi	sp,sp,-12
 1008204:	dc000015 	stw	r16,0(sp)
 1008208:	04004074 	movhi	r16,257
 100820c:	8404ce04 	addi	r16,r16,4920
 1008210:	dc400115 	stw	r17,4(sp)
 1008214:	80000015 	stw	zero,0(r16)
 1008218:	2023883a 	mov	r17,r4
 100821c:	2809883a 	mov	r4,r5
 1008220:	dfc00215 	stw	ra,8(sp)
 1008224:	100a7d00 	call	100a7d0 <close>
 1008228:	1007883a 	mov	r3,r2
 100822c:	00bfffc4 	movi	r2,-1
 1008230:	18800626 	beq	r3,r2,100824c <_close_r+0x4c>
 1008234:	1805883a 	mov	r2,r3
 1008238:	dfc00217 	ldw	ra,8(sp)
 100823c:	dc400117 	ldw	r17,4(sp)
 1008240:	dc000017 	ldw	r16,0(sp)
 1008244:	dec00304 	addi	sp,sp,12
 1008248:	f800283a 	ret
 100824c:	80800017 	ldw	r2,0(r16)
 1008250:	103ff826 	beq	r2,zero,1008234 <_close_r+0x34>
 1008254:	88800015 	stw	r2,0(r17)
 1008258:	1805883a 	mov	r2,r3
 100825c:	dfc00217 	ldw	ra,8(sp)
 1008260:	dc400117 	ldw	r17,4(sp)
 1008264:	dc000017 	ldw	r16,0(sp)
 1008268:	dec00304 	addi	sp,sp,12
 100826c:	f800283a 	ret

01008270 <_fclose_r>:
 1008270:	defffc04 	addi	sp,sp,-16
 1008274:	dc400115 	stw	r17,4(sp)
 1008278:	dc000015 	stw	r16,0(sp)
 100827c:	dfc00315 	stw	ra,12(sp)
 1008280:	dc800215 	stw	r18,8(sp)
 1008284:	2821883a 	mov	r16,r5
 1008288:	2023883a 	mov	r17,r4
 100828c:	28002926 	beq	r5,zero,1008334 <_fclose_r+0xc4>
 1008290:	1004ce40 	call	1004ce4 <__sfp_lock_acquire>
 1008294:	88000226 	beq	r17,zero,10082a0 <_fclose_r+0x30>
 1008298:	88800e17 	ldw	r2,56(r17)
 100829c:	10002d26 	beq	r2,zero,1008354 <_fclose_r+0xe4>
 10082a0:	8080030f 	ldh	r2,12(r16)
 10082a4:	10002226 	beq	r2,zero,1008330 <_fclose_r+0xc0>
 10082a8:	8809883a 	mov	r4,r17
 10082ac:	800b883a 	mov	r5,r16
 10082b0:	1004a5c0 	call	1004a5c <_fflush_r>
 10082b4:	1025883a 	mov	r18,r2
 10082b8:	80800b17 	ldw	r2,44(r16)
 10082bc:	10000426 	beq	r2,zero,10082d0 <_fclose_r+0x60>
 10082c0:	81400717 	ldw	r5,28(r16)
 10082c4:	8809883a 	mov	r4,r17
 10082c8:	103ee83a 	callr	r2
 10082cc:	10002a16 	blt	r2,zero,1008378 <_fclose_r+0x108>
 10082d0:	8080030b 	ldhu	r2,12(r16)
 10082d4:	1080200c 	andi	r2,r2,128
 10082d8:	1000231e 	bne	r2,zero,1008368 <_fclose_r+0xf8>
 10082dc:	81400c17 	ldw	r5,48(r16)
 10082e0:	28000526 	beq	r5,zero,10082f8 <_fclose_r+0x88>
 10082e4:	80801004 	addi	r2,r16,64
 10082e8:	28800226 	beq	r5,r2,10082f4 <_fclose_r+0x84>
 10082ec:	8809883a 	mov	r4,r17
 10082f0:	10050ac0 	call	10050ac <_free_r>
 10082f4:	80000c15 	stw	zero,48(r16)
 10082f8:	81401117 	ldw	r5,68(r16)
 10082fc:	28000326 	beq	r5,zero,100830c <_fclose_r+0x9c>
 1008300:	8809883a 	mov	r4,r17
 1008304:	10050ac0 	call	10050ac <_free_r>
 1008308:	80001115 	stw	zero,68(r16)
 100830c:	8000030d 	sth	zero,12(r16)
 1008310:	1004ce80 	call	1004ce8 <__sfp_lock_release>
 1008314:	9005883a 	mov	r2,r18
 1008318:	dfc00317 	ldw	ra,12(sp)
 100831c:	dc800217 	ldw	r18,8(sp)
 1008320:	dc400117 	ldw	r17,4(sp)
 1008324:	dc000017 	ldw	r16,0(sp)
 1008328:	dec00404 	addi	sp,sp,16
 100832c:	f800283a 	ret
 1008330:	1004ce80 	call	1004ce8 <__sfp_lock_release>
 1008334:	0025883a 	mov	r18,zero
 1008338:	9005883a 	mov	r2,r18
 100833c:	dfc00317 	ldw	ra,12(sp)
 1008340:	dc800217 	ldw	r18,8(sp)
 1008344:	dc400117 	ldw	r17,4(sp)
 1008348:	dc000017 	ldw	r16,0(sp)
 100834c:	dec00404 	addi	sp,sp,16
 1008350:	f800283a 	ret
 1008354:	8809883a 	mov	r4,r17
 1008358:	1004cf40 	call	1004cf4 <__sinit>
 100835c:	8080030f 	ldh	r2,12(r16)
 1008360:	103fd11e 	bne	r2,zero,10082a8 <_fclose_r+0x38>
 1008364:	003ff206 	br	1008330 <_fclose_r+0xc0>
 1008368:	81400417 	ldw	r5,16(r16)
 100836c:	8809883a 	mov	r4,r17
 1008370:	10050ac0 	call	10050ac <_free_r>
 1008374:	003fd906 	br	10082dc <_fclose_r+0x6c>
 1008378:	04bfffc4 	movi	r18,-1
 100837c:	003fd406 	br	10082d0 <_fclose_r+0x60>

01008380 <fclose>:
 1008380:	00804074 	movhi	r2,257
 1008384:	10be1c04 	addi	r2,r2,-1936
 1008388:	200b883a 	mov	r5,r4
 100838c:	11000017 	ldw	r4,0(r2)
 1008390:	10082701 	jmpi	1008270 <_fclose_r>

01008394 <_fstat_r>:
 1008394:	defffd04 	addi	sp,sp,-12
 1008398:	dc000015 	stw	r16,0(sp)
 100839c:	04004074 	movhi	r16,257
 10083a0:	8404ce04 	addi	r16,r16,4920
 10083a4:	dc400115 	stw	r17,4(sp)
 10083a8:	80000015 	stw	zero,0(r16)
 10083ac:	2023883a 	mov	r17,r4
 10083b0:	2809883a 	mov	r4,r5
 10083b4:	300b883a 	mov	r5,r6
 10083b8:	dfc00215 	stw	ra,8(sp)
 10083bc:	100a95c0 	call	100a95c <fstat>
 10083c0:	1007883a 	mov	r3,r2
 10083c4:	00bfffc4 	movi	r2,-1
 10083c8:	18800626 	beq	r3,r2,10083e4 <_fstat_r+0x50>
 10083cc:	1805883a 	mov	r2,r3
 10083d0:	dfc00217 	ldw	ra,8(sp)
 10083d4:	dc400117 	ldw	r17,4(sp)
 10083d8:	dc000017 	ldw	r16,0(sp)
 10083dc:	dec00304 	addi	sp,sp,12
 10083e0:	f800283a 	ret
 10083e4:	80800017 	ldw	r2,0(r16)
 10083e8:	103ff826 	beq	r2,zero,10083cc <_fstat_r+0x38>
 10083ec:	88800015 	stw	r2,0(r17)
 10083f0:	1805883a 	mov	r2,r3
 10083f4:	dfc00217 	ldw	ra,8(sp)
 10083f8:	dc400117 	ldw	r17,4(sp)
 10083fc:	dc000017 	ldw	r16,0(sp)
 1008400:	dec00304 	addi	sp,sp,12
 1008404:	f800283a 	ret

01008408 <_isatty_r>:
 1008408:	defffd04 	addi	sp,sp,-12
 100840c:	dc000015 	stw	r16,0(sp)
 1008410:	04004074 	movhi	r16,257
 1008414:	8404ce04 	addi	r16,r16,4920
 1008418:	dc400115 	stw	r17,4(sp)
 100841c:	80000015 	stw	zero,0(r16)
 1008420:	2023883a 	mov	r17,r4
 1008424:	2809883a 	mov	r4,r5
 1008428:	dfc00215 	stw	ra,8(sp)
 100842c:	100acb00 	call	100acb0 <isatty>
 1008430:	1007883a 	mov	r3,r2
 1008434:	00bfffc4 	movi	r2,-1
 1008438:	18800626 	beq	r3,r2,1008454 <_isatty_r+0x4c>
 100843c:	1805883a 	mov	r2,r3
 1008440:	dfc00217 	ldw	ra,8(sp)
 1008444:	dc400117 	ldw	r17,4(sp)
 1008448:	dc000017 	ldw	r16,0(sp)
 100844c:	dec00304 	addi	sp,sp,12
 1008450:	f800283a 	ret
 1008454:	80800017 	ldw	r2,0(r16)
 1008458:	103ff826 	beq	r2,zero,100843c <_isatty_r+0x34>
 100845c:	88800015 	stw	r2,0(r17)
 1008460:	1805883a 	mov	r2,r3
 1008464:	dfc00217 	ldw	ra,8(sp)
 1008468:	dc400117 	ldw	r17,4(sp)
 100846c:	dc000017 	ldw	r16,0(sp)
 1008470:	dec00304 	addi	sp,sp,12
 1008474:	f800283a 	ret

01008478 <_lseek_r>:
 1008478:	defffd04 	addi	sp,sp,-12
 100847c:	dc000015 	stw	r16,0(sp)
 1008480:	04004074 	movhi	r16,257
 1008484:	8404ce04 	addi	r16,r16,4920
 1008488:	dc400115 	stw	r17,4(sp)
 100848c:	80000015 	stw	zero,0(r16)
 1008490:	2023883a 	mov	r17,r4
 1008494:	2809883a 	mov	r4,r5
 1008498:	300b883a 	mov	r5,r6
 100849c:	380d883a 	mov	r6,r7
 10084a0:	dfc00215 	stw	ra,8(sp)
 10084a4:	100aec00 	call	100aec0 <lseek>
 10084a8:	1007883a 	mov	r3,r2
 10084ac:	00bfffc4 	movi	r2,-1
 10084b0:	18800626 	beq	r3,r2,10084cc <_lseek_r+0x54>
 10084b4:	1805883a 	mov	r2,r3
 10084b8:	dfc00217 	ldw	ra,8(sp)
 10084bc:	dc400117 	ldw	r17,4(sp)
 10084c0:	dc000017 	ldw	r16,0(sp)
 10084c4:	dec00304 	addi	sp,sp,12
 10084c8:	f800283a 	ret
 10084cc:	80800017 	ldw	r2,0(r16)
 10084d0:	103ff826 	beq	r2,zero,10084b4 <_lseek_r+0x3c>
 10084d4:	88800015 	stw	r2,0(r17)
 10084d8:	1805883a 	mov	r2,r3
 10084dc:	dfc00217 	ldw	ra,8(sp)
 10084e0:	dc400117 	ldw	r17,4(sp)
 10084e4:	dc000017 	ldw	r16,0(sp)
 10084e8:	dec00304 	addi	sp,sp,12
 10084ec:	f800283a 	ret

010084f0 <_read_r>:
 10084f0:	defffd04 	addi	sp,sp,-12
 10084f4:	dc000015 	stw	r16,0(sp)
 10084f8:	04004074 	movhi	r16,257
 10084fc:	8404ce04 	addi	r16,r16,4920
 1008500:	dc400115 	stw	r17,4(sp)
 1008504:	80000015 	stw	zero,0(r16)
 1008508:	2023883a 	mov	r17,r4
 100850c:	2809883a 	mov	r4,r5
 1008510:	300b883a 	mov	r5,r6
 1008514:	380d883a 	mov	r6,r7
 1008518:	dfc00215 	stw	ra,8(sp)
 100851c:	100b0c00 	call	100b0c0 <read>
 1008520:	1007883a 	mov	r3,r2
 1008524:	00bfffc4 	movi	r2,-1
 1008528:	18800626 	beq	r3,r2,1008544 <_read_r+0x54>
 100852c:	1805883a 	mov	r2,r3
 1008530:	dfc00217 	ldw	ra,8(sp)
 1008534:	dc400117 	ldw	r17,4(sp)
 1008538:	dc000017 	ldw	r16,0(sp)
 100853c:	dec00304 	addi	sp,sp,12
 1008540:	f800283a 	ret
 1008544:	80800017 	ldw	r2,0(r16)
 1008548:	103ff826 	beq	r2,zero,100852c <_read_r+0x3c>
 100854c:	88800015 	stw	r2,0(r17)
 1008550:	1805883a 	mov	r2,r3
 1008554:	dfc00217 	ldw	ra,8(sp)
 1008558:	dc400117 	ldw	r17,4(sp)
 100855c:	dc000017 	ldw	r16,0(sp)
 1008560:	dec00304 	addi	sp,sp,12
 1008564:	f800283a 	ret

01008568 <__muldi3>:
 1008568:	defff204 	addi	sp,sp,-56
 100856c:	df000c15 	stw	fp,48(sp)
 1008570:	3038d43a 	srli	fp,r6,16
 1008574:	dd000815 	stw	r20,32(sp)
 1008578:	dc400515 	stw	r17,20(sp)
 100857c:	2028d43a 	srli	r20,r4,16
 1008580:	247fffcc 	andi	r17,r4,65535
 1008584:	dc000415 	stw	r16,16(sp)
 1008588:	343fffcc 	andi	r16,r6,65535
 100858c:	dcc00715 	stw	r19,28(sp)
 1008590:	d9000015 	stw	r4,0(sp)
 1008594:	2827883a 	mov	r19,r5
 1008598:	8809883a 	mov	r4,r17
 100859c:	d9400115 	stw	r5,4(sp)
 10085a0:	800b883a 	mov	r5,r16
 10085a4:	d9800215 	stw	r6,8(sp)
 10085a8:	dfc00d15 	stw	ra,52(sp)
 10085ac:	d9c00315 	stw	r7,12(sp)
 10085b0:	dd800a15 	stw	r22,40(sp)
 10085b4:	dd400915 	stw	r21,36(sp)
 10085b8:	302d883a 	mov	r22,r6
 10085bc:	ddc00b15 	stw	r23,44(sp)
 10085c0:	dc800615 	stw	r18,24(sp)
 10085c4:	1000a8c0 	call	1000a8c <__mulsi3>
 10085c8:	8809883a 	mov	r4,r17
 10085cc:	e00b883a 	mov	r5,fp
 10085d0:	102b883a 	mov	r21,r2
 10085d4:	1000a8c0 	call	1000a8c <__mulsi3>
 10085d8:	800b883a 	mov	r5,r16
 10085dc:	a009883a 	mov	r4,r20
 10085e0:	1023883a 	mov	r17,r2
 10085e4:	1000a8c0 	call	1000a8c <__mulsi3>
 10085e8:	a009883a 	mov	r4,r20
 10085ec:	e00b883a 	mov	r5,fp
 10085f0:	1021883a 	mov	r16,r2
 10085f4:	1000a8c0 	call	1000a8c <__mulsi3>
 10085f8:	a8ffffcc 	andi	r3,r21,65535
 10085fc:	a82ad43a 	srli	r21,r21,16
 1008600:	8c23883a 	add	r17,r17,r16
 1008604:	1011883a 	mov	r8,r2
 1008608:	ac6b883a 	add	r21,r21,r17
 100860c:	a804943a 	slli	r2,r21,16
 1008610:	b009883a 	mov	r4,r22
 1008614:	980b883a 	mov	r5,r19
 1008618:	10c7883a 	add	r3,r2,r3
 100861c:	a812d43a 	srli	r9,r21,16
 1008620:	180d883a 	mov	r6,r3
 1008624:	ac00022e 	bgeu	r21,r16,1008630 <__muldi3+0xc8>
 1008628:	00800074 	movhi	r2,1
 100862c:	4091883a 	add	r8,r8,r2
 1008630:	4267883a 	add	r19,r8,r9
 1008634:	302d883a 	mov	r22,r6
 1008638:	1000a8c0 	call	1000a8c <__mulsi3>
 100863c:	d9400317 	ldw	r5,12(sp)
 1008640:	d9000017 	ldw	r4,0(sp)
 1008644:	1023883a 	mov	r17,r2
 1008648:	1000a8c0 	call	1000a8c <__mulsi3>
 100864c:	14cb883a 	add	r5,r2,r19
 1008650:	894b883a 	add	r5,r17,r5
 1008654:	b005883a 	mov	r2,r22
 1008658:	2807883a 	mov	r3,r5
 100865c:	dfc00d17 	ldw	ra,52(sp)
 1008660:	df000c17 	ldw	fp,48(sp)
 1008664:	ddc00b17 	ldw	r23,44(sp)
 1008668:	dd800a17 	ldw	r22,40(sp)
 100866c:	dd400917 	ldw	r21,36(sp)
 1008670:	dd000817 	ldw	r20,32(sp)
 1008674:	dcc00717 	ldw	r19,28(sp)
 1008678:	dc800617 	ldw	r18,24(sp)
 100867c:	dc400517 	ldw	r17,20(sp)
 1008680:	dc000417 	ldw	r16,16(sp)
 1008684:	dec00e04 	addi	sp,sp,56
 1008688:	f800283a 	ret

0100868c <__udivdi3>:
 100868c:	defff104 	addi	sp,sp,-60
 1008690:	0015883a 	mov	r10,zero
 1008694:	2005883a 	mov	r2,r4
 1008698:	3011883a 	mov	r8,r6
 100869c:	df000d15 	stw	fp,52(sp)
 10086a0:	dd400a15 	stw	r21,40(sp)
 10086a4:	dcc00815 	stw	r19,32(sp)
 10086a8:	dfc00e15 	stw	ra,56(sp)
 10086ac:	ddc00c15 	stw	r23,48(sp)
 10086b0:	dd800b15 	stw	r22,44(sp)
 10086b4:	dd000915 	stw	r20,36(sp)
 10086b8:	dc800715 	stw	r18,28(sp)
 10086bc:	dc400615 	stw	r17,24(sp)
 10086c0:	dc000515 	stw	r16,20(sp)
 10086c4:	da800315 	stw	r10,12(sp)
 10086c8:	4027883a 	mov	r19,r8
 10086cc:	1039883a 	mov	fp,r2
 10086d0:	282b883a 	mov	r21,r5
 10086d4:	da800415 	stw	r10,16(sp)
 10086d8:	3800401e 	bne	r7,zero,10087dc <__udivdi3+0x150>
 10086dc:	2a006536 	bltu	r5,r8,1008874 <__udivdi3+0x1e8>
 10086e0:	4000b526 	beq	r8,zero,10089b8 <__udivdi3+0x32c>
 10086e4:	00bfffd4 	movui	r2,65535
 10086e8:	14c0ad36 	bltu	r2,r19,10089a0 <__udivdi3+0x314>
 10086ec:	00803fc4 	movi	r2,255
 10086f0:	14c15e36 	bltu	r2,r19,1008c6c <__udivdi3+0x5e0>
 10086f4:	000b883a 	mov	r5,zero
 10086f8:	0005883a 	mov	r2,zero
 10086fc:	9884d83a 	srl	r2,r19,r2
 1008700:	01004074 	movhi	r4,257
 1008704:	2136b404 	addi	r4,r4,-9520
 1008708:	01800804 	movi	r6,32
 100870c:	1105883a 	add	r2,r2,r4
 1008710:	10c00003 	ldbu	r3,0(r2)
 1008714:	28c7883a 	add	r3,r5,r3
 1008718:	30e9c83a 	sub	r20,r6,r3
 100871c:	a0010a1e 	bne	r20,zero,1008b48 <__udivdi3+0x4bc>
 1008720:	982ed43a 	srli	r23,r19,16
 1008724:	acebc83a 	sub	r21,r21,r19
 1008728:	9dbfffcc 	andi	r22,r19,65535
 100872c:	05000044 	movi	r20,1
 1008730:	a809883a 	mov	r4,r21
 1008734:	b80b883a 	mov	r5,r23
 1008738:	100a5c00 	call	100a5c0 <__udivsi3>
 100873c:	100b883a 	mov	r5,r2
 1008740:	b009883a 	mov	r4,r22
 1008744:	1021883a 	mov	r16,r2
 1008748:	1000a8c0 	call	1000a8c <__mulsi3>
 100874c:	a809883a 	mov	r4,r21
 1008750:	b80b883a 	mov	r5,r23
 1008754:	1023883a 	mov	r17,r2
 1008758:	100a5c80 	call	100a5c8 <__umodsi3>
 100875c:	1004943a 	slli	r2,r2,16
 1008760:	e006d43a 	srli	r3,fp,16
 1008764:	10c4b03a 	or	r2,r2,r3
 1008768:	1440042e 	bgeu	r2,r17,100877c <__udivdi3+0xf0>
 100876c:	14c5883a 	add	r2,r2,r19
 1008770:	843fffc4 	addi	r16,r16,-1
 1008774:	14c00136 	bltu	r2,r19,100877c <__udivdi3+0xf0>
 1008778:	14415c36 	bltu	r2,r17,1008cec <__udivdi3+0x660>
 100877c:	1463c83a 	sub	r17,r2,r17
 1008780:	8809883a 	mov	r4,r17
 1008784:	b80b883a 	mov	r5,r23
 1008788:	100a5c00 	call	100a5c0 <__udivsi3>
 100878c:	100b883a 	mov	r5,r2
 1008790:	b009883a 	mov	r4,r22
 1008794:	102b883a 	mov	r21,r2
 1008798:	1000a8c0 	call	1000a8c <__mulsi3>
 100879c:	8809883a 	mov	r4,r17
 10087a0:	b80b883a 	mov	r5,r23
 10087a4:	1025883a 	mov	r18,r2
 10087a8:	100a5c80 	call	100a5c8 <__umodsi3>
 10087ac:	1004943a 	slli	r2,r2,16
 10087b0:	e0ffffcc 	andi	r3,fp,65535
 10087b4:	10c4b03a 	or	r2,r2,r3
 10087b8:	1480042e 	bgeu	r2,r18,10087cc <__udivdi3+0x140>
 10087bc:	9885883a 	add	r2,r19,r2
 10087c0:	ad7fffc4 	addi	r21,r21,-1
 10087c4:	14c00136 	bltu	r2,r19,10087cc <__udivdi3+0x140>
 10087c8:	14813c36 	bltu	r2,r18,1008cbc <__udivdi3+0x630>
 10087cc:	8004943a 	slli	r2,r16,16
 10087d0:	a009883a 	mov	r4,r20
 10087d4:	a884b03a 	or	r2,r21,r2
 10087d8:	00001506 	br	1008830 <__udivdi3+0x1a4>
 10087dc:	380d883a 	mov	r6,r7
 10087e0:	29c06c36 	bltu	r5,r7,1008994 <__udivdi3+0x308>
 10087e4:	00bfffd4 	movui	r2,65535
 10087e8:	11c06436 	bltu	r2,r7,100897c <__udivdi3+0x2f0>
 10087ec:	00803fc4 	movi	r2,255
 10087f0:	11c11836 	bltu	r2,r7,1008c54 <__udivdi3+0x5c8>
 10087f4:	000b883a 	mov	r5,zero
 10087f8:	0005883a 	mov	r2,zero
 10087fc:	3084d83a 	srl	r2,r6,r2
 1008800:	01004074 	movhi	r4,257
 1008804:	2136b404 	addi	r4,r4,-9520
 1008808:	01c00804 	movi	r7,32
 100880c:	1105883a 	add	r2,r2,r4
 1008810:	10c00003 	ldbu	r3,0(r2)
 1008814:	28c7883a 	add	r3,r5,r3
 1008818:	38edc83a 	sub	r22,r7,r3
 100881c:	b000731e 	bne	r22,zero,10089ec <__udivdi3+0x360>
 1008820:	35400136 	bltu	r6,r21,1008828 <__udivdi3+0x19c>
 1008824:	e4c05b36 	bltu	fp,r19,1008994 <__udivdi3+0x308>
 1008828:	00800044 	movi	r2,1
 100882c:	0009883a 	mov	r4,zero
 1008830:	d8800315 	stw	r2,12(sp)
 1008834:	d9400317 	ldw	r5,12(sp)
 1008838:	2007883a 	mov	r3,r4
 100883c:	d9000415 	stw	r4,16(sp)
 1008840:	2805883a 	mov	r2,r5
 1008844:	dfc00e17 	ldw	ra,56(sp)
 1008848:	df000d17 	ldw	fp,52(sp)
 100884c:	ddc00c17 	ldw	r23,48(sp)
 1008850:	dd800b17 	ldw	r22,44(sp)
 1008854:	dd400a17 	ldw	r21,40(sp)
 1008858:	dd000917 	ldw	r20,36(sp)
 100885c:	dcc00817 	ldw	r19,32(sp)
 1008860:	dc800717 	ldw	r18,28(sp)
 1008864:	dc400617 	ldw	r17,24(sp)
 1008868:	dc000517 	ldw	r16,20(sp)
 100886c:	dec00f04 	addi	sp,sp,60
 1008870:	f800283a 	ret
 1008874:	00bfffd4 	movui	r2,65535
 1008878:	12005636 	bltu	r2,r8,10089d4 <__udivdi3+0x348>
 100887c:	00803fc4 	movi	r2,255
 1008880:	12010036 	bltu	r2,r8,1008c84 <__udivdi3+0x5f8>
 1008884:	000b883a 	mov	r5,zero
 1008888:	0005883a 	mov	r2,zero
 100888c:	9884d83a 	srl	r2,r19,r2
 1008890:	01004074 	movhi	r4,257
 1008894:	2136b404 	addi	r4,r4,-9520
 1008898:	01800804 	movi	r6,32
 100889c:	1105883a 	add	r2,r2,r4
 10088a0:	10c00003 	ldbu	r3,0(r2)
 10088a4:	28c7883a 	add	r3,r5,r3
 10088a8:	30cbc83a 	sub	r5,r6,r3
 10088ac:	28000626 	beq	r5,zero,10088c8 <__udivdi3+0x23c>
 10088b0:	3145c83a 	sub	r2,r6,r5
 10088b4:	e084d83a 	srl	r2,fp,r2
 10088b8:	a946983a 	sll	r3,r21,r5
 10088bc:	e178983a 	sll	fp,fp,r5
 10088c0:	9966983a 	sll	r19,r19,r5
 10088c4:	18aab03a 	or	r21,r3,r2
 10088c8:	982ed43a 	srli	r23,r19,16
 10088cc:	a809883a 	mov	r4,r21
 10088d0:	9cbfffcc 	andi	r18,r19,65535
 10088d4:	b80b883a 	mov	r5,r23
 10088d8:	100a5c00 	call	100a5c0 <__udivsi3>
 10088dc:	100b883a 	mov	r5,r2
 10088e0:	9009883a 	mov	r4,r18
 10088e4:	1021883a 	mov	r16,r2
 10088e8:	1000a8c0 	call	1000a8c <__mulsi3>
 10088ec:	a809883a 	mov	r4,r21
 10088f0:	b80b883a 	mov	r5,r23
 10088f4:	1023883a 	mov	r17,r2
 10088f8:	100a5c80 	call	100a5c8 <__umodsi3>
 10088fc:	1004943a 	slli	r2,r2,16
 1008900:	e006d43a 	srli	r3,fp,16
 1008904:	10c4b03a 	or	r2,r2,r3
 1008908:	1440042e 	bgeu	r2,r17,100891c <__udivdi3+0x290>
 100890c:	14c5883a 	add	r2,r2,r19
 1008910:	843fffc4 	addi	r16,r16,-1
 1008914:	14c00136 	bltu	r2,r19,100891c <__udivdi3+0x290>
 1008918:	1440ea36 	bltu	r2,r17,1008cc4 <__udivdi3+0x638>
 100891c:	1463c83a 	sub	r17,r2,r17
 1008920:	8809883a 	mov	r4,r17
 1008924:	b80b883a 	mov	r5,r23
 1008928:	100a5c00 	call	100a5c0 <__udivsi3>
 100892c:	100b883a 	mov	r5,r2
 1008930:	9009883a 	mov	r4,r18
 1008934:	102b883a 	mov	r21,r2
 1008938:	1000a8c0 	call	1000a8c <__mulsi3>
 100893c:	8809883a 	mov	r4,r17
 1008940:	b80b883a 	mov	r5,r23
 1008944:	1025883a 	mov	r18,r2
 1008948:	100a5c80 	call	100a5c8 <__umodsi3>
 100894c:	1004943a 	slli	r2,r2,16
 1008950:	e0ffffcc 	andi	r3,fp,65535
 1008954:	10c4b03a 	or	r2,r2,r3
 1008958:	1480042e 	bgeu	r2,r18,100896c <__udivdi3+0x2e0>
 100895c:	9885883a 	add	r2,r19,r2
 1008960:	ad7fffc4 	addi	r21,r21,-1
 1008964:	14c00136 	bltu	r2,r19,100896c <__udivdi3+0x2e0>
 1008968:	1480d936 	bltu	r2,r18,1008cd0 <__udivdi3+0x644>
 100896c:	8004943a 	slli	r2,r16,16
 1008970:	0009883a 	mov	r4,zero
 1008974:	a884b03a 	or	r2,r21,r2
 1008978:	003fad06 	br	1008830 <__udivdi3+0x1a4>
 100897c:	00804034 	movhi	r2,256
 1008980:	10bfffc4 	addi	r2,r2,-1
 1008984:	11c0b636 	bltu	r2,r7,1008c60 <__udivdi3+0x5d4>
 1008988:	01400404 	movi	r5,16
 100898c:	2805883a 	mov	r2,r5
 1008990:	003f9a06 	br	10087fc <__udivdi3+0x170>
 1008994:	0005883a 	mov	r2,zero
 1008998:	0009883a 	mov	r4,zero
 100899c:	003fa406 	br	1008830 <__udivdi3+0x1a4>
 10089a0:	00804034 	movhi	r2,256
 10089a4:	10bfffc4 	addi	r2,r2,-1
 10089a8:	14c0b336 	bltu	r2,r19,1008c78 <__udivdi3+0x5ec>
 10089ac:	01400404 	movi	r5,16
 10089b0:	2805883a 	mov	r2,r5
 10089b4:	003f5106 	br	10086fc <__udivdi3+0x70>
 10089b8:	01000044 	movi	r4,1
 10089bc:	000b883a 	mov	r5,zero
 10089c0:	100a5c00 	call	100a5c0 <__udivsi3>
 10089c4:	1027883a 	mov	r19,r2
 10089c8:	00bfffd4 	movui	r2,65535
 10089cc:	14fff436 	bltu	r2,r19,10089a0 <__udivdi3+0x314>
 10089d0:	003f4606 	br	10086ec <__udivdi3+0x60>
 10089d4:	00804034 	movhi	r2,256
 10089d8:	10bfffc4 	addi	r2,r2,-1
 10089dc:	1200ac36 	bltu	r2,r8,1008c90 <__udivdi3+0x604>
 10089e0:	01400404 	movi	r5,16
 10089e4:	2805883a 	mov	r2,r5
 10089e8:	003fa806 	br	100888c <__udivdi3+0x200>
 10089ec:	3d85c83a 	sub	r2,r7,r22
 10089f0:	3588983a 	sll	r4,r6,r22
 10089f4:	9886d83a 	srl	r3,r19,r2
 10089f8:	a8a2d83a 	srl	r17,r21,r2
 10089fc:	e084d83a 	srl	r2,fp,r2
 1008a00:	20eeb03a 	or	r23,r4,r3
 1008a04:	b824d43a 	srli	r18,r23,16
 1008a08:	ad86983a 	sll	r3,r21,r22
 1008a0c:	8809883a 	mov	r4,r17
 1008a10:	900b883a 	mov	r5,r18
 1008a14:	1886b03a 	or	r3,r3,r2
 1008a18:	d8c00115 	stw	r3,4(sp)
 1008a1c:	bc3fffcc 	andi	r16,r23,65535
 1008a20:	100a5c00 	call	100a5c0 <__udivsi3>
 1008a24:	100b883a 	mov	r5,r2
 1008a28:	8009883a 	mov	r4,r16
 1008a2c:	1029883a 	mov	r20,r2
 1008a30:	1000a8c0 	call	1000a8c <__mulsi3>
 1008a34:	900b883a 	mov	r5,r18
 1008a38:	8809883a 	mov	r4,r17
 1008a3c:	102b883a 	mov	r21,r2
 1008a40:	100a5c80 	call	100a5c8 <__umodsi3>
 1008a44:	d9400117 	ldw	r5,4(sp)
 1008a48:	1004943a 	slli	r2,r2,16
 1008a4c:	9da6983a 	sll	r19,r19,r22
 1008a50:	2806d43a 	srli	r3,r5,16
 1008a54:	10c4b03a 	or	r2,r2,r3
 1008a58:	1540032e 	bgeu	r2,r21,1008a68 <__udivdi3+0x3dc>
 1008a5c:	15c5883a 	add	r2,r2,r23
 1008a60:	a53fffc4 	addi	r20,r20,-1
 1008a64:	15c0912e 	bgeu	r2,r23,1008cac <__udivdi3+0x620>
 1008a68:	1563c83a 	sub	r17,r2,r21
 1008a6c:	8809883a 	mov	r4,r17
 1008a70:	900b883a 	mov	r5,r18
 1008a74:	100a5c00 	call	100a5c0 <__udivsi3>
 1008a78:	100b883a 	mov	r5,r2
 1008a7c:	8009883a 	mov	r4,r16
 1008a80:	102b883a 	mov	r21,r2
 1008a84:	1000a8c0 	call	1000a8c <__mulsi3>
 1008a88:	8809883a 	mov	r4,r17
 1008a8c:	900b883a 	mov	r5,r18
 1008a90:	1021883a 	mov	r16,r2
 1008a94:	100a5c80 	call	100a5c8 <__umodsi3>
 1008a98:	da800117 	ldw	r10,4(sp)
 1008a9c:	1004943a 	slli	r2,r2,16
 1008aa0:	50ffffcc 	andi	r3,r10,65535
 1008aa4:	10c6b03a 	or	r3,r2,r3
 1008aa8:	1c00032e 	bgeu	r3,r16,1008ab8 <__udivdi3+0x42c>
 1008aac:	1dc7883a 	add	r3,r3,r23
 1008ab0:	ad7fffc4 	addi	r21,r21,-1
 1008ab4:	1dc0792e 	bgeu	r3,r23,1008c9c <__udivdi3+0x610>
 1008ab8:	a004943a 	slli	r2,r20,16
 1008abc:	982ed43a 	srli	r23,r19,16
 1008ac0:	9cffffcc 	andi	r19,r19,65535
 1008ac4:	a8a4b03a 	or	r18,r21,r2
 1008ac8:	947fffcc 	andi	r17,r18,65535
 1008acc:	902ad43a 	srli	r21,r18,16
 1008ad0:	8809883a 	mov	r4,r17
 1008ad4:	980b883a 	mov	r5,r19
 1008ad8:	1c21c83a 	sub	r16,r3,r16
 1008adc:	1000a8c0 	call	1000a8c <__mulsi3>
 1008ae0:	8809883a 	mov	r4,r17
 1008ae4:	b80b883a 	mov	r5,r23
 1008ae8:	1029883a 	mov	r20,r2
 1008aec:	1000a8c0 	call	1000a8c <__mulsi3>
 1008af0:	980b883a 	mov	r5,r19
 1008af4:	a809883a 	mov	r4,r21
 1008af8:	1023883a 	mov	r17,r2
 1008afc:	1000a8c0 	call	1000a8c <__mulsi3>
 1008b00:	a809883a 	mov	r4,r21
 1008b04:	b80b883a 	mov	r5,r23
 1008b08:	1027883a 	mov	r19,r2
 1008b0c:	1000a8c0 	call	1000a8c <__mulsi3>
 1008b10:	1009883a 	mov	r4,r2
 1008b14:	a004d43a 	srli	r2,r20,16
 1008b18:	8ce3883a 	add	r17,r17,r19
 1008b1c:	1447883a 	add	r3,r2,r17
 1008b20:	1cc0022e 	bgeu	r3,r19,1008b2c <__udivdi3+0x4a0>
 1008b24:	00800074 	movhi	r2,1
 1008b28:	2089883a 	add	r4,r4,r2
 1008b2c:	1804d43a 	srli	r2,r3,16
 1008b30:	2085883a 	add	r2,r4,r2
 1008b34:	80804436 	bltu	r16,r2,1008c48 <__udivdi3+0x5bc>
 1008b38:	80803e26 	beq	r16,r2,1008c34 <__udivdi3+0x5a8>
 1008b3c:	9005883a 	mov	r2,r18
 1008b40:	0009883a 	mov	r4,zero
 1008b44:	003f3a06 	br	1008830 <__udivdi3+0x1a4>
 1008b48:	9d26983a 	sll	r19,r19,r20
 1008b4c:	3505c83a 	sub	r2,r6,r20
 1008b50:	a8a2d83a 	srl	r17,r21,r2
 1008b54:	982ed43a 	srli	r23,r19,16
 1008b58:	e084d83a 	srl	r2,fp,r2
 1008b5c:	ad06983a 	sll	r3,r21,r20
 1008b60:	8809883a 	mov	r4,r17
 1008b64:	b80b883a 	mov	r5,r23
 1008b68:	1886b03a 	or	r3,r3,r2
 1008b6c:	d8c00015 	stw	r3,0(sp)
 1008b70:	9dbfffcc 	andi	r22,r19,65535
 1008b74:	100a5c00 	call	100a5c0 <__udivsi3>
 1008b78:	100b883a 	mov	r5,r2
 1008b7c:	b009883a 	mov	r4,r22
 1008b80:	d8800215 	stw	r2,8(sp)
 1008b84:	1000a8c0 	call	1000a8c <__mulsi3>
 1008b88:	8809883a 	mov	r4,r17
 1008b8c:	b80b883a 	mov	r5,r23
 1008b90:	102b883a 	mov	r21,r2
 1008b94:	100a5c80 	call	100a5c8 <__umodsi3>
 1008b98:	d9000017 	ldw	r4,0(sp)
 1008b9c:	1004943a 	slli	r2,r2,16
 1008ba0:	2006d43a 	srli	r3,r4,16
 1008ba4:	10c4b03a 	or	r2,r2,r3
 1008ba8:	1540052e 	bgeu	r2,r21,1008bc0 <__udivdi3+0x534>
 1008bac:	d9400217 	ldw	r5,8(sp)
 1008bb0:	14c5883a 	add	r2,r2,r19
 1008bb4:	297fffc4 	addi	r5,r5,-1
 1008bb8:	d9400215 	stw	r5,8(sp)
 1008bbc:	14c0462e 	bgeu	r2,r19,1008cd8 <__udivdi3+0x64c>
 1008bc0:	1563c83a 	sub	r17,r2,r21
 1008bc4:	8809883a 	mov	r4,r17
 1008bc8:	b80b883a 	mov	r5,r23
 1008bcc:	100a5c00 	call	100a5c0 <__udivsi3>
 1008bd0:	100b883a 	mov	r5,r2
 1008bd4:	b009883a 	mov	r4,r22
 1008bd8:	1025883a 	mov	r18,r2
 1008bdc:	1000a8c0 	call	1000a8c <__mulsi3>
 1008be0:	8809883a 	mov	r4,r17
 1008be4:	b80b883a 	mov	r5,r23
 1008be8:	1021883a 	mov	r16,r2
 1008bec:	100a5c80 	call	100a5c8 <__umodsi3>
 1008bf0:	da800017 	ldw	r10,0(sp)
 1008bf4:	1004943a 	slli	r2,r2,16
 1008bf8:	50ffffcc 	andi	r3,r10,65535
 1008bfc:	10c6b03a 	or	r3,r2,r3
 1008c00:	1c00062e 	bgeu	r3,r16,1008c1c <__udivdi3+0x590>
 1008c04:	1cc7883a 	add	r3,r3,r19
 1008c08:	94bfffc4 	addi	r18,r18,-1
 1008c0c:	1cc00336 	bltu	r3,r19,1008c1c <__udivdi3+0x590>
 1008c10:	1c00022e 	bgeu	r3,r16,1008c1c <__udivdi3+0x590>
 1008c14:	94bfffc4 	addi	r18,r18,-1
 1008c18:	1cc7883a 	add	r3,r3,r19
 1008c1c:	d9000217 	ldw	r4,8(sp)
 1008c20:	e538983a 	sll	fp,fp,r20
 1008c24:	1c2bc83a 	sub	r21,r3,r16
 1008c28:	2004943a 	slli	r2,r4,16
 1008c2c:	90a8b03a 	or	r20,r18,r2
 1008c30:	003ebf06 	br	1008730 <__udivdi3+0xa4>
 1008c34:	1804943a 	slli	r2,r3,16
 1008c38:	e588983a 	sll	r4,fp,r22
 1008c3c:	a0ffffcc 	andi	r3,r20,65535
 1008c40:	10c5883a 	add	r2,r2,r3
 1008c44:	20bfbd2e 	bgeu	r4,r2,1008b3c <__udivdi3+0x4b0>
 1008c48:	90bfffc4 	addi	r2,r18,-1
 1008c4c:	0009883a 	mov	r4,zero
 1008c50:	003ef706 	br	1008830 <__udivdi3+0x1a4>
 1008c54:	01400204 	movi	r5,8
 1008c58:	2805883a 	mov	r2,r5
 1008c5c:	003ee706 	br	10087fc <__udivdi3+0x170>
 1008c60:	01400604 	movi	r5,24
 1008c64:	2805883a 	mov	r2,r5
 1008c68:	003ee406 	br	10087fc <__udivdi3+0x170>
 1008c6c:	01400204 	movi	r5,8
 1008c70:	2805883a 	mov	r2,r5
 1008c74:	003ea106 	br	10086fc <__udivdi3+0x70>
 1008c78:	01400604 	movi	r5,24
 1008c7c:	2805883a 	mov	r2,r5
 1008c80:	003e9e06 	br	10086fc <__udivdi3+0x70>
 1008c84:	01400204 	movi	r5,8
 1008c88:	2805883a 	mov	r2,r5
 1008c8c:	003eff06 	br	100888c <__udivdi3+0x200>
 1008c90:	01400604 	movi	r5,24
 1008c94:	2805883a 	mov	r2,r5
 1008c98:	003efc06 	br	100888c <__udivdi3+0x200>
 1008c9c:	1c3f862e 	bgeu	r3,r16,1008ab8 <__udivdi3+0x42c>
 1008ca0:	1dc7883a 	add	r3,r3,r23
 1008ca4:	ad7fffc4 	addi	r21,r21,-1
 1008ca8:	003f8306 	br	1008ab8 <__udivdi3+0x42c>
 1008cac:	157f6e2e 	bgeu	r2,r21,1008a68 <__udivdi3+0x3dc>
 1008cb0:	a53fffc4 	addi	r20,r20,-1
 1008cb4:	15c5883a 	add	r2,r2,r23
 1008cb8:	003f6b06 	br	1008a68 <__udivdi3+0x3dc>
 1008cbc:	ad7fffc4 	addi	r21,r21,-1
 1008cc0:	003ec206 	br	10087cc <__udivdi3+0x140>
 1008cc4:	843fffc4 	addi	r16,r16,-1
 1008cc8:	14c5883a 	add	r2,r2,r19
 1008ccc:	003f1306 	br	100891c <__udivdi3+0x290>
 1008cd0:	ad7fffc4 	addi	r21,r21,-1
 1008cd4:	003f2506 	br	100896c <__udivdi3+0x2e0>
 1008cd8:	157fb92e 	bgeu	r2,r21,1008bc0 <__udivdi3+0x534>
 1008cdc:	297fffc4 	addi	r5,r5,-1
 1008ce0:	14c5883a 	add	r2,r2,r19
 1008ce4:	d9400215 	stw	r5,8(sp)
 1008ce8:	003fb506 	br	1008bc0 <__udivdi3+0x534>
 1008cec:	843fffc4 	addi	r16,r16,-1
 1008cf0:	14c5883a 	add	r2,r2,r19
 1008cf4:	003ea106 	br	100877c <__udivdi3+0xf0>

01008cf8 <__umoddi3>:
 1008cf8:	defff004 	addi	sp,sp,-64
 1008cfc:	3011883a 	mov	r8,r6
 1008d00:	000d883a 	mov	r6,zero
 1008d04:	dd400b15 	stw	r21,44(sp)
 1008d08:	dcc00915 	stw	r19,36(sp)
 1008d0c:	dc000615 	stw	r16,24(sp)
 1008d10:	dfc00f15 	stw	ra,60(sp)
 1008d14:	df000e15 	stw	fp,56(sp)
 1008d18:	ddc00d15 	stw	r23,52(sp)
 1008d1c:	dd800c15 	stw	r22,48(sp)
 1008d20:	dd000a15 	stw	r20,40(sp)
 1008d24:	dc800815 	stw	r18,32(sp)
 1008d28:	dc400715 	stw	r17,28(sp)
 1008d2c:	2817883a 	mov	r11,r5
 1008d30:	d9800415 	stw	r6,16(sp)
 1008d34:	4027883a 	mov	r19,r8
 1008d38:	d9800515 	stw	r6,20(sp)
 1008d3c:	2021883a 	mov	r16,r4
 1008d40:	282b883a 	mov	r21,r5
 1008d44:	38002c1e 	bne	r7,zero,1008df8 <__umoddi3+0x100>
 1008d48:	2a005636 	bltu	r5,r8,1008ea4 <__umoddi3+0x1ac>
 1008d4c:	40009a26 	beq	r8,zero,1008fb8 <__umoddi3+0x2c0>
 1008d50:	00bfffd4 	movui	r2,65535
 1008d54:	14c09236 	bltu	r2,r19,1008fa0 <__umoddi3+0x2a8>
 1008d58:	00803fc4 	movi	r2,255
 1008d5c:	14c15c36 	bltu	r2,r19,10092d0 <__umoddi3+0x5d8>
 1008d60:	000b883a 	mov	r5,zero
 1008d64:	0005883a 	mov	r2,zero
 1008d68:	9884d83a 	srl	r2,r19,r2
 1008d6c:	01004074 	movhi	r4,257
 1008d70:	2136b404 	addi	r4,r4,-9520
 1008d74:	01800804 	movi	r6,32
 1008d78:	1105883a 	add	r2,r2,r4
 1008d7c:	10c00003 	ldbu	r3,0(r2)
 1008d80:	28c7883a 	add	r3,r5,r3
 1008d84:	30e5c83a 	sub	r18,r6,r3
 1008d88:	9000a41e 	bne	r18,zero,100901c <__umoddi3+0x324>
 1008d8c:	982ed43a 	srli	r23,r19,16
 1008d90:	acebc83a 	sub	r21,r21,r19
 1008d94:	9d3fffcc 	andi	r20,r19,65535
 1008d98:	002d883a 	mov	r22,zero
 1008d9c:	a809883a 	mov	r4,r21
 1008da0:	b80b883a 	mov	r5,r23
 1008da4:	100a5c00 	call	100a5c0 <__udivsi3>
 1008da8:	100b883a 	mov	r5,r2
 1008dac:	a009883a 	mov	r4,r20
 1008db0:	1000a8c0 	call	1000a8c <__mulsi3>
 1008db4:	a809883a 	mov	r4,r21
 1008db8:	b80b883a 	mov	r5,r23
 1008dbc:	1023883a 	mov	r17,r2
 1008dc0:	100a5c80 	call	100a5c8 <__umodsi3>
 1008dc4:	1004943a 	slli	r2,r2,16
 1008dc8:	8006d43a 	srli	r3,r16,16
 1008dcc:	10c4b03a 	or	r2,r2,r3
 1008dd0:	1440032e 	bgeu	r2,r17,1008de0 <__umoddi3+0xe8>
 1008dd4:	14c5883a 	add	r2,r2,r19
 1008dd8:	14c00136 	bltu	r2,r19,1008de0 <__umoddi3+0xe8>
 1008ddc:	14415836 	bltu	r2,r17,1009340 <__umoddi3+0x648>
 1008de0:	1463c83a 	sub	r17,r2,r17
 1008de4:	8809883a 	mov	r4,r17
 1008de8:	b80b883a 	mov	r5,r23
 1008dec:	100a5c00 	call	100a5c0 <__udivsi3>
 1008df0:	a009883a 	mov	r4,r20
 1008df4:	00005306 	br	1008f44 <__umoddi3+0x24c>
 1008df8:	380d883a 	mov	r6,r7
 1008dfc:	29c0132e 	bgeu	r5,r7,1008e4c <__umoddi3+0x154>
 1008e00:	d9000415 	stw	r4,16(sp)
 1008e04:	d9400515 	stw	r5,20(sp)
 1008e08:	d9400417 	ldw	r5,16(sp)
 1008e0c:	5813883a 	mov	r9,r11
 1008e10:	2811883a 	mov	r8,r5
 1008e14:	4005883a 	mov	r2,r8
 1008e18:	4807883a 	mov	r3,r9
 1008e1c:	dfc00f17 	ldw	ra,60(sp)
 1008e20:	df000e17 	ldw	fp,56(sp)
 1008e24:	ddc00d17 	ldw	r23,52(sp)
 1008e28:	dd800c17 	ldw	r22,48(sp)
 1008e2c:	dd400b17 	ldw	r21,44(sp)
 1008e30:	dd000a17 	ldw	r20,40(sp)
 1008e34:	dcc00917 	ldw	r19,36(sp)
 1008e38:	dc800817 	ldw	r18,32(sp)
 1008e3c:	dc400717 	ldw	r17,28(sp)
 1008e40:	dc000617 	ldw	r16,24(sp)
 1008e44:	dec01004 	addi	sp,sp,64
 1008e48:	f800283a 	ret
 1008e4c:	00bfffd4 	movui	r2,65535
 1008e50:	11c06636 	bltu	r2,r7,1008fec <__umoddi3+0x2f4>
 1008e54:	00803fc4 	movi	r2,255
 1008e58:	11c12036 	bltu	r2,r7,10092dc <__umoddi3+0x5e4>
 1008e5c:	000b883a 	mov	r5,zero
 1008e60:	0005883a 	mov	r2,zero
 1008e64:	3084d83a 	srl	r2,r6,r2
 1008e68:	01004074 	movhi	r4,257
 1008e6c:	2136b404 	addi	r4,r4,-9520
 1008e70:	01c00804 	movi	r7,32
 1008e74:	1105883a 	add	r2,r2,r4
 1008e78:	10c00003 	ldbu	r3,0(r2)
 1008e7c:	28c7883a 	add	r3,r5,r3
 1008e80:	38e5c83a 	sub	r18,r7,r3
 1008e84:	9000941e 	bne	r18,zero,10090d8 <__umoddi3+0x3e0>
 1008e88:	35405e36 	bltu	r6,r21,1009004 <__umoddi3+0x30c>
 1008e8c:	84c05d2e 	bgeu	r16,r19,1009004 <__umoddi3+0x30c>
 1008e90:	8011883a 	mov	r8,r16
 1008e94:	a813883a 	mov	r9,r21
 1008e98:	dc000415 	stw	r16,16(sp)
 1008e9c:	dd400515 	stw	r21,20(sp)
 1008ea0:	003fdc06 	br	1008e14 <__umoddi3+0x11c>
 1008ea4:	00bfffd4 	movui	r2,65535
 1008ea8:	12004a36 	bltu	r2,r8,1008fd4 <__umoddi3+0x2dc>
 1008eac:	00803fc4 	movi	r2,255
 1008eb0:	12010d36 	bltu	r2,r8,10092e8 <__umoddi3+0x5f0>
 1008eb4:	000b883a 	mov	r5,zero
 1008eb8:	0005883a 	mov	r2,zero
 1008ebc:	9884d83a 	srl	r2,r19,r2
 1008ec0:	01004074 	movhi	r4,257
 1008ec4:	2136b404 	addi	r4,r4,-9520
 1008ec8:	01800804 	movi	r6,32
 1008ecc:	1105883a 	add	r2,r2,r4
 1008ed0:	10c00003 	ldbu	r3,0(r2)
 1008ed4:	28c7883a 	add	r3,r5,r3
 1008ed8:	30c7c83a 	sub	r3,r6,r3
 1008edc:	1800dc1e 	bne	r3,zero,1009250 <__umoddi3+0x558>
 1008ee0:	002d883a 	mov	r22,zero
 1008ee4:	982ed43a 	srli	r23,r19,16
 1008ee8:	a809883a 	mov	r4,r21
 1008eec:	9cbfffcc 	andi	r18,r19,65535
 1008ef0:	b80b883a 	mov	r5,r23
 1008ef4:	100a5c00 	call	100a5c0 <__udivsi3>
 1008ef8:	100b883a 	mov	r5,r2
 1008efc:	9009883a 	mov	r4,r18
 1008f00:	1000a8c0 	call	1000a8c <__mulsi3>
 1008f04:	a809883a 	mov	r4,r21
 1008f08:	b80b883a 	mov	r5,r23
 1008f0c:	1023883a 	mov	r17,r2
 1008f10:	100a5c80 	call	100a5c8 <__umodsi3>
 1008f14:	1004943a 	slli	r2,r2,16
 1008f18:	8006d43a 	srli	r3,r16,16
 1008f1c:	10c4b03a 	or	r2,r2,r3
 1008f20:	1440032e 	bgeu	r2,r17,1008f30 <__umoddi3+0x238>
 1008f24:	14c5883a 	add	r2,r2,r19
 1008f28:	14c00136 	bltu	r2,r19,1008f30 <__umoddi3+0x238>
 1008f2c:	14410236 	bltu	r2,r17,1009338 <__umoddi3+0x640>
 1008f30:	1463c83a 	sub	r17,r2,r17
 1008f34:	8809883a 	mov	r4,r17
 1008f38:	b80b883a 	mov	r5,r23
 1008f3c:	100a5c00 	call	100a5c0 <__udivsi3>
 1008f40:	9009883a 	mov	r4,r18
 1008f44:	100b883a 	mov	r5,r2
 1008f48:	1000a8c0 	call	1000a8c <__mulsi3>
 1008f4c:	8809883a 	mov	r4,r17
 1008f50:	b80b883a 	mov	r5,r23
 1008f54:	102b883a 	mov	r21,r2
 1008f58:	100a5c80 	call	100a5c8 <__umodsi3>
 1008f5c:	1004943a 	slli	r2,r2,16
 1008f60:	80ffffcc 	andi	r3,r16,65535
 1008f64:	10c4b03a 	or	r2,r2,r3
 1008f68:	1540042e 	bgeu	r2,r21,1008f7c <__umoddi3+0x284>
 1008f6c:	14c5883a 	add	r2,r2,r19
 1008f70:	14c00236 	bltu	r2,r19,1008f7c <__umoddi3+0x284>
 1008f74:	1540012e 	bgeu	r2,r21,1008f7c <__umoddi3+0x284>
 1008f78:	14c5883a 	add	r2,r2,r19
 1008f7c:	1545c83a 	sub	r2,r2,r21
 1008f80:	1584d83a 	srl	r2,r2,r22
 1008f84:	0013883a 	mov	r9,zero
 1008f88:	d8800415 	stw	r2,16(sp)
 1008f8c:	d8c00417 	ldw	r3,16(sp)
 1008f90:	0005883a 	mov	r2,zero
 1008f94:	d8800515 	stw	r2,20(sp)
 1008f98:	1811883a 	mov	r8,r3
 1008f9c:	003f9d06 	br	1008e14 <__umoddi3+0x11c>
 1008fa0:	00804034 	movhi	r2,256
 1008fa4:	10bfffc4 	addi	r2,r2,-1
 1008fa8:	14c0c636 	bltu	r2,r19,10092c4 <__umoddi3+0x5cc>
 1008fac:	01400404 	movi	r5,16
 1008fb0:	2805883a 	mov	r2,r5
 1008fb4:	003f6c06 	br	1008d68 <__umoddi3+0x70>
 1008fb8:	01000044 	movi	r4,1
 1008fbc:	000b883a 	mov	r5,zero
 1008fc0:	100a5c00 	call	100a5c0 <__udivsi3>
 1008fc4:	1027883a 	mov	r19,r2
 1008fc8:	00bfffd4 	movui	r2,65535
 1008fcc:	14fff436 	bltu	r2,r19,1008fa0 <__umoddi3+0x2a8>
 1008fd0:	003f6106 	br	1008d58 <__umoddi3+0x60>
 1008fd4:	00804034 	movhi	r2,256
 1008fd8:	10bfffc4 	addi	r2,r2,-1
 1008fdc:	1200c536 	bltu	r2,r8,10092f4 <__umoddi3+0x5fc>
 1008fe0:	01400404 	movi	r5,16
 1008fe4:	2805883a 	mov	r2,r5
 1008fe8:	003fb406 	br	1008ebc <__umoddi3+0x1c4>
 1008fec:	00804034 	movhi	r2,256
 1008ff0:	10bfffc4 	addi	r2,r2,-1
 1008ff4:	11c0c236 	bltu	r2,r7,1009300 <__umoddi3+0x608>
 1008ff8:	01400404 	movi	r5,16
 1008ffc:	2805883a 	mov	r2,r5
 1009000:	003f9806 	br	1008e64 <__umoddi3+0x16c>
 1009004:	84c9c83a 	sub	r4,r16,r19
 1009008:	8105803a 	cmpltu	r2,r16,r4
 100900c:	a987c83a 	sub	r3,r21,r6
 1009010:	18abc83a 	sub	r21,r3,r2
 1009014:	2021883a 	mov	r16,r4
 1009018:	003f9d06 	br	1008e90 <__umoddi3+0x198>
 100901c:	9ca6983a 	sll	r19,r19,r18
 1009020:	3485c83a 	sub	r2,r6,r18
 1009024:	a8a2d83a 	srl	r17,r21,r2
 1009028:	982ed43a 	srli	r23,r19,16
 100902c:	ac86983a 	sll	r3,r21,r18
 1009030:	8084d83a 	srl	r2,r16,r2
 1009034:	8809883a 	mov	r4,r17
 1009038:	b80b883a 	mov	r5,r23
 100903c:	18b8b03a 	or	fp,r3,r2
 1009040:	9d3fffcc 	andi	r20,r19,65535
 1009044:	100a5c00 	call	100a5c0 <__udivsi3>
 1009048:	100b883a 	mov	r5,r2
 100904c:	a009883a 	mov	r4,r20
 1009050:	1000a8c0 	call	1000a8c <__mulsi3>
 1009054:	8809883a 	mov	r4,r17
 1009058:	b80b883a 	mov	r5,r23
 100905c:	102b883a 	mov	r21,r2
 1009060:	100a5c80 	call	100a5c8 <__umodsi3>
 1009064:	1004943a 	slli	r2,r2,16
 1009068:	e006d43a 	srli	r3,fp,16
 100906c:	902d883a 	mov	r22,r18
 1009070:	10c4b03a 	or	r2,r2,r3
 1009074:	1540022e 	bgeu	r2,r21,1009080 <__umoddi3+0x388>
 1009078:	14c5883a 	add	r2,r2,r19
 100907c:	14c0ab2e 	bgeu	r2,r19,100932c <__umoddi3+0x634>
 1009080:	1563c83a 	sub	r17,r2,r21
 1009084:	8809883a 	mov	r4,r17
 1009088:	b80b883a 	mov	r5,r23
 100908c:	100a5c00 	call	100a5c0 <__udivsi3>
 1009090:	100b883a 	mov	r5,r2
 1009094:	a009883a 	mov	r4,r20
 1009098:	1000a8c0 	call	1000a8c <__mulsi3>
 100909c:	8809883a 	mov	r4,r17
 10090a0:	b80b883a 	mov	r5,r23
 10090a4:	102b883a 	mov	r21,r2
 10090a8:	100a5c80 	call	100a5c8 <__umodsi3>
 10090ac:	1004943a 	slli	r2,r2,16
 10090b0:	e0ffffcc 	andi	r3,fp,65535
 10090b4:	10c4b03a 	or	r2,r2,r3
 10090b8:	1540042e 	bgeu	r2,r21,10090cc <__umoddi3+0x3d4>
 10090bc:	14c5883a 	add	r2,r2,r19
 10090c0:	14c00236 	bltu	r2,r19,10090cc <__umoddi3+0x3d4>
 10090c4:	1540012e 	bgeu	r2,r21,10090cc <__umoddi3+0x3d4>
 10090c8:	14c5883a 	add	r2,r2,r19
 10090cc:	84a0983a 	sll	r16,r16,r18
 10090d0:	156bc83a 	sub	r21,r2,r21
 10090d4:	003f3106 	br	1008d9c <__umoddi3+0xa4>
 10090d8:	3c8fc83a 	sub	r7,r7,r18
 10090dc:	3486983a 	sll	r3,r6,r18
 10090e0:	99c4d83a 	srl	r2,r19,r7
 10090e4:	a9e2d83a 	srl	r17,r21,r7
 10090e8:	ac8c983a 	sll	r6,r21,r18
 10090ec:	18acb03a 	or	r22,r3,r2
 10090f0:	b02ed43a 	srli	r23,r22,16
 10090f4:	81c4d83a 	srl	r2,r16,r7
 10090f8:	8809883a 	mov	r4,r17
 10090fc:	b80b883a 	mov	r5,r23
 1009100:	308cb03a 	or	r6,r6,r2
 1009104:	d9c00315 	stw	r7,12(sp)
 1009108:	d9800215 	stw	r6,8(sp)
 100910c:	b53fffcc 	andi	r20,r22,65535
 1009110:	100a5c00 	call	100a5c0 <__udivsi3>
 1009114:	100b883a 	mov	r5,r2
 1009118:	a009883a 	mov	r4,r20
 100911c:	1039883a 	mov	fp,r2
 1009120:	1000a8c0 	call	1000a8c <__mulsi3>
 1009124:	8809883a 	mov	r4,r17
 1009128:	b80b883a 	mov	r5,r23
 100912c:	102b883a 	mov	r21,r2
 1009130:	100a5c80 	call	100a5c8 <__umodsi3>
 1009134:	d9000217 	ldw	r4,8(sp)
 1009138:	1004943a 	slli	r2,r2,16
 100913c:	9ca6983a 	sll	r19,r19,r18
 1009140:	2006d43a 	srli	r3,r4,16
 1009144:	84a0983a 	sll	r16,r16,r18
 1009148:	dcc00015 	stw	r19,0(sp)
 100914c:	10c4b03a 	or	r2,r2,r3
 1009150:	dc000115 	stw	r16,4(sp)
 1009154:	1540032e 	bgeu	r2,r21,1009164 <__umoddi3+0x46c>
 1009158:	1585883a 	add	r2,r2,r22
 100915c:	e73fffc4 	addi	fp,fp,-1
 1009160:	15806e2e 	bgeu	r2,r22,100931c <__umoddi3+0x624>
 1009164:	1563c83a 	sub	r17,r2,r21
 1009168:	8809883a 	mov	r4,r17
 100916c:	b80b883a 	mov	r5,r23
 1009170:	100a5c00 	call	100a5c0 <__udivsi3>
 1009174:	100b883a 	mov	r5,r2
 1009178:	a009883a 	mov	r4,r20
 100917c:	1021883a 	mov	r16,r2
 1009180:	1000a8c0 	call	1000a8c <__mulsi3>
 1009184:	b80b883a 	mov	r5,r23
 1009188:	8809883a 	mov	r4,r17
 100918c:	1029883a 	mov	r20,r2
 1009190:	100a5c80 	call	100a5c8 <__umodsi3>
 1009194:	d9400217 	ldw	r5,8(sp)
 1009198:	1004943a 	slli	r2,r2,16
 100919c:	28ffffcc 	andi	r3,r5,65535
 10091a0:	10c4b03a 	or	r2,r2,r3
 10091a4:	1500032e 	bgeu	r2,r20,10091b4 <__umoddi3+0x4bc>
 10091a8:	1585883a 	add	r2,r2,r22
 10091ac:	843fffc4 	addi	r16,r16,-1
 10091b0:	1580562e 	bgeu	r2,r22,100930c <__umoddi3+0x614>
 10091b4:	d9800017 	ldw	r6,0(sp)
 10091b8:	e022943a 	slli	r17,fp,16
 10091bc:	302ed43a 	srli	r23,r6,16
 10091c0:	8462b03a 	or	r17,r16,r17
 10091c4:	34ffffcc 	andi	r19,r6,65535
 10091c8:	882ad43a 	srli	r21,r17,16
 10091cc:	8c7fffcc 	andi	r17,r17,65535
 10091d0:	8809883a 	mov	r4,r17
 10091d4:	980b883a 	mov	r5,r19
 10091d8:	1521c83a 	sub	r16,r2,r20
 10091dc:	1000a8c0 	call	1000a8c <__mulsi3>
 10091e0:	8809883a 	mov	r4,r17
 10091e4:	b80b883a 	mov	r5,r23
 10091e8:	1029883a 	mov	r20,r2
 10091ec:	1000a8c0 	call	1000a8c <__mulsi3>
 10091f0:	980b883a 	mov	r5,r19
 10091f4:	a809883a 	mov	r4,r21
 10091f8:	1023883a 	mov	r17,r2
 10091fc:	1000a8c0 	call	1000a8c <__mulsi3>
 1009200:	a809883a 	mov	r4,r21
 1009204:	b80b883a 	mov	r5,r23
 1009208:	1027883a 	mov	r19,r2
 100920c:	1000a8c0 	call	1000a8c <__mulsi3>
 1009210:	100b883a 	mov	r5,r2
 1009214:	a004d43a 	srli	r2,r20,16
 1009218:	8ce3883a 	add	r17,r17,r19
 100921c:	1449883a 	add	r4,r2,r17
 1009220:	24c0022e 	bgeu	r4,r19,100922c <__umoddi3+0x534>
 1009224:	00800074 	movhi	r2,1
 1009228:	288b883a 	add	r5,r5,r2
 100922c:	2004d43a 	srli	r2,r4,16
 1009230:	2008943a 	slli	r4,r4,16
 1009234:	a0ffffcc 	andi	r3,r20,65535
 1009238:	288d883a 	add	r6,r5,r2
 100923c:	20c9883a 	add	r4,r4,r3
 1009240:	81800b36 	bltu	r16,r6,1009270 <__umoddi3+0x578>
 1009244:	81804026 	beq	r16,r6,1009348 <__umoddi3+0x650>
 1009248:	818dc83a 	sub	r6,r16,r6
 100924c:	00000f06 	br	100928c <__umoddi3+0x594>
 1009250:	30c5c83a 	sub	r2,r6,r3
 1009254:	182d883a 	mov	r22,r3
 1009258:	8084d83a 	srl	r2,r16,r2
 100925c:	a8c6983a 	sll	r3,r21,r3
 1009260:	9da6983a 	sll	r19,r19,r22
 1009264:	85a0983a 	sll	r16,r16,r22
 1009268:	18aab03a 	or	r21,r3,r2
 100926c:	003f1d06 	br	1008ee4 <__umoddi3+0x1ec>
 1009270:	d8c00017 	ldw	r3,0(sp)
 1009274:	20c5c83a 	sub	r2,r4,r3
 1009278:	2089803a 	cmpltu	r4,r4,r2
 100927c:	3587c83a 	sub	r3,r6,r22
 1009280:	1907c83a 	sub	r3,r3,r4
 1009284:	80cdc83a 	sub	r6,r16,r3
 1009288:	1009883a 	mov	r4,r2
 100928c:	d9400117 	ldw	r5,4(sp)
 1009290:	2905c83a 	sub	r2,r5,r4
 1009294:	2887803a 	cmpltu	r3,r5,r2
 1009298:	30c7c83a 	sub	r3,r6,r3
 100929c:	d9800317 	ldw	r6,12(sp)
 10092a0:	1484d83a 	srl	r2,r2,r18
 10092a4:	1988983a 	sll	r4,r3,r6
 10092a8:	1c86d83a 	srl	r3,r3,r18
 10092ac:	2088b03a 	or	r4,r4,r2
 10092b0:	2011883a 	mov	r8,r4
 10092b4:	1813883a 	mov	r9,r3
 10092b8:	d9000415 	stw	r4,16(sp)
 10092bc:	d8c00515 	stw	r3,20(sp)
 10092c0:	003ed406 	br	1008e14 <__umoddi3+0x11c>
 10092c4:	01400604 	movi	r5,24
 10092c8:	2805883a 	mov	r2,r5
 10092cc:	003ea606 	br	1008d68 <__umoddi3+0x70>
 10092d0:	01400204 	movi	r5,8
 10092d4:	2805883a 	mov	r2,r5
 10092d8:	003ea306 	br	1008d68 <__umoddi3+0x70>
 10092dc:	01400204 	movi	r5,8
 10092e0:	2805883a 	mov	r2,r5
 10092e4:	003edf06 	br	1008e64 <__umoddi3+0x16c>
 10092e8:	01400204 	movi	r5,8
 10092ec:	2805883a 	mov	r2,r5
 10092f0:	003ef206 	br	1008ebc <__umoddi3+0x1c4>
 10092f4:	01400604 	movi	r5,24
 10092f8:	2805883a 	mov	r2,r5
 10092fc:	003eef06 	br	1008ebc <__umoddi3+0x1c4>
 1009300:	01400604 	movi	r5,24
 1009304:	2805883a 	mov	r2,r5
 1009308:	003ed606 	br	1008e64 <__umoddi3+0x16c>
 100930c:	153fa92e 	bgeu	r2,r20,10091b4 <__umoddi3+0x4bc>
 1009310:	843fffc4 	addi	r16,r16,-1
 1009314:	1585883a 	add	r2,r2,r22
 1009318:	003fa606 	br	10091b4 <__umoddi3+0x4bc>
 100931c:	157f912e 	bgeu	r2,r21,1009164 <__umoddi3+0x46c>
 1009320:	e73fffc4 	addi	fp,fp,-1
 1009324:	1585883a 	add	r2,r2,r22
 1009328:	003f8e06 	br	1009164 <__umoddi3+0x46c>
 100932c:	157f542e 	bgeu	r2,r21,1009080 <__umoddi3+0x388>
 1009330:	14c5883a 	add	r2,r2,r19
 1009334:	003f5206 	br	1009080 <__umoddi3+0x388>
 1009338:	14c5883a 	add	r2,r2,r19
 100933c:	003efc06 	br	1008f30 <__umoddi3+0x238>
 1009340:	14c5883a 	add	r2,r2,r19
 1009344:	003ea606 	br	1008de0 <__umoddi3+0xe8>
 1009348:	d8800117 	ldw	r2,4(sp)
 100934c:	113fc836 	bltu	r2,r4,1009270 <__umoddi3+0x578>
 1009350:	000d883a 	mov	r6,zero
 1009354:	003fcd06 	br	100928c <__umoddi3+0x594>

01009358 <_fpadd_parts>:
 1009358:	defff804 	addi	sp,sp,-32
 100935c:	dcc00315 	stw	r19,12(sp)
 1009360:	2027883a 	mov	r19,r4
 1009364:	21000017 	ldw	r4,0(r4)
 1009368:	00c00044 	movi	r3,1
 100936c:	dd400515 	stw	r21,20(sp)
 1009370:	dd000415 	stw	r20,16(sp)
 1009374:	ddc00715 	stw	r23,28(sp)
 1009378:	dd800615 	stw	r22,24(sp)
 100937c:	dc800215 	stw	r18,8(sp)
 1009380:	dc400115 	stw	r17,4(sp)
 1009384:	dc000015 	stw	r16,0(sp)
 1009388:	282b883a 	mov	r21,r5
 100938c:	3029883a 	mov	r20,r6
 1009390:	1900632e 	bgeu	r3,r4,1009520 <_fpadd_parts+0x1c8>
 1009394:	28800017 	ldw	r2,0(r5)
 1009398:	1880812e 	bgeu	r3,r2,10095a0 <_fpadd_parts+0x248>
 100939c:	00c00104 	movi	r3,4
 10093a0:	20c0dc26 	beq	r4,r3,1009714 <_fpadd_parts+0x3bc>
 10093a4:	10c07e26 	beq	r2,r3,10095a0 <_fpadd_parts+0x248>
 10093a8:	00c00084 	movi	r3,2
 10093ac:	10c06726 	beq	r2,r3,100954c <_fpadd_parts+0x1f4>
 10093b0:	20c07b26 	beq	r4,r3,10095a0 <_fpadd_parts+0x248>
 10093b4:	9dc00217 	ldw	r23,8(r19)
 10093b8:	28c00217 	ldw	r3,8(r5)
 10093bc:	9c400317 	ldw	r17,12(r19)
 10093c0:	2bc00317 	ldw	r15,12(r5)
 10093c4:	b8cdc83a 	sub	r6,r23,r3
 10093c8:	9c800417 	ldw	r18,16(r19)
 10093cc:	2c000417 	ldw	r16,16(r5)
 10093d0:	3009883a 	mov	r4,r6
 10093d4:	30009716 	blt	r6,zero,1009634 <_fpadd_parts+0x2dc>
 10093d8:	00800fc4 	movi	r2,63
 10093dc:	11806b16 	blt	r2,r6,100958c <_fpadd_parts+0x234>
 10093e0:	0100a40e 	bge	zero,r4,1009674 <_fpadd_parts+0x31c>
 10093e4:	35bff804 	addi	r22,r6,-32
 10093e8:	b000bc16 	blt	r22,zero,10096dc <_fpadd_parts+0x384>
 10093ec:	8596d83a 	srl	r11,r16,r22
 10093f0:	0019883a 	mov	r12,zero
 10093f4:	0013883a 	mov	r9,zero
 10093f8:	01000044 	movi	r4,1
 10093fc:	0015883a 	mov	r10,zero
 1009400:	b000be16 	blt	r22,zero,10096fc <_fpadd_parts+0x3a4>
 1009404:	2590983a 	sll	r8,r4,r22
 1009408:	000f883a 	mov	r7,zero
 100940c:	00bfffc4 	movi	r2,-1
 1009410:	3889883a 	add	r4,r7,r2
 1009414:	408b883a 	add	r5,r8,r2
 1009418:	21cd803a 	cmpltu	r6,r4,r7
 100941c:	314b883a 	add	r5,r6,r5
 1009420:	7904703a 	and	r2,r15,r4
 1009424:	8146703a 	and	r3,r16,r5
 1009428:	10c4b03a 	or	r2,r2,r3
 100942c:	10000226 	beq	r2,zero,1009438 <_fpadd_parts+0xe0>
 1009430:	02400044 	movi	r9,1
 1009434:	0015883a 	mov	r10,zero
 1009438:	5a5eb03a 	or	r15,r11,r9
 100943c:	62a0b03a 	or	r16,r12,r10
 1009440:	99400117 	ldw	r5,4(r19)
 1009444:	a8800117 	ldw	r2,4(r21)
 1009448:	28806e26 	beq	r5,r2,1009604 <_fpadd_parts+0x2ac>
 100944c:	28006626 	beq	r5,zero,10095e8 <_fpadd_parts+0x290>
 1009450:	7c45c83a 	sub	r2,r15,r17
 1009454:	7889803a 	cmpltu	r4,r15,r2
 1009458:	8487c83a 	sub	r3,r16,r18
 100945c:	1909c83a 	sub	r4,r3,r4
 1009460:	100d883a 	mov	r6,r2
 1009464:	200f883a 	mov	r7,r4
 1009468:	38007716 	blt	r7,zero,1009648 <_fpadd_parts+0x2f0>
 100946c:	a5c00215 	stw	r23,8(r20)
 1009470:	a1c00415 	stw	r7,16(r20)
 1009474:	a0000115 	stw	zero,4(r20)
 1009478:	a1800315 	stw	r6,12(r20)
 100947c:	a2000317 	ldw	r8,12(r20)
 1009480:	a2400417 	ldw	r9,16(r20)
 1009484:	00bfffc4 	movi	r2,-1
 1009488:	408b883a 	add	r5,r8,r2
 100948c:	2a09803a 	cmpltu	r4,r5,r8
 1009490:	488d883a 	add	r6,r9,r2
 1009494:	01c40034 	movhi	r7,4096
 1009498:	39ffffc4 	addi	r7,r7,-1
 100949c:	218d883a 	add	r6,r4,r6
 10094a0:	39801736 	bltu	r7,r6,1009500 <_fpadd_parts+0x1a8>
 10094a4:	31c06526 	beq	r6,r7,100963c <_fpadd_parts+0x2e4>
 10094a8:	a3000217 	ldw	r12,8(r20)
 10094ac:	4209883a 	add	r4,r8,r8
 10094b0:	00bfffc4 	movi	r2,-1
 10094b4:	220f803a 	cmpltu	r7,r4,r8
 10094b8:	4a4b883a 	add	r5,r9,r9
 10094bc:	394f883a 	add	r7,r7,r5
 10094c0:	2095883a 	add	r10,r4,r2
 10094c4:	3897883a 	add	r11,r7,r2
 10094c8:	510d803a 	cmpltu	r6,r10,r4
 10094cc:	6099883a 	add	r12,r12,r2
 10094d0:	32d7883a 	add	r11,r6,r11
 10094d4:	00840034 	movhi	r2,4096
 10094d8:	10bfffc4 	addi	r2,r2,-1
 10094dc:	2011883a 	mov	r8,r4
 10094e0:	3813883a 	mov	r9,r7
 10094e4:	a1000315 	stw	r4,12(r20)
 10094e8:	a1c00415 	stw	r7,16(r20)
 10094ec:	a3000215 	stw	r12,8(r20)
 10094f0:	12c00336 	bltu	r2,r11,1009500 <_fpadd_parts+0x1a8>
 10094f4:	58bfed1e 	bne	r11,r2,10094ac <_fpadd_parts+0x154>
 10094f8:	00bfff84 	movi	r2,-2
 10094fc:	12bfeb2e 	bgeu	r2,r10,10094ac <_fpadd_parts+0x154>
 1009500:	a2800417 	ldw	r10,16(r20)
 1009504:	008000c4 	movi	r2,3
 1009508:	00c80034 	movhi	r3,8192
 100950c:	18ffffc4 	addi	r3,r3,-1
 1009510:	a2400317 	ldw	r9,12(r20)
 1009514:	a0800015 	stw	r2,0(r20)
 1009518:	1a802336 	bltu	r3,r10,10095a8 <_fpadd_parts+0x250>
 100951c:	a027883a 	mov	r19,r20
 1009520:	9805883a 	mov	r2,r19
 1009524:	ddc00717 	ldw	r23,28(sp)
 1009528:	dd800617 	ldw	r22,24(sp)
 100952c:	dd400517 	ldw	r21,20(sp)
 1009530:	dd000417 	ldw	r20,16(sp)
 1009534:	dcc00317 	ldw	r19,12(sp)
 1009538:	dc800217 	ldw	r18,8(sp)
 100953c:	dc400117 	ldw	r17,4(sp)
 1009540:	dc000017 	ldw	r16,0(sp)
 1009544:	dec00804 	addi	sp,sp,32
 1009548:	f800283a 	ret
 100954c:	20fff41e 	bne	r4,r3,1009520 <_fpadd_parts+0x1c8>
 1009550:	31000015 	stw	r4,0(r6)
 1009554:	98800117 	ldw	r2,4(r19)
 1009558:	30800115 	stw	r2,4(r6)
 100955c:	98c00217 	ldw	r3,8(r19)
 1009560:	30c00215 	stw	r3,8(r6)
 1009564:	98800317 	ldw	r2,12(r19)
 1009568:	30800315 	stw	r2,12(r6)
 100956c:	98c00417 	ldw	r3,16(r19)
 1009570:	30c00415 	stw	r3,16(r6)
 1009574:	98800117 	ldw	r2,4(r19)
 1009578:	28c00117 	ldw	r3,4(r5)
 100957c:	3027883a 	mov	r19,r6
 1009580:	10c4703a 	and	r2,r2,r3
 1009584:	30800115 	stw	r2,4(r6)
 1009588:	003fe506 	br	1009520 <_fpadd_parts+0x1c8>
 100958c:	1dc02616 	blt	r3,r23,1009628 <_fpadd_parts+0x2d0>
 1009590:	0023883a 	mov	r17,zero
 1009594:	182f883a 	mov	r23,r3
 1009598:	0025883a 	mov	r18,zero
 100959c:	003fa806 	br	1009440 <_fpadd_parts+0xe8>
 10095a0:	a827883a 	mov	r19,r21
 10095a4:	003fde06 	br	1009520 <_fpadd_parts+0x1c8>
 10095a8:	01800044 	movi	r6,1
 10095ac:	500497fa 	slli	r2,r10,31
 10095b0:	4808d07a 	srli	r4,r9,1
 10095b4:	518ad83a 	srl	r5,r10,r6
 10095b8:	a2000217 	ldw	r8,8(r20)
 10095bc:	1108b03a 	or	r4,r2,r4
 10095c0:	0007883a 	mov	r3,zero
 10095c4:	4984703a 	and	r2,r9,r6
 10095c8:	208cb03a 	or	r6,r4,r2
 10095cc:	28ceb03a 	or	r7,r5,r3
 10095d0:	42000044 	addi	r8,r8,1
 10095d4:	a027883a 	mov	r19,r20
 10095d8:	a1c00415 	stw	r7,16(r20)
 10095dc:	a2000215 	stw	r8,8(r20)
 10095e0:	a1800315 	stw	r6,12(r20)
 10095e4:	003fce06 	br	1009520 <_fpadd_parts+0x1c8>
 10095e8:	8bc5c83a 	sub	r2,r17,r15
 10095ec:	8889803a 	cmpltu	r4,r17,r2
 10095f0:	9407c83a 	sub	r3,r18,r16
 10095f4:	1909c83a 	sub	r4,r3,r4
 10095f8:	100d883a 	mov	r6,r2
 10095fc:	200f883a 	mov	r7,r4
 1009600:	003f9906 	br	1009468 <_fpadd_parts+0x110>
 1009604:	7c45883a 	add	r2,r15,r17
 1009608:	13c9803a 	cmpltu	r4,r2,r15
 100960c:	8487883a 	add	r3,r16,r18
 1009610:	20c9883a 	add	r4,r4,r3
 1009614:	a1400115 	stw	r5,4(r20)
 1009618:	a5c00215 	stw	r23,8(r20)
 100961c:	a0800315 	stw	r2,12(r20)
 1009620:	a1000415 	stw	r4,16(r20)
 1009624:	003fb606 	br	1009500 <_fpadd_parts+0x1a8>
 1009628:	001f883a 	mov	r15,zero
 100962c:	0021883a 	mov	r16,zero
 1009630:	003f8306 	br	1009440 <_fpadd_parts+0xe8>
 1009634:	018dc83a 	sub	r6,zero,r6
 1009638:	003f6706 	br	10093d8 <_fpadd_parts+0x80>
 100963c:	00bfff84 	movi	r2,-2
 1009640:	117faf36 	bltu	r2,r5,1009500 <_fpadd_parts+0x1a8>
 1009644:	003f9806 	br	10094a8 <_fpadd_parts+0x150>
 1009648:	0005883a 	mov	r2,zero
 100964c:	1189c83a 	sub	r4,r2,r6
 1009650:	1105803a 	cmpltu	r2,r2,r4
 1009654:	01cbc83a 	sub	r5,zero,r7
 1009658:	2885c83a 	sub	r2,r5,r2
 100965c:	01800044 	movi	r6,1
 1009660:	a1800115 	stw	r6,4(r20)
 1009664:	a5c00215 	stw	r23,8(r20)
 1009668:	a1000315 	stw	r4,12(r20)
 100966c:	a0800415 	stw	r2,16(r20)
 1009670:	003f8206 	br	100947c <_fpadd_parts+0x124>
 1009674:	203f7226 	beq	r4,zero,1009440 <_fpadd_parts+0xe8>
 1009678:	35bff804 	addi	r22,r6,-32
 100967c:	b9af883a 	add	r23,r23,r6
 1009680:	b0003116 	blt	r22,zero,1009748 <_fpadd_parts+0x3f0>
 1009684:	959ad83a 	srl	r13,r18,r22
 1009688:	001d883a 	mov	r14,zero
 100968c:	000f883a 	mov	r7,zero
 1009690:	01000044 	movi	r4,1
 1009694:	0011883a 	mov	r8,zero
 1009698:	b0002516 	blt	r22,zero,1009730 <_fpadd_parts+0x3d8>
 100969c:	2594983a 	sll	r10,r4,r22
 10096a0:	0013883a 	mov	r9,zero
 10096a4:	00bfffc4 	movi	r2,-1
 10096a8:	4889883a 	add	r4,r9,r2
 10096ac:	508b883a 	add	r5,r10,r2
 10096b0:	224d803a 	cmpltu	r6,r4,r9
 10096b4:	314b883a 	add	r5,r6,r5
 10096b8:	8904703a 	and	r2,r17,r4
 10096bc:	9146703a 	and	r3,r18,r5
 10096c0:	10c4b03a 	or	r2,r2,r3
 10096c4:	10000226 	beq	r2,zero,10096d0 <_fpadd_parts+0x378>
 10096c8:	01c00044 	movi	r7,1
 10096cc:	0011883a 	mov	r8,zero
 10096d0:	69e2b03a 	or	r17,r13,r7
 10096d4:	7224b03a 	or	r18,r14,r8
 10096d8:	003f5906 	br	1009440 <_fpadd_parts+0xe8>
 10096dc:	8407883a 	add	r3,r16,r16
 10096e0:	008007c4 	movi	r2,31
 10096e4:	1185c83a 	sub	r2,r2,r6
 10096e8:	1886983a 	sll	r3,r3,r2
 10096ec:	7996d83a 	srl	r11,r15,r6
 10096f0:	8198d83a 	srl	r12,r16,r6
 10096f4:	1ad6b03a 	or	r11,r3,r11
 10096f8:	003f3e06 	br	10093f4 <_fpadd_parts+0x9c>
 10096fc:	2006d07a 	srli	r3,r4,1
 1009700:	008007c4 	movi	r2,31
 1009704:	1185c83a 	sub	r2,r2,r6
 1009708:	1890d83a 	srl	r8,r3,r2
 100970c:	218e983a 	sll	r7,r4,r6
 1009710:	003f3e06 	br	100940c <_fpadd_parts+0xb4>
 1009714:	113f821e 	bne	r2,r4,1009520 <_fpadd_parts+0x1c8>
 1009718:	28c00117 	ldw	r3,4(r5)
 100971c:	98800117 	ldw	r2,4(r19)
 1009720:	10ff7f26 	beq	r2,r3,1009520 <_fpadd_parts+0x1c8>
 1009724:	04c04074 	movhi	r19,257
 1009728:	9cf77204 	addi	r19,r19,-8760
 100972c:	003f7c06 	br	1009520 <_fpadd_parts+0x1c8>
 1009730:	2006d07a 	srli	r3,r4,1
 1009734:	008007c4 	movi	r2,31
 1009738:	1185c83a 	sub	r2,r2,r6
 100973c:	1894d83a 	srl	r10,r3,r2
 1009740:	2192983a 	sll	r9,r4,r6
 1009744:	003fd706 	br	10096a4 <_fpadd_parts+0x34c>
 1009748:	9487883a 	add	r3,r18,r18
 100974c:	008007c4 	movi	r2,31
 1009750:	1185c83a 	sub	r2,r2,r6
 1009754:	1886983a 	sll	r3,r3,r2
 1009758:	899ad83a 	srl	r13,r17,r6
 100975c:	919cd83a 	srl	r14,r18,r6
 1009760:	1b5ab03a 	or	r13,r3,r13
 1009764:	003fc906 	br	100968c <_fpadd_parts+0x334>

01009768 <__subdf3>:
 1009768:	deffea04 	addi	sp,sp,-88
 100976c:	dcc01415 	stw	r19,80(sp)
 1009770:	dcc00404 	addi	r19,sp,16
 1009774:	2011883a 	mov	r8,r4
 1009778:	2813883a 	mov	r9,r5
 100977c:	dc401315 	stw	r17,76(sp)
 1009780:	d809883a 	mov	r4,sp
 1009784:	980b883a 	mov	r5,r19
 1009788:	dc400904 	addi	r17,sp,36
 100978c:	dfc01515 	stw	ra,84(sp)
 1009790:	da400115 	stw	r9,4(sp)
 1009794:	d9c00315 	stw	r7,12(sp)
 1009798:	da000015 	stw	r8,0(sp)
 100979c:	d9800215 	stw	r6,8(sp)
 10097a0:	100a5d00 	call	100a5d0 <__unpack_d>
 10097a4:	d9000204 	addi	r4,sp,8
 10097a8:	880b883a 	mov	r5,r17
 10097ac:	100a5d00 	call	100a5d0 <__unpack_d>
 10097b0:	d8800a17 	ldw	r2,40(sp)
 10097b4:	880b883a 	mov	r5,r17
 10097b8:	9809883a 	mov	r4,r19
 10097bc:	d9800e04 	addi	r6,sp,56
 10097c0:	1080005c 	xori	r2,r2,1
 10097c4:	d8800a15 	stw	r2,40(sp)
 10097c8:	10093580 	call	1009358 <_fpadd_parts>
 10097cc:	1009883a 	mov	r4,r2
 10097d0:	1000d6c0 	call	1000d6c <__pack_d>
 10097d4:	dfc01517 	ldw	ra,84(sp)
 10097d8:	dcc01417 	ldw	r19,80(sp)
 10097dc:	dc401317 	ldw	r17,76(sp)
 10097e0:	dec01604 	addi	sp,sp,88
 10097e4:	f800283a 	ret

010097e8 <__adddf3>:
 10097e8:	deffea04 	addi	sp,sp,-88
 10097ec:	dcc01415 	stw	r19,80(sp)
 10097f0:	dcc00404 	addi	r19,sp,16
 10097f4:	2011883a 	mov	r8,r4
 10097f8:	2813883a 	mov	r9,r5
 10097fc:	dc401315 	stw	r17,76(sp)
 1009800:	d809883a 	mov	r4,sp
 1009804:	980b883a 	mov	r5,r19
 1009808:	dc400904 	addi	r17,sp,36
 100980c:	dfc01515 	stw	ra,84(sp)
 1009810:	da400115 	stw	r9,4(sp)
 1009814:	d9c00315 	stw	r7,12(sp)
 1009818:	da000015 	stw	r8,0(sp)
 100981c:	d9800215 	stw	r6,8(sp)
 1009820:	100a5d00 	call	100a5d0 <__unpack_d>
 1009824:	d9000204 	addi	r4,sp,8
 1009828:	880b883a 	mov	r5,r17
 100982c:	100a5d00 	call	100a5d0 <__unpack_d>
 1009830:	d9800e04 	addi	r6,sp,56
 1009834:	9809883a 	mov	r4,r19
 1009838:	880b883a 	mov	r5,r17
 100983c:	10093580 	call	1009358 <_fpadd_parts>
 1009840:	1009883a 	mov	r4,r2
 1009844:	1000d6c0 	call	1000d6c <__pack_d>
 1009848:	dfc01517 	ldw	ra,84(sp)
 100984c:	dcc01417 	ldw	r19,80(sp)
 1009850:	dc401317 	ldw	r17,76(sp)
 1009854:	dec01604 	addi	sp,sp,88
 1009858:	f800283a 	ret

0100985c <__muldf3>:
 100985c:	deffe004 	addi	sp,sp,-128
 1009860:	dc401815 	stw	r17,96(sp)
 1009864:	dc400404 	addi	r17,sp,16
 1009868:	2011883a 	mov	r8,r4
 100986c:	2813883a 	mov	r9,r5
 1009870:	dc001715 	stw	r16,92(sp)
 1009874:	d809883a 	mov	r4,sp
 1009878:	880b883a 	mov	r5,r17
 100987c:	dc000904 	addi	r16,sp,36
 1009880:	dfc01f15 	stw	ra,124(sp)
 1009884:	da400115 	stw	r9,4(sp)
 1009888:	d9c00315 	stw	r7,12(sp)
 100988c:	da000015 	stw	r8,0(sp)
 1009890:	d9800215 	stw	r6,8(sp)
 1009894:	ddc01e15 	stw	r23,120(sp)
 1009898:	dd801d15 	stw	r22,116(sp)
 100989c:	dd401c15 	stw	r21,112(sp)
 10098a0:	dd001b15 	stw	r20,108(sp)
 10098a4:	dcc01a15 	stw	r19,104(sp)
 10098a8:	dc801915 	stw	r18,100(sp)
 10098ac:	100a5d00 	call	100a5d0 <__unpack_d>
 10098b0:	d9000204 	addi	r4,sp,8
 10098b4:	800b883a 	mov	r5,r16
 10098b8:	100a5d00 	call	100a5d0 <__unpack_d>
 10098bc:	d9000417 	ldw	r4,16(sp)
 10098c0:	00800044 	movi	r2,1
 10098c4:	1100102e 	bgeu	r2,r4,1009908 <__muldf3+0xac>
 10098c8:	d8c00917 	ldw	r3,36(sp)
 10098cc:	10c0062e 	bgeu	r2,r3,10098e8 <__muldf3+0x8c>
 10098d0:	00800104 	movi	r2,4
 10098d4:	20800a26 	beq	r4,r2,1009900 <__muldf3+0xa4>
 10098d8:	1880cc26 	beq	r3,r2,1009c0c <__muldf3+0x3b0>
 10098dc:	00800084 	movi	r2,2
 10098e0:	20800926 	beq	r4,r2,1009908 <__muldf3+0xac>
 10098e4:	1880191e 	bne	r3,r2,100994c <__muldf3+0xf0>
 10098e8:	d8c00a17 	ldw	r3,40(sp)
 10098ec:	d8800517 	ldw	r2,20(sp)
 10098f0:	8009883a 	mov	r4,r16
 10098f4:	10c4c03a 	cmpne	r2,r2,r3
 10098f8:	d8800a15 	stw	r2,40(sp)
 10098fc:	00000706 	br	100991c <__muldf3+0xc0>
 1009900:	00800084 	movi	r2,2
 1009904:	1880c326 	beq	r3,r2,1009c14 <__muldf3+0x3b8>
 1009908:	d8800517 	ldw	r2,20(sp)
 100990c:	d8c00a17 	ldw	r3,40(sp)
 1009910:	8809883a 	mov	r4,r17
 1009914:	10c4c03a 	cmpne	r2,r2,r3
 1009918:	d8800515 	stw	r2,20(sp)
 100991c:	1000d6c0 	call	1000d6c <__pack_d>
 1009920:	dfc01f17 	ldw	ra,124(sp)
 1009924:	ddc01e17 	ldw	r23,120(sp)
 1009928:	dd801d17 	ldw	r22,116(sp)
 100992c:	dd401c17 	ldw	r21,112(sp)
 1009930:	dd001b17 	ldw	r20,108(sp)
 1009934:	dcc01a17 	ldw	r19,104(sp)
 1009938:	dc801917 	ldw	r18,100(sp)
 100993c:	dc401817 	ldw	r17,96(sp)
 1009940:	dc001717 	ldw	r16,92(sp)
 1009944:	dec02004 	addi	sp,sp,128
 1009948:	f800283a 	ret
 100994c:	dd800717 	ldw	r22,28(sp)
 1009950:	dc800c17 	ldw	r18,48(sp)
 1009954:	002b883a 	mov	r21,zero
 1009958:	0023883a 	mov	r17,zero
 100995c:	a80b883a 	mov	r5,r21
 1009960:	b00d883a 	mov	r6,r22
 1009964:	880f883a 	mov	r7,r17
 1009968:	ddc00817 	ldw	r23,32(sp)
 100996c:	dcc00d17 	ldw	r19,52(sp)
 1009970:	9009883a 	mov	r4,r18
 1009974:	10085680 	call	1008568 <__muldi3>
 1009978:	001b883a 	mov	r13,zero
 100997c:	680f883a 	mov	r7,r13
 1009980:	b009883a 	mov	r4,r22
 1009984:	000b883a 	mov	r5,zero
 1009988:	980d883a 	mov	r6,r19
 100998c:	b82d883a 	mov	r22,r23
 1009990:	002f883a 	mov	r23,zero
 1009994:	db401615 	stw	r13,88(sp)
 1009998:	d8801315 	stw	r2,76(sp)
 100999c:	d8c01415 	stw	r3,80(sp)
 10099a0:	dcc01515 	stw	r19,84(sp)
 10099a4:	10085680 	call	1008568 <__muldi3>
 10099a8:	b00d883a 	mov	r6,r22
 10099ac:	000b883a 	mov	r5,zero
 10099b0:	9009883a 	mov	r4,r18
 10099b4:	b80f883a 	mov	r7,r23
 10099b8:	1021883a 	mov	r16,r2
 10099bc:	1823883a 	mov	r17,r3
 10099c0:	10085680 	call	1008568 <__muldi3>
 10099c4:	8085883a 	add	r2,r16,r2
 10099c8:	140d803a 	cmpltu	r6,r2,r16
 10099cc:	88c7883a 	add	r3,r17,r3
 10099d0:	30cd883a 	add	r6,r6,r3
 10099d4:	1029883a 	mov	r20,r2
 10099d8:	302b883a 	mov	r21,r6
 10099dc:	da801317 	ldw	r10,76(sp)
 10099e0:	dac01417 	ldw	r11,80(sp)
 10099e4:	db001517 	ldw	r12,84(sp)
 10099e8:	db401617 	ldw	r13,88(sp)
 10099ec:	3440612e 	bgeu	r6,r17,1009b74 <__muldf3+0x318>
 10099f0:	0009883a 	mov	r4,zero
 10099f4:	5105883a 	add	r2,r10,r4
 10099f8:	128d803a 	cmpltu	r6,r2,r10
 10099fc:	5d07883a 	add	r3,r11,r20
 1009a00:	30cd883a 	add	r6,r6,r3
 1009a04:	0021883a 	mov	r16,zero
 1009a08:	04400044 	movi	r17,1
 1009a0c:	1025883a 	mov	r18,r2
 1009a10:	3027883a 	mov	r19,r6
 1009a14:	32c06236 	bltu	r6,r11,1009ba0 <__muldf3+0x344>
 1009a18:	59807a26 	beq	r11,r6,1009c04 <__muldf3+0x3a8>
 1009a1c:	680b883a 	mov	r5,r13
 1009a20:	b80f883a 	mov	r7,r23
 1009a24:	6009883a 	mov	r4,r12
 1009a28:	b00d883a 	mov	r6,r22
 1009a2c:	10085680 	call	1008568 <__muldi3>
 1009a30:	1009883a 	mov	r4,r2
 1009a34:	000f883a 	mov	r7,zero
 1009a38:	1545883a 	add	r2,r2,r21
 1009a3c:	1111803a 	cmpltu	r8,r2,r4
 1009a40:	19c7883a 	add	r3,r3,r7
 1009a44:	40c7883a 	add	r3,r8,r3
 1009a48:	88cb883a 	add	r5,r17,r3
 1009a4c:	d8c00617 	ldw	r3,24(sp)
 1009a50:	8089883a 	add	r4,r16,r2
 1009a54:	d8800b17 	ldw	r2,44(sp)
 1009a58:	18c00104 	addi	r3,r3,4
 1009a5c:	240d803a 	cmpltu	r6,r4,r16
 1009a60:	10c7883a 	add	r3,r2,r3
 1009a64:	2013883a 	mov	r9,r4
 1009a68:	d8800a17 	ldw	r2,40(sp)
 1009a6c:	d9000517 	ldw	r4,20(sp)
 1009a70:	314d883a 	add	r6,r6,r5
 1009a74:	3015883a 	mov	r10,r6
 1009a78:	2088c03a 	cmpne	r4,r4,r2
 1009a7c:	00880034 	movhi	r2,8192
 1009a80:	10bfffc4 	addi	r2,r2,-1
 1009a84:	d9000f15 	stw	r4,60(sp)
 1009a88:	d8c01015 	stw	r3,64(sp)
 1009a8c:	1180162e 	bgeu	r2,r6,1009ae8 <__muldf3+0x28c>
 1009a90:	1811883a 	mov	r8,r3
 1009a94:	101f883a 	mov	r15,r2
 1009a98:	980497fa 	slli	r2,r19,31
 1009a9c:	9016d07a 	srli	r11,r18,1
 1009aa0:	500697fa 	slli	r3,r10,31
 1009aa4:	480cd07a 	srli	r6,r9,1
 1009aa8:	500ed07a 	srli	r7,r10,1
 1009aac:	12d6b03a 	or	r11,r2,r11
 1009ab0:	00800044 	movi	r2,1
 1009ab4:	198cb03a 	or	r6,r3,r6
 1009ab8:	4888703a 	and	r4,r9,r2
 1009abc:	9818d07a 	srli	r12,r19,1
 1009ac0:	001b883a 	mov	r13,zero
 1009ac4:	03a00034 	movhi	r14,32768
 1009ac8:	3013883a 	mov	r9,r6
 1009acc:	3815883a 	mov	r10,r7
 1009ad0:	4091883a 	add	r8,r8,r2
 1009ad4:	20000226 	beq	r4,zero,1009ae0 <__muldf3+0x284>
 1009ad8:	5b64b03a 	or	r18,r11,r13
 1009adc:	63a6b03a 	or	r19,r12,r14
 1009ae0:	7abfed36 	bltu	r15,r10,1009a98 <__muldf3+0x23c>
 1009ae4:	da001015 	stw	r8,64(sp)
 1009ae8:	00840034 	movhi	r2,4096
 1009aec:	10bfffc4 	addi	r2,r2,-1
 1009af0:	12801436 	bltu	r2,r10,1009b44 <__muldf3+0x2e8>
 1009af4:	da001017 	ldw	r8,64(sp)
 1009af8:	101f883a 	mov	r15,r2
 1009afc:	4a45883a 	add	r2,r9,r9
 1009b00:	124d803a 	cmpltu	r6,r2,r9
 1009b04:	5287883a 	add	r3,r10,r10
 1009b08:	9497883a 	add	r11,r18,r18
 1009b0c:	5c8f803a 	cmpltu	r7,r11,r18
 1009b10:	9cd9883a 	add	r12,r19,r19
 1009b14:	01000044 	movi	r4,1
 1009b18:	30cd883a 	add	r6,r6,r3
 1009b1c:	3b0f883a 	add	r7,r7,r12
 1009b20:	423fffc4 	addi	r8,r8,-1
 1009b24:	1013883a 	mov	r9,r2
 1009b28:	3015883a 	mov	r10,r6
 1009b2c:	111ab03a 	or	r13,r2,r4
 1009b30:	98003016 	blt	r19,zero,1009bf4 <__muldf3+0x398>
 1009b34:	5825883a 	mov	r18,r11
 1009b38:	3827883a 	mov	r19,r7
 1009b3c:	7abfef2e 	bgeu	r15,r10,1009afc <__muldf3+0x2a0>
 1009b40:	da001015 	stw	r8,64(sp)
 1009b44:	00803fc4 	movi	r2,255
 1009b48:	488e703a 	and	r7,r9,r2
 1009b4c:	00802004 	movi	r2,128
 1009b50:	0007883a 	mov	r3,zero
 1009b54:	0011883a 	mov	r8,zero
 1009b58:	38801826 	beq	r7,r2,1009bbc <__muldf3+0x360>
 1009b5c:	008000c4 	movi	r2,3
 1009b60:	d9000e04 	addi	r4,sp,56
 1009b64:	da801215 	stw	r10,72(sp)
 1009b68:	d8800e15 	stw	r2,56(sp)
 1009b6c:	da401115 	stw	r9,68(sp)
 1009b70:	003f6a06 	br	100991c <__muldf3+0xc0>
 1009b74:	89802126 	beq	r17,r6,1009bfc <__muldf3+0x3a0>
 1009b78:	0009883a 	mov	r4,zero
 1009b7c:	5105883a 	add	r2,r10,r4
 1009b80:	128d803a 	cmpltu	r6,r2,r10
 1009b84:	5d07883a 	add	r3,r11,r20
 1009b88:	30cd883a 	add	r6,r6,r3
 1009b8c:	0021883a 	mov	r16,zero
 1009b90:	0023883a 	mov	r17,zero
 1009b94:	1025883a 	mov	r18,r2
 1009b98:	3027883a 	mov	r19,r6
 1009b9c:	32ff9e2e 	bgeu	r6,r11,1009a18 <__muldf3+0x1bc>
 1009ba0:	00800044 	movi	r2,1
 1009ba4:	8089883a 	add	r4,r16,r2
 1009ba8:	240d803a 	cmpltu	r6,r4,r16
 1009bac:	344d883a 	add	r6,r6,r17
 1009bb0:	2021883a 	mov	r16,r4
 1009bb4:	3023883a 	mov	r17,r6
 1009bb8:	003f9806 	br	1009a1c <__muldf3+0x1c0>
 1009bbc:	403fe71e 	bne	r8,zero,1009b5c <__muldf3+0x300>
 1009bc0:	01004004 	movi	r4,256
 1009bc4:	4904703a 	and	r2,r9,r4
 1009bc8:	10c4b03a 	or	r2,r2,r3
 1009bcc:	103fe31e 	bne	r2,zero,1009b5c <__muldf3+0x300>
 1009bd0:	94c4b03a 	or	r2,r18,r19
 1009bd4:	103fe126 	beq	r2,zero,1009b5c <__muldf3+0x300>
 1009bd8:	49c5883a 	add	r2,r9,r7
 1009bdc:	1251803a 	cmpltu	r8,r2,r9
 1009be0:	4291883a 	add	r8,r8,r10
 1009be4:	013fc004 	movi	r4,-256
 1009be8:	1112703a 	and	r9,r2,r4
 1009bec:	4015883a 	mov	r10,r8
 1009bf0:	003fda06 	br	1009b5c <__muldf3+0x300>
 1009bf4:	6813883a 	mov	r9,r13
 1009bf8:	003fce06 	br	1009b34 <__muldf3+0x2d8>
 1009bfc:	143f7c36 	bltu	r2,r16,10099f0 <__muldf3+0x194>
 1009c00:	003fdd06 	br	1009b78 <__muldf3+0x31c>
 1009c04:	12bf852e 	bgeu	r2,r10,1009a1c <__muldf3+0x1c0>
 1009c08:	003fe506 	br	1009ba0 <__muldf3+0x344>
 1009c0c:	00800084 	movi	r2,2
 1009c10:	20bf351e 	bne	r4,r2,10098e8 <__muldf3+0x8c>
 1009c14:	01004074 	movhi	r4,257
 1009c18:	21377204 	addi	r4,r4,-8760
 1009c1c:	003f3f06 	br	100991c <__muldf3+0xc0>

01009c20 <__divdf3>:
 1009c20:	deffed04 	addi	sp,sp,-76
 1009c24:	dcc01115 	stw	r19,68(sp)
 1009c28:	dcc00404 	addi	r19,sp,16
 1009c2c:	2011883a 	mov	r8,r4
 1009c30:	2813883a 	mov	r9,r5
 1009c34:	dc000e15 	stw	r16,56(sp)
 1009c38:	d809883a 	mov	r4,sp
 1009c3c:	980b883a 	mov	r5,r19
 1009c40:	dc000904 	addi	r16,sp,36
 1009c44:	dfc01215 	stw	ra,72(sp)
 1009c48:	da400115 	stw	r9,4(sp)
 1009c4c:	d9c00315 	stw	r7,12(sp)
 1009c50:	da000015 	stw	r8,0(sp)
 1009c54:	d9800215 	stw	r6,8(sp)
 1009c58:	dc801015 	stw	r18,64(sp)
 1009c5c:	dc400f15 	stw	r17,60(sp)
 1009c60:	100a5d00 	call	100a5d0 <__unpack_d>
 1009c64:	d9000204 	addi	r4,sp,8
 1009c68:	800b883a 	mov	r5,r16
 1009c6c:	100a5d00 	call	100a5d0 <__unpack_d>
 1009c70:	d9000417 	ldw	r4,16(sp)
 1009c74:	00800044 	movi	r2,1
 1009c78:	11000b2e 	bgeu	r2,r4,1009ca8 <__divdf3+0x88>
 1009c7c:	d9400917 	ldw	r5,36(sp)
 1009c80:	1140762e 	bgeu	r2,r5,1009e5c <__divdf3+0x23c>
 1009c84:	d8800517 	ldw	r2,20(sp)
 1009c88:	d8c00a17 	ldw	r3,40(sp)
 1009c8c:	01800104 	movi	r6,4
 1009c90:	10c4f03a 	xor	r2,r2,r3
 1009c94:	d8800515 	stw	r2,20(sp)
 1009c98:	21800226 	beq	r4,r6,1009ca4 <__divdf3+0x84>
 1009c9c:	00800084 	movi	r2,2
 1009ca0:	2080141e 	bne	r4,r2,1009cf4 <__divdf3+0xd4>
 1009ca4:	29000926 	beq	r5,r4,1009ccc <__divdf3+0xac>
 1009ca8:	9809883a 	mov	r4,r19
 1009cac:	1000d6c0 	call	1000d6c <__pack_d>
 1009cb0:	dfc01217 	ldw	ra,72(sp)
 1009cb4:	dcc01117 	ldw	r19,68(sp)
 1009cb8:	dc801017 	ldw	r18,64(sp)
 1009cbc:	dc400f17 	ldw	r17,60(sp)
 1009cc0:	dc000e17 	ldw	r16,56(sp)
 1009cc4:	dec01304 	addi	sp,sp,76
 1009cc8:	f800283a 	ret
 1009ccc:	01004074 	movhi	r4,257
 1009cd0:	21377204 	addi	r4,r4,-8760
 1009cd4:	1000d6c0 	call	1000d6c <__pack_d>
 1009cd8:	dfc01217 	ldw	ra,72(sp)
 1009cdc:	dcc01117 	ldw	r19,68(sp)
 1009ce0:	dc801017 	ldw	r18,64(sp)
 1009ce4:	dc400f17 	ldw	r17,60(sp)
 1009ce8:	dc000e17 	ldw	r16,56(sp)
 1009cec:	dec01304 	addi	sp,sp,76
 1009cf0:	f800283a 	ret
 1009cf4:	29805b26 	beq	r5,r6,1009e64 <__divdf3+0x244>
 1009cf8:	28802d26 	beq	r5,r2,1009db0 <__divdf3+0x190>
 1009cfc:	d8c00617 	ldw	r3,24(sp)
 1009d00:	d8800b17 	ldw	r2,44(sp)
 1009d04:	d9c00817 	ldw	r7,32(sp)
 1009d08:	dc400d17 	ldw	r17,52(sp)
 1009d0c:	188bc83a 	sub	r5,r3,r2
 1009d10:	d9800717 	ldw	r6,28(sp)
 1009d14:	dc000c17 	ldw	r16,48(sp)
 1009d18:	d9400615 	stw	r5,24(sp)
 1009d1c:	3c403836 	bltu	r7,r17,1009e00 <__divdf3+0x1e0>
 1009d20:	89c03626 	beq	r17,r7,1009dfc <__divdf3+0x1dc>
 1009d24:	0015883a 	mov	r10,zero
 1009d28:	001d883a 	mov	r14,zero
 1009d2c:	02c40034 	movhi	r11,4096
 1009d30:	001f883a 	mov	r15,zero
 1009d34:	003f883a 	mov	ra,zero
 1009d38:	04800f44 	movi	r18,61
 1009d3c:	00000f06 	br	1009d7c <__divdf3+0x15c>
 1009d40:	601d883a 	mov	r14,r12
 1009d44:	681f883a 	mov	r15,r13
 1009d48:	400d883a 	mov	r6,r8
 1009d4c:	100f883a 	mov	r7,r2
 1009d50:	3191883a 	add	r8,r6,r6
 1009d54:	5808d07a 	srli	r4,r11,1
 1009d58:	4185803a 	cmpltu	r2,r8,r6
 1009d5c:	39d3883a 	add	r9,r7,r7
 1009d60:	28c6b03a 	or	r3,r5,r3
 1009d64:	1245883a 	add	r2,r2,r9
 1009d68:	1815883a 	mov	r10,r3
 1009d6c:	2017883a 	mov	r11,r4
 1009d70:	400d883a 	mov	r6,r8
 1009d74:	100f883a 	mov	r7,r2
 1009d78:	fc801726 	beq	ra,r18,1009dd8 <__divdf3+0x1b8>
 1009d7c:	580a97fa 	slli	r5,r11,31
 1009d80:	5006d07a 	srli	r3,r10,1
 1009d84:	ffc00044 	addi	ra,ra,1
 1009d88:	3c7ff136 	bltu	r7,r17,1009d50 <__divdf3+0x130>
 1009d8c:	3411c83a 	sub	r8,r6,r16
 1009d90:	3205803a 	cmpltu	r2,r6,r8
 1009d94:	3c53c83a 	sub	r9,r7,r17
 1009d98:	7298b03a 	or	r12,r14,r10
 1009d9c:	7adab03a 	or	r13,r15,r11
 1009da0:	4885c83a 	sub	r2,r9,r2
 1009da4:	89ffe61e 	bne	r17,r7,1009d40 <__divdf3+0x120>
 1009da8:	343fe936 	bltu	r6,r16,1009d50 <__divdf3+0x130>
 1009dac:	003fe406 	br	1009d40 <__divdf3+0x120>
 1009db0:	9809883a 	mov	r4,r19
 1009db4:	d9800415 	stw	r6,16(sp)
 1009db8:	1000d6c0 	call	1000d6c <__pack_d>
 1009dbc:	dfc01217 	ldw	ra,72(sp)
 1009dc0:	dcc01117 	ldw	r19,68(sp)
 1009dc4:	dc801017 	ldw	r18,64(sp)
 1009dc8:	dc400f17 	ldw	r17,60(sp)
 1009dcc:	dc000e17 	ldw	r16,56(sp)
 1009dd0:	dec01304 	addi	sp,sp,76
 1009dd4:	f800283a 	ret
 1009dd8:	00803fc4 	movi	r2,255
 1009ddc:	7090703a 	and	r8,r14,r2
 1009de0:	00802004 	movi	r2,128
 1009de4:	0007883a 	mov	r3,zero
 1009de8:	0013883a 	mov	r9,zero
 1009dec:	40800d26 	beq	r8,r2,1009e24 <__divdf3+0x204>
 1009df0:	dbc00815 	stw	r15,32(sp)
 1009df4:	db800715 	stw	r14,28(sp)
 1009df8:	003fab06 	br	1009ca8 <__divdf3+0x88>
 1009dfc:	343fc92e 	bgeu	r6,r16,1009d24 <__divdf3+0x104>
 1009e00:	3185883a 	add	r2,r6,r6
 1009e04:	1189803a 	cmpltu	r4,r2,r6
 1009e08:	39c7883a 	add	r3,r7,r7
 1009e0c:	20c9883a 	add	r4,r4,r3
 1009e10:	297fffc4 	addi	r5,r5,-1
 1009e14:	100d883a 	mov	r6,r2
 1009e18:	200f883a 	mov	r7,r4
 1009e1c:	d9400615 	stw	r5,24(sp)
 1009e20:	003fc006 	br	1009d24 <__divdf3+0x104>
 1009e24:	483ff21e 	bne	r9,zero,1009df0 <__divdf3+0x1d0>
 1009e28:	01004004 	movi	r4,256
 1009e2c:	7104703a 	and	r2,r14,r4
 1009e30:	10c4b03a 	or	r2,r2,r3
 1009e34:	103fee1e 	bne	r2,zero,1009df0 <__divdf3+0x1d0>
 1009e38:	31c4b03a 	or	r2,r6,r7
 1009e3c:	103fec26 	beq	r2,zero,1009df0 <__divdf3+0x1d0>
 1009e40:	7205883a 	add	r2,r14,r8
 1009e44:	1391803a 	cmpltu	r8,r2,r14
 1009e48:	43d1883a 	add	r8,r8,r15
 1009e4c:	013fc004 	movi	r4,-256
 1009e50:	111c703a 	and	r14,r2,r4
 1009e54:	401f883a 	mov	r15,r8
 1009e58:	003fe506 	br	1009df0 <__divdf3+0x1d0>
 1009e5c:	8009883a 	mov	r4,r16
 1009e60:	003f9206 	br	1009cac <__divdf3+0x8c>
 1009e64:	9809883a 	mov	r4,r19
 1009e68:	d8000715 	stw	zero,28(sp)
 1009e6c:	d8000815 	stw	zero,32(sp)
 1009e70:	d8000615 	stw	zero,24(sp)
 1009e74:	003f8d06 	br	1009cac <__divdf3+0x8c>

01009e78 <__eqdf2>:
 1009e78:	deffef04 	addi	sp,sp,-68
 1009e7c:	dc400f15 	stw	r17,60(sp)
 1009e80:	dc400404 	addi	r17,sp,16
 1009e84:	2005883a 	mov	r2,r4
 1009e88:	2807883a 	mov	r3,r5
 1009e8c:	dc000e15 	stw	r16,56(sp)
 1009e90:	d809883a 	mov	r4,sp
 1009e94:	880b883a 	mov	r5,r17
 1009e98:	dc000904 	addi	r16,sp,36
 1009e9c:	d8c00115 	stw	r3,4(sp)
 1009ea0:	d8800015 	stw	r2,0(sp)
 1009ea4:	d9800215 	stw	r6,8(sp)
 1009ea8:	dfc01015 	stw	ra,64(sp)
 1009eac:	d9c00315 	stw	r7,12(sp)
 1009eb0:	100a5d00 	call	100a5d0 <__unpack_d>
 1009eb4:	d9000204 	addi	r4,sp,8
 1009eb8:	800b883a 	mov	r5,r16
 1009ebc:	100a5d00 	call	100a5d0 <__unpack_d>
 1009ec0:	d8800417 	ldw	r2,16(sp)
 1009ec4:	00c00044 	movi	r3,1
 1009ec8:	180d883a 	mov	r6,r3
 1009ecc:	1880062e 	bgeu	r3,r2,1009ee8 <__eqdf2+0x70>
 1009ed0:	d8800917 	ldw	r2,36(sp)
 1009ed4:	8809883a 	mov	r4,r17
 1009ed8:	800b883a 	mov	r5,r16
 1009edc:	1880022e 	bgeu	r3,r2,1009ee8 <__eqdf2+0x70>
 1009ee0:	100a7080 	call	100a708 <__fpcmp_parts_d>
 1009ee4:	100d883a 	mov	r6,r2
 1009ee8:	3005883a 	mov	r2,r6
 1009eec:	dfc01017 	ldw	ra,64(sp)
 1009ef0:	dc400f17 	ldw	r17,60(sp)
 1009ef4:	dc000e17 	ldw	r16,56(sp)
 1009ef8:	dec01104 	addi	sp,sp,68
 1009efc:	f800283a 	ret

01009f00 <__nedf2>:
 1009f00:	deffef04 	addi	sp,sp,-68
 1009f04:	dc400f15 	stw	r17,60(sp)
 1009f08:	dc400404 	addi	r17,sp,16
 1009f0c:	2005883a 	mov	r2,r4
 1009f10:	2807883a 	mov	r3,r5
 1009f14:	dc000e15 	stw	r16,56(sp)
 1009f18:	d809883a 	mov	r4,sp
 1009f1c:	880b883a 	mov	r5,r17
 1009f20:	dc000904 	addi	r16,sp,36
 1009f24:	d8c00115 	stw	r3,4(sp)
 1009f28:	d8800015 	stw	r2,0(sp)
 1009f2c:	d9800215 	stw	r6,8(sp)
 1009f30:	dfc01015 	stw	ra,64(sp)
 1009f34:	d9c00315 	stw	r7,12(sp)
 1009f38:	100a5d00 	call	100a5d0 <__unpack_d>
 1009f3c:	d9000204 	addi	r4,sp,8
 1009f40:	800b883a 	mov	r5,r16
 1009f44:	100a5d00 	call	100a5d0 <__unpack_d>
 1009f48:	d8800417 	ldw	r2,16(sp)
 1009f4c:	00c00044 	movi	r3,1
 1009f50:	180d883a 	mov	r6,r3
 1009f54:	1880062e 	bgeu	r3,r2,1009f70 <__nedf2+0x70>
 1009f58:	d8800917 	ldw	r2,36(sp)
 1009f5c:	8809883a 	mov	r4,r17
 1009f60:	800b883a 	mov	r5,r16
 1009f64:	1880022e 	bgeu	r3,r2,1009f70 <__nedf2+0x70>
 1009f68:	100a7080 	call	100a708 <__fpcmp_parts_d>
 1009f6c:	100d883a 	mov	r6,r2
 1009f70:	3005883a 	mov	r2,r6
 1009f74:	dfc01017 	ldw	ra,64(sp)
 1009f78:	dc400f17 	ldw	r17,60(sp)
 1009f7c:	dc000e17 	ldw	r16,56(sp)
 1009f80:	dec01104 	addi	sp,sp,68
 1009f84:	f800283a 	ret

01009f88 <__gtdf2>:
 1009f88:	deffef04 	addi	sp,sp,-68
 1009f8c:	dc400f15 	stw	r17,60(sp)
 1009f90:	dc400404 	addi	r17,sp,16
 1009f94:	2005883a 	mov	r2,r4
 1009f98:	2807883a 	mov	r3,r5
 1009f9c:	dc000e15 	stw	r16,56(sp)
 1009fa0:	d809883a 	mov	r4,sp
 1009fa4:	880b883a 	mov	r5,r17
 1009fa8:	dc000904 	addi	r16,sp,36
 1009fac:	d8c00115 	stw	r3,4(sp)
 1009fb0:	d8800015 	stw	r2,0(sp)
 1009fb4:	d9800215 	stw	r6,8(sp)
 1009fb8:	dfc01015 	stw	ra,64(sp)
 1009fbc:	d9c00315 	stw	r7,12(sp)
 1009fc0:	100a5d00 	call	100a5d0 <__unpack_d>
 1009fc4:	d9000204 	addi	r4,sp,8
 1009fc8:	800b883a 	mov	r5,r16
 1009fcc:	100a5d00 	call	100a5d0 <__unpack_d>
 1009fd0:	d8800417 	ldw	r2,16(sp)
 1009fd4:	00c00044 	movi	r3,1
 1009fd8:	01bfffc4 	movi	r6,-1
 1009fdc:	1880062e 	bgeu	r3,r2,1009ff8 <__gtdf2+0x70>
 1009fe0:	d8800917 	ldw	r2,36(sp)
 1009fe4:	8809883a 	mov	r4,r17
 1009fe8:	800b883a 	mov	r5,r16
 1009fec:	1880022e 	bgeu	r3,r2,1009ff8 <__gtdf2+0x70>
 1009ff0:	100a7080 	call	100a708 <__fpcmp_parts_d>
 1009ff4:	100d883a 	mov	r6,r2
 1009ff8:	3005883a 	mov	r2,r6
 1009ffc:	dfc01017 	ldw	ra,64(sp)
 100a000:	dc400f17 	ldw	r17,60(sp)
 100a004:	dc000e17 	ldw	r16,56(sp)
 100a008:	dec01104 	addi	sp,sp,68
 100a00c:	f800283a 	ret

0100a010 <__gedf2>:
 100a010:	deffef04 	addi	sp,sp,-68
 100a014:	dc400f15 	stw	r17,60(sp)
 100a018:	dc400404 	addi	r17,sp,16
 100a01c:	2005883a 	mov	r2,r4
 100a020:	2807883a 	mov	r3,r5
 100a024:	dc000e15 	stw	r16,56(sp)
 100a028:	d809883a 	mov	r4,sp
 100a02c:	880b883a 	mov	r5,r17
 100a030:	dc000904 	addi	r16,sp,36
 100a034:	d8c00115 	stw	r3,4(sp)
 100a038:	d8800015 	stw	r2,0(sp)
 100a03c:	d9800215 	stw	r6,8(sp)
 100a040:	dfc01015 	stw	ra,64(sp)
 100a044:	d9c00315 	stw	r7,12(sp)
 100a048:	100a5d00 	call	100a5d0 <__unpack_d>
 100a04c:	d9000204 	addi	r4,sp,8
 100a050:	800b883a 	mov	r5,r16
 100a054:	100a5d00 	call	100a5d0 <__unpack_d>
 100a058:	d8800417 	ldw	r2,16(sp)
 100a05c:	00c00044 	movi	r3,1
 100a060:	01bfffc4 	movi	r6,-1
 100a064:	1880062e 	bgeu	r3,r2,100a080 <__gedf2+0x70>
 100a068:	d8800917 	ldw	r2,36(sp)
 100a06c:	8809883a 	mov	r4,r17
 100a070:	800b883a 	mov	r5,r16
 100a074:	1880022e 	bgeu	r3,r2,100a080 <__gedf2+0x70>
 100a078:	100a7080 	call	100a708 <__fpcmp_parts_d>
 100a07c:	100d883a 	mov	r6,r2
 100a080:	3005883a 	mov	r2,r6
 100a084:	dfc01017 	ldw	ra,64(sp)
 100a088:	dc400f17 	ldw	r17,60(sp)
 100a08c:	dc000e17 	ldw	r16,56(sp)
 100a090:	dec01104 	addi	sp,sp,68
 100a094:	f800283a 	ret

0100a098 <__ltdf2>:
 100a098:	deffef04 	addi	sp,sp,-68
 100a09c:	dc400f15 	stw	r17,60(sp)
 100a0a0:	dc400404 	addi	r17,sp,16
 100a0a4:	2005883a 	mov	r2,r4
 100a0a8:	2807883a 	mov	r3,r5
 100a0ac:	dc000e15 	stw	r16,56(sp)
 100a0b0:	d809883a 	mov	r4,sp
 100a0b4:	880b883a 	mov	r5,r17
 100a0b8:	dc000904 	addi	r16,sp,36
 100a0bc:	d8c00115 	stw	r3,4(sp)
 100a0c0:	d8800015 	stw	r2,0(sp)
 100a0c4:	d9800215 	stw	r6,8(sp)
 100a0c8:	dfc01015 	stw	ra,64(sp)
 100a0cc:	d9c00315 	stw	r7,12(sp)
 100a0d0:	100a5d00 	call	100a5d0 <__unpack_d>
 100a0d4:	d9000204 	addi	r4,sp,8
 100a0d8:	800b883a 	mov	r5,r16
 100a0dc:	100a5d00 	call	100a5d0 <__unpack_d>
 100a0e0:	d8800417 	ldw	r2,16(sp)
 100a0e4:	00c00044 	movi	r3,1
 100a0e8:	180d883a 	mov	r6,r3
 100a0ec:	1880062e 	bgeu	r3,r2,100a108 <__ltdf2+0x70>
 100a0f0:	d8800917 	ldw	r2,36(sp)
 100a0f4:	8809883a 	mov	r4,r17
 100a0f8:	800b883a 	mov	r5,r16
 100a0fc:	1880022e 	bgeu	r3,r2,100a108 <__ltdf2+0x70>
 100a100:	100a7080 	call	100a708 <__fpcmp_parts_d>
 100a104:	100d883a 	mov	r6,r2
 100a108:	3005883a 	mov	r2,r6
 100a10c:	dfc01017 	ldw	ra,64(sp)
 100a110:	dc400f17 	ldw	r17,60(sp)
 100a114:	dc000e17 	ldw	r16,56(sp)
 100a118:	dec01104 	addi	sp,sp,68
 100a11c:	f800283a 	ret

0100a120 <__floatsidf>:
 100a120:	2006d7fa 	srli	r3,r4,31
 100a124:	defff604 	addi	sp,sp,-40
 100a128:	008000c4 	movi	r2,3
 100a12c:	dfc00915 	stw	ra,36(sp)
 100a130:	dcc00815 	stw	r19,32(sp)
 100a134:	dc800715 	stw	r18,28(sp)
 100a138:	dc400615 	stw	r17,24(sp)
 100a13c:	dc000515 	stw	r16,20(sp)
 100a140:	d8800015 	stw	r2,0(sp)
 100a144:	d8c00115 	stw	r3,4(sp)
 100a148:	20000f1e 	bne	r4,zero,100a188 <__floatsidf+0x68>
 100a14c:	00800084 	movi	r2,2
 100a150:	d8800015 	stw	r2,0(sp)
 100a154:	d809883a 	mov	r4,sp
 100a158:	1000d6c0 	call	1000d6c <__pack_d>
 100a15c:	1009883a 	mov	r4,r2
 100a160:	180b883a 	mov	r5,r3
 100a164:	2005883a 	mov	r2,r4
 100a168:	2807883a 	mov	r3,r5
 100a16c:	dfc00917 	ldw	ra,36(sp)
 100a170:	dcc00817 	ldw	r19,32(sp)
 100a174:	dc800717 	ldw	r18,28(sp)
 100a178:	dc400617 	ldw	r17,24(sp)
 100a17c:	dc000517 	ldw	r16,20(sp)
 100a180:	dec00a04 	addi	sp,sp,40
 100a184:	f800283a 	ret
 100a188:	00800f04 	movi	r2,60
 100a18c:	1807003a 	cmpeq	r3,r3,zero
 100a190:	d8800215 	stw	r2,8(sp)
 100a194:	18001126 	beq	r3,zero,100a1dc <__floatsidf+0xbc>
 100a198:	0027883a 	mov	r19,zero
 100a19c:	2025883a 	mov	r18,r4
 100a1a0:	d9000315 	stw	r4,12(sp)
 100a1a4:	dcc00415 	stw	r19,16(sp)
 100a1a8:	1000ac40 	call	1000ac4 <__clzsi2>
 100a1ac:	11000744 	addi	r4,r2,29
 100a1b0:	013fe80e 	bge	zero,r4,100a154 <__floatsidf+0x34>
 100a1b4:	10bfff44 	addi	r2,r2,-3
 100a1b8:	10000c16 	blt	r2,zero,100a1ec <__floatsidf+0xcc>
 100a1bc:	90a2983a 	sll	r17,r18,r2
 100a1c0:	0021883a 	mov	r16,zero
 100a1c4:	d8800217 	ldw	r2,8(sp)
 100a1c8:	dc400415 	stw	r17,16(sp)
 100a1cc:	dc000315 	stw	r16,12(sp)
 100a1d0:	1105c83a 	sub	r2,r2,r4
 100a1d4:	d8800215 	stw	r2,8(sp)
 100a1d8:	003fde06 	br	100a154 <__floatsidf+0x34>
 100a1dc:	00a00034 	movhi	r2,32768
 100a1e0:	20800a26 	beq	r4,r2,100a20c <__floatsidf+0xec>
 100a1e4:	0109c83a 	sub	r4,zero,r4
 100a1e8:	003feb06 	br	100a198 <__floatsidf+0x78>
 100a1ec:	9006d07a 	srli	r3,r18,1
 100a1f0:	008007c4 	movi	r2,31
 100a1f4:	1105c83a 	sub	r2,r2,r4
 100a1f8:	1886d83a 	srl	r3,r3,r2
 100a1fc:	9922983a 	sll	r17,r19,r4
 100a200:	9120983a 	sll	r16,r18,r4
 100a204:	1c62b03a 	or	r17,r3,r17
 100a208:	003fee06 	br	100a1c4 <__floatsidf+0xa4>
 100a20c:	0009883a 	mov	r4,zero
 100a210:	01707834 	movhi	r5,49632
 100a214:	003fd306 	br	100a164 <__floatsidf+0x44>

0100a218 <__fixdfsi>:
 100a218:	defff804 	addi	sp,sp,-32
 100a21c:	2005883a 	mov	r2,r4
 100a220:	2807883a 	mov	r3,r5
 100a224:	d809883a 	mov	r4,sp
 100a228:	d9400204 	addi	r5,sp,8
 100a22c:	d8c00115 	stw	r3,4(sp)
 100a230:	d8800015 	stw	r2,0(sp)
 100a234:	dfc00715 	stw	ra,28(sp)
 100a238:	100a5d00 	call	100a5d0 <__unpack_d>
 100a23c:	d8c00217 	ldw	r3,8(sp)
 100a240:	00800084 	movi	r2,2
 100a244:	1880051e 	bne	r3,r2,100a25c <__fixdfsi+0x44>
 100a248:	0007883a 	mov	r3,zero
 100a24c:	1805883a 	mov	r2,r3
 100a250:	dfc00717 	ldw	ra,28(sp)
 100a254:	dec00804 	addi	sp,sp,32
 100a258:	f800283a 	ret
 100a25c:	00800044 	movi	r2,1
 100a260:	10fff92e 	bgeu	r2,r3,100a248 <__fixdfsi+0x30>
 100a264:	00800104 	movi	r2,4
 100a268:	18800426 	beq	r3,r2,100a27c <__fixdfsi+0x64>
 100a26c:	d8c00417 	ldw	r3,16(sp)
 100a270:	183ff516 	blt	r3,zero,100a248 <__fixdfsi+0x30>
 100a274:	00800784 	movi	r2,30
 100a278:	10c0080e 	bge	r2,r3,100a29c <__fixdfsi+0x84>
 100a27c:	d8800317 	ldw	r2,12(sp)
 100a280:	1000121e 	bne	r2,zero,100a2cc <__fixdfsi+0xb4>
 100a284:	00e00034 	movhi	r3,32768
 100a288:	18ffffc4 	addi	r3,r3,-1
 100a28c:	1805883a 	mov	r2,r3
 100a290:	dfc00717 	ldw	ra,28(sp)
 100a294:	dec00804 	addi	sp,sp,32
 100a298:	f800283a 	ret
 100a29c:	00800f04 	movi	r2,60
 100a2a0:	10d1c83a 	sub	r8,r2,r3
 100a2a4:	40bff804 	addi	r2,r8,-32
 100a2a8:	d9800517 	ldw	r6,20(sp)
 100a2ac:	d9c00617 	ldw	r7,24(sp)
 100a2b0:	10000816 	blt	r2,zero,100a2d4 <__fixdfsi+0xbc>
 100a2b4:	3888d83a 	srl	r4,r7,r2
 100a2b8:	d8800317 	ldw	r2,12(sp)
 100a2bc:	2007883a 	mov	r3,r4
 100a2c0:	103fe226 	beq	r2,zero,100a24c <__fixdfsi+0x34>
 100a2c4:	0107c83a 	sub	r3,zero,r4
 100a2c8:	003fe006 	br	100a24c <__fixdfsi+0x34>
 100a2cc:	00e00034 	movhi	r3,32768
 100a2d0:	003fde06 	br	100a24c <__fixdfsi+0x34>
 100a2d4:	39c7883a 	add	r3,r7,r7
 100a2d8:	008007c4 	movi	r2,31
 100a2dc:	1205c83a 	sub	r2,r2,r8
 100a2e0:	1886983a 	sll	r3,r3,r2
 100a2e4:	3208d83a 	srl	r4,r6,r8
 100a2e8:	1908b03a 	or	r4,r3,r4
 100a2ec:	003ff206 	br	100a2b8 <__fixdfsi+0xa0>

0100a2f0 <__floatunsidf>:
 100a2f0:	defff204 	addi	sp,sp,-56
 100a2f4:	dfc00d15 	stw	ra,52(sp)
 100a2f8:	ddc00c15 	stw	r23,48(sp)
 100a2fc:	dd800b15 	stw	r22,44(sp)
 100a300:	dd400a15 	stw	r21,40(sp)
 100a304:	dd000915 	stw	r20,36(sp)
 100a308:	dcc00815 	stw	r19,32(sp)
 100a30c:	dc800715 	stw	r18,28(sp)
 100a310:	dc400615 	stw	r17,24(sp)
 100a314:	dc000515 	stw	r16,20(sp)
 100a318:	d8000115 	stw	zero,4(sp)
 100a31c:	20000f1e 	bne	r4,zero,100a35c <__floatunsidf+0x6c>
 100a320:	00800084 	movi	r2,2
 100a324:	d8800015 	stw	r2,0(sp)
 100a328:	d809883a 	mov	r4,sp
 100a32c:	1000d6c0 	call	1000d6c <__pack_d>
 100a330:	dfc00d17 	ldw	ra,52(sp)
 100a334:	ddc00c17 	ldw	r23,48(sp)
 100a338:	dd800b17 	ldw	r22,44(sp)
 100a33c:	dd400a17 	ldw	r21,40(sp)
 100a340:	dd000917 	ldw	r20,36(sp)
 100a344:	dcc00817 	ldw	r19,32(sp)
 100a348:	dc800717 	ldw	r18,28(sp)
 100a34c:	dc400617 	ldw	r17,24(sp)
 100a350:	dc000517 	ldw	r16,20(sp)
 100a354:	dec00e04 	addi	sp,sp,56
 100a358:	f800283a 	ret
 100a35c:	008000c4 	movi	r2,3
 100a360:	00c00f04 	movi	r3,60
 100a364:	002f883a 	mov	r23,zero
 100a368:	202d883a 	mov	r22,r4
 100a36c:	d8800015 	stw	r2,0(sp)
 100a370:	d8c00215 	stw	r3,8(sp)
 100a374:	d9000315 	stw	r4,12(sp)
 100a378:	ddc00415 	stw	r23,16(sp)
 100a37c:	1000ac40 	call	1000ac4 <__clzsi2>
 100a380:	12400744 	addi	r9,r2,29
 100a384:	48000b16 	blt	r9,zero,100a3b4 <__floatunsidf+0xc4>
 100a388:	483fe726 	beq	r9,zero,100a328 <__floatunsidf+0x38>
 100a38c:	10bfff44 	addi	r2,r2,-3
 100a390:	10002e16 	blt	r2,zero,100a44c <__floatunsidf+0x15c>
 100a394:	b0a2983a 	sll	r17,r22,r2
 100a398:	0021883a 	mov	r16,zero
 100a39c:	d8800217 	ldw	r2,8(sp)
 100a3a0:	dc400415 	stw	r17,16(sp)
 100a3a4:	dc000315 	stw	r16,12(sp)
 100a3a8:	1245c83a 	sub	r2,r2,r9
 100a3ac:	d8800215 	stw	r2,8(sp)
 100a3b0:	003fdd06 	br	100a328 <__floatunsidf+0x38>
 100a3b4:	0255c83a 	sub	r10,zero,r9
 100a3b8:	51bff804 	addi	r6,r10,-32
 100a3bc:	30001b16 	blt	r6,zero,100a42c <__floatunsidf+0x13c>
 100a3c0:	b9a8d83a 	srl	r20,r23,r6
 100a3c4:	002b883a 	mov	r21,zero
 100a3c8:	000f883a 	mov	r7,zero
 100a3cc:	01000044 	movi	r4,1
 100a3d0:	0011883a 	mov	r8,zero
 100a3d4:	30002516 	blt	r6,zero,100a46c <__floatunsidf+0x17c>
 100a3d8:	21a6983a 	sll	r19,r4,r6
 100a3dc:	0025883a 	mov	r18,zero
 100a3e0:	00bfffc4 	movi	r2,-1
 100a3e4:	9089883a 	add	r4,r18,r2
 100a3e8:	988b883a 	add	r5,r19,r2
 100a3ec:	248d803a 	cmpltu	r6,r4,r18
 100a3f0:	314b883a 	add	r5,r6,r5
 100a3f4:	b104703a 	and	r2,r22,r4
 100a3f8:	b946703a 	and	r3,r23,r5
 100a3fc:	10c4b03a 	or	r2,r2,r3
 100a400:	10000226 	beq	r2,zero,100a40c <__floatunsidf+0x11c>
 100a404:	01c00044 	movi	r7,1
 100a408:	0011883a 	mov	r8,zero
 100a40c:	d9000217 	ldw	r4,8(sp)
 100a410:	a1c4b03a 	or	r2,r20,r7
 100a414:	aa06b03a 	or	r3,r21,r8
 100a418:	2249c83a 	sub	r4,r4,r9
 100a41c:	d8c00415 	stw	r3,16(sp)
 100a420:	d9000215 	stw	r4,8(sp)
 100a424:	d8800315 	stw	r2,12(sp)
 100a428:	003fbf06 	br	100a328 <__floatunsidf+0x38>
 100a42c:	bdc7883a 	add	r3,r23,r23
 100a430:	008007c4 	movi	r2,31
 100a434:	1285c83a 	sub	r2,r2,r10
 100a438:	1886983a 	sll	r3,r3,r2
 100a43c:	b2a8d83a 	srl	r20,r22,r10
 100a440:	baaad83a 	srl	r21,r23,r10
 100a444:	1d28b03a 	or	r20,r3,r20
 100a448:	003fdf06 	br	100a3c8 <__floatunsidf+0xd8>
 100a44c:	b006d07a 	srli	r3,r22,1
 100a450:	008007c4 	movi	r2,31
 100a454:	1245c83a 	sub	r2,r2,r9
 100a458:	1886d83a 	srl	r3,r3,r2
 100a45c:	ba62983a 	sll	r17,r23,r9
 100a460:	b260983a 	sll	r16,r22,r9
 100a464:	1c62b03a 	or	r17,r3,r17
 100a468:	003fcc06 	br	100a39c <__floatunsidf+0xac>
 100a46c:	2006d07a 	srli	r3,r4,1
 100a470:	008007c4 	movi	r2,31
 100a474:	1285c83a 	sub	r2,r2,r10
 100a478:	18a6d83a 	srl	r19,r3,r2
 100a47c:	22a4983a 	sll	r18,r4,r10
 100a480:	003fd706 	br	100a3e0 <__floatunsidf+0xf0>

0100a484 <udivmodsi4>:
 100a484:	29001b2e 	bgeu	r5,r4,100a4f4 <udivmodsi4+0x70>
 100a488:	28001a16 	blt	r5,zero,100a4f4 <udivmodsi4+0x70>
 100a48c:	00800044 	movi	r2,1
 100a490:	0007883a 	mov	r3,zero
 100a494:	01c007c4 	movi	r7,31
 100a498:	00000306 	br	100a4a8 <udivmodsi4+0x24>
 100a49c:	19c01326 	beq	r3,r7,100a4ec <udivmodsi4+0x68>
 100a4a0:	18c00044 	addi	r3,r3,1
 100a4a4:	28000416 	blt	r5,zero,100a4b8 <udivmodsi4+0x34>
 100a4a8:	294b883a 	add	r5,r5,r5
 100a4ac:	1085883a 	add	r2,r2,r2
 100a4b0:	293ffa36 	bltu	r5,r4,100a49c <udivmodsi4+0x18>
 100a4b4:	10000d26 	beq	r2,zero,100a4ec <udivmodsi4+0x68>
 100a4b8:	0007883a 	mov	r3,zero
 100a4bc:	21400236 	bltu	r4,r5,100a4c8 <udivmodsi4+0x44>
 100a4c0:	2149c83a 	sub	r4,r4,r5
 100a4c4:	1886b03a 	or	r3,r3,r2
 100a4c8:	1004d07a 	srli	r2,r2,1
 100a4cc:	280ad07a 	srli	r5,r5,1
 100a4d0:	103ffa1e 	bne	r2,zero,100a4bc <udivmodsi4+0x38>
 100a4d4:	30000226 	beq	r6,zero,100a4e0 <udivmodsi4+0x5c>
 100a4d8:	2005883a 	mov	r2,r4
 100a4dc:	f800283a 	ret
 100a4e0:	1809883a 	mov	r4,r3
 100a4e4:	2005883a 	mov	r2,r4
 100a4e8:	f800283a 	ret
 100a4ec:	0007883a 	mov	r3,zero
 100a4f0:	003ff806 	br	100a4d4 <udivmodsi4+0x50>
 100a4f4:	00800044 	movi	r2,1
 100a4f8:	0007883a 	mov	r3,zero
 100a4fc:	003fef06 	br	100a4bc <udivmodsi4+0x38>

0100a500 <__divsi3>:
 100a500:	defffe04 	addi	sp,sp,-8
 100a504:	dc000015 	stw	r16,0(sp)
 100a508:	dfc00115 	stw	ra,4(sp)
 100a50c:	0021883a 	mov	r16,zero
 100a510:	20000c16 	blt	r4,zero,100a544 <__divsi3+0x44>
 100a514:	000d883a 	mov	r6,zero
 100a518:	28000e16 	blt	r5,zero,100a554 <__divsi3+0x54>
 100a51c:	100a4840 	call	100a484 <udivmodsi4>
 100a520:	1007883a 	mov	r3,r2
 100a524:	8005003a 	cmpeq	r2,r16,zero
 100a528:	1000011e 	bne	r2,zero,100a530 <__divsi3+0x30>
 100a52c:	00c7c83a 	sub	r3,zero,r3
 100a530:	1805883a 	mov	r2,r3
 100a534:	dfc00117 	ldw	ra,4(sp)
 100a538:	dc000017 	ldw	r16,0(sp)
 100a53c:	dec00204 	addi	sp,sp,8
 100a540:	f800283a 	ret
 100a544:	0109c83a 	sub	r4,zero,r4
 100a548:	04000044 	movi	r16,1
 100a54c:	000d883a 	mov	r6,zero
 100a550:	283ff20e 	bge	r5,zero,100a51c <__divsi3+0x1c>
 100a554:	014bc83a 	sub	r5,zero,r5
 100a558:	8021003a 	cmpeq	r16,r16,zero
 100a55c:	003fef06 	br	100a51c <__divsi3+0x1c>

0100a560 <__modsi3>:
 100a560:	deffff04 	addi	sp,sp,-4
 100a564:	dfc00015 	stw	ra,0(sp)
 100a568:	01800044 	movi	r6,1
 100a56c:	2807883a 	mov	r3,r5
 100a570:	20000416 	blt	r4,zero,100a584 <__modsi3+0x24>
 100a574:	28000c16 	blt	r5,zero,100a5a8 <__modsi3+0x48>
 100a578:	dfc00017 	ldw	ra,0(sp)
 100a57c:	dec00104 	addi	sp,sp,4
 100a580:	100a4841 	jmpi	100a484 <udivmodsi4>
 100a584:	0109c83a 	sub	r4,zero,r4
 100a588:	28000b16 	blt	r5,zero,100a5b8 <__modsi3+0x58>
 100a58c:	180b883a 	mov	r5,r3
 100a590:	01800044 	movi	r6,1
 100a594:	100a4840 	call	100a484 <udivmodsi4>
 100a598:	0085c83a 	sub	r2,zero,r2
 100a59c:	dfc00017 	ldw	ra,0(sp)
 100a5a0:	dec00104 	addi	sp,sp,4
 100a5a4:	f800283a 	ret
 100a5a8:	014bc83a 	sub	r5,zero,r5
 100a5ac:	dfc00017 	ldw	ra,0(sp)
 100a5b0:	dec00104 	addi	sp,sp,4
 100a5b4:	100a4841 	jmpi	100a484 <udivmodsi4>
 100a5b8:	0147c83a 	sub	r3,zero,r5
 100a5bc:	003ff306 	br	100a58c <__modsi3+0x2c>

0100a5c0 <__udivsi3>:
 100a5c0:	000d883a 	mov	r6,zero
 100a5c4:	100a4841 	jmpi	100a484 <udivmodsi4>

0100a5c8 <__umodsi3>:
 100a5c8:	01800044 	movi	r6,1
 100a5cc:	100a4841 	jmpi	100a484 <udivmodsi4>

0100a5d0 <__unpack_d>:
 100a5d0:	20c00117 	ldw	r3,4(r4)
 100a5d4:	22400017 	ldw	r9,0(r4)
 100a5d8:	00800434 	movhi	r2,16
 100a5dc:	10bfffc4 	addi	r2,r2,-1
 100a5e0:	1808d53a 	srli	r4,r3,20
 100a5e4:	180cd7fa 	srli	r6,r3,31
 100a5e8:	1894703a 	and	r10,r3,r2
 100a5ec:	2201ffcc 	andi	r8,r4,2047
 100a5f0:	281b883a 	mov	r13,r5
 100a5f4:	4817883a 	mov	r11,r9
 100a5f8:	29800115 	stw	r6,4(r5)
 100a5fc:	5019883a 	mov	r12,r10
 100a600:	40001e1e 	bne	r8,zero,100a67c <__unpack_d+0xac>
 100a604:	4a84b03a 	or	r2,r9,r10
 100a608:	10001926 	beq	r2,zero,100a670 <__unpack_d+0xa0>
 100a60c:	4804d63a 	srli	r2,r9,24
 100a610:	500c923a 	slli	r6,r10,8
 100a614:	013f0084 	movi	r4,-1022
 100a618:	00c40034 	movhi	r3,4096
 100a61c:	18ffffc4 	addi	r3,r3,-1
 100a620:	118cb03a 	or	r6,r2,r6
 100a624:	008000c4 	movi	r2,3
 100a628:	480a923a 	slli	r5,r9,8
 100a62c:	68800015 	stw	r2,0(r13)
 100a630:	69000215 	stw	r4,8(r13)
 100a634:	19800b36 	bltu	r3,r6,100a664 <__unpack_d+0x94>
 100a638:	200f883a 	mov	r7,r4
 100a63c:	1811883a 	mov	r8,r3
 100a640:	2945883a 	add	r2,r5,r5
 100a644:	1149803a 	cmpltu	r4,r2,r5
 100a648:	3187883a 	add	r3,r6,r6
 100a64c:	20c9883a 	add	r4,r4,r3
 100a650:	100b883a 	mov	r5,r2
 100a654:	200d883a 	mov	r6,r4
 100a658:	39ffffc4 	addi	r7,r7,-1
 100a65c:	413ff82e 	bgeu	r8,r4,100a640 <__unpack_d+0x70>
 100a660:	69c00215 	stw	r7,8(r13)
 100a664:	69800415 	stw	r6,16(r13)
 100a668:	69400315 	stw	r5,12(r13)
 100a66c:	f800283a 	ret
 100a670:	00800084 	movi	r2,2
 100a674:	28800015 	stw	r2,0(r5)
 100a678:	f800283a 	ret
 100a67c:	0081ffc4 	movi	r2,2047
 100a680:	40800f26 	beq	r8,r2,100a6c0 <__unpack_d+0xf0>
 100a684:	480cd63a 	srli	r6,r9,24
 100a688:	5006923a 	slli	r3,r10,8
 100a68c:	4804923a 	slli	r2,r9,8
 100a690:	0009883a 	mov	r4,zero
 100a694:	30c6b03a 	or	r3,r6,r3
 100a698:	01440034 	movhi	r5,4096
 100a69c:	110cb03a 	or	r6,r2,r4
 100a6a0:	423f0044 	addi	r8,r8,-1023
 100a6a4:	194eb03a 	or	r7,r3,r5
 100a6a8:	008000c4 	movi	r2,3
 100a6ac:	69c00415 	stw	r7,16(r13)
 100a6b0:	6a000215 	stw	r8,8(r13)
 100a6b4:	68800015 	stw	r2,0(r13)
 100a6b8:	69800315 	stw	r6,12(r13)
 100a6bc:	f800283a 	ret
 100a6c0:	4a84b03a 	or	r2,r9,r10
 100a6c4:	1000031e 	bne	r2,zero,100a6d4 <__unpack_d+0x104>
 100a6c8:	00800104 	movi	r2,4
 100a6cc:	28800015 	stw	r2,0(r5)
 100a6d0:	f800283a 	ret
 100a6d4:	0009883a 	mov	r4,zero
 100a6d8:	01400234 	movhi	r5,8
 100a6dc:	4904703a 	and	r2,r9,r4
 100a6e0:	5146703a 	and	r3,r10,r5
 100a6e4:	10c4b03a 	or	r2,r2,r3
 100a6e8:	10000526 	beq	r2,zero,100a700 <__unpack_d+0x130>
 100a6ec:	00800044 	movi	r2,1
 100a6f0:	68800015 	stw	r2,0(r13)
 100a6f4:	6b000415 	stw	r12,16(r13)
 100a6f8:	6ac00315 	stw	r11,12(r13)
 100a6fc:	f800283a 	ret
 100a700:	68000015 	stw	zero,0(r13)
 100a704:	003ffb06 	br	100a6f4 <__unpack_d+0x124>

0100a708 <__fpcmp_parts_d>:
 100a708:	21800017 	ldw	r6,0(r4)
 100a70c:	00c00044 	movi	r3,1
 100a710:	19800a2e 	bgeu	r3,r6,100a73c <__fpcmp_parts_d+0x34>
 100a714:	28800017 	ldw	r2,0(r5)
 100a718:	1880082e 	bgeu	r3,r2,100a73c <__fpcmp_parts_d+0x34>
 100a71c:	00c00104 	movi	r3,4
 100a720:	30c02626 	beq	r6,r3,100a7bc <__fpcmp_parts_d+0xb4>
 100a724:	10c02226 	beq	r2,r3,100a7b0 <__fpcmp_parts_d+0xa8>
 100a728:	00c00084 	movi	r3,2
 100a72c:	30c00526 	beq	r6,r3,100a744 <__fpcmp_parts_d+0x3c>
 100a730:	10c0071e 	bne	r2,r3,100a750 <__fpcmp_parts_d+0x48>
 100a734:	20800117 	ldw	r2,4(r4)
 100a738:	1000091e 	bne	r2,zero,100a760 <__fpcmp_parts_d+0x58>
 100a73c:	00800044 	movi	r2,1
 100a740:	f800283a 	ret
 100a744:	10c01a1e 	bne	r2,r3,100a7b0 <__fpcmp_parts_d+0xa8>
 100a748:	0005883a 	mov	r2,zero
 100a74c:	f800283a 	ret
 100a750:	22000117 	ldw	r8,4(r4)
 100a754:	28800117 	ldw	r2,4(r5)
 100a758:	40800326 	beq	r8,r2,100a768 <__fpcmp_parts_d+0x60>
 100a75c:	403ff726 	beq	r8,zero,100a73c <__fpcmp_parts_d+0x34>
 100a760:	00bfffc4 	movi	r2,-1
 100a764:	f800283a 	ret
 100a768:	20c00217 	ldw	r3,8(r4)
 100a76c:	28800217 	ldw	r2,8(r5)
 100a770:	10fffa16 	blt	r2,r3,100a75c <__fpcmp_parts_d+0x54>
 100a774:	18800916 	blt	r3,r2,100a79c <__fpcmp_parts_d+0x94>
 100a778:	21c00417 	ldw	r7,16(r4)
 100a77c:	28c00417 	ldw	r3,16(r5)
 100a780:	21800317 	ldw	r6,12(r4)
 100a784:	28800317 	ldw	r2,12(r5)
 100a788:	19fff436 	bltu	r3,r7,100a75c <__fpcmp_parts_d+0x54>
 100a78c:	38c00526 	beq	r7,r3,100a7a4 <__fpcmp_parts_d+0x9c>
 100a790:	38c00236 	bltu	r7,r3,100a79c <__fpcmp_parts_d+0x94>
 100a794:	19ffec1e 	bne	r3,r7,100a748 <__fpcmp_parts_d+0x40>
 100a798:	30bfeb2e 	bgeu	r6,r2,100a748 <__fpcmp_parts_d+0x40>
 100a79c:	403fe71e 	bne	r8,zero,100a73c <__fpcmp_parts_d+0x34>
 100a7a0:	003fef06 	br	100a760 <__fpcmp_parts_d+0x58>
 100a7a4:	11bffa2e 	bgeu	r2,r6,100a790 <__fpcmp_parts_d+0x88>
 100a7a8:	403fe426 	beq	r8,zero,100a73c <__fpcmp_parts_d+0x34>
 100a7ac:	003fec06 	br	100a760 <__fpcmp_parts_d+0x58>
 100a7b0:	28800117 	ldw	r2,4(r5)
 100a7b4:	103fe11e 	bne	r2,zero,100a73c <__fpcmp_parts_d+0x34>
 100a7b8:	003fe906 	br	100a760 <__fpcmp_parts_d+0x58>
 100a7bc:	11bfdd1e 	bne	r2,r6,100a734 <__fpcmp_parts_d+0x2c>
 100a7c0:	28c00117 	ldw	r3,4(r5)
 100a7c4:	20800117 	ldw	r2,4(r4)
 100a7c8:	1885c83a 	sub	r2,r3,r2
 100a7cc:	f800283a 	ret

0100a7d0 <close>:
 *
 * ALT_CLOSE is mapped onto the close() system call in alt_syscall.h
 */
 
int ALT_CLOSE (int fildes)
{
 100a7d0:	defff804 	addi	sp,sp,-32
 100a7d4:	dfc00715 	stw	ra,28(sp)
 100a7d8:	df000615 	stw	fp,24(sp)
 100a7dc:	df000604 	addi	fp,sp,24
 100a7e0:	e13ffc15 	stw	r4,-16(fp)
   * A common error case is that when the file descriptor was created, the call
   * to open() failed resulting in a negative file descriptor. This is trapped
   * below so that we don't try and process an invalid file descriptor.
   */

  fd = (fildes < 0) ? NULL : &alt_fd_list[fildes];
 100a7e4:	e0bffc17 	ldw	r2,-16(fp)
 100a7e8:	1004803a 	cmplt	r2,r2,zero
 100a7ec:	1000091e 	bne	r2,zero,100a814 <close+0x44>
 100a7f0:	e13ffc17 	ldw	r4,-16(fp)
 100a7f4:	01400304 	movi	r5,12
 100a7f8:	1000a8c0 	call	1000a8c <__mulsi3>
 100a7fc:	1007883a 	mov	r3,r2
 100a800:	00804074 	movhi	r2,257
 100a804:	10b99904 	addi	r2,r2,-6556
 100a808:	1887883a 	add	r3,r3,r2
 100a80c:	e0ffff15 	stw	r3,-4(fp)
 100a810:	00000106 	br	100a818 <close+0x48>
 100a814:	e03fff15 	stw	zero,-4(fp)
 100a818:	e0bfff17 	ldw	r2,-4(fp)
 100a81c:	e0bffb15 	stw	r2,-20(fp)

  if (fd)
 100a820:	e0bffb17 	ldw	r2,-20(fp)
 100a824:	1005003a 	cmpeq	r2,r2,zero
 100a828:	10001d1e 	bne	r2,zero,100a8a0 <close+0xd0>
    /*
     * If the associated file system/device has a close function, call it so 
     * that any necessary cleanup code can run.
     */

    rval = (fd->dev->close) ? fd->dev->close(fd) : 0;
 100a82c:	e0bffb17 	ldw	r2,-20(fp)
 100a830:	10800017 	ldw	r2,0(r2)
 100a834:	10800417 	ldw	r2,16(r2)
 100a838:	1005003a 	cmpeq	r2,r2,zero
 100a83c:	1000071e 	bne	r2,zero,100a85c <close+0x8c>
 100a840:	e0bffb17 	ldw	r2,-20(fp)
 100a844:	10800017 	ldw	r2,0(r2)
 100a848:	10800417 	ldw	r2,16(r2)
 100a84c:	e13ffb17 	ldw	r4,-20(fp)
 100a850:	103ee83a 	callr	r2
 100a854:	e0bffe15 	stw	r2,-8(fp)
 100a858:	00000106 	br	100a860 <close+0x90>
 100a85c:	e03ffe15 	stw	zero,-8(fp)
 100a860:	e0bffe17 	ldw	r2,-8(fp)
 100a864:	e0bffa15 	stw	r2,-24(fp)

    /* Free the file descriptor structure and return. */

    alt_release_fd (fildes);
 100a868:	e13ffc17 	ldw	r4,-16(fp)
 100a86c:	100b2440 	call	100b244 <alt_release_fd>
    if (rval < 0)
 100a870:	e0bffa17 	ldw	r2,-24(fp)
 100a874:	1004403a 	cmpge	r2,r2,zero
 100a878:	1000071e 	bne	r2,zero,100a898 <close+0xc8>
    {
      ALT_ERRNO = -rval;
 100a87c:	100a8d00 	call	100a8d0 <alt_get_errno>
 100a880:	e0fffa17 	ldw	r3,-24(fp)
 100a884:	00c7c83a 	sub	r3,zero,r3
 100a888:	10c00015 	stw	r3,0(r2)
      return -1;
 100a88c:	00bfffc4 	movi	r2,-1
 100a890:	e0bffd15 	stw	r2,-12(fp)
 100a894:	00000806 	br	100a8b8 <close+0xe8>
    }
    return 0;
 100a898:	e03ffd15 	stw	zero,-12(fp)
 100a89c:	00000606 	br	100a8b8 <close+0xe8>
  }
  else
  {
    ALT_ERRNO = EBADFD;
 100a8a0:	100a8d00 	call	100a8d0 <alt_get_errno>
 100a8a4:	1007883a 	mov	r3,r2
 100a8a8:	00801444 	movi	r2,81
 100a8ac:	18800015 	stw	r2,0(r3)
    return -1;
 100a8b0:	00bfffc4 	movi	r2,-1
 100a8b4:	e0bffd15 	stw	r2,-12(fp)
 100a8b8:	e0bffd17 	ldw	r2,-12(fp)
  }
}
 100a8bc:	e037883a 	mov	sp,fp
 100a8c0:	dfc00117 	ldw	ra,4(sp)
 100a8c4:	df000017 	ldw	fp,0(sp)
 100a8c8:	dec00204 	addi	sp,sp,8
 100a8cc:	f800283a 	ret

0100a8d0 <alt_get_errno>:
#undef errno

extern int errno;

static ALT_INLINE int* alt_get_errno(void)
{
 100a8d0:	defffd04 	addi	sp,sp,-12
 100a8d4:	dfc00215 	stw	ra,8(sp)
 100a8d8:	df000115 	stw	fp,4(sp)
 100a8dc:	df000104 	addi	fp,sp,4
  return ((alt_errno) ? alt_errno() : &errno);
 100a8e0:	00804074 	movhi	r2,257
 100a8e4:	10be2704 	addi	r2,r2,-1892
 100a8e8:	10800017 	ldw	r2,0(r2)
 100a8ec:	1005003a 	cmpeq	r2,r2,zero
 100a8f0:	1000061e 	bne	r2,zero,100a90c <alt_get_errno+0x3c>
 100a8f4:	00804074 	movhi	r2,257
 100a8f8:	10be2704 	addi	r2,r2,-1892
 100a8fc:	10800017 	ldw	r2,0(r2)
 100a900:	103ee83a 	callr	r2
 100a904:	e0bfff15 	stw	r2,-4(fp)
 100a908:	00000306 	br	100a918 <alt_get_errno+0x48>
 100a90c:	00804074 	movhi	r2,257
 100a910:	1084ce04 	addi	r2,r2,4920
 100a914:	e0bfff15 	stw	r2,-4(fp)
 100a918:	e0bfff17 	ldw	r2,-4(fp)
}
 100a91c:	e037883a 	mov	sp,fp
 100a920:	dfc00117 	ldw	ra,4(sp)
 100a924:	df000017 	ldw	fp,0(sp)
 100a928:	dec00204 	addi	sp,sp,8
 100a92c:	f800283a 	ret

0100a930 <alt_dev_null_write>:
 * by the alt_dev_null device. It simple discards all data passed to it, and
 * indicates that the data has been successfully transmitted.
 */

static int alt_dev_null_write (alt_fd* fd, const char* ptr, int len)
{
 100a930:	defffc04 	addi	sp,sp,-16
 100a934:	df000315 	stw	fp,12(sp)
 100a938:	df000304 	addi	fp,sp,12
 100a93c:	e13ffd15 	stw	r4,-12(fp)
 100a940:	e17ffe15 	stw	r5,-8(fp)
 100a944:	e1bfff15 	stw	r6,-4(fp)
  return len;
 100a948:	e0bfff17 	ldw	r2,-4(fp)
}
 100a94c:	e037883a 	mov	sp,fp
 100a950:	df000017 	ldw	fp,0(sp)
 100a954:	dec00104 	addi	sp,sp,4
 100a958:	f800283a 	ret

0100a95c <fstat>:
}

#else /* !ALT_USE_DIRECT_DRIVERS */

int ALT_FSTAT (int file, struct stat *st)
{
 100a95c:	defff904 	addi	sp,sp,-28
 100a960:	dfc00615 	stw	ra,24(sp)
 100a964:	df000515 	stw	fp,20(sp)
 100a968:	df000504 	addi	fp,sp,20
 100a96c:	e13ffc15 	stw	r4,-16(fp)
 100a970:	e17ffd15 	stw	r5,-12(fp)
   * A common error case is that when the file descriptor was created, the call
   * to open() failed resulting in a negative file descriptor. This is trapped
   * below so that we don't try and process an invalid file descriptor.
   */

  fd = (file < 0) ? NULL : &alt_fd_list[file];
 100a974:	e0bffc17 	ldw	r2,-16(fp)
 100a978:	1004803a 	cmplt	r2,r2,zero
 100a97c:	1000091e 	bne	r2,zero,100a9a4 <fstat+0x48>
 100a980:	e13ffc17 	ldw	r4,-16(fp)
 100a984:	01400304 	movi	r5,12
 100a988:	1000a8c0 	call	1000a8c <__mulsi3>
 100a98c:	1007883a 	mov	r3,r2
 100a990:	00804074 	movhi	r2,257
 100a994:	10b99904 	addi	r2,r2,-6556
 100a998:	1887883a 	add	r3,r3,r2
 100a99c:	e0ffff15 	stw	r3,-4(fp)
 100a9a0:	00000106 	br	100a9a8 <fstat+0x4c>
 100a9a4:	e03fff15 	stw	zero,-4(fp)
 100a9a8:	e0bfff17 	ldw	r2,-4(fp)
 100a9ac:	e0bffb15 	stw	r2,-20(fp)
  
  if (fd)
 100a9b0:	e0bffb17 	ldw	r2,-20(fp)
 100a9b4:	1005003a 	cmpeq	r2,r2,zero
 100a9b8:	1000121e 	bne	r2,zero,100aa04 <fstat+0xa8>
  {
    /* Call the drivers fstat() function to fill out the "st" structure. */

    if (fd->dev->fstat)
 100a9bc:	e0bffb17 	ldw	r2,-20(fp)
 100a9c0:	10800017 	ldw	r2,0(r2)
 100a9c4:	10800817 	ldw	r2,32(r2)
 100a9c8:	1005003a 	cmpeq	r2,r2,zero
 100a9cc:	1000081e 	bne	r2,zero,100a9f0 <fstat+0x94>
    {
      return fd->dev->fstat(fd, st);
 100a9d0:	e0bffb17 	ldw	r2,-20(fp)
 100a9d4:	10800017 	ldw	r2,0(r2)
 100a9d8:	10800817 	ldw	r2,32(r2)
 100a9dc:	e13ffb17 	ldw	r4,-20(fp)
 100a9e0:	e17ffd17 	ldw	r5,-12(fp)
 100a9e4:	103ee83a 	callr	r2
 100a9e8:	e0bffe15 	stw	r2,-8(fp)
 100a9ec:	00000b06 	br	100aa1c <fstat+0xc0>
     * device.
     */
 
    else
    {
      st->st_mode = _IFCHR;
 100a9f0:	e0fffd17 	ldw	r3,-12(fp)
 100a9f4:	00880004 	movi	r2,8192
 100a9f8:	18800115 	stw	r2,4(r3)
      return 0;
 100a9fc:	e03ffe15 	stw	zero,-8(fp)
 100aa00:	00000606 	br	100aa1c <fstat+0xc0>
    }
  }
  else
  {
    ALT_ERRNO = EBADFD;
 100aa04:	100aa340 	call	100aa34 <alt_get_errno>
 100aa08:	1007883a 	mov	r3,r2
 100aa0c:	00801444 	movi	r2,81
 100aa10:	18800015 	stw	r2,0(r3)
    return -1;
 100aa14:	00bfffc4 	movi	r2,-1
 100aa18:	e0bffe15 	stw	r2,-8(fp)
 100aa1c:	e0bffe17 	ldw	r2,-8(fp)
  }
}
 100aa20:	e037883a 	mov	sp,fp
 100aa24:	dfc00117 	ldw	ra,4(sp)
 100aa28:	df000017 	ldw	fp,0(sp)
 100aa2c:	dec00204 	addi	sp,sp,8
 100aa30:	f800283a 	ret

0100aa34 <alt_get_errno>:
#undef errno

extern int errno;

static ALT_INLINE int* alt_get_errno(void)
{
 100aa34:	defffd04 	addi	sp,sp,-12
 100aa38:	dfc00215 	stw	ra,8(sp)
 100aa3c:	df000115 	stw	fp,4(sp)
 100aa40:	df000104 	addi	fp,sp,4
  return ((alt_errno) ? alt_errno() : &errno);
 100aa44:	00804074 	movhi	r2,257
 100aa48:	10be2704 	addi	r2,r2,-1892
 100aa4c:	10800017 	ldw	r2,0(r2)
 100aa50:	1005003a 	cmpeq	r2,r2,zero
 100aa54:	1000061e 	bne	r2,zero,100aa70 <alt_get_errno+0x3c>
 100aa58:	00804074 	movhi	r2,257
 100aa5c:	10be2704 	addi	r2,r2,-1892
 100aa60:	10800017 	ldw	r2,0(r2)
 100aa64:	103ee83a 	callr	r2
 100aa68:	e0bfff15 	stw	r2,-4(fp)
 100aa6c:	00000306 	br	100aa7c <alt_get_errno+0x48>
 100aa70:	00804074 	movhi	r2,257
 100aa74:	1084ce04 	addi	r2,r2,4920
 100aa78:	e0bfff15 	stw	r2,-4(fp)
 100aa7c:	e0bfff17 	ldw	r2,-4(fp)
}
 100aa80:	e037883a 	mov	sp,fp
 100aa84:	dfc00117 	ldw	ra,4(sp)
 100aa88:	df000017 	ldw	fp,0(sp)
 100aa8c:	dec00204 	addi	sp,sp,8
 100aa90:	f800283a 	ret

0100aa94 <gettimeofday>:
 */
 

#if defined (__GNUC__) && (__GNUC__ >= 4)
int ALT_GETTIMEOFDAY (struct timeval  *ptimeval, void *ptimezone_vptr)
{
 100aa94:	defff504 	addi	sp,sp,-44
 100aa98:	dfc00a15 	stw	ra,40(sp)
 100aa9c:	df000915 	stw	fp,36(sp)
 100aaa0:	dc800815 	stw	r18,32(sp)
 100aaa4:	dc400715 	stw	r17,28(sp)
 100aaa8:	dc000615 	stw	r16,24(sp)
 100aaac:	df000604 	addi	fp,sp,24
 100aab0:	e13ffd15 	stw	r4,-12(fp)
 100aab4:	e17ffe15 	stw	r5,-8(fp)
  struct timezone *ptimezone = (struct timezone*)ptimezone_vptr;
 100aab8:	e0bffe17 	ldw	r2,-8(fp)
 100aabc:	e0bffc15 	stw	r2,-16(fp)
 * alt_nticks() returns the elapsed number of system clock ticks since reset.
 */

static ALT_INLINE alt_u32 ALT_ALWAYS_INLINE alt_nticks (void)
{
  return _alt_nticks;
 100aac0:	00804074 	movhi	r2,257
 100aac4:	1084dd04 	addi	r2,r2,4980
 100aac8:	10800017 	ldw	r2,0(r2)
#else
int ALT_GETTIMEOFDAY (struct timeval  *ptimeval, struct timezone *ptimezone)
{
#endif
  
  alt_u32 nticks = alt_nticks (); 
 100aacc:	e0bffb15 	stw	r2,-20(fp)
 * Obtain the system clock rate in ticks/s. 
 */

static ALT_INLINE alt_u32 ALT_ALWAYS_INLINE alt_ticks_per_second (void)
{
  return _alt_tick_rate;
 100aad0:	00804074 	movhi	r2,257
 100aad4:	1084dc04 	addi	r2,r2,4976
 100aad8:	10800017 	ldw	r2,0(r2)
  alt_u32 tick_rate = alt_ticks_per_second ();
 100aadc:	e0bffa15 	stw	r2,-24(fp)
   * non-zero system clock rate. If the system clock is not running, an error
   * is generated and the contents of "ptimeval" and "ptimezone" are not
   * updated.
   */

  if (tick_rate)
 100aae0:	e0bffa17 	ldw	r2,-24(fp)
 100aae4:	1005003a 	cmpeq	r2,r2,zero
 100aae8:	1000661e 	bne	r2,zero,100ac84 <gettimeofday+0x1f0>
  {
    ptimeval->tv_sec  = alt_resettime.tv_sec  + nticks/tick_rate;
 100aaec:	d0a6bb17 	ldw	r2,-25876(gp)
 100aaf0:	1021883a 	mov	r16,r2
 100aaf4:	e13ffb17 	ldw	r4,-20(fp)
 100aaf8:	e17ffa17 	ldw	r5,-24(fp)
 100aafc:	100a5c00 	call	100a5c0 <__udivsi3>
 100ab00:	8085883a 	add	r2,r16,r2
 100ab04:	1007883a 	mov	r3,r2
 100ab08:	e0bffd17 	ldw	r2,-12(fp)
 100ab0c:	10c00015 	stw	r3,0(r2)
    ptimeval->tv_usec = alt_resettime.tv_usec +
 100ab10:	00804074 	movhi	r2,257
 100ab14:	1084d804 	addi	r2,r2,4960
 100ab18:	10800017 	ldw	r2,0(r2)
 100ab1c:	1025883a 	mov	r18,r2
 100ab20:	e43ffb17 	ldw	r16,-20(fp)
 100ab24:	0023883a 	mov	r17,zero
 100ab28:	010003f4 	movhi	r4,15
 100ab2c:	21109004 	addi	r4,r4,16960
 100ab30:	e17ffa17 	ldw	r5,-24(fp)
 100ab34:	100a5c00 	call	100a5c0 <__udivsi3>
 100ab38:	1009883a 	mov	r4,r2
 100ab3c:	2005883a 	mov	r2,r4
 100ab40:	0007883a 	mov	r3,zero
 100ab44:	8009883a 	mov	r4,r16
 100ab48:	880b883a 	mov	r5,r17
 100ab4c:	100d883a 	mov	r6,r2
 100ab50:	180f883a 	mov	r7,r3
 100ab54:	10085680 	call	1008568 <__muldi3>
 100ab58:	1009883a 	mov	r4,r2
 100ab5c:	180b883a 	mov	r5,r3
 100ab60:	2005883a 	mov	r2,r4
 100ab64:	2807883a 	mov	r3,r5
 100ab68:	1009883a 	mov	r4,r2
 100ab6c:	180b883a 	mov	r5,r3
 100ab70:	018003f4 	movhi	r6,15
 100ab74:	31909004 	addi	r6,r6,16960
 100ab78:	000f883a 	mov	r7,zero
 100ab7c:	1008cf80 	call	1008cf8 <__umoddi3>
 100ab80:	1009883a 	mov	r4,r2
 100ab84:	180b883a 	mov	r5,r3
 100ab88:	2005883a 	mov	r2,r4
 100ab8c:	2807883a 	mov	r3,r5
 100ab90:	9085883a 	add	r2,r18,r2
 100ab94:	1007883a 	mov	r3,r2
 100ab98:	e0bffd17 	ldw	r2,-12(fp)
 100ab9c:	10c00115 	stw	r3,4(r2)
     (alt_u32)(((alt_u64)nticks*(ALT_US/tick_rate))%ALT_US);
      
    while(ptimeval->tv_usec < 0) {
 100aba0:	00001506 	br	100abf8 <gettimeofday+0x164>
      if (ptimeval->tv_sec <= 0)
 100aba4:	e0bffd17 	ldw	r2,-12(fp)
 100aba8:	10800017 	ldw	r2,0(r2)
 100abac:	10800048 	cmpgei	r2,r2,1
 100abb0:	1000051e 	bne	r2,zero,100abc8 <gettimeofday+0x134>
      {
          ptimeval->tv_sec = 0;
 100abb4:	e0bffd17 	ldw	r2,-12(fp)
 100abb8:	10000015 	stw	zero,0(r2)
          ptimeval->tv_usec = 0;
 100abbc:	e0bffd17 	ldw	r2,-12(fp)
 100abc0:	10000115 	stw	zero,4(r2)
          break;
 100abc4:	00001d06 	br	100ac3c <gettimeofday+0x1a8>
      }
      else
      {
          ptimeval->tv_sec--;
 100abc8:	e0bffd17 	ldw	r2,-12(fp)
 100abcc:	10800017 	ldw	r2,0(r2)
 100abd0:	10ffffc4 	addi	r3,r2,-1
 100abd4:	e0bffd17 	ldw	r2,-12(fp)
 100abd8:	10c00015 	stw	r3,0(r2)
          ptimeval->tv_usec += ALT_US;
 100abdc:	e0bffd17 	ldw	r2,-12(fp)
 100abe0:	10c00117 	ldw	r3,4(r2)
 100abe4:	008003f4 	movhi	r2,15
 100abe8:	10909004 	addi	r2,r2,16960
 100abec:	1887883a 	add	r3,r3,r2
 100abf0:	e0bffd17 	ldw	r2,-12(fp)
 100abf4:	10c00115 	stw	r3,4(r2)
  {
    ptimeval->tv_sec  = alt_resettime.tv_sec  + nticks/tick_rate;
    ptimeval->tv_usec = alt_resettime.tv_usec +
     (alt_u32)(((alt_u64)nticks*(ALT_US/tick_rate))%ALT_US);
      
    while(ptimeval->tv_usec < 0) {
 100abf8:	e0bffd17 	ldw	r2,-12(fp)
 100abfc:	10800117 	ldw	r2,4(r2)
 100ac00:	1004803a 	cmplt	r2,r2,zero
 100ac04:	103fe71e 	bne	r2,zero,100aba4 <gettimeofday+0x110>
          ptimeval->tv_sec--;
          ptimeval->tv_usec += ALT_US;
      }
    }
    
    while(ptimeval->tv_usec >= ALT_US) {
 100ac08:	00000c06 	br	100ac3c <gettimeofday+0x1a8>
      ptimeval->tv_sec++;
 100ac0c:	e0bffd17 	ldw	r2,-12(fp)
 100ac10:	10800017 	ldw	r2,0(r2)
 100ac14:	10c00044 	addi	r3,r2,1
 100ac18:	e0bffd17 	ldw	r2,-12(fp)
 100ac1c:	10c00015 	stw	r3,0(r2)
      ptimeval->tv_usec -= ALT_US;
 100ac20:	e0bffd17 	ldw	r2,-12(fp)
 100ac24:	10c00117 	ldw	r3,4(r2)
 100ac28:	00bffc74 	movhi	r2,65521
 100ac2c:	10af7004 	addi	r2,r2,-16960
 100ac30:	1887883a 	add	r3,r3,r2
 100ac34:	e0bffd17 	ldw	r2,-12(fp)
 100ac38:	10c00115 	stw	r3,4(r2)
          ptimeval->tv_sec--;
          ptimeval->tv_usec += ALT_US;
      }
    }
    
    while(ptimeval->tv_usec >= ALT_US) {
 100ac3c:	e0bffd17 	ldw	r2,-12(fp)
 100ac40:	10c00117 	ldw	r3,4(r2)
 100ac44:	008003f4 	movhi	r2,15
 100ac48:	10908fc4 	addi	r2,r2,16959
 100ac4c:	10ffef16 	blt	r2,r3,100ac0c <gettimeofday+0x178>
      ptimeval->tv_sec++;
      ptimeval->tv_usec -= ALT_US;
    }
      
    if (ptimezone)
 100ac50:	e0bffc17 	ldw	r2,-16(fp)
 100ac54:	1005003a 	cmpeq	r2,r2,zero
 100ac58:	1000081e 	bne	r2,zero,100ac7c <gettimeofday+0x1e8>
    { 
      ptimezone->tz_minuteswest = alt_timezone.tz_minuteswest;
 100ac5c:	d0e6b917 	ldw	r3,-25884(gp)
 100ac60:	e0bffc17 	ldw	r2,-16(fp)
 100ac64:	10c00015 	stw	r3,0(r2)
      ptimezone->tz_dsttime     = alt_timezone.tz_dsttime;
 100ac68:	00804074 	movhi	r2,257
 100ac6c:	1084d604 	addi	r2,r2,4952
 100ac70:	10c00017 	ldw	r3,0(r2)
 100ac74:	e0bffc17 	ldw	r2,-16(fp)
 100ac78:	10c00115 	stw	r3,4(r2)
    }

    return 0;
 100ac7c:	e03fff15 	stw	zero,-4(fp)
 100ac80:	00000206 	br	100ac8c <gettimeofday+0x1f8>
  }

  return -ENOTSUP;
 100ac84:	00bfde84 	movi	r2,-134
 100ac88:	e0bfff15 	stw	r2,-4(fp)
 100ac8c:	e0bfff17 	ldw	r2,-4(fp)
}
 100ac90:	e037883a 	mov	sp,fp
 100ac94:	dfc00417 	ldw	ra,16(sp)
 100ac98:	df000317 	ldw	fp,12(sp)
 100ac9c:	dc800217 	ldw	r18,8(sp)
 100aca0:	dc400117 	ldw	r17,4(sp)
 100aca4:	dc000017 	ldw	r16,0(sp)
 100aca8:	dec00504 	addi	sp,sp,20
 100acac:	f800283a 	ret

0100acb0 <isatty>:
 *
 * ALT_ISATTY is mapped onto the isatty() system call in alt_syscall.h
 */
 
int ALT_ISATTY (int file)
{
 100acb0:	deffeb04 	addi	sp,sp,-84
 100acb4:	dfc01415 	stw	ra,80(sp)
 100acb8:	df001315 	stw	fp,76(sp)
 100acbc:	df001304 	addi	fp,sp,76
 100acc0:	e13ffd15 	stw	r4,-12(fp)
   * A common error case is that when the file descriptor was created, the call
   * to open() failed resulting in a negative file descriptor. This is trapped
   * below so that we don't try and process an invalid file descriptor.
   */

  fd = (file < 0) ? NULL : &alt_fd_list[file];
 100acc4:	e0bffd17 	ldw	r2,-12(fp)
 100acc8:	1004803a 	cmplt	r2,r2,zero
 100accc:	1000091e 	bne	r2,zero,100acf4 <isatty+0x44>
 100acd0:	e13ffd17 	ldw	r4,-12(fp)
 100acd4:	01400304 	movi	r5,12
 100acd8:	1000a8c0 	call	1000a8c <__mulsi3>
 100acdc:	1007883a 	mov	r3,r2
 100ace0:	00804074 	movhi	r2,257
 100ace4:	10b99904 	addi	r2,r2,-6556
 100ace8:	1887883a 	add	r3,r3,r2
 100acec:	e0ffff15 	stw	r3,-4(fp)
 100acf0:	00000106 	br	100acf8 <isatty+0x48>
 100acf4:	e03fff15 	stw	zero,-4(fp)
 100acf8:	e0bfff17 	ldw	r2,-4(fp)
 100acfc:	e0bfed15 	stw	r2,-76(fp)
  
  if (fd)
 100ad00:	e0bfed17 	ldw	r2,-76(fp)
 100ad04:	1005003a 	cmpeq	r2,r2,zero
 100ad08:	10000f1e 	bne	r2,zero,100ad48 <isatty+0x98>
    /*
     * If a device driver does not provide an fstat() function, then it is 
     * treated as a terminal device by default.
     */

    if (!fd->dev->fstat)
 100ad0c:	e0bfed17 	ldw	r2,-76(fp)
 100ad10:	10800017 	ldw	r2,0(r2)
 100ad14:	10800817 	ldw	r2,32(r2)
 100ad18:	1004c03a 	cmpne	r2,r2,zero
 100ad1c:	1000031e 	bne	r2,zero,100ad2c <isatty+0x7c>
    {
      return 1;
 100ad20:	00800044 	movi	r2,1
 100ad24:	e0bffe15 	stw	r2,-8(fp)
 100ad28:	00000c06 	br	100ad5c <isatty+0xac>
     * this is called so that the device can identify itself.
     */ 

    else
    {
      fstat (file, &stat);
 100ad2c:	e17fee04 	addi	r5,fp,-72
 100ad30:	e13ffd17 	ldw	r4,-12(fp)
 100ad34:	100a95c0 	call	100a95c <fstat>
      return (stat.st_mode == _IFCHR) ? 1 : 0;
 100ad38:	e0bfef17 	ldw	r2,-68(fp)
 100ad3c:	10880020 	cmpeqi	r2,r2,8192
 100ad40:	e0bffe15 	stw	r2,-8(fp)
 100ad44:	00000506 	br	100ad5c <isatty+0xac>
    }
  }
  else
  {
    ALT_ERRNO = EBADFD;
 100ad48:	100ad740 	call	100ad74 <alt_get_errno>
 100ad4c:	1007883a 	mov	r3,r2
 100ad50:	00801444 	movi	r2,81
 100ad54:	18800015 	stw	r2,0(r3)
    return 0;
 100ad58:	e03ffe15 	stw	zero,-8(fp)
 100ad5c:	e0bffe17 	ldw	r2,-8(fp)
  }
}
 100ad60:	e037883a 	mov	sp,fp
 100ad64:	dfc00117 	ldw	ra,4(sp)
 100ad68:	df000017 	ldw	fp,0(sp)
 100ad6c:	dec00204 	addi	sp,sp,8
 100ad70:	f800283a 	ret

0100ad74 <alt_get_errno>:
#undef errno

extern int errno;

static ALT_INLINE int* alt_get_errno(void)
{
 100ad74:	defffd04 	addi	sp,sp,-12
 100ad78:	dfc00215 	stw	ra,8(sp)
 100ad7c:	df000115 	stw	fp,4(sp)
 100ad80:	df000104 	addi	fp,sp,4
  return ((alt_errno) ? alt_errno() : &errno);
 100ad84:	00804074 	movhi	r2,257
 100ad88:	10be2704 	addi	r2,r2,-1892
 100ad8c:	10800017 	ldw	r2,0(r2)
 100ad90:	1005003a 	cmpeq	r2,r2,zero
 100ad94:	1000061e 	bne	r2,zero,100adb0 <alt_get_errno+0x3c>
 100ad98:	00804074 	movhi	r2,257
 100ad9c:	10be2704 	addi	r2,r2,-1892
 100ada0:	10800017 	ldw	r2,0(r2)
 100ada4:	103ee83a 	callr	r2
 100ada8:	e0bfff15 	stw	r2,-4(fp)
 100adac:	00000306 	br	100adbc <alt_get_errno+0x48>
 100adb0:	00804074 	movhi	r2,257
 100adb4:	1084ce04 	addi	r2,r2,4920
 100adb8:	e0bfff15 	stw	r2,-4(fp)
 100adbc:	e0bfff17 	ldw	r2,-4(fp)
}
 100adc0:	e037883a 	mov	sp,fp
 100adc4:	dfc00117 	ldw	ra,4(sp)
 100adc8:	df000017 	ldw	fp,0(sp)
 100adcc:	dec00204 	addi	sp,sp,8
 100add0:	f800283a 	ret

0100add4 <alt_load>:
 * there is no bootloader, so this application is responsible for loading to
 * RAM any sections that are required.
 */  

void alt_load (void)
{
 100add4:	defffe04 	addi	sp,sp,-8
 100add8:	dfc00115 	stw	ra,4(sp)
 100addc:	df000015 	stw	fp,0(sp)
 100ade0:	d839883a 	mov	fp,sp
  /* 
   * Copy the .rwdata section. 
   */

  alt_load_section (&__flash_rwdata_start, 
 100ade4:	01004074 	movhi	r4,257
 100ade8:	213e2c04 	addi	r4,r4,-1872
 100adec:	01404074 	movhi	r5,257
 100adf0:	29778a04 	addi	r5,r5,-8664
 100adf4:	01804074 	movhi	r6,257
 100adf8:	31be2c04 	addi	r6,r6,-1872
 100adfc:	100ae540 	call	100ae54 <alt_load_section>

  /*
   * Copy the exception handler.
   */

  alt_load_section (&__flash_exceptions_start, 
 100ae00:	01004034 	movhi	r4,256
 100ae04:	21000804 	addi	r4,r4,32
 100ae08:	01404034 	movhi	r5,256
 100ae0c:	29400804 	addi	r5,r5,32
 100ae10:	01804034 	movhi	r6,256
 100ae14:	31806d04 	addi	r6,r6,436
 100ae18:	100ae540 	call	100ae54 <alt_load_section>

  /*
   * Copy the .rodata section.
   */

  alt_load_section (&__flash_rodata_start, 
 100ae1c:	01004074 	movhi	r4,257
 100ae20:	2136a304 	addi	r4,r4,-9588
 100ae24:	01404074 	movhi	r5,257
 100ae28:	2976a304 	addi	r5,r5,-9588
 100ae2c:	01804074 	movhi	r6,257
 100ae30:	31b78a04 	addi	r6,r6,-8664
 100ae34:	100ae540 	call	100ae54 <alt_load_section>
  
  /*
   * Now ensure that the caches are in synch.
   */
  
  alt_dcache_flush_all();
 100ae38:	100ca240 	call	100ca24 <alt_dcache_flush_all>
  alt_icache_flush_all();
 100ae3c:	100ccb00 	call	100ccb0 <alt_icache_flush_all>
}
 100ae40:	e037883a 	mov	sp,fp
 100ae44:	dfc00117 	ldw	ra,4(sp)
 100ae48:	df000017 	ldw	fp,0(sp)
 100ae4c:	dec00204 	addi	sp,sp,8
 100ae50:	f800283a 	ret

0100ae54 <alt_load_section>:
 */

static void ALT_INLINE alt_load_section (alt_u32* from, 
                                         alt_u32* to, 
                                         alt_u32* end)
{
 100ae54:	defffc04 	addi	sp,sp,-16
 100ae58:	df000315 	stw	fp,12(sp)
 100ae5c:	df000304 	addi	fp,sp,12
 100ae60:	e13ffd15 	stw	r4,-12(fp)
 100ae64:	e17ffe15 	stw	r5,-8(fp)
 100ae68:	e1bfff15 	stw	r6,-4(fp)
  if (to != from)
 100ae6c:	e0fffe17 	ldw	r3,-8(fp)
 100ae70:	e0bffd17 	ldw	r2,-12(fp)
 100ae74:	18800e26 	beq	r3,r2,100aeb0 <alt_load_section+0x5c>
  {
    while( to != end )
 100ae78:	00000a06 	br	100aea4 <alt_load_section+0x50>
    {
      *to++ = *from++;
 100ae7c:	e0bffd17 	ldw	r2,-12(fp)
 100ae80:	10c00017 	ldw	r3,0(r2)
 100ae84:	e0bffe17 	ldw	r2,-8(fp)
 100ae88:	10c00015 	stw	r3,0(r2)
 100ae8c:	e0bffe17 	ldw	r2,-8(fp)
 100ae90:	10800104 	addi	r2,r2,4
 100ae94:	e0bffe15 	stw	r2,-8(fp)
 100ae98:	e0bffd17 	ldw	r2,-12(fp)
 100ae9c:	10800104 	addi	r2,r2,4
 100aea0:	e0bffd15 	stw	r2,-12(fp)
                                         alt_u32* to, 
                                         alt_u32* end)
{
  if (to != from)
  {
    while( to != end )
 100aea4:	e0fffe17 	ldw	r3,-8(fp)
 100aea8:	e0bfff17 	ldw	r2,-4(fp)
 100aeac:	18bff31e 	bne	r3,r2,100ae7c <alt_load_section+0x28>
    {
      *to++ = *from++;
    }
  }
}
 100aeb0:	e037883a 	mov	sp,fp
 100aeb4:	df000017 	ldw	fp,0(sp)
 100aeb8:	dec00104 	addi	sp,sp,4
 100aebc:	f800283a 	ret

0100aec0 <lseek>:
 * ALT_LSEEK is mapped onto the lseek() system call in alt_syscall.h
 *
 */

off_t ALT_LSEEK (int file, off_t ptr, int dir)
{
 100aec0:	defff804 	addi	sp,sp,-32
 100aec4:	dfc00715 	stw	ra,28(sp)
 100aec8:	df000615 	stw	fp,24(sp)
 100aecc:	df000604 	addi	fp,sp,24
 100aed0:	e13ffc15 	stw	r4,-16(fp)
 100aed4:	e17ffd15 	stw	r5,-12(fp)
 100aed8:	e1bffe15 	stw	r6,-8(fp)
  alt_fd* fd;
  off_t   rc = 0; 
 100aedc:	e03ffa15 	stw	zero,-24(fp)
   * A common error case is that when the file descriptor was created, the call
   * to open() failed resulting in a negative file descriptor. This is trapped
   * below so that we don't try and process an invalid file descriptor.
   */

  fd = (file < 0) ? NULL : &alt_fd_list[file];
 100aee0:	e0bffc17 	ldw	r2,-16(fp)
 100aee4:	1004803a 	cmplt	r2,r2,zero
 100aee8:	1000091e 	bne	r2,zero,100af10 <lseek+0x50>
 100aeec:	e13ffc17 	ldw	r4,-16(fp)
 100aef0:	01400304 	movi	r5,12
 100aef4:	1000a8c0 	call	1000a8c <__mulsi3>
 100aef8:	1007883a 	mov	r3,r2
 100aefc:	00804074 	movhi	r2,257
 100af00:	10b99904 	addi	r2,r2,-6556
 100af04:	1887883a 	add	r3,r3,r2
 100af08:	e0ffff15 	stw	r3,-4(fp)
 100af0c:	00000106 	br	100af14 <lseek+0x54>
 100af10:	e03fff15 	stw	zero,-4(fp)
 100af14:	e0bfff17 	ldw	r2,-4(fp)
 100af18:	e0bffb15 	stw	r2,-20(fp)
  
  if (fd) 
 100af1c:	e0bffb17 	ldw	r2,-20(fp)
 100af20:	1005003a 	cmpeq	r2,r2,zero
 100af24:	1000111e 	bne	r2,zero,100af6c <lseek+0xac>
    /*
     * If the device driver provides an implementation of the lseek() function,
     * then call that to process the request.
     */
 
    if (fd->dev->lseek)
 100af28:	e0bffb17 	ldw	r2,-20(fp)
 100af2c:	10800017 	ldw	r2,0(r2)
 100af30:	10800717 	ldw	r2,28(r2)
 100af34:	1005003a 	cmpeq	r2,r2,zero
 100af38:	1000091e 	bne	r2,zero,100af60 <lseek+0xa0>
    {
      rc = fd->dev->lseek(fd, ptr, dir);
 100af3c:	e0bffb17 	ldw	r2,-20(fp)
 100af40:	10800017 	ldw	r2,0(r2)
 100af44:	10800717 	ldw	r2,28(r2)
 100af48:	e13ffb17 	ldw	r4,-20(fp)
 100af4c:	e17ffd17 	ldw	r5,-12(fp)
 100af50:	e1bffe17 	ldw	r6,-8(fp)
 100af54:	103ee83a 	callr	r2
 100af58:	e0bffa15 	stw	r2,-24(fp)
 100af5c:	00000506 	br	100af74 <lseek+0xb4>
     * Otherwise return an error.
     */

    else
    {
      rc = -ENOTSUP;
 100af60:	00bfde84 	movi	r2,-134
 100af64:	e0bffa15 	stw	r2,-24(fp)
 100af68:	00000206 	br	100af74 <lseek+0xb4>
    }
  }
  else  
  {
    rc = -EBADFD;
 100af6c:	00bfebc4 	movi	r2,-81
 100af70:	e0bffa15 	stw	r2,-24(fp)
  }

  if (rc < 0)
 100af74:	e0bffa17 	ldw	r2,-24(fp)
 100af78:	1004403a 	cmpge	r2,r2,zero
 100af7c:	1000071e 	bne	r2,zero,100af9c <lseek+0xdc>
  {
    ALT_ERRNO = -rc;
 100af80:	100afb40 	call	100afb4 <alt_get_errno>
 100af84:	1007883a 	mov	r3,r2
 100af88:	e0bffa17 	ldw	r2,-24(fp)
 100af8c:	0085c83a 	sub	r2,zero,r2
 100af90:	18800015 	stw	r2,0(r3)
    rc = -1;
 100af94:	00bfffc4 	movi	r2,-1
 100af98:	e0bffa15 	stw	r2,-24(fp)
  }

  return rc;
 100af9c:	e0bffa17 	ldw	r2,-24(fp)
}
 100afa0:	e037883a 	mov	sp,fp
 100afa4:	dfc00117 	ldw	ra,4(sp)
 100afa8:	df000017 	ldw	fp,0(sp)
 100afac:	dec00204 	addi	sp,sp,8
 100afb0:	f800283a 	ret

0100afb4 <alt_get_errno>:
#undef errno

extern int errno;

static ALT_INLINE int* alt_get_errno(void)
{
 100afb4:	defffd04 	addi	sp,sp,-12
 100afb8:	dfc00215 	stw	ra,8(sp)
 100afbc:	df000115 	stw	fp,4(sp)
 100afc0:	df000104 	addi	fp,sp,4
  return ((alt_errno) ? alt_errno() : &errno);
 100afc4:	00804074 	movhi	r2,257
 100afc8:	10be2704 	addi	r2,r2,-1892
 100afcc:	10800017 	ldw	r2,0(r2)
 100afd0:	1005003a 	cmpeq	r2,r2,zero
 100afd4:	1000061e 	bne	r2,zero,100aff0 <alt_get_errno+0x3c>
 100afd8:	00804074 	movhi	r2,257
 100afdc:	10be2704 	addi	r2,r2,-1892
 100afe0:	10800017 	ldw	r2,0(r2)
 100afe4:	103ee83a 	callr	r2
 100afe8:	e0bfff15 	stw	r2,-4(fp)
 100afec:	00000306 	br	100affc <alt_get_errno+0x48>
 100aff0:	00804074 	movhi	r2,257
 100aff4:	1084ce04 	addi	r2,r2,4920
 100aff8:	e0bfff15 	stw	r2,-4(fp)
 100affc:	e0bfff17 	ldw	r2,-4(fp)
}
 100b000:	e037883a 	mov	sp,fp
 100b004:	dfc00117 	ldw	ra,4(sp)
 100b008:	df000017 	ldw	fp,0(sp)
 100b00c:	dec00204 	addi	sp,sp,8
 100b010:	f800283a 	ret

0100b014 <alt_main>:
 * devices/filesystems/components in the system; and call the entry point for
 * the users application, i.e. main().
 */

void alt_main (void)
{
 100b014:	defffd04 	addi	sp,sp,-12
 100b018:	dfc00215 	stw	ra,8(sp)
 100b01c:	df000115 	stw	fp,4(sp)
 100b020:	df000104 	addi	fp,sp,4
#endif

  /* ALT LOG - please see HAL/sys/alt_log_printf.h for details */
  ALT_LOG_PRINT_BOOT("[alt_main.c] Entering alt_main, calling alt_irq_init.\r\n");
  /* Initialize the interrupt controller. */
  alt_irq_init (NULL);
 100b024:	0009883a 	mov	r4,zero
 100b028:	100b6a00 	call	100b6a0 <alt_irq_init>
  ALT_LOG_PRINT_BOOT("[alt_main.c] Done OS Init, calling alt_sem_create.\r\n");
  ALT_SEM_CREATE (&alt_fd_list_lock, 1);

  /* Initialize the device drivers/software components. */
  ALT_LOG_PRINT_BOOT("[alt_main.c] Calling alt_sys_init.\r\n");
  alt_sys_init();
 100b02c:	100b6d40 	call	100b6d4 <alt_sys_init>
   * devices be present (not equal to /dev/null) and if direct drivers
   * aren't being used.
   */

    ALT_LOG_PRINT_BOOT("[alt_main.c] Redirecting IO.\r\n");
    alt_io_redirect(ALT_STDOUT, ALT_STDIN, ALT_STDERR);
 100b030:	01004074 	movhi	r4,257
 100b034:	21377a04 	addi	r4,r4,-8728
 100b038:	01404074 	movhi	r5,257
 100b03c:	29777a04 	addi	r5,r5,-8728
 100b040:	01804074 	movhi	r6,257
 100b044:	31b77a04 	addi	r6,r6,-8728
 100b048:	100d0840 	call	100d084 <alt_io_redirect>
  /* 
   * Call the C++ constructors 
   */

  ALT_LOG_PRINT_BOOT("[alt_main.c] Calling C++ constructors.\r\n");
  _do_ctors ();
 100b04c:	100cb540 	call	100cb54 <_do_ctors>
   * redefined as _exit()). This is in the interest of reducing code footprint,
   * in that the atexit() overhead is removed when it's not needed.
   */

  ALT_LOG_PRINT_BOOT("[alt_main.c] Calling atexit.\r\n");
  atexit (_do_dtors);
 100b050:	01004074 	movhi	r4,257
 100b054:	2132ee04 	addi	r4,r4,-13384
 100b058:	100d6800 	call	100d680 <atexit>
  ALT_LOG_PRINT_BOOT("[alt_main.c] Calling main.\r\n");

#ifdef ALT_NO_EXIT
  main (alt_argc, alt_argv, alt_envp);
#else
  result = main (alt_argc, alt_argv, alt_envp);
 100b05c:	d126bd17 	ldw	r4,-25868(gp)
 100b060:	d166be17 	ldw	r5,-25864(gp)
 100b064:	d1a6bf17 	ldw	r6,-25860(gp)
 100b068:	10001f00 	call	10001f0 <main>
 100b06c:	e0bfff15 	stw	r2,-4(fp)
  close(STDOUT_FILENO);
 100b070:	01000044 	movi	r4,1
 100b074:	100a7d00 	call	100a7d0 <close>
  exit (result);
 100b078:	e13fff17 	ldw	r4,-4(fp)
 100b07c:	100d6940 	call	100d694 <exit>

0100b080 <__malloc_lock>:
 * configuration is single threaded, so there is nothing to do here. Note that 
 * this requires that malloc is never called by an interrupt service routine.
 */

void __malloc_lock ( struct _reent *_r )
{
 100b080:	defffe04 	addi	sp,sp,-8
 100b084:	df000115 	stw	fp,4(sp)
 100b088:	df000104 	addi	fp,sp,4
 100b08c:	e13fff15 	stw	r4,-4(fp)
}
 100b090:	e037883a 	mov	sp,fp
 100b094:	df000017 	ldw	fp,0(sp)
 100b098:	dec00104 	addi	sp,sp,4
 100b09c:	f800283a 	ret

0100b0a0 <__malloc_unlock>:
/*
 *
 */

void __malloc_unlock ( struct _reent *_r )
{
 100b0a0:	defffe04 	addi	sp,sp,-8
 100b0a4:	df000115 	stw	fp,4(sp)
 100b0a8:	df000104 	addi	fp,sp,4
 100b0ac:	e13fff15 	stw	r4,-4(fp)
}
 100b0b0:	e037883a 	mov	sp,fp
 100b0b4:	df000017 	ldw	fp,0(sp)
 100b0b8:	dec00104 	addi	sp,sp,4
 100b0bc:	f800283a 	ret

0100b0c0 <read>:
}

#else /* !ALT_USE_DIRECT_DRIVERS */

int ALT_READ (int file, void *ptr, size_t len)
{
 100b0c0:	defff704 	addi	sp,sp,-36
 100b0c4:	dfc00815 	stw	ra,32(sp)
 100b0c8:	df000715 	stw	fp,28(sp)
 100b0cc:	df000704 	addi	fp,sp,28
 100b0d0:	e13ffb15 	stw	r4,-20(fp)
 100b0d4:	e17ffc15 	stw	r5,-16(fp)
 100b0d8:	e1bffd15 	stw	r6,-12(fp)
   * A common error case is that when the file descriptor was created, the call
   * to open() failed resulting in a negative file descriptor. This is trapped
   * below so that we don't try and process an invalid file descriptor.
   */

  fd = (file < 0) ? NULL : &alt_fd_list[file];
 100b0dc:	e0bffb17 	ldw	r2,-20(fp)
 100b0e0:	1004803a 	cmplt	r2,r2,zero
 100b0e4:	1000091e 	bne	r2,zero,100b10c <read+0x4c>
 100b0e8:	e13ffb17 	ldw	r4,-20(fp)
 100b0ec:	01400304 	movi	r5,12
 100b0f0:	1000a8c0 	call	1000a8c <__mulsi3>
 100b0f4:	1007883a 	mov	r3,r2
 100b0f8:	00804074 	movhi	r2,257
 100b0fc:	10b99904 	addi	r2,r2,-6556
 100b100:	1887883a 	add	r3,r3,r2
 100b104:	e0ffff15 	stw	r3,-4(fp)
 100b108:	00000106 	br	100b110 <read+0x50>
 100b10c:	e03fff15 	stw	zero,-4(fp)
 100b110:	e0bfff17 	ldw	r2,-4(fp)
 100b114:	e0bffa15 	stw	r2,-24(fp)
  
  if (fd)
 100b118:	e0bffa17 	ldw	r2,-24(fp)
 100b11c:	1005003a 	cmpeq	r2,r2,zero
 100b120:	1000241e 	bne	r2,zero,100b1b4 <read+0xf4>
     * If the file has not been opened with read access, or if the driver does
     * not provide an implementation of read(), generate an error. Otherwise
     * call the drivers read() function to process the request.
     */

    if (((fd->fd_flags & O_ACCMODE) != O_WRONLY) && 
 100b124:	e0bffa17 	ldw	r2,-24(fp)
 100b128:	10800217 	ldw	r2,8(r2)
 100b12c:	108000cc 	andi	r2,r2,3
 100b130:	10800060 	cmpeqi	r2,r2,1
 100b134:	10001a1e 	bne	r2,zero,100b1a0 <read+0xe0>
 100b138:	e0bffa17 	ldw	r2,-24(fp)
 100b13c:	10800017 	ldw	r2,0(r2)
 100b140:	10800517 	ldw	r2,20(r2)
 100b144:	1005003a 	cmpeq	r2,r2,zero
 100b148:	1000151e 	bne	r2,zero,100b1a0 <read+0xe0>
        (fd->dev->read))
      {
        if ((rval = fd->dev->read(fd, ptr, len)) < 0)
 100b14c:	e0bffa17 	ldw	r2,-24(fp)
 100b150:	10800017 	ldw	r2,0(r2)
 100b154:	10800517 	ldw	r2,20(r2)
 100b158:	e17ffc17 	ldw	r5,-16(fp)
 100b15c:	e1bffd17 	ldw	r6,-12(fp)
 100b160:	e13ffa17 	ldw	r4,-24(fp)
 100b164:	103ee83a 	callr	r2
 100b168:	e0bff915 	stw	r2,-28(fp)
 100b16c:	e0bff917 	ldw	r2,-28(fp)
 100b170:	1004403a 	cmpge	r2,r2,zero
 100b174:	1000071e 	bne	r2,zero,100b194 <read+0xd4>
        {
          ALT_ERRNO = -rval;
 100b178:	100b1e40 	call	100b1e4 <alt_get_errno>
 100b17c:	e0fff917 	ldw	r3,-28(fp)
 100b180:	00c7c83a 	sub	r3,zero,r3
 100b184:	10c00015 	stw	r3,0(r2)
          return -1;
 100b188:	00bfffc4 	movi	r2,-1
 100b18c:	e0bffe15 	stw	r2,-8(fp)
 100b190:	00000e06 	br	100b1cc <read+0x10c>
        }
        return rval;
 100b194:	e0bff917 	ldw	r2,-28(fp)
 100b198:	e0bffe15 	stw	r2,-8(fp)
 100b19c:	00000b06 	br	100b1cc <read+0x10c>
      }
      else
      {
        ALT_ERRNO = EACCES;
 100b1a0:	100b1e40 	call	100b1e4 <alt_get_errno>
 100b1a4:	1007883a 	mov	r3,r2
 100b1a8:	00800344 	movi	r2,13
 100b1ac:	18800015 	stw	r2,0(r3)
 100b1b0:	00000406 	br	100b1c4 <read+0x104>
      }
    }
  else
  {
    ALT_ERRNO = EBADFD;
 100b1b4:	100b1e40 	call	100b1e4 <alt_get_errno>
 100b1b8:	1007883a 	mov	r3,r2
 100b1bc:	00801444 	movi	r2,81
 100b1c0:	18800015 	stw	r2,0(r3)
  }
  return -1;
 100b1c4:	00bfffc4 	movi	r2,-1
 100b1c8:	e0bffe15 	stw	r2,-8(fp)
 100b1cc:	e0bffe17 	ldw	r2,-8(fp)
}
 100b1d0:	e037883a 	mov	sp,fp
 100b1d4:	dfc00117 	ldw	ra,4(sp)
 100b1d8:	df000017 	ldw	fp,0(sp)
 100b1dc:	dec00204 	addi	sp,sp,8
 100b1e0:	f800283a 	ret

0100b1e4 <alt_get_errno>:
#undef errno

extern int errno;

static ALT_INLINE int* alt_get_errno(void)
{
 100b1e4:	defffd04 	addi	sp,sp,-12
 100b1e8:	dfc00215 	stw	ra,8(sp)
 100b1ec:	df000115 	stw	fp,4(sp)
 100b1f0:	df000104 	addi	fp,sp,4
  return ((alt_errno) ? alt_errno() : &errno);
 100b1f4:	00804074 	movhi	r2,257
 100b1f8:	10be2704 	addi	r2,r2,-1892
 100b1fc:	10800017 	ldw	r2,0(r2)
 100b200:	1005003a 	cmpeq	r2,r2,zero
 100b204:	1000061e 	bne	r2,zero,100b220 <alt_get_errno+0x3c>
 100b208:	00804074 	movhi	r2,257
 100b20c:	10be2704 	addi	r2,r2,-1892
 100b210:	10800017 	ldw	r2,0(r2)
 100b214:	103ee83a 	callr	r2
 100b218:	e0bfff15 	stw	r2,-4(fp)
 100b21c:	00000306 	br	100b22c <alt_get_errno+0x48>
 100b220:	00804074 	movhi	r2,257
 100b224:	1084ce04 	addi	r2,r2,4920
 100b228:	e0bfff15 	stw	r2,-4(fp)
 100b22c:	e0bfff17 	ldw	r2,-4(fp)
}
 100b230:	e037883a 	mov	sp,fp
 100b234:	dfc00117 	ldw	ra,4(sp)
 100b238:	df000017 	ldw	fp,0(sp)
 100b23c:	dec00204 	addi	sp,sp,8
 100b240:	f800283a 	ret

0100b244 <alt_release_fd>:
 * File descriptors correcponding to standard in, standard out and standard 
 * error cannont be released backed to the pool. They are always reserved.
 */

void alt_release_fd (int fd)
{
 100b244:	defffc04 	addi	sp,sp,-16
 100b248:	dfc00315 	stw	ra,12(sp)
 100b24c:	df000215 	stw	fp,8(sp)
 100b250:	dc000115 	stw	r16,4(sp)
 100b254:	df000104 	addi	fp,sp,4
 100b258:	e13fff15 	stw	r4,-4(fp)
  if (fd > 2)
 100b25c:	e0bfff17 	ldw	r2,-4(fp)
 100b260:	108000d0 	cmplti	r2,r2,3
 100b264:	10000f1e 	bne	r2,zero,100b2a4 <alt_release_fd+0x60>
  {
    alt_fd_list[fd].fd_flags = 0;
 100b268:	e13fff17 	ldw	r4,-4(fp)
 100b26c:	04004074 	movhi	r16,257
 100b270:	84399904 	addi	r16,r16,-6556
 100b274:	01400304 	movi	r5,12
 100b278:	1000a8c0 	call	1000a8c <__mulsi3>
 100b27c:	1405883a 	add	r2,r2,r16
 100b280:	10800204 	addi	r2,r2,8
 100b284:	10000015 	stw	zero,0(r2)
    alt_fd_list[fd].dev      = 0;
 100b288:	e13fff17 	ldw	r4,-4(fp)
 100b28c:	04004074 	movhi	r16,257
 100b290:	84399904 	addi	r16,r16,-6556
 100b294:	01400304 	movi	r5,12
 100b298:	1000a8c0 	call	1000a8c <__mulsi3>
 100b29c:	1405883a 	add	r2,r2,r16
 100b2a0:	10000015 	stw	zero,0(r2)
  }
}
 100b2a4:	e037883a 	mov	sp,fp
 100b2a8:	dfc00217 	ldw	ra,8(sp)
 100b2ac:	df000117 	ldw	fp,4(sp)
 100b2b0:	dc000017 	ldw	r16,0(sp)
 100b2b4:	dec00304 	addi	sp,sp,12
 100b2b8:	f800283a 	ret

0100b2bc <sbrk>:
#endif
 
caddr_t ALT_SBRK (int incr) __attribute__ ((no_instrument_function ));

caddr_t ALT_SBRK (int incr)
{ 
 100b2bc:	defff804 	addi	sp,sp,-32
 100b2c0:	df000715 	stw	fp,28(sp)
 100b2c4:	df000704 	addi	fp,sp,28
 100b2c8:	e13ffe15 	stw	r4,-8(fp)
static ALT_INLINE alt_irq_context ALT_ALWAYS_INLINE 
       alt_irq_disable_all (void)
{
  alt_irq_context context;

  NIOS2_READ_STATUS (context);
 100b2cc:	0005303a 	rdctl	r2,status
 100b2d0:	e0bffb15 	stw	r2,-20(fp)

  NIOS2_WRITE_STATUS (context & ~NIOS2_STATUS_PIE_MSK);
 100b2d4:	e0fffb17 	ldw	r3,-20(fp)
 100b2d8:	00bfff84 	movi	r2,-2
 100b2dc:	1884703a 	and	r2,r3,r2
 100b2e0:	1001703a 	wrctl	status,r2
  
  return context;
 100b2e4:	e0bffb17 	ldw	r2,-20(fp)
  alt_irq_context context;
  char *prev_heap_end; 

  context = alt_irq_disable_all();
 100b2e8:	e0bffd15 	stw	r2,-12(fp)

  /* Always return data aligned on a word boundary */
  heap_end = (char *)(((unsigned int)heap_end + 3) & ~3);
 100b2ec:	d0a00c17 	ldw	r2,-32720(gp)
 100b2f0:	10c000c4 	addi	r3,r2,3
 100b2f4:	00bfff04 	movi	r2,-4
 100b2f8:	1884703a 	and	r2,r3,r2
 100b2fc:	d0a00c15 	stw	r2,-32720(gp)
  if (((heap_end + incr) - __alt_heap_start) > ALT_MAX_HEAP_BYTES) {
    alt_irq_enable_all(context);
    return (caddr_t)-1;
  }
#else
  if ((heap_end + incr) > __alt_heap_limit) {
 100b300:	d0e00c17 	ldw	r3,-32720(gp)
 100b304:	e0bffe17 	ldw	r2,-8(fp)
 100b308:	1887883a 	add	r3,r3,r2
 100b30c:	00806034 	movhi	r2,384
 100b310:	10800004 	addi	r2,r2,0
 100b314:	10c0072e 	bgeu	r2,r3,100b334 <sbrk+0x78>
 100b318:	e0bffd17 	ldw	r2,-12(fp)
 100b31c:	e0bffa15 	stw	r2,-24(fp)
  status &= ~NIOS2_STATUS_PIE_MSK;
  status |= (context & NIOS2_STATUS_PIE_MSK);
  
  NIOS2_WRITE_STATUS (status);
#else
  NIOS2_WRITE_STATUS (context);
 100b320:	e0bffa17 	ldw	r2,-24(fp)
 100b324:	1001703a 	wrctl	status,r2
    alt_irq_enable_all(context);
    return (caddr_t)-1;
 100b328:	00bfffc4 	movi	r2,-1
 100b32c:	e0bfff15 	stw	r2,-4(fp)
 100b330:	00000c06 	br	100b364 <sbrk+0xa8>
  }
#endif

  prev_heap_end = heap_end; 
 100b334:	d0a00c17 	ldw	r2,-32720(gp)
 100b338:	e0bffc15 	stw	r2,-16(fp)
  heap_end += incr; 
 100b33c:	d0e00c17 	ldw	r3,-32720(gp)
 100b340:	e0bffe17 	ldw	r2,-8(fp)
 100b344:	1885883a 	add	r2,r3,r2
 100b348:	d0a00c15 	stw	r2,-32720(gp)
 100b34c:	e0bffd17 	ldw	r2,-12(fp)
 100b350:	e0bff915 	stw	r2,-28(fp)
 100b354:	e0bff917 	ldw	r2,-28(fp)
 100b358:	1001703a 	wrctl	status,r2

#endif

  alt_irq_enable_all(context);

  return (caddr_t) prev_heap_end; 
 100b35c:	e0bffc17 	ldw	r2,-16(fp)
 100b360:	e0bfff15 	stw	r2,-4(fp)
 100b364:	e0bfff17 	ldw	r2,-4(fp)
} 
 100b368:	e037883a 	mov	sp,fp
 100b36c:	df000017 	ldw	fp,0(sp)
 100b370:	dec00104 	addi	sp,sp,4
 100b374:	f800283a 	ret

0100b378 <alt_alarm_stop>:
 * alarms. Alternatively an alarm can unregister itself by returning zero when 
 * the alarm executes.
 */

void alt_alarm_stop (alt_alarm* alarm)
{
 100b378:	defffa04 	addi	sp,sp,-24
 100b37c:	df000515 	stw	fp,20(sp)
 100b380:	df000504 	addi	fp,sp,20
 100b384:	e13fff15 	stw	r4,-4(fp)
static ALT_INLINE alt_irq_context ALT_ALWAYS_INLINE 
       alt_irq_disable_all (void)
{
  alt_irq_context context;

  NIOS2_READ_STATUS (context);
 100b388:	0005303a 	rdctl	r2,status
 100b38c:	e0bffd15 	stw	r2,-12(fp)

  NIOS2_WRITE_STATUS (context & ~NIOS2_STATUS_PIE_MSK);
 100b390:	e0fffd17 	ldw	r3,-12(fp)
 100b394:	00bfff84 	movi	r2,-2
 100b398:	1884703a 	and	r2,r3,r2
 100b39c:	1001703a 	wrctl	status,r2
  
  return context;
 100b3a0:	e0bffd17 	ldw	r2,-12(fp)
  alt_irq_context irq_context;

  irq_context = alt_irq_disable_all();
 100b3a4:	e0bffe15 	stw	r2,-8(fp)
  alt_llist_remove (&alarm->llist);
 100b3a8:	e0bfff17 	ldw	r2,-4(fp)
 100b3ac:	e0bffc15 	stw	r2,-16(fp)
 * input argument is the element to remove.
 */
     
static ALT_INLINE void ALT_ALWAYS_INLINE alt_llist_remove(alt_llist* entry)
{
  entry->next->previous = entry->previous;
 100b3b0:	e0bffc17 	ldw	r2,-16(fp)
 100b3b4:	10c00017 	ldw	r3,0(r2)
 100b3b8:	e0bffc17 	ldw	r2,-16(fp)
 100b3bc:	10800117 	ldw	r2,4(r2)
 100b3c0:	18800115 	stw	r2,4(r3)
  entry->previous->next = entry->next;
 100b3c4:	e0bffc17 	ldw	r2,-16(fp)
 100b3c8:	10c00117 	ldw	r3,4(r2)
 100b3cc:	e0bffc17 	ldw	r2,-16(fp)
 100b3d0:	10800017 	ldw	r2,0(r2)
 100b3d4:	18800015 	stw	r2,0(r3)
  /* 
   * Set the entry to point to itself, so that any further calls to
   * alt_llist_remove() are harmless.
   */

  entry->previous = entry;
 100b3d8:	e0fffc17 	ldw	r3,-16(fp)
 100b3dc:	e0bffc17 	ldw	r2,-16(fp)
 100b3e0:	18800115 	stw	r2,4(r3)
  entry->next     = entry;
 100b3e4:	e0fffc17 	ldw	r3,-16(fp)
 100b3e8:	e0bffc17 	ldw	r2,-16(fp)
 100b3ec:	18800015 	stw	r2,0(r3)
 100b3f0:	e0bffe17 	ldw	r2,-8(fp)
 100b3f4:	e0bffb15 	stw	r2,-20(fp)
  status &= ~NIOS2_STATUS_PIE_MSK;
  status |= (context & NIOS2_STATUS_PIE_MSK);
  
  NIOS2_WRITE_STATUS (status);
#else
  NIOS2_WRITE_STATUS (context);
 100b3f8:	e0bffb17 	ldw	r2,-20(fp)
 100b3fc:	1001703a 	wrctl	status,r2
  alt_irq_enable_all (irq_context);
}
 100b400:	e037883a 	mov	sp,fp
 100b404:	df000017 	ldw	fp,0(sp)
 100b408:	dec00104 	addi	sp,sp,4
 100b40c:	f800283a 	ret

0100b410 <alt_tick>:
 * 
 * alt_tick() is expected to run at interrupt level.
 */

void alt_tick (void)
{
 100b410:	defffb04 	addi	sp,sp,-20
 100b414:	dfc00415 	stw	ra,16(sp)
 100b418:	df000315 	stw	fp,12(sp)
 100b41c:	df000304 	addi	fp,sp,12
  alt_alarm* next;
  alt_alarm* alarm = (alt_alarm*) alt_alarm_list.next;
 100b420:	d0a00d17 	ldw	r2,-32716(gp)
 100b424:	e0bffe15 	stw	r2,-8(fp)

  alt_u32    next_callback;

  /* update the tick counter */

  _alt_nticks++;
 100b428:	d0a6c117 	ldw	r2,-25852(gp)
 100b42c:	10800044 	addi	r2,r2,1
 100b430:	d0a6c115 	stw	r2,-25852(gp)

  /* process the registered callbacks */

  while (alarm != (alt_alarm*) &alt_alarm_list)
 100b434:	00003106 	br	100b4fc <alt_tick+0xec>
  {
    next = (alt_alarm*) alarm->llist.next;
 100b438:	e0bffe17 	ldw	r2,-8(fp)
 100b43c:	10800017 	ldw	r2,0(r2)
 100b440:	e0bfff15 	stw	r2,-4(fp)
    /* 
     * Upon the tick-counter rolling over it is safe to clear the 
     * roll-over flag; once the flag is cleared this (or subsequnt)
     * tick events are enabled to generate an alarm event. 
     */
    if ((alarm->rollover) && (_alt_nticks == 0))
 100b444:	e0bffe17 	ldw	r2,-8(fp)
 100b448:	10800403 	ldbu	r2,16(r2)
 100b44c:	10803fcc 	andi	r2,r2,255
 100b450:	1005003a 	cmpeq	r2,r2,zero
 100b454:	1000051e 	bne	r2,zero,100b46c <alt_tick+0x5c>
 100b458:	d0a6c117 	ldw	r2,-25852(gp)
 100b45c:	1004c03a 	cmpne	r2,r2,zero
 100b460:	1000021e 	bne	r2,zero,100b46c <alt_tick+0x5c>
    {
      alarm->rollover = 0;
 100b464:	e0bffe17 	ldw	r2,-8(fp)
 100b468:	10000405 	stb	zero,16(r2)
    }
    
    /* if the alarm period has expired, make the callback */    
    if ((alarm->time <= _alt_nticks) && (alarm->rollover == 0))
 100b46c:	e0bffe17 	ldw	r2,-8(fp)
 100b470:	10c00217 	ldw	r3,8(r2)
 100b474:	d0a6c117 	ldw	r2,-25852(gp)
 100b478:	10c01e36 	bltu	r2,r3,100b4f4 <alt_tick+0xe4>
 100b47c:	e0bffe17 	ldw	r2,-8(fp)
 100b480:	10800403 	ldbu	r2,16(r2)
 100b484:	10803fcc 	andi	r2,r2,255
 100b488:	1004c03a 	cmpne	r2,r2,zero
 100b48c:	1000191e 	bne	r2,zero,100b4f4 <alt_tick+0xe4>
    {
      next_callback = alarm->callback (alarm->context);
 100b490:	e0bffe17 	ldw	r2,-8(fp)
 100b494:	10c00317 	ldw	r3,12(r2)
 100b498:	e0bffe17 	ldw	r2,-8(fp)
 100b49c:	11000517 	ldw	r4,20(r2)
 100b4a0:	183ee83a 	callr	r3
 100b4a4:	e0bffd15 	stw	r2,-12(fp)

      /* deactivate the alarm if the return value is zero */

      if (next_callback == 0)
 100b4a8:	e0bffd17 	ldw	r2,-12(fp)
 100b4ac:	1004c03a 	cmpne	r2,r2,zero
 100b4b0:	1000031e 	bne	r2,zero,100b4c0 <alt_tick+0xb0>
      {
        alt_alarm_stop (alarm);
 100b4b4:	e13ffe17 	ldw	r4,-8(fp)
 100b4b8:	100b3780 	call	100b378 <alt_alarm_stop>
 100b4bc:	00000d06 	br	100b4f4 <alt_tick+0xe4>
      }
      else
      {
        alarm->time += next_callback;
 100b4c0:	e0bffe17 	ldw	r2,-8(fp)
 100b4c4:	10c00217 	ldw	r3,8(r2)
 100b4c8:	e0bffd17 	ldw	r2,-12(fp)
 100b4cc:	1887883a 	add	r3,r3,r2
 100b4d0:	e0bffe17 	ldw	r2,-8(fp)
 100b4d4:	10c00215 	stw	r3,8(r2)
        /* 
         * If the desired alarm time causes a roll-over, set the rollover
         * flag. This will prevent the subsequent tick event from causing
         * an alarm too early.
         */
        if(alarm->time < _alt_nticks)
 100b4d8:	e0bffe17 	ldw	r2,-8(fp)
 100b4dc:	10c00217 	ldw	r3,8(r2)
 100b4e0:	d0a6c117 	ldw	r2,-25852(gp)
 100b4e4:	1880032e 	bgeu	r3,r2,100b4f4 <alt_tick+0xe4>
        {
          alarm->rollover = 1;
 100b4e8:	e0fffe17 	ldw	r3,-8(fp)
 100b4ec:	00800044 	movi	r2,1
 100b4f0:	18800405 	stb	r2,16(r3)
        }
      }
    }
    alarm = next;
 100b4f4:	e0bfff17 	ldw	r2,-4(fp)
 100b4f8:	e0bffe15 	stw	r2,-8(fp)

  _alt_nticks++;

  /* process the registered callbacks */

  while (alarm != (alt_alarm*) &alt_alarm_list)
 100b4fc:	d0e00d04 	addi	r3,gp,-32716
 100b500:	e0bffe17 	ldw	r2,-8(fp)
 100b504:	10ffcc1e 	bne	r2,r3,100b438 <alt_tick+0x28>
  /* 
   * Update the operating system specific timer facilities.
   */

  ALT_OS_TIME_TICK();
}
 100b508:	e037883a 	mov	sp,fp
 100b50c:	dfc00117 	ldw	ra,4(sp)
 100b510:	df000017 	ldw	fp,0(sp)
 100b514:	dec00204 	addi	sp,sp,8
 100b518:	f800283a 	ret

0100b51c <write>:
}

#else /* !ALT_USE_DIRECT_DRIVERS */

int ALT_WRITE (int file, const void *ptr, size_t len)
{
 100b51c:	defff704 	addi	sp,sp,-36
 100b520:	dfc00815 	stw	ra,32(sp)
 100b524:	df000715 	stw	fp,28(sp)
 100b528:	df000704 	addi	fp,sp,28
 100b52c:	e13ffb15 	stw	r4,-20(fp)
 100b530:	e17ffc15 	stw	r5,-16(fp)
 100b534:	e1bffd15 	stw	r6,-12(fp)
   * A common error case is that when the file descriptor was created, the call
   * to open() failed resulting in a negative file descriptor. This is trapped
   * below so that we don't try and process an invalid file descriptor.
   */

  fd = (file < 0) ? NULL : &alt_fd_list[file];
 100b538:	e0bffb17 	ldw	r2,-20(fp)
 100b53c:	1004803a 	cmplt	r2,r2,zero
 100b540:	1000091e 	bne	r2,zero,100b568 <write+0x4c>
 100b544:	e13ffb17 	ldw	r4,-20(fp)
 100b548:	01400304 	movi	r5,12
 100b54c:	1000a8c0 	call	1000a8c <__mulsi3>
 100b550:	1007883a 	mov	r3,r2
 100b554:	00804074 	movhi	r2,257
 100b558:	10b99904 	addi	r2,r2,-6556
 100b55c:	1887883a 	add	r3,r3,r2
 100b560:	e0ffff15 	stw	r3,-4(fp)
 100b564:	00000106 	br	100b56c <write+0x50>
 100b568:	e03fff15 	stw	zero,-4(fp)
 100b56c:	e0bfff17 	ldw	r2,-4(fp)
 100b570:	e0bffa15 	stw	r2,-24(fp)
  
  if (fd)
 100b574:	e0bffa17 	ldw	r2,-24(fp)
 100b578:	1005003a 	cmpeq	r2,r2,zero
 100b57c:	1000241e 	bne	r2,zero,100b610 <write+0xf4>
     * If the file has not been opened with write access, or if the driver does
     * not provide an implementation of write(), generate an error. Otherwise
     * call the drivers write() function to process the request.
     */

    if (((fd->fd_flags & O_ACCMODE) != O_RDONLY) && fd->dev->write)
 100b580:	e0bffa17 	ldw	r2,-24(fp)
 100b584:	10800217 	ldw	r2,8(r2)
 100b588:	108000cc 	andi	r2,r2,3
 100b58c:	1005003a 	cmpeq	r2,r2,zero
 100b590:	10001a1e 	bne	r2,zero,100b5fc <write+0xe0>
 100b594:	e0bffa17 	ldw	r2,-24(fp)
 100b598:	10800017 	ldw	r2,0(r2)
 100b59c:	10800617 	ldw	r2,24(r2)
 100b5a0:	1005003a 	cmpeq	r2,r2,zero
 100b5a4:	1000151e 	bne	r2,zero,100b5fc <write+0xe0>
    {
      
      /* ALT_LOG - see altera_hal/HAL/inc/sys/alt_log_printf.h */
      ALT_LOG_WRITE_FUNCTION(ptr,len);

      if ((rval = fd->dev->write(fd, ptr, len)) < 0)
 100b5a8:	e0bffa17 	ldw	r2,-24(fp)
 100b5ac:	10800017 	ldw	r2,0(r2)
 100b5b0:	10800617 	ldw	r2,24(r2)
 100b5b4:	e17ffc17 	ldw	r5,-16(fp)
 100b5b8:	e1bffd17 	ldw	r6,-12(fp)
 100b5bc:	e13ffa17 	ldw	r4,-24(fp)
 100b5c0:	103ee83a 	callr	r2
 100b5c4:	e0bff915 	stw	r2,-28(fp)
 100b5c8:	e0bff917 	ldw	r2,-28(fp)
 100b5cc:	1004403a 	cmpge	r2,r2,zero
 100b5d0:	1000071e 	bne	r2,zero,100b5f0 <write+0xd4>
      {
        ALT_ERRNO = -rval;
 100b5d4:	100b6400 	call	100b640 <alt_get_errno>
 100b5d8:	e0fff917 	ldw	r3,-28(fp)
 100b5dc:	00c7c83a 	sub	r3,zero,r3
 100b5e0:	10c00015 	stw	r3,0(r2)
        return -1;
 100b5e4:	00bfffc4 	movi	r2,-1
 100b5e8:	e0bffe15 	stw	r2,-8(fp)
 100b5ec:	00000e06 	br	100b628 <write+0x10c>
      }
      return rval;
 100b5f0:	e0bff917 	ldw	r2,-28(fp)
 100b5f4:	e0bffe15 	stw	r2,-8(fp)
 100b5f8:	00000b06 	br	100b628 <write+0x10c>
    }
    else
    {
      ALT_ERRNO = EACCES;
 100b5fc:	100b6400 	call	100b640 <alt_get_errno>
 100b600:	1007883a 	mov	r3,r2
 100b604:	00800344 	movi	r2,13
 100b608:	18800015 	stw	r2,0(r3)
 100b60c:	00000406 	br	100b620 <write+0x104>
    }
  }
  else  
  {
    ALT_ERRNO = EBADFD;
 100b610:	100b6400 	call	100b640 <alt_get_errno>
 100b614:	1007883a 	mov	r3,r2
 100b618:	00801444 	movi	r2,81
 100b61c:	18800015 	stw	r2,0(r3)
  }
  return -1;
 100b620:	00bfffc4 	movi	r2,-1
 100b624:	e0bffe15 	stw	r2,-8(fp)
 100b628:	e0bffe17 	ldw	r2,-8(fp)
}
 100b62c:	e037883a 	mov	sp,fp
 100b630:	dfc00117 	ldw	ra,4(sp)
 100b634:	df000017 	ldw	fp,0(sp)
 100b638:	dec00204 	addi	sp,sp,8
 100b63c:	f800283a 	ret

0100b640 <alt_get_errno>:
#undef errno

extern int errno;

static ALT_INLINE int* alt_get_errno(void)
{
 100b640:	defffd04 	addi	sp,sp,-12
 100b644:	dfc00215 	stw	ra,8(sp)
 100b648:	df000115 	stw	fp,4(sp)
 100b64c:	df000104 	addi	fp,sp,4
  return ((alt_errno) ? alt_errno() : &errno);
 100b650:	00804074 	movhi	r2,257
 100b654:	10be2704 	addi	r2,r2,-1892
 100b658:	10800017 	ldw	r2,0(r2)
 100b65c:	1005003a 	cmpeq	r2,r2,zero
 100b660:	1000061e 	bne	r2,zero,100b67c <alt_get_errno+0x3c>
 100b664:	00804074 	movhi	r2,257
 100b668:	10be2704 	addi	r2,r2,-1892
 100b66c:	10800017 	ldw	r2,0(r2)
 100b670:	103ee83a 	callr	r2
 100b674:	e0bfff15 	stw	r2,-4(fp)
 100b678:	00000306 	br	100b688 <alt_get_errno+0x48>
 100b67c:	00804074 	movhi	r2,257
 100b680:	1084ce04 	addi	r2,r2,4920
 100b684:	e0bfff15 	stw	r2,-4(fp)
 100b688:	e0bfff17 	ldw	r2,-4(fp)
}
 100b68c:	e037883a 	mov	sp,fp
 100b690:	dfc00117 	ldw	ra,4(sp)
 100b694:	df000017 	ldw	fp,0(sp)
 100b698:	dec00204 	addi	sp,sp,8
 100b69c:	f800283a 	ret

0100b6a0 <alt_irq_init>:
 * The "base" parameter is ignored and only
 * present for backwards-compatibility.
 */

void alt_irq_init ( const void* base )
{
 100b6a0:	defffd04 	addi	sp,sp,-12
 100b6a4:	dfc00215 	stw	ra,8(sp)
 100b6a8:	df000115 	stw	fp,4(sp)
 100b6ac:	df000104 	addi	fp,sp,4
 100b6b0:	e13fff15 	stw	r4,-4(fp)
    ALTERA_NIOS2_QSYS_IRQ_INIT ( NIOS2_QSYS_0, nios2_qsys_0);
 100b6b4:	100d3e00 	call	100d3e0 <altera_nios2_qsys_irq_init>
 * alt_irq_cpu_enable_interrupts() enables the CPU to start taking interrupts.
 */
static ALT_INLINE void ALT_ALWAYS_INLINE 
       alt_irq_cpu_enable_interrupts ()
{
    NIOS2_WRITE_STATUS(NIOS2_STATUS_PIE_MSK
 100b6b8:	00800044 	movi	r2,1
 100b6bc:	1001703a 	wrctl	status,r2
    alt_irq_cpu_enable_interrupts();
}
 100b6c0:	e037883a 	mov	sp,fp
 100b6c4:	dfc00117 	ldw	ra,4(sp)
 100b6c8:	df000017 	ldw	fp,0(sp)
 100b6cc:	dec00204 	addi	sp,sp,8
 100b6d0:	f800283a 	ret

0100b6d4 <alt_sys_init>:
 * Initialize the non-interrupt controller devices.
 * Called after alt_irq_init().
 */

void alt_sys_init( void )
{
 100b6d4:	defffe04 	addi	sp,sp,-8
 100b6d8:	dfc00115 	stw	ra,4(sp)
 100b6dc:	df000015 	stw	fp,0(sp)
 100b6e0:	d839883a 	mov	fp,sp
    ALTERA_AVALON_TIMER_INIT ( TIMER_0, timer_0);
 100b6e4:	00c04074 	movhi	r3,257
 100b6e8:	18c4de04 	addi	r3,r3,4984
 100b6ec:	00881804 	movi	r2,8288
 100b6f0:	18800015 	stw	r2,0(r3)
 100b6f4:	00c04074 	movhi	r3,257
 100b6f8:	18c4df04 	addi	r3,r3,4988
 100b6fc:	0080bef4 	movhi	r2,763
 100b700:	10bc2004 	addi	r2,r2,-3968
 100b704:	18800015 	stw	r2,0(r3)
    ALTERA_AVALON_JTAG_UART_INIT ( JTAG_UART_0, jtag_uart_0);
 100b708:	01004074 	movhi	r4,257
 100b70c:	213a0304 	addi	r4,r4,-6132
 100b710:	000b883a 	mov	r5,zero
 100b714:	01800144 	movi	r6,5
 100b718:	100b8d40 	call	100b8d4 <altera_avalon_jtag_uart_init>
 100b71c:	01004074 	movhi	r4,257
 100b720:	2139f904 	addi	r4,r4,-6172
 100b724:	100b7540 	call	100b754 <alt_dev_reg>
    ALTERA_UP_AVALON_CHARACTER_LCD_INIT ( CHARACTER_LCD_0, character_lcd_0);
 100b728:	01004074 	movhi	r4,257
 100b72c:	213e1104 	addi	r4,r4,-1980
 100b730:	100c4500 	call	100c450 <alt_up_character_lcd_init>
 100b734:	01004074 	movhi	r4,257
 100b738:	213e1104 	addi	r4,r4,-1980
 100b73c:	100b7540 	call	100b754 <alt_dev_reg>
}
 100b740:	e037883a 	mov	sp,fp
 100b744:	dfc00117 	ldw	ra,4(sp)
 100b748:	df000017 	ldw	fp,0(sp)
 100b74c:	dec00204 	addi	sp,sp,8
 100b750:	f800283a 	ret

0100b754 <alt_dev_reg>:
 */

extern int alt_fs_reg  (alt_dev* dev); 

static ALT_INLINE int alt_dev_reg (alt_dev* dev)
{
 100b754:	defffd04 	addi	sp,sp,-12
 100b758:	dfc00215 	stw	ra,8(sp)
 100b75c:	df000115 	stw	fp,4(sp)
 100b760:	df000104 	addi	fp,sp,4
 100b764:	e13fff15 	stw	r4,-4(fp)
  extern alt_llist alt_dev_list;

  return alt_dev_llist_insert ((alt_dev_llist*) dev, &alt_dev_list);
 100b768:	e13fff17 	ldw	r4,-4(fp)
 100b76c:	01404074 	movhi	r5,257
 100b770:	297e2404 	addi	r5,r5,-1904
 100b774:	100ca400 	call	100ca40 <alt_dev_llist_insert>
}
 100b778:	e037883a 	mov	sp,fp
 100b77c:	dfc00117 	ldw	ra,4(sp)
 100b780:	df000017 	ldw	fp,0(sp)
 100b784:	dec00204 	addi	sp,sp,8
 100b788:	f800283a 	ret

0100b78c <altera_avalon_jtag_uart_read_fd>:
 *
 */

int 
altera_avalon_jtag_uart_read_fd(alt_fd* fd, char* buffer, int space)
{
 100b78c:	defffa04 	addi	sp,sp,-24
 100b790:	dfc00515 	stw	ra,20(sp)
 100b794:	df000415 	stw	fp,16(sp)
 100b798:	df000404 	addi	fp,sp,16
 100b79c:	e13ffd15 	stw	r4,-12(fp)
 100b7a0:	e17ffe15 	stw	r5,-8(fp)
 100b7a4:	e1bfff15 	stw	r6,-4(fp)
    altera_avalon_jtag_uart_dev* dev = (altera_avalon_jtag_uart_dev*) fd->dev; 
 100b7a8:	e0bffd17 	ldw	r2,-12(fp)
 100b7ac:	10800017 	ldw	r2,0(r2)
 100b7b0:	e0bffc15 	stw	r2,-16(fp)

    return altera_avalon_jtag_uart_read(&dev->state, buffer, space,
 100b7b4:	e0bffc17 	ldw	r2,-16(fp)
 100b7b8:	11000a04 	addi	r4,r2,40
 100b7bc:	e0bffd17 	ldw	r2,-12(fp)
 100b7c0:	11c00217 	ldw	r7,8(r2)
 100b7c4:	e17ffe17 	ldw	r5,-8(fp)
 100b7c8:	e1bfff17 	ldw	r6,-4(fp)
 100b7cc:	100bdd40 	call	100bdd4 <altera_avalon_jtag_uart_read>
      fd->fd_flags);
}
 100b7d0:	e037883a 	mov	sp,fp
 100b7d4:	dfc00117 	ldw	ra,4(sp)
 100b7d8:	df000017 	ldw	fp,0(sp)
 100b7dc:	dec00204 	addi	sp,sp,8
 100b7e0:	f800283a 	ret

0100b7e4 <altera_avalon_jtag_uart_write_fd>:

int 
altera_avalon_jtag_uart_write_fd(alt_fd* fd, const char* buffer, int space)
{
 100b7e4:	defffa04 	addi	sp,sp,-24
 100b7e8:	dfc00515 	stw	ra,20(sp)
 100b7ec:	df000415 	stw	fp,16(sp)
 100b7f0:	df000404 	addi	fp,sp,16
 100b7f4:	e13ffd15 	stw	r4,-12(fp)
 100b7f8:	e17ffe15 	stw	r5,-8(fp)
 100b7fc:	e1bfff15 	stw	r6,-4(fp)
    altera_avalon_jtag_uart_dev* dev = (altera_avalon_jtag_uart_dev*) fd->dev; 
 100b800:	e0bffd17 	ldw	r2,-12(fp)
 100b804:	10800017 	ldw	r2,0(r2)
 100b808:	e0bffc15 	stw	r2,-16(fp)

    return altera_avalon_jtag_uart_write(&dev->state, buffer, space,
 100b80c:	e0bffc17 	ldw	r2,-16(fp)
 100b810:	11000a04 	addi	r4,r2,40
 100b814:	e0bffd17 	ldw	r2,-12(fp)
 100b818:	11c00217 	ldw	r7,8(r2)
 100b81c:	e17ffe17 	ldw	r5,-8(fp)
 100b820:	e1bfff17 	ldw	r6,-4(fp)
 100b824:	100bff80 	call	100bff8 <altera_avalon_jtag_uart_write>
      fd->fd_flags);
}
 100b828:	e037883a 	mov	sp,fp
 100b82c:	dfc00117 	ldw	ra,4(sp)
 100b830:	df000017 	ldw	fp,0(sp)
 100b834:	dec00204 	addi	sp,sp,8
 100b838:	f800283a 	ret

0100b83c <altera_avalon_jtag_uart_close_fd>:

#ifndef ALTERA_AVALON_JTAG_UART_SMALL

int 
altera_avalon_jtag_uart_close_fd(alt_fd* fd)
{
 100b83c:	defffc04 	addi	sp,sp,-16
 100b840:	dfc00315 	stw	ra,12(sp)
 100b844:	df000215 	stw	fp,8(sp)
 100b848:	df000204 	addi	fp,sp,8
 100b84c:	e13fff15 	stw	r4,-4(fp)
    altera_avalon_jtag_uart_dev* dev = (altera_avalon_jtag_uart_dev*) fd->dev; 
 100b850:	e0bfff17 	ldw	r2,-4(fp)
 100b854:	10800017 	ldw	r2,0(r2)
 100b858:	e0bffe15 	stw	r2,-8(fp)

    return altera_avalon_jtag_uart_close(&dev->state, fd->fd_flags);
 100b85c:	e0bffe17 	ldw	r2,-8(fp)
 100b860:	11000a04 	addi	r4,r2,40
 100b864:	e0bfff17 	ldw	r2,-4(fp)
 100b868:	11400217 	ldw	r5,8(r2)
 100b86c:	100bc6c0 	call	100bc6c <altera_avalon_jtag_uart_close>
}
 100b870:	e037883a 	mov	sp,fp
 100b874:	dfc00117 	ldw	ra,4(sp)
 100b878:	df000017 	ldw	fp,0(sp)
 100b87c:	dec00204 	addi	sp,sp,8
 100b880:	f800283a 	ret

0100b884 <altera_avalon_jtag_uart_ioctl_fd>:

int 
altera_avalon_jtag_uart_ioctl_fd(alt_fd* fd, int req, void* arg)
{
 100b884:	defffa04 	addi	sp,sp,-24
 100b888:	dfc00515 	stw	ra,20(sp)
 100b88c:	df000415 	stw	fp,16(sp)
 100b890:	df000404 	addi	fp,sp,16
 100b894:	e13ffd15 	stw	r4,-12(fp)
 100b898:	e17ffe15 	stw	r5,-8(fp)
 100b89c:	e1bfff15 	stw	r6,-4(fp)
    altera_avalon_jtag_uart_dev* dev = (altera_avalon_jtag_uart_dev*) fd->dev;
 100b8a0:	e0bffd17 	ldw	r2,-12(fp)
 100b8a4:	10800017 	ldw	r2,0(r2)
 100b8a8:	e0bffc15 	stw	r2,-16(fp)

    return altera_avalon_jtag_uart_ioctl(&dev->state, req, arg);
 100b8ac:	e0bffc17 	ldw	r2,-16(fp)
 100b8b0:	11000a04 	addi	r4,r2,40
 100b8b4:	e17ffe17 	ldw	r5,-8(fp)
 100b8b8:	e1bfff17 	ldw	r6,-4(fp)
 100b8bc:	100bce00 	call	100bce0 <altera_avalon_jtag_uart_ioctl>
}
 100b8c0:	e037883a 	mov	sp,fp
 100b8c4:	dfc00117 	ldw	ra,4(sp)
 100b8c8:	df000017 	ldw	fp,0(sp)
 100b8cc:	dec00204 	addi	sp,sp,8
 100b8d0:	f800283a 	ret

0100b8d4 <altera_avalon_jtag_uart_init>:
 * Return 1 on sucessful IRQ register and 0 on failure.
 */

void altera_avalon_jtag_uart_init(altera_avalon_jtag_uart_state* sp, 
                                  int irq_controller_id, int irq)
{
 100b8d4:	defffa04 	addi	sp,sp,-24
 100b8d8:	dfc00515 	stw	ra,20(sp)
 100b8dc:	df000415 	stw	fp,16(sp)
 100b8e0:	df000404 	addi	fp,sp,16
 100b8e4:	e13ffd15 	stw	r4,-12(fp)
 100b8e8:	e17ffe15 	stw	r5,-8(fp)
 100b8ec:	e1bfff15 	stw	r6,-4(fp)
  ALT_FLAG_CREATE(&sp->events, 0);
  ALT_SEM_CREATE(&sp->read_lock, 1);
  ALT_SEM_CREATE(&sp->write_lock, 1);

  /* enable read interrupts at the device */
  sp->irq_enable = ALTERA_AVALON_JTAG_UART_CONTROL_RE_MSK;
 100b8f0:	e0fffd17 	ldw	r3,-12(fp)
 100b8f4:	00800044 	movi	r2,1
 100b8f8:	18800815 	stw	r2,32(r3)

  IOWR_ALTERA_AVALON_JTAG_UART_CONTROL(sp->base, sp->irq_enable); 
 100b8fc:	e0bffd17 	ldw	r2,-12(fp)
 100b900:	10800017 	ldw	r2,0(r2)
 100b904:	11000104 	addi	r4,r2,4
 100b908:	e0bffd17 	ldw	r2,-12(fp)
 100b90c:	10800817 	ldw	r2,32(r2)
 100b910:	1007883a 	mov	r3,r2
 100b914:	2005883a 	mov	r2,r4
 100b918:	10c00035 	stwio	r3,0(r2)
  
  /* register the interrupt handler */
#ifdef ALT_ENHANCED_INTERRUPT_API_PRESENT
  alt_ic_isr_register(irq_controller_id, irq, altera_avalon_jtag_uart_irq, 
 100b91c:	e13ffe17 	ldw	r4,-8(fp)
 100b920:	e17fff17 	ldw	r5,-4(fp)
 100b924:	d8000015 	stw	zero,0(sp)
 100b928:	01804074 	movhi	r6,257
 100b92c:	31ae6504 	addi	r6,r6,-18028
 100b930:	e1fffd17 	ldw	r7,-12(fp)
 100b934:	100cce00 	call	100cce0 <alt_ic_isr_register>
#else
  alt_irq_register(irq, sp, altera_avalon_jtag_uart_irq);
#endif  

  /* Register an alarm to go off every second to check for presence of host */
  sp->host_inactive = 0;
 100b938:	e0bffd17 	ldw	r2,-12(fp)
 100b93c:	10000915 	stw	zero,36(r2)

  if (alt_alarm_start(&sp->alarm, alt_ticks_per_second(), 
 100b940:	e0bffd17 	ldw	r2,-12(fp)
 100b944:	11000204 	addi	r4,r2,8
 100b948:	00804074 	movhi	r2,257
 100b94c:	1084dc04 	addi	r2,r2,4976
 100b950:	10800017 	ldw	r2,0(r2)
 100b954:	100b883a 	mov	r5,r2
 100b958:	01804074 	movhi	r6,257
 100b95c:	31aeef04 	addi	r6,r6,-17476
 100b960:	e1fffd17 	ldw	r7,-12(fp)
 100b964:	100c8d00 	call	100c8d0 <alt_alarm_start>
 100b968:	1004403a 	cmpge	r2,r2,zero
 100b96c:	1000041e 	bne	r2,zero,100b980 <altera_avalon_jtag_uart_init+0xac>
    &altera_avalon_jtag_uart_timeout, sp) < 0)
  {
    /* If we can't set the alarm then record "don't know if host present" 
     * and behave as though the host is present.
     */
    sp->timeout = INT_MAX;
 100b970:	e0fffd17 	ldw	r3,-12(fp)
 100b974:	00a00034 	movhi	r2,32768
 100b978:	10bfffc4 	addi	r2,r2,-1
 100b97c:	18800115 	stw	r2,4(r3)
  }

  /* ALT_LOG - see altera_hal/HAL/inc/sys/alt_log_printf.h */ 
  ALT_LOG_JTAG_UART_ALARM_REGISTER(sp, sp->base);
}
 100b980:	e037883a 	mov	sp,fp
 100b984:	dfc00117 	ldw	ra,4(sp)
 100b988:	df000017 	ldw	fp,0(sp)
 100b98c:	dec00204 	addi	sp,sp,8
 100b990:	f800283a 	ret

0100b994 <altera_avalon_jtag_uart_irq>:
#ifdef ALT_ENHANCED_INTERRUPT_API_PRESENT
static void altera_avalon_jtag_uart_irq(void* context)
#else
static void altera_avalon_jtag_uart_irq(void* context, alt_u32 id)
#endif
{
 100b994:	defff804 	addi	sp,sp,-32
 100b998:	df000715 	stw	fp,28(sp)
 100b99c:	df000704 	addi	fp,sp,28
 100b9a0:	e13fff15 	stw	r4,-4(fp)
  altera_avalon_jtag_uart_state* sp = (altera_avalon_jtag_uart_state*) context;
 100b9a4:	e0bfff17 	ldw	r2,-4(fp)
 100b9a8:	e0bffe15 	stw	r2,-8(fp)
  unsigned int base = sp->base;
 100b9ac:	e0bffe17 	ldw	r2,-8(fp)
 100b9b0:	10800017 	ldw	r2,0(r2)
 100b9b4:	e0bffd15 	stw	r2,-12(fp)
 100b9b8:	00000006 	br	100b9bc <altera_avalon_jtag_uart_irq+0x28>
  /* ALT_LOG - see altera_hal/HAL/inc/sys/alt_log_printf.h */ 
  ALT_LOG_JTAG_UART_ISR_FUNCTION(base, sp);

  for ( ; ; )
  {
    unsigned int control = IORD_ALTERA_AVALON_JTAG_UART_CONTROL(base);
 100b9bc:	e0bffd17 	ldw	r2,-12(fp)
 100b9c0:	10800104 	addi	r2,r2,4
 100b9c4:	10800037 	ldwio	r2,0(r2)
 100b9c8:	e0bffc15 	stw	r2,-16(fp)

    /* Return once nothing more to do */
    if ((control & (ALTERA_AVALON_JTAG_UART_CONTROL_RI_MSK | ALTERA_AVALON_JTAG_UART_CONTROL_WI_MSK)) == 0)
 100b9cc:	e0bffc17 	ldw	r2,-16(fp)
 100b9d0:	1080c00c 	andi	r2,r2,768
 100b9d4:	1005003a 	cmpeq	r2,r2,zero
 100b9d8:	1000741e 	bne	r2,zero,100bbac <altera_avalon_jtag_uart_irq+0x218>
      break;

    if (control & ALTERA_AVALON_JTAG_UART_CONTROL_RI_MSK)
 100b9dc:	e0bffc17 	ldw	r2,-16(fp)
 100b9e0:	1080400c 	andi	r2,r2,256
 100b9e4:	1005003a 	cmpeq	r2,r2,zero
 100b9e8:	1000351e 	bne	r2,zero,100bac0 <altera_avalon_jtag_uart_irq+0x12c>
    {
      /* process a read irq.  Start by assuming that there is data in the
       * receive FIFO (otherwise why would we have been interrupted?)
       */
      unsigned int data = 1 << ALTERA_AVALON_JTAG_UART_DATA_RAVAIL_OFST;
 100b9ec:	00800074 	movhi	r2,1
 100b9f0:	e0bffb15 	stw	r2,-20(fp)
      for ( ; ; )
      {
        /* Check whether there is space in the buffer.  If not then we must not
         * read any characters from the buffer as they will be lost.
         */
        unsigned int next = (sp->rx_in + 1) % ALTERA_AVALON_JTAG_UART_BUF_LEN;
 100b9f4:	e0bffe17 	ldw	r2,-8(fp)
 100b9f8:	10800a17 	ldw	r2,40(r2)
 100b9fc:	10800044 	addi	r2,r2,1
 100ba00:	1081ffcc 	andi	r2,r2,2047
 100ba04:	e0bffa15 	stw	r2,-24(fp)
        if (next == sp->rx_out)
 100ba08:	e0bffe17 	ldw	r2,-8(fp)
 100ba0c:	10c00b17 	ldw	r3,44(r2)
 100ba10:	e0bffa17 	ldw	r2,-24(fp)
 100ba14:	18801626 	beq	r3,r2,100ba70 <altera_avalon_jtag_uart_irq+0xdc>
          break;

        /* Try to remove a character from the FIFO and find out whether there
         * are any more characters remaining.
         */
        data = IORD_ALTERA_AVALON_JTAG_UART_DATA(base);
 100ba18:	e0bffd17 	ldw	r2,-12(fp)
 100ba1c:	10800037 	ldwio	r2,0(r2)
 100ba20:	e0bffb15 	stw	r2,-20(fp)
        
        if ((data & ALTERA_AVALON_JTAG_UART_DATA_RVALID_MSK) == 0)
 100ba24:	e0bffb17 	ldw	r2,-20(fp)
 100ba28:	10a0000c 	andi	r2,r2,32768
 100ba2c:	1005003a 	cmpeq	r2,r2,zero
 100ba30:	10000f1e 	bne	r2,zero,100ba70 <altera_avalon_jtag_uart_irq+0xdc>
          break;

        sp->rx_buf[sp->rx_in] = (data & ALTERA_AVALON_JTAG_UART_DATA_DATA_MSK) >> ALTERA_AVALON_JTAG_UART_DATA_DATA_OFST;
 100ba34:	e0bffe17 	ldw	r2,-8(fp)
 100ba38:	10c00a17 	ldw	r3,40(r2)
 100ba3c:	e0bffb17 	ldw	r2,-20(fp)
 100ba40:	1009883a 	mov	r4,r2
 100ba44:	e0bffe17 	ldw	r2,-8(fp)
 100ba48:	1885883a 	add	r2,r3,r2
 100ba4c:	10800e04 	addi	r2,r2,56
 100ba50:	11000005 	stb	r4,0(r2)
        sp->rx_in = (sp->rx_in + 1) % ALTERA_AVALON_JTAG_UART_BUF_LEN;
 100ba54:	e0bffe17 	ldw	r2,-8(fp)
 100ba58:	10800a17 	ldw	r2,40(r2)
 100ba5c:	10800044 	addi	r2,r2,1
 100ba60:	10c1ffcc 	andi	r3,r2,2047
 100ba64:	e0bffe17 	ldw	r2,-8(fp)
 100ba68:	10c00a15 	stw	r3,40(r2)

        /* Post an event to notify jtag_uart_read that a character has been read */
        ALT_FLAG_POST (sp->events, ALT_JTAG_UART_READ_RDY, OS_FLAG_SET);
      }
 100ba6c:	003fe106 	br	100b9f4 <altera_avalon_jtag_uart_irq+0x60>

      if (data & ALTERA_AVALON_JTAG_UART_DATA_RAVAIL_MSK)
 100ba70:	e0bffb17 	ldw	r2,-20(fp)
 100ba74:	10bfffec 	andhi	r2,r2,65535
 100ba78:	1005003a 	cmpeq	r2,r2,zero
 100ba7c:	1000101e 	bne	r2,zero,100bac0 <altera_avalon_jtag_uart_irq+0x12c>
      {
        /* If there is still data available here then the buffer is full 
         * so turn off receive interrupts until some space becomes available.
         */
        sp->irq_enable &= ~ALTERA_AVALON_JTAG_UART_CONTROL_RE_MSK;
 100ba80:	e0bffe17 	ldw	r2,-8(fp)
 100ba84:	10c00817 	ldw	r3,32(r2)
 100ba88:	00bfff84 	movi	r2,-2
 100ba8c:	1886703a 	and	r3,r3,r2
 100ba90:	e0bffe17 	ldw	r2,-8(fp)
 100ba94:	10c00815 	stw	r3,32(r2)
        IOWR_ALTERA_AVALON_JTAG_UART_CONTROL(base, sp->irq_enable);
 100ba98:	e0bffd17 	ldw	r2,-12(fp)
 100ba9c:	11000104 	addi	r4,r2,4
 100baa0:	e0bffe17 	ldw	r2,-8(fp)
 100baa4:	10800817 	ldw	r2,32(r2)
 100baa8:	1007883a 	mov	r3,r2
 100baac:	2005883a 	mov	r2,r4
 100bab0:	10c00035 	stwio	r3,0(r2)
        
        /* Dummy read to ensure IRQ is cleared prior to ISR completion */
        IORD_ALTERA_AVALON_JTAG_UART_CONTROL(base);
 100bab4:	e0bffd17 	ldw	r2,-12(fp)
 100bab8:	10800104 	addi	r2,r2,4
 100babc:	10800037 	ldwio	r2,0(r2)
      }
    }

    if (control & ALTERA_AVALON_JTAG_UART_CONTROL_WI_MSK)
 100bac0:	e0bffc17 	ldw	r2,-16(fp)
 100bac4:	1080800c 	andi	r2,r2,512
 100bac8:	1005003a 	cmpeq	r2,r2,zero
 100bacc:	103fbb1e 	bne	r2,zero,100b9bc <altera_avalon_jtag_uart_irq+0x28>
    {
      /* process a write irq */
      unsigned int space = (control & ALTERA_AVALON_JTAG_UART_CONTROL_WSPACE_MSK) >> ALTERA_AVALON_JTAG_UART_CONTROL_WSPACE_OFST;
 100bad0:	e0bffc17 	ldw	r2,-16(fp)
 100bad4:	10bfffec 	andhi	r2,r2,65535
 100bad8:	1004d43a 	srli	r2,r2,16
 100badc:	e0bff915 	stw	r2,-28(fp)

      while (space > 0 && sp->tx_out != sp->tx_in)
 100bae0:	00001506 	br	100bb38 <altera_avalon_jtag_uart_irq+0x1a4>
      {
        IOWR_ALTERA_AVALON_JTAG_UART_DATA(base, sp->tx_buf[sp->tx_out]);
 100bae4:	e13ffd17 	ldw	r4,-12(fp)
 100bae8:	e0bffe17 	ldw	r2,-8(fp)
 100baec:	10c00d17 	ldw	r3,52(r2)
 100baf0:	e0bffe17 	ldw	r2,-8(fp)
 100baf4:	1885883a 	add	r2,r3,r2
 100baf8:	10820e04 	addi	r2,r2,2104
 100bafc:	10800003 	ldbu	r2,0(r2)
 100bb00:	10c03fcc 	andi	r3,r2,255
 100bb04:	18c0201c 	xori	r3,r3,128
 100bb08:	18ffe004 	addi	r3,r3,-128
 100bb0c:	2005883a 	mov	r2,r4
 100bb10:	10c00035 	stwio	r3,0(r2)

        sp->tx_out = (sp->tx_out + 1) % ALTERA_AVALON_JTAG_UART_BUF_LEN;
 100bb14:	e0bffe17 	ldw	r2,-8(fp)
 100bb18:	10800d17 	ldw	r2,52(r2)
 100bb1c:	10800044 	addi	r2,r2,1
 100bb20:	10c1ffcc 	andi	r3,r2,2047
 100bb24:	e0bffe17 	ldw	r2,-8(fp)
 100bb28:	10c00d15 	stw	r3,52(r2)

        /* Post an event to notify jtag_uart_write that a character has been written */
        ALT_FLAG_POST (sp->events, ALT_JTAG_UART_WRITE_RDY, OS_FLAG_SET);

        space--;
 100bb2c:	e0bff917 	ldw	r2,-28(fp)
 100bb30:	10bfffc4 	addi	r2,r2,-1
 100bb34:	e0bff915 	stw	r2,-28(fp)
    if (control & ALTERA_AVALON_JTAG_UART_CONTROL_WI_MSK)
    {
      /* process a write irq */
      unsigned int space = (control & ALTERA_AVALON_JTAG_UART_CONTROL_WSPACE_MSK) >> ALTERA_AVALON_JTAG_UART_CONTROL_WSPACE_OFST;

      while (space > 0 && sp->tx_out != sp->tx_in)
 100bb38:	e0bff917 	ldw	r2,-28(fp)
 100bb3c:	1005003a 	cmpeq	r2,r2,zero
 100bb40:	1000051e 	bne	r2,zero,100bb58 <altera_avalon_jtag_uart_irq+0x1c4>
 100bb44:	e0bffe17 	ldw	r2,-8(fp)
 100bb48:	10c00d17 	ldw	r3,52(r2)
 100bb4c:	e0bffe17 	ldw	r2,-8(fp)
 100bb50:	10800c17 	ldw	r2,48(r2)
 100bb54:	18bfe31e 	bne	r3,r2,100bae4 <altera_avalon_jtag_uart_irq+0x150>
        ALT_FLAG_POST (sp->events, ALT_JTAG_UART_WRITE_RDY, OS_FLAG_SET);

        space--;
      }

      if (space > 0)
 100bb58:	e0bff917 	ldw	r2,-28(fp)
 100bb5c:	1005003a 	cmpeq	r2,r2,zero
 100bb60:	103f961e 	bne	r2,zero,100b9bc <altera_avalon_jtag_uart_irq+0x28>
      {
        /* If we don't have any more data available then turn off the TX interrupt */
        sp->irq_enable &= ~ALTERA_AVALON_JTAG_UART_CONTROL_WE_MSK;
 100bb64:	e0bffe17 	ldw	r2,-8(fp)
 100bb68:	10c00817 	ldw	r3,32(r2)
 100bb6c:	00bfff44 	movi	r2,-3
 100bb70:	1886703a 	and	r3,r3,r2
 100bb74:	e0bffe17 	ldw	r2,-8(fp)
 100bb78:	10c00815 	stw	r3,32(r2)
        IOWR_ALTERA_AVALON_JTAG_UART_CONTROL(sp->base, sp->irq_enable);
 100bb7c:	e0bffe17 	ldw	r2,-8(fp)
 100bb80:	10800017 	ldw	r2,0(r2)
 100bb84:	11000104 	addi	r4,r2,4
 100bb88:	e0bffe17 	ldw	r2,-8(fp)
 100bb8c:	10800817 	ldw	r2,32(r2)
 100bb90:	1007883a 	mov	r3,r2
 100bb94:	2005883a 	mov	r2,r4
 100bb98:	10c00035 	stwio	r3,0(r2)
        
        /* Dummy read to ensure IRQ is cleared prior to ISR completion */
        IORD_ALTERA_AVALON_JTAG_UART_CONTROL(base);
 100bb9c:	e0bffd17 	ldw	r2,-12(fp)
 100bba0:	10800104 	addi	r2,r2,4
 100bba4:	10800037 	ldwio	r2,0(r2)
      }
    }
  }
 100bba8:	003f8406 	br	100b9bc <altera_avalon_jtag_uart_irq+0x28>
}
 100bbac:	e037883a 	mov	sp,fp
 100bbb0:	df000017 	ldw	fp,0(sp)
 100bbb4:	dec00104 	addi	sp,sp,4
 100bbb8:	f800283a 	ret

0100bbbc <altera_avalon_jtag_uart_timeout>:
 * Timeout routine is called every second
 */

static alt_u32 
altera_avalon_jtag_uart_timeout(void* context) 
{
 100bbbc:	defffc04 	addi	sp,sp,-16
 100bbc0:	df000315 	stw	fp,12(sp)
 100bbc4:	df000304 	addi	fp,sp,12
 100bbc8:	e13fff15 	stw	r4,-4(fp)
  altera_avalon_jtag_uart_state* sp = (altera_avalon_jtag_uart_state *) context;
 100bbcc:	e0bfff17 	ldw	r2,-4(fp)
 100bbd0:	e0bffe15 	stw	r2,-8(fp)

  unsigned int control = IORD_ALTERA_AVALON_JTAG_UART_CONTROL(sp->base);
 100bbd4:	e0bffe17 	ldw	r2,-8(fp)
 100bbd8:	10800017 	ldw	r2,0(r2)
 100bbdc:	10800104 	addi	r2,r2,4
 100bbe0:	10800037 	ldwio	r2,0(r2)
 100bbe4:	e0bffd15 	stw	r2,-12(fp)

  if (control & ALTERA_AVALON_JTAG_UART_CONTROL_AC_MSK)
 100bbe8:	e0bffd17 	ldw	r2,-12(fp)
 100bbec:	1081000c 	andi	r2,r2,1024
 100bbf0:	1005003a 	cmpeq	r2,r2,zero
 100bbf4:	10000c1e 	bne	r2,zero,100bc28 <altera_avalon_jtag_uart_timeout+0x6c>
  {
    IOWR_ALTERA_AVALON_JTAG_UART_CONTROL(sp->base, sp->irq_enable | ALTERA_AVALON_JTAG_UART_CONTROL_AC_MSK);
 100bbf8:	e0bffe17 	ldw	r2,-8(fp)
 100bbfc:	10800017 	ldw	r2,0(r2)
 100bc00:	11000104 	addi	r4,r2,4
 100bc04:	e0bffe17 	ldw	r2,-8(fp)
 100bc08:	10800817 	ldw	r2,32(r2)
 100bc0c:	10810014 	ori	r2,r2,1024
 100bc10:	1007883a 	mov	r3,r2
 100bc14:	2005883a 	mov	r2,r4
 100bc18:	10c00035 	stwio	r3,0(r2)
    sp->host_inactive = 0;
 100bc1c:	e0bffe17 	ldw	r2,-8(fp)
 100bc20:	10000915 	stw	zero,36(r2)
 100bc24:	00000a06 	br	100bc50 <altera_avalon_jtag_uart_timeout+0x94>
  }
  else if (sp->host_inactive < INT_MAX - 2) {
 100bc28:	e0bffe17 	ldw	r2,-8(fp)
 100bc2c:	10c00917 	ldw	r3,36(r2)
 100bc30:	00a00034 	movhi	r2,32768
 100bc34:	10bfff04 	addi	r2,r2,-4
 100bc38:	10c00536 	bltu	r2,r3,100bc50 <altera_avalon_jtag_uart_timeout+0x94>
    sp->host_inactive++;
 100bc3c:	e0bffe17 	ldw	r2,-8(fp)
 100bc40:	10800917 	ldw	r2,36(r2)
 100bc44:	10c00044 	addi	r3,r2,1
 100bc48:	e0bffe17 	ldw	r2,-8(fp)
 100bc4c:	10c00915 	stw	r3,36(r2)
 100bc50:	00804074 	movhi	r2,257
 100bc54:	1084dc04 	addi	r2,r2,4976
 100bc58:	10800017 	ldw	r2,0(r2)
      ALT_FLAG_POST (sp->events, ALT_JTAG_UART_TIMEOUT, OS_FLAG_SET);
    }
  }

  return alt_ticks_per_second();
}
 100bc5c:	e037883a 	mov	sp,fp
 100bc60:	df000017 	ldw	fp,0(sp)
 100bc64:	dec00104 	addi	sp,sp,4
 100bc68:	f800283a 	ret

0100bc6c <altera_avalon_jtag_uart_close>:
 * The close routine is not implemented for the small driver; instead it will
 * map to null. This is because the small driver simply waits while characters
 * are transmitted; there is no interrupt-serviced buffer to empty 
 */
int altera_avalon_jtag_uart_close(altera_avalon_jtag_uart_state* sp, int flags)
{
 100bc6c:	defffc04 	addi	sp,sp,-16
 100bc70:	df000315 	stw	fp,12(sp)
 100bc74:	df000304 	addi	fp,sp,12
 100bc78:	e13ffd15 	stw	r4,-12(fp)
 100bc7c:	e17ffe15 	stw	r5,-8(fp)
  /* 
   * Wait for all transmit data to be emptied by the JTAG UART ISR, or
   * for a host-inactivity timeout, in which case transmit data will be lost
   */
  while ( (sp->tx_out != sp->tx_in) && (sp->host_inactive < sp->timeout) ) {
 100bc80:	00000706 	br	100bca0 <altera_avalon_jtag_uart_close+0x34>
    if (flags & O_NONBLOCK) {
 100bc84:	e0bffe17 	ldw	r2,-8(fp)
 100bc88:	1090000c 	andi	r2,r2,16384
 100bc8c:	1005003a 	cmpeq	r2,r2,zero
 100bc90:	1000031e 	bne	r2,zero,100bca0 <altera_avalon_jtag_uart_close+0x34>
      return -EWOULDBLOCK; 
 100bc94:	00bffd44 	movi	r2,-11
 100bc98:	e0bfff15 	stw	r2,-4(fp)
 100bc9c:	00000b06 	br	100bccc <altera_avalon_jtag_uart_close+0x60>
{
  /* 
   * Wait for all transmit data to be emptied by the JTAG UART ISR, or
   * for a host-inactivity timeout, in which case transmit data will be lost
   */
  while ( (sp->tx_out != sp->tx_in) && (sp->host_inactive < sp->timeout) ) {
 100bca0:	e0bffd17 	ldw	r2,-12(fp)
 100bca4:	10c00d17 	ldw	r3,52(r2)
 100bca8:	e0bffd17 	ldw	r2,-12(fp)
 100bcac:	10800c17 	ldw	r2,48(r2)
 100bcb0:	18800526 	beq	r3,r2,100bcc8 <altera_avalon_jtag_uart_close+0x5c>
 100bcb4:	e0bffd17 	ldw	r2,-12(fp)
 100bcb8:	10c00917 	ldw	r3,36(r2)
 100bcbc:	e0bffd17 	ldw	r2,-12(fp)
 100bcc0:	10800117 	ldw	r2,4(r2)
 100bcc4:	18bfef36 	bltu	r3,r2,100bc84 <altera_avalon_jtag_uart_close+0x18>
    if (flags & O_NONBLOCK) {
      return -EWOULDBLOCK; 
    }
  }

  return 0;
 100bcc8:	e03fff15 	stw	zero,-4(fp)
 100bccc:	e0bfff17 	ldw	r2,-4(fp)
}
 100bcd0:	e037883a 	mov	sp,fp
 100bcd4:	df000017 	ldw	fp,0(sp)
 100bcd8:	dec00104 	addi	sp,sp,4
 100bcdc:	f800283a 	ret

0100bce0 <altera_avalon_jtag_uart_ioctl>:
/* ----------------------------------------------------------- */

int 
altera_avalon_jtag_uart_ioctl(altera_avalon_jtag_uart_state* sp, int req,
  void* arg)
{
 100bce0:	defff804 	addi	sp,sp,-32
 100bce4:	df000715 	stw	fp,28(sp)
 100bce8:	df000704 	addi	fp,sp,28
 100bcec:	e13ffb15 	stw	r4,-20(fp)
 100bcf0:	e17ffc15 	stw	r5,-16(fp)
 100bcf4:	e1bffd15 	stw	r6,-12(fp)
  int rc = -ENOTTY;
 100bcf8:	00bff9c4 	movi	r2,-25
 100bcfc:	e0bffa15 	stw	r2,-24(fp)

  switch (req)
 100bd00:	e0bffc17 	ldw	r2,-16(fp)
 100bd04:	e0bfff15 	stw	r2,-4(fp)
 100bd08:	e0ffff17 	ldw	r3,-4(fp)
 100bd0c:	189a8060 	cmpeqi	r2,r3,27137
 100bd10:	1000041e 	bne	r2,zero,100bd24 <altera_avalon_jtag_uart_ioctl+0x44>
 100bd14:	e0ffff17 	ldw	r3,-4(fp)
 100bd18:	189a80a0 	cmpeqi	r2,r3,27138
 100bd1c:	10001b1e 	bne	r2,zero,100bd8c <altera_avalon_jtag_uart_ioctl+0xac>
 100bd20:	00002706 	br	100bdc0 <altera_avalon_jtag_uart_ioctl+0xe0>
  {
  case TIOCSTIMEOUT:
    /* Set the time to wait until assuming host is not connected */
    if (sp->timeout != INT_MAX)
 100bd24:	e0bffb17 	ldw	r2,-20(fp)
 100bd28:	10c00117 	ldw	r3,4(r2)
 100bd2c:	00a00034 	movhi	r2,32768
 100bd30:	10bfffc4 	addi	r2,r2,-1
 100bd34:	18802226 	beq	r3,r2,100bdc0 <altera_avalon_jtag_uart_ioctl+0xe0>
    {
      int timeout = *((int *)arg);
 100bd38:	e0bffd17 	ldw	r2,-12(fp)
 100bd3c:	10800017 	ldw	r2,0(r2)
 100bd40:	e0bff915 	stw	r2,-28(fp)
      sp->timeout = (timeout >= 2 && timeout < INT_MAX) ? timeout : INT_MAX - 1;
 100bd44:	e0bff917 	ldw	r2,-28(fp)
 100bd48:	10800090 	cmplti	r2,r2,2
 100bd4c:	1000071e 	bne	r2,zero,100bd6c <altera_avalon_jtag_uart_ioctl+0x8c>
 100bd50:	e0fff917 	ldw	r3,-28(fp)
 100bd54:	00a00034 	movhi	r2,32768
 100bd58:	10bfffc4 	addi	r2,r2,-1
 100bd5c:	18800326 	beq	r3,r2,100bd6c <altera_avalon_jtag_uart_ioctl+0x8c>
 100bd60:	e0bff917 	ldw	r2,-28(fp)
 100bd64:	e0bffe15 	stw	r2,-8(fp)
 100bd68:	00000306 	br	100bd78 <altera_avalon_jtag_uart_ioctl+0x98>
 100bd6c:	00e00034 	movhi	r3,32768
 100bd70:	18ffff84 	addi	r3,r3,-2
 100bd74:	e0fffe15 	stw	r3,-8(fp)
 100bd78:	e0bffb17 	ldw	r2,-20(fp)
 100bd7c:	e0fffe17 	ldw	r3,-8(fp)
 100bd80:	10c00115 	stw	r3,4(r2)
      rc = 0;
 100bd84:	e03ffa15 	stw	zero,-24(fp)
    }
    break;
 100bd88:	00000d06 	br	100bdc0 <altera_avalon_jtag_uart_ioctl+0xe0>

  case TIOCGCONNECTED:
    /* Find out whether host is connected */
    if (sp->timeout != INT_MAX)
 100bd8c:	e0bffb17 	ldw	r2,-20(fp)
 100bd90:	10c00117 	ldw	r3,4(r2)
 100bd94:	00a00034 	movhi	r2,32768
 100bd98:	10bfffc4 	addi	r2,r2,-1
 100bd9c:	18800826 	beq	r3,r2,100bdc0 <altera_avalon_jtag_uart_ioctl+0xe0>
    {
      *((int *)arg) = (sp->host_inactive < sp->timeout) ? 1 : 0;
 100bda0:	e13ffd17 	ldw	r4,-12(fp)
 100bda4:	e0bffb17 	ldw	r2,-20(fp)
 100bda8:	10c00917 	ldw	r3,36(r2)
 100bdac:	e0bffb17 	ldw	r2,-20(fp)
 100bdb0:	10800117 	ldw	r2,4(r2)
 100bdb4:	1885803a 	cmpltu	r2,r3,r2
 100bdb8:	20800015 	stw	r2,0(r4)
      rc = 0;
 100bdbc:	e03ffa15 	stw	zero,-24(fp)

  default:
    break;
  }

  return rc;
 100bdc0:	e0bffa17 	ldw	r2,-24(fp)
}
 100bdc4:	e037883a 	mov	sp,fp
 100bdc8:	df000017 	ldw	fp,0(sp)
 100bdcc:	dec00104 	addi	sp,sp,4
 100bdd0:	f800283a 	ret

0100bdd4 <altera_avalon_jtag_uart_read>:
/* ----------------------------------------------------------- */

int 
altera_avalon_jtag_uart_read(altera_avalon_jtag_uart_state* sp, 
  char * buffer, int space, int flags)
{
 100bdd4:	defff204 	addi	sp,sp,-56
 100bdd8:	dfc00d15 	stw	ra,52(sp)
 100bddc:	df000c15 	stw	fp,48(sp)
 100bde0:	df000c04 	addi	fp,sp,48
 100bde4:	e13ffb15 	stw	r4,-20(fp)
 100bde8:	e17ffc15 	stw	r5,-16(fp)
 100bdec:	e1bffd15 	stw	r6,-12(fp)
 100bdf0:	e1fffe15 	stw	r7,-8(fp)
  char * ptr = buffer;
 100bdf4:	e0bffc17 	ldw	r2,-16(fp)
 100bdf8:	e0bffa15 	stw	r2,-24(fp)
   * When running in a multi threaded environment, obtain the "read_lock"
   * semaphore. This ensures that reading from the device is thread-safe.
   */
  ALT_SEM_PEND (sp->read_lock, 0);

  while (space > 0)
 100bdfc:	00004806 	br	100bf20 <altera_avalon_jtag_uart_read+0x14c>
    unsigned int in, out;

    /* Read as much data as possible */
    do
    {
      in  = sp->rx_in;
 100be00:	e0bffb17 	ldw	r2,-20(fp)
 100be04:	10800a17 	ldw	r2,40(r2)
 100be08:	e0bff715 	stw	r2,-36(fp)
      out = sp->rx_out;
 100be0c:	e0bffb17 	ldw	r2,-20(fp)
 100be10:	10800b17 	ldw	r2,44(r2)
 100be14:	e0bff615 	stw	r2,-40(fp)

      if (in >= out)
 100be18:	e0fff717 	ldw	r3,-36(fp)
 100be1c:	e0bff617 	ldw	r2,-40(fp)
 100be20:	18800536 	bltu	r3,r2,100be38 <altera_avalon_jtag_uart_read+0x64>
        n = in - out;
 100be24:	e0bff717 	ldw	r2,-36(fp)
 100be28:	e0fff617 	ldw	r3,-40(fp)
 100be2c:	10c5c83a 	sub	r2,r2,r3
 100be30:	e0bff815 	stw	r2,-32(fp)
 100be34:	00000406 	br	100be48 <altera_avalon_jtag_uart_read+0x74>
      else
        n = ALTERA_AVALON_JTAG_UART_BUF_LEN - out;
 100be38:	00820004 	movi	r2,2048
 100be3c:	e0fff617 	ldw	r3,-40(fp)
 100be40:	10c5c83a 	sub	r2,r2,r3
 100be44:	e0bff815 	stw	r2,-32(fp)

      if (n == 0)
 100be48:	e0bff817 	ldw	r2,-32(fp)
 100be4c:	1005003a 	cmpeq	r2,r2,zero
 100be50:	10001f1e 	bne	r2,zero,100bed0 <altera_avalon_jtag_uart_read+0xfc>
        break; /* No more data available */

      if (n > space)
 100be54:	e0fffd17 	ldw	r3,-12(fp)
 100be58:	e0bff817 	ldw	r2,-32(fp)
 100be5c:	1880022e 	bgeu	r3,r2,100be68 <altera_avalon_jtag_uart_read+0x94>
        n = space;
 100be60:	e0bffd17 	ldw	r2,-12(fp)
 100be64:	e0bff815 	stw	r2,-32(fp)

      memcpy(ptr, sp->rx_buf + out, n);
 100be68:	e0bffb17 	ldw	r2,-20(fp)
 100be6c:	10c00e04 	addi	r3,r2,56
 100be70:	e0bff617 	ldw	r2,-40(fp)
 100be74:	1887883a 	add	r3,r3,r2
 100be78:	e0bffa17 	ldw	r2,-24(fp)
 100be7c:	1009883a 	mov	r4,r2
 100be80:	180b883a 	mov	r5,r3
 100be84:	e1bff817 	ldw	r6,-32(fp)
 100be88:	10064cc0 	call	10064cc <memcpy>
      ptr   += n;
 100be8c:	e0fff817 	ldw	r3,-32(fp)
 100be90:	e0bffa17 	ldw	r2,-24(fp)
 100be94:	10c5883a 	add	r2,r2,r3
 100be98:	e0bffa15 	stw	r2,-24(fp)
      space -= n;
 100be9c:	e0fffd17 	ldw	r3,-12(fp)
 100bea0:	e0bff817 	ldw	r2,-32(fp)
 100bea4:	1885c83a 	sub	r2,r3,r2
 100bea8:	e0bffd15 	stw	r2,-12(fp)

      sp->rx_out = (out + n) % ALTERA_AVALON_JTAG_UART_BUF_LEN;
 100beac:	e0fff617 	ldw	r3,-40(fp)
 100beb0:	e0bff817 	ldw	r2,-32(fp)
 100beb4:	1885883a 	add	r2,r3,r2
 100beb8:	10c1ffcc 	andi	r3,r2,2047
 100bebc:	e0bffb17 	ldw	r2,-20(fp)
 100bec0:	10c00b15 	stw	r3,44(r2)
    }
    while (space > 0);
 100bec4:	e0bffd17 	ldw	r2,-12(fp)
 100bec8:	10800048 	cmpgei	r2,r2,1
 100becc:	103fcc1e 	bne	r2,zero,100be00 <altera_avalon_jtag_uart_read+0x2c>

    /* If we read any data then return it */
    if (ptr != buffer)
 100bed0:	e0fffa17 	ldw	r3,-24(fp)
 100bed4:	e0bffc17 	ldw	r2,-16(fp)
 100bed8:	1880141e 	bne	r3,r2,100bf2c <altera_avalon_jtag_uart_read+0x158>
      break;

    /* If in non-blocking mode then return error */
    if (flags & O_NONBLOCK)
 100bedc:	e0bffe17 	ldw	r2,-8(fp)
 100bee0:	1090000c 	andi	r2,r2,16384
 100bee4:	1004c03a 	cmpne	r2,r2,zero
 100bee8:	1000101e 	bne	r2,zero,100bf2c <altera_avalon_jtag_uart_read+0x158>
      while (in == sp->rx_in && sp->host_inactive < sp->timeout)
        ;
    }
#else
    /* No OS: Always spin */
    while (in == sp->rx_in && sp->host_inactive < sp->timeout)
 100beec:	e0bffb17 	ldw	r2,-20(fp)
 100bef0:	10c00a17 	ldw	r3,40(r2)
 100bef4:	e0bff717 	ldw	r2,-36(fp)
 100bef8:	1880051e 	bne	r3,r2,100bf10 <altera_avalon_jtag_uart_read+0x13c>
 100befc:	e0bffb17 	ldw	r2,-20(fp)
 100bf00:	10c00917 	ldw	r3,36(r2)
 100bf04:	e0bffb17 	ldw	r2,-20(fp)
 100bf08:	10800117 	ldw	r2,4(r2)
 100bf0c:	18bff736 	bltu	r3,r2,100beec <altera_avalon_jtag_uart_read+0x118>
      ;
#endif /* __ucosii__ */

    if (in == sp->rx_in)
 100bf10:	e0bffb17 	ldw	r2,-20(fp)
 100bf14:	10c00a17 	ldw	r3,40(r2)
 100bf18:	e0bff717 	ldw	r2,-36(fp)
 100bf1c:	18800326 	beq	r3,r2,100bf2c <altera_avalon_jtag_uart_read+0x158>
   * When running in a multi threaded environment, obtain the "read_lock"
   * semaphore. This ensures that reading from the device is thread-safe.
   */
  ALT_SEM_PEND (sp->read_lock, 0);

  while (space > 0)
 100bf20:	e0bffd17 	ldw	r2,-12(fp)
 100bf24:	10800048 	cmpgei	r2,r2,1
 100bf28:	103fb51e 	bne	r2,zero,100be00 <altera_avalon_jtag_uart_read+0x2c>
   * semaphore so that other threads can access the buffer.
   */

  ALT_SEM_POST (sp->read_lock);

  if (ptr != buffer)
 100bf2c:	e0fffa17 	ldw	r3,-24(fp)
 100bf30:	e0bffc17 	ldw	r2,-16(fp)
 100bf34:	18801926 	beq	r3,r2,100bf9c <altera_avalon_jtag_uart_read+0x1c8>
static ALT_INLINE alt_irq_context ALT_ALWAYS_INLINE 
       alt_irq_disable_all (void)
{
  alt_irq_context context;

  NIOS2_READ_STATUS (context);
 100bf38:	0005303a 	rdctl	r2,status
 100bf3c:	e0bff515 	stw	r2,-44(fp)

  NIOS2_WRITE_STATUS (context & ~NIOS2_STATUS_PIE_MSK);
 100bf40:	e0fff517 	ldw	r3,-44(fp)
 100bf44:	00bfff84 	movi	r2,-2
 100bf48:	1884703a 	and	r2,r3,r2
 100bf4c:	1001703a 	wrctl	status,r2
  
  return context;
 100bf50:	e0bff517 	ldw	r2,-44(fp)
  {
    /* If we read any data then there is space in the buffer so enable interrupts */
    context = alt_irq_disable_all();
 100bf54:	e0bff915 	stw	r2,-28(fp)
    sp->irq_enable |= ALTERA_AVALON_JTAG_UART_CONTROL_RE_MSK;
 100bf58:	e0bffb17 	ldw	r2,-20(fp)
 100bf5c:	10800817 	ldw	r2,32(r2)
 100bf60:	10c00054 	ori	r3,r2,1
 100bf64:	e0bffb17 	ldw	r2,-20(fp)
 100bf68:	10c00815 	stw	r3,32(r2)
    IOWR_ALTERA_AVALON_JTAG_UART_CONTROL(sp->base, sp->irq_enable);
 100bf6c:	e0bffb17 	ldw	r2,-20(fp)
 100bf70:	10800017 	ldw	r2,0(r2)
 100bf74:	11000104 	addi	r4,r2,4
 100bf78:	e0bffb17 	ldw	r2,-20(fp)
 100bf7c:	10800817 	ldw	r2,32(r2)
 100bf80:	1007883a 	mov	r3,r2
 100bf84:	2005883a 	mov	r2,r4
 100bf88:	10c00035 	stwio	r3,0(r2)
 100bf8c:	e0bff917 	ldw	r2,-28(fp)
 100bf90:	e0bff415 	stw	r2,-48(fp)
  status &= ~NIOS2_STATUS_PIE_MSK;
  status |= (context & NIOS2_STATUS_PIE_MSK);
  
  NIOS2_WRITE_STATUS (status);
#else
  NIOS2_WRITE_STATUS (context);
 100bf94:	e0bff417 	ldw	r2,-48(fp)
 100bf98:	1001703a 	wrctl	status,r2
    alt_irq_enable_all(context);
  }

  if (ptr != buffer)
 100bf9c:	e0fffa17 	ldw	r3,-24(fp)
 100bfa0:	e0bffc17 	ldw	r2,-16(fp)
 100bfa4:	18800526 	beq	r3,r2,100bfbc <altera_avalon_jtag_uart_read+0x1e8>
    return ptr - buffer;
 100bfa8:	e0fffa17 	ldw	r3,-24(fp)
 100bfac:	e0bffc17 	ldw	r2,-16(fp)
 100bfb0:	1887c83a 	sub	r3,r3,r2
 100bfb4:	e0ffff15 	stw	r3,-4(fp)
 100bfb8:	00000906 	br	100bfe0 <altera_avalon_jtag_uart_read+0x20c>
  else if (flags & O_NONBLOCK)
 100bfbc:	e0bffe17 	ldw	r2,-8(fp)
 100bfc0:	1090000c 	andi	r2,r2,16384
 100bfc4:	1005003a 	cmpeq	r2,r2,zero
 100bfc8:	1000031e 	bne	r2,zero,100bfd8 <altera_avalon_jtag_uart_read+0x204>
    return -EWOULDBLOCK;
 100bfcc:	00bffd44 	movi	r2,-11
 100bfd0:	e0bfff15 	stw	r2,-4(fp)
 100bfd4:	00000206 	br	100bfe0 <altera_avalon_jtag_uart_read+0x20c>
  else
    return -EIO;
 100bfd8:	00bffec4 	movi	r2,-5
 100bfdc:	e0bfff15 	stw	r2,-4(fp)
 100bfe0:	e0bfff17 	ldw	r2,-4(fp)
}
 100bfe4:	e037883a 	mov	sp,fp
 100bfe8:	dfc00117 	ldw	ra,4(sp)
 100bfec:	df000017 	ldw	fp,0(sp)
 100bff0:	dec00204 	addi	sp,sp,8
 100bff4:	f800283a 	ret

0100bff8 <altera_avalon_jtag_uart_write>:
/* ----------------------------------------------------------- */

int 
altera_avalon_jtag_uart_write(altera_avalon_jtag_uart_state* sp, 
  const char * ptr, int count, int flags)
{
 100bff8:	defff204 	addi	sp,sp,-56
 100bffc:	dfc00d15 	stw	ra,52(sp)
 100c000:	df000c15 	stw	fp,48(sp)
 100c004:	df000c04 	addi	fp,sp,48
 100c008:	e13ffb15 	stw	r4,-20(fp)
 100c00c:	e17ffc15 	stw	r5,-16(fp)
 100c010:	e1bffd15 	stw	r6,-12(fp)
 100c014:	e1fffe15 	stw	r7,-8(fp)
  /* Remove warning at optimisation level 03 by seting out to 0 */
  unsigned int in, out=0;
 100c018:	e03ff915 	stw	zero,-28(fp)
  unsigned int n;
  alt_irq_context context;

  const char * start = ptr;
 100c01c:	e0bffc17 	ldw	r2,-16(fp)
 100c020:	e0bff615 	stw	r2,-40(fp)
  ALT_SEM_PEND (sp->write_lock, 0);

  do
  {
    /* Copy as much as we can into the transmit buffer */
    while (count > 0)
 100c024:	00003a06 	br	100c110 <altera_avalon_jtag_uart_write+0x118>
    {
      /* We need a stable value of the out pointer to calculate the space available */
      in  = sp->tx_in;
 100c028:	e0bffb17 	ldw	r2,-20(fp)
 100c02c:	10800c17 	ldw	r2,48(r2)
 100c030:	e0bffa15 	stw	r2,-24(fp)
      out = sp->tx_out;
 100c034:	e0bffb17 	ldw	r2,-20(fp)
 100c038:	10800d17 	ldw	r2,52(r2)
 100c03c:	e0bff915 	stw	r2,-28(fp)

      if (in < out)
 100c040:	e0fffa17 	ldw	r3,-24(fp)
 100c044:	e0bff917 	ldw	r2,-28(fp)
 100c048:	1880062e 	bgeu	r3,r2,100c064 <altera_avalon_jtag_uart_write+0x6c>
        n = out - 1 - in;
 100c04c:	e0fff917 	ldw	r3,-28(fp)
 100c050:	e0bffa17 	ldw	r2,-24(fp)
 100c054:	1885c83a 	sub	r2,r3,r2
 100c058:	10bfffc4 	addi	r2,r2,-1
 100c05c:	e0bff815 	stw	r2,-32(fp)
 100c060:	00000c06 	br	100c094 <altera_avalon_jtag_uart_write+0x9c>
      else if (out > 0)
 100c064:	e0bff917 	ldw	r2,-28(fp)
 100c068:	1005003a 	cmpeq	r2,r2,zero
 100c06c:	1000051e 	bne	r2,zero,100c084 <altera_avalon_jtag_uart_write+0x8c>
        n = ALTERA_AVALON_JTAG_UART_BUF_LEN - in;
 100c070:	00820004 	movi	r2,2048
 100c074:	e0fffa17 	ldw	r3,-24(fp)
 100c078:	10c5c83a 	sub	r2,r2,r3
 100c07c:	e0bff815 	stw	r2,-32(fp)
 100c080:	00000406 	br	100c094 <altera_avalon_jtag_uart_write+0x9c>
      else
        n = ALTERA_AVALON_JTAG_UART_BUF_LEN - 1 - in;
 100c084:	0081ffc4 	movi	r2,2047
 100c088:	e0fffa17 	ldw	r3,-24(fp)
 100c08c:	10c5c83a 	sub	r2,r2,r3
 100c090:	e0bff815 	stw	r2,-32(fp)

      if (n == 0)
 100c094:	e0bff817 	ldw	r2,-32(fp)
 100c098:	1005003a 	cmpeq	r2,r2,zero
 100c09c:	10001f1e 	bne	r2,zero,100c11c <altera_avalon_jtag_uart_write+0x124>
        break;

      if (n > count)
 100c0a0:	e0fffd17 	ldw	r3,-12(fp)
 100c0a4:	e0bff817 	ldw	r2,-32(fp)
 100c0a8:	1880022e 	bgeu	r3,r2,100c0b4 <altera_avalon_jtag_uart_write+0xbc>
        n = count;
 100c0ac:	e0bffd17 	ldw	r2,-12(fp)
 100c0b0:	e0bff815 	stw	r2,-32(fp)

      memcpy(sp->tx_buf + in, ptr, n);
 100c0b4:	e0bffb17 	ldw	r2,-20(fp)
 100c0b8:	10c20e04 	addi	r3,r2,2104
 100c0bc:	e0bffa17 	ldw	r2,-24(fp)
 100c0c0:	1885883a 	add	r2,r3,r2
 100c0c4:	e0fffc17 	ldw	r3,-16(fp)
 100c0c8:	1009883a 	mov	r4,r2
 100c0cc:	180b883a 	mov	r5,r3
 100c0d0:	e1bff817 	ldw	r6,-32(fp)
 100c0d4:	10064cc0 	call	10064cc <memcpy>
      ptr   += n;
 100c0d8:	e0fff817 	ldw	r3,-32(fp)
 100c0dc:	e0bffc17 	ldw	r2,-16(fp)
 100c0e0:	10c5883a 	add	r2,r2,r3
 100c0e4:	e0bffc15 	stw	r2,-16(fp)
      count -= n;
 100c0e8:	e0fffd17 	ldw	r3,-12(fp)
 100c0ec:	e0bff817 	ldw	r2,-32(fp)
 100c0f0:	1885c83a 	sub	r2,r3,r2
 100c0f4:	e0bffd15 	stw	r2,-12(fp)

      sp->tx_in = (in + n) % ALTERA_AVALON_JTAG_UART_BUF_LEN;
 100c0f8:	e0fffa17 	ldw	r3,-24(fp)
 100c0fc:	e0bff817 	ldw	r2,-32(fp)
 100c100:	1885883a 	add	r2,r3,r2
 100c104:	10c1ffcc 	andi	r3,r2,2047
 100c108:	e0bffb17 	ldw	r2,-20(fp)
 100c10c:	10c00c15 	stw	r3,48(r2)
  ALT_SEM_PEND (sp->write_lock, 0);

  do
  {
    /* Copy as much as we can into the transmit buffer */
    while (count > 0)
 100c110:	e0bffd17 	ldw	r2,-12(fp)
 100c114:	10800048 	cmpgei	r2,r2,1
 100c118:	103fc31e 	bne	r2,zero,100c028 <altera_avalon_jtag_uart_write+0x30>
static ALT_INLINE alt_irq_context ALT_ALWAYS_INLINE 
       alt_irq_disable_all (void)
{
  alt_irq_context context;

  NIOS2_READ_STATUS (context);
 100c11c:	0005303a 	rdctl	r2,status
 100c120:	e0bff515 	stw	r2,-44(fp)

  NIOS2_WRITE_STATUS (context & ~NIOS2_STATUS_PIE_MSK);
 100c124:	e0fff517 	ldw	r3,-44(fp)
 100c128:	00bfff84 	movi	r2,-2
 100c12c:	1884703a 	and	r2,r3,r2
 100c130:	1001703a 	wrctl	status,r2
  
  return context;
 100c134:	e0bff517 	ldw	r2,-44(fp)
     * to enable interrupts if there is no space left in the FIFO
     *
     * For now kick the interrupt routine every time to make it transmit 
     * the data 
     */
    context = alt_irq_disable_all();
 100c138:	e0bff715 	stw	r2,-36(fp)
    sp->irq_enable |= ALTERA_AVALON_JTAG_UART_CONTROL_WE_MSK;
 100c13c:	e0bffb17 	ldw	r2,-20(fp)
 100c140:	10800817 	ldw	r2,32(r2)
 100c144:	10c00094 	ori	r3,r2,2
 100c148:	e0bffb17 	ldw	r2,-20(fp)
 100c14c:	10c00815 	stw	r3,32(r2)
    IOWR_ALTERA_AVALON_JTAG_UART_CONTROL(sp->base, sp->irq_enable);
 100c150:	e0bffb17 	ldw	r2,-20(fp)
 100c154:	10800017 	ldw	r2,0(r2)
 100c158:	11000104 	addi	r4,r2,4
 100c15c:	e0bffb17 	ldw	r2,-20(fp)
 100c160:	10800817 	ldw	r2,32(r2)
 100c164:	1007883a 	mov	r3,r2
 100c168:	2005883a 	mov	r2,r4
 100c16c:	10c00035 	stwio	r3,0(r2)
 100c170:	e0bff717 	ldw	r2,-36(fp)
 100c174:	e0bff415 	stw	r2,-48(fp)
  status &= ~NIOS2_STATUS_PIE_MSK;
  status |= (context & NIOS2_STATUS_PIE_MSK);
  
  NIOS2_WRITE_STATUS (status);
#else
  NIOS2_WRITE_STATUS (context);
 100c178:	e0bff417 	ldw	r2,-48(fp)
 100c17c:	1001703a 	wrctl	status,r2
    /* 
     * If there is any data left then either return now or block until 
     * some has been sent 
     */
    /* consider: test whether there is anything there while doing this and delay for at most 2s. */
    if (count > 0)
 100c180:	e0bffd17 	ldw	r2,-12(fp)
 100c184:	10800050 	cmplti	r2,r2,1
 100c188:	1000111e 	bne	r2,zero,100c1d0 <altera_avalon_jtag_uart_write+0x1d8>
    {
      if (flags & O_NONBLOCK)
 100c18c:	e0bffe17 	ldw	r2,-8(fp)
 100c190:	1090000c 	andi	r2,r2,16384
 100c194:	1004c03a 	cmpne	r2,r2,zero
 100c198:	1000101e 	bne	r2,zero,100c1dc <altera_avalon_jtag_uart_write+0x1e4>
      /*
       * No OS present: Always wait for data to be removed from buffer.  Once
       * the interrupt routine has removed some data then we will be able to
       * insert some more.
       */
      while (out == sp->tx_out && sp->host_inactive < sp->timeout)
 100c19c:	e0bffb17 	ldw	r2,-20(fp)
 100c1a0:	10c00d17 	ldw	r3,52(r2)
 100c1a4:	e0bff917 	ldw	r2,-28(fp)
 100c1a8:	1880051e 	bne	r3,r2,100c1c0 <altera_avalon_jtag_uart_write+0x1c8>
 100c1ac:	e0bffb17 	ldw	r2,-20(fp)
 100c1b0:	10c00917 	ldw	r3,36(r2)
 100c1b4:	e0bffb17 	ldw	r2,-20(fp)
 100c1b8:	10800117 	ldw	r2,4(r2)
 100c1bc:	18bff736 	bltu	r3,r2,100c19c <altera_avalon_jtag_uart_write+0x1a4>
        ;
#endif /* __ucosii__ */

      if (out == sp->tx_out)
 100c1c0:	e0bffb17 	ldw	r2,-20(fp)
 100c1c4:	10c00d17 	ldw	r3,52(r2)
 100c1c8:	e0bff917 	ldw	r2,-28(fp)
 100c1cc:	18800326 	beq	r3,r2,100c1dc <altera_avalon_jtag_uart_write+0x1e4>
         break;
    }
  }
  while (count > 0);
 100c1d0:	e0bffd17 	ldw	r2,-12(fp)
 100c1d4:	10800048 	cmpgei	r2,r2,1
 100c1d8:	103fcd1e 	bne	r2,zero,100c110 <altera_avalon_jtag_uart_write+0x118>
   * Now that access to the circular buffer is complete, release the write
   * semaphore so that other threads can access the buffer.
   */
  ALT_SEM_POST (sp->write_lock);

  if (ptr != start)
 100c1dc:	e0fffc17 	ldw	r3,-16(fp)
 100c1e0:	e0bff617 	ldw	r2,-40(fp)
 100c1e4:	18800526 	beq	r3,r2,100c1fc <altera_avalon_jtag_uart_write+0x204>
    return ptr - start;
 100c1e8:	e0fffc17 	ldw	r3,-16(fp)
 100c1ec:	e0bff617 	ldw	r2,-40(fp)
 100c1f0:	1887c83a 	sub	r3,r3,r2
 100c1f4:	e0ffff15 	stw	r3,-4(fp)
 100c1f8:	00000906 	br	100c220 <altera_avalon_jtag_uart_write+0x228>
  else if (flags & O_NONBLOCK)
 100c1fc:	e0bffe17 	ldw	r2,-8(fp)
 100c200:	1090000c 	andi	r2,r2,16384
 100c204:	1005003a 	cmpeq	r2,r2,zero
 100c208:	1000031e 	bne	r2,zero,100c218 <altera_avalon_jtag_uart_write+0x220>
    return -EWOULDBLOCK;
 100c20c:	00bffd44 	movi	r2,-11
 100c210:	e0bfff15 	stw	r2,-4(fp)
 100c214:	00000206 	br	100c220 <altera_avalon_jtag_uart_write+0x228>
    sp->tx_out = sp->tx_in = 0;
    return ptr - start + count;
  }
#endif
  else
    return -EIO; /* Host not connected */
 100c218:	00bffec4 	movi	r2,-5
 100c21c:	e0bfff15 	stw	r2,-4(fp)
 100c220:	e0bfff17 	ldw	r2,-4(fp)
}
 100c224:	e037883a 	mov	sp,fp
 100c228:	dfc00117 	ldw	ra,4(sp)
 100c22c:	df000017 	ldw	fp,0(sp)
 100c230:	dec00204 	addi	sp,sp,8
 100c234:	f800283a 	ret

0100c238 <alt_timestamp_start>:
 * The return value of this function is 0 upon sucess and -1 if in timestamp
 * device has not been registered. 
 */

int alt_timestamp_start(void)
{
 100c238:	defffd04 	addi	sp,sp,-12
 100c23c:	df000215 	stw	fp,8(sp)
 100c240:	df000204 	addi	fp,sp,8
  void* base = altera_avalon_timer_ts_base;
 100c244:	00804074 	movhi	r2,257
 100c248:	1084de04 	addi	r2,r2,4984
 100c24c:	10800017 	ldw	r2,0(r2)
 100c250:	e0bffe15 	stw	r2,-8(fp)

  if (!altera_avalon_timer_ts_freq)
 100c254:	00804074 	movhi	r2,257
 100c258:	1084df04 	addi	r2,r2,4988
 100c25c:	10800017 	ldw	r2,0(r2)
 100c260:	1004c03a 	cmpne	r2,r2,zero
 100c264:	1000031e 	bne	r2,zero,100c274 <alt_timestamp_start+0x3c>
  {
    return -1;
 100c268:	00bfffc4 	movi	r2,-1
 100c26c:	e0bfff15 	stw	r2,-4(fp)
 100c270:	00001506 	br	100c2c8 <alt_timestamp_start+0x90>
        IOWR_ALTERA_AVALON_TIMER_PERIOD_1 (base, 0xFFFF);;
        IOWR_ALTERA_AVALON_TIMER_PERIOD_2 (base, 0xFFFF);
        IOWR_ALTERA_AVALON_TIMER_PERIOD_3 (base, 0xFFFF);
        IOWR_ALTERA_AVALON_TIMER_CONTROL (base, ALTERA_AVALON_TIMER_CONTROL_START_MSK);
    } else {
        IOWR_ALTERA_AVALON_TIMER_CONTROL (base,ALTERA_AVALON_TIMER_CONTROL_STOP_MSK);
 100c274:	e0bffe17 	ldw	r2,-8(fp)
 100c278:	10800104 	addi	r2,r2,4
 100c27c:	1007883a 	mov	r3,r2
 100c280:	00800204 	movi	r2,8
 100c284:	18800035 	stwio	r2,0(r3)
        IOWR_ALTERA_AVALON_TIMER_PERIODL (base, 0xFFFF);
 100c288:	e0bffe17 	ldw	r2,-8(fp)
 100c28c:	10800204 	addi	r2,r2,8
 100c290:	1007883a 	mov	r3,r2
 100c294:	00bfffd4 	movui	r2,65535
 100c298:	18800035 	stwio	r2,0(r3)
        IOWR_ALTERA_AVALON_TIMER_PERIODH (base, 0xFFFF);
 100c29c:	e0bffe17 	ldw	r2,-8(fp)
 100c2a0:	10800304 	addi	r2,r2,12
 100c2a4:	1007883a 	mov	r3,r2
 100c2a8:	00bfffd4 	movui	r2,65535
 100c2ac:	18800035 	stwio	r2,0(r3)
        IOWR_ALTERA_AVALON_TIMER_CONTROL (base, ALTERA_AVALON_TIMER_CONTROL_START_MSK); 
 100c2b0:	e0bffe17 	ldw	r2,-8(fp)
 100c2b4:	10800104 	addi	r2,r2,4
 100c2b8:	1007883a 	mov	r3,r2
 100c2bc:	00800104 	movi	r2,4
 100c2c0:	18800035 	stwio	r2,0(r3)
    } 
  }
  return 0;
 100c2c4:	e03fff15 	stw	zero,-4(fp)
 100c2c8:	e0bfff17 	ldw	r2,-4(fp)
}
 100c2cc:	e037883a 	mov	sp,fp
 100c2d0:	df000017 	ldw	fp,0(sp)
 100c2d4:	dec00104 	addi	sp,sp,4
 100c2d8:	f800283a 	ret

0100c2dc <alt_timestamp>:
 * The returned timestamp counts up from the last time the period register
 * was reset. 
 */

alt_timestamp_type alt_timestamp(void)
{
 100c2dc:	defffb04 	addi	sp,sp,-20
 100c2e0:	df000415 	stw	fp,16(sp)
 100c2e4:	df000404 	addi	fp,sp,16

  void* base = altera_avalon_timer_ts_base;
 100c2e8:	00804074 	movhi	r2,257
 100c2ec:	1084de04 	addi	r2,r2,4984
 100c2f0:	10800017 	ldw	r2,0(r2)
 100c2f4:	e0bffe15 	stw	r2,-8(fp)

  if (!altera_avalon_timer_ts_freq)
 100c2f8:	00804074 	movhi	r2,257
 100c2fc:	1084df04 	addi	r2,r2,4988
 100c300:	10800017 	ldw	r2,0(r2)
 100c304:	1004c03a 	cmpne	r2,r2,zero
 100c308:	1000031e 	bne	r2,zero,100c318 <alt_timestamp+0x3c>
  {
	if(ALT_TIMESTAMP_COUNTER_SIZE == 64) {
        return 0xFFFFFFFFFFFFFFFFULL;
    } else {
        return 0xFFFFFFFF;
 100c30c:	00bfffc4 	movi	r2,-1
 100c310:	e0bfff15 	stw	r2,-4(fp)
 100c314:	00001306 	br	100c364 <alt_timestamp+0x88>
        alt_timestamp_type snap_2 = IORD_ALTERA_AVALON_TIMER_SNAP_2(base) & ALTERA_AVALON_TIMER_SNAP_2_MSK;
        alt_timestamp_type snap_3 = IORD_ALTERA_AVALON_TIMER_SNAP_3(base) & ALTERA_AVALON_TIMER_SNAP_3_MSK;
        
        return (0xFFFFFFFFFFFFFFFFULL - ( (snap_3 << 48) | (snap_2 << 32) | (snap_1 << 16) | (snap_0) ));
    } else {
        IOWR_ALTERA_AVALON_TIMER_SNAPL (base, 0);
 100c318:	e0bffe17 	ldw	r2,-8(fp)
 100c31c:	10800404 	addi	r2,r2,16
 100c320:	10000035 	stwio	zero,0(r2)
        alt_timestamp_type lower = IORD_ALTERA_AVALON_TIMER_SNAPL(base) & ALTERA_AVALON_TIMER_SNAPL_MSK;
 100c324:	e0bffe17 	ldw	r2,-8(fp)
 100c328:	10800404 	addi	r2,r2,16
 100c32c:	10800037 	ldwio	r2,0(r2)
 100c330:	10bfffcc 	andi	r2,r2,65535
 100c334:	e0bffd15 	stw	r2,-12(fp)
        alt_timestamp_type upper = IORD_ALTERA_AVALON_TIMER_SNAPH(base) & ALTERA_AVALON_TIMER_SNAPH_MSK;
 100c338:	e0bffe17 	ldw	r2,-8(fp)
 100c33c:	10800504 	addi	r2,r2,20
 100c340:	10800037 	ldwio	r2,0(r2)
 100c344:	10bfffcc 	andi	r2,r2,65535
 100c348:	e0bffc15 	stw	r2,-16(fp)
        
        return (0xFFFFFFFF - ((upper << 16) | lower)); 
 100c34c:	e0bffc17 	ldw	r2,-16(fp)
 100c350:	1006943a 	slli	r3,r2,16
 100c354:	e0bffd17 	ldw	r2,-12(fp)
 100c358:	1884b03a 	or	r2,r3,r2
 100c35c:	0084303a 	nor	r2,zero,r2
 100c360:	e0bfff15 	stw	r2,-4(fp)
 100c364:	e0bfff17 	ldw	r2,-4(fp)
    }  
  }
}
 100c368:	e037883a 	mov	sp,fp
 100c36c:	df000017 	ldw	fp,0(sp)
 100c370:	dec00104 	addi	sp,sp,4
 100c374:	f800283a 	ret

0100c378 <alt_timestamp_freq>:
 * Return the number of timestamp ticks per second. This will be 0 if no
 * timestamp device has been registered.
 */

alt_u32 alt_timestamp_freq(void)
{
 100c378:	deffff04 	addi	sp,sp,-4
 100c37c:	df000015 	stw	fp,0(sp)
 100c380:	d839883a 	mov	fp,sp
  return altera_avalon_timer_ts_freq;
 100c384:	00804074 	movhi	r2,257
 100c388:	1084df04 	addi	r2,r2,4988
 100c38c:	10800017 	ldw	r2,0(r2)
}
 100c390:	e037883a 	mov	sp,fp
 100c394:	df000017 	ldw	fp,0(sp)
 100c398:	dec00104 	addi	sp,sp,4
 100c39c:	f800283a 	ret

0100c3a0 <get_DDRAM_addr>:
 * @sa the datasheet for the LCD Display Controller on the DE2 Board
 * @note the function requires that the input are in the valid range
 *
 **/
unsigned char get_DDRAM_addr(unsigned x_pos, unsigned y_pos)
{
 100c3a0:	defffc04 	addi	sp,sp,-16
 100c3a4:	df000315 	stw	fp,12(sp)
 100c3a8:	df000304 	addi	fp,sp,12
 100c3ac:	e13ffe15 	stw	r4,-8(fp)
 100c3b0:	e17fff15 	stw	r5,-4(fp)
	//assume valid inputs
	unsigned char addr = 0x00000000;
 100c3b4:	e03ffd05 	stb	zero,-12(fp)
	if (y_pos == 0)
 100c3b8:	e0bfff17 	ldw	r2,-4(fp)
 100c3bc:	1004c03a 	cmpne	r2,r2,zero
 100c3c0:	1000061e 	bne	r2,zero,100c3dc <get_DDRAM_addr+0x3c>
	{
		addr |= x_pos;
 100c3c4:	e0bffe17 	ldw	r2,-8(fp)
 100c3c8:	1007883a 	mov	r3,r2
 100c3cc:	e0bffd03 	ldbu	r2,-12(fp)
 100c3d0:	10c4b03a 	or	r2,r2,r3
 100c3d4:	e0bffd05 	stb	r2,-12(fp)
 100c3d8:	00000806 	br	100c3fc <get_DDRAM_addr+0x5c>
	}
	else
	{
		addr |= x_pos;
 100c3dc:	e0bffe17 	ldw	r2,-8(fp)
 100c3e0:	1007883a 	mov	r3,r2
 100c3e4:	e0bffd03 	ldbu	r2,-12(fp)
 100c3e8:	10c4b03a 	or	r2,r2,r3
 100c3ec:	e0bffd05 	stb	r2,-12(fp)
		addr |= 0x00000040;
 100c3f0:	e0bffd03 	ldbu	r2,-12(fp)
 100c3f4:	10801014 	ori	r2,r2,64
 100c3f8:	e0bffd05 	stb	r2,-12(fp)
	}
	// b_7 is always 1 for DDRAM address, see datasheet
	return (addr | 0x00000080);
 100c3fc:	e0fffd03 	ldbu	r3,-12(fp)
 100c400:	00bfe004 	movi	r2,-128
 100c404:	1884b03a 	or	r2,r3,r2
 100c408:	10803fcc 	andi	r2,r2,255
}
 100c40c:	e037883a 	mov	sp,fp
 100c410:	df000017 	ldw	fp,0(sp)
 100c414:	dec00104 	addi	sp,sp,4
 100c418:	f800283a 	ret

0100c41c <alt_up_character_lcd_send_cmd>:
 * @param cmd -- the command bits 
 *
 * @return nothing
 **/
void alt_up_character_lcd_send_cmd(alt_up_character_lcd_dev *lcd, unsigned char cmd)
{
 100c41c:	defffd04 	addi	sp,sp,-12
 100c420:	df000215 	stw	fp,8(sp)
 100c424:	df000204 	addi	fp,sp,8
 100c428:	e13ffe15 	stw	r4,-8(fp)
 100c42c:	e17fff05 	stb	r5,-4(fp)
 	// NOTE: We use the term Instruction Register and Control Register interchangeably
	IOWR_ALT_UP_CHARACTER_LCD_COMMAND(lcd->base, cmd);
 100c430:	e0bffe17 	ldw	r2,-8(fp)
 100c434:	10800a17 	ldw	r2,40(r2)
 100c438:	e0ffff03 	ldbu	r3,-4(fp)
 100c43c:	10c00025 	stbio	r3,0(r2)
}
 100c440:	e037883a 	mov	sp,fp
 100c444:	df000017 	ldw	fp,0(sp)
 100c448:	dec00104 	addi	sp,sp,4
 100c44c:	f800283a 	ret

0100c450 <alt_up_character_lcd_init>:
 * file for a detailed description of each function
 */
////////////////////////////////////////////////////////////////////////////

void alt_up_character_lcd_init(alt_up_character_lcd_dev *lcd)
{
 100c450:	defffe04 	addi	sp,sp,-8
 100c454:	df000115 	stw	fp,4(sp)
 100c458:	df000104 	addi	fp,sp,4
 100c45c:	e13fff15 	stw	r4,-4(fp)
	IOWR_ALT_UP_CHARACTER_LCD_COMMAND(lcd->base, ALT_UP_CHARACTER_LCD_COMM_CLEAR_DISPLAY);
 100c460:	e0bfff17 	ldw	r2,-4(fp)
 100c464:	10800a17 	ldw	r2,40(r2)
 100c468:	1007883a 	mov	r3,r2
 100c46c:	00800044 	movi	r2,1
 100c470:	18800025 	stbio	r2,0(r3)
	// register the device 
	// see "Developing Device Drivers for the HAL" in "Nios II Software Developer's Handbook"
}
 100c474:	e037883a 	mov	sp,fp
 100c478:	df000017 	ldw	fp,0(sp)
 100c47c:	dec00104 	addi	sp,sp,4
 100c480:	f800283a 	ret

0100c484 <alt_up_character_lcd_open_dev>:

alt_up_character_lcd_dev* alt_up_character_lcd_open_dev(const char* name)
{
 100c484:	defffc04 	addi	sp,sp,-16
 100c488:	dfc00315 	stw	ra,12(sp)
 100c48c:	df000215 	stw	fp,8(sp)
 100c490:	df000204 	addi	fp,sp,8
 100c494:	e13fff15 	stw	r4,-4(fp)
  // find the device from the device list 
  // (see altera_hal/HAL/inc/priv/alt_file.h 
  // and altera_hal/HAL/src/alt_find_dev.c 
  // for details)
  alt_up_character_lcd_dev *dev = (alt_up_character_lcd_dev*)alt_find_dev(name, &alt_dev_list);
 100c498:	e13fff17 	ldw	r4,-4(fp)
 100c49c:	01404074 	movhi	r5,257
 100c4a0:	297e2404 	addi	r5,r5,-1904
 100c4a4:	100cc1c0 	call	100cc1c <alt_find_dev>
 100c4a8:	e0bffe15 	stw	r2,-8(fp)

  return dev;
 100c4ac:	e0bffe17 	ldw	r2,-8(fp)
}
 100c4b0:	e037883a 	mov	sp,fp
 100c4b4:	dfc00117 	ldw	ra,4(sp)
 100c4b8:	df000017 	ldw	fp,0(sp)
 100c4bc:	dec00204 	addi	sp,sp,8
 100c4c0:	f800283a 	ret

0100c4c4 <alt_up_character_lcd_write>:

void alt_up_character_lcd_write(alt_up_character_lcd_dev *dev, const char *ptr, unsigned int len)
{
 100c4c4:	defffb04 	addi	sp,sp,-20
 100c4c8:	df000415 	stw	fp,16(sp)
 100c4cc:	df000404 	addi	fp,sp,16
 100c4d0:	e13ffd15 	stw	r4,-12(fp)
 100c4d4:	e17ffe15 	stw	r5,-8(fp)
 100c4d8:	e1bfff15 	stw	r6,-4(fp)
	unsigned int i;
	for (i = 0; i < len; i++)
 100c4dc:	e03ffc15 	stw	zero,-16(fp)
 100c4e0:	00000f06 	br	100c520 <alt_up_character_lcd_write+0x5c>
	{
		IOWR_ALT_UP_CHARACTER_LCD_DATA(dev->base, *(ptr+i));
 100c4e4:	e0bffd17 	ldw	r2,-12(fp)
 100c4e8:	10800a17 	ldw	r2,40(r2)
 100c4ec:	11000044 	addi	r4,r2,1
 100c4f0:	e0fffc17 	ldw	r3,-16(fp)
 100c4f4:	e0bffe17 	ldw	r2,-8(fp)
 100c4f8:	1885883a 	add	r2,r3,r2
 100c4fc:	10800003 	ldbu	r2,0(r2)
 100c500:	10c03fcc 	andi	r3,r2,255
 100c504:	18c0201c 	xori	r3,r3,128
 100c508:	18ffe004 	addi	r3,r3,-128
 100c50c:	2005883a 	mov	r2,r4
 100c510:	10c00025 	stbio	r3,0(r2)
}

void alt_up_character_lcd_write(alt_up_character_lcd_dev *dev, const char *ptr, unsigned int len)
{
	unsigned int i;
	for (i = 0; i < len; i++)
 100c514:	e0bffc17 	ldw	r2,-16(fp)
 100c518:	10800044 	addi	r2,r2,1
 100c51c:	e0bffc15 	stw	r2,-16(fp)
 100c520:	e0fffc17 	ldw	r3,-16(fp)
 100c524:	e0bfff17 	ldw	r2,-4(fp)
 100c528:	18bfee36 	bltu	r3,r2,100c4e4 <alt_up_character_lcd_write+0x20>
	{
		IOWR_ALT_UP_CHARACTER_LCD_DATA(dev->base, *(ptr+i));
	}
}
 100c52c:	e037883a 	mov	sp,fp
 100c530:	df000017 	ldw	fp,0(sp)
 100c534:	dec00104 	addi	sp,sp,4
 100c538:	f800283a 	ret

0100c53c <alt_up_character_lcd_string>:

void alt_up_character_lcd_string(alt_up_character_lcd_dev *dev, const char *ptr)
{
 100c53c:	defffd04 	addi	sp,sp,-12
 100c540:	df000215 	stw	fp,8(sp)
 100c544:	df000204 	addi	fp,sp,8
 100c548:	e13ffe15 	stw	r4,-8(fp)
 100c54c:	e17fff15 	stw	r5,-4(fp)
	while ( *ptr )
 100c550:	00000d06 	br	100c588 <alt_up_character_lcd_string+0x4c>
	{
		IOWR_ALT_UP_CHARACTER_LCD_DATA(dev->base, *(ptr));
 100c554:	e0bffe17 	ldw	r2,-8(fp)
 100c558:	10800a17 	ldw	r2,40(r2)
 100c55c:	11000044 	addi	r4,r2,1
 100c560:	e0bfff17 	ldw	r2,-4(fp)
 100c564:	10800003 	ldbu	r2,0(r2)
 100c568:	10c03fcc 	andi	r3,r2,255
 100c56c:	18c0201c 	xori	r3,r3,128
 100c570:	18ffe004 	addi	r3,r3,-128
 100c574:	2005883a 	mov	r2,r4
 100c578:	10c00025 	stbio	r3,0(r2)
		++ptr;
 100c57c:	e0bfff17 	ldw	r2,-4(fp)
 100c580:	10800044 	addi	r2,r2,1
 100c584:	e0bfff15 	stw	r2,-4(fp)
	}
}

void alt_up_character_lcd_string(alt_up_character_lcd_dev *dev, const char *ptr)
{
	while ( *ptr )
 100c588:	e0bfff17 	ldw	r2,-4(fp)
 100c58c:	10800003 	ldbu	r2,0(r2)
 100c590:	10803fcc 	andi	r2,r2,255
 100c594:	1080201c 	xori	r2,r2,128
 100c598:	10bfe004 	addi	r2,r2,-128
 100c59c:	1004c03a 	cmpne	r2,r2,zero
 100c5a0:	103fec1e 	bne	r2,zero,100c554 <alt_up_character_lcd_string+0x18>
	{
		IOWR_ALT_UP_CHARACTER_LCD_DATA(dev->base, *(ptr));
		++ptr;
	}
}
 100c5a4:	e037883a 	mov	sp,fp
 100c5a8:	df000017 	ldw	fp,0(sp)
 100c5ac:	dec00104 	addi	sp,sp,4
 100c5b0:	f800283a 	ret

0100c5b4 <alt_up_character_lcd_write_fd>:

// this function isn't used, and is included for future upgrades
int alt_up_character_lcd_write_fd(alt_fd *fd, const char *ptr, int len)
{
 100c5b4:	defffb04 	addi	sp,sp,-20
 100c5b8:	dfc00415 	stw	ra,16(sp)
 100c5bc:	df000315 	stw	fp,12(sp)
 100c5c0:	df000304 	addi	fp,sp,12
 100c5c4:	e13ffd15 	stw	r4,-12(fp)
 100c5c8:	e17ffe15 	stw	r5,-8(fp)
 100c5cc:	e1bfff15 	stw	r6,-4(fp)
	alt_up_character_lcd_write( (alt_up_character_lcd_dev *) fd->dev, ptr, (unsigned int) len);
 100c5d0:	e0bffd17 	ldw	r2,-12(fp)
 100c5d4:	10800017 	ldw	r2,0(r2)
 100c5d8:	1009883a 	mov	r4,r2
 100c5dc:	e1bfff17 	ldw	r6,-4(fp)
 100c5e0:	e17ffe17 	ldw	r5,-8(fp)
 100c5e4:	100c4c40 	call	100c4c4 <alt_up_character_lcd_write>
	return 0;
 100c5e8:	0005883a 	mov	r2,zero
}
 100c5ec:	e037883a 	mov	sp,fp
 100c5f0:	dfc00117 	ldw	ra,4(sp)
 100c5f4:	df000017 	ldw	fp,0(sp)
 100c5f8:	dec00204 	addi	sp,sp,8
 100c5fc:	f800283a 	ret

0100c600 <alt_up_character_lcd_set_cursor_pos>:

int alt_up_character_lcd_set_cursor_pos(alt_up_character_lcd_dev *lcd, unsigned x_pos, 
	 unsigned y_pos)
{
 100c600:	defff904 	addi	sp,sp,-28
 100c604:	dfc00615 	stw	ra,24(sp)
 100c608:	df000515 	stw	fp,20(sp)
 100c60c:	df000504 	addi	fp,sp,20
 100c610:	e13ffc15 	stw	r4,-16(fp)
 100c614:	e17ffd15 	stw	r5,-12(fp)
 100c618:	e1bffe15 	stw	r6,-8(fp)
	//boundary check
	if (x_pos > 39 || y_pos > 1 )
 100c61c:	e0bffd17 	ldw	r2,-12(fp)
 100c620:	10800a28 	cmpgeui	r2,r2,40
 100c624:	1000031e 	bne	r2,zero,100c634 <alt_up_character_lcd_set_cursor_pos+0x34>
 100c628:	e0bffe17 	ldw	r2,-8(fp)
 100c62c:	108000b0 	cmpltui	r2,r2,2
 100c630:	1000031e 	bne	r2,zero,100c640 <alt_up_character_lcd_set_cursor_pos+0x40>
		// invalid argument
		return -1;
 100c634:	00bfffc4 	movi	r2,-1
 100c638:	e0bfff15 	stw	r2,-4(fp)
 100c63c:	00000806 	br	100c660 <alt_up_character_lcd_set_cursor_pos+0x60>
	// calculate address
	unsigned char addr = get_DDRAM_addr(x_pos, y_pos);
 100c640:	e13ffd17 	ldw	r4,-12(fp)
 100c644:	e17ffe17 	ldw	r5,-8(fp)
 100c648:	100c3a00 	call	100c3a0 <get_DDRAM_addr>
 100c64c:	e0bffb05 	stb	r2,-20(fp)
	// set the cursor
	alt_up_character_lcd_send_cmd(lcd, addr);
 100c650:	e17ffb03 	ldbu	r5,-20(fp)
 100c654:	e13ffc17 	ldw	r4,-16(fp)
 100c658:	100c41c0 	call	100c41c <alt_up_character_lcd_send_cmd>
	return 0;
 100c65c:	e03fff15 	stw	zero,-4(fp)
 100c660:	e0bfff17 	ldw	r2,-4(fp)
}
 100c664:	e037883a 	mov	sp,fp
 100c668:	dfc00117 	ldw	ra,4(sp)
 100c66c:	df000017 	ldw	fp,0(sp)
 100c670:	dec00204 	addi	sp,sp,8
 100c674:	f800283a 	ret

0100c678 <alt_up_character_lcd_shift_cursor>:

void alt_up_character_lcd_shift_cursor(alt_up_character_lcd_dev *lcd, int x_right_shift_offset)
{
 100c678:	defff904 	addi	sp,sp,-28
 100c67c:	dfc00615 	stw	ra,24(sp)
 100c680:	df000515 	stw	fp,20(sp)
 100c684:	df000504 	addi	fp,sp,20
 100c688:	e13ffc15 	stw	r4,-16(fp)
 100c68c:	e17ffd15 	stw	r5,-12(fp)
	if (x_right_shift_offset == 0) 
 100c690:	e0bffd17 	ldw	r2,-12(fp)
 100c694:	1005003a 	cmpeq	r2,r2,zero
 100c698:	10001e1e 	bne	r2,zero,100c714 <alt_up_character_lcd_shift_cursor+0x9c>
		// don't ask me to do nothing 
		return;

	// see shift right or left
	unsigned char shift_cmd = (x_right_shift_offset > 0) ? 
		ALT_UP_CHARACTER_LCD_COMM_CURSOR_SHIFT_RIGHT : ALT_UP_CHARACTER_LCD_COMM_CURSOR_SHIFT_LEFT;
 100c69c:	e0bffd17 	ldw	r2,-12(fp)
 100c6a0:	10800050 	cmplti	r2,r2,1
 100c6a4:	1000031e 	bne	r2,zero,100c6b4 <alt_up_character_lcd_shift_cursor+0x3c>
 100c6a8:	00800504 	movi	r2,20
 100c6ac:	e0bfff05 	stb	r2,-4(fp)
 100c6b0:	00000206 	br	100c6bc <alt_up_character_lcd_shift_cursor+0x44>
 100c6b4:	00c00404 	movi	r3,16
 100c6b8:	e0ffff05 	stb	r3,-4(fp)
 100c6bc:	e0bfff03 	ldbu	r2,-4(fp)
 100c6c0:	e0bffb45 	stb	r2,-19(fp)
	// see how many to shift
	unsigned char num_offset = (x_right_shift_offset > 0) ? x_right_shift_offset : 
		-x_right_shift_offset;
 100c6c4:	e0fffd17 	ldw	r3,-12(fp)
 100c6c8:	e0fffe15 	stw	r3,-8(fp)
 100c6cc:	e0fffe17 	ldw	r3,-8(fp)
 100c6d0:	1804403a 	cmpge	r2,r3,zero
 100c6d4:	1000031e 	bne	r2,zero,100c6e4 <alt_up_character_lcd_shift_cursor+0x6c>
 100c6d8:	e0bffe17 	ldw	r2,-8(fp)
 100c6dc:	0085c83a 	sub	r2,zero,r2
 100c6e0:	e0bffe15 	stw	r2,-8(fp)
 100c6e4:	e0fffe17 	ldw	r3,-8(fp)
 100c6e8:	e0fffb05 	stb	r3,-20(fp)
	// do the shift
	while (num_offset-- > 0)
 100c6ec:	00000306 	br	100c6fc <alt_up_character_lcd_shift_cursor+0x84>
		alt_up_character_lcd_send_cmd(lcd, shift_cmd);
 100c6f0:	e17ffb43 	ldbu	r5,-19(fp)
 100c6f4:	e13ffc17 	ldw	r4,-16(fp)
 100c6f8:	100c41c0 	call	100c41c <alt_up_character_lcd_send_cmd>
		ALT_UP_CHARACTER_LCD_COMM_CURSOR_SHIFT_RIGHT : ALT_UP_CHARACTER_LCD_COMM_CURSOR_SHIFT_LEFT;
	// see how many to shift
	unsigned char num_offset = (x_right_shift_offset > 0) ? x_right_shift_offset : 
		-x_right_shift_offset;
	// do the shift
	while (num_offset-- > 0)
 100c6fc:	e0bffb03 	ldbu	r2,-20(fp)
 100c700:	10bfffc4 	addi	r2,r2,-1
 100c704:	e0bffb05 	stb	r2,-20(fp)
 100c708:	e0bffb03 	ldbu	r2,-20(fp)
 100c70c:	10803fd8 	cmpnei	r2,r2,255
 100c710:	103ff71e 	bne	r2,zero,100c6f0 <alt_up_character_lcd_shift_cursor+0x78>
		alt_up_character_lcd_send_cmd(lcd, shift_cmd);
}
 100c714:	e037883a 	mov	sp,fp
 100c718:	dfc00117 	ldw	ra,4(sp)
 100c71c:	df000017 	ldw	fp,0(sp)
 100c720:	dec00204 	addi	sp,sp,8
 100c724:	f800283a 	ret

0100c728 <alt_up_character_lcd_shift_display>:

void alt_up_character_lcd_shift_display(alt_up_character_lcd_dev *lcd, int x_right_shift_offset)
{
 100c728:	defff904 	addi	sp,sp,-28
 100c72c:	dfc00615 	stw	ra,24(sp)
 100c730:	df000515 	stw	fp,20(sp)
 100c734:	df000504 	addi	fp,sp,20
 100c738:	e13ffc15 	stw	r4,-16(fp)
 100c73c:	e17ffd15 	stw	r5,-12(fp)
	if (x_right_shift_offset == 0) 
 100c740:	e0bffd17 	ldw	r2,-12(fp)
 100c744:	1005003a 	cmpeq	r2,r2,zero
 100c748:	10001e1e 	bne	r2,zero,100c7c4 <alt_up_character_lcd_shift_display+0x9c>
		// don't ask me to do nothing 
		return;

	// see shift right or left
	unsigned char shift_cmd = (x_right_shift_offset > 0) ? 
		ALT_UP_CHARACTER_LCD_COMM_DISPLAY_SHIFT_RIGHT : ALT_UP_CHARACTER_LCD_COMM_DISPLAY_SHIFT_LEFT;
 100c74c:	e0bffd17 	ldw	r2,-12(fp)
 100c750:	10800050 	cmplti	r2,r2,1
 100c754:	1000031e 	bne	r2,zero,100c764 <alt_up_character_lcd_shift_display+0x3c>
 100c758:	00800704 	movi	r2,28
 100c75c:	e0bfff05 	stb	r2,-4(fp)
 100c760:	00000206 	br	100c76c <alt_up_character_lcd_shift_display+0x44>
 100c764:	00c00604 	movi	r3,24
 100c768:	e0ffff05 	stb	r3,-4(fp)
 100c76c:	e0bfff03 	ldbu	r2,-4(fp)
 100c770:	e0bffb45 	stb	r2,-19(fp)
	// see how many to shift
	unsigned char num_offset = (x_right_shift_offset > 0) ? x_right_shift_offset : 
		-x_right_shift_offset;
 100c774:	e0fffd17 	ldw	r3,-12(fp)
 100c778:	e0fffe15 	stw	r3,-8(fp)
 100c77c:	e0fffe17 	ldw	r3,-8(fp)
 100c780:	1804403a 	cmpge	r2,r3,zero
 100c784:	1000031e 	bne	r2,zero,100c794 <alt_up_character_lcd_shift_display+0x6c>
 100c788:	e0bffe17 	ldw	r2,-8(fp)
 100c78c:	0085c83a 	sub	r2,zero,r2
 100c790:	e0bffe15 	stw	r2,-8(fp)
 100c794:	e0fffe17 	ldw	r3,-8(fp)
 100c798:	e0fffb05 	stb	r3,-20(fp)
	// do the shift
	while (num_offset-- > 0)
 100c79c:	00000306 	br	100c7ac <alt_up_character_lcd_shift_display+0x84>
		alt_up_character_lcd_send_cmd(lcd, shift_cmd);
 100c7a0:	e17ffb43 	ldbu	r5,-19(fp)
 100c7a4:	e13ffc17 	ldw	r4,-16(fp)
 100c7a8:	100c41c0 	call	100c41c <alt_up_character_lcd_send_cmd>
		ALT_UP_CHARACTER_LCD_COMM_DISPLAY_SHIFT_RIGHT : ALT_UP_CHARACTER_LCD_COMM_DISPLAY_SHIFT_LEFT;
	// see how many to shift
	unsigned char num_offset = (x_right_shift_offset > 0) ? x_right_shift_offset : 
		-x_right_shift_offset;
	// do the shift
	while (num_offset-- > 0)
 100c7ac:	e0bffb03 	ldbu	r2,-20(fp)
 100c7b0:	10bfffc4 	addi	r2,r2,-1
 100c7b4:	e0bffb05 	stb	r2,-20(fp)
 100c7b8:	e0bffb03 	ldbu	r2,-20(fp)
 100c7bc:	10803fd8 	cmpnei	r2,r2,255
 100c7c0:	103ff71e 	bne	r2,zero,100c7a0 <alt_up_character_lcd_shift_display+0x78>
		alt_up_character_lcd_send_cmd(lcd, shift_cmd);
}
 100c7c4:	e037883a 	mov	sp,fp
 100c7c8:	dfc00117 	ldw	ra,4(sp)
 100c7cc:	df000017 	ldw	fp,0(sp)
 100c7d0:	dec00204 	addi	sp,sp,8
 100c7d4:	f800283a 	ret

0100c7d8 <alt_up_character_lcd_erase_pos>:

int alt_up_character_lcd_erase_pos(alt_up_character_lcd_dev *lcd, unsigned x_pos, unsigned y_pos)
{
 100c7d8:	defff904 	addi	sp,sp,-28
 100c7dc:	dfc00615 	stw	ra,24(sp)
 100c7e0:	df000515 	stw	fp,20(sp)
 100c7e4:	df000504 	addi	fp,sp,20
 100c7e8:	e13ffc15 	stw	r4,-16(fp)
 100c7ec:	e17ffd15 	stw	r5,-12(fp)
 100c7f0:	e1bffe15 	stw	r6,-8(fp)
	// boundary check
	if (x_pos > 39 || y_pos > 1 )
 100c7f4:	e0bffd17 	ldw	r2,-12(fp)
 100c7f8:	10800a28 	cmpgeui	r2,r2,40
 100c7fc:	1000031e 	bne	r2,zero,100c80c <alt_up_character_lcd_erase_pos+0x34>
 100c800:	e0bffe17 	ldw	r2,-8(fp)
 100c804:	108000b0 	cmpltui	r2,r2,2
 100c808:	1000031e 	bne	r2,zero,100c818 <alt_up_character_lcd_erase_pos+0x40>
		return -1;
 100c80c:	00bfffc4 	movi	r2,-1
 100c810:	e0bfff15 	stw	r2,-4(fp)
 100c814:	00000e06 	br	100c850 <alt_up_character_lcd_erase_pos+0x78>

	// get address
	unsigned char addr = get_DDRAM_addr(x_pos, y_pos);
 100c818:	e13ffd17 	ldw	r4,-12(fp)
 100c81c:	e17ffe17 	ldw	r5,-8(fp)
 100c820:	100c3a00 	call	100c3a0 <get_DDRAM_addr>
 100c824:	e0bffb05 	stb	r2,-20(fp)
	// set cursor to dest point
	alt_up_character_lcd_send_cmd(lcd, addr);
 100c828:	e17ffb03 	ldbu	r5,-20(fp)
 100c82c:	e13ffc17 	ldw	r4,-16(fp)
 100c830:	100c41c0 	call	100c41c <alt_up_character_lcd_send_cmd>
	//send an empty char as erase (refer to the Character Generator ROM part of the Datasheet)
	IOWR_ALT_UP_CHARACTER_LCD_DATA(lcd->base, (0x00000002) );
 100c834:	e0bffc17 	ldw	r2,-16(fp)
 100c838:	10800a17 	ldw	r2,40(r2)
 100c83c:	10800044 	addi	r2,r2,1
 100c840:	1007883a 	mov	r3,r2
 100c844:	00800084 	movi	r2,2
 100c848:	18800025 	stbio	r2,0(r3)
	return 0;
 100c84c:	e03fff15 	stw	zero,-4(fp)
 100c850:	e0bfff17 	ldw	r2,-4(fp)
}
 100c854:	e037883a 	mov	sp,fp
 100c858:	dfc00117 	ldw	ra,4(sp)
 100c85c:	df000017 	ldw	fp,0(sp)
 100c860:	dec00204 	addi	sp,sp,8
 100c864:	f800283a 	ret

0100c868 <alt_up_character_lcd_cursor_off>:

void alt_up_character_lcd_cursor_off(alt_up_character_lcd_dev *lcd)
{
 100c868:	defffd04 	addi	sp,sp,-12
 100c86c:	dfc00215 	stw	ra,8(sp)
 100c870:	df000115 	stw	fp,4(sp)
 100c874:	df000104 	addi	fp,sp,4
 100c878:	e13fff15 	stw	r4,-4(fp)
	alt_up_character_lcd_send_cmd(lcd, ALT_UP_CHARACTER_LCD_COMM_CURSOR_OFF);
 100c87c:	e13fff17 	ldw	r4,-4(fp)
 100c880:	01400304 	movi	r5,12
 100c884:	100c41c0 	call	100c41c <alt_up_character_lcd_send_cmd>
}
 100c888:	e037883a 	mov	sp,fp
 100c88c:	dfc00117 	ldw	ra,4(sp)
 100c890:	df000017 	ldw	fp,0(sp)
 100c894:	dec00204 	addi	sp,sp,8
 100c898:	f800283a 	ret

0100c89c <alt_up_character_lcd_cursor_blink_on>:

void alt_up_character_lcd_cursor_blink_on(alt_up_character_lcd_dev *lcd)
{
 100c89c:	defffd04 	addi	sp,sp,-12
 100c8a0:	dfc00215 	stw	ra,8(sp)
 100c8a4:	df000115 	stw	fp,4(sp)
 100c8a8:	df000104 	addi	fp,sp,4
 100c8ac:	e13fff15 	stw	r4,-4(fp)
	alt_up_character_lcd_send_cmd(lcd, ALT_UP_CHARACTER_LCD_COMM_CURSOR_BLINK_ON);
 100c8b0:	e13fff17 	ldw	r4,-4(fp)
 100c8b4:	014003c4 	movi	r5,15
 100c8b8:	100c41c0 	call	100c41c <alt_up_character_lcd_send_cmd>
}
 100c8bc:	e037883a 	mov	sp,fp
 100c8c0:	dfc00117 	ldw	ra,4(sp)
 100c8c4:	df000017 	ldw	fp,0(sp)
 100c8c8:	dec00204 	addi	sp,sp,8
 100c8cc:	f800283a 	ret

0100c8d0 <alt_alarm_start>:
 */ 

int alt_alarm_start (alt_alarm* alarm, alt_u32 nticks,
                     alt_u32 (*callback) (void* context),
                     void* context)
{
 100c8d0:	defff404 	addi	sp,sp,-48
 100c8d4:	df000b15 	stw	fp,44(sp)
 100c8d8:	df000b04 	addi	fp,sp,44
 100c8dc:	e13ffb15 	stw	r4,-20(fp)
 100c8e0:	e17ffc15 	stw	r5,-16(fp)
 100c8e4:	e1bffd15 	stw	r6,-12(fp)
 100c8e8:	e1fffe15 	stw	r7,-8(fp)
  alt_irq_context irq_context;
  alt_u32 current_nticks = 0;
 100c8ec:	e03ff915 	stw	zero,-28(fp)
 100c8f0:	00804074 	movhi	r2,257
 100c8f4:	1084dc04 	addi	r2,r2,4976
 100c8f8:	10800017 	ldw	r2,0(r2)
  
  if (alt_ticks_per_second ())
 100c8fc:	1005003a 	cmpeq	r2,r2,zero
 100c900:	1000411e 	bne	r2,zero,100ca08 <alt_alarm_start+0x138>
  {
    if (alarm)
 100c904:	e0bffb17 	ldw	r2,-20(fp)
 100c908:	1005003a 	cmpeq	r2,r2,zero
 100c90c:	10003b1e 	bne	r2,zero,100c9fc <alt_alarm_start+0x12c>
    {
      alarm->callback = callback;
 100c910:	e0fffb17 	ldw	r3,-20(fp)
 100c914:	e0bffd17 	ldw	r2,-12(fp)
 100c918:	18800315 	stw	r2,12(r3)
      alarm->context  = context;
 100c91c:	e0fffb17 	ldw	r3,-20(fp)
 100c920:	e0bffe17 	ldw	r2,-8(fp)
 100c924:	18800515 	stw	r2,20(r3)
static ALT_INLINE alt_irq_context ALT_ALWAYS_INLINE 
       alt_irq_disable_all (void)
{
  alt_irq_context context;

  NIOS2_READ_STATUS (context);
 100c928:	0005303a 	rdctl	r2,status
 100c92c:	e0bff815 	stw	r2,-32(fp)

  NIOS2_WRITE_STATUS (context & ~NIOS2_STATUS_PIE_MSK);
 100c930:	e0fff817 	ldw	r3,-32(fp)
 100c934:	00bfff84 	movi	r2,-2
 100c938:	1884703a 	and	r2,r3,r2
 100c93c:	1001703a 	wrctl	status,r2
  
  return context;
 100c940:	e0bff817 	ldw	r2,-32(fp)
 
      irq_context = alt_irq_disable_all ();
 100c944:	e0bffa15 	stw	r2,-24(fp)
 * alt_nticks() returns the elapsed number of system clock ticks since reset.
 */

static ALT_INLINE alt_u32 ALT_ALWAYS_INLINE alt_nticks (void)
{
  return _alt_nticks;
 100c948:	00804074 	movhi	r2,257
 100c94c:	1084dd04 	addi	r2,r2,4980
 100c950:	10800017 	ldw	r2,0(r2)
      
      current_nticks = alt_nticks();
 100c954:	e0bff915 	stw	r2,-28(fp)
      
      alarm->time = nticks + current_nticks + 1; 
 100c958:	e0fffc17 	ldw	r3,-16(fp)
 100c95c:	e0bff917 	ldw	r2,-28(fp)
 100c960:	1885883a 	add	r2,r3,r2
 100c964:	10c00044 	addi	r3,r2,1
 100c968:	e0bffb17 	ldw	r2,-20(fp)
 100c96c:	10c00215 	stw	r3,8(r2)
      /* 
       * If the desired alarm time causes a roll-over, set the rollover
       * flag. This will prevent the subsequent tick event from causing
       * an alarm too early.
       */
      if(alarm->time < current_nticks)
 100c970:	e0bffb17 	ldw	r2,-20(fp)
 100c974:	10c00217 	ldw	r3,8(r2)
 100c978:	e0bff917 	ldw	r2,-28(fp)
 100c97c:	1880042e 	bgeu	r3,r2,100c990 <alt_alarm_start+0xc0>
      {
        alarm->rollover = 1;
 100c980:	e0fffb17 	ldw	r3,-20(fp)
 100c984:	00800044 	movi	r2,1
 100c988:	18800405 	stb	r2,16(r3)
 100c98c:	00000206 	br	100c998 <alt_alarm_start+0xc8>
      }
      else
      {
        alarm->rollover = 0;
 100c990:	e0bffb17 	ldw	r2,-20(fp)
 100c994:	10000405 	stb	zero,16(r2)
      }
    
      alt_llist_insert (&alt_alarm_list, &alarm->llist);
 100c998:	e0fffb17 	ldw	r3,-20(fp)
 100c99c:	00804074 	movhi	r2,257
 100c9a0:	10be2904 	addi	r2,r2,-1884
 100c9a4:	e0bff615 	stw	r2,-40(fp)
 100c9a8:	e0fff715 	stw	r3,-36(fp)
 */

static ALT_INLINE void ALT_ALWAYS_INLINE alt_llist_insert(alt_llist* list, 
                alt_llist* entry)
{
  entry->previous = list;
 100c9ac:	e0fff717 	ldw	r3,-36(fp)
 100c9b0:	e0bff617 	ldw	r2,-40(fp)
 100c9b4:	18800115 	stw	r2,4(r3)
  entry->next     = list->next;
 100c9b8:	e0bff617 	ldw	r2,-40(fp)
 100c9bc:	10c00017 	ldw	r3,0(r2)
 100c9c0:	e0bff717 	ldw	r2,-36(fp)
 100c9c4:	10c00015 	stw	r3,0(r2)

  list->next->previous = entry;
 100c9c8:	e0bff617 	ldw	r2,-40(fp)
 100c9cc:	10c00017 	ldw	r3,0(r2)
 100c9d0:	e0bff717 	ldw	r2,-36(fp)
 100c9d4:	18800115 	stw	r2,4(r3)
  list->next           = entry;
 100c9d8:	e0fff617 	ldw	r3,-40(fp)
 100c9dc:	e0bff717 	ldw	r2,-36(fp)
 100c9e0:	18800015 	stw	r2,0(r3)
 100c9e4:	e0bffa17 	ldw	r2,-24(fp)
 100c9e8:	e0bff515 	stw	r2,-44(fp)
  status &= ~NIOS2_STATUS_PIE_MSK;
  status |= (context & NIOS2_STATUS_PIE_MSK);
  
  NIOS2_WRITE_STATUS (status);
#else
  NIOS2_WRITE_STATUS (context);
 100c9ec:	e0bff517 	ldw	r2,-44(fp)
 100c9f0:	1001703a 	wrctl	status,r2
      alt_irq_enable_all (irq_context);

      return 0;
 100c9f4:	e03fff15 	stw	zero,-4(fp)
 100c9f8:	00000506 	br	100ca10 <alt_alarm_start+0x140>
    }
    else
    {
      return -EINVAL;
 100c9fc:	00bffa84 	movi	r2,-22
 100ca00:	e0bfff15 	stw	r2,-4(fp)
 100ca04:	00000206 	br	100ca10 <alt_alarm_start+0x140>
    }
  }
  else
  {
    return -ENOTSUP;
 100ca08:	00bfde84 	movi	r2,-134
 100ca0c:	e0bfff15 	stw	r2,-4(fp)
 100ca10:	e0bfff17 	ldw	r2,-4(fp)
  }
}
 100ca14:	e037883a 	mov	sp,fp
 100ca18:	df000017 	ldw	fp,0(sp)
 100ca1c:	dec00104 	addi	sp,sp,4
 100ca20:	f800283a 	ret

0100ca24 <alt_dcache_flush_all>:
/*
 * alt_dcache_flush_all() is called to flush the entire data cache.
 */

void alt_dcache_flush_all (void)
{
 100ca24:	deffff04 	addi	sp,sp,-4
 100ca28:	df000015 	stw	fp,0(sp)
 100ca2c:	d839883a 	mov	fp,sp
  for (i = (char*) 0; i < (char*) NIOS2_DCACHE_SIZE; i+= NIOS2_DCACHE_LINE_SIZE)
  { 
    __asm__ volatile ("flushd (%0)" :: "r" (i));
  }
#endif /* NIOS2_DCACHE_SIZE > 0 */
}
 100ca30:	e037883a 	mov	sp,fp
 100ca34:	df000017 	ldw	fp,0(sp)
 100ca38:	dec00104 	addi	sp,sp,4
 100ca3c:	f800283a 	ret

0100ca40 <alt_dev_llist_insert>:
/*
 *
 */

int alt_dev_llist_insert (alt_dev_llist* dev, alt_llist* list)
{
 100ca40:	defff904 	addi	sp,sp,-28
 100ca44:	dfc00615 	stw	ra,24(sp)
 100ca48:	df000515 	stw	fp,20(sp)
 100ca4c:	df000504 	addi	fp,sp,20
 100ca50:	e13ffd15 	stw	r4,-12(fp)
 100ca54:	e17ffe15 	stw	r5,-8(fp)
  /*
   * check that the device exists, and that it has a valid name.
   */

  if (!dev || !dev->name)
 100ca58:	e0bffd17 	ldw	r2,-12(fp)
 100ca5c:	1005003a 	cmpeq	r2,r2,zero
 100ca60:	1000041e 	bne	r2,zero,100ca74 <alt_dev_llist_insert+0x34>
 100ca64:	e0bffd17 	ldw	r2,-12(fp)
 100ca68:	10800217 	ldw	r2,8(r2)
 100ca6c:	1004c03a 	cmpne	r2,r2,zero
 100ca70:	1000071e 	bne	r2,zero,100ca90 <alt_dev_llist_insert+0x50>
  {
    ALT_ERRNO = EINVAL;
 100ca74:	100caf40 	call	100caf4 <alt_get_errno>
 100ca78:	1007883a 	mov	r3,r2
 100ca7c:	00800584 	movi	r2,22
 100ca80:	18800015 	stw	r2,0(r3)
    return -EINVAL;
 100ca84:	00bffa84 	movi	r2,-22
 100ca88:	e0bfff15 	stw	r2,-4(fp)
 100ca8c:	00001306 	br	100cadc <alt_dev_llist_insert+0x9c>
  
  /*
   * register the device.
   */
  
  alt_llist_insert(list, &dev->llist);
 100ca90:	e0fffd17 	ldw	r3,-12(fp)
 100ca94:	e0bffe17 	ldw	r2,-8(fp)
 100ca98:	e0bffb15 	stw	r2,-20(fp)
 100ca9c:	e0fffc15 	stw	r3,-16(fp)
 */

static ALT_INLINE void ALT_ALWAYS_INLINE alt_llist_insert(alt_llist* list, 
                alt_llist* entry)
{
  entry->previous = list;
 100caa0:	e0fffc17 	ldw	r3,-16(fp)
 100caa4:	e0bffb17 	ldw	r2,-20(fp)
 100caa8:	18800115 	stw	r2,4(r3)
  entry->next     = list->next;
 100caac:	e0bffb17 	ldw	r2,-20(fp)
 100cab0:	10c00017 	ldw	r3,0(r2)
 100cab4:	e0bffc17 	ldw	r2,-16(fp)
 100cab8:	10c00015 	stw	r3,0(r2)

  list->next->previous = entry;
 100cabc:	e0bffb17 	ldw	r2,-20(fp)
 100cac0:	10c00017 	ldw	r3,0(r2)
 100cac4:	e0bffc17 	ldw	r2,-16(fp)
 100cac8:	18800115 	stw	r2,4(r3)
  list->next           = entry;
 100cacc:	e0fffb17 	ldw	r3,-20(fp)
 100cad0:	e0bffc17 	ldw	r2,-16(fp)
 100cad4:	18800015 	stw	r2,0(r3)

  return 0;  
 100cad8:	e03fff15 	stw	zero,-4(fp)
 100cadc:	e0bfff17 	ldw	r2,-4(fp)
}
 100cae0:	e037883a 	mov	sp,fp
 100cae4:	dfc00117 	ldw	ra,4(sp)
 100cae8:	df000017 	ldw	fp,0(sp)
 100caec:	dec00204 	addi	sp,sp,8
 100caf0:	f800283a 	ret

0100caf4 <alt_get_errno>:
#undef errno

extern int errno;

static ALT_INLINE int* alt_get_errno(void)
{
 100caf4:	defffd04 	addi	sp,sp,-12
 100caf8:	dfc00215 	stw	ra,8(sp)
 100cafc:	df000115 	stw	fp,4(sp)
 100cb00:	df000104 	addi	fp,sp,4
  return ((alt_errno) ? alt_errno() : &errno);
 100cb04:	00804074 	movhi	r2,257
 100cb08:	10be2704 	addi	r2,r2,-1892
 100cb0c:	10800017 	ldw	r2,0(r2)
 100cb10:	1005003a 	cmpeq	r2,r2,zero
 100cb14:	1000061e 	bne	r2,zero,100cb30 <alt_get_errno+0x3c>
 100cb18:	00804074 	movhi	r2,257
 100cb1c:	10be2704 	addi	r2,r2,-1892
 100cb20:	10800017 	ldw	r2,0(r2)
 100cb24:	103ee83a 	callr	r2
 100cb28:	e0bfff15 	stw	r2,-4(fp)
 100cb2c:	00000306 	br	100cb3c <alt_get_errno+0x48>
 100cb30:	00804074 	movhi	r2,257
 100cb34:	1084ce04 	addi	r2,r2,4920
 100cb38:	e0bfff15 	stw	r2,-4(fp)
 100cb3c:	e0bfff17 	ldw	r2,-4(fp)
}
 100cb40:	e037883a 	mov	sp,fp
 100cb44:	dfc00117 	ldw	ra,4(sp)
 100cb48:	df000017 	ldw	fp,0(sp)
 100cb4c:	dec00204 	addi	sp,sp,8
 100cb50:	f800283a 	ret

0100cb54 <_do_ctors>:
/*
 * Run the C++ static constructors.
 */

void _do_ctors(void)
{
 100cb54:	defffd04 	addi	sp,sp,-12
 100cb58:	dfc00215 	stw	ra,8(sp)
 100cb5c:	df000115 	stw	fp,4(sp)
 100cb60:	df000104 	addi	fp,sp,4
  constructor* ctor;

  for (ctor = &__CTOR_END__[-1]; ctor >= __CTOR_LIST__; ctor--)
 100cb64:	00bfff04 	movi	r2,-4
 100cb68:	00c04074 	movhi	r3,257
 100cb6c:	18f6a304 	addi	r3,r3,-9588
 100cb70:	1885883a 	add	r2,r3,r2
 100cb74:	e0bfff15 	stw	r2,-4(fp)
 100cb78:	00000606 	br	100cb94 <_do_ctors+0x40>
        (*ctor) (); 
 100cb7c:	e0bfff17 	ldw	r2,-4(fp)
 100cb80:	10800017 	ldw	r2,0(r2)
 100cb84:	103ee83a 	callr	r2

void _do_ctors(void)
{
  constructor* ctor;

  for (ctor = &__CTOR_END__[-1]; ctor >= __CTOR_LIST__; ctor--)
 100cb88:	e0bfff17 	ldw	r2,-4(fp)
 100cb8c:	10bfff04 	addi	r2,r2,-4
 100cb90:	e0bfff15 	stw	r2,-4(fp)
 100cb94:	e0ffff17 	ldw	r3,-4(fp)
 100cb98:	00804074 	movhi	r2,257
 100cb9c:	10b6a204 	addi	r2,r2,-9592
 100cba0:	18bff62e 	bgeu	r3,r2,100cb7c <_do_ctors+0x28>
        (*ctor) (); 
}
 100cba4:	e037883a 	mov	sp,fp
 100cba8:	dfc00117 	ldw	ra,4(sp)
 100cbac:	df000017 	ldw	fp,0(sp)
 100cbb0:	dec00204 	addi	sp,sp,8
 100cbb4:	f800283a 	ret

0100cbb8 <_do_dtors>:
/*
 * Run the C++ static destructors.
 */

void _do_dtors(void)
{
 100cbb8:	defffd04 	addi	sp,sp,-12
 100cbbc:	dfc00215 	stw	ra,8(sp)
 100cbc0:	df000115 	stw	fp,4(sp)
 100cbc4:	df000104 	addi	fp,sp,4
  destructor* dtor;

  for (dtor = &__DTOR_END__[-1]; dtor >= __DTOR_LIST__; dtor--)
 100cbc8:	00bfff04 	movi	r2,-4
 100cbcc:	00c04074 	movhi	r3,257
 100cbd0:	18f6a304 	addi	r3,r3,-9588
 100cbd4:	1885883a 	add	r2,r3,r2
 100cbd8:	e0bfff15 	stw	r2,-4(fp)
 100cbdc:	00000606 	br	100cbf8 <_do_dtors+0x40>
        (*dtor) (); 
 100cbe0:	e0bfff17 	ldw	r2,-4(fp)
 100cbe4:	10800017 	ldw	r2,0(r2)
 100cbe8:	103ee83a 	callr	r2

void _do_dtors(void)
{
  destructor* dtor;

  for (dtor = &__DTOR_END__[-1]; dtor >= __DTOR_LIST__; dtor--)
 100cbec:	e0bfff17 	ldw	r2,-4(fp)
 100cbf0:	10bfff04 	addi	r2,r2,-4
 100cbf4:	e0bfff15 	stw	r2,-4(fp)
 100cbf8:	e0ffff17 	ldw	r3,-4(fp)
 100cbfc:	00804074 	movhi	r2,257
 100cc00:	10b6a304 	addi	r2,r2,-9588
 100cc04:	18bff62e 	bgeu	r3,r2,100cbe0 <_do_dtors+0x28>
        (*dtor) (); 
}
 100cc08:	e037883a 	mov	sp,fp
 100cc0c:	dfc00117 	ldw	ra,4(sp)
 100cc10:	df000017 	ldw	fp,0(sp)
 100cc14:	dec00204 	addi	sp,sp,8
 100cc18:	f800283a 	ret

0100cc1c <alt_find_dev>:
 * "name" must be an exact match for the devices registered name for a match to
 * be found.
 */
 
alt_dev* alt_find_dev(const char* name, alt_llist* llist)
{
 100cc1c:	defff904 	addi	sp,sp,-28
 100cc20:	dfc00615 	stw	ra,24(sp)
 100cc24:	df000515 	stw	fp,20(sp)
 100cc28:	df000504 	addi	fp,sp,20
 100cc2c:	e13ffd15 	stw	r4,-12(fp)
 100cc30:	e17ffe15 	stw	r5,-8(fp)
  alt_dev* next = (alt_dev*) llist->next;
 100cc34:	e0bffe17 	ldw	r2,-8(fp)
 100cc38:	10800017 	ldw	r2,0(r2)
 100cc3c:	e0bffc15 	stw	r2,-16(fp)
  alt_32 len;

  len  = strlen(name) + 1;
 100cc40:	e13ffd17 	ldw	r4,-12(fp)
 100cc44:	100804c0 	call	100804c <strlen>
 100cc48:	10800044 	addi	r2,r2,1
 100cc4c:	e0bffb15 	stw	r2,-20(fp)
  /*
   * Check each list entry in turn, until a match is found, or we reach the
   * end of the list (i.e. next winds up pointing back to the list head).
   */ 

  while (next != (alt_dev*) llist)
 100cc50:	00000d06 	br	100cc88 <alt_find_dev+0x6c>
    /* 
     * memcmp() is used here rather than strcmp() in order to reduce the size
     * of the executable.
     */

    if (!memcmp (next->name, name, len))
 100cc54:	e0bffc17 	ldw	r2,-16(fp)
 100cc58:	11000217 	ldw	r4,8(r2)
 100cc5c:	e1bffb17 	ldw	r6,-20(fp)
 100cc60:	e17ffd17 	ldw	r5,-12(fp)
 100cc64:	100d6cc0 	call	100d6cc <memcmp>
 100cc68:	1004c03a 	cmpne	r2,r2,zero
 100cc6c:	1000031e 	bne	r2,zero,100cc7c <alt_find_dev+0x60>
    {
      /* match found */

      return next;
 100cc70:	e0bffc17 	ldw	r2,-16(fp)
 100cc74:	e0bfff15 	stw	r2,-4(fp)
 100cc78:	00000706 	br	100cc98 <alt_find_dev+0x7c>
    }
    next = (alt_dev*) next->llist.next;
 100cc7c:	e0bffc17 	ldw	r2,-16(fp)
 100cc80:	10800017 	ldw	r2,0(r2)
 100cc84:	e0bffc15 	stw	r2,-16(fp)
  /*
   * Check each list entry in turn, until a match is found, or we reach the
   * end of the list (i.e. next winds up pointing back to the list head).
   */ 

  while (next != (alt_dev*) llist)
 100cc88:	e0fffe17 	ldw	r3,-8(fp)
 100cc8c:	e0bffc17 	ldw	r2,-16(fp)
 100cc90:	10fff01e 	bne	r2,r3,100cc54 <alt_find_dev+0x38>
    next = (alt_dev*) next->llist.next;
  }
  
  /* No match found */
  
  return NULL;
 100cc94:	e03fff15 	stw	zero,-4(fp)
 100cc98:	e0bfff17 	ldw	r2,-4(fp)
}
 100cc9c:	e037883a 	mov	sp,fp
 100cca0:	dfc00117 	ldw	ra,4(sp)
 100cca4:	df000017 	ldw	fp,0(sp)
 100cca8:	dec00204 	addi	sp,sp,8
 100ccac:	f800283a 	ret

0100ccb0 <alt_icache_flush_all>:
/*
 * alt_icache_flush_all() is called to flush the entire instruction cache.
 */

void alt_icache_flush_all (void)
{
 100ccb0:	defffe04 	addi	sp,sp,-8
 100ccb4:	dfc00115 	stw	ra,4(sp)
 100ccb8:	df000015 	stw	fp,0(sp)
 100ccbc:	d839883a 	mov	fp,sp
#if NIOS2_ICACHE_SIZE > 0
  alt_icache_flush (0, NIOS2_ICACHE_SIZE);
 100ccc0:	0009883a 	mov	r4,zero
 100ccc4:	01440004 	movi	r5,4096
 100ccc8:	100d5f00 	call	100d5f0 <alt_icache_flush>
#endif
}
 100cccc:	e037883a 	mov	sp,fp
 100ccd0:	dfc00117 	ldw	ra,4(sp)
 100ccd4:	df000017 	ldw	fp,0(sp)
 100ccd8:	dec00204 	addi	sp,sp,8
 100ccdc:	f800283a 	ret

0100cce0 <alt_ic_isr_register>:
  * @param irq              IRQ number
  * @return                 0 if successful, else error (-1)
  */
int alt_ic_isr_register(alt_u32 ic_id, alt_u32 irq, alt_isr_func isr, 
  void *isr_context, void *flags)
{
 100cce0:	defff904 	addi	sp,sp,-28
 100cce4:	dfc00615 	stw	ra,24(sp)
 100cce8:	df000515 	stw	fp,20(sp)
 100ccec:	df000504 	addi	fp,sp,20
 100ccf0:	e13ffc15 	stw	r4,-16(fp)
 100ccf4:	e17ffd15 	stw	r5,-12(fp)
 100ccf8:	e1bffe15 	stw	r6,-8(fp)
 100ccfc:	e1ffff15 	stw	r7,-4(fp)
    return alt_iic_isr_register(ic_id, irq, isr, isr_context, flags);
 100cd00:	e0800217 	ldw	r2,8(fp)
 100cd04:	d8800015 	stw	r2,0(sp)
 100cd08:	e13ffc17 	ldw	r4,-16(fp)
 100cd0c:	e17ffd17 	ldw	r5,-12(fp)
 100cd10:	e1bffe17 	ldw	r6,-8(fp)
 100cd14:	e1ffff17 	ldw	r7,-4(fp)
 100cd18:	100ceb40 	call	100ceb4 <alt_iic_isr_register>
}  
 100cd1c:	e037883a 	mov	sp,fp
 100cd20:	dfc00117 	ldw	ra,4(sp)
 100cd24:	df000017 	ldw	fp,0(sp)
 100cd28:	dec00204 	addi	sp,sp,8
 100cd2c:	f800283a 	ret

0100cd30 <alt_ic_irq_enable>:
  * @param ic_id            Ignored.
  * @param irq              IRQ number
  * @return                 0 if successful, else error (-1)
  */
int alt_ic_irq_enable (alt_u32 ic_id, alt_u32 irq)
{
 100cd30:	defff904 	addi	sp,sp,-28
 100cd34:	df000615 	stw	fp,24(sp)
 100cd38:	df000604 	addi	fp,sp,24
 100cd3c:	e13ffe15 	stw	r4,-8(fp)
 100cd40:	e17fff15 	stw	r5,-4(fp)
 100cd44:	e0bfff17 	ldw	r2,-4(fp)
 100cd48:	e0bffc15 	stw	r2,-16(fp)
static ALT_INLINE alt_irq_context ALT_ALWAYS_INLINE 
       alt_irq_disable_all (void)
{
  alt_irq_context context;

  NIOS2_READ_STATUS (context);
 100cd4c:	0005303a 	rdctl	r2,status
 100cd50:	e0bffb15 	stw	r2,-20(fp)

  NIOS2_WRITE_STATUS (context & ~NIOS2_STATUS_PIE_MSK);
 100cd54:	e0fffb17 	ldw	r3,-20(fp)
 100cd58:	00bfff84 	movi	r2,-2
 100cd5c:	1884703a 	and	r2,r3,r2
 100cd60:	1001703a 	wrctl	status,r2
  
  return context;
 100cd64:	e0bffb17 	ldw	r2,-20(fp)
static ALT_INLINE int ALT_ALWAYS_INLINE alt_irq_enable (alt_u32 id)
{
  alt_irq_context  status;
  extern volatile alt_u32 alt_irq_active;

  status = alt_irq_disable_all ();
 100cd68:	e0bffd15 	stw	r2,-12(fp)

  alt_irq_active |= (1 << id);
 100cd6c:	e0fffc17 	ldw	r3,-16(fp)
 100cd70:	00800044 	movi	r2,1
 100cd74:	10c4983a 	sll	r2,r2,r3
 100cd78:	1007883a 	mov	r3,r2
 100cd7c:	00804074 	movhi	r2,257
 100cd80:	1084e004 	addi	r2,r2,4992
 100cd84:	10800017 	ldw	r2,0(r2)
 100cd88:	1886b03a 	or	r3,r3,r2
 100cd8c:	00804074 	movhi	r2,257
 100cd90:	1084e004 	addi	r2,r2,4992
 100cd94:	10c00015 	stw	r3,0(r2)
  NIOS2_WRITE_IENABLE (alt_irq_active);
 100cd98:	00804074 	movhi	r2,257
 100cd9c:	1084e004 	addi	r2,r2,4992
 100cda0:	10800017 	ldw	r2,0(r2)
 100cda4:	100170fa 	wrctl	ienable,r2
 100cda8:	e0bffd17 	ldw	r2,-12(fp)
 100cdac:	e0bffa15 	stw	r2,-24(fp)
  status &= ~NIOS2_STATUS_PIE_MSK;
  status |= (context & NIOS2_STATUS_PIE_MSK);
  
  NIOS2_WRITE_STATUS (status);
#else
  NIOS2_WRITE_STATUS (context);
 100cdb0:	e0bffa17 	ldw	r2,-24(fp)
 100cdb4:	1001703a 	wrctl	status,r2

  alt_irq_enable_all(status);

  return 0;
 100cdb8:	0005883a 	mov	r2,zero
    return alt_irq_enable(irq);
}
 100cdbc:	e037883a 	mov	sp,fp
 100cdc0:	df000017 	ldw	fp,0(sp)
 100cdc4:	dec00104 	addi	sp,sp,4
 100cdc8:	f800283a 	ret

0100cdcc <alt_ic_irq_disable>:
  * @param ic_id            Ignored.
  * @param irq              IRQ number
  * @return                 0 if successful, else error (-1)
  */
int alt_ic_irq_disable(alt_u32 ic_id, alt_u32 irq)
{
 100cdcc:	defff904 	addi	sp,sp,-28
 100cdd0:	df000615 	stw	fp,24(sp)
 100cdd4:	df000604 	addi	fp,sp,24
 100cdd8:	e13ffe15 	stw	r4,-8(fp)
 100cddc:	e17fff15 	stw	r5,-4(fp)
 100cde0:	e0bfff17 	ldw	r2,-4(fp)
 100cde4:	e0bffc15 	stw	r2,-16(fp)
static ALT_INLINE alt_irq_context ALT_ALWAYS_INLINE 
       alt_irq_disable_all (void)
{
  alt_irq_context context;

  NIOS2_READ_STATUS (context);
 100cde8:	0005303a 	rdctl	r2,status
 100cdec:	e0bffb15 	stw	r2,-20(fp)

  NIOS2_WRITE_STATUS (context & ~NIOS2_STATUS_PIE_MSK);
 100cdf0:	e0fffb17 	ldw	r3,-20(fp)
 100cdf4:	00bfff84 	movi	r2,-2
 100cdf8:	1884703a 	and	r2,r3,r2
 100cdfc:	1001703a 	wrctl	status,r2
  
  return context;
 100ce00:	e0bffb17 	ldw	r2,-20(fp)
static ALT_INLINE int ALT_ALWAYS_INLINE alt_irq_disable (alt_u32 id)
{
  alt_irq_context  status;
  extern volatile alt_u32 alt_irq_active;

  status = alt_irq_disable_all ();
 100ce04:	e0bffd15 	stw	r2,-12(fp)

  alt_irq_active &= ~(1 << id);
 100ce08:	e0fffc17 	ldw	r3,-16(fp)
 100ce0c:	00800044 	movi	r2,1
 100ce10:	10c4983a 	sll	r2,r2,r3
 100ce14:	0084303a 	nor	r2,zero,r2
 100ce18:	1007883a 	mov	r3,r2
 100ce1c:	00804074 	movhi	r2,257
 100ce20:	1084e004 	addi	r2,r2,4992
 100ce24:	10800017 	ldw	r2,0(r2)
 100ce28:	1886703a 	and	r3,r3,r2
 100ce2c:	00804074 	movhi	r2,257
 100ce30:	1084e004 	addi	r2,r2,4992
 100ce34:	10c00015 	stw	r3,0(r2)
  NIOS2_WRITE_IENABLE (alt_irq_active);
 100ce38:	00804074 	movhi	r2,257
 100ce3c:	1084e004 	addi	r2,r2,4992
 100ce40:	10800017 	ldw	r2,0(r2)
 100ce44:	100170fa 	wrctl	ienable,r2
 100ce48:	e0bffd17 	ldw	r2,-12(fp)
 100ce4c:	e0bffa15 	stw	r2,-24(fp)
  status &= ~NIOS2_STATUS_PIE_MSK;
  status |= (context & NIOS2_STATUS_PIE_MSK);
  
  NIOS2_WRITE_STATUS (status);
#else
  NIOS2_WRITE_STATUS (context);
 100ce50:	e0bffa17 	ldw	r2,-24(fp)
 100ce54:	1001703a 	wrctl	status,r2

  alt_irq_enable_all(status);

  return 0;
 100ce58:	0005883a 	mov	r2,zero
    return alt_irq_disable(irq);
}
 100ce5c:	e037883a 	mov	sp,fp
 100ce60:	df000017 	ldw	fp,0(sp)
 100ce64:	dec00104 	addi	sp,sp,4
 100ce68:	f800283a 	ret

0100ce6c <alt_ic_irq_enabled>:
  * @param irq              IRQ number
  * @return                 Zero if corresponding interrupt is disabled and
  *                         non-zero otherwise.
  */
alt_u32 alt_ic_irq_enabled(alt_u32 ic_id, alt_u32 irq)
{
 100ce6c:	defffc04 	addi	sp,sp,-16
 100ce70:	df000315 	stw	fp,12(sp)
 100ce74:	df000304 	addi	fp,sp,12
 100ce78:	e13ffe15 	stw	r4,-8(fp)
 100ce7c:	e17fff15 	stw	r5,-4(fp)
    alt_u32 irq_enabled;

    NIOS2_READ_IENABLE(irq_enabled);
 100ce80:	000530fa 	rdctl	r2,ienable
 100ce84:	e0bffd15 	stw	r2,-12(fp)

    return (irq_enabled & (1 << irq)) ? 1: 0;
 100ce88:	e0ffff17 	ldw	r3,-4(fp)
 100ce8c:	00800044 	movi	r2,1
 100ce90:	10c4983a 	sll	r2,r2,r3
 100ce94:	1007883a 	mov	r3,r2
 100ce98:	e0bffd17 	ldw	r2,-12(fp)
 100ce9c:	1884703a 	and	r2,r3,r2
 100cea0:	1004c03a 	cmpne	r2,r2,zero
}
 100cea4:	e037883a 	mov	sp,fp
 100cea8:	df000017 	ldw	fp,0(sp)
 100ceac:	dec00104 	addi	sp,sp,4
 100ceb0:	f800283a 	ret

0100ceb4 <alt_iic_isr_register>:
  * @param flags            
  * @return                 0 if successful, else error (-1)
  */
int alt_iic_isr_register(alt_u32 ic_id, alt_u32 irq, alt_isr_func isr, 
  void *isr_context, void *flags)
{
 100ceb4:	defff404 	addi	sp,sp,-48
 100ceb8:	dfc00b15 	stw	ra,44(sp)
 100cebc:	df000a15 	stw	fp,40(sp)
 100cec0:	df000a04 	addi	fp,sp,40
 100cec4:	e13ffb15 	stw	r4,-20(fp)
 100cec8:	e17ffc15 	stw	r5,-16(fp)
 100cecc:	e1bffd15 	stw	r6,-12(fp)
 100ced0:	e1fffe15 	stw	r7,-8(fp)
  int rc = -EINVAL;  
 100ced4:	00bffa84 	movi	r2,-22
 100ced8:	e0bffa15 	stw	r2,-24(fp)
  int id = irq;             /* IRQ interpreted as the interrupt ID. */
 100cedc:	e0bffc17 	ldw	r2,-16(fp)
 100cee0:	e0bff915 	stw	r2,-28(fp)
  alt_irq_context status;

  if (id < ALT_NIRQ)
 100cee4:	e0bff917 	ldw	r2,-28(fp)
 100cee8:	10800808 	cmpgei	r2,r2,32
 100ceec:	1000291e 	bne	r2,zero,100cf94 <alt_iic_isr_register+0xe0>
static ALT_INLINE alt_irq_context ALT_ALWAYS_INLINE 
       alt_irq_disable_all (void)
{
  alt_irq_context context;

  NIOS2_READ_STATUS (context);
 100cef0:	0005303a 	rdctl	r2,status
 100cef4:	e0bff715 	stw	r2,-36(fp)

  NIOS2_WRITE_STATUS (context & ~NIOS2_STATUS_PIE_MSK);
 100cef8:	e0fff717 	ldw	r3,-36(fp)
 100cefc:	00bfff84 	movi	r2,-2
 100cf00:	1884703a 	and	r2,r3,r2
 100cf04:	1001703a 	wrctl	status,r2
  
  return context;
 100cf08:	e0bff717 	ldw	r2,-36(fp)
     * interrupts are disabled while the handler tables are updated to ensure
     * that an interrupt doesn't occur while the tables are in an inconsistant
     * state.
     */

    status = alt_irq_disable_all();
 100cf0c:	e0bff815 	stw	r2,-32(fp)

    alt_irq[id].handler = isr;
 100cf10:	e0bff917 	ldw	r2,-28(fp)
 100cf14:	00c04074 	movhi	r3,257
 100cf18:	18c4eb04 	addi	r3,r3,5036
 100cf1c:	100490fa 	slli	r2,r2,3
 100cf20:	10c7883a 	add	r3,r2,r3
 100cf24:	e0bffd17 	ldw	r2,-12(fp)
 100cf28:	18800015 	stw	r2,0(r3)
    alt_irq[id].context = isr_context;
 100cf2c:	e0bff917 	ldw	r2,-28(fp)
 100cf30:	00c04074 	movhi	r3,257
 100cf34:	18c4eb04 	addi	r3,r3,5036
 100cf38:	100490fa 	slli	r2,r2,3
 100cf3c:	10c5883a 	add	r2,r2,r3
 100cf40:	10c00104 	addi	r3,r2,4
 100cf44:	e0bffe17 	ldw	r2,-8(fp)
 100cf48:	18800015 	stw	r2,0(r3)

    rc = (isr) ? alt_ic_irq_enable(ic_id, id) : alt_ic_irq_disable(ic_id, id);
 100cf4c:	e0bffd17 	ldw	r2,-12(fp)
 100cf50:	1005003a 	cmpeq	r2,r2,zero
 100cf54:	1000051e 	bne	r2,zero,100cf6c <alt_iic_isr_register+0xb8>
 100cf58:	e17ff917 	ldw	r5,-28(fp)
 100cf5c:	e13ffb17 	ldw	r4,-20(fp)
 100cf60:	100cd300 	call	100cd30 <alt_ic_irq_enable>
 100cf64:	e0bfff15 	stw	r2,-4(fp)
 100cf68:	00000406 	br	100cf7c <alt_iic_isr_register+0xc8>
 100cf6c:	e17ff917 	ldw	r5,-28(fp)
 100cf70:	e13ffb17 	ldw	r4,-20(fp)
 100cf74:	100cdcc0 	call	100cdcc <alt_ic_irq_disable>
 100cf78:	e0bfff15 	stw	r2,-4(fp)
 100cf7c:	e0bfff17 	ldw	r2,-4(fp)
 100cf80:	e0bffa15 	stw	r2,-24(fp)
 100cf84:	e0bff817 	ldw	r2,-32(fp)
 100cf88:	e0bff615 	stw	r2,-40(fp)
  status &= ~NIOS2_STATUS_PIE_MSK;
  status |= (context & NIOS2_STATUS_PIE_MSK);
  
  NIOS2_WRITE_STATUS (status);
#else
  NIOS2_WRITE_STATUS (context);
 100cf8c:	e0bff617 	ldw	r2,-40(fp)
 100cf90:	1001703a 	wrctl	status,r2

    alt_irq_enable_all(status);
  }

  return rc; 
 100cf94:	e0bffa17 	ldw	r2,-24(fp)
}
 100cf98:	e037883a 	mov	sp,fp
 100cf9c:	dfc00117 	ldw	ra,4(sp)
 100cfa0:	df000017 	ldw	fp,0(sp)
 100cfa4:	dec00204 	addi	sp,sp,8
 100cfa8:	f800283a 	ret

0100cfac <alt_open_fd>:
 * If the device can not be succesfully opened, then the input file descriptor
 * remains unchanged.
 */

static void alt_open_fd(alt_fd* fd, const char* name, int flags, int mode)
{
 100cfac:	defff804 	addi	sp,sp,-32
 100cfb0:	dfc00715 	stw	ra,28(sp)
 100cfb4:	df000615 	stw	fp,24(sp)
 100cfb8:	dc000515 	stw	r16,20(sp)
 100cfbc:	df000504 	addi	fp,sp,20
 100cfc0:	e13ffc15 	stw	r4,-16(fp)
 100cfc4:	e17ffd15 	stw	r5,-12(fp)
 100cfc8:	e1bffe15 	stw	r6,-8(fp)
 100cfcc:	e1ffff15 	stw	r7,-4(fp)
  int old;

  old = open (name, flags, mode);
 100cfd0:	e13ffd17 	ldw	r4,-12(fp)
 100cfd4:	e17ffe17 	ldw	r5,-8(fp)
 100cfd8:	e1bfff17 	ldw	r6,-4(fp)
 100cfdc:	100d1f40 	call	100d1f4 <open>
 100cfe0:	e0bffb15 	stw	r2,-20(fp)

  if (old >= 0)
 100cfe4:	e0bffb17 	ldw	r2,-20(fp)
 100cfe8:	1004803a 	cmplt	r2,r2,zero
 100cfec:	10001f1e 	bne	r2,zero,100d06c <alt_open_fd+0xc0>
  {
    fd->dev      = alt_fd_list[old].dev;
 100cff0:	e13ffb17 	ldw	r4,-20(fp)
 100cff4:	04004074 	movhi	r16,257
 100cff8:	84399904 	addi	r16,r16,-6556
 100cffc:	01400304 	movi	r5,12
 100d000:	1000a8c0 	call	1000a8c <__mulsi3>
 100d004:	1405883a 	add	r2,r2,r16
 100d008:	10c00017 	ldw	r3,0(r2)
 100d00c:	e0bffc17 	ldw	r2,-16(fp)
 100d010:	10c00015 	stw	r3,0(r2)
    fd->priv     = alt_fd_list[old].priv;
 100d014:	e13ffb17 	ldw	r4,-20(fp)
 100d018:	04004074 	movhi	r16,257
 100d01c:	84399904 	addi	r16,r16,-6556
 100d020:	01400304 	movi	r5,12
 100d024:	1000a8c0 	call	1000a8c <__mulsi3>
 100d028:	1405883a 	add	r2,r2,r16
 100d02c:	10800104 	addi	r2,r2,4
 100d030:	10c00017 	ldw	r3,0(r2)
 100d034:	e0bffc17 	ldw	r2,-16(fp)
 100d038:	10c00115 	stw	r3,4(r2)
    fd->fd_flags = alt_fd_list[old].fd_flags;
 100d03c:	e13ffb17 	ldw	r4,-20(fp)
 100d040:	04004074 	movhi	r16,257
 100d044:	84399904 	addi	r16,r16,-6556
 100d048:	01400304 	movi	r5,12
 100d04c:	1000a8c0 	call	1000a8c <__mulsi3>
 100d050:	1405883a 	add	r2,r2,r16
 100d054:	10800204 	addi	r2,r2,8
 100d058:	10c00017 	ldw	r3,0(r2)
 100d05c:	e0bffc17 	ldw	r2,-16(fp)
 100d060:	10c00215 	stw	r3,8(r2)

    alt_release_fd (old);
 100d064:	e13ffb17 	ldw	r4,-20(fp)
 100d068:	100b2440 	call	100b244 <alt_release_fd>
  }
} 
 100d06c:	e037883a 	mov	sp,fp
 100d070:	dfc00217 	ldw	ra,8(sp)
 100d074:	df000117 	ldw	fp,4(sp)
 100d078:	dc000017 	ldw	r16,0(sp)
 100d07c:	dec00304 	addi	sp,sp,12
 100d080:	f800283a 	ret

0100d084 <alt_io_redirect>:
 */
 
void alt_io_redirect(const char* stdout_dev, 
                     const char* stdin_dev, 
                     const char* stderr_dev)
{
 100d084:	defffb04 	addi	sp,sp,-20
 100d088:	dfc00415 	stw	ra,16(sp)
 100d08c:	df000315 	stw	fp,12(sp)
 100d090:	df000304 	addi	fp,sp,12
 100d094:	e13ffd15 	stw	r4,-12(fp)
 100d098:	e17ffe15 	stw	r5,-8(fp)
 100d09c:	e1bfff15 	stw	r6,-4(fp)
  /* Redirect the channels */

  alt_open_fd (&alt_fd_list[STDOUT_FILENO], stdout_dev, O_WRONLY, 0777);
 100d0a0:	01004074 	movhi	r4,257
 100d0a4:	21399c04 	addi	r4,r4,-6544
 100d0a8:	e17ffd17 	ldw	r5,-12(fp)
 100d0ac:	01800044 	movi	r6,1
 100d0b0:	01c07fc4 	movi	r7,511
 100d0b4:	100cfac0 	call	100cfac <alt_open_fd>
  alt_open_fd (&alt_fd_list[STDIN_FILENO], stdin_dev, O_RDONLY, 0777);
 100d0b8:	01004074 	movhi	r4,257
 100d0bc:	21399904 	addi	r4,r4,-6556
 100d0c0:	e17ffe17 	ldw	r5,-8(fp)
 100d0c4:	000d883a 	mov	r6,zero
 100d0c8:	01c07fc4 	movi	r7,511
 100d0cc:	100cfac0 	call	100cfac <alt_open_fd>
  alt_open_fd (&alt_fd_list[STDERR_FILENO], stderr_dev, O_WRONLY, 0777);
 100d0d0:	01004074 	movhi	r4,257
 100d0d4:	21399f04 	addi	r4,r4,-6532
 100d0d8:	e17fff17 	ldw	r5,-4(fp)
 100d0dc:	01800044 	movi	r6,1
 100d0e0:	01c07fc4 	movi	r7,511
 100d0e4:	100cfac0 	call	100cfac <alt_open_fd>
}  
 100d0e8:	e037883a 	mov	sp,fp
 100d0ec:	dfc00117 	ldw	ra,4(sp)
 100d0f0:	df000017 	ldw	fp,0(sp)
 100d0f4:	dec00204 	addi	sp,sp,8
 100d0f8:	f800283a 	ret

0100d0fc <alt_file_locked>:
 * performed for devices. Filesystems are required to handle the ioctl() call
 * themselves, and report the error from the filesystems open() function. 
 */ 

static int alt_file_locked (alt_fd* fd)
{
 100d0fc:	defffa04 	addi	sp,sp,-24
 100d100:	dfc00515 	stw	ra,20(sp)
 100d104:	df000415 	stw	fp,16(sp)
 100d108:	dc000315 	stw	r16,12(sp)
 100d10c:	df000304 	addi	fp,sp,12
 100d110:	e13ffe15 	stw	r4,-8(fp)

  /*
   * Mark the file descriptor as belonging to a device.
   */

  fd->fd_flags |= ALT_FD_DEV;
 100d114:	e0bffe17 	ldw	r2,-8(fp)
 100d118:	10800217 	ldw	r2,8(r2)
 100d11c:	10d00034 	orhi	r3,r2,16384
 100d120:	e0bffe17 	ldw	r2,-8(fp)
 100d124:	10c00215 	stw	r3,8(r2)
  /*
   * Loop through all current file descriptors searching for one that's locked
   * for exclusive access. If a match is found, generate an error.
   */

  for (i = 0; i <= alt_max_fd; i++)
 100d128:	e03ffd15 	stw	zero,-12(fp)
 100d12c:	00002306 	br	100d1bc <alt_file_locked+0xc0>
  {
    if ((alt_fd_list[i].dev == fd->dev) &&
 100d130:	e13ffd17 	ldw	r4,-12(fp)
 100d134:	04004074 	movhi	r16,257
 100d138:	84399904 	addi	r16,r16,-6556
 100d13c:	01400304 	movi	r5,12
 100d140:	1000a8c0 	call	1000a8c <__mulsi3>
 100d144:	1405883a 	add	r2,r2,r16
 100d148:	10c00017 	ldw	r3,0(r2)
 100d14c:	e0bffe17 	ldw	r2,-8(fp)
 100d150:	10800017 	ldw	r2,0(r2)
 100d154:	1880161e 	bne	r3,r2,100d1b0 <alt_file_locked+0xb4>
 100d158:	e13ffd17 	ldw	r4,-12(fp)
 100d15c:	04004074 	movhi	r16,257
 100d160:	84399904 	addi	r16,r16,-6556
 100d164:	01400304 	movi	r5,12
 100d168:	1000a8c0 	call	1000a8c <__mulsi3>
 100d16c:	1405883a 	add	r2,r2,r16
 100d170:	10800204 	addi	r2,r2,8
 100d174:	10800017 	ldw	r2,0(r2)
 100d178:	1004403a 	cmpge	r2,r2,zero
 100d17c:	10000c1e 	bne	r2,zero,100d1b0 <alt_file_locked+0xb4>
 100d180:	e13ffd17 	ldw	r4,-12(fp)
 100d184:	01400304 	movi	r5,12
 100d188:	1000a8c0 	call	1000a8c <__mulsi3>
 100d18c:	1007883a 	mov	r3,r2
 100d190:	00804074 	movhi	r2,257
 100d194:	10b99904 	addi	r2,r2,-6556
 100d198:	1887883a 	add	r3,r3,r2
 100d19c:	e0bffe17 	ldw	r2,-8(fp)
 100d1a0:	18800326 	beq	r3,r2,100d1b0 <alt_file_locked+0xb4>
        (alt_fd_list[i].fd_flags & ALT_FD_EXCL) &&
        (&alt_fd_list[i] != fd))
    {
      return -EACCES;
 100d1a4:	00bffcc4 	movi	r2,-13
 100d1a8:	e0bfff15 	stw	r2,-4(fp)
 100d1ac:	00000a06 	br	100d1d8 <alt_file_locked+0xdc>
  /*
   * Loop through all current file descriptors searching for one that's locked
   * for exclusive access. If a match is found, generate an error.
   */

  for (i = 0; i <= alt_max_fd; i++)
 100d1b0:	e0bffd17 	ldw	r2,-12(fp)
 100d1b4:	10800044 	addi	r2,r2,1
 100d1b8:	e0bffd15 	stw	r2,-12(fp)
 100d1bc:	00804074 	movhi	r2,257
 100d1c0:	10be2604 	addi	r2,r2,-1896
 100d1c4:	10800017 	ldw	r2,0(r2)
 100d1c8:	1007883a 	mov	r3,r2
 100d1cc:	e0bffd17 	ldw	r2,-12(fp)
 100d1d0:	18bfd72e 	bgeu	r3,r2,100d130 <alt_file_locked+0x34>
    }
  }
  
  /* The device is not locked */
 
  return 0;
 100d1d4:	e03fff15 	stw	zero,-4(fp)
 100d1d8:	e0bfff17 	ldw	r2,-4(fp)
}
 100d1dc:	e037883a 	mov	sp,fp
 100d1e0:	dfc00217 	ldw	ra,8(sp)
 100d1e4:	df000117 	ldw	fp,4(sp)
 100d1e8:	dc000017 	ldw	r16,0(sp)
 100d1ec:	dec00304 	addi	sp,sp,12
 100d1f0:	f800283a 	ret

0100d1f4 <open>:
 *
 * ALT_OPEN is mapped onto the open() system call in alt_syscall.h
 */
 
int ALT_OPEN (const char* file, int flags, int mode)
{ 
 100d1f4:	defff404 	addi	sp,sp,-48
 100d1f8:	dfc00b15 	stw	ra,44(sp)
 100d1fc:	df000a15 	stw	fp,40(sp)
 100d200:	df000a04 	addi	fp,sp,40
 100d204:	e13ffb15 	stw	r4,-20(fp)
 100d208:	e17ffc15 	stw	r5,-16(fp)
 100d20c:	e1bffd15 	stw	r6,-12(fp)
  alt_dev* dev;
  alt_fd*  fd;
  int index  = -1;
 100d210:	00bfffc4 	movi	r2,-1
 100d214:	e0bff815 	stw	r2,-32(fp)
  int status = -ENODEV;
 100d218:	00bffb44 	movi	r2,-19
 100d21c:	e0bff715 	stw	r2,-36(fp)
  int isafs = 0;
 100d220:	e03ff615 	stw	zero,-40(fp)
  /* 
   * Check the device list, to see if a device with a matching name is 
   * registered.
   */
  
  if (!(dev = alt_find_dev (file, &alt_dev_list)))
 100d224:	e13ffb17 	ldw	r4,-20(fp)
 100d228:	01404074 	movhi	r5,257
 100d22c:	297e2404 	addi	r5,r5,-1904
 100d230:	100cc1c0 	call	100cc1c <alt_find_dev>
 100d234:	e0bffa15 	stw	r2,-24(fp)
 100d238:	e0bffa17 	ldw	r2,-24(fp)
 100d23c:	1004c03a 	cmpne	r2,r2,zero
 100d240:	1000051e 	bne	r2,zero,100d258 <open+0x64>
  {
    /* No matching device, so try the filesystem list */

    dev   = alt_find_file (file);
 100d244:	e13ffb17 	ldw	r4,-20(fp)
 100d248:	100d4000 	call	100d400 <alt_find_file>
 100d24c:	e0bffa15 	stw	r2,-24(fp)
    isafs = 1;
 100d250:	00800044 	movi	r2,1
 100d254:	e0bff615 	stw	r2,-40(fp)

  /* 
   * If a matching device or filesystem is found, allocate a file descriptor. 
   */

  if (dev)
 100d258:	e0bffa17 	ldw	r2,-24(fp)
 100d25c:	1005003a 	cmpeq	r2,r2,zero
 100d260:	1000311e 	bne	r2,zero,100d328 <open+0x134>
  {
    if ((index = alt_get_fd (dev)) < 0)
 100d264:	e13ffa17 	ldw	r4,-24(fp)
 100d268:	100d5200 	call	100d520 <alt_get_fd>
 100d26c:	e0bff815 	stw	r2,-32(fp)
 100d270:	e0bff817 	ldw	r2,-32(fp)
 100d274:	1004403a 	cmpge	r2,r2,zero
 100d278:	1000031e 	bne	r2,zero,100d288 <open+0x94>
    {
      status = index;
 100d27c:	e0bff817 	ldw	r2,-32(fp)
 100d280:	e0bff715 	stw	r2,-36(fp)
 100d284:	00002a06 	br	100d330 <open+0x13c>
    }
    else
    {
      fd = &alt_fd_list[index];
 100d288:	e13ff817 	ldw	r4,-32(fp)
 100d28c:	01400304 	movi	r5,12
 100d290:	1000a8c0 	call	1000a8c <__mulsi3>
 100d294:	1007883a 	mov	r3,r2
 100d298:	00804074 	movhi	r2,257
 100d29c:	10b99904 	addi	r2,r2,-6556
 100d2a0:	1885883a 	add	r2,r3,r2
 100d2a4:	e0bff915 	stw	r2,-28(fp)
      fd->fd_flags = (flags & ~ALT_FD_FLAGS_MASK);
 100d2a8:	e0fffc17 	ldw	r3,-16(fp)
 100d2ac:	00900034 	movhi	r2,16384
 100d2b0:	10bfffc4 	addi	r2,r2,-1
 100d2b4:	1886703a 	and	r3,r3,r2
 100d2b8:	e0bff917 	ldw	r2,-28(fp)
 100d2bc:	10c00215 	stw	r3,8(r2)
      
      /* If this is a device, ensure it isn't already locked */

      if (isafs || ((status = alt_file_locked (fd)) >= 0))
 100d2c0:	e0bff617 	ldw	r2,-40(fp)
 100d2c4:	1004c03a 	cmpne	r2,r2,zero
 100d2c8:	1000061e 	bne	r2,zero,100d2e4 <open+0xf0>
 100d2cc:	e13ff917 	ldw	r4,-28(fp)
 100d2d0:	100d0fc0 	call	100d0fc <alt_file_locked>
 100d2d4:	e0bff715 	stw	r2,-36(fp)
 100d2d8:	e0bff717 	ldw	r2,-36(fp)
 100d2dc:	1004803a 	cmplt	r2,r2,zero
 100d2e0:	1000131e 	bne	r2,zero,100d330 <open+0x13c>
        /* 
         * If the device or filesystem provides an open() callback function,
         * call it now to perform any device/filesystem specific operations.
         */
    
        status = (dev->open) ? dev->open(fd, file, flags, mode): 0;
 100d2e4:	e0bffa17 	ldw	r2,-24(fp)
 100d2e8:	10800317 	ldw	r2,12(r2)
 100d2ec:	1005003a 	cmpeq	r2,r2,zero
 100d2f0:	1000091e 	bne	r2,zero,100d318 <open+0x124>
 100d2f4:	e0bffa17 	ldw	r2,-24(fp)
 100d2f8:	10800317 	ldw	r2,12(r2)
 100d2fc:	e13ff917 	ldw	r4,-28(fp)
 100d300:	e17ffb17 	ldw	r5,-20(fp)
 100d304:	e1bffc17 	ldw	r6,-16(fp)
 100d308:	e1fffd17 	ldw	r7,-12(fp)
 100d30c:	103ee83a 	callr	r2
 100d310:	e0bfff15 	stw	r2,-4(fp)
 100d314:	00000106 	br	100d31c <open+0x128>
 100d318:	e03fff15 	stw	zero,-4(fp)
 100d31c:	e0bfff17 	ldw	r2,-4(fp)
 100d320:	e0bff715 	stw	r2,-36(fp)
 100d324:	00000206 	br	100d330 <open+0x13c>
      }
    }
  }
  else
  {
    status = -ENODEV;
 100d328:	00bffb44 	movi	r2,-19
 100d32c:	e0bff715 	stw	r2,-36(fp)
  }

  /* Allocation failed, so clean up and return an error */ 

  if (status < 0)
 100d330:	e0bff717 	ldw	r2,-36(fp)
 100d334:	1004403a 	cmpge	r2,r2,zero
 100d338:	1000091e 	bne	r2,zero,100d360 <open+0x16c>
  {
    alt_release_fd (index);  
 100d33c:	e13ff817 	ldw	r4,-32(fp)
 100d340:	100b2440 	call	100b244 <alt_release_fd>
    ALT_ERRNO = -status;
 100d344:	100d3800 	call	100d380 <alt_get_errno>
 100d348:	e0fff717 	ldw	r3,-36(fp)
 100d34c:	00c7c83a 	sub	r3,zero,r3
 100d350:	10c00015 	stw	r3,0(r2)
    return -1;
 100d354:	00bfffc4 	movi	r2,-1
 100d358:	e0bffe15 	stw	r2,-8(fp)
 100d35c:	00000206 	br	100d368 <open+0x174>
  }
  
  /* return the reference upon success */

  return index;
 100d360:	e0bff817 	ldw	r2,-32(fp)
 100d364:	e0bffe15 	stw	r2,-8(fp)
 100d368:	e0bffe17 	ldw	r2,-8(fp)
}
 100d36c:	e037883a 	mov	sp,fp
 100d370:	dfc00117 	ldw	ra,4(sp)
 100d374:	df000017 	ldw	fp,0(sp)
 100d378:	dec00204 	addi	sp,sp,8
 100d37c:	f800283a 	ret

0100d380 <alt_get_errno>:
#undef errno

extern int errno;

static ALT_INLINE int* alt_get_errno(void)
{
 100d380:	defffd04 	addi	sp,sp,-12
 100d384:	dfc00215 	stw	ra,8(sp)
 100d388:	df000115 	stw	fp,4(sp)
 100d38c:	df000104 	addi	fp,sp,4
  return ((alt_errno) ? alt_errno() : &errno);
 100d390:	00804074 	movhi	r2,257
 100d394:	10be2704 	addi	r2,r2,-1892
 100d398:	10800017 	ldw	r2,0(r2)
 100d39c:	1005003a 	cmpeq	r2,r2,zero
 100d3a0:	1000061e 	bne	r2,zero,100d3bc <alt_get_errno+0x3c>
 100d3a4:	00804074 	movhi	r2,257
 100d3a8:	10be2704 	addi	r2,r2,-1892
 100d3ac:	10800017 	ldw	r2,0(r2)
 100d3b0:	103ee83a 	callr	r2
 100d3b4:	e0bfff15 	stw	r2,-4(fp)
 100d3b8:	00000306 	br	100d3c8 <alt_get_errno+0x48>
 100d3bc:	00804074 	movhi	r2,257
 100d3c0:	1084ce04 	addi	r2,r2,4920
 100d3c4:	e0bfff15 	stw	r2,-4(fp)
 100d3c8:	e0bfff17 	ldw	r2,-4(fp)
}
 100d3cc:	e037883a 	mov	sp,fp
 100d3d0:	dfc00117 	ldw	ra,4(sp)
 100d3d4:	df000017 	ldw	fp,0(sp)
 100d3d8:	dec00204 	addi	sp,sp,8
 100d3dc:	f800283a 	ret

0100d3e0 <altera_nios2_qsys_irq_init>:
/*
 * To initialize the internal interrupt controller, just clear the IENABLE
 * register so that all possible IRQs are disabled.
 */
void altera_nios2_qsys_irq_init(void) 
{
 100d3e0:	deffff04 	addi	sp,sp,-4
 100d3e4:	df000015 	stw	fp,0(sp)
 100d3e8:	d839883a 	mov	fp,sp
    NIOS2_WRITE_IENABLE(0);
 100d3ec:	000170fa 	wrctl	ienable,zero
}
 100d3f0:	e037883a 	mov	sp,fp
 100d3f4:	df000017 	ldw	fp,0(sp)
 100d3f8:	dec00104 	addi	sp,sp,4
 100d3fc:	f800283a 	ret

0100d400 <alt_find_file>:
 * either '/' or '\0' is the prefix of the filename. For example the filename:
 * "/myfilesystem/junk.txt" would match: "/myfilesystem", but not: "/myfile". 
 */
 
alt_dev* alt_find_file (const char* name)
{
 100d400:	defffa04 	addi	sp,sp,-24
 100d404:	dfc00515 	stw	ra,20(sp)
 100d408:	df000415 	stw	fp,16(sp)
 100d40c:	df000404 	addi	fp,sp,16
 100d410:	e13ffe15 	stw	r4,-8(fp)
  alt_dev* next = (alt_dev*) alt_fs_list.next;   
 100d414:	00804074 	movhi	r2,257
 100d418:	10be2204 	addi	r2,r2,-1912
 100d41c:	10800017 	ldw	r2,0(r2)
 100d420:	e0bffd15 	stw	r2,-12(fp)
  /*
   * Check each list entry in turn, until a match is found, or we reach the
   * end of the list (i.e. next winds up pointing back to the list head).
   */ 
 
  while (next != (alt_dev*) &alt_fs_list)
 100d424:	00003306 	br	100d4f4 <alt_find_file+0xf4>
  {
    len = strlen(next->name);
 100d428:	e0bffd17 	ldw	r2,-12(fp)
 100d42c:	11000217 	ldw	r4,8(r2)
 100d430:	100804c0 	call	100804c <strlen>
 100d434:	e0bffc15 	stw	r2,-16(fp)
    
    if (next->name[len-1] == '/')
 100d438:	e0bffd17 	ldw	r2,-12(fp)
 100d43c:	10c00217 	ldw	r3,8(r2)
 100d440:	e0bffc17 	ldw	r2,-16(fp)
 100d444:	1885883a 	add	r2,r3,r2
 100d448:	10bfffc4 	addi	r2,r2,-1
 100d44c:	10800003 	ldbu	r2,0(r2)
 100d450:	10803fcc 	andi	r2,r2,255
 100d454:	1080201c 	xori	r2,r2,128
 100d458:	10bfe004 	addi	r2,r2,-128
 100d45c:	10800bd8 	cmpnei	r2,r2,47
 100d460:	1000031e 	bne	r2,zero,100d470 <alt_find_file+0x70>
    {
      len -= 1;
 100d464:	e0bffc17 	ldw	r2,-16(fp)
 100d468:	10bfffc4 	addi	r2,r2,-1
 100d46c:	e0bffc15 	stw	r2,-16(fp)
    }

    if (((name[len] == '/') || (name[len] == '\0')) && 
 100d470:	e0bffc17 	ldw	r2,-16(fp)
 100d474:	1007883a 	mov	r3,r2
 100d478:	e0bffe17 	ldw	r2,-8(fp)
 100d47c:	1885883a 	add	r2,r3,r2
 100d480:	10800003 	ldbu	r2,0(r2)
 100d484:	10803fcc 	andi	r2,r2,255
 100d488:	1080201c 	xori	r2,r2,128
 100d48c:	10bfe004 	addi	r2,r2,-128
 100d490:	10800be0 	cmpeqi	r2,r2,47
 100d494:	10000a1e 	bne	r2,zero,100d4c0 <alt_find_file+0xc0>
 100d498:	e0bffc17 	ldw	r2,-16(fp)
 100d49c:	1007883a 	mov	r3,r2
 100d4a0:	e0bffe17 	ldw	r2,-8(fp)
 100d4a4:	1885883a 	add	r2,r3,r2
 100d4a8:	10800003 	ldbu	r2,0(r2)
 100d4ac:	10803fcc 	andi	r2,r2,255
 100d4b0:	1080201c 	xori	r2,r2,128
 100d4b4:	10bfe004 	addi	r2,r2,-128
 100d4b8:	1004c03a 	cmpne	r2,r2,zero
 100d4bc:	10000a1e 	bne	r2,zero,100d4e8 <alt_find_file+0xe8>
 100d4c0:	e0bffd17 	ldw	r2,-12(fp)
 100d4c4:	11000217 	ldw	r4,8(r2)
 100d4c8:	e1bffc17 	ldw	r6,-16(fp)
 100d4cc:	e17ffe17 	ldw	r5,-8(fp)
 100d4d0:	100d6cc0 	call	100d6cc <memcmp>
 100d4d4:	1004c03a 	cmpne	r2,r2,zero
 100d4d8:	1000031e 	bne	r2,zero,100d4e8 <alt_find_file+0xe8>
        !memcmp (next->name, name, len))
    {
      /* match found */

      return next;
 100d4dc:	e0bffd17 	ldw	r2,-12(fp)
 100d4e0:	e0bfff15 	stw	r2,-4(fp)
 100d4e4:	00000806 	br	100d508 <alt_find_file+0x108>
    }
    next = (alt_dev*) next->llist.next;
 100d4e8:	e0bffd17 	ldw	r2,-12(fp)
 100d4ec:	10800017 	ldw	r2,0(r2)
 100d4f0:	e0bffd15 	stw	r2,-12(fp)
  /*
   * Check each list entry in turn, until a match is found, or we reach the
   * end of the list (i.e. next winds up pointing back to the list head).
   */ 
 
  while (next != (alt_dev*) &alt_fs_list)
 100d4f4:	00c04074 	movhi	r3,257
 100d4f8:	18fe2204 	addi	r3,r3,-1912
 100d4fc:	e0bffd17 	ldw	r2,-12(fp)
 100d500:	10ffc91e 	bne	r2,r3,100d428 <alt_find_file+0x28>
    next = (alt_dev*) next->llist.next;
  }
  
  /* No match found */
  
  return NULL;     
 100d504:	e03fff15 	stw	zero,-4(fp)
 100d508:	e0bfff17 	ldw	r2,-4(fp)
}
 100d50c:	e037883a 	mov	sp,fp
 100d510:	dfc00117 	ldw	ra,4(sp)
 100d514:	df000017 	ldw	fp,0(sp)
 100d518:	dec00204 	addi	sp,sp,8
 100d51c:	f800283a 	ret

0100d520 <alt_get_fd>:
 * the offset of the file descriptor within the file descriptor array). A
 * negative value indicates failure.
 */

int alt_get_fd (alt_dev* dev)
{
 100d520:	defffa04 	addi	sp,sp,-24
 100d524:	dfc00515 	stw	ra,20(sp)
 100d528:	df000415 	stw	fp,16(sp)
 100d52c:	dc000315 	stw	r16,12(sp)
 100d530:	df000304 	addi	fp,sp,12
 100d534:	e13fff15 	stw	r4,-4(fp)
  alt_32 i;
  int rc = -EMFILE;
 100d538:	00bffa04 	movi	r2,-24
 100d53c:	e0bffd15 	stw	r2,-12(fp)
   * indicates the highest file descriptor ever allocated. This is used to
   * improve efficency when searching the file descriptor list, and 
   * therefore reduce contention on the alt_fd_list_lock semaphore. 
   */

  for (i = 0; i < ALT_MAX_FD; i++)
 100d540:	e03ffe15 	stw	zero,-8(fp)
 100d544:	00002006 	br	100d5c8 <alt_get_fd+0xa8>
  {
    if (!alt_fd_list[i].dev)
 100d548:	e13ffe17 	ldw	r4,-8(fp)
 100d54c:	04004074 	movhi	r16,257
 100d550:	84399904 	addi	r16,r16,-6556
 100d554:	01400304 	movi	r5,12
 100d558:	1000a8c0 	call	1000a8c <__mulsi3>
 100d55c:	1405883a 	add	r2,r2,r16
 100d560:	10800017 	ldw	r2,0(r2)
 100d564:	1004c03a 	cmpne	r2,r2,zero
 100d568:	1000141e 	bne	r2,zero,100d5bc <alt_get_fd+0x9c>
    {
      alt_fd_list[i].dev = dev;
 100d56c:	e13ffe17 	ldw	r4,-8(fp)
 100d570:	04004074 	movhi	r16,257
 100d574:	84399904 	addi	r16,r16,-6556
 100d578:	01400304 	movi	r5,12
 100d57c:	1000a8c0 	call	1000a8c <__mulsi3>
 100d580:	1407883a 	add	r3,r2,r16
 100d584:	e0bfff17 	ldw	r2,-4(fp)
 100d588:	18800015 	stw	r2,0(r3)
      if (i > alt_max_fd)
 100d58c:	00804074 	movhi	r2,257
 100d590:	10be2604 	addi	r2,r2,-1896
 100d594:	10c00017 	ldw	r3,0(r2)
 100d598:	e0bffe17 	ldw	r2,-8(fp)
 100d59c:	1880040e 	bge	r3,r2,100d5b0 <alt_get_fd+0x90>
      {
        alt_max_fd = i;
 100d5a0:	00c04074 	movhi	r3,257
 100d5a4:	18fe2604 	addi	r3,r3,-1896
 100d5a8:	e0bffe17 	ldw	r2,-8(fp)
 100d5ac:	18800015 	stw	r2,0(r3)
      }
      rc = i;
 100d5b0:	e0bffe17 	ldw	r2,-8(fp)
 100d5b4:	e0bffd15 	stw	r2,-12(fp)
      goto alt_get_fd_exit;
 100d5b8:	00000606 	br	100d5d4 <alt_get_fd+0xb4>
   * indicates the highest file descriptor ever allocated. This is used to
   * improve efficency when searching the file descriptor list, and 
   * therefore reduce contention on the alt_fd_list_lock semaphore. 
   */

  for (i = 0; i < ALT_MAX_FD; i++)
 100d5bc:	e0bffe17 	ldw	r2,-8(fp)
 100d5c0:	10800044 	addi	r2,r2,1
 100d5c4:	e0bffe15 	stw	r2,-8(fp)
 100d5c8:	e0bffe17 	ldw	r2,-8(fp)
 100d5cc:	10800810 	cmplti	r2,r2,32
 100d5d0:	103fdd1e 	bne	r2,zero,100d548 <alt_get_fd+0x28>
   * file descriptor pool.
   */

  ALT_SEM_POST(alt_fd_list_lock);

  return rc;
 100d5d4:	e0bffd17 	ldw	r2,-12(fp)
}
 100d5d8:	e037883a 	mov	sp,fp
 100d5dc:	dfc00217 	ldw	ra,8(sp)
 100d5e0:	df000117 	ldw	fp,4(sp)
 100d5e4:	dc000017 	ldw	r16,0(sp)
 100d5e8:	dec00304 	addi	sp,sp,12
 100d5ec:	f800283a 	ret

0100d5f0 <alt_icache_flush>:
 * alt_icache_flush() is called to flush the instruction cache for a memory
 * region of length "len" bytes, starting at address "start".
 */

void alt_icache_flush (void* start, alt_u32 len)
{
 100d5f0:	defffb04 	addi	sp,sp,-20
 100d5f4:	df000415 	stw	fp,16(sp)
 100d5f8:	df000404 	addi	fp,sp,16
 100d5fc:	e13ffe15 	stw	r4,-8(fp)
 100d600:	e17fff15 	stw	r5,-4(fp)

  /*
   * This is the most we would ever need to flush.
   */
 
  if (len > NIOS2_ICACHE_SIZE)
 100d604:	e0bfff17 	ldw	r2,-4(fp)
 100d608:	10840070 	cmpltui	r2,r2,4097
 100d60c:	1000021e 	bne	r2,zero,100d618 <alt_icache_flush+0x28>
  {
    len = NIOS2_ICACHE_SIZE;
 100d610:	00840004 	movi	r2,4096
 100d614:	e0bfff15 	stw	r2,-4(fp)
  }

  end = ((char*) start) + len;
 100d618:	e0fffe17 	ldw	r3,-8(fp)
 100d61c:	e0bfff17 	ldw	r2,-4(fp)
 100d620:	1885883a 	add	r2,r3,r2
 100d624:	e0bffc15 	stw	r2,-16(fp)

  for (i = start; i < end; i+= NIOS2_ICACHE_LINE_SIZE)
 100d628:	e0bffe17 	ldw	r2,-8(fp)
 100d62c:	e0bffd15 	stw	r2,-12(fp)
 100d630:	00000506 	br	100d648 <alt_icache_flush+0x58>
  { 
    __asm__ volatile ("flushi %0" :: "r" (i)); 
 100d634:	e0bffd17 	ldw	r2,-12(fp)
 100d638:	1000603a 	flushi	r2
    len = NIOS2_ICACHE_SIZE;
  }

  end = ((char*) start) + len;

  for (i = start; i < end; i+= NIOS2_ICACHE_LINE_SIZE)
 100d63c:	e0bffd17 	ldw	r2,-12(fp)
 100d640:	10800804 	addi	r2,r2,32
 100d644:	e0bffd15 	stw	r2,-12(fp)
 100d648:	e0fffd17 	ldw	r3,-12(fp)
 100d64c:	e0bffc17 	ldw	r2,-16(fp)
 100d650:	18bff836 	bltu	r3,r2,100d634 <alt_icache_flush+0x44>
   * For an unaligned flush request, we've got one more line left.
   * Note that this is dependent on NIOS2_ICACHE_LINE_SIZE to be a 
   * multiple of 2 (which it always is).
   */

  if (((alt_u32) start) & (NIOS2_ICACHE_LINE_SIZE - 1))
 100d654:	e0bffe17 	ldw	r2,-8(fp)
 100d658:	108007cc 	andi	r2,r2,31
 100d65c:	1005003a 	cmpeq	r2,r2,zero
 100d660:	1000021e 	bne	r2,zero,100d66c <alt_icache_flush+0x7c>
  {
    __asm__ volatile ("flushi %0" :: "r" (i));
 100d664:	e0bffd17 	ldw	r2,-12(fp)
 100d668:	1000603a 	flushi	r2
  /* 
   * Having flushed the cache, flush any stale instructions in the 
   * pipeline 
   */

  __asm__ volatile ("flushp");
 100d66c:	0000203a 	flushp

#endif /* NIOS2_ICACHE_SIZE > 0 */
}
 100d670:	e037883a 	mov	sp,fp
 100d674:	df000017 	ldw	fp,0(sp)
 100d678:	dec00104 	addi	sp,sp,4
 100d67c:	f800283a 	ret

0100d680 <atexit>:
 100d680:	200b883a 	mov	r5,r4
 100d684:	000d883a 	mov	r6,zero
 100d688:	0009883a 	mov	r4,zero
 100d68c:	000f883a 	mov	r7,zero
 100d690:	100d7401 	jmpi	100d740 <__register_exitproc>

0100d694 <exit>:
 100d694:	defffe04 	addi	sp,sp,-8
 100d698:	000b883a 	mov	r5,zero
 100d69c:	dc000015 	stw	r16,0(sp)
 100d6a0:	dfc00115 	stw	ra,4(sp)
 100d6a4:	2021883a 	mov	r16,r4
 100d6a8:	100d8780 	call	100d878 <__call_exitprocs>
 100d6ac:	00804074 	movhi	r2,257
 100d6b0:	10be1d04 	addi	r2,r2,-1932
 100d6b4:	11000017 	ldw	r4,0(r2)
 100d6b8:	20800f17 	ldw	r2,60(r4)
 100d6bc:	10000126 	beq	r2,zero,100d6c4 <exit+0x30>
 100d6c0:	103ee83a 	callr	r2
 100d6c4:	8009883a 	mov	r4,r16
 100d6c8:	100da680 	call	100da68 <_exit>

0100d6cc <memcmp>:
 100d6cc:	00c000c4 	movi	r3,3
 100d6d0:	1980032e 	bgeu	r3,r6,100d6e0 <memcmp+0x14>
 100d6d4:	2144b03a 	or	r2,r4,r5
 100d6d8:	10c4703a 	and	r2,r2,r3
 100d6dc:	10000f26 	beq	r2,zero,100d71c <memcmp+0x50>
 100d6e0:	31ffffc4 	addi	r7,r6,-1
 100d6e4:	3000061e 	bne	r6,zero,100d700 <memcmp+0x34>
 100d6e8:	00000a06 	br	100d714 <memcmp+0x48>
 100d6ec:	39ffffc4 	addi	r7,r7,-1
 100d6f0:	00bfffc4 	movi	r2,-1
 100d6f4:	21000044 	addi	r4,r4,1
 100d6f8:	29400044 	addi	r5,r5,1
 100d6fc:	38800526 	beq	r7,r2,100d714 <memcmp+0x48>
 100d700:	20c00003 	ldbu	r3,0(r4)
 100d704:	28800003 	ldbu	r2,0(r5)
 100d708:	18bff826 	beq	r3,r2,100d6ec <memcmp+0x20>
 100d70c:	1885c83a 	sub	r2,r3,r2
 100d710:	f800283a 	ret
 100d714:	0005883a 	mov	r2,zero
 100d718:	f800283a 	ret
 100d71c:	180f883a 	mov	r7,r3
 100d720:	20c00017 	ldw	r3,0(r4)
 100d724:	28800017 	ldw	r2,0(r5)
 100d728:	18bfed1e 	bne	r3,r2,100d6e0 <memcmp+0x14>
 100d72c:	31bfff04 	addi	r6,r6,-4
 100d730:	21000104 	addi	r4,r4,4
 100d734:	29400104 	addi	r5,r5,4
 100d738:	39bff936 	bltu	r7,r6,100d720 <memcmp+0x54>
 100d73c:	003fe806 	br	100d6e0 <memcmp+0x14>

0100d740 <__register_exitproc>:
 100d740:	defffa04 	addi	sp,sp,-24
 100d744:	00804074 	movhi	r2,257
 100d748:	10be1d04 	addi	r2,r2,-1932
 100d74c:	dc000015 	stw	r16,0(sp)
 100d750:	14000017 	ldw	r16,0(r2)
 100d754:	dd000415 	stw	r20,16(sp)
 100d758:	2829883a 	mov	r20,r5
 100d75c:	81405217 	ldw	r5,328(r16)
 100d760:	dcc00315 	stw	r19,12(sp)
 100d764:	dc800215 	stw	r18,8(sp)
 100d768:	dc400115 	stw	r17,4(sp)
 100d76c:	dfc00515 	stw	ra,20(sp)
 100d770:	2023883a 	mov	r17,r4
 100d774:	3027883a 	mov	r19,r6
 100d778:	3825883a 	mov	r18,r7
 100d77c:	28002526 	beq	r5,zero,100d814 <__register_exitproc+0xd4>
 100d780:	29000117 	ldw	r4,4(r5)
 100d784:	008007c4 	movi	r2,31
 100d788:	11002716 	blt	r2,r4,100d828 <__register_exitproc+0xe8>
 100d78c:	8800101e 	bne	r17,zero,100d7d0 <__register_exitproc+0x90>
 100d790:	2105883a 	add	r2,r4,r4
 100d794:	1085883a 	add	r2,r2,r2
 100d798:	20c00044 	addi	r3,r4,1
 100d79c:	1145883a 	add	r2,r2,r5
 100d7a0:	0009883a 	mov	r4,zero
 100d7a4:	15000215 	stw	r20,8(r2)
 100d7a8:	28c00115 	stw	r3,4(r5)
 100d7ac:	2005883a 	mov	r2,r4
 100d7b0:	dfc00517 	ldw	ra,20(sp)
 100d7b4:	dd000417 	ldw	r20,16(sp)
 100d7b8:	dcc00317 	ldw	r19,12(sp)
 100d7bc:	dc800217 	ldw	r18,8(sp)
 100d7c0:	dc400117 	ldw	r17,4(sp)
 100d7c4:	dc000017 	ldw	r16,0(sp)
 100d7c8:	dec00604 	addi	sp,sp,24
 100d7cc:	f800283a 	ret
 100d7d0:	29802204 	addi	r6,r5,136
 100d7d4:	00800044 	movi	r2,1
 100d7d8:	110e983a 	sll	r7,r2,r4
 100d7dc:	30c04017 	ldw	r3,256(r6)
 100d7e0:	2105883a 	add	r2,r4,r4
 100d7e4:	1085883a 	add	r2,r2,r2
 100d7e8:	1185883a 	add	r2,r2,r6
 100d7ec:	19c6b03a 	or	r3,r3,r7
 100d7f0:	14802015 	stw	r18,128(r2)
 100d7f4:	14c00015 	stw	r19,0(r2)
 100d7f8:	00800084 	movi	r2,2
 100d7fc:	30c04015 	stw	r3,256(r6)
 100d800:	88bfe31e 	bne	r17,r2,100d790 <__register_exitproc+0x50>
 100d804:	30804117 	ldw	r2,260(r6)
 100d808:	11c4b03a 	or	r2,r2,r7
 100d80c:	30804115 	stw	r2,260(r6)
 100d810:	003fdf06 	br	100d790 <__register_exitproc+0x50>
 100d814:	00804074 	movhi	r2,257
 100d818:	10852b04 	addi	r2,r2,5292
 100d81c:	100b883a 	mov	r5,r2
 100d820:	80805215 	stw	r2,328(r16)
 100d824:	003fd606 	br	100d780 <__register_exitproc+0x40>
 100d828:	00800034 	movhi	r2,0
 100d82c:	10800004 	addi	r2,r2,0
 100d830:	1000021e 	bne	r2,zero,100d83c <__register_exitproc+0xfc>
 100d834:	013fffc4 	movi	r4,-1
 100d838:	003fdc06 	br	100d7ac <__register_exitproc+0x6c>
 100d83c:	01006404 	movi	r4,400
 100d840:	103ee83a 	callr	r2
 100d844:	1007883a 	mov	r3,r2
 100d848:	103ffa26 	beq	r2,zero,100d834 <__register_exitproc+0xf4>
 100d84c:	80805217 	ldw	r2,328(r16)
 100d850:	180b883a 	mov	r5,r3
 100d854:	18000115 	stw	zero,4(r3)
 100d858:	18800015 	stw	r2,0(r3)
 100d85c:	80c05215 	stw	r3,328(r16)
 100d860:	18006215 	stw	zero,392(r3)
 100d864:	18006315 	stw	zero,396(r3)
 100d868:	0009883a 	mov	r4,zero
 100d86c:	883fc826 	beq	r17,zero,100d790 <__register_exitproc+0x50>
 100d870:	003fd706 	br	100d7d0 <__register_exitproc+0x90>

0100d874 <register_fini>:
 100d874:	f800283a 	ret

0100d878 <__call_exitprocs>:
 100d878:	00804074 	movhi	r2,257
 100d87c:	10be1d04 	addi	r2,r2,-1932
 100d880:	10800017 	ldw	r2,0(r2)
 100d884:	defff304 	addi	sp,sp,-52
 100d888:	df000b15 	stw	fp,44(sp)
 100d88c:	d8800115 	stw	r2,4(sp)
 100d890:	00800034 	movhi	r2,0
 100d894:	10800004 	addi	r2,r2,0
 100d898:	1005003a 	cmpeq	r2,r2,zero
 100d89c:	d8800215 	stw	r2,8(sp)
 100d8a0:	d8800117 	ldw	r2,4(sp)
 100d8a4:	dd400815 	stw	r21,32(sp)
 100d8a8:	dd000715 	stw	r20,28(sp)
 100d8ac:	10805204 	addi	r2,r2,328
 100d8b0:	dfc00c15 	stw	ra,48(sp)
 100d8b4:	ddc00a15 	stw	r23,40(sp)
 100d8b8:	dd800915 	stw	r22,36(sp)
 100d8bc:	dcc00615 	stw	r19,24(sp)
 100d8c0:	dc800515 	stw	r18,20(sp)
 100d8c4:	dc400415 	stw	r17,16(sp)
 100d8c8:	dc000315 	stw	r16,12(sp)
 100d8cc:	282b883a 	mov	r21,r5
 100d8d0:	2039883a 	mov	fp,r4
 100d8d4:	d8800015 	stw	r2,0(sp)
 100d8d8:	2829003a 	cmpeq	r20,r5,zero
 100d8dc:	d8800117 	ldw	r2,4(sp)
 100d8e0:	14405217 	ldw	r17,328(r2)
 100d8e4:	88001026 	beq	r17,zero,100d928 <__call_exitprocs+0xb0>
 100d8e8:	ddc00017 	ldw	r23,0(sp)
 100d8ec:	88800117 	ldw	r2,4(r17)
 100d8f0:	8c802204 	addi	r18,r17,136
 100d8f4:	143fffc4 	addi	r16,r2,-1
 100d8f8:	80000916 	blt	r16,zero,100d920 <__call_exitprocs+0xa8>
 100d8fc:	05bfffc4 	movi	r22,-1
 100d900:	a000151e 	bne	r20,zero,100d958 <__call_exitprocs+0xe0>
 100d904:	8409883a 	add	r4,r16,r16
 100d908:	2105883a 	add	r2,r4,r4
 100d90c:	1485883a 	add	r2,r2,r18
 100d910:	10c02017 	ldw	r3,128(r2)
 100d914:	a8c01126 	beq	r21,r3,100d95c <__call_exitprocs+0xe4>
 100d918:	843fffc4 	addi	r16,r16,-1
 100d91c:	85bff81e 	bne	r16,r22,100d900 <__call_exitprocs+0x88>
 100d920:	d8800217 	ldw	r2,8(sp)
 100d924:	10003126 	beq	r2,zero,100d9ec <__call_exitprocs+0x174>
 100d928:	dfc00c17 	ldw	ra,48(sp)
 100d92c:	df000b17 	ldw	fp,44(sp)
 100d930:	ddc00a17 	ldw	r23,40(sp)
 100d934:	dd800917 	ldw	r22,36(sp)
 100d938:	dd400817 	ldw	r21,32(sp)
 100d93c:	dd000717 	ldw	r20,28(sp)
 100d940:	dcc00617 	ldw	r19,24(sp)
 100d944:	dc800517 	ldw	r18,20(sp)
 100d948:	dc400417 	ldw	r17,16(sp)
 100d94c:	dc000317 	ldw	r16,12(sp)
 100d950:	dec00d04 	addi	sp,sp,52
 100d954:	f800283a 	ret
 100d958:	8409883a 	add	r4,r16,r16
 100d95c:	88c00117 	ldw	r3,4(r17)
 100d960:	2105883a 	add	r2,r4,r4
 100d964:	1445883a 	add	r2,r2,r17
 100d968:	18ffffc4 	addi	r3,r3,-1
 100d96c:	11800217 	ldw	r6,8(r2)
 100d970:	1c001526 	beq	r3,r16,100d9c8 <__call_exitprocs+0x150>
 100d974:	10000215 	stw	zero,8(r2)
 100d978:	303fe726 	beq	r6,zero,100d918 <__call_exitprocs+0xa0>
 100d97c:	00c00044 	movi	r3,1
 100d980:	1c06983a 	sll	r3,r3,r16
 100d984:	90804017 	ldw	r2,256(r18)
 100d988:	8cc00117 	ldw	r19,4(r17)
 100d98c:	1884703a 	and	r2,r3,r2
 100d990:	10001426 	beq	r2,zero,100d9e4 <__call_exitprocs+0x16c>
 100d994:	90804117 	ldw	r2,260(r18)
 100d998:	1884703a 	and	r2,r3,r2
 100d99c:	10000c1e 	bne	r2,zero,100d9d0 <__call_exitprocs+0x158>
 100d9a0:	2105883a 	add	r2,r4,r4
 100d9a4:	1485883a 	add	r2,r2,r18
 100d9a8:	11400017 	ldw	r5,0(r2)
 100d9ac:	e009883a 	mov	r4,fp
 100d9b0:	303ee83a 	callr	r6
 100d9b4:	88800117 	ldw	r2,4(r17)
 100d9b8:	98bfc81e 	bne	r19,r2,100d8dc <__call_exitprocs+0x64>
 100d9bc:	b8800017 	ldw	r2,0(r23)
 100d9c0:	147fd526 	beq	r2,r17,100d918 <__call_exitprocs+0xa0>
 100d9c4:	003fc506 	br	100d8dc <__call_exitprocs+0x64>
 100d9c8:	8c000115 	stw	r16,4(r17)
 100d9cc:	003fea06 	br	100d978 <__call_exitprocs+0x100>
 100d9d0:	2105883a 	add	r2,r4,r4
 100d9d4:	1485883a 	add	r2,r2,r18
 100d9d8:	11000017 	ldw	r4,0(r2)
 100d9dc:	303ee83a 	callr	r6
 100d9e0:	003ff406 	br	100d9b4 <__call_exitprocs+0x13c>
 100d9e4:	303ee83a 	callr	r6
 100d9e8:	003ff206 	br	100d9b4 <__call_exitprocs+0x13c>
 100d9ec:	88800117 	ldw	r2,4(r17)
 100d9f0:	1000081e 	bne	r2,zero,100da14 <__call_exitprocs+0x19c>
 100d9f4:	89000017 	ldw	r4,0(r17)
 100d9f8:	20000726 	beq	r4,zero,100da18 <__call_exitprocs+0x1a0>
 100d9fc:	b9000015 	stw	r4,0(r23)
 100da00:	8809883a 	mov	r4,r17
 100da04:	00000000 	call	0 <__alt_mem_onchip_memory2_0>
 100da08:	bc400017 	ldw	r17,0(r23)
 100da0c:	883fb71e 	bne	r17,zero,100d8ec <__call_exitprocs+0x74>
 100da10:	003fc506 	br	100d928 <__call_exitprocs+0xb0>
 100da14:	89000017 	ldw	r4,0(r17)
 100da18:	882f883a 	mov	r23,r17
 100da1c:	2023883a 	mov	r17,r4
 100da20:	883fb21e 	bne	r17,zero,100d8ec <__call_exitprocs+0x74>
 100da24:	003fc006 	br	100d928 <__call_exitprocs+0xb0>

0100da28 <alt_sim_halt>:

/*
 * Routine called on exit.
 */
static ALT_ALWAYS_INLINE void alt_sim_halt(int exit_code)
{
 100da28:	defffd04 	addi	sp,sp,-12
 100da2c:	df000215 	stw	fp,8(sp)
 100da30:	df000204 	addi	fp,sp,8
 100da34:	e13fff15 	stw	r4,-4(fp)
  int r2 = exit_code;
 100da38:	e0bfff17 	ldw	r2,-4(fp)
 100da3c:	e0bffe15 	stw	r2,-8(fp)
  __asm__ volatile ("\n0:\n\taddi %0,%0, -1\n\tbgt %0,zero,0b" : : "r" (ALT_CPU_FREQ/100) ); /* Delay for >30ms */

  __asm__ volatile ("break 2" : : "D02"(r2), "D03"(r3) ALT_GMON_DATA );

#else /* !DEBUG_STUB */
  if (r2) {
 100da40:	e0bffe17 	ldw	r2,-8(fp)
 100da44:	1005003a 	cmpeq	r2,r2,zero
 100da48:	1000021e 	bne	r2,zero,100da54 <alt_sim_halt+0x2c>
    ALT_SIM_FAIL();
 100da4c:	002af070 	cmpltui	zero,zero,43969
 100da50:	00000106 	br	100da58 <alt_sim_halt+0x30>
  } else {
    ALT_SIM_PASS();
 100da54:	002af0b0 	cmpltui	zero,zero,43970
  }
#endif /* DEBUG_STUB */
}
 100da58:	e037883a 	mov	sp,fp
 100da5c:	df000017 	ldw	fp,0(sp)
 100da60:	dec00104 	addi	sp,sp,4
 100da64:	f800283a 	ret

0100da68 <_exit>:
 *
 * ALT_EXIT is mapped onto the _exit() system call in alt_syscall.h
 */

void ALT_EXIT (int exit_code)
{
 100da68:	defffd04 	addi	sp,sp,-12
 100da6c:	dfc00215 	stw	ra,8(sp)
 100da70:	df000115 	stw	fp,4(sp)
 100da74:	df000104 	addi	fp,sp,4
 100da78:	e13fff15 	stw	r4,-4(fp)
  ALT_OS_STOP();

  /* Provide notification to the simulator that we've stopped */

  ALT_LOG_PRINT_BOOT("[alt_exit.c] Calling ALT_SIM_HALT().\r\n");
  ALT_SIM_HALT(exit_code);
 100da7c:	e13fff17 	ldw	r4,-4(fp)
 100da80:	100da280 	call	100da28 <alt_sim_halt>

  /* spin forever, since there's no where to go back to */

  ALT_LOG_PRINT_BOOT("[alt_exit.c] Spinning forever.\r\n");
  while (1);
 100da84:	003fff06 	br	100da84 <_exit+0x1c>
 100da88:	0100d874 	movhi	r4,865
