
time_stamp.elf:     file format elf32-littlenios2
time_stamp.elf
architecture: nios2, flags 0x00000112:
EXEC_P, HAS_SYMS, D_PAGED
start address 0x010001b4

Program Header:
    LOAD off    0x00001000 vaddr 0x01000000 paddr 0x01000000 align 2**12
         filesz 0x00000020 memsz 0x00000020 flags r-x
    LOAD off    0x00001020 vaddr 0x01000020 paddr 0x01000020 align 2**12
         filesz 0x0000de08 memsz 0x0000de08 flags r-x
    LOAD off    0x0000ee28 vaddr 0x0100de28 paddr 0x0100f8b0 align 2**12
         filesz 0x00001a88 memsz 0x00001a88 flags rw-
    LOAD off    0x00011338 vaddr 0x01011338 paddr 0x01011338 align 2**12
         filesz 0x00000000 memsz 0x00000304 flags rw-

Sections:
Idx Name          Size      VMA       LMA       File off  Algn
  0 .entry        00000020  01000000  01000000  00001000  2**5
                  CONTENTS, ALLOC, LOAD, READONLY, CODE
  1 .exceptions   00000194  01000020  01000020  00001020  2**2
                  CONTENTS, ALLOC, LOAD, READONLY, CODE
  2 .text         0000d8d8  010001b4  010001b4  000011b4  2**2
                  CONTENTS, ALLOC, LOAD, READONLY, CODE
  3 .rodata       0000039c  0100da8c  0100da8c  0000ea8c  2**2
                  CONTENTS, ALLOC, LOAD, READONLY, DATA
  4 .rwdata       00001a88  0100de28  0100f8b0  0000ee28  2**2
                  CONTENTS, ALLOC, LOAD, DATA, SMALL_DATA
  5 .bss          00000304  01011338  01011338  00011338  2**2
                  ALLOC, SMALL_DATA
  6 .comment      00000023  00000000  00000000  000108b0  2**0
                  CONTENTS, READONLY
  7 .debug_aranges 00000df8  00000000  00000000  000108d8  2**3
                  CONTENTS, READONLY, DEBUGGING
  8 .debug_pubnames 0000171d  00000000  00000000  000116d0  2**0
                  CONTENTS, READONLY, DEBUGGING
  9 .debug_info   00025d71  00000000  00000000  00012ded  2**0
                  CONTENTS, READONLY, DEBUGGING
 10 .debug_abbrev 00008919  00000000  00000000  00038b5e  2**0
                  CONTENTS, READONLY, DEBUGGING
 11 .debug_line   00014f69  00000000  00000000  00041477  2**0
                  CONTENTS, READONLY, DEBUGGING
 12 .debug_frame  00001b9c  00000000  00000000  000563e0  2**2
                  CONTENTS, READONLY, DEBUGGING
 13 .debug_str    00002477  00000000  00000000  00057f7c  2**0
                  CONTENTS, READONLY, DEBUGGING
 14 .debug_loc    0000c469  00000000  00000000  0005a3f3  2**0
                  CONTENTS, READONLY, DEBUGGING
 15 .debug_alt_sim_info 00000020  00000000  00000000  0006685c  2**2
                  CONTENTS, READONLY, DEBUGGING
 16 .debug_ranges 00000a98  00000000  00000000  00066880  2**3
                  CONTENTS, READONLY, DEBUGGING
 17 .thread_model 00000003  00000000  00000000  0006a6e5  2**0
                  CONTENTS, READONLY
 18 .cpu          0000000c  00000000  00000000  0006a6e8  2**0
                  CONTENTS, READONLY
 19 .qsys         00000001  00000000  00000000  0006a6f4  2**0
                  CONTENTS, READONLY
 20 .simulation_enabled 00000001  00000000  00000000  0006a6f5  2**0
                  CONTENTS, READONLY
 21 .stderr_dev   0000000b  00000000  00000000  0006a6f6  2**0
                  CONTENTS, READONLY
 22 .stdin_dev    0000000b  00000000  00000000  0006a701  2**0
                  CONTENTS, READONLY
 23 .stdout_dev   0000000b  00000000  00000000  0006a70c  2**0
                  CONTENTS, READONLY
 24 .sopc_system_name 00000007  00000000  00000000  0006a717  2**0
                  CONTENTS, READONLY
 25 .quartus_project_dir 0000001f  00000000  00000000  0006a71e  2**0
                  CONTENTS, READONLY
 26 .sopcinfo     00047402  00000000  00000000  0006a73d  2**0
                  CONTENTS, READONLY
SYMBOL TABLE:
01000000 l    d  .entry	00000000 .entry
01000020 l    d  .exceptions	00000000 .exceptions
010001b4 l    d  .text	00000000 .text
0100da8c l    d  .rodata	00000000 .rodata
0100de28 l    d  .rwdata	00000000 .rwdata
01011338 l    d  .bss	00000000 .bss
00000000 l    d  .comment	00000000 .comment
00000000 l    d  .debug_aranges	00000000 .debug_aranges
00000000 l    d  .debug_pubnames	00000000 .debug_pubnames
00000000 l    d  .debug_info	00000000 .debug_info
00000000 l    d  .debug_abbrev	00000000 .debug_abbrev
00000000 l    d  .debug_line	00000000 .debug_line
00000000 l    d  .debug_frame	00000000 .debug_frame
00000000 l    d  .debug_str	00000000 .debug_str
00000000 l    d  .debug_loc	00000000 .debug_loc
00000000 l    d  .debug_alt_sim_info	00000000 .debug_alt_sim_info
00000000 l    d  .debug_ranges	00000000 .debug_ranges
010001ec l       .text	00000000 alt_after_alt_main
00000000 l    df *ABS*	00000000 alt_irq_handler.c
00000000 l    df *ABS*	00000000 Interval_Timer.c
00000000 l    df *ABS*	00000000 fp-bit.c
00000000 l    df *ABS*	00000000 fp-bit.c
00000000 l    df *ABS*	00000000 fp-bit.c
00000000 l    df *ABS*	00000000 fp-bit.c
00000000 l    df *ABS*	00000000 fp-bit.c
00000000 l    df *ABS*	00000000 dp-bit.c
00000000 l    df *ABS*	00000000 lib2-mul.c
00000000 l    df *ABS*	00000000 libgcc2.c
00000000 l    df *ABS*	00000000 fp-bit.c
00000000 l    df *ABS*	00000000 fp-bit.c
00000000 l    df *ABS*	00000000 dp-bit.c
00000000 l    df *ABS*	00000000 libgcc2.c
00000000 l    df *ABS*	00000000 printf.c
00000000 l    df *ABS*	00000000 rand.c
00000000 l    df *ABS*	00000000 time.c
00000000 l    df *ABS*	00000000 vfprintf.c
010011e8 l     F .text	00000058 __sprint_r
0100dc40 l     O .rodata	00000010 blanks.3452
0100dc30 l     O .rodata	00000010 zeroes.3453
00000000 l    df *ABS*	00000000 wsetup.c
00000000 l    df *ABS*	00000000 dtoa.c
01003264 l     F .text	00000244 quorem
00000000 l    df *ABS*	00000000 fflush.c
00000000 l    df *ABS*	00000000 findfp.c
01004c8c l     F .text	00000058 std
01004d98 l     F .text	00000008 __fp_lock
01004da0 l     F .text	00000008 __fp_unlock
00000000 l    df *ABS*	00000000 mallocr.c
00000000 l    df *ABS*	00000000 fvwrite.c
00000000 l    df *ABS*	00000000 fwalk.c
00000000 l    df *ABS*	00000000 gettimeofdayr.c
00000000 l    df *ABS*	00000000 impure.c
0100de28 l     O .rwdata	00000400 impure_data
00000000 l    df *ABS*	00000000 int_errno.c
00000000 l    df *ABS*	00000000 locale.c
0100f87c l     O .rwdata	00000004 charset
0100dc74 l     O .rodata	00000030 lconv
00000000 l    df *ABS*	00000000 makebuf.c
00000000 l    df *ABS*	00000000 mallocr.c
00000000 l    df *ABS*	00000000 memchr.c
00000000 l    df *ABS*	00000000 memcpy.c
00000000 l    df *ABS*	00000000 memmove.c
00000000 l    df *ABS*	00000000 memset.c
00000000 l    df *ABS*	00000000 mprec.c
0100ddbc l     O .rodata	0000000c p05.2458
00000000 l    df *ABS*	00000000 mallocr.c
00000000 l    df *ABS*	00000000 s_isinfd.c
00000000 l    df *ABS*	00000000 s_isnand.c
00000000 l    df *ABS*	00000000 sbrkr.c
00000000 l    df *ABS*	00000000 stdio.c
00000000 l    df *ABS*	00000000 strcmp.c
00000000 l    df *ABS*	00000000 strlen.c
00000000 l    df *ABS*	00000000 writer.c
00000000 l    df *ABS*	00000000 mallocr.c
00000000 l    df *ABS*	00000000 closer.c
00000000 l    df *ABS*	00000000 fclose.c
00000000 l    df *ABS*	00000000 fstatr.c
00000000 l    df *ABS*	00000000 isattyr.c
00000000 l    df *ABS*	00000000 lseekr.c
00000000 l    df *ABS*	00000000 readr.c
00000000 l    df *ABS*	00000000 libgcc2.c
00000000 l    df *ABS*	00000000 libgcc2.c
00000000 l    df *ABS*	00000000 libgcc2.c
00000000 l    df *ABS*	00000000 dp-bit.c
01009358 l     F .text	00000410 _fpadd_parts
00000000 l    df *ABS*	00000000 dp-bit.c
00000000 l    df *ABS*	00000000 dp-bit.c
00000000 l    df *ABS*	00000000 dp-bit.c
00000000 l    df *ABS*	00000000 dp-bit.c
00000000 l    df *ABS*	00000000 dp-bit.c
00000000 l    df *ABS*	00000000 dp-bit.c
00000000 l    df *ABS*	00000000 dp-bit.c
00000000 l    df *ABS*	00000000 dp-bit.c
00000000 l    df *ABS*	00000000 dp-bit.c
00000000 l    df *ABS*	00000000 dp-bit.c
00000000 l    df *ABS*	00000000 dp-bit.c
00000000 l    df *ABS*	00000000 lib2-divmod.c
0100a484 l     F .text	0000007c udivmodsi4
00000000 l    df *ABS*	00000000 dp-bit.c
00000000 l    df *ABS*	00000000 dp-bit.c
00000000 l    df *ABS*	00000000 alt_close.c
0100a8d0 l     F .text	00000060 alt_get_errno
00000000 l    df *ABS*	00000000 alt_dev.c
0100a930 l     F .text	0000002c alt_dev_null_write
00000000 l    df *ABS*	00000000 alt_errno.c
00000000 l    df *ABS*	00000000 alt_fstat.c
0100aa34 l     F .text	00000060 alt_get_errno
00000000 l    df *ABS*	00000000 alt_gettod.c
00000000 l    df *ABS*	00000000 alt_isatty.c
0100ad74 l     F .text	00000060 alt_get_errno
00000000 l    df *ABS*	00000000 alt_load.c
0100ae54 l     F .text	0000006c alt_load_section
00000000 l    df *ABS*	00000000 alt_lseek.c
0100afb4 l     F .text	00000060 alt_get_errno
00000000 l    df *ABS*	00000000 alt_main.c
00000000 l    df *ABS*	00000000 alt_malloc_lock.c
00000000 l    df *ABS*	00000000 alt_read.c
0100b1e4 l     F .text	00000060 alt_get_errno
00000000 l    df *ABS*	00000000 alt_release_fd.c
00000000 l    df *ABS*	00000000 alt_sbrk.c
0100f8a0 l     O .rwdata	00000004 heap_end
00000000 l    df *ABS*	00000000 alt_tick.c
00000000 l    df *ABS*	00000000 alt_write.c
0100b640 l     F .text	00000060 alt_get_errno
00000000 l    df *ABS*	00000000 alt_sys_init.c
0100e7e4 l     O .rwdata	00001060 jtag_uart_0
0100f844 l     O .rwdata	0000002c character_lcd_0
0100b754 l     F .text	00000038 alt_dev_reg
00000000 l    df *ABS*	00000000 altera_avalon_jtag_uart_fd.c
00000000 l    df *ABS*	00000000 altera_avalon_jtag_uart_init.c
0100b994 l     F .text	00000228 altera_avalon_jtag_uart_irq
0100bbbc l     F .text	000000b0 altera_avalon_jtag_uart_timeout
00000000 l    df *ABS*	00000000 altera_avalon_jtag_uart_ioctl.c
00000000 l    df *ABS*	00000000 altera_avalon_jtag_uart_read.c
00000000 l    df *ABS*	00000000 altera_avalon_jtag_uart_write.c
00000000 l    df *ABS*	00000000 altera_avalon_timer_ts.c
00000000 l    df *ABS*	00000000 altera_avalon_timer_vars.c
00000000 l    df *ABS*	00000000 altera_up_avalon_character_lcd.c
00000000 l    df *ABS*	00000000 alt_alarm_start.c
00000000 l    df *ABS*	00000000 alt_dcache_flush_all.c
00000000 l    df *ABS*	00000000 alt_dev_llist_insert.c
0100caf4 l     F .text	00000060 alt_get_errno
00000000 l    df *ABS*	00000000 alt_do_ctors.c
00000000 l    df *ABS*	00000000 alt_do_dtors.c
00000000 l    df *ABS*	00000000 alt_find_dev.c
00000000 l    df *ABS*	00000000 alt_icache_flush_all.c
00000000 l    df *ABS*	00000000 alt_iic.c
00000000 l    df *ABS*	00000000 alt_iic_isr_register.c
00000000 l    df *ABS*	00000000 alt_io_redirect.c
0100cfac l     F .text	000000d8 alt_open_fd
00000000 l    df *ABS*	00000000 alt_irq_vars.c
00000000 l    df *ABS*	00000000 alt_open.c
0100d0fc l     F .text	000000f8 alt_file_locked
0100d380 l     F .text	00000060 alt_get_errno
00000000 l    df *ABS*	00000000 altera_nios2_qsys_irq.c
00000000 l    df *ABS*	00000000 alt_find_file.c
00000000 l    df *ABS*	00000000 alt_get_fd.c
00000000 l    df *ABS*	00000000 alt_icache_flush.c
00000000 l    df *ABS*	00000000 atexit.c
00000000 l    df *ABS*	00000000 exit.c
00000000 l    df *ABS*	00000000 memcmp.c
00000000 l    df *ABS*	00000000 __atexit.c
00000000 l    df *ABS*	00000000 __call_atexit.c
0100d874 l     F .text	00000004 register_fini
00000000 l    df *ABS*	00000000 alt_exit.c
0100da28 l     F .text	00000040 alt_sim_halt
01006af0 g     F .text	00000094 _mprec_log10
01006bdc g     F .text	00000088 __any_on
01008408 g     F .text	00000070 _isatty_r
0100dd94 g     O .rodata	00000028 __mprec_tinytens
0100b014 g     F .text	0000006c alt_main
010113ac g     O .bss	00000100 alt_irq
01008478 g     F .text	00000078 _lseek_r
0100f8b0 g       *ABS*	00000000 __flash_rwdata_start
0100c41c g     F .text	00000034 alt_up_character_lcd_send_cmd
01009e78 g     F .text	00000088 __eqdf2
010059dc g     F .text	00000074 _gettimeofday_r
0101163c g       *ABS*	00000000 __alt_heap_start
01001080 g     F .text	00000044 printf
01007e4c g     F .text	00000068 __sseek
01004cf4 g     F .text	000000a4 __sinit
01005a74 g     F .text	00000084 _setlocale_r
01004df4 g     F .text	0000009c __sfmoreglue
0100b0a0 g     F .text	00000020 __malloc_unlock
01000734 g     F .text	00000174 __divsf3
0101137c g     O .bss	00000004 altera_avalon_timer_ts_freq
0100656c g     F .text	000000e0 memmove
01004de4 g     F .text	00000010 _cleanup
01006c64 g     F .text	000000bc _Balloc
01009f88 g     F .text	00000088 __gtdf2
00000000  w      *UND*	00000000 __errno
0100c3a0 g     F .text	0000007c get_DDRAM_addr
01000000 g     F .entry	0000001c __reset
01000020 g       *ABS*	00000000 __flash_exceptions_start
01008394 g     F .text	00000074 _fstat_r
01011338 g     O .bss	00000004 errno
01000a54 g     F .text	00000038 __make_dp
01011368 g     O .bss	00000004 alt_argv
01017870 g       *ABS*	00000000 _gp
0100e664 g     O .rwdata	00000180 alt_fd_list
0100cc1c g     F .text	00000094 alt_find_dev
010064cc g     F .text	000000a0 memcpy
0100c5b4 g     F .text	0000004c alt_up_character_lcd_write_fd
01004dd8 g     F .text	0000000c _cleanup_r
0100a120 g     F .text	000000f8 __floatsidf
0100d084 g     F .text	00000078 alt_io_redirect
0100a098 g     F .text	00000088 __ltdf2
0100da8c g       *ABS*	00000000 __DTOR_END__
01006a40 g     F .text	000000b0 __ratio
0100bdd4 g     F .text	00000224 altera_avalon_jtag_uart_read
00000000  w      *UND*	00000000 malloc
010010c4 g     F .text	00000034 _printf_r
00000000 g       *ABS*	00000000 __alt_mem_onchip_memory2_0
0100a5c0 g     F .text	00000008 __udivsi3
0100acb0 g     F .text	000000c4 isatty
0100dca4 g     O .rodata	000000c8 __mprec_tens
01005a50 g     F .text	00000008 __locale_charset
01011354 g     O .bss	00000008 alt_timezone
0100d5f0 g     F .text	00000090 alt_icache_flush
01011348 g     O .bss	00000004 __malloc_top_pad
0100f878 g     O .rwdata	00000004 __mb_cur_max
01005a58 g     F .text	0000000c _localeconv_r
010073c8 g     F .text	0000003c __i2b
010053c0 g     F .text	0000049c __sfvwrite_r
01007dd4 g     F .text	00000070 _sbrk_r
010084f0 g     F .text	00000078 _read_r
0100e228 g     O .rwdata	0000000c __lc_ctype
0100f898 g     O .rwdata	00000004 alt_max_fd
0100a5d0 g     F .text	00000138 __unpack_d
01008270 g     F .text	00000110 _fclose_r
01004c58 g     F .text	00000034 fflush
0101134c g     O .bss	00000004 __malloc_max_sbrked_mem
01000940 g     F .text	00000054 __extendsfdf2
010097e8 g     F .text	00000074 __adddf3
01006920 g     F .text	00000120 __b2d
01008cf8 g     F .text	00000660 __umoddi3
0100aec0 g     F .text	000000f4 lseek
0100f874 g     O .rwdata	00000004 _global_impure_ptr
01007770 g     F .text	000005f4 _realloc_r
0101163c g       *ABS*	00000000 __bss_end
0100ceb4 g     F .text	000000f8 alt_iic_isr_register
0100b410 g     F .text	0000010c alt_tick
0100868c g     F .text	0000066c __udivdi3
0100dd6c g     O .rodata	00000028 __mprec_bigtens
01007650 g     F .text	00000120 __s2b
0100a2f0 g     F .text	00000194 __floatunsidf
01006840 g     F .text	00000060 __mcmp
01004dc0 g     F .text	00000018 __fp_lock_all
0100ce6c g     F .text	00000048 alt_ic_irq_enabled
0100b378 g     F .text	00000098 alt_alarm_stop
01011380 g     O .bss	00000004 alt_irq_active
010000ec g     F .exceptions	000000c8 alt_irq_handler
0100e63c g     O .rwdata	00000028 alt_dev_null
01000ca4 g     F .text	000000c8 __unpack_f
0100c89c g     F .text	00000034 alt_up_character_lcd_cursor_blink_on
0100ca24 g     F .text	0000001c alt_dcache_flush_all
0100670c g     F .text	00000070 __hi0bits
0100a218 g     F .text	000000d8 __fixdfsi
0100f8b0 g       *ABS*	00000000 __ram_rwdata_end
0100f890 g     O .rwdata	00000008 alt_dev_list
0100b51c g     F .text	00000124 write
0100c378 g     F .text	00000028 alt_timestamp_freq
0100de28 g       *ABS*	00000000 __ram_rodata_end
0100a95c g     F .text	000000d8 fstat
01007530 g     F .text	00000120 __pow5mult
0101133c g     O .bss	00000004 __nlocale_changed
0100a5c8 g     F .text	00000008 __umodsi3
0101163c g       *ABS*	00000000 end
01000b44 g     F .text	00000160 __pack_f
0100b8d4 g     F .text	000000c0 altera_avalon_jtag_uart_init
0100da88 g       *ABS*	00000000 __CTOR_LIST__
01800000 g       *ABS*	00000000 __alt_stack_pointer
01000ac4 g     F .text	00000080 __clzsi2
0100bff8 g     F .text	00000240 altera_avalon_jtag_uart_write
01004ce4 g     F .text	00000004 __sfp_lock_acquire
010063e8 g     F .text	000000e4 memchr
0100c4c4 g     F .text	00000078 alt_up_character_lcd_write
01001240 g     F .text	00001ec4 ___vfprintf_internal_r
010050ac g     F .text	00000314 _free_r
0100d878 g     F .text	000001b0 __call_exitprocs
01011340 g     O .bss	00000004 __mlocale_changed
0100f884 g     O .rwdata	00000004 __malloc_sbrk_base
010001b4 g     F .text	0000003c _start
01011370 g     O .bss	00000004 _alt_tick_rate
01001114 g     F .text	00000078 rand
01007028 g     F .text	0000014c __lshift
01011374 g     O .bss	00000004 _alt_nticks
0100b0c0 g     F .text	00000124 read
0100b6d4 g     F .text	00000080 alt_sys_init
0100c728 g     F .text	000000b0 alt_up_character_lcd_shift_display
010008a8 g     F .text	00000098 __floatsisf
0100d740 g     F .text	00000134 __register_exitproc
01007174 g     F .text	00000254 __multiply
0100c7d8 g     F .text	00000090 alt_up_character_lcd_erase_pos
0100bc6c g     F .text	00000074 altera_avalon_jtag_uart_close
01000a8c g     F .text	00000038 __mulsi3
0100de28 g       *ABS*	00000000 __ram_rwdata_start
0100da8c g       *ABS*	00000000 __ram_rodata_start
01011384 g     O .bss	00000028 __malloc_current_mallinfo
01006d20 g     F .text	0000017c __d2b
0100b78c g     F .text	00000058 altera_avalon_jtag_uart_read_fd
0100d520 g     F .text	000000d0 alt_get_fd
0100a708 g     F .text	000000c8 __fpcmp_parts_d
01008200 g     F .text	00000070 _close_r
0100d6cc g     F .text	00000074 memcmp
0100b83c g     F .text	00000048 altera_avalon_jtag_uart_close_fd
0101163c g       *ABS*	00000000 __alt_stack_base
0100b884 g     F .text	00000050 altera_avalon_jtag_uart_ioctl_fd
01003128 g     F .text	0000013c __swsetup_r
01009c20 g     F .text	00000258 __divdf3
01004e90 g     F .text	000000f0 __sfp
01006b84 g     F .text	00000058 __copybits
0100e234 g     O .rwdata	00000408 __malloc_av_
01004cf0 g     F .text	00000004 __sinit_lock_release
0100985c g     F .text	000003c4 __muldf3
01007f30 g     F .text	00000060 __sread
0100dac0 g     O .rodata	00000010 __thenan_sf
0100d400 g     F .text	00000120 alt_find_file
0100ca40 g     F .text	000000b4 alt_dev_llist_insert
0100b080 g     F .text	00000020 __malloc_lock
0100b2bc g     F .text	000000bc sbrk
01004a5c g     F .text	000001fc _fflush_r
01008138 g     F .text	000000c8 _calloc_r
0100aa94 g     F .text	0000021c gettimeofday
01011338 g       *ABS*	00000000 __bss_start
0100664c g     F .text	00000098 memset
010001f0 g     F .text	00000544 main
0101136c g     O .bss	00000004 alt_envp
01011350 g     O .bss	00000004 __malloc_max_total_mem
0100b7e4 g     F .text	00000058 altera_avalon_jtag_uart_write_fd
010010f8 g     F .text	0000001c srand
0100c678 g     F .text	000000b0 alt_up_character_lcd_shift_cursor
01007e44 g     F .text	00000008 __sclose
01800000 g       *ABS*	00000000 __alt_heap_limit
01008380 g     F .text	00000014 fclose
0100c238 g     F .text	000000a4 alt_timestamp_start
010114ac g     O .bss	00000190 _atexit0
010034a8 g     F .text	000015b4 _dtoa_r
01005ca8 g     F .text	00000740 _malloc_r
0100118c g     F .text	0000005c time
0100f89c g     O .rwdata	00000004 alt_errno
01005924 g     F .text	000000b8 _fwalk
0100a500 g     F .text	00000060 __divsi3
0100ddc8 g     O .rodata	00000014 __thenan_df
0100c484 g     F .text	00000040 alt_up_character_lcd_open_dev
01004f80 g     F .text	0000012c _malloc_trim_r
0100da8c g       *ABS*	00000000 __CTOR_END__
0100c450 g     F .text	00000034 alt_up_character_lcd_init
01007f90 g     F .text	000000bc strcmp
0100da8c g       *ABS*	00000000 __flash_rodata_start
0100da8c g       *ABS*	00000000 __DTOR_LIST__
01009f00 g     F .text	00000088 __nedf2
0100b6a0 g     F .text	00000034 alt_irq_init
0100b244 g     F .text	00000078 alt_release_fd
0100c868 g     F .text	00000034 alt_up_character_lcd_cursor_off
0100dad0 g     O .rodata	00000100 __clz_tab
01011344 g     O .bss	00000004 _PathLocale
0100d680 g     F .text	00000014 atexit
010080c0 g     F .text	00000078 _write_r
01005af8 g     F .text	0000001c setlocale
0100f870 g     O .rwdata	00000004 _impure_ptr
01011364 g     O .bss	00000004 alt_argc
01011378 g     O .bss	00000004 altera_avalon_timer_ts_base
0100cbb8 g     F .text	00000064 _do_dtors
01000020 g       .exceptions	00000000 alt_irq_entry
010068a0 g     F .text	00000080 __ulp
01007d64 g     F .text	00000040 __isinfd
01004da8 g     F .text	00000018 __fp_unlock_all
0100f888 g     O .rwdata	00000008 alt_fs_list
0101135c g     O .bss	00000008 alt_resettime
01000020 g       *ABS*	00000000 __ram_exceptions_start
01005a64 g     F .text	00000010 localeconv
0100c2dc g     F .text	0000009c alt_timestamp
0100cce0 g     F .text	00000050 alt_ic_isr_register
0100f8b0 g       *ABS*	00000000 _edata
0101163c g       *ABS*	00000000 _end
010001b4 g       *ABS*	00000000 __ram_exceptions_end
0100bce0 g     F .text	000000f4 altera_avalon_jtag_uart_ioctl
0100cdcc g     F .text	000000a0 alt_ic_irq_disable
01007eb4 g     F .text	0000007c __swrite
0100f880 g     O .rwdata	00000004 __malloc_trim_threshold
0100d3e0 g     F .text	00000020 altera_nios2_qsys_irq_init
0100d694 g     F .text	00000038 exit
0100585c g     F .text	000000c8 _fwalk_reent
01000994 g     F .text	000000c0 __floatunsisf
01006e9c g     F .text	0000018c __mdiff
0100a560 g     F .text	00000060 __modsi3
01800000 g       *ABS*	00000000 __alt_data_end
01000020 g     F .exceptions	00000000 alt_exception
01004ce8 g     F .text	00000004 __sfp_lock_release
01000000 g       *ABS*	00000000 __alt_mem_sdram
0100c53c g     F .text	00000078 alt_up_character_lcd_string
0100da68 g     F .text	00000020 _exit
01007da4 g     F .text	00000030 __isnand
0100c8d0 g     F .text	00000154 alt_alarm_start
01008568 g     F .text	00000124 __muldi3
01005b14 g     F .text	00000194 __smakebuf_r
0100804c g     F .text	00000074 strlen
0100d1f4 g     F .text	0000018c open
0100a010 g     F .text	00000088 __gedf2
0100ccb0 g     F .text	00000030 alt_icache_flush_all
0100c600 g     F .text	00000078 alt_up_character_lcd_set_cursor_pos
0100f8ac g     O .rwdata	00000004 alt_priority_mask
0100cd30 g     F .text	0000009c alt_ic_irq_enable
01003104 g     F .text	00000024 __vfprintf_internal
01009768 g     F .text	00000080 __subdf3
0100677c g     F .text	000000c4 __lo0bits
0100f8a4 g     O .rwdata	00000008 alt_alarm_list
0100cb54 g     F .text	00000064 _do_ctors
0100a7d0 g     F .text	00000100 close
0100add4 g     F .text	00000080 alt_load
01000d6c g     F .text	00000314 __pack_d
00000000  w      *UND*	00000000 free
01004cec g     F .text	00000004 __sinit_lock_acquire
01007404 g     F .text	0000012c __multadd
010066e4 g     F .text	00000028 _Bfree



Disassembly of section .entry:

01000000 <__reset>:
#if NIOS2_ICACHE_SIZE > 0 && defined(ALT_ALLOW_CODE_AT_RESET) && !defined(ALT_SIM_OPTIMIZE)
    /* Assume the instruction cache size is always a power of two. */
#if NIOS2_ICACHE_SIZE > 0x8000
    movhi r2, %hi(NIOS2_ICACHE_SIZE)
#else
    movui r2, NIOS2_ICACHE_SIZE
 1000000:	00840014 	movui	r2,4096
#endif

0:
    initi r2
 1000004:	1001483a 	initi	r2
    addi r2, r2, -NIOS2_ICACHE_LINE_SIZE
 1000008:	10bff804 	addi	r2,r2,-32
    bgt r2, zero, 0b
 100000c:	00bffd16 	blt	zero,r2,1000004 <__reset+0x4>
 * Jump to the _start entry point in the .text section if reset code
 * is allowed or if optimizing for RTL simulation.
 */
#if defined(ALT_ALLOW_CODE_AT_RESET) || defined(ALT_SIM_OPTIMIZE)
    /* Jump to the _start entry point in the .text section. */
    movhi r1, %hi(_start)
 1000010:	00404034 	movhi	at,256
    ori r1, r1, %lo(_start)
 1000014:	08406d14 	ori	at,at,436
    jmp r1
 1000018:	0800683a 	jmp	at
 100001c:	00000000 	call	0 <__alt_mem_onchip_memory2_0>

Disassembly of section .exceptions:

01000020 <alt_exception>:
         * Process an exception.  For all exceptions we must preserve all
         * caller saved registers on the stack (See the Nios2 ABI
         * documentation for details).
         */

        addi  sp, sp, -76
 1000020:	deffed04 	addi	sp,sp,-76

#endif

#endif

        stw   ra,  0(sp)
 1000024:	dfc00015 	stw	ra,0(sp)
        /*
         * Leave a gap in the stack frame at 4(sp) for the muldiv handler to
         * store zero into.
         */

        stw   r1,   8(sp)
 1000028:	d8400215 	stw	at,8(sp)
        stw   r2,  12(sp)
 100002c:	d8800315 	stw	r2,12(sp)
        stw   r3,  16(sp)
 1000030:	d8c00415 	stw	r3,16(sp)
        stw   r4,  20(sp)
 1000034:	d9000515 	stw	r4,20(sp)
        stw   r5,  24(sp)
 1000038:	d9400615 	stw	r5,24(sp)
        stw   r6,  28(sp)
 100003c:	d9800715 	stw	r6,28(sp)
        stw   r7,  32(sp)
 1000040:	d9c00815 	stw	r7,32(sp)

        rdctl r5, estatus
 1000044:	000b307a 	rdctl	r5,estatus

        stw   r8,  36(sp)
 1000048:	da000915 	stw	r8,36(sp)
        stw   r9,  40(sp)
 100004c:	da400a15 	stw	r9,40(sp)
        stw   r10, 44(sp)
 1000050:	da800b15 	stw	r10,44(sp)
        stw   r11, 48(sp)
 1000054:	dac00c15 	stw	r11,48(sp)
        stw   r12, 52(sp)
 1000058:	db000d15 	stw	r12,52(sp)
        stw   r13, 56(sp)
 100005c:	db400e15 	stw	r13,56(sp)
        stw   r14, 60(sp)
 1000060:	db800f15 	stw	r14,60(sp)
        stw   r15, 64(sp)
 1000064:	dbc01015 	stw	r15,64(sp)
        /*
         * ea-4 contains the address of the instruction being executed
         * when the exception occured. For interrupt exceptions, we will
         * will be re-issue the isntruction. Store it in 72(sp)
         */
        stw   r5,  68(sp)  /* estatus */
 1000068:	d9401115 	stw	r5,68(sp)
        addi  r15, ea, -4  /* instruction that caused exception */
 100006c:	ebffff04 	addi	r15,ea,-4
        stw   r15,  72(sp)
 1000070:	dbc01215 	stw	r15,72(sp)
#else
        /*
         * Test to see if the exception was a software exception or caused 
         * by an external interrupt, and vector accordingly.
         */
        rdctl r4, ipending
 1000074:	0009313a 	rdctl	r4,ipending
        andi  r2, r5, 1
 1000078:	2880004c 	andi	r2,r5,1
        beq   r2, zero, .Lnot_irq
 100007c:	10000326 	beq	r2,zero,100008c <alt_exception+0x6c>
        beq   r4, zero, .Lnot_irq
 1000080:	20000226 	beq	r4,zero,100008c <alt_exception+0x6c>
        /*
         * Now that all necessary registers have been preserved, call 
         * alt_irq_handler() to process the interrupts.
         */

        call alt_irq_handler
 1000084:	10000ec0 	call	10000ec <alt_irq_handler>

        .section .exceptions.irqreturn, "xa"

        br    .Lexception_exit
 1000088:	00000306 	br	1000098 <alt_exception+0x78>
         * upon completion, so we write ea (address of instruction *after*
         * the one where the exception occured) into 72(sp). The actual
         * instruction that caused the exception is written in r2, which these
         * handlers will utilize.
         */
        stw   ea,  72(sp)  /* Don't re-issue */
 100008c:	df401215 	stw	ea,72(sp)
        ldw   r2, -4(ea)   /* Instruction that caused exception */
 1000090:	e8bfff17 	ldw	r2,-4(ea)
#ifdef NIOS2_HAS_DEBUG_STUB
       /*
        *  Either tell the user now (if there is a debugger attached) or go into
        *  the debug monitor which will loop until a debugger is attached.
        */
        break
 1000094:	003da03a 	break	0
        /* 
         * Restore the saved registers, so that all general purpose registers 
         * have been restored to their state at the time the interrupt occured.
         */

        ldw   r5,  68(sp)
 1000098:	d9401117 	ldw	r5,68(sp)
        ldw   ea,  72(sp)  /* This becomes the PC once eret is executed */
 100009c:	df401217 	ldw	ea,72(sp)
        ldw   ra,   0(sp)
 10000a0:	dfc00017 	ldw	ra,0(sp)

        wrctl estatus, r5
 10000a4:	2801707a 	wrctl	estatus,r5

        ldw   r1,   8(sp)
 10000a8:	d8400217 	ldw	at,8(sp)
        ldw   r2,  12(sp)
 10000ac:	d8800317 	ldw	r2,12(sp)
        ldw   r3,  16(sp)
 10000b0:	d8c00417 	ldw	r3,16(sp)
        ldw   r4,  20(sp)
 10000b4:	d9000517 	ldw	r4,20(sp)
        ldw   r5,  24(sp)
 10000b8:	d9400617 	ldw	r5,24(sp)
        ldw   r6,  28(sp)
 10000bc:	d9800717 	ldw	r6,28(sp)
        ldw   r7,  32(sp)
 10000c0:	d9c00817 	ldw	r7,32(sp)
#ifdef ALT_STACK_CHECK
        ldw   et, %gprel(alt_exception_old_stack_limit)(gp)
#endif
#endif

        ldw   r8,  36(sp)
 10000c4:	da000917 	ldw	r8,36(sp)
        ldw   r9,  40(sp)
 10000c8:	da400a17 	ldw	r9,40(sp)
        ldw   r10, 44(sp)
 10000cc:	da800b17 	ldw	r10,44(sp)
        ldw   r11, 48(sp)
 10000d0:	dac00c17 	ldw	r11,48(sp)
        ldw   r12, 52(sp)
 10000d4:	db000d17 	ldw	r12,52(sp)
        ldw   r13, 56(sp)
 10000d8:	db400e17 	ldw	r13,56(sp)
        ldw   r14, 60(sp)
 10000dc:	db800f17 	ldw	r14,60(sp)
        ldw   r15, 64(sp)
 10000e0:	dbc01017 	ldw	r15,64(sp)
#endif

        ldw   sp,  76(sp)

#else
        addi  sp, sp, 76
 10000e4:	dec01304 	addi	sp,sp,76

        /*
         * Return to the interrupted instruction.
         */

        eret
 10000e8:	ef80083a 	eret

010000ec <alt_irq_handler>:
 * instruction is present if the macro ALT_CI_INTERRUPT_VECTOR defined.
 */

void alt_irq_handler (void) __attribute__ ((section (".exceptions")));
void alt_irq_handler (void)
{
 10000ec:	defff904 	addi	sp,sp,-28
 10000f0:	dfc00615 	stw	ra,24(sp)
 10000f4:	df000515 	stw	fp,20(sp)
 10000f8:	df000504 	addi	fp,sp,20
#ifndef NIOS2_EIC_PRESENT
static ALT_INLINE alt_u32 ALT_ALWAYS_INLINE alt_irq_pending (void)
{
  alt_u32 active;

  NIOS2_READ_IPENDING (active);
 10000fc:	0005313a 	rdctl	r2,ipending
 1000100:	e0bffc15 	stw	r2,-16(fp)

  return active;
 1000104:	e0bffc17 	ldw	r2,-16(fp)
   * Consider the case where the high priority interupt is asserted during
   * the interrupt entry sequence for a lower priority interrupt to see why
   * this is the case.
   */

  active = alt_irq_pending ();
 1000108:	e0bfff15 	stw	r2,-4(fp)

  do
  {
    i = 0;
 100010c:	e03ffd15 	stw	zero,-12(fp)
    mask = 1;
 1000110:	00800044 	movi	r2,1
 1000114:	e0bffe15 	stw	r2,-8(fp)
     * called to clear the interrupt condition.
     */

    do
    {
      if (active & mask)
 1000118:	e0ffff17 	ldw	r3,-4(fp)
 100011c:	e0bffe17 	ldw	r2,-8(fp)
 1000120:	1884703a 	and	r2,r3,r2
 1000124:	1005003a 	cmpeq	r2,r2,zero
 1000128:	1000161e 	bne	r2,zero,1000184 <alt_irq_handler+0x98>
      { 
#ifdef ALT_ENHANCED_INTERRUPT_API_PRESENT
        alt_irq[i].handler(alt_irq[i].context); 
 100012c:	e0bffd17 	ldw	r2,-12(fp)
 1000130:	00c04074 	movhi	r3,257
 1000134:	18c4eb04 	addi	r3,r3,5036
 1000138:	100490fa 	slli	r2,r2,3
 100013c:	10c5883a 	add	r2,r2,r3
 1000140:	11400017 	ldw	r5,0(r2)
 1000144:	e0bffd17 	ldw	r2,-12(fp)
 1000148:	00c04074 	movhi	r3,257
 100014c:	18c4eb04 	addi	r3,r3,5036
 1000150:	100490fa 	slli	r2,r2,3
 1000154:	10c5883a 	add	r2,r2,r3
 1000158:	10800104 	addi	r2,r2,4
 100015c:	11000017 	ldw	r4,0(r2)
 1000160:	283ee83a 	callr	r5
#ifndef NIOS2_EIC_PRESENT
static ALT_INLINE alt_u32 ALT_ALWAYS_INLINE alt_irq_pending (void)
{
  alt_u32 active;

  NIOS2_READ_IPENDING (active);
 1000164:	0005313a 	rdctl	r2,ipending
 1000168:	e0bffb15 	stw	r2,-20(fp)

  return active;
 100016c:	e0bffb17 	ldw	r2,-20(fp)
      mask <<= 1;
      i++;

    } while (1);

    active = alt_irq_pending ();
 1000170:	e0bfff15 	stw	r2,-4(fp)
    
  } while (active);
 1000174:	e0bfff17 	ldw	r2,-4(fp)
 1000178:	1004c03a 	cmpne	r2,r2,zero
 100017c:	103fe31e 	bne	r2,zero,100010c <alt_irq_handler+0x20>
 1000180:	00000706 	br	10001a0 <alt_irq_handler+0xb4>
#else
        alt_irq[i].handler(alt_irq[i].context, i); 
#endif
        break;
      }
      mask <<= 1;
 1000184:	e0bffe17 	ldw	r2,-8(fp)
 1000188:	1085883a 	add	r2,r2,r2
 100018c:	e0bffe15 	stw	r2,-8(fp)
      i++;
 1000190:	e0bffd17 	ldw	r2,-12(fp)
 1000194:	10800044 	addi	r2,r2,1
 1000198:	e0bffd15 	stw	r2,-12(fp)

    } while (1);
 100019c:	003fde06 	br	1000118 <alt_irq_handler+0x2c>
  /*
   * Notify the operating system that interrupt processing is complete.
   */ 

  ALT_OS_INT_EXIT();
}
 10001a0:	e037883a 	mov	sp,fp
 10001a4:	dfc00117 	ldw	ra,4(sp)
 10001a8:	df000017 	ldw	fp,0(sp)
 10001ac:	dec00204 	addi	sp,sp,8
 10001b0:	f800283a 	ret

Disassembly of section .text:

010001b4 <_start>:
#if (NIOS2_NUM_OF_SHADOW_REG_SETS == 0)    
    /*
     * Now that the caches are initialized, set up the stack pointer.
     * The value provided by the linker is assumed to be correctly aligned.
     */
    movhi sp, %hi(__alt_stack_pointer)
 10001b4:	06c06034 	movhi	sp,384
    ori sp, sp, %lo(__alt_stack_pointer)
 10001b8:	dec00014 	ori	sp,sp,0

    /* Set up the global pointer. */
    movhi gp, %hi(_gp)
 10001bc:	06804074 	movhi	gp,257
    ori gp, gp, %lo(_gp)
 10001c0:	d69e1c14 	ori	gp,gp,30832
 */
#ifndef ALT_SIM_OPTIMIZE
    /* Log that the BSS is about to be cleared. */
    ALT_LOG_PUTS(alt_log_msg_bss)

    movhi r2, %hi(__bss_start)
 10001c4:	00804074 	movhi	r2,257
    ori r2, r2, %lo(__bss_start)
 10001c8:	1084ce14 	ori	r2,r2,4920

    movhi r3, %hi(__bss_end)
 10001cc:	00c04074 	movhi	r3,257
    ori r3, r3, %lo(__bss_end)
 10001d0:	18c58f14 	ori	r3,r3,5692

    beq r2, r3, 1f
 10001d4:	10c00326 	beq	r2,r3,10001e4 <_start+0x30>

0:
    stw zero, (r2)
 10001d8:	10000015 	stw	zero,0(r2)
    addi r2, r2, 4
 10001dc:	10800104 	addi	r2,r2,4
    bltu r2, r3, 0b
 10001e0:	10fffd36 	bltu	r2,r3,10001d8 <_start+0x24>
     * section aren't defined until alt_load() has been called).
     */
    mov   et, zero
#endif

    call alt_load
 10001e4:	100add40 	call	100add4 <alt_load>

    /* Log that alt_main is about to be called. */
    ALT_LOG_PUTS(alt_log_msg_alt_main)

    /* Call the C entry point. It should never return. */
    call alt_main
 10001e8:	100b0140 	call	100b014 <alt_main>

010001ec <alt_after_alt_main>:

    /* Wait in infinite loop in case alt_main does return. */
alt_after_alt_main:
    br alt_after_alt_main
 10001ec:	003fff06 	br	10001ec <alt_after_alt_main>

010001f0 <main>:
#include <stdio.h>
#include "sys/alt_timestamp.h"
#include "altera_up_avalon_character_lcd.h"
#include <time.h>
int main()
{
 10001f0:	defffa04 	addi	sp,sp,-24
 10001f4:	dfc00515 	stw	ra,20(sp)
 10001f8:	df000415 	stw	fp,16(sp)
 10001fc:	dcc00315 	stw	r19,12(sp)
 1000200:	dc800215 	stw	r18,8(sp)
 1000204:	dc400115 	stw	r17,4(sp)
 1000208:	dc000015 	stw	r16,0(sp)
 100020c:	d839883a 	mov	fp,sp
 1000210:	023fffb4 	movhi	r8,65534
 1000214:	420ac604 	addi	r8,r8,11032
 1000218:	da37883a 	add	sp,sp,r8
	  int sum;
	  int start_time;
	  int end_time;
	  float freq;
  //for random num generation
	  srand(time(NULL));
 100021c:	0009883a 	mov	r4,zero
 1000220:	100118c0 	call	100118c <time>
 1000224:	1009883a 	mov	r4,r2
 1000228:	10010f80 	call	10010f8 <srand>
  	  alt_up_character_lcd_dev* d = alt_up_character_lcd_open_dev("/dev/character_lcd_0");
  	  alt_up_character_lcd_init(d);
  	  alt_up_character_lcd_string(d, yala);*/

  	  //random 100x100 matrix gen
	  for(x = 0; x < 100; x++) {
 100022c:	00bfffb4 	movhi	r2,65534
 1000230:	108acf04 	addi	r2,r2,11068
 1000234:	1705883a 	add	r2,r2,fp
 1000238:	10000015 	stw	zero,0(r2)
 100023c:	00003306 	br	100030c <main+0x11c>
		  for(y = 0; y < 100; y++)
 1000240:	00ffffb4 	movhi	r3,65534
 1000244:	18cace04 	addi	r3,r3,11064
 1000248:	1f07883a 	add	r3,r3,fp
 100024c:	18000015 	stw	zero,0(r3)
 1000250:	00001f06 	br	10002d0 <main+0xe0>
			  a[x][y] = rand();
 1000254:	013fffb4 	movhi	r4,65534
 1000258:	210acf04 	addi	r4,r4,11068
 100025c:	2709883a 	add	r4,r4,fp
 1000260:	24000017 	ldw	r16,0(r4)
 1000264:	00bfffb4 	movhi	r2,65534
 1000268:	108ace04 	addi	r2,r2,11064
 100026c:	1705883a 	add	r2,r2,fp
 1000270:	14400017 	ldw	r17,0(r2)
 1000274:	10011140 	call	1001114 <rand>
 1000278:	1025883a 	mov	r18,r2
 100027c:	8009883a 	mov	r4,r16
 1000280:	01401904 	movi	r5,100
 1000284:	1000a8c0 	call	1000a8c <__mulsi3>
 1000288:	1445883a 	add	r2,r2,r17
 100028c:	1085883a 	add	r2,r2,r2
 1000290:	1085883a 	add	r2,r2,r2
 1000294:	00ffffb4 	movhi	r3,65534
 1000298:	18cac604 	addi	r3,r3,11032
 100029c:	1f07883a 	add	r3,r3,fp
 10002a0:	10c5883a 	add	r2,r2,r3
 10002a4:	10800a04 	addi	r2,r2,40
 10002a8:	14800015 	stw	r18,0(r2)
  	  alt_up_character_lcd_init(d);
  	  alt_up_character_lcd_string(d, yala);*/

  	  //random 100x100 matrix gen
	  for(x = 0; x < 100; x++) {
		  for(y = 0; y < 100; y++)
 10002ac:	013fffb4 	movhi	r4,65534
 10002b0:	210ace04 	addi	r4,r4,11064
 10002b4:	2709883a 	add	r4,r4,fp
 10002b8:	20800017 	ldw	r2,0(r4)
 10002bc:	10800044 	addi	r2,r2,1
 10002c0:	00ffffb4 	movhi	r3,65534
 10002c4:	18cace04 	addi	r3,r3,11064
 10002c8:	1f07883a 	add	r3,r3,fp
 10002cc:	18800015 	stw	r2,0(r3)
 10002d0:	013fffb4 	movhi	r4,65534
 10002d4:	210ace04 	addi	r4,r4,11064
 10002d8:	2709883a 	add	r4,r4,fp
 10002dc:	20800017 	ldw	r2,0(r4)
 10002e0:	10801910 	cmplti	r2,r2,100
 10002e4:	103fdb1e 	bne	r2,zero,1000254 <main+0x64>
  	  alt_up_character_lcd_dev* d = alt_up_character_lcd_open_dev("/dev/character_lcd_0");
  	  alt_up_character_lcd_init(d);
  	  alt_up_character_lcd_string(d, yala);*/

  	  //random 100x100 matrix gen
	  for(x = 0; x < 100; x++) {
 10002e8:	00ffffb4 	movhi	r3,65534
 10002ec:	18cacf04 	addi	r3,r3,11068
 10002f0:	1f07883a 	add	r3,r3,fp
 10002f4:	18800017 	ldw	r2,0(r3)
 10002f8:	10800044 	addi	r2,r2,1
 10002fc:	013fffb4 	movhi	r4,65534
 1000300:	210acf04 	addi	r4,r4,11068
 1000304:	2709883a 	add	r4,r4,fp
 1000308:	20800015 	stw	r2,0(r4)
 100030c:	00ffffb4 	movhi	r3,65534
 1000310:	18cacf04 	addi	r3,r3,11068
 1000314:	1f07883a 	add	r3,r3,fp
 1000318:	18800017 	ldw	r2,0(r3)
 100031c:	10801910 	cmplti	r2,r2,100
 1000320:	103fc71e 	bne	r2,zero,1000240 <main+0x50>
		  for(y = 0; y < 100; y++)
			  a[x][y] = rand();
	  }
	  for(x = 0; x < 100; x++) {
 1000324:	013fffb4 	movhi	r4,65534
 1000328:	210acf04 	addi	r4,r4,11068
 100032c:	2709883a 	add	r4,r4,fp
 1000330:	20000015 	stw	zero,0(r4)
 1000334:	00003406 	br	1000408 <main+0x218>
			for(y = 0; y < 100; y++)
 1000338:	00bfffb4 	movhi	r2,65534
 100033c:	108ace04 	addi	r2,r2,11064
 1000340:	1705883a 	add	r2,r2,fp
 1000344:	10000015 	stw	zero,0(r2)
 1000348:	00002006 	br	10003cc <main+0x1dc>
				b[x][y] = rand();
 100034c:	00ffffb4 	movhi	r3,65534
 1000350:	18cacf04 	addi	r3,r3,11068
 1000354:	1f07883a 	add	r3,r3,fp
 1000358:	1c000017 	ldw	r16,0(r3)
 100035c:	013fffb4 	movhi	r4,65534
 1000360:	210ace04 	addi	r4,r4,11064
 1000364:	2709883a 	add	r4,r4,fp
 1000368:	24400017 	ldw	r17,0(r4)
 100036c:	10011140 	call	1001114 <rand>
 1000370:	1027883a 	mov	r19,r2
 1000374:	00a71a14 	movui	r2,40040
 1000378:	00ffffb4 	movhi	r3,65534
 100037c:	18cac604 	addi	r3,r3,11032
 1000380:	1f07883a 	add	r3,r3,fp
 1000384:	18a5883a 	add	r18,r3,r2
 1000388:	8009883a 	mov	r4,r16
 100038c:	01401904 	movi	r5,100
 1000390:	1000a8c0 	call	1000a8c <__mulsi3>
 1000394:	1445883a 	add	r2,r2,r17
 1000398:	1085883a 	add	r2,r2,r2
 100039c:	1085883a 	add	r2,r2,r2
 10003a0:	1485883a 	add	r2,r2,r18
 10003a4:	14c00015 	stw	r19,0(r2)
	  for(x = 0; x < 100; x++) {
		  for(y = 0; y < 100; y++)
			  a[x][y] = rand();
	  }
	  for(x = 0; x < 100; x++) {
			for(y = 0; y < 100; y++)
 10003a8:	013fffb4 	movhi	r4,65534
 10003ac:	210ace04 	addi	r4,r4,11064
 10003b0:	2709883a 	add	r4,r4,fp
 10003b4:	20800017 	ldw	r2,0(r4)
 10003b8:	10800044 	addi	r2,r2,1
 10003bc:	00ffffb4 	movhi	r3,65534
 10003c0:	18cace04 	addi	r3,r3,11064
 10003c4:	1f07883a 	add	r3,r3,fp
 10003c8:	18800015 	stw	r2,0(r3)
 10003cc:	013fffb4 	movhi	r4,65534
 10003d0:	210ace04 	addi	r4,r4,11064
 10003d4:	2709883a 	add	r4,r4,fp
 10003d8:	20800017 	ldw	r2,0(r4)
 10003dc:	10801910 	cmplti	r2,r2,100
 10003e0:	103fda1e 	bne	r2,zero,100034c <main+0x15c>
  	  //random 100x100 matrix gen
	  for(x = 0; x < 100; x++) {
		  for(y = 0; y < 100; y++)
			  a[x][y] = rand();
	  }
	  for(x = 0; x < 100; x++) {
 10003e4:	00ffffb4 	movhi	r3,65534
 10003e8:	18cacf04 	addi	r3,r3,11068
 10003ec:	1f07883a 	add	r3,r3,fp
 10003f0:	18800017 	ldw	r2,0(r3)
 10003f4:	10800044 	addi	r2,r2,1
 10003f8:	013fffb4 	movhi	r4,65534
 10003fc:	210acf04 	addi	r4,r4,11068
 1000400:	2709883a 	add	r4,r4,fp
 1000404:	20800015 	stw	r2,0(r4)
 1000408:	00ffffb4 	movhi	r3,65534
 100040c:	18cacf04 	addi	r3,r3,11068
 1000410:	1f07883a 	add	r3,r3,fp
 1000414:	18800017 	ldw	r2,0(r3)
 1000418:	10801910 	cmplti	r2,r2,100
 100041c:	103fc61e 	bne	r2,zero,1000338 <main+0x148>
			for(y = 0; y < 100; y++)
				b[x][y] = rand();
		}

	  // Interval Timer for 100x100 matrix multiplication
	  freq=alt_timestamp_freq();
 1000420:	100c3780 	call	100c378 <alt_timestamp_freq>
 1000424:	1009883a 	mov	r4,r2
 1000428:	10009940 	call	1000994 <__floatunsisf>
 100042c:	013fffb4 	movhi	r4,65534
 1000430:	210ac704 	addi	r4,r4,11036
 1000434:	2709883a 	add	r4,r4,fp
 1000438:	20800015 	stw	r2,0(r4)

	  alt_timestamp_start();
 100043c:	100c2380 	call	100c238 <alt_timestamp_start>
	  for(i= 0; i < 100; i++) {
 1000440:	00bfffb4 	movhi	r2,65534
 1000444:	108acd04 	addi	r2,r2,11060
 1000448:	1705883a 	add	r2,r2,fp
 100044c:	10000015 	stw	zero,0(r2)
 1000450:	00008106 	br	1000658 <main+0x468>
			for(j= 0; j < 100; j++){
 1000454:	00ffffb4 	movhi	r3,65534
 1000458:	18cacc04 	addi	r3,r3,11056
 100045c:	1f07883a 	add	r3,r3,fp
 1000460:	18000015 	stw	zero,0(r3)
 1000464:	00006d06 	br	100061c <main+0x42c>
				sum = 0;
 1000468:	013fffb4 	movhi	r4,65534
 100046c:	210aca04 	addi	r4,r4,11048
 1000470:	2709883a 	add	r4,r4,fp
 1000474:	20000015 	stw	zero,0(r4)
				for (k=0; k<100; k++){
 1000478:	00bfffb4 	movhi	r2,65534
 100047c:	108acb04 	addi	r2,r2,11052
 1000480:	1705883a 	add	r2,r2,fp
 1000484:	10000015 	stw	zero,0(r2)
 1000488:	00003c06 	br	100057c <main+0x38c>
					sum = sum + a[i][k] * b[k][j];
 100048c:	00ffffb4 	movhi	r3,65534
 1000490:	18cacd04 	addi	r3,r3,11060
 1000494:	1f07883a 	add	r3,r3,fp
 1000498:	19000017 	ldw	r4,0(r3)
 100049c:	00bfffb4 	movhi	r2,65534
 10004a0:	108acb04 	addi	r2,r2,11052
 10004a4:	1705883a 	add	r2,r2,fp
 10004a8:	14000017 	ldw	r16,0(r2)
 10004ac:	01401904 	movi	r5,100
 10004b0:	1000a8c0 	call	1000a8c <__mulsi3>
 10004b4:	1405883a 	add	r2,r2,r16
 10004b8:	1085883a 	add	r2,r2,r2
 10004bc:	1085883a 	add	r2,r2,r2
 10004c0:	00ffffb4 	movhi	r3,65534
 10004c4:	18cac604 	addi	r3,r3,11032
 10004c8:	1f07883a 	add	r3,r3,fp
 10004cc:	10c5883a 	add	r2,r2,r3
 10004d0:	10800a04 	addi	r2,r2,40
 10004d4:	14800017 	ldw	r18,0(r2)
 10004d8:	00bfffb4 	movhi	r2,65534
 10004dc:	108acb04 	addi	r2,r2,11052
 10004e0:	1705883a 	add	r2,r2,fp
 10004e4:	11000017 	ldw	r4,0(r2)
 10004e8:	00ffffb4 	movhi	r3,65534
 10004ec:	18cacc04 	addi	r3,r3,11056
 10004f0:	1f07883a 	add	r3,r3,fp
 10004f4:	1c000017 	ldw	r16,0(r3)
 10004f8:	00a71a14 	movui	r2,40040
 10004fc:	00ffffb4 	movhi	r3,65534
 1000500:	18cac604 	addi	r3,r3,11032
 1000504:	1f07883a 	add	r3,r3,fp
 1000508:	18a3883a 	add	r17,r3,r2
 100050c:	01401904 	movi	r5,100
 1000510:	1000a8c0 	call	1000a8c <__mulsi3>
 1000514:	1405883a 	add	r2,r2,r16
 1000518:	1085883a 	add	r2,r2,r2
 100051c:	1085883a 	add	r2,r2,r2
 1000520:	1445883a 	add	r2,r2,r17
 1000524:	11400017 	ldw	r5,0(r2)
 1000528:	9009883a 	mov	r4,r18
 100052c:	1000a8c0 	call	1000a8c <__mulsi3>
 1000530:	1007883a 	mov	r3,r2
 1000534:	013fffb4 	movhi	r4,65534
 1000538:	210aca04 	addi	r4,r4,11048
 100053c:	2709883a 	add	r4,r4,fp
 1000540:	20800017 	ldw	r2,0(r4)
 1000544:	10c5883a 	add	r2,r2,r3
 1000548:	00ffffb4 	movhi	r3,65534
 100054c:	18caca04 	addi	r3,r3,11048
 1000550:	1f07883a 	add	r3,r3,fp
 1000554:	18800015 	stw	r2,0(r3)

	  alt_timestamp_start();
	  for(i= 0; i < 100; i++) {
			for(j= 0; j < 100; j++){
				sum = 0;
				for (k=0; k<100; k++){
 1000558:	013fffb4 	movhi	r4,65534
 100055c:	210acb04 	addi	r4,r4,11052
 1000560:	2709883a 	add	r4,r4,fp
 1000564:	20800017 	ldw	r2,0(r4)
 1000568:	10800044 	addi	r2,r2,1
 100056c:	00ffffb4 	movhi	r3,65534
 1000570:	18cacb04 	addi	r3,r3,11052
 1000574:	1f07883a 	add	r3,r3,fp
 1000578:	18800015 	stw	r2,0(r3)
 100057c:	013fffb4 	movhi	r4,65534
 1000580:	210acb04 	addi	r4,r4,11052
 1000584:	2709883a 	add	r4,r4,fp
 1000588:	20800017 	ldw	r2,0(r4)
 100058c:	10801910 	cmplti	r2,r2,100
 1000590:	103fbe1e 	bne	r2,zero,100048c <main+0x29c>
					sum = sum + a[i][k] * b[k][j];
				}
				c[i][j]= sum;
 1000594:	00bfffb4 	movhi	r2,65534
 1000598:	108acd04 	addi	r2,r2,11060
 100059c:	1705883a 	add	r2,r2,fp
 10005a0:	11000017 	ldw	r4,0(r2)
 10005a4:	00ffffb4 	movhi	r3,65534
 10005a8:	18cacc04 	addi	r3,r3,11056
 10005ac:	1f07883a 	add	r3,r3,fp
 10005b0:	1c000017 	ldw	r16,0(r3)
 10005b4:	00800074 	movhi	r2,1
 10005b8:	108e2a04 	addi	r2,r2,14504
 10005bc:	00ffffb4 	movhi	r3,65534
 10005c0:	18cac604 	addi	r3,r3,11032
 10005c4:	1f07883a 	add	r3,r3,fp
 10005c8:	18a3883a 	add	r17,r3,r2
 10005cc:	01401904 	movi	r5,100
 10005d0:	1000a8c0 	call	1000a8c <__mulsi3>
 10005d4:	1405883a 	add	r2,r2,r16
 10005d8:	1085883a 	add	r2,r2,r2
 10005dc:	1085883a 	add	r2,r2,r2
 10005e0:	1447883a 	add	r3,r2,r17
 10005e4:	013fffb4 	movhi	r4,65534
 10005e8:	210aca04 	addi	r4,r4,11048
 10005ec:	2709883a 	add	r4,r4,fp
 10005f0:	20800017 	ldw	r2,0(r4)
 10005f4:	18800015 	stw	r2,0(r3)
	  // Interval Timer for 100x100 matrix multiplication
	  freq=alt_timestamp_freq();

	  alt_timestamp_start();
	  for(i= 0; i < 100; i++) {
			for(j= 0; j < 100; j++){
 10005f8:	00ffffb4 	movhi	r3,65534
 10005fc:	18cacc04 	addi	r3,r3,11056
 1000600:	1f07883a 	add	r3,r3,fp
 1000604:	18800017 	ldw	r2,0(r3)
 1000608:	10800044 	addi	r2,r2,1
 100060c:	013fffb4 	movhi	r4,65534
 1000610:	210acc04 	addi	r4,r4,11056
 1000614:	2709883a 	add	r4,r4,fp
 1000618:	20800015 	stw	r2,0(r4)
 100061c:	00ffffb4 	movhi	r3,65534
 1000620:	18cacc04 	addi	r3,r3,11056
 1000624:	1f07883a 	add	r3,r3,fp
 1000628:	18800017 	ldw	r2,0(r3)
 100062c:	10801910 	cmplti	r2,r2,100
 1000630:	103f8d1e 	bne	r2,zero,1000468 <main+0x278>

	  // Interval Timer for 100x100 matrix multiplication
	  freq=alt_timestamp_freq();

	  alt_timestamp_start();
	  for(i= 0; i < 100; i++) {
 1000634:	013fffb4 	movhi	r4,65534
 1000638:	210acd04 	addi	r4,r4,11060
 100063c:	2709883a 	add	r4,r4,fp
 1000640:	20800017 	ldw	r2,0(r4)
 1000644:	10800044 	addi	r2,r2,1
 1000648:	00ffffb4 	movhi	r3,65534
 100064c:	18cacd04 	addi	r3,r3,11060
 1000650:	1f07883a 	add	r3,r3,fp
 1000654:	18800015 	stw	r2,0(r3)
 1000658:	013fffb4 	movhi	r4,65534
 100065c:	210acd04 	addi	r4,r4,11060
 1000660:	2709883a 	add	r4,r4,fp
 1000664:	20800017 	ldw	r2,0(r4)
 1000668:	10801910 	cmplti	r2,r2,100
 100066c:	103f791e 	bne	r2,zero,1000454 <main+0x264>
					sum = sum + a[i][k] * b[k][j];
				}
				c[i][j]= sum;
			}
		}
	  end_time=alt_timestamp();
 1000670:	100c2dc0 	call	100c2dc <alt_timestamp>
 1000674:	00ffffb4 	movhi	r3,65534
 1000678:	18cac804 	addi	r3,r3,11040
 100067c:	1f07883a 	add	r3,r3,fp
 1000680:	18800015 	stw	r2,0(r3)

	  float sec= end_time/freq;
 1000684:	00bfffb4 	movhi	r2,65534
 1000688:	108ac804 	addi	r2,r2,11040
 100068c:	1705883a 	add	r2,r2,fp
 1000690:	11000017 	ldw	r4,0(r2)
 1000694:	10008a80 	call	10008a8 <__floatsisf>
 1000698:	1009883a 	mov	r4,r2
 100069c:	00ffffb4 	movhi	r3,65534
 10006a0:	18cac704 	addi	r3,r3,11036
 10006a4:	1f07883a 	add	r3,r3,fp
 10006a8:	19400017 	ldw	r5,0(r3)
 10006ac:	10007340 	call	1000734 <__divsf3>
 10006b0:	013fffb4 	movhi	r4,65534
 10006b4:	210ac604 	addi	r4,r4,11032
 10006b8:	2709883a 	add	r4,r4,fp
 10006bc:	20800015 	stw	r2,0(r4)
	  printf("Time taken: %d clock ticks\n", end_time);
 10006c0:	01004074 	movhi	r4,257
 10006c4:	2136a304 	addi	r4,r4,-9588
 10006c8:	00bfffb4 	movhi	r2,65534
 10006cc:	108ac804 	addi	r2,r2,11040
 10006d0:	1705883a 	add	r2,r2,fp
 10006d4:	11400017 	ldw	r5,0(r2)
 10006d8:	10010800 	call	1001080 <printf>
	  printf("            %f seconds\n", sec );
 10006dc:	00ffffb4 	movhi	r3,65534
 10006e0:	18cac604 	addi	r3,r3,11032
 10006e4:	1f07883a 	add	r3,r3,fp
 10006e8:	19000017 	ldw	r4,0(r3)
 10006ec:	10009400 	call	1000940 <__extendsfdf2>
 10006f0:	100d883a 	mov	r6,r2
 10006f4:	180f883a 	mov	r7,r3
 10006f8:	01004074 	movhi	r4,257
 10006fc:	2136aa04 	addi	r4,r4,-9560
 1000700:	300b883a 	mov	r5,r6
 1000704:	380d883a 	mov	r6,r7
 1000708:	10010800 	call	1001080 <printf>
	  return 0;
 100070c:	0005883a 	mov	r2,zero
}
 1000710:	e037883a 	mov	sp,fp
 1000714:	dfc00517 	ldw	ra,20(sp)
 1000718:	df000417 	ldw	fp,16(sp)
 100071c:	dcc00317 	ldw	r19,12(sp)
 1000720:	dc800217 	ldw	r18,8(sp)
 1000724:	dc400117 	ldw	r17,4(sp)
 1000728:	dc000017 	ldw	r16,0(sp)
 100072c:	dec00604 	addi	sp,sp,24
 1000730:	f800283a 	ret

01000734 <__divsf3>:
 1000734:	defff304 	addi	sp,sp,-52
 1000738:	dc400b15 	stw	r17,44(sp)
 100073c:	dc400204 	addi	r17,sp,8
 1000740:	dc000a15 	stw	r16,40(sp)
 1000744:	d9000015 	stw	r4,0(sp)
 1000748:	d9400115 	stw	r5,4(sp)
 100074c:	d809883a 	mov	r4,sp
 1000750:	880b883a 	mov	r5,r17
 1000754:	dc000604 	addi	r16,sp,24
 1000758:	dfc00c15 	stw	ra,48(sp)
 100075c:	1000ca40 	call	1000ca4 <__unpack_f>
 1000760:	d9000104 	addi	r4,sp,4
 1000764:	800b883a 	mov	r5,r16
 1000768:	1000ca40 	call	1000ca4 <__unpack_f>
 100076c:	d9000217 	ldw	r4,8(sp)
 1000770:	00800044 	movi	r2,1
 1000774:	01800104 	movi	r6,4
 1000778:	11000a2e 	bgeu	r2,r4,10007a4 <__divsf3+0x70>
 100077c:	d9400617 	ldw	r5,24(sp)
 1000780:	1140432e 	bgeu	r2,r5,1000890 <__divsf3+0x15c>
 1000784:	d8800317 	ldw	r2,12(sp)
 1000788:	d8c00717 	ldw	r3,28(sp)
 100078c:	10c4f03a 	xor	r2,r2,r3
 1000790:	d8800315 	stw	r2,12(sp)
 1000794:	21800226 	beq	r4,r6,10007a0 <__divsf3+0x6c>
 1000798:	00800084 	movi	r2,2
 100079c:	2080101e 	bne	r4,r2,10007e0 <__divsf3+0xac>
 10007a0:	29000726 	beq	r5,r4,10007c0 <__divsf3+0x8c>
 10007a4:	8809883a 	mov	r4,r17
 10007a8:	1000b440 	call	1000b44 <__pack_f>
 10007ac:	dfc00c17 	ldw	ra,48(sp)
 10007b0:	dc400b17 	ldw	r17,44(sp)
 10007b4:	dc000a17 	ldw	r16,40(sp)
 10007b8:	dec00d04 	addi	sp,sp,52
 10007bc:	f800283a 	ret
 10007c0:	01004074 	movhi	r4,257
 10007c4:	2136b004 	addi	r4,r4,-9536
 10007c8:	1000b440 	call	1000b44 <__pack_f>
 10007cc:	dfc00c17 	ldw	ra,48(sp)
 10007d0:	dc400b17 	ldw	r17,44(sp)
 10007d4:	dc000a17 	ldw	r16,40(sp)
 10007d8:	dec00d04 	addi	sp,sp,52
 10007dc:	f800283a 	ret
 10007e0:	29802d26 	beq	r5,r6,1000898 <__divsf3+0x164>
 10007e4:	28801a26 	beq	r5,r2,1000850 <__divsf3+0x11c>
 10007e8:	d8c00417 	ldw	r3,16(sp)
 10007ec:	d8800817 	ldw	r2,32(sp)
 10007f0:	d9000517 	ldw	r4,20(sp)
 10007f4:	d9800917 	ldw	r6,36(sp)
 10007f8:	1885c83a 	sub	r2,r3,r2
 10007fc:	d8800415 	stw	r2,16(sp)
 1000800:	2180032e 	bgeu	r4,r6,1000810 <__divsf3+0xdc>
 1000804:	10bfffc4 	addi	r2,r2,-1
 1000808:	d8800415 	stw	r2,16(sp)
 100080c:	2109883a 	add	r4,r4,r4
 1000810:	01500034 	movhi	r5,16384
 1000814:	0007883a 	mov	r3,zero
 1000818:	0005883a 	mov	r2,zero
 100081c:	01c007c4 	movi	r7,31
 1000820:	10800044 	addi	r2,r2,1
 1000824:	21800236 	bltu	r4,r6,1000830 <__divsf3+0xfc>
 1000828:	1946b03a 	or	r3,r3,r5
 100082c:	2189c83a 	sub	r4,r4,r6
 1000830:	280ad07a 	srli	r5,r5,1
 1000834:	2109883a 	add	r4,r4,r4
 1000838:	11fff91e 	bne	r2,r7,1000820 <__divsf3+0xec>
 100083c:	19401fcc 	andi	r5,r3,127
 1000840:	00801004 	movi	r2,64
 1000844:	28800a26 	beq	r5,r2,1000870 <__divsf3+0x13c>
 1000848:	d8c00515 	stw	r3,20(sp)
 100084c:	003fd506 	br	10007a4 <__divsf3+0x70>
 1000850:	8809883a 	mov	r4,r17
 1000854:	d9800215 	stw	r6,8(sp)
 1000858:	1000b440 	call	1000b44 <__pack_f>
 100085c:	dfc00c17 	ldw	ra,48(sp)
 1000860:	dc400b17 	ldw	r17,44(sp)
 1000864:	dc000a17 	ldw	r16,40(sp)
 1000868:	dec00d04 	addi	sp,sp,52
 100086c:	f800283a 	ret
 1000870:	1880200c 	andi	r2,r3,128
 1000874:	103ff41e 	bne	r2,zero,1000848 <__divsf3+0x114>
 1000878:	203ff326 	beq	r4,zero,1000848 <__divsf3+0x114>
 100087c:	1947883a 	add	r3,r3,r5
 1000880:	00bfe004 	movi	r2,-128
 1000884:	1886703a 	and	r3,r3,r2
 1000888:	d8c00515 	stw	r3,20(sp)
 100088c:	003fc506 	br	10007a4 <__divsf3+0x70>
 1000890:	8009883a 	mov	r4,r16
 1000894:	003fc406 	br	10007a8 <__divsf3+0x74>
 1000898:	8809883a 	mov	r4,r17
 100089c:	d8000515 	stw	zero,20(sp)
 10008a0:	d8000415 	stw	zero,16(sp)
 10008a4:	003fc006 	br	10007a8 <__divsf3+0x74>

010008a8 <__floatsisf>:
 10008a8:	2006d7fa 	srli	r3,r4,31
 10008ac:	defffa04 	addi	sp,sp,-24
 10008b0:	008000c4 	movi	r2,3
 10008b4:	dfc00515 	stw	ra,20(sp)
 10008b8:	dc000415 	stw	r16,16(sp)
 10008bc:	d8800015 	stw	r2,0(sp)
 10008c0:	d8c00115 	stw	r3,4(sp)
 10008c4:	2000081e 	bne	r4,zero,10008e8 <__floatsisf+0x40>
 10008c8:	00800084 	movi	r2,2
 10008cc:	d8800015 	stw	r2,0(sp)
 10008d0:	d809883a 	mov	r4,sp
 10008d4:	1000b440 	call	1000b44 <__pack_f>
 10008d8:	dfc00517 	ldw	ra,20(sp)
 10008dc:	dc000417 	ldw	r16,16(sp)
 10008e0:	dec00604 	addi	sp,sp,24
 10008e4:	f800283a 	ret
 10008e8:	00800784 	movi	r2,30
 10008ec:	1807003a 	cmpeq	r3,r3,zero
 10008f0:	d8800215 	stw	r2,8(sp)
 10008f4:	18000e1e 	bne	r3,zero,1000930 <__floatsisf+0x88>
 10008f8:	00a00034 	movhi	r2,32768
 10008fc:	20800e26 	beq	r4,r2,1000938 <__floatsisf+0x90>
 1000900:	0121c83a 	sub	r16,zero,r4
 1000904:	8009883a 	mov	r4,r16
 1000908:	dc000315 	stw	r16,12(sp)
 100090c:	1000ac40 	call	1000ac4 <__clzsi2>
 1000910:	117fffc4 	addi	r5,r2,-1
 1000914:	017fee0e 	bge	zero,r5,10008d0 <__floatsisf+0x28>
 1000918:	d8800217 	ldw	r2,8(sp)
 100091c:	8146983a 	sll	r3,r16,r5
 1000920:	1145c83a 	sub	r2,r2,r5
 1000924:	d8c00315 	stw	r3,12(sp)
 1000928:	d8800215 	stw	r2,8(sp)
 100092c:	003fe806 	br	10008d0 <__floatsisf+0x28>
 1000930:	2021883a 	mov	r16,r4
 1000934:	003ff306 	br	1000904 <__floatsisf+0x5c>
 1000938:	00b3c034 	movhi	r2,52992
 100093c:	003fe606 	br	10008d8 <__floatsisf+0x30>

01000940 <__extendsfdf2>:
 1000940:	defff904 	addi	sp,sp,-28
 1000944:	d9000115 	stw	r4,4(sp)
 1000948:	d9400204 	addi	r5,sp,8
 100094c:	d9000104 	addi	r4,sp,4
 1000950:	dfc00615 	stw	ra,24(sp)
 1000954:	1000ca40 	call	1000ca4 <__unpack_f>
 1000958:	d9c00517 	ldw	r7,20(sp)
 100095c:	0011883a 	mov	r8,zero
 1000960:	400697ba 	slli	r3,r8,30
 1000964:	3812d0ba 	srli	r9,r7,2
 1000968:	380497ba 	slli	r2,r7,30
 100096c:	d9000217 	ldw	r4,8(sp)
 1000970:	d9400317 	ldw	r5,12(sp)
 1000974:	d9800417 	ldw	r6,16(sp)
 1000978:	48c6b03a 	or	r3,r9,r3
 100097c:	100f883a 	mov	r7,r2
 1000980:	d8c00015 	stw	r3,0(sp)
 1000984:	1000a540 	call	1000a54 <__make_dp>
 1000988:	dfc00617 	ldw	ra,24(sp)
 100098c:	dec00704 	addi	sp,sp,28
 1000990:	f800283a 	ret

01000994 <__floatunsisf>:
 1000994:	defff904 	addi	sp,sp,-28
 1000998:	dc400515 	stw	r17,20(sp)
 100099c:	dc000415 	stw	r16,16(sp)
 10009a0:	dfc00615 	stw	ra,24(sp)
 10009a4:	04400784 	movi	r17,30
 10009a8:	2021883a 	mov	r16,r4
 10009ac:	d8000115 	stw	zero,4(sp)
 10009b0:	2000091e 	bne	r4,zero,10009d8 <__floatunsisf+0x44>
 10009b4:	00800084 	movi	r2,2
 10009b8:	d8800015 	stw	r2,0(sp)
 10009bc:	d809883a 	mov	r4,sp
 10009c0:	1000b440 	call	1000b44 <__pack_f>
 10009c4:	dfc00617 	ldw	ra,24(sp)
 10009c8:	dc400517 	ldw	r17,20(sp)
 10009cc:	dc000417 	ldw	r16,16(sp)
 10009d0:	dec00704 	addi	sp,sp,28
 10009d4:	f800283a 	ret
 10009d8:	008000c4 	movi	r2,3
 10009dc:	d9000315 	stw	r4,12(sp)
 10009e0:	d8800015 	stw	r2,0(sp)
 10009e4:	dc400215 	stw	r17,8(sp)
 10009e8:	1000ac40 	call	1000ac4 <__clzsi2>
 10009ec:	117fffc4 	addi	r5,r2,-1
 10009f0:	0147c83a 	sub	r3,zero,r5
 10009f4:	00800044 	movi	r2,1
 10009f8:	10c4983a 	sll	r2,r2,r3
 10009fc:	80c6d83a 	srl	r3,r16,r3
 1000a00:	8949c83a 	sub	r4,r17,r5
 1000a04:	10bfffc4 	addi	r2,r2,-1
 1000a08:	8084703a 	and	r2,r16,r2
 1000a0c:	1004c03a 	cmpne	r2,r2,zero
 1000a10:	1886b03a 	or	r3,r3,r2
 1000a14:	28000c16 	blt	r5,zero,1000a48 <__floatunsisf+0xb4>
 1000a18:	8144983a 	sll	r2,r16,r5
 1000a1c:	8947c83a 	sub	r3,r17,r5
 1000a20:	283fe626 	beq	r5,zero,10009bc <__floatunsisf+0x28>
 1000a24:	d809883a 	mov	r4,sp
 1000a28:	d8800315 	stw	r2,12(sp)
 1000a2c:	d8c00215 	stw	r3,8(sp)
 1000a30:	1000b440 	call	1000b44 <__pack_f>
 1000a34:	dfc00617 	ldw	ra,24(sp)
 1000a38:	dc400517 	ldw	r17,20(sp)
 1000a3c:	dc000417 	ldw	r16,16(sp)
 1000a40:	dec00704 	addi	sp,sp,28
 1000a44:	f800283a 	ret
 1000a48:	d8c00315 	stw	r3,12(sp)
 1000a4c:	d9000215 	stw	r4,8(sp)
 1000a50:	003fda06 	br	10009bc <__floatunsisf+0x28>

01000a54 <__make_dp>:
 1000a54:	defff904 	addi	sp,sp,-28
 1000a58:	d8c00717 	ldw	r3,28(sp)
 1000a5c:	d9000015 	stw	r4,0(sp)
 1000a60:	d809883a 	mov	r4,sp
 1000a64:	dfc00515 	stw	ra,20(sp)
 1000a68:	d9c00615 	stw	r7,24(sp)
 1000a6c:	d9400115 	stw	r5,4(sp)
 1000a70:	d9800215 	stw	r6,8(sp)
 1000a74:	d8c00415 	stw	r3,16(sp)
 1000a78:	d9c00315 	stw	r7,12(sp)
 1000a7c:	1000d6c0 	call	1000d6c <__pack_d>
 1000a80:	dfc00517 	ldw	ra,20(sp)
 1000a84:	dec00704 	addi	sp,sp,28
 1000a88:	f800283a 	ret

01000a8c <__mulsi3>:
 1000a8c:	20000a26 	beq	r4,zero,1000ab8 <__mulsi3+0x2c>
 1000a90:	0007883a 	mov	r3,zero
 1000a94:	2080004c 	andi	r2,r4,1
 1000a98:	1005003a 	cmpeq	r2,r2,zero
 1000a9c:	2008d07a 	srli	r4,r4,1
 1000aa0:	1000011e 	bne	r2,zero,1000aa8 <__mulsi3+0x1c>
 1000aa4:	1947883a 	add	r3,r3,r5
 1000aa8:	294b883a 	add	r5,r5,r5
 1000aac:	203ff91e 	bne	r4,zero,1000a94 <__mulsi3+0x8>
 1000ab0:	1805883a 	mov	r2,r3
 1000ab4:	f800283a 	ret
 1000ab8:	0007883a 	mov	r3,zero
 1000abc:	1805883a 	mov	r2,r3
 1000ac0:	f800283a 	ret

01000ac4 <__clzsi2>:
 1000ac4:	00bfffd4 	movui	r2,65535
 1000ac8:	11000e36 	bltu	r2,r4,1000b04 <__clzsi2+0x40>
 1000acc:	00803fc4 	movi	r2,255
 1000ad0:	01400204 	movi	r5,8
 1000ad4:	0007883a 	mov	r3,zero
 1000ad8:	11001036 	bltu	r2,r4,1000b1c <__clzsi2+0x58>
 1000adc:	000b883a 	mov	r5,zero
 1000ae0:	20c6d83a 	srl	r3,r4,r3
 1000ae4:	00804074 	movhi	r2,257
 1000ae8:	10b6b404 	addi	r2,r2,-9520
 1000aec:	1887883a 	add	r3,r3,r2
 1000af0:	18800003 	ldbu	r2,0(r3)
 1000af4:	00c00804 	movi	r3,32
 1000af8:	2885883a 	add	r2,r5,r2
 1000afc:	1885c83a 	sub	r2,r3,r2
 1000b00:	f800283a 	ret
 1000b04:	01400404 	movi	r5,16
 1000b08:	00804034 	movhi	r2,256
 1000b0c:	10bfffc4 	addi	r2,r2,-1
 1000b10:	2807883a 	mov	r3,r5
 1000b14:	113ff22e 	bgeu	r2,r4,1000ae0 <__clzsi2+0x1c>
 1000b18:	01400604 	movi	r5,24
 1000b1c:	2807883a 	mov	r3,r5
 1000b20:	20c6d83a 	srl	r3,r4,r3
 1000b24:	00804074 	movhi	r2,257
 1000b28:	10b6b404 	addi	r2,r2,-9520
 1000b2c:	1887883a 	add	r3,r3,r2
 1000b30:	18800003 	ldbu	r2,0(r3)
 1000b34:	00c00804 	movi	r3,32
 1000b38:	2885883a 	add	r2,r5,r2
 1000b3c:	1885c83a 	sub	r2,r3,r2
 1000b40:	f800283a 	ret

01000b44 <__pack_f>:
 1000b44:	20c00017 	ldw	r3,0(r4)
 1000b48:	01c00044 	movi	r7,1
 1000b4c:	21800317 	ldw	r6,12(r4)
 1000b50:	21400117 	ldw	r5,4(r4)
 1000b54:	38c02d2e 	bgeu	r7,r3,1000c0c <__pack_f+0xc8>
 1000b58:	00800104 	movi	r2,4
 1000b5c:	18802826 	beq	r3,r2,1000c00 <__pack_f+0xbc>
 1000b60:	00800084 	movi	r2,2
 1000b64:	18800126 	beq	r3,r2,1000b6c <__pack_f+0x28>
 1000b68:	3000101e 	bne	r6,zero,1000bac <__pack_f+0x68>
 1000b6c:	000d883a 	mov	r6,zero
 1000b70:	0007883a 	mov	r3,zero
 1000b74:	19003fcc 	andi	r4,r3,255
 1000b78:	200895fa 	slli	r4,r4,23
 1000b7c:	00c02034 	movhi	r3,128
 1000b80:	18ffffc4 	addi	r3,r3,-1
 1000b84:	30c6703a 	and	r3,r6,r3
 1000b88:	10a0002c 	andhi	r2,r2,32768
 1000b8c:	10c4b03a 	or	r2,r2,r3
 1000b90:	280a97fa 	slli	r5,r5,31
 1000b94:	1104b03a 	or	r2,r2,r4
 1000b98:	00e00034 	movhi	r3,32768
 1000b9c:	18ffffc4 	addi	r3,r3,-1
 1000ba0:	10c4703a 	and	r2,r2,r3
 1000ba4:	1144b03a 	or	r2,r2,r5
 1000ba8:	f800283a 	ret
 1000bac:	21000217 	ldw	r4,8(r4)
 1000bb0:	00bfe084 	movi	r2,-126
 1000bb4:	20801b16 	blt	r4,r2,1000c24 <__pack_f+0xe0>
 1000bb8:	00801fc4 	movi	r2,127
 1000bbc:	11001016 	blt	r2,r4,1000c00 <__pack_f+0xbc>
 1000bc0:	308e703a 	and	r7,r6,r2
 1000bc4:	2087883a 	add	r3,r4,r2
 1000bc8:	00801004 	movi	r2,64
 1000bcc:	38800526 	beq	r7,r2,1000be4 <__pack_f+0xa0>
 1000bd0:	31800fc4 	addi	r6,r6,63
 1000bd4:	30000716 	blt	r6,zero,1000bf4 <__pack_f+0xb0>
 1000bd8:	300490ba 	slli	r2,r6,2
 1000bdc:	100cd27a 	srli	r6,r2,9
 1000be0:	003fe406 	br	1000b74 <__pack_f+0x30>
 1000be4:	3080200c 	andi	r2,r6,128
 1000be8:	103ffa26 	beq	r2,zero,1000bd4 <__pack_f+0x90>
 1000bec:	31cd883a 	add	r6,r6,r7
 1000bf0:	003ff806 	br	1000bd4 <__pack_f+0x90>
 1000bf4:	300cd07a 	srli	r6,r6,1
 1000bf8:	18c00044 	addi	r3,r3,1
 1000bfc:	003ff606 	br	1000bd8 <__pack_f+0x94>
 1000c00:	000d883a 	mov	r6,zero
 1000c04:	00ffffc4 	movi	r3,-1
 1000c08:	003fda06 	br	1000b74 <__pack_f+0x30>
 1000c0c:	31800434 	orhi	r6,r6,16
 1000c10:	00802034 	movhi	r2,128
 1000c14:	10bfffc4 	addi	r2,r2,-1
 1000c18:	308c703a 	and	r6,r6,r2
 1000c1c:	00ffffc4 	movi	r3,-1
 1000c20:	003fd406 	br	1000b74 <__pack_f+0x30>
 1000c24:	1109c83a 	sub	r4,r2,r4
 1000c28:	00800644 	movi	r2,25
 1000c2c:	11001216 	blt	r2,r4,1000c78 <__pack_f+0x134>
 1000c30:	3904983a 	sll	r2,r7,r4
 1000c34:	3106d83a 	srl	r3,r6,r4
 1000c38:	10bfffc4 	addi	r2,r2,-1
 1000c3c:	3084703a 	and	r2,r6,r2
 1000c40:	1004c03a 	cmpne	r2,r2,zero
 1000c44:	1886b03a 	or	r3,r3,r2
 1000c48:	19001fcc 	andi	r4,r3,127
 1000c4c:	00801004 	movi	r2,64
 1000c50:	20800c26 	beq	r4,r2,1000c84 <__pack_f+0x140>
 1000c54:	18c00fc4 	addi	r3,r3,63
 1000c58:	00900034 	movhi	r2,16384
 1000c5c:	10bfffc4 	addi	r2,r2,-1
 1000c60:	180cd1fa 	srli	r6,r3,7
 1000c64:	10c7803a 	cmpltu	r3,r2,r3
 1000c68:	00802034 	movhi	r2,128
 1000c6c:	10bfffc4 	addi	r2,r2,-1
 1000c70:	308c703a 	and	r6,r6,r2
 1000c74:	003fbf06 	br	1000b74 <__pack_f+0x30>
 1000c78:	0007883a 	mov	r3,zero
 1000c7c:	000d883a 	mov	r6,zero
 1000c80:	003ff906 	br	1000c68 <__pack_f+0x124>
 1000c84:	1880200c 	andi	r2,r3,128
 1000c88:	10000126 	beq	r2,zero,1000c90 <__pack_f+0x14c>
 1000c8c:	1907883a 	add	r3,r3,r4
 1000c90:	180cd1fa 	srli	r6,r3,7
 1000c94:	00900034 	movhi	r2,16384
 1000c98:	10bfffc4 	addi	r2,r2,-1
 1000c9c:	10c7803a 	cmpltu	r3,r2,r3
 1000ca0:	003ff106 	br	1000c68 <__pack_f+0x124>

01000ca4 <__unpack_f>:
 1000ca4:	21800017 	ldw	r6,0(r4)
 1000ca8:	00c02034 	movhi	r3,128
 1000cac:	18ffffc4 	addi	r3,r3,-1
 1000cb0:	3004d5fa 	srli	r2,r6,23
 1000cb4:	3008d7fa 	srli	r4,r6,31
 1000cb8:	30ce703a 	and	r7,r6,r3
 1000cbc:	10c03fcc 	andi	r3,r2,255
 1000cc0:	29000115 	stw	r4,4(r5)
 1000cc4:	1800131e 	bne	r3,zero,1000d14 <__unpack_f+0x70>
 1000cc8:	38000f26 	beq	r7,zero,1000d08 <__unpack_f+0x64>
 1000ccc:	380691fa 	slli	r3,r7,7
 1000cd0:	01bfe084 	movi	r6,-126
 1000cd4:	008000c4 	movi	r2,3
 1000cd8:	01100034 	movhi	r4,16384
 1000cdc:	213fffc4 	addi	r4,r4,-1
 1000ce0:	28800015 	stw	r2,0(r5)
 1000ce4:	29800215 	stw	r6,8(r5)
 1000ce8:	20c00536 	bltu	r4,r3,1000d00 <__unpack_f+0x5c>
 1000cec:	3005883a 	mov	r2,r6
 1000cf0:	18c7883a 	add	r3,r3,r3
 1000cf4:	10bfffc4 	addi	r2,r2,-1
 1000cf8:	20fffd2e 	bgeu	r4,r3,1000cf0 <__unpack_f+0x4c>
 1000cfc:	28800215 	stw	r2,8(r5)
 1000d00:	28c00315 	stw	r3,12(r5)
 1000d04:	f800283a 	ret
 1000d08:	00800084 	movi	r2,2
 1000d0c:	28800015 	stw	r2,0(r5)
 1000d10:	f800283a 	ret
 1000d14:	00803fc4 	movi	r2,255
 1000d18:	18800826 	beq	r3,r2,1000d3c <__unpack_f+0x98>
 1000d1c:	380491fa 	slli	r2,r7,7
 1000d20:	18ffe044 	addi	r3,r3,-127
 1000d24:	28c00215 	stw	r3,8(r5)
 1000d28:	10900034 	orhi	r2,r2,16384
 1000d2c:	28800315 	stw	r2,12(r5)
 1000d30:	008000c4 	movi	r2,3
 1000d34:	28800015 	stw	r2,0(r5)
 1000d38:	f800283a 	ret
 1000d3c:	3800031e 	bne	r7,zero,1000d4c <__unpack_f+0xa8>
 1000d40:	00800104 	movi	r2,4
 1000d44:	28800015 	stw	r2,0(r5)
 1000d48:	f800283a 	ret
 1000d4c:	3080042c 	andhi	r2,r6,16
 1000d50:	10000426 	beq	r2,zero,1000d64 <__unpack_f+0xc0>
 1000d54:	00800044 	movi	r2,1
 1000d58:	28800015 	stw	r2,0(r5)
 1000d5c:	29c00315 	stw	r7,12(r5)
 1000d60:	f800283a 	ret
 1000d64:	28000015 	stw	zero,0(r5)
 1000d68:	003ffc06 	br	1000d5c <__unpack_f+0xb8>

01000d6c <__pack_d>:
 1000d6c:	20c00017 	ldw	r3,0(r4)
 1000d70:	defffd04 	addi	sp,sp,-12
 1000d74:	dc000015 	stw	r16,0(sp)
 1000d78:	dc800215 	stw	r18,8(sp)
 1000d7c:	dc400115 	stw	r17,4(sp)
 1000d80:	00800044 	movi	r2,1
 1000d84:	22000317 	ldw	r8,12(r4)
 1000d88:	001f883a 	mov	r15,zero
 1000d8c:	22400417 	ldw	r9,16(r4)
 1000d90:	24000117 	ldw	r16,4(r4)
 1000d94:	10c0552e 	bgeu	r2,r3,1000eec <__pack_d+0x180>
 1000d98:	00800104 	movi	r2,4
 1000d9c:	18804f26 	beq	r3,r2,1000edc <__pack_d+0x170>
 1000da0:	00800084 	movi	r2,2
 1000da4:	18800226 	beq	r3,r2,1000db0 <__pack_d+0x44>
 1000da8:	4244b03a 	or	r2,r8,r9
 1000dac:	10001a1e 	bne	r2,zero,1000e18 <__pack_d+0xac>
 1000db0:	000d883a 	mov	r6,zero
 1000db4:	000f883a 	mov	r7,zero
 1000db8:	0011883a 	mov	r8,zero
 1000dbc:	00800434 	movhi	r2,16
 1000dc0:	10bfffc4 	addi	r2,r2,-1
 1000dc4:	301d883a 	mov	r14,r6
 1000dc8:	3884703a 	and	r2,r7,r2
 1000dcc:	400a953a 	slli	r5,r8,20
 1000dd0:	79bffc2c 	andhi	r6,r15,65520
 1000dd4:	308cb03a 	or	r6,r6,r2
 1000dd8:	00e00434 	movhi	r3,32784
 1000ddc:	18ffffc4 	addi	r3,r3,-1
 1000de0:	800497fa 	slli	r2,r16,31
 1000de4:	30c6703a 	and	r3,r6,r3
 1000de8:	1946b03a 	or	r3,r3,r5
 1000dec:	01600034 	movhi	r5,32768
 1000df0:	297fffc4 	addi	r5,r5,-1
 1000df4:	194a703a 	and	r5,r3,r5
 1000df8:	288ab03a 	or	r5,r5,r2
 1000dfc:	2807883a 	mov	r3,r5
 1000e00:	7005883a 	mov	r2,r14
 1000e04:	dc800217 	ldw	r18,8(sp)
 1000e08:	dc400117 	ldw	r17,4(sp)
 1000e0c:	dc000017 	ldw	r16,0(sp)
 1000e10:	dec00304 	addi	sp,sp,12
 1000e14:	f800283a 	ret
 1000e18:	21000217 	ldw	r4,8(r4)
 1000e1c:	00bf0084 	movi	r2,-1022
 1000e20:	20803f16 	blt	r4,r2,1000f20 <__pack_d+0x1b4>
 1000e24:	0080ffc4 	movi	r2,1023
 1000e28:	11002c16 	blt	r2,r4,1000edc <__pack_d+0x170>
 1000e2c:	00803fc4 	movi	r2,255
 1000e30:	408c703a 	and	r6,r8,r2
 1000e34:	00802004 	movi	r2,128
 1000e38:	0007883a 	mov	r3,zero
 1000e3c:	000f883a 	mov	r7,zero
 1000e40:	2280ffc4 	addi	r10,r4,1023
 1000e44:	30801e26 	beq	r6,r2,1000ec0 <__pack_d+0x154>
 1000e48:	00801fc4 	movi	r2,127
 1000e4c:	4089883a 	add	r4,r8,r2
 1000e50:	220d803a 	cmpltu	r6,r4,r8
 1000e54:	324d883a 	add	r6,r6,r9
 1000e58:	2011883a 	mov	r8,r4
 1000e5c:	3013883a 	mov	r9,r6
 1000e60:	00880034 	movhi	r2,8192
 1000e64:	10bfffc4 	addi	r2,r2,-1
 1000e68:	12400d36 	bltu	r2,r9,1000ea0 <__pack_d+0x134>
 1000e6c:	4804963a 	slli	r2,r9,24
 1000e70:	400cd23a 	srli	r6,r8,8
 1000e74:	480ed23a 	srli	r7,r9,8
 1000e78:	013fffc4 	movi	r4,-1
 1000e7c:	118cb03a 	or	r6,r2,r6
 1000e80:	01400434 	movhi	r5,16
 1000e84:	297fffc4 	addi	r5,r5,-1
 1000e88:	3104703a 	and	r2,r6,r4
 1000e8c:	3946703a 	and	r3,r7,r5
 1000e90:	5201ffcc 	andi	r8,r10,2047
 1000e94:	100d883a 	mov	r6,r2
 1000e98:	180f883a 	mov	r7,r3
 1000e9c:	003fc706 	br	1000dbc <__pack_d+0x50>
 1000ea0:	480897fa 	slli	r4,r9,31
 1000ea4:	4004d07a 	srli	r2,r8,1
 1000ea8:	4806d07a 	srli	r3,r9,1
 1000eac:	52800044 	addi	r10,r10,1
 1000eb0:	2084b03a 	or	r2,r4,r2
 1000eb4:	1011883a 	mov	r8,r2
 1000eb8:	1813883a 	mov	r9,r3
 1000ebc:	003feb06 	br	1000e6c <__pack_d+0x100>
 1000ec0:	383fe11e 	bne	r7,zero,1000e48 <__pack_d+0xdc>
 1000ec4:	01004004 	movi	r4,256
 1000ec8:	4104703a 	and	r2,r8,r4
 1000ecc:	10c4b03a 	or	r2,r2,r3
 1000ed0:	103fe326 	beq	r2,zero,1000e60 <__pack_d+0xf4>
 1000ed4:	3005883a 	mov	r2,r6
 1000ed8:	003fdc06 	br	1000e4c <__pack_d+0xe0>
 1000edc:	000d883a 	mov	r6,zero
 1000ee0:	000f883a 	mov	r7,zero
 1000ee4:	0201ffc4 	movi	r8,2047
 1000ee8:	003fb406 	br	1000dbc <__pack_d+0x50>
 1000eec:	0005883a 	mov	r2,zero
 1000ef0:	00c00234 	movhi	r3,8
 1000ef4:	408cb03a 	or	r6,r8,r2
 1000ef8:	48ceb03a 	or	r7,r9,r3
 1000efc:	013fffc4 	movi	r4,-1
 1000f00:	01400434 	movhi	r5,16
 1000f04:	297fffc4 	addi	r5,r5,-1
 1000f08:	3104703a 	and	r2,r6,r4
 1000f0c:	3946703a 	and	r3,r7,r5
 1000f10:	100d883a 	mov	r6,r2
 1000f14:	180f883a 	mov	r7,r3
 1000f18:	0201ffc4 	movi	r8,2047
 1000f1c:	003fa706 	br	1000dbc <__pack_d+0x50>
 1000f20:	1109c83a 	sub	r4,r2,r4
 1000f24:	00800e04 	movi	r2,56
 1000f28:	11004316 	blt	r2,r4,1001038 <__pack_d+0x2cc>
 1000f2c:	21fff804 	addi	r7,r4,-32
 1000f30:	38004516 	blt	r7,zero,1001048 <__pack_d+0x2dc>
 1000f34:	49d8d83a 	srl	r12,r9,r7
 1000f38:	001b883a 	mov	r13,zero
 1000f3c:	0023883a 	mov	r17,zero
 1000f40:	01400044 	movi	r5,1
 1000f44:	0025883a 	mov	r18,zero
 1000f48:	38004716 	blt	r7,zero,1001068 <__pack_d+0x2fc>
 1000f4c:	29d6983a 	sll	r11,r5,r7
 1000f50:	0015883a 	mov	r10,zero
 1000f54:	00bfffc4 	movi	r2,-1
 1000f58:	5089883a 	add	r4,r10,r2
 1000f5c:	588b883a 	add	r5,r11,r2
 1000f60:	228d803a 	cmpltu	r6,r4,r10
 1000f64:	314b883a 	add	r5,r6,r5
 1000f68:	4104703a 	and	r2,r8,r4
 1000f6c:	4946703a 	and	r3,r9,r5
 1000f70:	10c4b03a 	or	r2,r2,r3
 1000f74:	10000226 	beq	r2,zero,1000f80 <__pack_d+0x214>
 1000f78:	04400044 	movi	r17,1
 1000f7c:	0025883a 	mov	r18,zero
 1000f80:	00803fc4 	movi	r2,255
 1000f84:	644eb03a 	or	r7,r12,r17
 1000f88:	3892703a 	and	r9,r7,r2
 1000f8c:	00802004 	movi	r2,128
 1000f90:	6c90b03a 	or	r8,r13,r18
 1000f94:	0015883a 	mov	r10,zero
 1000f98:	48801626 	beq	r9,r2,1000ff4 <__pack_d+0x288>
 1000f9c:	01001fc4 	movi	r4,127
 1000fa0:	3905883a 	add	r2,r7,r4
 1000fa4:	11cd803a 	cmpltu	r6,r2,r7
 1000fa8:	320d883a 	add	r6,r6,r8
 1000fac:	100f883a 	mov	r7,r2
 1000fb0:	00840034 	movhi	r2,4096
 1000fb4:	10bfffc4 	addi	r2,r2,-1
 1000fb8:	3011883a 	mov	r8,r6
 1000fbc:	0007883a 	mov	r3,zero
 1000fc0:	11801b36 	bltu	r2,r6,1001030 <__pack_d+0x2c4>
 1000fc4:	4004963a 	slli	r2,r8,24
 1000fc8:	3808d23a 	srli	r4,r7,8
 1000fcc:	400ad23a 	srli	r5,r8,8
 1000fd0:	1813883a 	mov	r9,r3
 1000fd4:	1108b03a 	or	r4,r2,r4
 1000fd8:	00bfffc4 	movi	r2,-1
 1000fdc:	00c00434 	movhi	r3,16
 1000fe0:	18ffffc4 	addi	r3,r3,-1
 1000fe4:	208c703a 	and	r6,r4,r2
 1000fe8:	28ce703a 	and	r7,r5,r3
 1000fec:	4a01ffcc 	andi	r8,r9,2047
 1000ff0:	003f7206 	br	1000dbc <__pack_d+0x50>
 1000ff4:	503fe91e 	bne	r10,zero,1000f9c <__pack_d+0x230>
 1000ff8:	01004004 	movi	r4,256
 1000ffc:	3904703a 	and	r2,r7,r4
 1001000:	0007883a 	mov	r3,zero
 1001004:	10c4b03a 	or	r2,r2,r3
 1001008:	10000626 	beq	r2,zero,1001024 <__pack_d+0x2b8>
 100100c:	3a45883a 	add	r2,r7,r9
 1001010:	11cd803a 	cmpltu	r6,r2,r7
 1001014:	320d883a 	add	r6,r6,r8
 1001018:	100f883a 	mov	r7,r2
 100101c:	3011883a 	mov	r8,r6
 1001020:	0007883a 	mov	r3,zero
 1001024:	00840034 	movhi	r2,4096
 1001028:	10bfffc4 	addi	r2,r2,-1
 100102c:	123fe52e 	bgeu	r2,r8,1000fc4 <__pack_d+0x258>
 1001030:	00c00044 	movi	r3,1
 1001034:	003fe306 	br	1000fc4 <__pack_d+0x258>
 1001038:	0009883a 	mov	r4,zero
 100103c:	0013883a 	mov	r9,zero
 1001040:	000b883a 	mov	r5,zero
 1001044:	003fe406 	br	1000fd8 <__pack_d+0x26c>
 1001048:	4a47883a 	add	r3,r9,r9
 100104c:	008007c4 	movi	r2,31
 1001050:	1105c83a 	sub	r2,r2,r4
 1001054:	1886983a 	sll	r3,r3,r2
 1001058:	4118d83a 	srl	r12,r8,r4
 100105c:	491ad83a 	srl	r13,r9,r4
 1001060:	1b18b03a 	or	r12,r3,r12
 1001064:	003fb506 	br	1000f3c <__pack_d+0x1d0>
 1001068:	2806d07a 	srli	r3,r5,1
 100106c:	008007c4 	movi	r2,31
 1001070:	1105c83a 	sub	r2,r2,r4
 1001074:	1896d83a 	srl	r11,r3,r2
 1001078:	2914983a 	sll	r10,r5,r4
 100107c:	003fb506 	br	1000f54 <__pack_d+0x1e8>

01001080 <printf>:
 1001080:	defffb04 	addi	sp,sp,-20
 1001084:	dfc00115 	stw	ra,4(sp)
 1001088:	d9400215 	stw	r5,8(sp)
 100108c:	d9800315 	stw	r6,12(sp)
 1001090:	d9c00415 	stw	r7,16(sp)
 1001094:	00804074 	movhi	r2,257
 1001098:	10be1c04 	addi	r2,r2,-1936
 100109c:	10c00017 	ldw	r3,0(r2)
 10010a0:	200b883a 	mov	r5,r4
 10010a4:	d8800204 	addi	r2,sp,8
 10010a8:	19000217 	ldw	r4,8(r3)
 10010ac:	100d883a 	mov	r6,r2
 10010b0:	d8800015 	stw	r2,0(sp)
 10010b4:	10031040 	call	1003104 <__vfprintf_internal>
 10010b8:	dfc00117 	ldw	ra,4(sp)
 10010bc:	dec00504 	addi	sp,sp,20
 10010c0:	f800283a 	ret

010010c4 <_printf_r>:
 10010c4:	defffc04 	addi	sp,sp,-16
 10010c8:	dfc00115 	stw	ra,4(sp)
 10010cc:	d9800215 	stw	r6,8(sp)
 10010d0:	d9c00315 	stw	r7,12(sp)
 10010d4:	280d883a 	mov	r6,r5
 10010d8:	21400217 	ldw	r5,8(r4)
 10010dc:	d8c00204 	addi	r3,sp,8
 10010e0:	180f883a 	mov	r7,r3
 10010e4:	d8c00015 	stw	r3,0(sp)
 10010e8:	10012400 	call	1001240 <___vfprintf_internal_r>
 10010ec:	dfc00117 	ldw	ra,4(sp)
 10010f0:	dec00404 	addi	sp,sp,16
 10010f4:	f800283a 	ret

010010f8 <srand>:
 10010f8:	00804074 	movhi	r2,257
 10010fc:	10be1c04 	addi	r2,r2,-1936
 1001100:	11400017 	ldw	r5,0(r2)
 1001104:	0007883a 	mov	r3,zero
 1001108:	28c02a15 	stw	r3,168(r5)
 100110c:	29002915 	stw	r4,164(r5)
 1001110:	f800283a 	ret

01001114 <rand>:
 1001114:	defffe04 	addi	sp,sp,-8
 1001118:	00804074 	movhi	r2,257
 100111c:	10be1c04 	addi	r2,r2,-1936
 1001120:	dc000015 	stw	r16,0(sp)
 1001124:	14000017 	ldw	r16,0(r2)
 1001128:	dfc00115 	stw	ra,4(sp)
 100112c:	00932574 	movhi	r2,19605
 1001130:	109fcb44 	addi	r2,r2,32557
 1001134:	82002917 	ldw	r8,164(r16)
 1001138:	82402a17 	ldw	r9,168(r16)
 100113c:	00d614b4 	movhi	r3,22610
 1001140:	18fd0b44 	addi	r3,r3,-3027
 1001144:	4009883a 	mov	r4,r8
 1001148:	180f883a 	mov	r7,r3
 100114c:	100d883a 	mov	r6,r2
 1001150:	480b883a 	mov	r5,r9
 1001154:	10085680 	call	1008568 <__muldi3>
 1001158:	02000044 	movi	r8,1
 100115c:	1209883a 	add	r4,r2,r8
 1001160:	2095803a 	cmpltu	r10,r4,r2
 1001164:	50d5883a 	add	r10,r10,r3
 1001168:	81002915 	stw	r4,164(r16)
 100116c:	01200034 	movhi	r4,32768
 1001170:	213fffc4 	addi	r4,r4,-1
 1001174:	2284703a 	and	r2,r4,r10
 1001178:	82802a15 	stw	r10,168(r16)
 100117c:	dfc00117 	ldw	ra,4(sp)
 1001180:	dc000017 	ldw	r16,0(sp)
 1001184:	dec00204 	addi	sp,sp,8
 1001188:	f800283a 	ret

0100118c <time>:
 100118c:	defffc04 	addi	sp,sp,-16
 1001190:	00804074 	movhi	r2,257
 1001194:	10be1c04 	addi	r2,r2,-1936
 1001198:	dc000215 	stw	r16,8(sp)
 100119c:	2021883a 	mov	r16,r4
 10011a0:	11000017 	ldw	r4,0(r2)
 10011a4:	d80b883a 	mov	r5,sp
 10011a8:	000d883a 	mov	r6,zero
 10011ac:	dfc00315 	stw	ra,12(sp)
 10011b0:	10059dc0 	call	10059dc <_gettimeofday_r>
 10011b4:	00ffffc4 	movi	r3,-1
 10011b8:	10000416 	blt	r2,zero,10011cc <time+0x40>
 10011bc:	80000826 	beq	r16,zero,10011e0 <time+0x54>
 10011c0:	d8800017 	ldw	r2,0(sp)
 10011c4:	80800015 	stw	r2,0(r16)
 10011c8:	1007883a 	mov	r3,r2
 10011cc:	1805883a 	mov	r2,r3
 10011d0:	dfc00317 	ldw	ra,12(sp)
 10011d4:	dc000217 	ldw	r16,8(sp)
 10011d8:	dec00404 	addi	sp,sp,16
 10011dc:	f800283a 	ret
 10011e0:	d8800017 	ldw	r2,0(sp)
 10011e4:	003ff806 	br	10011c8 <time+0x3c>

010011e8 <__sprint_r>:
 10011e8:	30800217 	ldw	r2,8(r6)
 10011ec:	defffe04 	addi	sp,sp,-8
 10011f0:	dc000015 	stw	r16,0(sp)
 10011f4:	dfc00115 	stw	ra,4(sp)
 10011f8:	3021883a 	mov	r16,r6
 10011fc:	0007883a 	mov	r3,zero
 1001200:	1000061e 	bne	r2,zero,100121c <__sprint_r+0x34>
 1001204:	1805883a 	mov	r2,r3
 1001208:	30000115 	stw	zero,4(r6)
 100120c:	dfc00117 	ldw	ra,4(sp)
 1001210:	dc000017 	ldw	r16,0(sp)
 1001214:	dec00204 	addi	sp,sp,8
 1001218:	f800283a 	ret
 100121c:	10053c00 	call	10053c0 <__sfvwrite_r>
 1001220:	1007883a 	mov	r3,r2
 1001224:	1805883a 	mov	r2,r3
 1001228:	80000115 	stw	zero,4(r16)
 100122c:	80000215 	stw	zero,8(r16)
 1001230:	dfc00117 	ldw	ra,4(sp)
 1001234:	dc000017 	ldw	r16,0(sp)
 1001238:	dec00204 	addi	sp,sp,8
 100123c:	f800283a 	ret

01001240 <___vfprintf_internal_r>:
 1001240:	defea304 	addi	sp,sp,-1396
 1001244:	dd815915 	stw	r22,1380(sp)
 1001248:	dc015315 	stw	r16,1356(sp)
 100124c:	d9c15215 	stw	r7,1352(sp)
 1001250:	dfc15c15 	stw	ra,1392(sp)
 1001254:	df015b15 	stw	fp,1388(sp)
 1001258:	ddc15a15 	stw	r23,1384(sp)
 100125c:	dd415815 	stw	r21,1376(sp)
 1001260:	dd015715 	stw	r20,1372(sp)
 1001264:	dcc15615 	stw	r19,1368(sp)
 1001268:	dc815515 	stw	r18,1364(sp)
 100126c:	dc415415 	stw	r17,1360(sp)
 1001270:	282d883a 	mov	r22,r5
 1001274:	3021883a 	mov	r16,r6
 1001278:	d9015015 	stw	r4,1344(sp)
 100127c:	1005a580 	call	1005a58 <_localeconv_r>
 1001280:	10800017 	ldw	r2,0(r2)
 1001284:	d9c15217 	ldw	r7,1352(sp)
 1001288:	d8814a15 	stw	r2,1320(sp)
 100128c:	d8815017 	ldw	r2,1344(sp)
 1001290:	10000226 	beq	r2,zero,100129c <___vfprintf_internal_r+0x5c>
 1001294:	10800e17 	ldw	r2,56(r2)
 1001298:	10020d26 	beq	r2,zero,1001ad0 <___vfprintf_internal_r+0x890>
 100129c:	b080030b 	ldhu	r2,12(r22)
 10012a0:	1080020c 	andi	r2,r2,8
 10012a4:	10020e26 	beq	r2,zero,1001ae0 <___vfprintf_internal_r+0x8a0>
 10012a8:	b0800417 	ldw	r2,16(r22)
 10012ac:	10020c26 	beq	r2,zero,1001ae0 <___vfprintf_internal_r+0x8a0>
 10012b0:	b200030b 	ldhu	r8,12(r22)
 10012b4:	00800284 	movi	r2,10
 10012b8:	40c0068c 	andi	r3,r8,26
 10012bc:	18802f1e 	bne	r3,r2,100137c <___vfprintf_internal_r+0x13c>
 10012c0:	b080038f 	ldh	r2,14(r22)
 10012c4:	10002d16 	blt	r2,zero,100137c <___vfprintf_internal_r+0x13c>
 10012c8:	b240038b 	ldhu	r9,14(r22)
 10012cc:	b2800717 	ldw	r10,28(r22)
 10012d0:	b2c00917 	ldw	r11,36(r22)
 10012d4:	d9015017 	ldw	r4,1344(sp)
 10012d8:	dc402a04 	addi	r17,sp,168
 10012dc:	d8804104 	addi	r2,sp,260
 10012e0:	00c10004 	movi	r3,1024
 10012e4:	423fff4c 	andi	r8,r8,65533
 10012e8:	800d883a 	mov	r6,r16
 10012ec:	880b883a 	mov	r5,r17
 10012f0:	da002d0d 	sth	r8,180(sp)
 10012f4:	da402d8d 	sth	r9,182(sp)
 10012f8:	da803115 	stw	r10,196(sp)
 10012fc:	dac03315 	stw	r11,204(sp)
 1001300:	d8802e15 	stw	r2,184(sp)
 1001304:	d8c02f15 	stw	r3,188(sp)
 1001308:	d8802a15 	stw	r2,168(sp)
 100130c:	d8c02c15 	stw	r3,176(sp)
 1001310:	d8003015 	stw	zero,192(sp)
 1001314:	10012400 	call	1001240 <___vfprintf_internal_r>
 1001318:	d8814c15 	stw	r2,1328(sp)
 100131c:	10000416 	blt	r2,zero,1001330 <___vfprintf_internal_r+0xf0>
 1001320:	d9015017 	ldw	r4,1344(sp)
 1001324:	880b883a 	mov	r5,r17
 1001328:	1004a5c0 	call	1004a5c <_fflush_r>
 100132c:	1002321e 	bne	r2,zero,1001bf8 <___vfprintf_internal_r+0x9b8>
 1001330:	d8802d0b 	ldhu	r2,180(sp)
 1001334:	1080100c 	andi	r2,r2,64
 1001338:	10000326 	beq	r2,zero,1001348 <___vfprintf_internal_r+0x108>
 100133c:	b080030b 	ldhu	r2,12(r22)
 1001340:	10801014 	ori	r2,r2,64
 1001344:	b080030d 	sth	r2,12(r22)
 1001348:	d8814c17 	ldw	r2,1328(sp)
 100134c:	dfc15c17 	ldw	ra,1392(sp)
 1001350:	df015b17 	ldw	fp,1388(sp)
 1001354:	ddc15a17 	ldw	r23,1384(sp)
 1001358:	dd815917 	ldw	r22,1380(sp)
 100135c:	dd415817 	ldw	r21,1376(sp)
 1001360:	dd015717 	ldw	r20,1372(sp)
 1001364:	dcc15617 	ldw	r19,1368(sp)
 1001368:	dc815517 	ldw	r18,1364(sp)
 100136c:	dc415417 	ldw	r17,1360(sp)
 1001370:	dc015317 	ldw	r16,1356(sp)
 1001374:	dec15d04 	addi	sp,sp,1396
 1001378:	f800283a 	ret
 100137c:	0005883a 	mov	r2,zero
 1001380:	0007883a 	mov	r3,zero
 1001384:	dd401a04 	addi	r21,sp,104
 1001388:	d8814315 	stw	r2,1292(sp)
 100138c:	802f883a 	mov	r23,r16
 1001390:	d8c14415 	stw	r3,1296(sp)
 1001394:	d8014c15 	stw	zero,1328(sp)
 1001398:	d8014915 	stw	zero,1316(sp)
 100139c:	d8014515 	stw	zero,1300(sp)
 10013a0:	d8014815 	stw	zero,1312(sp)
 10013a4:	dd400d15 	stw	r21,52(sp)
 10013a8:	d8000f15 	stw	zero,60(sp)
 10013ac:	d8000e15 	stw	zero,56(sp)
 10013b0:	b8800007 	ldb	r2,0(r23)
 10013b4:	10001926 	beq	r2,zero,100141c <___vfprintf_internal_r+0x1dc>
 10013b8:	00c00944 	movi	r3,37
 10013bc:	10c01726 	beq	r2,r3,100141c <___vfprintf_internal_r+0x1dc>
 10013c0:	b821883a 	mov	r16,r23
 10013c4:	00000106 	br	10013cc <___vfprintf_internal_r+0x18c>
 10013c8:	10c00326 	beq	r2,r3,10013d8 <___vfprintf_internal_r+0x198>
 10013cc:	84000044 	addi	r16,r16,1
 10013d0:	80800007 	ldb	r2,0(r16)
 10013d4:	103ffc1e 	bne	r2,zero,10013c8 <___vfprintf_internal_r+0x188>
 10013d8:	85e7c83a 	sub	r19,r16,r23
 10013dc:	98000e26 	beq	r19,zero,1001418 <___vfprintf_internal_r+0x1d8>
 10013e0:	dc800f17 	ldw	r18,60(sp)
 10013e4:	dc400e17 	ldw	r17,56(sp)
 10013e8:	008001c4 	movi	r2,7
 10013ec:	94e5883a 	add	r18,r18,r19
 10013f0:	8c400044 	addi	r17,r17,1
 10013f4:	adc00015 	stw	r23,0(r21)
 10013f8:	dc800f15 	stw	r18,60(sp)
 10013fc:	acc00115 	stw	r19,4(r21)
 1001400:	dc400e15 	stw	r17,56(sp)
 1001404:	14428b16 	blt	r2,r17,1001e34 <___vfprintf_internal_r+0xbf4>
 1001408:	ad400204 	addi	r21,r21,8
 100140c:	d9014c17 	ldw	r4,1328(sp)
 1001410:	24c9883a 	add	r4,r4,r19
 1001414:	d9014c15 	stw	r4,1328(sp)
 1001418:	802f883a 	mov	r23,r16
 100141c:	b8800007 	ldb	r2,0(r23)
 1001420:	10013c26 	beq	r2,zero,1001914 <___vfprintf_internal_r+0x6d4>
 1001424:	bdc00044 	addi	r23,r23,1
 1001428:	d8000405 	stb	zero,16(sp)
 100142c:	b8c00007 	ldb	r3,0(r23)
 1001430:	04ffffc4 	movi	r19,-1
 1001434:	d8014d15 	stw	zero,1332(sp)
 1001438:	d8014b15 	stw	zero,1324(sp)
 100143c:	d8c14e15 	stw	r3,1336(sp)
 1001440:	bdc00044 	addi	r23,r23,1
 1001444:	d9414e17 	ldw	r5,1336(sp)
 1001448:	00801604 	movi	r2,88
 100144c:	28fff804 	addi	r3,r5,-32
 1001450:	10c06036 	bltu	r2,r3,10015d4 <___vfprintf_internal_r+0x394>
 1001454:	18c5883a 	add	r2,r3,r3
 1001458:	1085883a 	add	r2,r2,r2
 100145c:	00c04034 	movhi	r3,256
 1001460:	18c51c04 	addi	r3,r3,5232
 1001464:	10c5883a 	add	r2,r2,r3
 1001468:	11000017 	ldw	r4,0(r2)
 100146c:	2000683a 	jmp	r4
 1001470:	010023e4 	muli	r4,zero,143
 1001474:	010015d4 	movui	r4,87
 1001478:	010015d4 	movui	r4,87
 100147c:	010023d0 	cmplti	r4,zero,143
 1001480:	010015d4 	movui	r4,87
 1001484:	010015d4 	movui	r4,87
 1001488:	010015d4 	movui	r4,87
 100148c:	010015d4 	movui	r4,87
 1001490:	010015d4 	movui	r4,87
 1001494:	010015d4 	movui	r4,87
 1001498:	010021b0 	cmpltui	r4,zero,134
 100149c:	010023c0 	call	10023c <__alt_mem_onchip_memory2_0+0x10023c>
 10014a0:	010015d4 	movui	r4,87
 10014a4:	010021c8 	cmpgei	r4,zero,135
 10014a8:	01002468 	cmpgeui	r4,zero,145
 10014ac:	010015d4 	movui	r4,87
 10014b0:	01002454 	movui	r4,145
 10014b4:	01002410 	cmplti	r4,zero,144
 10014b8:	01002410 	cmplti	r4,zero,144
 10014bc:	01002410 	cmplti	r4,zero,144
 10014c0:	01002410 	cmplti	r4,zero,144
 10014c4:	01002410 	cmplti	r4,zero,144
 10014c8:	01002410 	cmplti	r4,zero,144
 10014cc:	01002410 	cmplti	r4,zero,144
 10014d0:	01002410 	cmplti	r4,zero,144
 10014d4:	01002410 	cmplti	r4,zero,144
 10014d8:	010015d4 	movui	r4,87
 10014dc:	010015d4 	movui	r4,87
 10014e0:	010015d4 	movui	r4,87
 10014e4:	010015d4 	movui	r4,87
 10014e8:	010015d4 	movui	r4,87
 10014ec:	010015d4 	movui	r4,87
 10014f0:	010015d4 	movui	r4,87
 10014f4:	010015d4 	movui	r4,87
 10014f8:	010015d4 	movui	r4,87
 10014fc:	010015d4 	movui	r4,87
 1001500:	01001c2c 	andhi	r4,zero,112
 1001504:	01002298 	cmpnei	r4,zero,138
 1001508:	010015d4 	movui	r4,87
 100150c:	01002298 	cmpnei	r4,zero,138
 1001510:	010015d4 	movui	r4,87
 1001514:	010015d4 	movui	r4,87
 1001518:	010015d4 	movui	r4,87
 100151c:	010015d4 	movui	r4,87
 1001520:	010023fc 	xorhi	r4,zero,143
 1001524:	010015d4 	movui	r4,87
 1001528:	010015d4 	movui	r4,87
 100152c:	01001ce0 	cmpeqi	r4,zero,115
 1001530:	010015d4 	movui	r4,87
 1001534:	010015d4 	movui	r4,87
 1001538:	010015d4 	movui	r4,87
 100153c:	010015d4 	movui	r4,87
 1001540:	010015d4 	movui	r4,87
 1001544:	01001d2c 	andhi	r4,zero,116
 1001548:	010015d4 	movui	r4,87
 100154c:	010015d4 	movui	r4,87
 1001550:	0100234c 	andi	r4,zero,141
 1001554:	010015d4 	movui	r4,87
 1001558:	010015d4 	movui	r4,87
 100155c:	010015d4 	movui	r4,87
 1001560:	010015d4 	movui	r4,87
 1001564:	010015d4 	movui	r4,87
 1001568:	010015d4 	movui	r4,87
 100156c:	010015d4 	movui	r4,87
 1001570:	010015d4 	movui	r4,87
 1001574:	010015d4 	movui	r4,87
 1001578:	010015d4 	movui	r4,87
 100157c:	01002320 	cmpeqi	r4,zero,140
 1001580:	01001c38 	rdprs	r4,zero,112
 1001584:	01002298 	cmpnei	r4,zero,138
 1001588:	01002298 	cmpnei	r4,zero,138
 100158c:	01002298 	cmpnei	r4,zero,138
 1001590:	01002284 	movi	r4,138
 1001594:	01001c38 	rdprs	r4,zero,112
 1001598:	010015d4 	movui	r4,87
 100159c:	010015d4 	movui	r4,87
 10015a0:	0100220c 	andi	r4,zero,136
 10015a4:	010015d4 	movui	r4,87
 10015a8:	010021dc 	xori	r4,zero,135
 10015ac:	01001cec 	andhi	r4,zero,115
 10015b0:	0100223c 	xorhi	r4,zero,136
 10015b4:	01002228 	cmpgeui	r4,zero,136
 10015b8:	010015d4 	movui	r4,87
 10015bc:	010024d0 	cmplti	r4,zero,147
 10015c0:	010015d4 	movui	r4,87
 10015c4:	01001d38 	rdprs	r4,zero,116
 10015c8:	010015d4 	movui	r4,87
 10015cc:	010015d4 	movui	r4,87
 10015d0:	010023b0 	cmpltui	r4,zero,142
 10015d4:	d9014e17 	ldw	r4,1336(sp)
 10015d8:	2000ce26 	beq	r4,zero,1001914 <___vfprintf_internal_r+0x6d4>
 10015dc:	01400044 	movi	r5,1
 10015e0:	d9801004 	addi	r6,sp,64
 10015e4:	d9c14115 	stw	r7,1284(sp)
 10015e8:	d9414615 	stw	r5,1304(sp)
 10015ec:	d9814215 	stw	r6,1288(sp)
 10015f0:	280f883a 	mov	r7,r5
 10015f4:	d9001005 	stb	r4,64(sp)
 10015f8:	d8000405 	stb	zero,16(sp)
 10015fc:	d8014715 	stw	zero,1308(sp)
 1001600:	d8c14d17 	ldw	r3,1332(sp)
 1001604:	1880008c 	andi	r2,r3,2
 1001608:	1005003a 	cmpeq	r2,r2,zero
 100160c:	d8815115 	stw	r2,1348(sp)
 1001610:	1000031e 	bne	r2,zero,1001620 <___vfprintf_internal_r+0x3e0>
 1001614:	d9014617 	ldw	r4,1304(sp)
 1001618:	21000084 	addi	r4,r4,2
 100161c:	d9014615 	stw	r4,1304(sp)
 1001620:	d9414d17 	ldw	r5,1332(sp)
 1001624:	2940210c 	andi	r5,r5,132
 1001628:	d9414f15 	stw	r5,1340(sp)
 100162c:	28002d1e 	bne	r5,zero,10016e4 <___vfprintf_internal_r+0x4a4>
 1001630:	d9814b17 	ldw	r6,1324(sp)
 1001634:	d8814617 	ldw	r2,1304(sp)
 1001638:	30a1c83a 	sub	r16,r6,r2
 100163c:	0400290e 	bge	zero,r16,10016e4 <___vfprintf_internal_r+0x4a4>
 1001640:	00800404 	movi	r2,16
 1001644:	14045e0e 	bge	r2,r16,10027c0 <___vfprintf_internal_r+0x1580>
 1001648:	dc800f17 	ldw	r18,60(sp)
 100164c:	dc400e17 	ldw	r17,56(sp)
 1001650:	1027883a 	mov	r19,r2
 1001654:	07004074 	movhi	fp,257
 1001658:	e7371004 	addi	fp,fp,-9152
 100165c:	050001c4 	movi	r20,7
 1001660:	00000306 	br	1001670 <___vfprintf_internal_r+0x430>
 1001664:	843ffc04 	addi	r16,r16,-16
 1001668:	ad400204 	addi	r21,r21,8
 100166c:	9c00130e 	bge	r19,r16,10016bc <___vfprintf_internal_r+0x47c>
 1001670:	94800404 	addi	r18,r18,16
 1001674:	8c400044 	addi	r17,r17,1
 1001678:	af000015 	stw	fp,0(r21)
 100167c:	acc00115 	stw	r19,4(r21)
 1001680:	dc800f15 	stw	r18,60(sp)
 1001684:	dc400e15 	stw	r17,56(sp)
 1001688:	a47ff60e 	bge	r20,r17,1001664 <___vfprintf_internal_r+0x424>
 100168c:	d9015017 	ldw	r4,1344(sp)
 1001690:	b00b883a 	mov	r5,r22
 1001694:	d9800d04 	addi	r6,sp,52
 1001698:	d9c15215 	stw	r7,1352(sp)
 100169c:	10011e80 	call	10011e8 <__sprint_r>
 10016a0:	d9c15217 	ldw	r7,1352(sp)
 10016a4:	10009e1e 	bne	r2,zero,1001920 <___vfprintf_internal_r+0x6e0>
 10016a8:	843ffc04 	addi	r16,r16,-16
 10016ac:	dc800f17 	ldw	r18,60(sp)
 10016b0:	dc400e17 	ldw	r17,56(sp)
 10016b4:	dd401a04 	addi	r21,sp,104
 10016b8:	9c3fed16 	blt	r19,r16,1001670 <___vfprintf_internal_r+0x430>
 10016bc:	9425883a 	add	r18,r18,r16
 10016c0:	8c400044 	addi	r17,r17,1
 10016c4:	008001c4 	movi	r2,7
 10016c8:	af000015 	stw	fp,0(r21)
 10016cc:	ac000115 	stw	r16,4(r21)
 10016d0:	dc800f15 	stw	r18,60(sp)
 10016d4:	dc400e15 	stw	r17,56(sp)
 10016d8:	1441f516 	blt	r2,r17,1001eb0 <___vfprintf_internal_r+0xc70>
 10016dc:	ad400204 	addi	r21,r21,8
 10016e0:	00000206 	br	10016ec <___vfprintf_internal_r+0x4ac>
 10016e4:	dc800f17 	ldw	r18,60(sp)
 10016e8:	dc400e17 	ldw	r17,56(sp)
 10016ec:	d8800407 	ldb	r2,16(sp)
 10016f0:	10000b26 	beq	r2,zero,1001720 <___vfprintf_internal_r+0x4e0>
 10016f4:	00800044 	movi	r2,1
 10016f8:	94800044 	addi	r18,r18,1
 10016fc:	8c400044 	addi	r17,r17,1
 1001700:	a8800115 	stw	r2,4(r21)
 1001704:	d8c00404 	addi	r3,sp,16
 1001708:	008001c4 	movi	r2,7
 100170c:	a8c00015 	stw	r3,0(r21)
 1001710:	dc800f15 	stw	r18,60(sp)
 1001714:	dc400e15 	stw	r17,56(sp)
 1001718:	1441da16 	blt	r2,r17,1001e84 <___vfprintf_internal_r+0xc44>
 100171c:	ad400204 	addi	r21,r21,8
 1001720:	d9015117 	ldw	r4,1348(sp)
 1001724:	20000b1e 	bne	r4,zero,1001754 <___vfprintf_internal_r+0x514>
 1001728:	d8800504 	addi	r2,sp,20
 100172c:	94800084 	addi	r18,r18,2
 1001730:	8c400044 	addi	r17,r17,1
 1001734:	a8800015 	stw	r2,0(r21)
 1001738:	00c00084 	movi	r3,2
 100173c:	008001c4 	movi	r2,7
 1001740:	a8c00115 	stw	r3,4(r21)
 1001744:	dc800f15 	stw	r18,60(sp)
 1001748:	dc400e15 	stw	r17,56(sp)
 100174c:	1441c216 	blt	r2,r17,1001e58 <___vfprintf_internal_r+0xc18>
 1001750:	ad400204 	addi	r21,r21,8
 1001754:	d9414f17 	ldw	r5,1340(sp)
 1001758:	00802004 	movi	r2,128
 100175c:	2880b126 	beq	r5,r2,1001a24 <___vfprintf_internal_r+0x7e4>
 1001760:	d8c14717 	ldw	r3,1308(sp)
 1001764:	19e1c83a 	sub	r16,r3,r7
 1001768:	0400260e 	bge	zero,r16,1001804 <___vfprintf_internal_r+0x5c4>
 100176c:	00800404 	movi	r2,16
 1001770:	1403cf0e 	bge	r2,r16,10026b0 <___vfprintf_internal_r+0x1470>
 1001774:	1027883a 	mov	r19,r2
 1001778:	07004074 	movhi	fp,257
 100177c:	e7370c04 	addi	fp,fp,-9168
 1001780:	050001c4 	movi	r20,7
 1001784:	00000306 	br	1001794 <___vfprintf_internal_r+0x554>
 1001788:	843ffc04 	addi	r16,r16,-16
 100178c:	ad400204 	addi	r21,r21,8
 1001790:	9c00130e 	bge	r19,r16,10017e0 <___vfprintf_internal_r+0x5a0>
 1001794:	94800404 	addi	r18,r18,16
 1001798:	8c400044 	addi	r17,r17,1
 100179c:	af000015 	stw	fp,0(r21)
 10017a0:	acc00115 	stw	r19,4(r21)
 10017a4:	dc800f15 	stw	r18,60(sp)
 10017a8:	dc400e15 	stw	r17,56(sp)
 10017ac:	a47ff60e 	bge	r20,r17,1001788 <___vfprintf_internal_r+0x548>
 10017b0:	d9015017 	ldw	r4,1344(sp)
 10017b4:	b00b883a 	mov	r5,r22
 10017b8:	d9800d04 	addi	r6,sp,52
 10017bc:	d9c15215 	stw	r7,1352(sp)
 10017c0:	10011e80 	call	10011e8 <__sprint_r>
 10017c4:	d9c15217 	ldw	r7,1352(sp)
 10017c8:	1000551e 	bne	r2,zero,1001920 <___vfprintf_internal_r+0x6e0>
 10017cc:	843ffc04 	addi	r16,r16,-16
 10017d0:	dc800f17 	ldw	r18,60(sp)
 10017d4:	dc400e17 	ldw	r17,56(sp)
 10017d8:	dd401a04 	addi	r21,sp,104
 10017dc:	9c3fed16 	blt	r19,r16,1001794 <___vfprintf_internal_r+0x554>
 10017e0:	9425883a 	add	r18,r18,r16
 10017e4:	8c400044 	addi	r17,r17,1
 10017e8:	008001c4 	movi	r2,7
 10017ec:	af000015 	stw	fp,0(r21)
 10017f0:	ac000115 	stw	r16,4(r21)
 10017f4:	dc800f15 	stw	r18,60(sp)
 10017f8:	dc400e15 	stw	r17,56(sp)
 10017fc:	14418216 	blt	r2,r17,1001e08 <___vfprintf_internal_r+0xbc8>
 1001800:	ad400204 	addi	r21,r21,8
 1001804:	d9014d17 	ldw	r4,1332(sp)
 1001808:	2080400c 	andi	r2,r4,256
 100180c:	10004a1e 	bne	r2,zero,1001938 <___vfprintf_internal_r+0x6f8>
 1001810:	d9414217 	ldw	r5,1288(sp)
 1001814:	91e5883a 	add	r18,r18,r7
 1001818:	8c400044 	addi	r17,r17,1
 100181c:	008001c4 	movi	r2,7
 1001820:	a9400015 	stw	r5,0(r21)
 1001824:	a9c00115 	stw	r7,4(r21)
 1001828:	dc800f15 	stw	r18,60(sp)
 100182c:	dc400e15 	stw	r17,56(sp)
 1001830:	14416716 	blt	r2,r17,1001dd0 <___vfprintf_internal_r+0xb90>
 1001834:	a8c00204 	addi	r3,r21,8
 1001838:	d9814d17 	ldw	r6,1332(sp)
 100183c:	3080010c 	andi	r2,r6,4
 1001840:	10002826 	beq	r2,zero,10018e4 <___vfprintf_internal_r+0x6a4>
 1001844:	d8814b17 	ldw	r2,1324(sp)
 1001848:	d9014617 	ldw	r4,1304(sp)
 100184c:	1121c83a 	sub	r16,r2,r4
 1001850:	0400240e 	bge	zero,r16,10018e4 <___vfprintf_internal_r+0x6a4>
 1001854:	00800404 	movi	r2,16
 1001858:	1404550e 	bge	r2,r16,10029b0 <___vfprintf_internal_r+0x1770>
 100185c:	dc400e17 	ldw	r17,56(sp)
 1001860:	1027883a 	mov	r19,r2
 1001864:	07004074 	movhi	fp,257
 1001868:	e7371004 	addi	fp,fp,-9152
 100186c:	050001c4 	movi	r20,7
 1001870:	00000306 	br	1001880 <___vfprintf_internal_r+0x640>
 1001874:	843ffc04 	addi	r16,r16,-16
 1001878:	18c00204 	addi	r3,r3,8
 100187c:	9c00110e 	bge	r19,r16,10018c4 <___vfprintf_internal_r+0x684>
 1001880:	94800404 	addi	r18,r18,16
 1001884:	8c400044 	addi	r17,r17,1
 1001888:	1f000015 	stw	fp,0(r3)
 100188c:	1cc00115 	stw	r19,4(r3)
 1001890:	dc800f15 	stw	r18,60(sp)
 1001894:	dc400e15 	stw	r17,56(sp)
 1001898:	a47ff60e 	bge	r20,r17,1001874 <___vfprintf_internal_r+0x634>
 100189c:	d9015017 	ldw	r4,1344(sp)
 10018a0:	b00b883a 	mov	r5,r22
 10018a4:	d9800d04 	addi	r6,sp,52
 10018a8:	10011e80 	call	10011e8 <__sprint_r>
 10018ac:	10001c1e 	bne	r2,zero,1001920 <___vfprintf_internal_r+0x6e0>
 10018b0:	843ffc04 	addi	r16,r16,-16
 10018b4:	dc800f17 	ldw	r18,60(sp)
 10018b8:	dc400e17 	ldw	r17,56(sp)
 10018bc:	d8c01a04 	addi	r3,sp,104
 10018c0:	9c3fef16 	blt	r19,r16,1001880 <___vfprintf_internal_r+0x640>
 10018c4:	9425883a 	add	r18,r18,r16
 10018c8:	8c400044 	addi	r17,r17,1
 10018cc:	008001c4 	movi	r2,7
 10018d0:	1f000015 	stw	fp,0(r3)
 10018d4:	1c000115 	stw	r16,4(r3)
 10018d8:	dc800f15 	stw	r18,60(sp)
 10018dc:	dc400e15 	stw	r17,56(sp)
 10018e0:	1440cb16 	blt	r2,r17,1001c10 <___vfprintf_internal_r+0x9d0>
 10018e4:	d8814b17 	ldw	r2,1324(sp)
 10018e8:	d9414617 	ldw	r5,1304(sp)
 10018ec:	1140010e 	bge	r2,r5,10018f4 <___vfprintf_internal_r+0x6b4>
 10018f0:	2805883a 	mov	r2,r5
 10018f4:	d9814c17 	ldw	r6,1328(sp)
 10018f8:	308d883a 	add	r6,r6,r2
 10018fc:	d9814c15 	stw	r6,1328(sp)
 1001900:	90013b1e 	bne	r18,zero,1001df0 <___vfprintf_internal_r+0xbb0>
 1001904:	d9c14117 	ldw	r7,1284(sp)
 1001908:	dd401a04 	addi	r21,sp,104
 100190c:	d8000e15 	stw	zero,56(sp)
 1001910:	003ea706 	br	10013b0 <___vfprintf_internal_r+0x170>
 1001914:	d8800f17 	ldw	r2,60(sp)
 1001918:	1005451e 	bne	r2,zero,1002e30 <___vfprintf_internal_r+0x1bf0>
 100191c:	d8000e15 	stw	zero,56(sp)
 1001920:	b080030b 	ldhu	r2,12(r22)
 1001924:	1080100c 	andi	r2,r2,64
 1001928:	103e8726 	beq	r2,zero,1001348 <___vfprintf_internal_r+0x108>
 100192c:	00bfffc4 	movi	r2,-1
 1001930:	d8814c15 	stw	r2,1328(sp)
 1001934:	003e8406 	br	1001348 <___vfprintf_internal_r+0x108>
 1001938:	d9814e17 	ldw	r6,1336(sp)
 100193c:	00801944 	movi	r2,101
 1001940:	11806e16 	blt	r2,r6,1001afc <___vfprintf_internal_r+0x8bc>
 1001944:	d9414817 	ldw	r5,1312(sp)
 1001948:	00c00044 	movi	r3,1
 100194c:	1943490e 	bge	r3,r5,1002674 <___vfprintf_internal_r+0x1434>
 1001950:	d8814217 	ldw	r2,1288(sp)
 1001954:	94800044 	addi	r18,r18,1
 1001958:	8c400044 	addi	r17,r17,1
 100195c:	a8800015 	stw	r2,0(r21)
 1001960:	008001c4 	movi	r2,7
 1001964:	a8c00115 	stw	r3,4(r21)
 1001968:	dc800f15 	stw	r18,60(sp)
 100196c:	dc400e15 	stw	r17,56(sp)
 1001970:	1441ca16 	blt	r2,r17,100209c <___vfprintf_internal_r+0xe5c>
 1001974:	a8c00204 	addi	r3,r21,8
 1001978:	d9014a17 	ldw	r4,1320(sp)
 100197c:	00800044 	movi	r2,1
 1001980:	94800044 	addi	r18,r18,1
 1001984:	8c400044 	addi	r17,r17,1
 1001988:	18800115 	stw	r2,4(r3)
 100198c:	008001c4 	movi	r2,7
 1001990:	19000015 	stw	r4,0(r3)
 1001994:	dc800f15 	stw	r18,60(sp)
 1001998:	dc400e15 	stw	r17,56(sp)
 100199c:	1441b616 	blt	r2,r17,1002078 <___vfprintf_internal_r+0xe38>
 10019a0:	1cc00204 	addi	r19,r3,8
 10019a4:	d9014317 	ldw	r4,1292(sp)
 10019a8:	d9414417 	ldw	r5,1296(sp)
 10019ac:	000d883a 	mov	r6,zero
 10019b0:	000f883a 	mov	r7,zero
 10019b4:	1009f000 	call	1009f00 <__nedf2>
 10019b8:	10017426 	beq	r2,zero,1001f8c <___vfprintf_internal_r+0xd4c>
 10019bc:	d9414817 	ldw	r5,1312(sp)
 10019c0:	d9814217 	ldw	r6,1288(sp)
 10019c4:	8c400044 	addi	r17,r17,1
 10019c8:	2c85883a 	add	r2,r5,r18
 10019cc:	14bfffc4 	addi	r18,r2,-1
 10019d0:	28bfffc4 	addi	r2,r5,-1
 10019d4:	30c00044 	addi	r3,r6,1
 10019d8:	98800115 	stw	r2,4(r19)
 10019dc:	008001c4 	movi	r2,7
 10019e0:	98c00015 	stw	r3,0(r19)
 10019e4:	dc800f15 	stw	r18,60(sp)
 10019e8:	dc400e15 	stw	r17,56(sp)
 10019ec:	14418e16 	blt	r2,r17,1002028 <___vfprintf_internal_r+0xde8>
 10019f0:	9cc00204 	addi	r19,r19,8
 10019f4:	d9414917 	ldw	r5,1316(sp)
 10019f8:	d8800904 	addi	r2,sp,36
 10019fc:	8c400044 	addi	r17,r17,1
 1001a00:	9165883a 	add	r18,r18,r5
 1001a04:	98800015 	stw	r2,0(r19)
 1001a08:	008001c4 	movi	r2,7
 1001a0c:	99400115 	stw	r5,4(r19)
 1001a10:	dc800f15 	stw	r18,60(sp)
 1001a14:	dc400e15 	stw	r17,56(sp)
 1001a18:	1440ed16 	blt	r2,r17,1001dd0 <___vfprintf_internal_r+0xb90>
 1001a1c:	98c00204 	addi	r3,r19,8
 1001a20:	003f8506 	br	1001838 <___vfprintf_internal_r+0x5f8>
 1001a24:	d9814b17 	ldw	r6,1324(sp)
 1001a28:	d8814617 	ldw	r2,1304(sp)
 1001a2c:	30a1c83a 	sub	r16,r6,r2
 1001a30:	043f4b0e 	bge	zero,r16,1001760 <___vfprintf_internal_r+0x520>
 1001a34:	00800404 	movi	r2,16
 1001a38:	14043a0e 	bge	r2,r16,1002b24 <___vfprintf_internal_r+0x18e4>
 1001a3c:	1027883a 	mov	r19,r2
 1001a40:	07004074 	movhi	fp,257
 1001a44:	e7370c04 	addi	fp,fp,-9168
 1001a48:	050001c4 	movi	r20,7
 1001a4c:	00000306 	br	1001a5c <___vfprintf_internal_r+0x81c>
 1001a50:	843ffc04 	addi	r16,r16,-16
 1001a54:	ad400204 	addi	r21,r21,8
 1001a58:	9c00130e 	bge	r19,r16,1001aa8 <___vfprintf_internal_r+0x868>
 1001a5c:	94800404 	addi	r18,r18,16
 1001a60:	8c400044 	addi	r17,r17,1
 1001a64:	af000015 	stw	fp,0(r21)
 1001a68:	acc00115 	stw	r19,4(r21)
 1001a6c:	dc800f15 	stw	r18,60(sp)
 1001a70:	dc400e15 	stw	r17,56(sp)
 1001a74:	a47ff60e 	bge	r20,r17,1001a50 <___vfprintf_internal_r+0x810>
 1001a78:	d9015017 	ldw	r4,1344(sp)
 1001a7c:	b00b883a 	mov	r5,r22
 1001a80:	d9800d04 	addi	r6,sp,52
 1001a84:	d9c15215 	stw	r7,1352(sp)
 1001a88:	10011e80 	call	10011e8 <__sprint_r>
 1001a8c:	d9c15217 	ldw	r7,1352(sp)
 1001a90:	103fa31e 	bne	r2,zero,1001920 <___vfprintf_internal_r+0x6e0>
 1001a94:	843ffc04 	addi	r16,r16,-16
 1001a98:	dc800f17 	ldw	r18,60(sp)
 1001a9c:	dc400e17 	ldw	r17,56(sp)
 1001aa0:	dd401a04 	addi	r21,sp,104
 1001aa4:	9c3fed16 	blt	r19,r16,1001a5c <___vfprintf_internal_r+0x81c>
 1001aa8:	9425883a 	add	r18,r18,r16
 1001aac:	8c400044 	addi	r17,r17,1
 1001ab0:	008001c4 	movi	r2,7
 1001ab4:	af000015 	stw	fp,0(r21)
 1001ab8:	ac000115 	stw	r16,4(r21)
 1001abc:	dc800f15 	stw	r18,60(sp)
 1001ac0:	dc400e15 	stw	r17,56(sp)
 1001ac4:	14416116 	blt	r2,r17,100204c <___vfprintf_internal_r+0xe0c>
 1001ac8:	ad400204 	addi	r21,r21,8
 1001acc:	003f2406 	br	1001760 <___vfprintf_internal_r+0x520>
 1001ad0:	d9015017 	ldw	r4,1344(sp)
 1001ad4:	1004cf40 	call	1004cf4 <__sinit>
 1001ad8:	d9c15217 	ldw	r7,1352(sp)
 1001adc:	003def06 	br	100129c <___vfprintf_internal_r+0x5c>
 1001ae0:	d9015017 	ldw	r4,1344(sp)
 1001ae4:	b00b883a 	mov	r5,r22
 1001ae8:	d9c15215 	stw	r7,1352(sp)
 1001aec:	10031280 	call	1003128 <__swsetup_r>
 1001af0:	d9c15217 	ldw	r7,1352(sp)
 1001af4:	103dee26 	beq	r2,zero,10012b0 <___vfprintf_internal_r+0x70>
 1001af8:	003f8c06 	br	100192c <___vfprintf_internal_r+0x6ec>
 1001afc:	d9014317 	ldw	r4,1292(sp)
 1001b00:	d9414417 	ldw	r5,1296(sp)
 1001b04:	000d883a 	mov	r6,zero
 1001b08:	000f883a 	mov	r7,zero
 1001b0c:	1009e780 	call	1009e78 <__eqdf2>
 1001b10:	1000f21e 	bne	r2,zero,1001edc <___vfprintf_internal_r+0xc9c>
 1001b14:	00804074 	movhi	r2,257
 1001b18:	10b70b04 	addi	r2,r2,-9172
 1001b1c:	94800044 	addi	r18,r18,1
 1001b20:	8c400044 	addi	r17,r17,1
 1001b24:	a8800015 	stw	r2,0(r21)
 1001b28:	00c00044 	movi	r3,1
 1001b2c:	008001c4 	movi	r2,7
 1001b30:	a8c00115 	stw	r3,4(r21)
 1001b34:	dc800f15 	stw	r18,60(sp)
 1001b38:	dc400e15 	stw	r17,56(sp)
 1001b3c:	14430016 	blt	r2,r17,1002740 <___vfprintf_internal_r+0x1500>
 1001b40:	a8c00204 	addi	r3,r21,8
 1001b44:	d8800617 	ldw	r2,24(sp)
 1001b48:	d9014817 	ldw	r4,1312(sp)
 1001b4c:	11015c0e 	bge	r2,r4,10020c0 <___vfprintf_internal_r+0xe80>
 1001b50:	dc400e17 	ldw	r17,56(sp)
 1001b54:	d9814a17 	ldw	r6,1320(sp)
 1001b58:	00800044 	movi	r2,1
 1001b5c:	94800044 	addi	r18,r18,1
 1001b60:	8c400044 	addi	r17,r17,1
 1001b64:	18800115 	stw	r2,4(r3)
 1001b68:	008001c4 	movi	r2,7
 1001b6c:	19800015 	stw	r6,0(r3)
 1001b70:	dc800f15 	stw	r18,60(sp)
 1001b74:	dc400e15 	stw	r17,56(sp)
 1001b78:	14431616 	blt	r2,r17,10027d4 <___vfprintf_internal_r+0x1594>
 1001b7c:	18c00204 	addi	r3,r3,8
 1001b80:	d8814817 	ldw	r2,1312(sp)
 1001b84:	143fffc4 	addi	r16,r2,-1
 1001b88:	043f2b0e 	bge	zero,r16,1001838 <___vfprintf_internal_r+0x5f8>
 1001b8c:	00800404 	movi	r2,16
 1001b90:	1402a80e 	bge	r2,r16,1002634 <___vfprintf_internal_r+0x13f4>
 1001b94:	dc400e17 	ldw	r17,56(sp)
 1001b98:	1027883a 	mov	r19,r2
 1001b9c:	07004074 	movhi	fp,257
 1001ba0:	e7370c04 	addi	fp,fp,-9168
 1001ba4:	050001c4 	movi	r20,7
 1001ba8:	00000306 	br	1001bb8 <___vfprintf_internal_r+0x978>
 1001bac:	18c00204 	addi	r3,r3,8
 1001bb0:	843ffc04 	addi	r16,r16,-16
 1001bb4:	9c02a20e 	bge	r19,r16,1002640 <___vfprintf_internal_r+0x1400>
 1001bb8:	94800404 	addi	r18,r18,16
 1001bbc:	8c400044 	addi	r17,r17,1
 1001bc0:	1f000015 	stw	fp,0(r3)
 1001bc4:	1cc00115 	stw	r19,4(r3)
 1001bc8:	dc800f15 	stw	r18,60(sp)
 1001bcc:	dc400e15 	stw	r17,56(sp)
 1001bd0:	a47ff60e 	bge	r20,r17,1001bac <___vfprintf_internal_r+0x96c>
 1001bd4:	d9015017 	ldw	r4,1344(sp)
 1001bd8:	b00b883a 	mov	r5,r22
 1001bdc:	d9800d04 	addi	r6,sp,52
 1001be0:	10011e80 	call	10011e8 <__sprint_r>
 1001be4:	103f4e1e 	bne	r2,zero,1001920 <___vfprintf_internal_r+0x6e0>
 1001be8:	dc800f17 	ldw	r18,60(sp)
 1001bec:	dc400e17 	ldw	r17,56(sp)
 1001bf0:	d8c01a04 	addi	r3,sp,104
 1001bf4:	003fee06 	br	1001bb0 <___vfprintf_internal_r+0x970>
 1001bf8:	d8802d0b 	ldhu	r2,180(sp)
 1001bfc:	00ffffc4 	movi	r3,-1
 1001c00:	d8c14c15 	stw	r3,1328(sp)
 1001c04:	1080100c 	andi	r2,r2,64
 1001c08:	103dcc1e 	bne	r2,zero,100133c <___vfprintf_internal_r+0xfc>
 1001c0c:	003dce06 	br	1001348 <___vfprintf_internal_r+0x108>
 1001c10:	d9015017 	ldw	r4,1344(sp)
 1001c14:	b00b883a 	mov	r5,r22
 1001c18:	d9800d04 	addi	r6,sp,52
 1001c1c:	10011e80 	call	10011e8 <__sprint_r>
 1001c20:	103f3f1e 	bne	r2,zero,1001920 <___vfprintf_internal_r+0x6e0>
 1001c24:	dc800f17 	ldw	r18,60(sp)
 1001c28:	003f2e06 	br	10018e4 <___vfprintf_internal_r+0x6a4>
 1001c2c:	d9414d17 	ldw	r5,1332(sp)
 1001c30:	29400414 	ori	r5,r5,16
 1001c34:	d9414d15 	stw	r5,1332(sp)
 1001c38:	d9814d17 	ldw	r6,1332(sp)
 1001c3c:	3080080c 	andi	r2,r6,32
 1001c40:	10014f1e 	bne	r2,zero,1002180 <___vfprintf_internal_r+0xf40>
 1001c44:	d8c14d17 	ldw	r3,1332(sp)
 1001c48:	1880040c 	andi	r2,r3,16
 1001c4c:	1002f01e 	bne	r2,zero,1002810 <___vfprintf_internal_r+0x15d0>
 1001c50:	d9014d17 	ldw	r4,1332(sp)
 1001c54:	2080100c 	andi	r2,r4,64
 1001c58:	1002ed26 	beq	r2,zero,1002810 <___vfprintf_internal_r+0x15d0>
 1001c5c:	3880000f 	ldh	r2,0(r7)
 1001c60:	39c00104 	addi	r7,r7,4
 1001c64:	d9c14115 	stw	r7,1284(sp)
 1001c68:	1023d7fa 	srai	r17,r2,31
 1001c6c:	1021883a 	mov	r16,r2
 1001c70:	88037816 	blt	r17,zero,1002a54 <___vfprintf_internal_r+0x1814>
 1001c74:	01000044 	movi	r4,1
 1001c78:	98000416 	blt	r19,zero,1001c8c <___vfprintf_internal_r+0xa4c>
 1001c7c:	d8c14d17 	ldw	r3,1332(sp)
 1001c80:	00bfdfc4 	movi	r2,-129
 1001c84:	1886703a 	and	r3,r3,r2
 1001c88:	d8c14d15 	stw	r3,1332(sp)
 1001c8c:	8444b03a 	or	r2,r16,r17
 1001c90:	10022c1e 	bne	r2,zero,1002544 <___vfprintf_internal_r+0x1304>
 1001c94:	98022b1e 	bne	r19,zero,1002544 <___vfprintf_internal_r+0x1304>
 1001c98:	20803fcc 	andi	r2,r4,255
 1001c9c:	1002a126 	beq	r2,zero,1002724 <___vfprintf_internal_r+0x14e4>
 1001ca0:	d8c01a04 	addi	r3,sp,104
 1001ca4:	dd001004 	addi	r20,sp,64
 1001ca8:	d8c14215 	stw	r3,1288(sp)
 1001cac:	d8c14217 	ldw	r3,1288(sp)
 1001cb0:	dcc14615 	stw	r19,1304(sp)
 1001cb4:	a0c5c83a 	sub	r2,r20,r3
 1001cb8:	11c00a04 	addi	r7,r2,40
 1001cbc:	99c0010e 	bge	r19,r7,1001cc4 <___vfprintf_internal_r+0xa84>
 1001cc0:	d9c14615 	stw	r7,1304(sp)
 1001cc4:	dcc14715 	stw	r19,1308(sp)
 1001cc8:	d8800407 	ldb	r2,16(sp)
 1001ccc:	103e4c26 	beq	r2,zero,1001600 <___vfprintf_internal_r+0x3c0>
 1001cd0:	d8814617 	ldw	r2,1304(sp)
 1001cd4:	10800044 	addi	r2,r2,1
 1001cd8:	d8814615 	stw	r2,1304(sp)
 1001cdc:	003e4806 	br	1001600 <___vfprintf_internal_r+0x3c0>
 1001ce0:	d9814d17 	ldw	r6,1332(sp)
 1001ce4:	31800414 	ori	r6,r6,16
 1001ce8:	d9814d15 	stw	r6,1332(sp)
 1001cec:	d8c14d17 	ldw	r3,1332(sp)
 1001cf0:	1880080c 	andi	r2,r3,32
 1001cf4:	1001271e 	bne	r2,zero,1002194 <___vfprintf_internal_r+0xf54>
 1001cf8:	d9414d17 	ldw	r5,1332(sp)
 1001cfc:	2880040c 	andi	r2,r5,16
 1001d00:	1002bc1e 	bne	r2,zero,10027f4 <___vfprintf_internal_r+0x15b4>
 1001d04:	d9814d17 	ldw	r6,1332(sp)
 1001d08:	3080100c 	andi	r2,r6,64
 1001d0c:	1002b926 	beq	r2,zero,10027f4 <___vfprintf_internal_r+0x15b4>
 1001d10:	3c00000b 	ldhu	r16,0(r7)
 1001d14:	0009883a 	mov	r4,zero
 1001d18:	39c00104 	addi	r7,r7,4
 1001d1c:	0023883a 	mov	r17,zero
 1001d20:	d9c14115 	stw	r7,1284(sp)
 1001d24:	d8000405 	stb	zero,16(sp)
 1001d28:	003fd306 	br	1001c78 <___vfprintf_internal_r+0xa38>
 1001d2c:	d9014d17 	ldw	r4,1332(sp)
 1001d30:	21000414 	ori	r4,r4,16
 1001d34:	d9014d15 	stw	r4,1332(sp)
 1001d38:	d9414d17 	ldw	r5,1332(sp)
 1001d3c:	2880080c 	andi	r2,r5,32
 1001d40:	1001081e 	bne	r2,zero,1002164 <___vfprintf_internal_r+0xf24>
 1001d44:	d8c14d17 	ldw	r3,1332(sp)
 1001d48:	1880040c 	andi	r2,r3,16
 1001d4c:	1002b61e 	bne	r2,zero,1002828 <___vfprintf_internal_r+0x15e8>
 1001d50:	d9014d17 	ldw	r4,1332(sp)
 1001d54:	2080100c 	andi	r2,r4,64
 1001d58:	1002b326 	beq	r2,zero,1002828 <___vfprintf_internal_r+0x15e8>
 1001d5c:	3c00000b 	ldhu	r16,0(r7)
 1001d60:	01000044 	movi	r4,1
 1001d64:	39c00104 	addi	r7,r7,4
 1001d68:	0023883a 	mov	r17,zero
 1001d6c:	d9c14115 	stw	r7,1284(sp)
 1001d70:	d8000405 	stb	zero,16(sp)
 1001d74:	003fc006 	br	1001c78 <___vfprintf_internal_r+0xa38>
 1001d78:	d9015017 	ldw	r4,1344(sp)
 1001d7c:	b00b883a 	mov	r5,r22
 1001d80:	d9800d04 	addi	r6,sp,52
 1001d84:	10011e80 	call	10011e8 <__sprint_r>
 1001d88:	103ee51e 	bne	r2,zero,1001920 <___vfprintf_internal_r+0x6e0>
 1001d8c:	dc800f17 	ldw	r18,60(sp)
 1001d90:	d8c01a04 	addi	r3,sp,104
 1001d94:	d9814d17 	ldw	r6,1332(sp)
 1001d98:	3080004c 	andi	r2,r6,1
 1001d9c:	1005003a 	cmpeq	r2,r2,zero
 1001da0:	103ea51e 	bne	r2,zero,1001838 <___vfprintf_internal_r+0x5f8>
 1001da4:	00800044 	movi	r2,1
 1001da8:	dc400e17 	ldw	r17,56(sp)
 1001dac:	18800115 	stw	r2,4(r3)
 1001db0:	d8814a17 	ldw	r2,1320(sp)
 1001db4:	94800044 	addi	r18,r18,1
 1001db8:	8c400044 	addi	r17,r17,1
 1001dbc:	18800015 	stw	r2,0(r3)
 1001dc0:	008001c4 	movi	r2,7
 1001dc4:	dc800f15 	stw	r18,60(sp)
 1001dc8:	dc400e15 	stw	r17,56(sp)
 1001dcc:	1442240e 	bge	r2,r17,1002660 <___vfprintf_internal_r+0x1420>
 1001dd0:	d9015017 	ldw	r4,1344(sp)
 1001dd4:	b00b883a 	mov	r5,r22
 1001dd8:	d9800d04 	addi	r6,sp,52
 1001ddc:	10011e80 	call	10011e8 <__sprint_r>
 1001de0:	103ecf1e 	bne	r2,zero,1001920 <___vfprintf_internal_r+0x6e0>
 1001de4:	dc800f17 	ldw	r18,60(sp)
 1001de8:	d8c01a04 	addi	r3,sp,104
 1001dec:	003e9206 	br	1001838 <___vfprintf_internal_r+0x5f8>
 1001df0:	d9015017 	ldw	r4,1344(sp)
 1001df4:	b00b883a 	mov	r5,r22
 1001df8:	d9800d04 	addi	r6,sp,52
 1001dfc:	10011e80 	call	10011e8 <__sprint_r>
 1001e00:	103ec026 	beq	r2,zero,1001904 <___vfprintf_internal_r+0x6c4>
 1001e04:	003ec606 	br	1001920 <___vfprintf_internal_r+0x6e0>
 1001e08:	d9015017 	ldw	r4,1344(sp)
 1001e0c:	b00b883a 	mov	r5,r22
 1001e10:	d9800d04 	addi	r6,sp,52
 1001e14:	d9c15215 	stw	r7,1352(sp)
 1001e18:	10011e80 	call	10011e8 <__sprint_r>
 1001e1c:	d9c15217 	ldw	r7,1352(sp)
 1001e20:	103ebf1e 	bne	r2,zero,1001920 <___vfprintf_internal_r+0x6e0>
 1001e24:	dc800f17 	ldw	r18,60(sp)
 1001e28:	dc400e17 	ldw	r17,56(sp)
 1001e2c:	dd401a04 	addi	r21,sp,104
 1001e30:	003e7406 	br	1001804 <___vfprintf_internal_r+0x5c4>
 1001e34:	d9015017 	ldw	r4,1344(sp)
 1001e38:	b00b883a 	mov	r5,r22
 1001e3c:	d9800d04 	addi	r6,sp,52
 1001e40:	d9c15215 	stw	r7,1352(sp)
 1001e44:	10011e80 	call	10011e8 <__sprint_r>
 1001e48:	d9c15217 	ldw	r7,1352(sp)
 1001e4c:	103eb41e 	bne	r2,zero,1001920 <___vfprintf_internal_r+0x6e0>
 1001e50:	dd401a04 	addi	r21,sp,104
 1001e54:	003d6d06 	br	100140c <___vfprintf_internal_r+0x1cc>
 1001e58:	d9015017 	ldw	r4,1344(sp)
 1001e5c:	b00b883a 	mov	r5,r22
 1001e60:	d9800d04 	addi	r6,sp,52
 1001e64:	d9c15215 	stw	r7,1352(sp)
 1001e68:	10011e80 	call	10011e8 <__sprint_r>
 1001e6c:	d9c15217 	ldw	r7,1352(sp)
 1001e70:	103eab1e 	bne	r2,zero,1001920 <___vfprintf_internal_r+0x6e0>
 1001e74:	dc800f17 	ldw	r18,60(sp)
 1001e78:	dc400e17 	ldw	r17,56(sp)
 1001e7c:	dd401a04 	addi	r21,sp,104
 1001e80:	003e3406 	br	1001754 <___vfprintf_internal_r+0x514>
 1001e84:	d9015017 	ldw	r4,1344(sp)
 1001e88:	b00b883a 	mov	r5,r22
 1001e8c:	d9800d04 	addi	r6,sp,52
 1001e90:	d9c15215 	stw	r7,1352(sp)
 1001e94:	10011e80 	call	10011e8 <__sprint_r>
 1001e98:	d9c15217 	ldw	r7,1352(sp)
 1001e9c:	103ea01e 	bne	r2,zero,1001920 <___vfprintf_internal_r+0x6e0>
 1001ea0:	dc800f17 	ldw	r18,60(sp)
 1001ea4:	dc400e17 	ldw	r17,56(sp)
 1001ea8:	dd401a04 	addi	r21,sp,104
 1001eac:	003e1c06 	br	1001720 <___vfprintf_internal_r+0x4e0>
 1001eb0:	d9015017 	ldw	r4,1344(sp)
 1001eb4:	b00b883a 	mov	r5,r22
 1001eb8:	d9800d04 	addi	r6,sp,52
 1001ebc:	d9c15215 	stw	r7,1352(sp)
 1001ec0:	10011e80 	call	10011e8 <__sprint_r>
 1001ec4:	d9c15217 	ldw	r7,1352(sp)
 1001ec8:	103e951e 	bne	r2,zero,1001920 <___vfprintf_internal_r+0x6e0>
 1001ecc:	dc800f17 	ldw	r18,60(sp)
 1001ed0:	dc400e17 	ldw	r17,56(sp)
 1001ed4:	dd401a04 	addi	r21,sp,104
 1001ed8:	003e0406 	br	10016ec <___vfprintf_internal_r+0x4ac>
 1001edc:	d9000617 	ldw	r4,24(sp)
 1001ee0:	0102580e 	bge	zero,r4,1002844 <___vfprintf_internal_r+0x1604>
 1001ee4:	d9814817 	ldw	r6,1312(sp)
 1001ee8:	21807a16 	blt	r4,r6,10020d4 <___vfprintf_internal_r+0xe94>
 1001eec:	d8814217 	ldw	r2,1288(sp)
 1001ef0:	91a5883a 	add	r18,r18,r6
 1001ef4:	8c400044 	addi	r17,r17,1
 1001ef8:	a8800015 	stw	r2,0(r21)
 1001efc:	008001c4 	movi	r2,7
 1001f00:	a9800115 	stw	r6,4(r21)
 1001f04:	dc800f15 	stw	r18,60(sp)
 1001f08:	dc400e15 	stw	r17,56(sp)
 1001f0c:	1442fc16 	blt	r2,r17,1002b00 <___vfprintf_internal_r+0x18c0>
 1001f10:	a8c00204 	addi	r3,r21,8
 1001f14:	d9414817 	ldw	r5,1312(sp)
 1001f18:	2161c83a 	sub	r16,r4,r5
 1001f1c:	043f9d0e 	bge	zero,r16,1001d94 <___vfprintf_internal_r+0xb54>
 1001f20:	00800404 	movi	r2,16
 1001f24:	1402190e 	bge	r2,r16,100278c <___vfprintf_internal_r+0x154c>
 1001f28:	dc400e17 	ldw	r17,56(sp)
 1001f2c:	1027883a 	mov	r19,r2
 1001f30:	07004074 	movhi	fp,257
 1001f34:	e7370c04 	addi	fp,fp,-9168
 1001f38:	050001c4 	movi	r20,7
 1001f3c:	00000306 	br	1001f4c <___vfprintf_internal_r+0xd0c>
 1001f40:	18c00204 	addi	r3,r3,8
 1001f44:	843ffc04 	addi	r16,r16,-16
 1001f48:	9c02130e 	bge	r19,r16,1002798 <___vfprintf_internal_r+0x1558>
 1001f4c:	94800404 	addi	r18,r18,16
 1001f50:	8c400044 	addi	r17,r17,1
 1001f54:	1f000015 	stw	fp,0(r3)
 1001f58:	1cc00115 	stw	r19,4(r3)
 1001f5c:	dc800f15 	stw	r18,60(sp)
 1001f60:	dc400e15 	stw	r17,56(sp)
 1001f64:	a47ff60e 	bge	r20,r17,1001f40 <___vfprintf_internal_r+0xd00>
 1001f68:	d9015017 	ldw	r4,1344(sp)
 1001f6c:	b00b883a 	mov	r5,r22
 1001f70:	d9800d04 	addi	r6,sp,52
 1001f74:	10011e80 	call	10011e8 <__sprint_r>
 1001f78:	103e691e 	bne	r2,zero,1001920 <___vfprintf_internal_r+0x6e0>
 1001f7c:	dc800f17 	ldw	r18,60(sp)
 1001f80:	dc400e17 	ldw	r17,56(sp)
 1001f84:	d8c01a04 	addi	r3,sp,104
 1001f88:	003fee06 	br	1001f44 <___vfprintf_internal_r+0xd04>
 1001f8c:	d8814817 	ldw	r2,1312(sp)
 1001f90:	143fffc4 	addi	r16,r2,-1
 1001f94:	043e970e 	bge	zero,r16,10019f4 <___vfprintf_internal_r+0x7b4>
 1001f98:	00800404 	movi	r2,16
 1001f9c:	1400180e 	bge	r2,r16,1002000 <___vfprintf_internal_r+0xdc0>
 1001fa0:	1029883a 	mov	r20,r2
 1001fa4:	07004074 	movhi	fp,257
 1001fa8:	e7370c04 	addi	fp,fp,-9168
 1001fac:	054001c4 	movi	r21,7
 1001fb0:	00000306 	br	1001fc0 <___vfprintf_internal_r+0xd80>
 1001fb4:	9cc00204 	addi	r19,r19,8
 1001fb8:	843ffc04 	addi	r16,r16,-16
 1001fbc:	a400120e 	bge	r20,r16,1002008 <___vfprintf_internal_r+0xdc8>
 1001fc0:	94800404 	addi	r18,r18,16
 1001fc4:	8c400044 	addi	r17,r17,1
 1001fc8:	9f000015 	stw	fp,0(r19)
 1001fcc:	9d000115 	stw	r20,4(r19)
 1001fd0:	dc800f15 	stw	r18,60(sp)
 1001fd4:	dc400e15 	stw	r17,56(sp)
 1001fd8:	ac7ff60e 	bge	r21,r17,1001fb4 <___vfprintf_internal_r+0xd74>
 1001fdc:	d9015017 	ldw	r4,1344(sp)
 1001fe0:	b00b883a 	mov	r5,r22
 1001fe4:	d9800d04 	addi	r6,sp,52
 1001fe8:	10011e80 	call	10011e8 <__sprint_r>
 1001fec:	103e4c1e 	bne	r2,zero,1001920 <___vfprintf_internal_r+0x6e0>
 1001ff0:	dc800f17 	ldw	r18,60(sp)
 1001ff4:	dc400e17 	ldw	r17,56(sp)
 1001ff8:	dcc01a04 	addi	r19,sp,104
 1001ffc:	003fee06 	br	1001fb8 <___vfprintf_internal_r+0xd78>
 1002000:	07004074 	movhi	fp,257
 1002004:	e7370c04 	addi	fp,fp,-9168
 1002008:	9425883a 	add	r18,r18,r16
 100200c:	8c400044 	addi	r17,r17,1
 1002010:	008001c4 	movi	r2,7
 1002014:	9f000015 	stw	fp,0(r19)
 1002018:	9c000115 	stw	r16,4(r19)
 100201c:	dc800f15 	stw	r18,60(sp)
 1002020:	dc400e15 	stw	r17,56(sp)
 1002024:	147e720e 	bge	r2,r17,10019f0 <___vfprintf_internal_r+0x7b0>
 1002028:	d9015017 	ldw	r4,1344(sp)
 100202c:	b00b883a 	mov	r5,r22
 1002030:	d9800d04 	addi	r6,sp,52
 1002034:	10011e80 	call	10011e8 <__sprint_r>
 1002038:	103e391e 	bne	r2,zero,1001920 <___vfprintf_internal_r+0x6e0>
 100203c:	dc800f17 	ldw	r18,60(sp)
 1002040:	dc400e17 	ldw	r17,56(sp)
 1002044:	dcc01a04 	addi	r19,sp,104
 1002048:	003e6a06 	br	10019f4 <___vfprintf_internal_r+0x7b4>
 100204c:	d9015017 	ldw	r4,1344(sp)
 1002050:	b00b883a 	mov	r5,r22
 1002054:	d9800d04 	addi	r6,sp,52
 1002058:	d9c15215 	stw	r7,1352(sp)
 100205c:	10011e80 	call	10011e8 <__sprint_r>
 1002060:	d9c15217 	ldw	r7,1352(sp)
 1002064:	103e2e1e 	bne	r2,zero,1001920 <___vfprintf_internal_r+0x6e0>
 1002068:	dc800f17 	ldw	r18,60(sp)
 100206c:	dc400e17 	ldw	r17,56(sp)
 1002070:	dd401a04 	addi	r21,sp,104
 1002074:	003dba06 	br	1001760 <___vfprintf_internal_r+0x520>
 1002078:	d9015017 	ldw	r4,1344(sp)
 100207c:	b00b883a 	mov	r5,r22
 1002080:	d9800d04 	addi	r6,sp,52
 1002084:	10011e80 	call	10011e8 <__sprint_r>
 1002088:	103e251e 	bne	r2,zero,1001920 <___vfprintf_internal_r+0x6e0>
 100208c:	dc800f17 	ldw	r18,60(sp)
 1002090:	dc400e17 	ldw	r17,56(sp)
 1002094:	dcc01a04 	addi	r19,sp,104
 1002098:	003e4206 	br	10019a4 <___vfprintf_internal_r+0x764>
 100209c:	d9015017 	ldw	r4,1344(sp)
 10020a0:	b00b883a 	mov	r5,r22
 10020a4:	d9800d04 	addi	r6,sp,52
 10020a8:	10011e80 	call	10011e8 <__sprint_r>
 10020ac:	103e1c1e 	bne	r2,zero,1001920 <___vfprintf_internal_r+0x6e0>
 10020b0:	dc800f17 	ldw	r18,60(sp)
 10020b4:	dc400e17 	ldw	r17,56(sp)
 10020b8:	d8c01a04 	addi	r3,sp,104
 10020bc:	003e2e06 	br	1001978 <___vfprintf_internal_r+0x738>
 10020c0:	d9414d17 	ldw	r5,1332(sp)
 10020c4:	2880004c 	andi	r2,r5,1
 10020c8:	1005003a 	cmpeq	r2,r2,zero
 10020cc:	103dda1e 	bne	r2,zero,1001838 <___vfprintf_internal_r+0x5f8>
 10020d0:	003e9f06 	br	1001b50 <___vfprintf_internal_r+0x910>
 10020d4:	d8c14217 	ldw	r3,1288(sp)
 10020d8:	9125883a 	add	r18,r18,r4
 10020dc:	8c400044 	addi	r17,r17,1
 10020e0:	008001c4 	movi	r2,7
 10020e4:	a8c00015 	stw	r3,0(r21)
 10020e8:	a9000115 	stw	r4,4(r21)
 10020ec:	dc800f15 	stw	r18,60(sp)
 10020f0:	dc400e15 	stw	r17,56(sp)
 10020f4:	14426c16 	blt	r2,r17,1002aa8 <___vfprintf_internal_r+0x1868>
 10020f8:	a8c00204 	addi	r3,r21,8
 10020fc:	d9414a17 	ldw	r5,1320(sp)
 1002100:	00800044 	movi	r2,1
 1002104:	94800044 	addi	r18,r18,1
 1002108:	8c400044 	addi	r17,r17,1
 100210c:	18800115 	stw	r2,4(r3)
 1002110:	008001c4 	movi	r2,7
 1002114:	19400015 	stw	r5,0(r3)
 1002118:	dc800f15 	stw	r18,60(sp)
 100211c:	dc400e15 	stw	r17,56(sp)
 1002120:	2021883a 	mov	r16,r4
 1002124:	14425616 	blt	r2,r17,1002a80 <___vfprintf_internal_r+0x1840>
 1002128:	19400204 	addi	r5,r3,8
 100212c:	d9814817 	ldw	r6,1312(sp)
 1002130:	8c400044 	addi	r17,r17,1
 1002134:	dc400e15 	stw	r17,56(sp)
 1002138:	3107c83a 	sub	r3,r6,r4
 100213c:	d9014217 	ldw	r4,1288(sp)
 1002140:	90e5883a 	add	r18,r18,r3
 1002144:	28c00115 	stw	r3,4(r5)
 1002148:	8105883a 	add	r2,r16,r4
 100214c:	28800015 	stw	r2,0(r5)
 1002150:	008001c4 	movi	r2,7
 1002154:	dc800f15 	stw	r18,60(sp)
 1002158:	147f1d16 	blt	r2,r17,1001dd0 <___vfprintf_internal_r+0xb90>
 100215c:	28c00204 	addi	r3,r5,8
 1002160:	003db506 	br	1001838 <___vfprintf_internal_r+0x5f8>
 1002164:	3c000017 	ldw	r16,0(r7)
 1002168:	3c400117 	ldw	r17,4(r7)
 100216c:	39800204 	addi	r6,r7,8
 1002170:	01000044 	movi	r4,1
 1002174:	d9814115 	stw	r6,1284(sp)
 1002178:	d8000405 	stb	zero,16(sp)
 100217c:	003ebe06 	br	1001c78 <___vfprintf_internal_r+0xa38>
 1002180:	3c000017 	ldw	r16,0(r7)
 1002184:	3c400117 	ldw	r17,4(r7)
 1002188:	38800204 	addi	r2,r7,8
 100218c:	d8814115 	stw	r2,1284(sp)
 1002190:	003eb706 	br	1001c70 <___vfprintf_internal_r+0xa30>
 1002194:	3c000017 	ldw	r16,0(r7)
 1002198:	3c400117 	ldw	r17,4(r7)
 100219c:	39000204 	addi	r4,r7,8
 10021a0:	d9014115 	stw	r4,1284(sp)
 10021a4:	0009883a 	mov	r4,zero
 10021a8:	d8000405 	stb	zero,16(sp)
 10021ac:	003eb206 	br	1001c78 <___vfprintf_internal_r+0xa38>
 10021b0:	38c00017 	ldw	r3,0(r7)
 10021b4:	39c00104 	addi	r7,r7,4
 10021b8:	d8c14b15 	stw	r3,1324(sp)
 10021bc:	1800d70e 	bge	r3,zero,100251c <___vfprintf_internal_r+0x12dc>
 10021c0:	00c7c83a 	sub	r3,zero,r3
 10021c4:	d8c14b15 	stw	r3,1324(sp)
 10021c8:	d9014d17 	ldw	r4,1332(sp)
 10021cc:	b8c00007 	ldb	r3,0(r23)
 10021d0:	21000114 	ori	r4,r4,4
 10021d4:	d9014d15 	stw	r4,1332(sp)
 10021d8:	003c9806 	br	100143c <___vfprintf_internal_r+0x1fc>
 10021dc:	d9814d17 	ldw	r6,1332(sp)
 10021e0:	3080080c 	andi	r2,r6,32
 10021e4:	1001f626 	beq	r2,zero,10029c0 <___vfprintf_internal_r+0x1780>
 10021e8:	d9014c17 	ldw	r4,1328(sp)
 10021ec:	38800017 	ldw	r2,0(r7)
 10021f0:	39c00104 	addi	r7,r7,4
 10021f4:	d9c14115 	stw	r7,1284(sp)
 10021f8:	2007d7fa 	srai	r3,r4,31
 10021fc:	d9c14117 	ldw	r7,1284(sp)
 1002200:	11000015 	stw	r4,0(r2)
 1002204:	10c00115 	stw	r3,4(r2)
 1002208:	003c6906 	br	10013b0 <___vfprintf_internal_r+0x170>
 100220c:	b8c00007 	ldb	r3,0(r23)
 1002210:	00801b04 	movi	r2,108
 1002214:	18825526 	beq	r3,r2,1002b6c <___vfprintf_internal_r+0x192c>
 1002218:	d9414d17 	ldw	r5,1332(sp)
 100221c:	29400414 	ori	r5,r5,16
 1002220:	d9414d15 	stw	r5,1332(sp)
 1002224:	003c8506 	br	100143c <___vfprintf_internal_r+0x1fc>
 1002228:	d9814d17 	ldw	r6,1332(sp)
 100222c:	b8c00007 	ldb	r3,0(r23)
 1002230:	31800814 	ori	r6,r6,32
 1002234:	d9814d15 	stw	r6,1332(sp)
 1002238:	003c8006 	br	100143c <___vfprintf_internal_r+0x1fc>
 100223c:	d8814d17 	ldw	r2,1332(sp)
 1002240:	3c000017 	ldw	r16,0(r7)
 1002244:	00c01e04 	movi	r3,120
 1002248:	10800094 	ori	r2,r2,2
 100224c:	d8814d15 	stw	r2,1332(sp)
 1002250:	39c00104 	addi	r7,r7,4
 1002254:	01404074 	movhi	r5,257
 1002258:	2976f404 	addi	r5,r5,-9264
 100225c:	00800c04 	movi	r2,48
 1002260:	0023883a 	mov	r17,zero
 1002264:	01000084 	movi	r4,2
 1002268:	d9c14115 	stw	r7,1284(sp)
 100226c:	d8c14e15 	stw	r3,1336(sp)
 1002270:	d9414515 	stw	r5,1300(sp)
 1002274:	d8800505 	stb	r2,20(sp)
 1002278:	d8c00545 	stb	r3,21(sp)
 100227c:	d8000405 	stb	zero,16(sp)
 1002280:	003e7d06 	br	1001c78 <___vfprintf_internal_r+0xa38>
 1002284:	d8814d17 	ldw	r2,1332(sp)
 1002288:	b8c00007 	ldb	r3,0(r23)
 100228c:	10801014 	ori	r2,r2,64
 1002290:	d8814d15 	stw	r2,1332(sp)
 1002294:	003c6906 	br	100143c <___vfprintf_internal_r+0x1fc>
 1002298:	d9414d17 	ldw	r5,1332(sp)
 100229c:	2880020c 	andi	r2,r5,8
 10022a0:	1001e526 	beq	r2,zero,1002a38 <___vfprintf_internal_r+0x17f8>
 10022a4:	39800017 	ldw	r6,0(r7)
 10022a8:	38800204 	addi	r2,r7,8
 10022ac:	d8814115 	stw	r2,1284(sp)
 10022b0:	d9814315 	stw	r6,1292(sp)
 10022b4:	39c00117 	ldw	r7,4(r7)
 10022b8:	d9c14415 	stw	r7,1296(sp)
 10022bc:	d9014317 	ldw	r4,1292(sp)
 10022c0:	d9414417 	ldw	r5,1296(sp)
 10022c4:	1007d640 	call	1007d64 <__isinfd>
 10022c8:	10021d26 	beq	r2,zero,1002b40 <___vfprintf_internal_r+0x1900>
 10022cc:	d9014317 	ldw	r4,1292(sp)
 10022d0:	d9414417 	ldw	r5,1296(sp)
 10022d4:	000d883a 	mov	r6,zero
 10022d8:	000f883a 	mov	r7,zero
 10022dc:	100a0980 	call	100a098 <__ltdf2>
 10022e0:	1002d016 	blt	r2,zero,1002e24 <___vfprintf_internal_r+0x1be4>
 10022e4:	d9414e17 	ldw	r5,1336(sp)
 10022e8:	008011c4 	movi	r2,71
 10022ec:	11421016 	blt	r2,r5,1002b30 <___vfprintf_internal_r+0x18f0>
 10022f0:	01804074 	movhi	r6,257
 10022f4:	31b6f904 	addi	r6,r6,-9244
 10022f8:	d9814215 	stw	r6,1288(sp)
 10022fc:	d9014d17 	ldw	r4,1332(sp)
 1002300:	00c000c4 	movi	r3,3
 1002304:	00bfdfc4 	movi	r2,-129
 1002308:	2088703a 	and	r4,r4,r2
 100230c:	180f883a 	mov	r7,r3
 1002310:	d8c14615 	stw	r3,1304(sp)
 1002314:	d9014d15 	stw	r4,1332(sp)
 1002318:	d8014715 	stw	zero,1308(sp)
 100231c:	003e6a06 	br	1001cc8 <___vfprintf_internal_r+0xa88>
 1002320:	38800017 	ldw	r2,0(r7)
 1002324:	00c00044 	movi	r3,1
 1002328:	39c00104 	addi	r7,r7,4
 100232c:	d9c14115 	stw	r7,1284(sp)
 1002330:	d9001004 	addi	r4,sp,64
 1002334:	180f883a 	mov	r7,r3
 1002338:	d8c14615 	stw	r3,1304(sp)
 100233c:	d9014215 	stw	r4,1288(sp)
 1002340:	d8801005 	stb	r2,64(sp)
 1002344:	d8000405 	stb	zero,16(sp)
 1002348:	003cac06 	br	10015fc <___vfprintf_internal_r+0x3bc>
 100234c:	01404074 	movhi	r5,257
 1002350:	2976ff04 	addi	r5,r5,-9220
 1002354:	d9414515 	stw	r5,1300(sp)
 1002358:	d9814d17 	ldw	r6,1332(sp)
 100235c:	3080080c 	andi	r2,r6,32
 1002360:	1000ff26 	beq	r2,zero,1002760 <___vfprintf_internal_r+0x1520>
 1002364:	3c000017 	ldw	r16,0(r7)
 1002368:	3c400117 	ldw	r17,4(r7)
 100236c:	38800204 	addi	r2,r7,8
 1002370:	d8814115 	stw	r2,1284(sp)
 1002374:	d9414d17 	ldw	r5,1332(sp)
 1002378:	2880004c 	andi	r2,r5,1
 100237c:	1005003a 	cmpeq	r2,r2,zero
 1002380:	1000b91e 	bne	r2,zero,1002668 <___vfprintf_internal_r+0x1428>
 1002384:	8444b03a 	or	r2,r16,r17
 1002388:	1000b726 	beq	r2,zero,1002668 <___vfprintf_internal_r+0x1428>
 100238c:	d9814e17 	ldw	r6,1336(sp)
 1002390:	29400094 	ori	r5,r5,2
 1002394:	00800c04 	movi	r2,48
 1002398:	01000084 	movi	r4,2
 100239c:	d9414d15 	stw	r5,1332(sp)
 10023a0:	d8800505 	stb	r2,20(sp)
 10023a4:	d9800545 	stb	r6,21(sp)
 10023a8:	d8000405 	stb	zero,16(sp)
 10023ac:	003e3206 	br	1001c78 <___vfprintf_internal_r+0xa38>
 10023b0:	01804074 	movhi	r6,257
 10023b4:	31b6f404 	addi	r6,r6,-9264
 10023b8:	d9814515 	stw	r6,1300(sp)
 10023bc:	003fe606 	br	1002358 <___vfprintf_internal_r+0x1118>
 10023c0:	00800ac4 	movi	r2,43
 10023c4:	d8800405 	stb	r2,16(sp)
 10023c8:	b8c00007 	ldb	r3,0(r23)
 10023cc:	003c1b06 	br	100143c <___vfprintf_internal_r+0x1fc>
 10023d0:	d8814d17 	ldw	r2,1332(sp)
 10023d4:	b8c00007 	ldb	r3,0(r23)
 10023d8:	10800054 	ori	r2,r2,1
 10023dc:	d8814d15 	stw	r2,1332(sp)
 10023e0:	003c1606 	br	100143c <___vfprintf_internal_r+0x1fc>
 10023e4:	d8800407 	ldb	r2,16(sp)
 10023e8:	10004c1e 	bne	r2,zero,100251c <___vfprintf_internal_r+0x12dc>
 10023ec:	00800804 	movi	r2,32
 10023f0:	d8800405 	stb	r2,16(sp)
 10023f4:	b8c00007 	ldb	r3,0(r23)
 10023f8:	003c1006 	br	100143c <___vfprintf_internal_r+0x1fc>
 10023fc:	d9814d17 	ldw	r6,1332(sp)
 1002400:	b8c00007 	ldb	r3,0(r23)
 1002404:	31800214 	ori	r6,r6,8
 1002408:	d9814d15 	stw	r6,1332(sp)
 100240c:	003c0b06 	br	100143c <___vfprintf_internal_r+0x1fc>
 1002410:	0009883a 	mov	r4,zero
 1002414:	04000244 	movi	r16,9
 1002418:	01400284 	movi	r5,10
 100241c:	d9c15215 	stw	r7,1352(sp)
 1002420:	1000a8c0 	call	1000a8c <__mulsi3>
 1002424:	b9000007 	ldb	r4,0(r23)
 1002428:	d8c14e17 	ldw	r3,1336(sp)
 100242c:	bdc00044 	addi	r23,r23,1
 1002430:	d9014e15 	stw	r4,1336(sp)
 1002434:	d9414e17 	ldw	r5,1336(sp)
 1002438:	1885883a 	add	r2,r3,r2
 100243c:	113ff404 	addi	r4,r2,-48
 1002440:	28bff404 	addi	r2,r5,-48
 1002444:	d9c15217 	ldw	r7,1352(sp)
 1002448:	80bff32e 	bgeu	r16,r2,1002418 <___vfprintf_internal_r+0x11d8>
 100244c:	d9014b15 	stw	r4,1324(sp)
 1002450:	003bfc06 	br	1001444 <___vfprintf_internal_r+0x204>
 1002454:	d8814d17 	ldw	r2,1332(sp)
 1002458:	b8c00007 	ldb	r3,0(r23)
 100245c:	10802014 	ori	r2,r2,128
 1002460:	d8814d15 	stw	r2,1332(sp)
 1002464:	003bf506 	br	100143c <___vfprintf_internal_r+0x1fc>
 1002468:	b8c00007 	ldb	r3,0(r23)
 100246c:	00800a84 	movi	r2,42
 1002470:	bdc00044 	addi	r23,r23,1
 1002474:	18831826 	beq	r3,r2,10030d8 <___vfprintf_internal_r+0x1e98>
 1002478:	d8c14e15 	stw	r3,1336(sp)
 100247c:	18bff404 	addi	r2,r3,-48
 1002480:	00c00244 	movi	r3,9
 1002484:	18827b36 	bltu	r3,r2,1002e74 <___vfprintf_internal_r+0x1c34>
 1002488:	1821883a 	mov	r16,r3
 100248c:	0009883a 	mov	r4,zero
 1002490:	01400284 	movi	r5,10
 1002494:	d9c15215 	stw	r7,1352(sp)
 1002498:	1000a8c0 	call	1000a8c <__mulsi3>
 100249c:	d9414e17 	ldw	r5,1336(sp)
 10024a0:	b9800007 	ldb	r6,0(r23)
 10024a4:	d9c15217 	ldw	r7,1352(sp)
 10024a8:	1145883a 	add	r2,r2,r5
 10024ac:	113ff404 	addi	r4,r2,-48
 10024b0:	30bff404 	addi	r2,r6,-48
 10024b4:	d9814e15 	stw	r6,1336(sp)
 10024b8:	bdc00044 	addi	r23,r23,1
 10024bc:	80bff42e 	bgeu	r16,r2,1002490 <___vfprintf_internal_r+0x1250>
 10024c0:	2027883a 	mov	r19,r4
 10024c4:	203bdf0e 	bge	r4,zero,1001444 <___vfprintf_internal_r+0x204>
 10024c8:	04ffffc4 	movi	r19,-1
 10024cc:	003bdd06 	br	1001444 <___vfprintf_internal_r+0x204>
 10024d0:	d8000405 	stb	zero,16(sp)
 10024d4:	39800017 	ldw	r6,0(r7)
 10024d8:	39c00104 	addi	r7,r7,4
 10024dc:	d9c14115 	stw	r7,1284(sp)
 10024e0:	d9814215 	stw	r6,1288(sp)
 10024e4:	3001c926 	beq	r6,zero,1002c0c <___vfprintf_internal_r+0x19cc>
 10024e8:	98000e16 	blt	r19,zero,1002524 <___vfprintf_internal_r+0x12e4>
 10024ec:	d9014217 	ldw	r4,1288(sp)
 10024f0:	000b883a 	mov	r5,zero
 10024f4:	980d883a 	mov	r6,r19
 10024f8:	10063e80 	call	10063e8 <memchr>
 10024fc:	10025926 	beq	r2,zero,1002e64 <___vfprintf_internal_r+0x1c24>
 1002500:	d8c14217 	ldw	r3,1288(sp)
 1002504:	10cfc83a 	sub	r7,r2,r3
 1002508:	99c19e16 	blt	r19,r7,1002b84 <___vfprintf_internal_r+0x1944>
 100250c:	d9c14615 	stw	r7,1304(sp)
 1002510:	38000916 	blt	r7,zero,1002538 <___vfprintf_internal_r+0x12f8>
 1002514:	d8014715 	stw	zero,1308(sp)
 1002518:	003deb06 	br	1001cc8 <___vfprintf_internal_r+0xa88>
 100251c:	b8c00007 	ldb	r3,0(r23)
 1002520:	003bc606 	br	100143c <___vfprintf_internal_r+0x1fc>
 1002524:	d9014217 	ldw	r4,1288(sp)
 1002528:	100804c0 	call	100804c <strlen>
 100252c:	d8814615 	stw	r2,1304(sp)
 1002530:	100f883a 	mov	r7,r2
 1002534:	103ff70e 	bge	r2,zero,1002514 <___vfprintf_internal_r+0x12d4>
 1002538:	d8014615 	stw	zero,1304(sp)
 100253c:	d8014715 	stw	zero,1308(sp)
 1002540:	003de106 	br	1001cc8 <___vfprintf_internal_r+0xa88>
 1002544:	20c03fcc 	andi	r3,r4,255
 1002548:	00800044 	movi	r2,1
 100254c:	18802d26 	beq	r3,r2,1002604 <___vfprintf_internal_r+0x13c4>
 1002550:	18800e36 	bltu	r3,r2,100258c <___vfprintf_internal_r+0x134c>
 1002554:	00800084 	movi	r2,2
 1002558:	1880fa26 	beq	r3,r2,1002944 <___vfprintf_internal_r+0x1704>
 100255c:	01004074 	movhi	r4,257
 1002560:	21370404 	addi	r4,r4,-9200
 1002564:	100804c0 	call	100804c <strlen>
 1002568:	100f883a 	mov	r7,r2
 100256c:	dcc14615 	stw	r19,1304(sp)
 1002570:	9880010e 	bge	r19,r2,1002578 <___vfprintf_internal_r+0x1338>
 1002574:	d8814615 	stw	r2,1304(sp)
 1002578:	00804074 	movhi	r2,257
 100257c:	10b70404 	addi	r2,r2,-9200
 1002580:	dcc14715 	stw	r19,1308(sp)
 1002584:	d8814215 	stw	r2,1288(sp)
 1002588:	003dcf06 	br	1001cc8 <___vfprintf_internal_r+0xa88>
 100258c:	d9401a04 	addi	r5,sp,104
 1002590:	dd001004 	addi	r20,sp,64
 1002594:	d9414215 	stw	r5,1288(sp)
 1002598:	880a977a 	slli	r5,r17,29
 100259c:	d9814217 	ldw	r6,1288(sp)
 10025a0:	8004d0fa 	srli	r2,r16,3
 10025a4:	8806d0fa 	srli	r3,r17,3
 10025a8:	810001cc 	andi	r4,r16,7
 10025ac:	2884b03a 	or	r2,r5,r2
 10025b0:	31bfffc4 	addi	r6,r6,-1
 10025b4:	21000c04 	addi	r4,r4,48
 10025b8:	d9814215 	stw	r6,1288(sp)
 10025bc:	10cab03a 	or	r5,r2,r3
 10025c0:	31000005 	stb	r4,0(r6)
 10025c4:	1021883a 	mov	r16,r2
 10025c8:	1823883a 	mov	r17,r3
 10025cc:	283ff21e 	bne	r5,zero,1002598 <___vfprintf_internal_r+0x1358>
 10025d0:	d8c14d17 	ldw	r3,1332(sp)
 10025d4:	1880004c 	andi	r2,r3,1
 10025d8:	1005003a 	cmpeq	r2,r2,zero
 10025dc:	103db31e 	bne	r2,zero,1001cac <___vfprintf_internal_r+0xa6c>
 10025e0:	20803fcc 	andi	r2,r4,255
 10025e4:	1080201c 	xori	r2,r2,128
 10025e8:	10bfe004 	addi	r2,r2,-128
 10025ec:	00c00c04 	movi	r3,48
 10025f0:	10fdae26 	beq	r2,r3,1001cac <___vfprintf_internal_r+0xa6c>
 10025f4:	31bfffc4 	addi	r6,r6,-1
 10025f8:	d9814215 	stw	r6,1288(sp)
 10025fc:	30c00005 	stb	r3,0(r6)
 1002600:	003daa06 	br	1001cac <___vfprintf_internal_r+0xa6c>
 1002604:	88800068 	cmpgeui	r2,r17,1
 1002608:	10002c1e 	bne	r2,zero,10026bc <___vfprintf_internal_r+0x147c>
 100260c:	8800021e 	bne	r17,zero,1002618 <___vfprintf_internal_r+0x13d8>
 1002610:	00800244 	movi	r2,9
 1002614:	14002936 	bltu	r2,r16,10026bc <___vfprintf_internal_r+0x147c>
 1002618:	d90019c4 	addi	r4,sp,103
 100261c:	dd001004 	addi	r20,sp,64
 1002620:	d9014215 	stw	r4,1288(sp)
 1002624:	d9014217 	ldw	r4,1288(sp)
 1002628:	80800c04 	addi	r2,r16,48
 100262c:	20800005 	stb	r2,0(r4)
 1002630:	003d9e06 	br	1001cac <___vfprintf_internal_r+0xa6c>
 1002634:	dc400e17 	ldw	r17,56(sp)
 1002638:	07004074 	movhi	fp,257
 100263c:	e7370c04 	addi	fp,fp,-9168
 1002640:	9425883a 	add	r18,r18,r16
 1002644:	8c400044 	addi	r17,r17,1
 1002648:	008001c4 	movi	r2,7
 100264c:	1f000015 	stw	fp,0(r3)
 1002650:	1c000115 	stw	r16,4(r3)
 1002654:	dc800f15 	stw	r18,60(sp)
 1002658:	dc400e15 	stw	r17,56(sp)
 100265c:	147ddc16 	blt	r2,r17,1001dd0 <___vfprintf_internal_r+0xb90>
 1002660:	18c00204 	addi	r3,r3,8
 1002664:	003c7406 	br	1001838 <___vfprintf_internal_r+0x5f8>
 1002668:	01000084 	movi	r4,2
 100266c:	d8000405 	stb	zero,16(sp)
 1002670:	003d8106 	br	1001c78 <___vfprintf_internal_r+0xa38>
 1002674:	d9814d17 	ldw	r6,1332(sp)
 1002678:	30c4703a 	and	r2,r6,r3
 100267c:	1005003a 	cmpeq	r2,r2,zero
 1002680:	103cb326 	beq	r2,zero,1001950 <___vfprintf_internal_r+0x710>
 1002684:	d9014217 	ldw	r4,1288(sp)
 1002688:	94800044 	addi	r18,r18,1
 100268c:	8c400044 	addi	r17,r17,1
 1002690:	008001c4 	movi	r2,7
 1002694:	a9000015 	stw	r4,0(r21)
 1002698:	a8c00115 	stw	r3,4(r21)
 100269c:	dc800f15 	stw	r18,60(sp)
 10026a0:	dc400e15 	stw	r17,56(sp)
 10026a4:	147e6016 	blt	r2,r17,1002028 <___vfprintf_internal_r+0xde8>
 10026a8:	acc00204 	addi	r19,r21,8
 10026ac:	003cd106 	br	10019f4 <___vfprintf_internal_r+0x7b4>
 10026b0:	07004074 	movhi	fp,257
 10026b4:	e7370c04 	addi	fp,fp,-9168
 10026b8:	003c4906 	br	10017e0 <___vfprintf_internal_r+0x5a0>
 10026bc:	dd001004 	addi	r20,sp,64
 10026c0:	dc801a04 	addi	r18,sp,104
 10026c4:	8009883a 	mov	r4,r16
 10026c8:	880b883a 	mov	r5,r17
 10026cc:	01800284 	movi	r6,10
 10026d0:	000f883a 	mov	r7,zero
 10026d4:	1008cf80 	call	1008cf8 <__umoddi3>
 10026d8:	12000c04 	addi	r8,r2,48
 10026dc:	94bfffc4 	addi	r18,r18,-1
 10026e0:	8009883a 	mov	r4,r16
 10026e4:	880b883a 	mov	r5,r17
 10026e8:	01800284 	movi	r6,10
 10026ec:	000f883a 	mov	r7,zero
 10026f0:	92000005 	stb	r8,0(r18)
 10026f4:	100868c0 	call	100868c <__udivdi3>
 10026f8:	1009883a 	mov	r4,r2
 10026fc:	1021883a 	mov	r16,r2
 1002700:	18800068 	cmpgeui	r2,r3,1
 1002704:	1823883a 	mov	r17,r3
 1002708:	103fee1e 	bne	r2,zero,10026c4 <___vfprintf_internal_r+0x1484>
 100270c:	1800021e 	bne	r3,zero,1002718 <___vfprintf_internal_r+0x14d8>
 1002710:	00800244 	movi	r2,9
 1002714:	113feb36 	bltu	r2,r4,10026c4 <___vfprintf_internal_r+0x1484>
 1002718:	94bfffc4 	addi	r18,r18,-1
 100271c:	dc814215 	stw	r18,1288(sp)
 1002720:	003fc006 	br	1002624 <___vfprintf_internal_r+0x13e4>
 1002724:	d9014d17 	ldw	r4,1332(sp)
 1002728:	2080004c 	andi	r2,r4,1
 100272c:	10009a1e 	bne	r2,zero,1002998 <___vfprintf_internal_r+0x1758>
 1002730:	d9401a04 	addi	r5,sp,104
 1002734:	dd001004 	addi	r20,sp,64
 1002738:	d9414215 	stw	r5,1288(sp)
 100273c:	003d5b06 	br	1001cac <___vfprintf_internal_r+0xa6c>
 1002740:	d9015017 	ldw	r4,1344(sp)
 1002744:	b00b883a 	mov	r5,r22
 1002748:	d9800d04 	addi	r6,sp,52
 100274c:	10011e80 	call	10011e8 <__sprint_r>
 1002750:	103c731e 	bne	r2,zero,1001920 <___vfprintf_internal_r+0x6e0>
 1002754:	dc800f17 	ldw	r18,60(sp)
 1002758:	d8c01a04 	addi	r3,sp,104
 100275c:	003cf906 	br	1001b44 <___vfprintf_internal_r+0x904>
 1002760:	d8c14d17 	ldw	r3,1332(sp)
 1002764:	1880040c 	andi	r2,r3,16
 1002768:	1000711e 	bne	r2,zero,1002930 <___vfprintf_internal_r+0x16f0>
 100276c:	d9014d17 	ldw	r4,1332(sp)
 1002770:	2080100c 	andi	r2,r4,64
 1002774:	10006e26 	beq	r2,zero,1002930 <___vfprintf_internal_r+0x16f0>
 1002778:	3c00000b 	ldhu	r16,0(r7)
 100277c:	0023883a 	mov	r17,zero
 1002780:	39c00104 	addi	r7,r7,4
 1002784:	d9c14115 	stw	r7,1284(sp)
 1002788:	003efa06 	br	1002374 <___vfprintf_internal_r+0x1134>
 100278c:	dc400e17 	ldw	r17,56(sp)
 1002790:	07004074 	movhi	fp,257
 1002794:	e7370c04 	addi	fp,fp,-9168
 1002798:	9425883a 	add	r18,r18,r16
 100279c:	8c400044 	addi	r17,r17,1
 10027a0:	008001c4 	movi	r2,7
 10027a4:	1f000015 	stw	fp,0(r3)
 10027a8:	1c000115 	stw	r16,4(r3)
 10027ac:	dc800f15 	stw	r18,60(sp)
 10027b0:	dc400e15 	stw	r17,56(sp)
 10027b4:	147d7016 	blt	r2,r17,1001d78 <___vfprintf_internal_r+0xb38>
 10027b8:	18c00204 	addi	r3,r3,8
 10027bc:	003d7506 	br	1001d94 <___vfprintf_internal_r+0xb54>
 10027c0:	dc800f17 	ldw	r18,60(sp)
 10027c4:	dc400e17 	ldw	r17,56(sp)
 10027c8:	07004074 	movhi	fp,257
 10027cc:	e7371004 	addi	fp,fp,-9152
 10027d0:	003bba06 	br	10016bc <___vfprintf_internal_r+0x47c>
 10027d4:	d9015017 	ldw	r4,1344(sp)
 10027d8:	b00b883a 	mov	r5,r22
 10027dc:	d9800d04 	addi	r6,sp,52
 10027e0:	10011e80 	call	10011e8 <__sprint_r>
 10027e4:	103c4e1e 	bne	r2,zero,1001920 <___vfprintf_internal_r+0x6e0>
 10027e8:	dc800f17 	ldw	r18,60(sp)
 10027ec:	d8c01a04 	addi	r3,sp,104
 10027f0:	003ce306 	br	1001b80 <___vfprintf_internal_r+0x940>
 10027f4:	3c000017 	ldw	r16,0(r7)
 10027f8:	0009883a 	mov	r4,zero
 10027fc:	39c00104 	addi	r7,r7,4
 1002800:	0023883a 	mov	r17,zero
 1002804:	d9c14115 	stw	r7,1284(sp)
 1002808:	d8000405 	stb	zero,16(sp)
 100280c:	003d1a06 	br	1001c78 <___vfprintf_internal_r+0xa38>
 1002810:	38800017 	ldw	r2,0(r7)
 1002814:	39c00104 	addi	r7,r7,4
 1002818:	d9c14115 	stw	r7,1284(sp)
 100281c:	1023d7fa 	srai	r17,r2,31
 1002820:	1021883a 	mov	r16,r2
 1002824:	003d1206 	br	1001c70 <___vfprintf_internal_r+0xa30>
 1002828:	3c000017 	ldw	r16,0(r7)
 100282c:	01000044 	movi	r4,1
 1002830:	39c00104 	addi	r7,r7,4
 1002834:	0023883a 	mov	r17,zero
 1002838:	d9c14115 	stw	r7,1284(sp)
 100283c:	d8000405 	stb	zero,16(sp)
 1002840:	003d0d06 	br	1001c78 <___vfprintf_internal_r+0xa38>
 1002844:	00804074 	movhi	r2,257
 1002848:	10b70b04 	addi	r2,r2,-9172
 100284c:	94800044 	addi	r18,r18,1
 1002850:	8c400044 	addi	r17,r17,1
 1002854:	a8800015 	stw	r2,0(r21)
 1002858:	00c00044 	movi	r3,1
 100285c:	008001c4 	movi	r2,7
 1002860:	a8c00115 	stw	r3,4(r21)
 1002864:	dc800f15 	stw	r18,60(sp)
 1002868:	dc400e15 	stw	r17,56(sp)
 100286c:	1440ca16 	blt	r2,r17,1002b98 <___vfprintf_internal_r+0x1958>
 1002870:	a8c00204 	addi	r3,r21,8
 1002874:	2000061e 	bne	r4,zero,1002890 <___vfprintf_internal_r+0x1650>
 1002878:	d9414817 	ldw	r5,1312(sp)
 100287c:	2800041e 	bne	r5,zero,1002890 <___vfprintf_internal_r+0x1650>
 1002880:	d9814d17 	ldw	r6,1332(sp)
 1002884:	3080004c 	andi	r2,r6,1
 1002888:	1005003a 	cmpeq	r2,r2,zero
 100288c:	103bea1e 	bne	r2,zero,1001838 <___vfprintf_internal_r+0x5f8>
 1002890:	00800044 	movi	r2,1
 1002894:	dc400e17 	ldw	r17,56(sp)
 1002898:	18800115 	stw	r2,4(r3)
 100289c:	d8814a17 	ldw	r2,1320(sp)
 10028a0:	94800044 	addi	r18,r18,1
 10028a4:	8c400044 	addi	r17,r17,1
 10028a8:	18800015 	stw	r2,0(r3)
 10028ac:	008001c4 	movi	r2,7
 10028b0:	dc800f15 	stw	r18,60(sp)
 10028b4:	dc400e15 	stw	r17,56(sp)
 10028b8:	1440ca16 	blt	r2,r17,1002be4 <___vfprintf_internal_r+0x19a4>
 10028bc:	18c00204 	addi	r3,r3,8
 10028c0:	0121c83a 	sub	r16,zero,r4
 10028c4:	0400500e 	bge	zero,r16,1002a08 <___vfprintf_internal_r+0x17c8>
 10028c8:	00800404 	movi	r2,16
 10028cc:	1400800e 	bge	r2,r16,1002ad0 <___vfprintf_internal_r+0x1890>
 10028d0:	1027883a 	mov	r19,r2
 10028d4:	07004074 	movhi	fp,257
 10028d8:	e7370c04 	addi	fp,fp,-9168
 10028dc:	050001c4 	movi	r20,7
 10028e0:	00000306 	br	10028f0 <___vfprintf_internal_r+0x16b0>
 10028e4:	18c00204 	addi	r3,r3,8
 10028e8:	843ffc04 	addi	r16,r16,-16
 10028ec:	9c007a0e 	bge	r19,r16,1002ad8 <___vfprintf_internal_r+0x1898>
 10028f0:	94800404 	addi	r18,r18,16
 10028f4:	8c400044 	addi	r17,r17,1
 10028f8:	1f000015 	stw	fp,0(r3)
 10028fc:	1cc00115 	stw	r19,4(r3)
 1002900:	dc800f15 	stw	r18,60(sp)
 1002904:	dc400e15 	stw	r17,56(sp)
 1002908:	a47ff60e 	bge	r20,r17,10028e4 <___vfprintf_internal_r+0x16a4>
 100290c:	d9015017 	ldw	r4,1344(sp)
 1002910:	b00b883a 	mov	r5,r22
 1002914:	d9800d04 	addi	r6,sp,52
 1002918:	10011e80 	call	10011e8 <__sprint_r>
 100291c:	103c001e 	bne	r2,zero,1001920 <___vfprintf_internal_r+0x6e0>
 1002920:	dc800f17 	ldw	r18,60(sp)
 1002924:	dc400e17 	ldw	r17,56(sp)
 1002928:	d8c01a04 	addi	r3,sp,104
 100292c:	003fee06 	br	10028e8 <___vfprintf_internal_r+0x16a8>
 1002930:	3c000017 	ldw	r16,0(r7)
 1002934:	0023883a 	mov	r17,zero
 1002938:	39c00104 	addi	r7,r7,4
 100293c:	d9c14115 	stw	r7,1284(sp)
 1002940:	003e8c06 	br	1002374 <___vfprintf_internal_r+0x1134>
 1002944:	d9401a04 	addi	r5,sp,104
 1002948:	dd001004 	addi	r20,sp,64
 100294c:	d9414215 	stw	r5,1288(sp)
 1002950:	d9814517 	ldw	r6,1300(sp)
 1002954:	880a973a 	slli	r5,r17,28
 1002958:	8004d13a 	srli	r2,r16,4
 100295c:	810003cc 	andi	r4,r16,15
 1002960:	3109883a 	add	r4,r6,r4
 1002964:	2884b03a 	or	r2,r5,r2
 1002968:	21400003 	ldbu	r5,0(r4)
 100296c:	d9014217 	ldw	r4,1288(sp)
 1002970:	8806d13a 	srli	r3,r17,4
 1002974:	1021883a 	mov	r16,r2
 1002978:	213fffc4 	addi	r4,r4,-1
 100297c:	d9014215 	stw	r4,1288(sp)
 1002980:	d9814217 	ldw	r6,1288(sp)
 1002984:	10c8b03a 	or	r4,r2,r3
 1002988:	1823883a 	mov	r17,r3
 100298c:	31400005 	stb	r5,0(r6)
 1002990:	203fef1e 	bne	r4,zero,1002950 <___vfprintf_internal_r+0x1710>
 1002994:	003cc506 	br	1001cac <___vfprintf_internal_r+0xa6c>
 1002998:	00800c04 	movi	r2,48
 100299c:	d98019c4 	addi	r6,sp,103
 10029a0:	dd001004 	addi	r20,sp,64
 10029a4:	d88019c5 	stb	r2,103(sp)
 10029a8:	d9814215 	stw	r6,1288(sp)
 10029ac:	003cbf06 	br	1001cac <___vfprintf_internal_r+0xa6c>
 10029b0:	dc400e17 	ldw	r17,56(sp)
 10029b4:	07004074 	movhi	fp,257
 10029b8:	e7371004 	addi	fp,fp,-9152
 10029bc:	003bc106 	br	10018c4 <___vfprintf_internal_r+0x684>
 10029c0:	d9414d17 	ldw	r5,1332(sp)
 10029c4:	2880040c 	andi	r2,r5,16
 10029c8:	10007c26 	beq	r2,zero,1002bbc <___vfprintf_internal_r+0x197c>
 10029cc:	38800017 	ldw	r2,0(r7)
 10029d0:	39c00104 	addi	r7,r7,4
 10029d4:	d9c14115 	stw	r7,1284(sp)
 10029d8:	d9814c17 	ldw	r6,1328(sp)
 10029dc:	d9c14117 	ldw	r7,1284(sp)
 10029e0:	11800015 	stw	r6,0(r2)
 10029e4:	003a7206 	br	10013b0 <___vfprintf_internal_r+0x170>
 10029e8:	d9015017 	ldw	r4,1344(sp)
 10029ec:	b00b883a 	mov	r5,r22
 10029f0:	d9800d04 	addi	r6,sp,52
 10029f4:	10011e80 	call	10011e8 <__sprint_r>
 10029f8:	103bc91e 	bne	r2,zero,1001920 <___vfprintf_internal_r+0x6e0>
 10029fc:	dc800f17 	ldw	r18,60(sp)
 1002a00:	dc400e17 	ldw	r17,56(sp)
 1002a04:	d8c01a04 	addi	r3,sp,104
 1002a08:	d9014817 	ldw	r4,1312(sp)
 1002a0c:	d9414217 	ldw	r5,1288(sp)
 1002a10:	8c400044 	addi	r17,r17,1
 1002a14:	9125883a 	add	r18,r18,r4
 1002a18:	008001c4 	movi	r2,7
 1002a1c:	19400015 	stw	r5,0(r3)
 1002a20:	19000115 	stw	r4,4(r3)
 1002a24:	dc800f15 	stw	r18,60(sp)
 1002a28:	dc400e15 	stw	r17,56(sp)
 1002a2c:	147ce816 	blt	r2,r17,1001dd0 <___vfprintf_internal_r+0xb90>
 1002a30:	18c00204 	addi	r3,r3,8
 1002a34:	003b8006 	br	1001838 <___vfprintf_internal_r+0x5f8>
 1002a38:	38c00017 	ldw	r3,0(r7)
 1002a3c:	39000204 	addi	r4,r7,8
 1002a40:	d9014115 	stw	r4,1284(sp)
 1002a44:	d8c14315 	stw	r3,1292(sp)
 1002a48:	39c00117 	ldw	r7,4(r7)
 1002a4c:	d9c14415 	stw	r7,1296(sp)
 1002a50:	003e1a06 	br	10022bc <___vfprintf_internal_r+0x107c>
 1002a54:	0005883a 	mov	r2,zero
 1002a58:	1409c83a 	sub	r4,r2,r16
 1002a5c:	1105803a 	cmpltu	r2,r2,r4
 1002a60:	044bc83a 	sub	r5,zero,r17
 1002a64:	2885c83a 	sub	r2,r5,r2
 1002a68:	2021883a 	mov	r16,r4
 1002a6c:	1023883a 	mov	r17,r2
 1002a70:	01000044 	movi	r4,1
 1002a74:	00800b44 	movi	r2,45
 1002a78:	d8800405 	stb	r2,16(sp)
 1002a7c:	003c7e06 	br	1001c78 <___vfprintf_internal_r+0xa38>
 1002a80:	d9015017 	ldw	r4,1344(sp)
 1002a84:	b00b883a 	mov	r5,r22
 1002a88:	d9800d04 	addi	r6,sp,52
 1002a8c:	10011e80 	call	10011e8 <__sprint_r>
 1002a90:	103ba31e 	bne	r2,zero,1001920 <___vfprintf_internal_r+0x6e0>
 1002a94:	dc800f17 	ldw	r18,60(sp)
 1002a98:	dc400e17 	ldw	r17,56(sp)
 1002a9c:	d9000617 	ldw	r4,24(sp)
 1002aa0:	d9401a04 	addi	r5,sp,104
 1002aa4:	003da106 	br	100212c <___vfprintf_internal_r+0xeec>
 1002aa8:	d9015017 	ldw	r4,1344(sp)
 1002aac:	b00b883a 	mov	r5,r22
 1002ab0:	d9800d04 	addi	r6,sp,52
 1002ab4:	10011e80 	call	10011e8 <__sprint_r>
 1002ab8:	103b991e 	bne	r2,zero,1001920 <___vfprintf_internal_r+0x6e0>
 1002abc:	dc800f17 	ldw	r18,60(sp)
 1002ac0:	dc400e17 	ldw	r17,56(sp)
 1002ac4:	d9000617 	ldw	r4,24(sp)
 1002ac8:	d8c01a04 	addi	r3,sp,104
 1002acc:	003d8b06 	br	10020fc <___vfprintf_internal_r+0xebc>
 1002ad0:	07004074 	movhi	fp,257
 1002ad4:	e7370c04 	addi	fp,fp,-9168
 1002ad8:	9425883a 	add	r18,r18,r16
 1002adc:	8c400044 	addi	r17,r17,1
 1002ae0:	008001c4 	movi	r2,7
 1002ae4:	1f000015 	stw	fp,0(r3)
 1002ae8:	1c000115 	stw	r16,4(r3)
 1002aec:	dc800f15 	stw	r18,60(sp)
 1002af0:	dc400e15 	stw	r17,56(sp)
 1002af4:	147fbc16 	blt	r2,r17,10029e8 <___vfprintf_internal_r+0x17a8>
 1002af8:	18c00204 	addi	r3,r3,8
 1002afc:	003fc206 	br	1002a08 <___vfprintf_internal_r+0x17c8>
 1002b00:	d9015017 	ldw	r4,1344(sp)
 1002b04:	b00b883a 	mov	r5,r22
 1002b08:	d9800d04 	addi	r6,sp,52
 1002b0c:	10011e80 	call	10011e8 <__sprint_r>
 1002b10:	103b831e 	bne	r2,zero,1001920 <___vfprintf_internal_r+0x6e0>
 1002b14:	dc800f17 	ldw	r18,60(sp)
 1002b18:	d9000617 	ldw	r4,24(sp)
 1002b1c:	d8c01a04 	addi	r3,sp,104
 1002b20:	003cfc06 	br	1001f14 <___vfprintf_internal_r+0xcd4>
 1002b24:	07004074 	movhi	fp,257
 1002b28:	e7370c04 	addi	fp,fp,-9168
 1002b2c:	003bde06 	br	1001aa8 <___vfprintf_internal_r+0x868>
 1002b30:	00804074 	movhi	r2,257
 1002b34:	10b6fa04 	addi	r2,r2,-9240
 1002b38:	d8814215 	stw	r2,1288(sp)
 1002b3c:	003def06 	br	10022fc <___vfprintf_internal_r+0x10bc>
 1002b40:	d9014317 	ldw	r4,1292(sp)
 1002b44:	d9414417 	ldw	r5,1296(sp)
 1002b48:	1007da40 	call	1007da4 <__isnand>
 1002b4c:	10003926 	beq	r2,zero,1002c34 <___vfprintf_internal_r+0x19f4>
 1002b50:	d9414e17 	ldw	r5,1336(sp)
 1002b54:	008011c4 	movi	r2,71
 1002b58:	1140ce16 	blt	r2,r5,1002e94 <___vfprintf_internal_r+0x1c54>
 1002b5c:	01804074 	movhi	r6,257
 1002b60:	31b6fb04 	addi	r6,r6,-9236
 1002b64:	d9814215 	stw	r6,1288(sp)
 1002b68:	003de406 	br	10022fc <___vfprintf_internal_r+0x10bc>
 1002b6c:	d9014d17 	ldw	r4,1332(sp)
 1002b70:	bdc00044 	addi	r23,r23,1
 1002b74:	b8c00007 	ldb	r3,0(r23)
 1002b78:	21000814 	ori	r4,r4,32
 1002b7c:	d9014d15 	stw	r4,1332(sp)
 1002b80:	003a2e06 	br	100143c <___vfprintf_internal_r+0x1fc>
 1002b84:	dcc14615 	stw	r19,1304(sp)
 1002b88:	98011016 	blt	r19,zero,1002fcc <___vfprintf_internal_r+0x1d8c>
 1002b8c:	980f883a 	mov	r7,r19
 1002b90:	d8014715 	stw	zero,1308(sp)
 1002b94:	003c4c06 	br	1001cc8 <___vfprintf_internal_r+0xa88>
 1002b98:	d9015017 	ldw	r4,1344(sp)
 1002b9c:	b00b883a 	mov	r5,r22
 1002ba0:	d9800d04 	addi	r6,sp,52
 1002ba4:	10011e80 	call	10011e8 <__sprint_r>
 1002ba8:	103b5d1e 	bne	r2,zero,1001920 <___vfprintf_internal_r+0x6e0>
 1002bac:	dc800f17 	ldw	r18,60(sp)
 1002bb0:	d9000617 	ldw	r4,24(sp)
 1002bb4:	d8c01a04 	addi	r3,sp,104
 1002bb8:	003f2e06 	br	1002874 <___vfprintf_internal_r+0x1634>
 1002bbc:	d8c14d17 	ldw	r3,1332(sp)
 1002bc0:	1880100c 	andi	r2,r3,64
 1002bc4:	1000a026 	beq	r2,zero,1002e48 <___vfprintf_internal_r+0x1c08>
 1002bc8:	38800017 	ldw	r2,0(r7)
 1002bcc:	39c00104 	addi	r7,r7,4
 1002bd0:	d9c14115 	stw	r7,1284(sp)
 1002bd4:	d9014c17 	ldw	r4,1328(sp)
 1002bd8:	d9c14117 	ldw	r7,1284(sp)
 1002bdc:	1100000d 	sth	r4,0(r2)
 1002be0:	0039f306 	br	10013b0 <___vfprintf_internal_r+0x170>
 1002be4:	d9015017 	ldw	r4,1344(sp)
 1002be8:	b00b883a 	mov	r5,r22
 1002bec:	d9800d04 	addi	r6,sp,52
 1002bf0:	10011e80 	call	10011e8 <__sprint_r>
 1002bf4:	103b4a1e 	bne	r2,zero,1001920 <___vfprintf_internal_r+0x6e0>
 1002bf8:	dc800f17 	ldw	r18,60(sp)
 1002bfc:	dc400e17 	ldw	r17,56(sp)
 1002c00:	d9000617 	ldw	r4,24(sp)
 1002c04:	d8c01a04 	addi	r3,sp,104
 1002c08:	003f2d06 	br	10028c0 <___vfprintf_internal_r+0x1680>
 1002c0c:	00800184 	movi	r2,6
 1002c10:	14c09a36 	bltu	r2,r19,1002e7c <___vfprintf_internal_r+0x1c3c>
 1002c14:	dcc14615 	stw	r19,1304(sp)
 1002c18:	9800010e 	bge	r19,zero,1002c20 <___vfprintf_internal_r+0x19e0>
 1002c1c:	d8014615 	stw	zero,1304(sp)
 1002c20:	00804074 	movhi	r2,257
 1002c24:	10b6fd04 	addi	r2,r2,-9228
 1002c28:	980f883a 	mov	r7,r19
 1002c2c:	d8814215 	stw	r2,1288(sp)
 1002c30:	003a7206 	br	10015fc <___vfprintf_internal_r+0x3bc>
 1002c34:	00bfffc4 	movi	r2,-1
 1002c38:	9880e226 	beq	r19,r2,1002fc4 <___vfprintf_internal_r+0x1d84>
 1002c3c:	d9414e17 	ldw	r5,1336(sp)
 1002c40:	008019c4 	movi	r2,103
 1002c44:	2880dc26 	beq	r5,r2,1002fb8 <___vfprintf_internal_r+0x1d78>
 1002c48:	008011c4 	movi	r2,71
 1002c4c:	2880da26 	beq	r5,r2,1002fb8 <___vfprintf_internal_r+0x1d78>
 1002c50:	d9414d17 	ldw	r5,1332(sp)
 1002c54:	d9014417 	ldw	r4,1296(sp)
 1002c58:	d9814317 	ldw	r6,1292(sp)
 1002c5c:	29404014 	ori	r5,r5,256
 1002c60:	d9414d15 	stw	r5,1332(sp)
 1002c64:	2000cc16 	blt	r4,zero,1002f98 <___vfprintf_internal_r+0x1d58>
 1002c68:	3021883a 	mov	r16,r6
 1002c6c:	2023883a 	mov	r17,r4
 1002c70:	0039883a 	mov	fp,zero
 1002c74:	d9414e17 	ldw	r5,1336(sp)
 1002c78:	00801984 	movi	r2,102
 1002c7c:	2880b726 	beq	r5,r2,1002f5c <___vfprintf_internal_r+0x1d1c>
 1002c80:	00801184 	movi	r2,70
 1002c84:	2880b526 	beq	r5,r2,1002f5c <___vfprintf_internal_r+0x1d1c>
 1002c88:	00801944 	movi	r2,101
 1002c8c:	2880c826 	beq	r5,r2,1002fb0 <___vfprintf_internal_r+0x1d70>
 1002c90:	00801144 	movi	r2,69
 1002c94:	2880c626 	beq	r5,r2,1002fb0 <___vfprintf_internal_r+0x1d70>
 1002c98:	9829883a 	mov	r20,r19
 1002c9c:	d9015017 	ldw	r4,1344(sp)
 1002ca0:	d8800604 	addi	r2,sp,24
 1002ca4:	880d883a 	mov	r6,r17
 1002ca8:	d8800115 	stw	r2,4(sp)
 1002cac:	d8c00704 	addi	r3,sp,28
 1002cb0:	d8800804 	addi	r2,sp,32
 1002cb4:	800b883a 	mov	r5,r16
 1002cb8:	01c00084 	movi	r7,2
 1002cbc:	d8c00215 	stw	r3,8(sp)
 1002cc0:	d8800315 	stw	r2,12(sp)
 1002cc4:	dd000015 	stw	r20,0(sp)
 1002cc8:	10034a80 	call	10034a8 <_dtoa_r>
 1002ccc:	d9814e17 	ldw	r6,1336(sp)
 1002cd0:	d8814215 	stw	r2,1288(sp)
 1002cd4:	008019c4 	movi	r2,103
 1002cd8:	30809526 	beq	r6,r2,1002f30 <___vfprintf_internal_r+0x1cf0>
 1002cdc:	d8c14e17 	ldw	r3,1336(sp)
 1002ce0:	008011c4 	movi	r2,71
 1002ce4:	18809226 	beq	r3,r2,1002f30 <___vfprintf_internal_r+0x1cf0>
 1002ce8:	d9414217 	ldw	r5,1288(sp)
 1002cec:	d9814e17 	ldw	r6,1336(sp)
 1002cf0:	00801984 	movi	r2,102
 1002cf4:	2d25883a 	add	r18,r5,r20
 1002cf8:	30808626 	beq	r6,r2,1002f14 <___vfprintf_internal_r+0x1cd4>
 1002cfc:	00801184 	movi	r2,70
 1002d00:	30808426 	beq	r6,r2,1002f14 <___vfprintf_internal_r+0x1cd4>
 1002d04:	000d883a 	mov	r6,zero
 1002d08:	000f883a 	mov	r7,zero
 1002d0c:	880b883a 	mov	r5,r17
 1002d10:	8009883a 	mov	r4,r16
 1002d14:	1009e780 	call	1009e78 <__eqdf2>
 1002d18:	1000751e 	bne	r2,zero,1002ef0 <___vfprintf_internal_r+0x1cb0>
 1002d1c:	9005883a 	mov	r2,r18
 1002d20:	dc800815 	stw	r18,32(sp)
 1002d24:	d9014217 	ldw	r4,1288(sp)
 1002d28:	d9414e17 	ldw	r5,1336(sp)
 1002d2c:	00c019c4 	movi	r3,103
 1002d30:	1125c83a 	sub	r18,r2,r4
 1002d34:	28c06826 	beq	r5,r3,1002ed8 <___vfprintf_internal_r+0x1c98>
 1002d38:	008011c4 	movi	r2,71
 1002d3c:	28806626 	beq	r5,r2,1002ed8 <___vfprintf_internal_r+0x1c98>
 1002d40:	d9000617 	ldw	r4,24(sp)
 1002d44:	d8c14e17 	ldw	r3,1336(sp)
 1002d48:	00801944 	movi	r2,101
 1002d4c:	10c05516 	blt	r2,r3,1002ea4 <___vfprintf_internal_r+0x1c64>
 1002d50:	213fffc4 	addi	r4,r4,-1
 1002d54:	d9000615 	stw	r4,24(sp)
 1002d58:	d8c00905 	stb	r3,36(sp)
 1002d5c:	2021883a 	mov	r16,r4
 1002d60:	2000c116 	blt	r4,zero,1003068 <___vfprintf_internal_r+0x1e28>
 1002d64:	00800ac4 	movi	r2,43
 1002d68:	d8800945 	stb	r2,37(sp)
 1002d6c:	00800244 	movi	r2,9
 1002d70:	1400af0e 	bge	r2,r16,1003030 <___vfprintf_internal_r+0x1df0>
 1002d74:	1027883a 	mov	r19,r2
 1002d78:	dc400cc4 	addi	r17,sp,51
 1002d7c:	8009883a 	mov	r4,r16
 1002d80:	01400284 	movi	r5,10
 1002d84:	100a5600 	call	100a560 <__modsi3>
 1002d88:	10800c04 	addi	r2,r2,48
 1002d8c:	8c7fffc4 	addi	r17,r17,-1
 1002d90:	8009883a 	mov	r4,r16
 1002d94:	01400284 	movi	r5,10
 1002d98:	88800005 	stb	r2,0(r17)
 1002d9c:	100a5000 	call	100a500 <__divsi3>
 1002da0:	1021883a 	mov	r16,r2
 1002da4:	98bff516 	blt	r19,r2,1002d7c <___vfprintf_internal_r+0x1b3c>
 1002da8:	10c00c04 	addi	r3,r2,48
 1002dac:	d8800b04 	addi	r2,sp,44
 1002db0:	108001c4 	addi	r2,r2,7
 1002db4:	897fffc4 	addi	r5,r17,-1
 1002db8:	88ffffc5 	stb	r3,-1(r17)
 1002dbc:	2880a72e 	bgeu	r5,r2,100305c <___vfprintf_internal_r+0x1e1c>
 1002dc0:	1009883a 	mov	r4,r2
 1002dc4:	d9800904 	addi	r6,sp,36
 1002dc8:	d8c00984 	addi	r3,sp,38
 1002dcc:	28800003 	ldbu	r2,0(r5)
 1002dd0:	29400044 	addi	r5,r5,1
 1002dd4:	18800005 	stb	r2,0(r3)
 1002dd8:	18c00044 	addi	r3,r3,1
 1002ddc:	293ffb36 	bltu	r5,r4,1002dcc <___vfprintf_internal_r+0x1b8c>
 1002de0:	1987c83a 	sub	r3,r3,r6
 1002de4:	00800044 	movi	r2,1
 1002de8:	d8c14915 	stw	r3,1316(sp)
 1002dec:	90cf883a 	add	r7,r18,r3
 1002df0:	1480960e 	bge	r2,r18,100304c <___vfprintf_internal_r+0x1e0c>
 1002df4:	39c00044 	addi	r7,r7,1
 1002df8:	d9c14615 	stw	r7,1304(sp)
 1002dfc:	38003416 	blt	r7,zero,1002ed0 <___vfprintf_internal_r+0x1c90>
 1002e00:	e0803fcc 	andi	r2,fp,255
 1002e04:	1080201c 	xori	r2,r2,128
 1002e08:	10bfe004 	addi	r2,r2,-128
 1002e0c:	10004e26 	beq	r2,zero,1002f48 <___vfprintf_internal_r+0x1d08>
 1002e10:	00800b44 	movi	r2,45
 1002e14:	dc814815 	stw	r18,1312(sp)
 1002e18:	d8014715 	stw	zero,1308(sp)
 1002e1c:	d8800405 	stb	r2,16(sp)
 1002e20:	003bab06 	br	1001cd0 <___vfprintf_internal_r+0xa90>
 1002e24:	00800b44 	movi	r2,45
 1002e28:	d8800405 	stb	r2,16(sp)
 1002e2c:	003d2d06 	br	10022e4 <___vfprintf_internal_r+0x10a4>
 1002e30:	d9015017 	ldw	r4,1344(sp)
 1002e34:	b00b883a 	mov	r5,r22
 1002e38:	d9800d04 	addi	r6,sp,52
 1002e3c:	10011e80 	call	10011e8 <__sprint_r>
 1002e40:	103ab71e 	bne	r2,zero,1001920 <___vfprintf_internal_r+0x6e0>
 1002e44:	003ab506 	br	100191c <___vfprintf_internal_r+0x6dc>
 1002e48:	38800017 	ldw	r2,0(r7)
 1002e4c:	39c00104 	addi	r7,r7,4
 1002e50:	d9c14115 	stw	r7,1284(sp)
 1002e54:	d9414c17 	ldw	r5,1328(sp)
 1002e58:	d9c14117 	ldw	r7,1284(sp)
 1002e5c:	11400015 	stw	r5,0(r2)
 1002e60:	00395306 	br	10013b0 <___vfprintf_internal_r+0x170>
 1002e64:	980f883a 	mov	r7,r19
 1002e68:	dcc14615 	stw	r19,1304(sp)
 1002e6c:	d8014715 	stw	zero,1308(sp)
 1002e70:	003b9506 	br	1001cc8 <___vfprintf_internal_r+0xa88>
 1002e74:	0027883a 	mov	r19,zero
 1002e78:	00397206 	br	1001444 <___vfprintf_internal_r+0x204>
 1002e7c:	00c04074 	movhi	r3,257
 1002e80:	18f6fd04 	addi	r3,r3,-9228
 1002e84:	100f883a 	mov	r7,r2
 1002e88:	d8814615 	stw	r2,1304(sp)
 1002e8c:	d8c14215 	stw	r3,1288(sp)
 1002e90:	0039da06 	br	10015fc <___vfprintf_internal_r+0x3bc>
 1002e94:	00804074 	movhi	r2,257
 1002e98:	10b6fc04 	addi	r2,r2,-9232
 1002e9c:	d8814215 	stw	r2,1288(sp)
 1002ea0:	003d1606 	br	10022fc <___vfprintf_internal_r+0x10bc>
 1002ea4:	d9414e17 	ldw	r5,1336(sp)
 1002ea8:	00801984 	movi	r2,102
 1002eac:	28804926 	beq	r5,r2,1002fd4 <___vfprintf_internal_r+0x1d94>
 1002eb0:	200f883a 	mov	r7,r4
 1002eb4:	24805716 	blt	r4,r18,1003014 <___vfprintf_internal_r+0x1dd4>
 1002eb8:	d9414d17 	ldw	r5,1332(sp)
 1002ebc:	2880004c 	andi	r2,r5,1
 1002ec0:	10000126 	beq	r2,zero,1002ec8 <___vfprintf_internal_r+0x1c88>
 1002ec4:	21c00044 	addi	r7,r4,1
 1002ec8:	d9c14615 	stw	r7,1304(sp)
 1002ecc:	383fcc0e 	bge	r7,zero,1002e00 <___vfprintf_internal_r+0x1bc0>
 1002ed0:	d8014615 	stw	zero,1304(sp)
 1002ed4:	003fca06 	br	1002e00 <___vfprintf_internal_r+0x1bc0>
 1002ed8:	d9000617 	ldw	r4,24(sp)
 1002edc:	00bfff04 	movi	r2,-4
 1002ee0:	1100480e 	bge	r2,r4,1003004 <___vfprintf_internal_r+0x1dc4>
 1002ee4:	99004716 	blt	r19,r4,1003004 <___vfprintf_internal_r+0x1dc4>
 1002ee8:	d8c14e15 	stw	r3,1336(sp)
 1002eec:	003ff006 	br	1002eb0 <___vfprintf_internal_r+0x1c70>
 1002ef0:	d8800817 	ldw	r2,32(sp)
 1002ef4:	14bf8b2e 	bgeu	r2,r18,1002d24 <___vfprintf_internal_r+0x1ae4>
 1002ef8:	9007883a 	mov	r3,r18
 1002efc:	01000c04 	movi	r4,48
 1002f00:	11000005 	stb	r4,0(r2)
 1002f04:	10800044 	addi	r2,r2,1
 1002f08:	d8800815 	stw	r2,32(sp)
 1002f0c:	18bffc1e 	bne	r3,r2,1002f00 <___vfprintf_internal_r+0x1cc0>
 1002f10:	003f8406 	br	1002d24 <___vfprintf_internal_r+0x1ae4>
 1002f14:	d8814217 	ldw	r2,1288(sp)
 1002f18:	10c00007 	ldb	r3,0(r2)
 1002f1c:	00800c04 	movi	r2,48
 1002f20:	18805b26 	beq	r3,r2,1003090 <___vfprintf_internal_r+0x1e50>
 1002f24:	d9000617 	ldw	r4,24(sp)
 1002f28:	9125883a 	add	r18,r18,r4
 1002f2c:	003f7506 	br	1002d04 <___vfprintf_internal_r+0x1ac4>
 1002f30:	d9014d17 	ldw	r4,1332(sp)
 1002f34:	2080004c 	andi	r2,r4,1
 1002f38:	1005003a 	cmpeq	r2,r2,zero
 1002f3c:	103f6a26 	beq	r2,zero,1002ce8 <___vfprintf_internal_r+0x1aa8>
 1002f40:	d8800817 	ldw	r2,32(sp)
 1002f44:	003f7706 	br	1002d24 <___vfprintf_internal_r+0x1ae4>
 1002f48:	d9c14615 	stw	r7,1304(sp)
 1002f4c:	38004d16 	blt	r7,zero,1003084 <___vfprintf_internal_r+0x1e44>
 1002f50:	dc814815 	stw	r18,1312(sp)
 1002f54:	d8014715 	stw	zero,1308(sp)
 1002f58:	003b5b06 	br	1001cc8 <___vfprintf_internal_r+0xa88>
 1002f5c:	d9015017 	ldw	r4,1344(sp)
 1002f60:	d8800604 	addi	r2,sp,24
 1002f64:	d8800115 	stw	r2,4(sp)
 1002f68:	d8c00704 	addi	r3,sp,28
 1002f6c:	d8800804 	addi	r2,sp,32
 1002f70:	800b883a 	mov	r5,r16
 1002f74:	880d883a 	mov	r6,r17
 1002f78:	01c000c4 	movi	r7,3
 1002f7c:	d8c00215 	stw	r3,8(sp)
 1002f80:	d8800315 	stw	r2,12(sp)
 1002f84:	dcc00015 	stw	r19,0(sp)
 1002f88:	9829883a 	mov	r20,r19
 1002f8c:	10034a80 	call	10034a8 <_dtoa_r>
 1002f90:	d8814215 	stw	r2,1288(sp)
 1002f94:	003f5106 	br	1002cdc <___vfprintf_internal_r+0x1a9c>
 1002f98:	d8c14317 	ldw	r3,1292(sp)
 1002f9c:	d9014417 	ldw	r4,1296(sp)
 1002fa0:	07000b44 	movi	fp,45
 1002fa4:	1821883a 	mov	r16,r3
 1002fa8:	2460003c 	xorhi	r17,r4,32768
 1002fac:	003f3106 	br	1002c74 <___vfprintf_internal_r+0x1a34>
 1002fb0:	9d000044 	addi	r20,r19,1
 1002fb4:	003f3906 	br	1002c9c <___vfprintf_internal_r+0x1a5c>
 1002fb8:	983f251e 	bne	r19,zero,1002c50 <___vfprintf_internal_r+0x1a10>
 1002fbc:	04c00044 	movi	r19,1
 1002fc0:	003f2306 	br	1002c50 <___vfprintf_internal_r+0x1a10>
 1002fc4:	04c00184 	movi	r19,6
 1002fc8:	003f2106 	br	1002c50 <___vfprintf_internal_r+0x1a10>
 1002fcc:	d8014615 	stw	zero,1304(sp)
 1002fd0:	003eee06 	br	1002b8c <___vfprintf_internal_r+0x194c>
 1002fd4:	200f883a 	mov	r7,r4
 1002fd8:	0100370e 	bge	zero,r4,10030b8 <___vfprintf_internal_r+0x1e78>
 1002fdc:	9800031e 	bne	r19,zero,1002fec <___vfprintf_internal_r+0x1dac>
 1002fe0:	d9814d17 	ldw	r6,1332(sp)
 1002fe4:	3080004c 	andi	r2,r6,1
 1002fe8:	103fb726 	beq	r2,zero,1002ec8 <___vfprintf_internal_r+0x1c88>
 1002fec:	20800044 	addi	r2,r4,1
 1002ff0:	98a7883a 	add	r19,r19,r2
 1002ff4:	dcc14615 	stw	r19,1304(sp)
 1002ff8:	980f883a 	mov	r7,r19
 1002ffc:	983f800e 	bge	r19,zero,1002e00 <___vfprintf_internal_r+0x1bc0>
 1003000:	003fb306 	br	1002ed0 <___vfprintf_internal_r+0x1c90>
 1003004:	d9814e17 	ldw	r6,1336(sp)
 1003008:	31bfff84 	addi	r6,r6,-2
 100300c:	d9814e15 	stw	r6,1336(sp)
 1003010:	003f4c06 	br	1002d44 <___vfprintf_internal_r+0x1b04>
 1003014:	0100180e 	bge	zero,r4,1003078 <___vfprintf_internal_r+0x1e38>
 1003018:	00800044 	movi	r2,1
 100301c:	1485883a 	add	r2,r2,r18
 1003020:	d8814615 	stw	r2,1304(sp)
 1003024:	100f883a 	mov	r7,r2
 1003028:	103f750e 	bge	r2,zero,1002e00 <___vfprintf_internal_r+0x1bc0>
 100302c:	003fa806 	br	1002ed0 <___vfprintf_internal_r+0x1c90>
 1003030:	80c00c04 	addi	r3,r16,48
 1003034:	00800c04 	movi	r2,48
 1003038:	d8c009c5 	stb	r3,39(sp)
 100303c:	d9800904 	addi	r6,sp,36
 1003040:	d8c00a04 	addi	r3,sp,40
 1003044:	d8800985 	stb	r2,38(sp)
 1003048:	003f6506 	br	1002de0 <___vfprintf_internal_r+0x1ba0>
 100304c:	d9014d17 	ldw	r4,1332(sp)
 1003050:	2084703a 	and	r2,r4,r2
 1003054:	103f9c26 	beq	r2,zero,1002ec8 <___vfprintf_internal_r+0x1c88>
 1003058:	003f6606 	br	1002df4 <___vfprintf_internal_r+0x1bb4>
 100305c:	d9800904 	addi	r6,sp,36
 1003060:	d8c00984 	addi	r3,sp,38
 1003064:	003f5e06 	br	1002de0 <___vfprintf_internal_r+0x1ba0>
 1003068:	00800b44 	movi	r2,45
 100306c:	0121c83a 	sub	r16,zero,r4
 1003070:	d8800945 	stb	r2,37(sp)
 1003074:	003f3d06 	br	1002d6c <___vfprintf_internal_r+0x1b2c>
 1003078:	00800084 	movi	r2,2
 100307c:	1105c83a 	sub	r2,r2,r4
 1003080:	003fe606 	br	100301c <___vfprintf_internal_r+0x1ddc>
 1003084:	d8014615 	stw	zero,1304(sp)
 1003088:	dc814815 	stw	r18,1312(sp)
 100308c:	003fb106 	br	1002f54 <___vfprintf_internal_r+0x1d14>
 1003090:	000d883a 	mov	r6,zero
 1003094:	000f883a 	mov	r7,zero
 1003098:	8009883a 	mov	r4,r16
 100309c:	880b883a 	mov	r5,r17
 10030a0:	1009f000 	call	1009f00 <__nedf2>
 10030a4:	103f9f26 	beq	r2,zero,1002f24 <___vfprintf_internal_r+0x1ce4>
 10030a8:	00800044 	movi	r2,1
 10030ac:	1509c83a 	sub	r4,r2,r20
 10030b0:	d9000615 	stw	r4,24(sp)
 10030b4:	003f9b06 	br	1002f24 <___vfprintf_internal_r+0x1ce4>
 10030b8:	98000d1e 	bne	r19,zero,10030f0 <___vfprintf_internal_r+0x1eb0>
 10030bc:	d8c14d17 	ldw	r3,1332(sp)
 10030c0:	1880004c 	andi	r2,r3,1
 10030c4:	10000a1e 	bne	r2,zero,10030f0 <___vfprintf_internal_r+0x1eb0>
 10030c8:	01000044 	movi	r4,1
 10030cc:	200f883a 	mov	r7,r4
 10030d0:	d9014615 	stw	r4,1304(sp)
 10030d4:	003f4a06 	br	1002e00 <___vfprintf_internal_r+0x1bc0>
 10030d8:	3cc00017 	ldw	r19,0(r7)
 10030dc:	39c00104 	addi	r7,r7,4
 10030e0:	983d0e0e 	bge	r19,zero,100251c <___vfprintf_internal_r+0x12dc>
 10030e4:	b8c00007 	ldb	r3,0(r23)
 10030e8:	04ffffc4 	movi	r19,-1
 10030ec:	0038d306 	br	100143c <___vfprintf_internal_r+0x1fc>
 10030f0:	9cc00084 	addi	r19,r19,2
 10030f4:	dcc14615 	stw	r19,1304(sp)
 10030f8:	980f883a 	mov	r7,r19
 10030fc:	983f400e 	bge	r19,zero,1002e00 <___vfprintf_internal_r+0x1bc0>
 1003100:	003f7306 	br	1002ed0 <___vfprintf_internal_r+0x1c90>

01003104 <__vfprintf_internal>:
 1003104:	00804074 	movhi	r2,257
 1003108:	10be1c04 	addi	r2,r2,-1936
 100310c:	2013883a 	mov	r9,r4
 1003110:	11000017 	ldw	r4,0(r2)
 1003114:	2805883a 	mov	r2,r5
 1003118:	300f883a 	mov	r7,r6
 100311c:	480b883a 	mov	r5,r9
 1003120:	100d883a 	mov	r6,r2
 1003124:	10012401 	jmpi	1001240 <___vfprintf_internal_r>

01003128 <__swsetup_r>:
 1003128:	00804074 	movhi	r2,257
 100312c:	10be1c04 	addi	r2,r2,-1936
 1003130:	10c00017 	ldw	r3,0(r2)
 1003134:	defffd04 	addi	sp,sp,-12
 1003138:	dc400115 	stw	r17,4(sp)
 100313c:	dc000015 	stw	r16,0(sp)
 1003140:	dfc00215 	stw	ra,8(sp)
 1003144:	2023883a 	mov	r17,r4
 1003148:	2821883a 	mov	r16,r5
 100314c:	18000226 	beq	r3,zero,1003158 <__swsetup_r+0x30>
 1003150:	18800e17 	ldw	r2,56(r3)
 1003154:	10001f26 	beq	r2,zero,10031d4 <__swsetup_r+0xac>
 1003158:	8100030b 	ldhu	r4,12(r16)
 100315c:	2080020c 	andi	r2,r4,8
 1003160:	10002826 	beq	r2,zero,1003204 <__swsetup_r+0xdc>
 1003164:	81400417 	ldw	r5,16(r16)
 1003168:	28001d26 	beq	r5,zero,10031e0 <__swsetup_r+0xb8>
 100316c:	2080004c 	andi	r2,r4,1
 1003170:	1005003a 	cmpeq	r2,r2,zero
 1003174:	10000b26 	beq	r2,zero,10031a4 <__swsetup_r+0x7c>
 1003178:	2080008c 	andi	r2,r4,2
 100317c:	10001226 	beq	r2,zero,10031c8 <__swsetup_r+0xa0>
 1003180:	0005883a 	mov	r2,zero
 1003184:	80800215 	stw	r2,8(r16)
 1003188:	28000b26 	beq	r5,zero,10031b8 <__swsetup_r+0x90>
 100318c:	0005883a 	mov	r2,zero
 1003190:	dfc00217 	ldw	ra,8(sp)
 1003194:	dc400117 	ldw	r17,4(sp)
 1003198:	dc000017 	ldw	r16,0(sp)
 100319c:	dec00304 	addi	sp,sp,12
 10031a0:	f800283a 	ret
 10031a4:	80800517 	ldw	r2,20(r16)
 10031a8:	80000215 	stw	zero,8(r16)
 10031ac:	0085c83a 	sub	r2,zero,r2
 10031b0:	80800615 	stw	r2,24(r16)
 10031b4:	283ff51e 	bne	r5,zero,100318c <__swsetup_r+0x64>
 10031b8:	2080200c 	andi	r2,r4,128
 10031bc:	103ff326 	beq	r2,zero,100318c <__swsetup_r+0x64>
 10031c0:	00bfffc4 	movi	r2,-1
 10031c4:	003ff206 	br	1003190 <__swsetup_r+0x68>
 10031c8:	80800517 	ldw	r2,20(r16)
 10031cc:	80800215 	stw	r2,8(r16)
 10031d0:	003fed06 	br	1003188 <__swsetup_r+0x60>
 10031d4:	1809883a 	mov	r4,r3
 10031d8:	1004cf40 	call	1004cf4 <__sinit>
 10031dc:	003fde06 	br	1003158 <__swsetup_r+0x30>
 10031e0:	20c0a00c 	andi	r3,r4,640
 10031e4:	00808004 	movi	r2,512
 10031e8:	18bfe026 	beq	r3,r2,100316c <__swsetup_r+0x44>
 10031ec:	8809883a 	mov	r4,r17
 10031f0:	800b883a 	mov	r5,r16
 10031f4:	1005b140 	call	1005b14 <__smakebuf_r>
 10031f8:	8100030b 	ldhu	r4,12(r16)
 10031fc:	81400417 	ldw	r5,16(r16)
 1003200:	003fda06 	br	100316c <__swsetup_r+0x44>
 1003204:	2080040c 	andi	r2,r4,16
 1003208:	103fed26 	beq	r2,zero,10031c0 <__swsetup_r+0x98>
 100320c:	2080010c 	andi	r2,r4,4
 1003210:	10001226 	beq	r2,zero,100325c <__swsetup_r+0x134>
 1003214:	81400c17 	ldw	r5,48(r16)
 1003218:	28000526 	beq	r5,zero,1003230 <__swsetup_r+0x108>
 100321c:	80801004 	addi	r2,r16,64
 1003220:	28800226 	beq	r5,r2,100322c <__swsetup_r+0x104>
 1003224:	8809883a 	mov	r4,r17
 1003228:	10050ac0 	call	10050ac <_free_r>
 100322c:	80000c15 	stw	zero,48(r16)
 1003230:	8080030b 	ldhu	r2,12(r16)
 1003234:	81400417 	ldw	r5,16(r16)
 1003238:	80000115 	stw	zero,4(r16)
 100323c:	10bff6cc 	andi	r2,r2,65499
 1003240:	8080030d 	sth	r2,12(r16)
 1003244:	81400015 	stw	r5,0(r16)
 1003248:	8080030b 	ldhu	r2,12(r16)
 100324c:	10800214 	ori	r2,r2,8
 1003250:	113fffcc 	andi	r4,r2,65535
 1003254:	8080030d 	sth	r2,12(r16)
 1003258:	003fc306 	br	1003168 <__swsetup_r+0x40>
 100325c:	81400417 	ldw	r5,16(r16)
 1003260:	003ff906 	br	1003248 <__swsetup_r+0x120>

01003264 <quorem>:
 1003264:	28c00417 	ldw	r3,16(r5)
 1003268:	20800417 	ldw	r2,16(r4)
 100326c:	defff104 	addi	sp,sp,-60
 1003270:	dfc00e15 	stw	ra,56(sp)
 1003274:	df000d15 	stw	fp,52(sp)
 1003278:	ddc00c15 	stw	r23,48(sp)
 100327c:	dd800b15 	stw	r22,44(sp)
 1003280:	dd400a15 	stw	r21,40(sp)
 1003284:	dd000915 	stw	r20,36(sp)
 1003288:	dcc00815 	stw	r19,32(sp)
 100328c:	dc800715 	stw	r18,28(sp)
 1003290:	dc400615 	stw	r17,24(sp)
 1003294:	dc000515 	stw	r16,20(sp)
 1003298:	d9000315 	stw	r4,12(sp)
 100329c:	d9400415 	stw	r5,16(sp)
 10032a0:	10c07f16 	blt	r2,r3,10034a0 <quorem+0x23c>
 10032a4:	1d3fffc4 	addi	r20,r3,-1
 10032a8:	d8c00417 	ldw	r3,16(sp)
 10032ac:	d9000317 	ldw	r4,12(sp)
 10032b0:	a505883a 	add	r2,r20,r20
 10032b4:	1085883a 	add	r2,r2,r2
 10032b8:	1cc00504 	addi	r19,r3,20
 10032bc:	25c00504 	addi	r23,r4,20
 10032c0:	98ad883a 	add	r22,r19,r2
 10032c4:	15c7883a 	add	r3,r2,r23
 10032c8:	b1400017 	ldw	r5,0(r22)
 10032cc:	19000017 	ldw	r4,0(r3)
 10032d0:	d8c00015 	stw	r3,0(sp)
 10032d4:	29400044 	addi	r5,r5,1
 10032d8:	d9000215 	stw	r4,8(sp)
 10032dc:	100a5c00 	call	100a5c0 <__udivsi3>
 10032e0:	1039883a 	mov	fp,r2
 10032e4:	10003d1e 	bne	r2,zero,10033dc <quorem+0x178>
 10032e8:	d9400417 	ldw	r5,16(sp)
 10032ec:	d9000317 	ldw	r4,12(sp)
 10032f0:	10068400 	call	1006840 <__mcmp>
 10032f4:	10002c16 	blt	r2,zero,10033a8 <quorem+0x144>
 10032f8:	e7000044 	addi	fp,fp,1
 10032fc:	b80f883a 	mov	r7,r23
 1003300:	0011883a 	mov	r8,zero
 1003304:	0009883a 	mov	r4,zero
 1003308:	99400017 	ldw	r5,0(r19)
 100330c:	38c00017 	ldw	r3,0(r7)
 1003310:	9cc00104 	addi	r19,r19,4
 1003314:	28bfffcc 	andi	r2,r5,65535
 1003318:	2085883a 	add	r2,r4,r2
 100331c:	11bfffcc 	andi	r6,r2,65535
 1003320:	193fffcc 	andi	r4,r3,65535
 1003324:	1004d43a 	srli	r2,r2,16
 1003328:	280ad43a 	srli	r5,r5,16
 100332c:	2189c83a 	sub	r4,r4,r6
 1003330:	2209883a 	add	r4,r4,r8
 1003334:	1806d43a 	srli	r3,r3,16
 1003338:	288b883a 	add	r5,r5,r2
 100333c:	200dd43a 	srai	r6,r4,16
 1003340:	28bfffcc 	andi	r2,r5,65535
 1003344:	1887c83a 	sub	r3,r3,r2
 1003348:	1987883a 	add	r3,r3,r6
 100334c:	3900000d 	sth	r4,0(r7)
 1003350:	38c0008d 	sth	r3,2(r7)
 1003354:	2808d43a 	srli	r4,r5,16
 1003358:	39c00104 	addi	r7,r7,4
 100335c:	1811d43a 	srai	r8,r3,16
 1003360:	b4ffe92e 	bgeu	r22,r19,1003308 <quorem+0xa4>
 1003364:	a505883a 	add	r2,r20,r20
 1003368:	1085883a 	add	r2,r2,r2
 100336c:	b885883a 	add	r2,r23,r2
 1003370:	10c00017 	ldw	r3,0(r2)
 1003374:	18000c1e 	bne	r3,zero,10033a8 <quorem+0x144>
 1003378:	113fff04 	addi	r4,r2,-4
 100337c:	b900082e 	bgeu	r23,r4,10033a0 <quorem+0x13c>
 1003380:	10bfff17 	ldw	r2,-4(r2)
 1003384:	10000326 	beq	r2,zero,1003394 <quorem+0x130>
 1003388:	00000506 	br	10033a0 <quorem+0x13c>
 100338c:	20800017 	ldw	r2,0(r4)
 1003390:	1000031e 	bne	r2,zero,10033a0 <quorem+0x13c>
 1003394:	213fff04 	addi	r4,r4,-4
 1003398:	a53fffc4 	addi	r20,r20,-1
 100339c:	b93ffb36 	bltu	r23,r4,100338c <quorem+0x128>
 10033a0:	d9000317 	ldw	r4,12(sp)
 10033a4:	25000415 	stw	r20,16(r4)
 10033a8:	e005883a 	mov	r2,fp
 10033ac:	dfc00e17 	ldw	ra,56(sp)
 10033b0:	df000d17 	ldw	fp,52(sp)
 10033b4:	ddc00c17 	ldw	r23,48(sp)
 10033b8:	dd800b17 	ldw	r22,44(sp)
 10033bc:	dd400a17 	ldw	r21,40(sp)
 10033c0:	dd000917 	ldw	r20,36(sp)
 10033c4:	dcc00817 	ldw	r19,32(sp)
 10033c8:	dc800717 	ldw	r18,28(sp)
 10033cc:	dc400617 	ldw	r17,24(sp)
 10033d0:	dc000517 	ldw	r16,20(sp)
 10033d4:	dec00f04 	addi	sp,sp,60
 10033d8:	f800283a 	ret
 10033dc:	b823883a 	mov	r17,r23
 10033e0:	9825883a 	mov	r18,r19
 10033e4:	d8000115 	stw	zero,4(sp)
 10033e8:	002b883a 	mov	r21,zero
 10033ec:	94000017 	ldw	r16,0(r18)
 10033f0:	e009883a 	mov	r4,fp
 10033f4:	94800104 	addi	r18,r18,4
 10033f8:	817fffcc 	andi	r5,r16,65535
 10033fc:	1000a8c0 	call	1000a8c <__mulsi3>
 1003400:	800ad43a 	srli	r5,r16,16
 1003404:	e009883a 	mov	r4,fp
 1003408:	a8a1883a 	add	r16,r21,r2
 100340c:	1000a8c0 	call	1000a8c <__mulsi3>
 1003410:	89000017 	ldw	r4,0(r17)
 1003414:	80ffffcc 	andi	r3,r16,65535
 1003418:	8020d43a 	srli	r16,r16,16
 100341c:	217fffcc 	andi	r5,r4,65535
 1003420:	28cbc83a 	sub	r5,r5,r3
 1003424:	d8c00117 	ldw	r3,4(sp)
 1003428:	2008d43a 	srli	r4,r4,16
 100342c:	1405883a 	add	r2,r2,r16
 1003430:	28cb883a 	add	r5,r5,r3
 1003434:	280dd43a 	srai	r6,r5,16
 1003438:	10ffffcc 	andi	r3,r2,65535
 100343c:	20c9c83a 	sub	r4,r4,r3
 1003440:	2189883a 	add	r4,r4,r6
 1003444:	8900008d 	sth	r4,2(r17)
 1003448:	2009d43a 	srai	r4,r4,16
 100344c:	8940000d 	sth	r5,0(r17)
 1003450:	102ad43a 	srli	r21,r2,16
 1003454:	8c400104 	addi	r17,r17,4
 1003458:	d9000115 	stw	r4,4(sp)
 100345c:	b4bfe32e 	bgeu	r22,r18,10033ec <quorem+0x188>
 1003460:	d9000217 	ldw	r4,8(sp)
 1003464:	203fa01e 	bne	r4,zero,10032e8 <quorem+0x84>
 1003468:	d8800017 	ldw	r2,0(sp)
 100346c:	10ffff04 	addi	r3,r2,-4
 1003470:	b8c0082e 	bgeu	r23,r3,1003494 <quorem+0x230>
 1003474:	10bfff17 	ldw	r2,-4(r2)
 1003478:	10000326 	beq	r2,zero,1003488 <quorem+0x224>
 100347c:	00000506 	br	1003494 <quorem+0x230>
 1003480:	18800017 	ldw	r2,0(r3)
 1003484:	1000031e 	bne	r2,zero,1003494 <quorem+0x230>
 1003488:	18ffff04 	addi	r3,r3,-4
 100348c:	a53fffc4 	addi	r20,r20,-1
 1003490:	b8fffb36 	bltu	r23,r3,1003480 <quorem+0x21c>
 1003494:	d8c00317 	ldw	r3,12(sp)
 1003498:	1d000415 	stw	r20,16(r3)
 100349c:	003f9206 	br	10032e8 <quorem+0x84>
 10034a0:	0005883a 	mov	r2,zero
 10034a4:	003fc106 	br	10033ac <quorem+0x148>

010034a8 <_dtoa_r>:
 10034a8:	22001017 	ldw	r8,64(r4)
 10034ac:	deffda04 	addi	sp,sp,-152
 10034b0:	dd402115 	stw	r21,132(sp)
 10034b4:	dd002015 	stw	r20,128(sp)
 10034b8:	dc801e15 	stw	r18,120(sp)
 10034bc:	dc401d15 	stw	r17,116(sp)
 10034c0:	dfc02515 	stw	ra,148(sp)
 10034c4:	df002415 	stw	fp,144(sp)
 10034c8:	ddc02315 	stw	r23,140(sp)
 10034cc:	dd802215 	stw	r22,136(sp)
 10034d0:	dcc01f15 	stw	r19,124(sp)
 10034d4:	dc001c15 	stw	r16,112(sp)
 10034d8:	d9001615 	stw	r4,88(sp)
 10034dc:	3023883a 	mov	r17,r6
 10034e0:	2829883a 	mov	r20,r5
 10034e4:	d9c01715 	stw	r7,92(sp)
 10034e8:	dc802817 	ldw	r18,160(sp)
 10034ec:	302b883a 	mov	r21,r6
 10034f0:	40000a26 	beq	r8,zero,100351c <_dtoa_r+0x74>
 10034f4:	20801117 	ldw	r2,68(r4)
 10034f8:	400b883a 	mov	r5,r8
 10034fc:	40800115 	stw	r2,4(r8)
 1003500:	20c01117 	ldw	r3,68(r4)
 1003504:	00800044 	movi	r2,1
 1003508:	10c4983a 	sll	r2,r2,r3
 100350c:	40800215 	stw	r2,8(r8)
 1003510:	10066e40 	call	10066e4 <_Bfree>
 1003514:	d8c01617 	ldw	r3,88(sp)
 1003518:	18001015 	stw	zero,64(r3)
 100351c:	8800a316 	blt	r17,zero,10037ac <_dtoa_r+0x304>
 1003520:	90000015 	stw	zero,0(r18)
 1003524:	a8dffc2c 	andhi	r3,r21,32752
 1003528:	009ffc34 	movhi	r2,32752
 100352c:	18809126 	beq	r3,r2,1003774 <_dtoa_r+0x2cc>
 1003530:	000d883a 	mov	r6,zero
 1003534:	000f883a 	mov	r7,zero
 1003538:	a009883a 	mov	r4,r20
 100353c:	a80b883a 	mov	r5,r21
 1003540:	dd001215 	stw	r20,72(sp)
 1003544:	dd401315 	stw	r21,76(sp)
 1003548:	1009f000 	call	1009f00 <__nedf2>
 100354c:	1000171e 	bne	r2,zero,10035ac <_dtoa_r+0x104>
 1003550:	d9802717 	ldw	r6,156(sp)
 1003554:	00800044 	movi	r2,1
 1003558:	30800015 	stw	r2,0(r6)
 100355c:	d8802917 	ldw	r2,164(sp)
 1003560:	10029b26 	beq	r2,zero,1003fd0 <_dtoa_r+0xb28>
 1003564:	d9002917 	ldw	r4,164(sp)
 1003568:	00804074 	movhi	r2,257
 100356c:	10b70b44 	addi	r2,r2,-9171
 1003570:	10ffffc4 	addi	r3,r2,-1
 1003574:	20800015 	stw	r2,0(r4)
 1003578:	1805883a 	mov	r2,r3
 100357c:	dfc02517 	ldw	ra,148(sp)
 1003580:	df002417 	ldw	fp,144(sp)
 1003584:	ddc02317 	ldw	r23,140(sp)
 1003588:	dd802217 	ldw	r22,136(sp)
 100358c:	dd402117 	ldw	r21,132(sp)
 1003590:	dd002017 	ldw	r20,128(sp)
 1003594:	dcc01f17 	ldw	r19,124(sp)
 1003598:	dc801e17 	ldw	r18,120(sp)
 100359c:	dc401d17 	ldw	r17,116(sp)
 10035a0:	dc001c17 	ldw	r16,112(sp)
 10035a4:	dec02604 	addi	sp,sp,152
 10035a8:	f800283a 	ret
 10035ac:	d9001617 	ldw	r4,88(sp)
 10035b0:	d9401217 	ldw	r5,72(sp)
 10035b4:	d8800104 	addi	r2,sp,4
 10035b8:	a80d883a 	mov	r6,r21
 10035bc:	d9c00204 	addi	r7,sp,8
 10035c0:	d8800015 	stw	r2,0(sp)
 10035c4:	1006d200 	call	1006d20 <__d2b>
 10035c8:	d8800715 	stw	r2,28(sp)
 10035cc:	a804d53a 	srli	r2,r21,20
 10035d0:	1101ffcc 	andi	r4,r2,2047
 10035d4:	20008626 	beq	r4,zero,10037f0 <_dtoa_r+0x348>
 10035d8:	d8c01217 	ldw	r3,72(sp)
 10035dc:	00800434 	movhi	r2,16
 10035e0:	10bfffc4 	addi	r2,r2,-1
 10035e4:	ddc00117 	ldw	r23,4(sp)
 10035e8:	a884703a 	and	r2,r21,r2
 10035ec:	1811883a 	mov	r8,r3
 10035f0:	124ffc34 	orhi	r9,r2,16368
 10035f4:	25bf0044 	addi	r22,r4,-1023
 10035f8:	d8000815 	stw	zero,32(sp)
 10035fc:	0005883a 	mov	r2,zero
 1003600:	00cffe34 	movhi	r3,16376
 1003604:	480b883a 	mov	r5,r9
 1003608:	4009883a 	mov	r4,r8
 100360c:	180f883a 	mov	r7,r3
 1003610:	100d883a 	mov	r6,r2
 1003614:	10097680 	call	1009768 <__subdf3>
 1003618:	0218dbf4 	movhi	r8,25455
 100361c:	4210d844 	addi	r8,r8,17249
 1003620:	024ff4f4 	movhi	r9,16339
 1003624:	4a61e9c4 	addi	r9,r9,-30809
 1003628:	480f883a 	mov	r7,r9
 100362c:	400d883a 	mov	r6,r8
 1003630:	180b883a 	mov	r5,r3
 1003634:	1009883a 	mov	r4,r2
 1003638:	100985c0 	call	100985c <__muldf3>
 100363c:	0222d874 	movhi	r8,35681
 1003640:	42322cc4 	addi	r8,r8,-14157
 1003644:	024ff1f4 	movhi	r9,16327
 1003648:	4a628a04 	addi	r9,r9,-30168
 100364c:	480f883a 	mov	r7,r9
 1003650:	400d883a 	mov	r6,r8
 1003654:	180b883a 	mov	r5,r3
 1003658:	1009883a 	mov	r4,r2
 100365c:	10097e80 	call	10097e8 <__adddf3>
 1003660:	b009883a 	mov	r4,r22
 1003664:	1021883a 	mov	r16,r2
 1003668:	1823883a 	mov	r17,r3
 100366c:	100a1200 	call	100a120 <__floatsidf>
 1003670:	021427f4 	movhi	r8,20639
 1003674:	421e7ec4 	addi	r8,r8,31227
 1003678:	024ff4f4 	movhi	r9,16339
 100367c:	4a5104c4 	addi	r9,r9,17427
 1003680:	480f883a 	mov	r7,r9
 1003684:	400d883a 	mov	r6,r8
 1003688:	180b883a 	mov	r5,r3
 100368c:	1009883a 	mov	r4,r2
 1003690:	100985c0 	call	100985c <__muldf3>
 1003694:	180f883a 	mov	r7,r3
 1003698:	880b883a 	mov	r5,r17
 100369c:	100d883a 	mov	r6,r2
 10036a0:	8009883a 	mov	r4,r16
 10036a4:	10097e80 	call	10097e8 <__adddf3>
 10036a8:	1009883a 	mov	r4,r2
 10036ac:	180b883a 	mov	r5,r3
 10036b0:	1021883a 	mov	r16,r2
 10036b4:	1823883a 	mov	r17,r3
 10036b8:	100a2180 	call	100a218 <__fixdfsi>
 10036bc:	000d883a 	mov	r6,zero
 10036c0:	000f883a 	mov	r7,zero
 10036c4:	8009883a 	mov	r4,r16
 10036c8:	880b883a 	mov	r5,r17
 10036cc:	d8800d15 	stw	r2,52(sp)
 10036d0:	100a0980 	call	100a098 <__ltdf2>
 10036d4:	10031716 	blt	r2,zero,1004334 <_dtoa_r+0xe8c>
 10036d8:	d8c00d17 	ldw	r3,52(sp)
 10036dc:	00800584 	movi	r2,22
 10036e0:	10c1482e 	bgeu	r2,r3,1003c04 <_dtoa_r+0x75c>
 10036e4:	01000044 	movi	r4,1
 10036e8:	d9000c15 	stw	r4,48(sp)
 10036ec:	bd85c83a 	sub	r2,r23,r22
 10036f0:	11bfffc4 	addi	r6,r2,-1
 10036f4:	30030b16 	blt	r6,zero,1004324 <_dtoa_r+0xe7c>
 10036f8:	d9800a15 	stw	r6,40(sp)
 10036fc:	d8001115 	stw	zero,68(sp)
 1003700:	d8c00d17 	ldw	r3,52(sp)
 1003704:	1802ff16 	blt	r3,zero,1004304 <_dtoa_r+0xe5c>
 1003708:	d9000a17 	ldw	r4,40(sp)
 100370c:	d8c00915 	stw	r3,36(sp)
 1003710:	d8001015 	stw	zero,64(sp)
 1003714:	20c9883a 	add	r4,r4,r3
 1003718:	d9000a15 	stw	r4,40(sp)
 100371c:	d9001717 	ldw	r4,92(sp)
 1003720:	00800244 	movi	r2,9
 1003724:	11004636 	bltu	r2,r4,1003840 <_dtoa_r+0x398>
 1003728:	00800144 	movi	r2,5
 100372c:	11020416 	blt	r2,r4,1003f40 <_dtoa_r+0xa98>
 1003730:	04400044 	movi	r17,1
 1003734:	d8c01717 	ldw	r3,92(sp)
 1003738:	00800144 	movi	r2,5
 100373c:	10c1ed36 	bltu	r2,r3,1003ef4 <_dtoa_r+0xa4c>
 1003740:	18c5883a 	add	r2,r3,r3
 1003744:	1085883a 	add	r2,r2,r2
 1003748:	00c04034 	movhi	r3,256
 100374c:	18cdd704 	addi	r3,r3,14172
 1003750:	10c5883a 	add	r2,r2,r3
 1003754:	11000017 	ldw	r4,0(r2)
 1003758:	2000683a 	jmp	r4
 100375c:	01003848 	cmpgei	r4,zero,225
 1003760:	01003848 	cmpgei	r4,zero,225
 1003764:	01004248 	cmpgei	r4,zero,265
 1003768:	01004220 	cmpeqi	r4,zero,264
 100376c:	01004264 	muli	r4,zero,265
 1003770:	01004270 	cmpltui	r4,zero,265
 1003774:	d9002717 	ldw	r4,156(sp)
 1003778:	0089c3c4 	movi	r2,9999
 100377c:	20800015 	stw	r2,0(r4)
 1003780:	a0001026 	beq	r20,zero,10037c4 <_dtoa_r+0x31c>
 1003784:	00c04074 	movhi	r3,257
 1003788:	18f71704 	addi	r3,r3,-9124
 100378c:	d9802917 	ldw	r6,164(sp)
 1003790:	303f7926 	beq	r6,zero,1003578 <_dtoa_r+0xd0>
 1003794:	188000c7 	ldb	r2,3(r3)
 1003798:	190000c4 	addi	r4,r3,3
 100379c:	1000101e 	bne	r2,zero,10037e0 <_dtoa_r+0x338>
 10037a0:	d8802917 	ldw	r2,164(sp)
 10037a4:	11000015 	stw	r4,0(r2)
 10037a8:	003f7306 	br	1003578 <_dtoa_r+0xd0>
 10037ac:	00a00034 	movhi	r2,32768
 10037b0:	10bfffc4 	addi	r2,r2,-1
 10037b4:	00c00044 	movi	r3,1
 10037b8:	88aa703a 	and	r21,r17,r2
 10037bc:	90c00015 	stw	r3,0(r18)
 10037c0:	003f5806 	br	1003524 <_dtoa_r+0x7c>
 10037c4:	00800434 	movhi	r2,16
 10037c8:	10bfffc4 	addi	r2,r2,-1
 10037cc:	a884703a 	and	r2,r21,r2
 10037d0:	103fec1e 	bne	r2,zero,1003784 <_dtoa_r+0x2dc>
 10037d4:	00c04074 	movhi	r3,257
 10037d8:	18f71404 	addi	r3,r3,-9136
 10037dc:	003feb06 	br	100378c <_dtoa_r+0x2e4>
 10037e0:	d8802917 	ldw	r2,164(sp)
 10037e4:	19000204 	addi	r4,r3,8
 10037e8:	11000015 	stw	r4,0(r2)
 10037ec:	003f6206 	br	1003578 <_dtoa_r+0xd0>
 10037f0:	ddc00117 	ldw	r23,4(sp)
 10037f4:	d8800217 	ldw	r2,8(sp)
 10037f8:	01000804 	movi	r4,32
 10037fc:	b8c10c84 	addi	r3,r23,1074
 1003800:	18a3883a 	add	r17,r3,r2
 1003804:	2441b80e 	bge	r4,r17,1003ee8 <_dtoa_r+0xa40>
 1003808:	00c01004 	movi	r3,64
 100380c:	1c47c83a 	sub	r3,r3,r17
 1003810:	88bff804 	addi	r2,r17,-32
 1003814:	a8c6983a 	sll	r3,r21,r3
 1003818:	a084d83a 	srl	r2,r20,r2
 100381c:	1888b03a 	or	r4,r3,r2
 1003820:	100a2f00 	call	100a2f0 <__floatunsidf>
 1003824:	1011883a 	mov	r8,r2
 1003828:	00bf8434 	movhi	r2,65040
 100382c:	01000044 	movi	r4,1
 1003830:	10d3883a 	add	r9,r2,r3
 1003834:	8dbef344 	addi	r22,r17,-1075
 1003838:	d9000815 	stw	r4,32(sp)
 100383c:	003f6f06 	br	10035fc <_dtoa_r+0x154>
 1003840:	d8001715 	stw	zero,92(sp)
 1003844:	04400044 	movi	r17,1
 1003848:	00bfffc4 	movi	r2,-1
 100384c:	00c00044 	movi	r3,1
 1003850:	d8800e15 	stw	r2,56(sp)
 1003854:	d8002615 	stw	zero,152(sp)
 1003858:	d8800f15 	stw	r2,60(sp)
 100385c:	d8c00b15 	stw	r3,44(sp)
 1003860:	1021883a 	mov	r16,r2
 1003864:	d8801617 	ldw	r2,88(sp)
 1003868:	10001115 	stw	zero,68(r2)
 100386c:	d8801617 	ldw	r2,88(sp)
 1003870:	11401117 	ldw	r5,68(r2)
 1003874:	1009883a 	mov	r4,r2
 1003878:	1006c640 	call	1006c64 <_Balloc>
 100387c:	d8c01617 	ldw	r3,88(sp)
 1003880:	d8800515 	stw	r2,20(sp)
 1003884:	18801015 	stw	r2,64(r3)
 1003888:	00800384 	movi	r2,14
 100388c:	14006836 	bltu	r2,r16,1003a30 <_dtoa_r+0x588>
 1003890:	8805003a 	cmpeq	r2,r17,zero
 1003894:	1000661e 	bne	r2,zero,1003a30 <_dtoa_r+0x588>
 1003898:	d9000d17 	ldw	r4,52(sp)
 100389c:	0102300e 	bge	zero,r4,1004160 <_dtoa_r+0xcb8>
 10038a0:	208003cc 	andi	r2,r4,15
 10038a4:	100490fa 	slli	r2,r2,3
 10038a8:	2025d13a 	srai	r18,r4,4
 10038ac:	00c04074 	movhi	r3,257
 10038b0:	18f72904 	addi	r3,r3,-9052
 10038b4:	10c5883a 	add	r2,r2,r3
 10038b8:	90c0040c 	andi	r3,r18,16
 10038bc:	14000017 	ldw	r16,0(r2)
 10038c0:	14400117 	ldw	r17,4(r2)
 10038c4:	18036a1e 	bne	r3,zero,1004670 <_dtoa_r+0x11c8>
 10038c8:	05800084 	movi	r22,2
 10038cc:	90001026 	beq	r18,zero,1003910 <_dtoa_r+0x468>
 10038d0:	04c04074 	movhi	r19,257
 10038d4:	9cf75b04 	addi	r19,r19,-8852
 10038d8:	9080004c 	andi	r2,r18,1
 10038dc:	1005003a 	cmpeq	r2,r2,zero
 10038e0:	1000081e 	bne	r2,zero,1003904 <_dtoa_r+0x45c>
 10038e4:	99800017 	ldw	r6,0(r19)
 10038e8:	99c00117 	ldw	r7,4(r19)
 10038ec:	880b883a 	mov	r5,r17
 10038f0:	8009883a 	mov	r4,r16
 10038f4:	100985c0 	call	100985c <__muldf3>
 10038f8:	1021883a 	mov	r16,r2
 10038fc:	b5800044 	addi	r22,r22,1
 1003900:	1823883a 	mov	r17,r3
 1003904:	9025d07a 	srai	r18,r18,1
 1003908:	9cc00204 	addi	r19,r19,8
 100390c:	903ff21e 	bne	r18,zero,10038d8 <_dtoa_r+0x430>
 1003910:	a80b883a 	mov	r5,r21
 1003914:	a009883a 	mov	r4,r20
 1003918:	880f883a 	mov	r7,r17
 100391c:	800d883a 	mov	r6,r16
 1003920:	1009c200 	call	1009c20 <__divdf3>
 1003924:	1029883a 	mov	r20,r2
 1003928:	182b883a 	mov	r21,r3
 100392c:	d8c00c17 	ldw	r3,48(sp)
 1003930:	1805003a 	cmpeq	r2,r3,zero
 1003934:	1000081e 	bne	r2,zero,1003958 <_dtoa_r+0x4b0>
 1003938:	0005883a 	mov	r2,zero
 100393c:	00cffc34 	movhi	r3,16368
 1003940:	180f883a 	mov	r7,r3
 1003944:	a009883a 	mov	r4,r20
 1003948:	a80b883a 	mov	r5,r21
 100394c:	100d883a 	mov	r6,r2
 1003950:	100a0980 	call	100a098 <__ltdf2>
 1003954:	1003fe16 	blt	r2,zero,1004950 <_dtoa_r+0x14a8>
 1003958:	b009883a 	mov	r4,r22
 100395c:	100a1200 	call	100a120 <__floatsidf>
 1003960:	180b883a 	mov	r5,r3
 1003964:	1009883a 	mov	r4,r2
 1003968:	a00d883a 	mov	r6,r20
 100396c:	a80f883a 	mov	r7,r21
 1003970:	100985c0 	call	100985c <__muldf3>
 1003974:	0011883a 	mov	r8,zero
 1003978:	02500734 	movhi	r9,16412
 100397c:	1009883a 	mov	r4,r2
 1003980:	180b883a 	mov	r5,r3
 1003984:	480f883a 	mov	r7,r9
 1003988:	400d883a 	mov	r6,r8
 100398c:	10097e80 	call	10097e8 <__adddf3>
 1003990:	d9000f17 	ldw	r4,60(sp)
 1003994:	102d883a 	mov	r22,r2
 1003998:	00bf3034 	movhi	r2,64704
 100399c:	18b9883a 	add	fp,r3,r2
 10039a0:	e02f883a 	mov	r23,fp
 10039a4:	20028f1e 	bne	r4,zero,10043e4 <_dtoa_r+0xf3c>
 10039a8:	0005883a 	mov	r2,zero
 10039ac:	00d00534 	movhi	r3,16404
 10039b0:	a009883a 	mov	r4,r20
 10039b4:	a80b883a 	mov	r5,r21
 10039b8:	180f883a 	mov	r7,r3
 10039bc:	100d883a 	mov	r6,r2
 10039c0:	10097680 	call	1009768 <__subdf3>
 10039c4:	1009883a 	mov	r4,r2
 10039c8:	e00f883a 	mov	r7,fp
 10039cc:	180b883a 	mov	r5,r3
 10039d0:	b00d883a 	mov	r6,r22
 10039d4:	1025883a 	mov	r18,r2
 10039d8:	1827883a 	mov	r19,r3
 10039dc:	1009f880 	call	1009f88 <__gtdf2>
 10039e0:	00834f16 	blt	zero,r2,1004720 <_dtoa_r+0x1278>
 10039e4:	e0e0003c 	xorhi	r3,fp,32768
 10039e8:	9009883a 	mov	r4,r18
 10039ec:	980b883a 	mov	r5,r19
 10039f0:	180f883a 	mov	r7,r3
 10039f4:	b00d883a 	mov	r6,r22
 10039f8:	100a0980 	call	100a098 <__ltdf2>
 10039fc:	1000080e 	bge	r2,zero,1003a20 <_dtoa_r+0x578>
 1003a00:	0027883a 	mov	r19,zero
 1003a04:	0025883a 	mov	r18,zero
 1003a08:	d8802617 	ldw	r2,152(sp)
 1003a0c:	df000517 	ldw	fp,20(sp)
 1003a10:	d8000615 	stw	zero,24(sp)
 1003a14:	0084303a 	nor	r2,zero,r2
 1003a18:	d8800d15 	stw	r2,52(sp)
 1003a1c:	00019b06 	br	100408c <_dtoa_r+0xbe4>
 1003a20:	d9801217 	ldw	r6,72(sp)
 1003a24:	d8801317 	ldw	r2,76(sp)
 1003a28:	3029883a 	mov	r20,r6
 1003a2c:	102b883a 	mov	r21,r2
 1003a30:	d8c00217 	ldw	r3,8(sp)
 1003a34:	18008516 	blt	r3,zero,1003c4c <_dtoa_r+0x7a4>
 1003a38:	d9000d17 	ldw	r4,52(sp)
 1003a3c:	00800384 	movi	r2,14
 1003a40:	11008216 	blt	r2,r4,1003c4c <_dtoa_r+0x7a4>
 1003a44:	200490fa 	slli	r2,r4,3
 1003a48:	d9802617 	ldw	r6,152(sp)
 1003a4c:	00c04074 	movhi	r3,257
 1003a50:	18f72904 	addi	r3,r3,-9052
 1003a54:	10c5883a 	add	r2,r2,r3
 1003a58:	14800017 	ldw	r18,0(r2)
 1003a5c:	14c00117 	ldw	r19,4(r2)
 1003a60:	30031e16 	blt	r6,zero,10046dc <_dtoa_r+0x1234>
 1003a64:	d9000517 	ldw	r4,20(sp)
 1003a68:	d8c00f17 	ldw	r3,60(sp)
 1003a6c:	a823883a 	mov	r17,r21
 1003a70:	a021883a 	mov	r16,r20
 1003a74:	192b883a 	add	r21,r3,r4
 1003a78:	2039883a 	mov	fp,r4
 1003a7c:	00000f06 	br	1003abc <_dtoa_r+0x614>
 1003a80:	0005883a 	mov	r2,zero
 1003a84:	00d00934 	movhi	r3,16420
 1003a88:	5009883a 	mov	r4,r10
 1003a8c:	580b883a 	mov	r5,r11
 1003a90:	180f883a 	mov	r7,r3
 1003a94:	100d883a 	mov	r6,r2
 1003a98:	100985c0 	call	100985c <__muldf3>
 1003a9c:	180b883a 	mov	r5,r3
 1003aa0:	000d883a 	mov	r6,zero
 1003aa4:	000f883a 	mov	r7,zero
 1003aa8:	1009883a 	mov	r4,r2
 1003aac:	1021883a 	mov	r16,r2
 1003ab0:	1823883a 	mov	r17,r3
 1003ab4:	1009f000 	call	1009f00 <__nedf2>
 1003ab8:	10004526 	beq	r2,zero,1003bd0 <_dtoa_r+0x728>
 1003abc:	900d883a 	mov	r6,r18
 1003ac0:	980f883a 	mov	r7,r19
 1003ac4:	8009883a 	mov	r4,r16
 1003ac8:	880b883a 	mov	r5,r17
 1003acc:	1009c200 	call	1009c20 <__divdf3>
 1003ad0:	180b883a 	mov	r5,r3
 1003ad4:	1009883a 	mov	r4,r2
 1003ad8:	100a2180 	call	100a218 <__fixdfsi>
 1003adc:	1009883a 	mov	r4,r2
 1003ae0:	1029883a 	mov	r20,r2
 1003ae4:	100a1200 	call	100a120 <__floatsidf>
 1003ae8:	180f883a 	mov	r7,r3
 1003aec:	9009883a 	mov	r4,r18
 1003af0:	980b883a 	mov	r5,r19
 1003af4:	100d883a 	mov	r6,r2
 1003af8:	100985c0 	call	100985c <__muldf3>
 1003afc:	180f883a 	mov	r7,r3
 1003b00:	880b883a 	mov	r5,r17
 1003b04:	8009883a 	mov	r4,r16
 1003b08:	100d883a 	mov	r6,r2
 1003b0c:	10097680 	call	1009768 <__subdf3>
 1003b10:	1015883a 	mov	r10,r2
 1003b14:	a0800c04 	addi	r2,r20,48
 1003b18:	e0800005 	stb	r2,0(fp)
 1003b1c:	e7000044 	addi	fp,fp,1
 1003b20:	1817883a 	mov	r11,r3
 1003b24:	e57fd61e 	bne	fp,r21,1003a80 <_dtoa_r+0x5d8>
 1003b28:	500d883a 	mov	r6,r10
 1003b2c:	180f883a 	mov	r7,r3
 1003b30:	5009883a 	mov	r4,r10
 1003b34:	180b883a 	mov	r5,r3
 1003b38:	10097e80 	call	10097e8 <__adddf3>
 1003b3c:	100d883a 	mov	r6,r2
 1003b40:	9009883a 	mov	r4,r18
 1003b44:	980b883a 	mov	r5,r19
 1003b48:	180f883a 	mov	r7,r3
 1003b4c:	1021883a 	mov	r16,r2
 1003b50:	1823883a 	mov	r17,r3
 1003b54:	100a0980 	call	100a098 <__ltdf2>
 1003b58:	10000816 	blt	r2,zero,1003b7c <_dtoa_r+0x6d4>
 1003b5c:	980b883a 	mov	r5,r19
 1003b60:	800d883a 	mov	r6,r16
 1003b64:	880f883a 	mov	r7,r17
 1003b68:	9009883a 	mov	r4,r18
 1003b6c:	1009e780 	call	1009e78 <__eqdf2>
 1003b70:	1000171e 	bne	r2,zero,1003bd0 <_dtoa_r+0x728>
 1003b74:	a080004c 	andi	r2,r20,1
 1003b78:	10001526 	beq	r2,zero,1003bd0 <_dtoa_r+0x728>
 1003b7c:	d8800d17 	ldw	r2,52(sp)
 1003b80:	d8800415 	stw	r2,16(sp)
 1003b84:	e009883a 	mov	r4,fp
 1003b88:	213fffc4 	addi	r4,r4,-1
 1003b8c:	20c00007 	ldb	r3,0(r4)
 1003b90:	00800e44 	movi	r2,57
 1003b94:	1880081e 	bne	r3,r2,1003bb8 <_dtoa_r+0x710>
 1003b98:	d8800517 	ldw	r2,20(sp)
 1003b9c:	113ffa1e 	bne	r2,r4,1003b88 <_dtoa_r+0x6e0>
 1003ba0:	d8c00417 	ldw	r3,16(sp)
 1003ba4:	d9800517 	ldw	r6,20(sp)
 1003ba8:	00800c04 	movi	r2,48
 1003bac:	18c00044 	addi	r3,r3,1
 1003bb0:	d8c00415 	stw	r3,16(sp)
 1003bb4:	30800005 	stb	r2,0(r6)
 1003bb8:	20800003 	ldbu	r2,0(r4)
 1003bbc:	d8c00417 	ldw	r3,16(sp)
 1003bc0:	27000044 	addi	fp,r4,1
 1003bc4:	10800044 	addi	r2,r2,1
 1003bc8:	d8c00d15 	stw	r3,52(sp)
 1003bcc:	20800005 	stb	r2,0(r4)
 1003bd0:	d9001617 	ldw	r4,88(sp)
 1003bd4:	d9400717 	ldw	r5,28(sp)
 1003bd8:	10066e40 	call	10066e4 <_Bfree>
 1003bdc:	e0000005 	stb	zero,0(fp)
 1003be0:	d9800d17 	ldw	r6,52(sp)
 1003be4:	d8c02717 	ldw	r3,156(sp)
 1003be8:	d9002917 	ldw	r4,164(sp)
 1003bec:	30800044 	addi	r2,r6,1
 1003bf0:	18800015 	stw	r2,0(r3)
 1003bf4:	20029c26 	beq	r4,zero,1004668 <_dtoa_r+0x11c0>
 1003bf8:	d8c00517 	ldw	r3,20(sp)
 1003bfc:	27000015 	stw	fp,0(r4)
 1003c00:	003e5d06 	br	1003578 <_dtoa_r+0xd0>
 1003c04:	d9800d17 	ldw	r6,52(sp)
 1003c08:	00c04074 	movhi	r3,257
 1003c0c:	18f72904 	addi	r3,r3,-9052
 1003c10:	d9001217 	ldw	r4,72(sp)
 1003c14:	300490fa 	slli	r2,r6,3
 1003c18:	d9401317 	ldw	r5,76(sp)
 1003c1c:	10c5883a 	add	r2,r2,r3
 1003c20:	12000017 	ldw	r8,0(r2)
 1003c24:	12400117 	ldw	r9,4(r2)
 1003c28:	400d883a 	mov	r6,r8
 1003c2c:	480f883a 	mov	r7,r9
 1003c30:	100a0980 	call	100a098 <__ltdf2>
 1003c34:	1000030e 	bge	r2,zero,1003c44 <_dtoa_r+0x79c>
 1003c38:	d8800d17 	ldw	r2,52(sp)
 1003c3c:	10bfffc4 	addi	r2,r2,-1
 1003c40:	d8800d15 	stw	r2,52(sp)
 1003c44:	d8000c15 	stw	zero,48(sp)
 1003c48:	003ea806 	br	10036ec <_dtoa_r+0x244>
 1003c4c:	d9000b17 	ldw	r4,44(sp)
 1003c50:	202cc03a 	cmpne	r22,r4,zero
 1003c54:	b000c71e 	bne	r22,zero,1003f74 <_dtoa_r+0xacc>
 1003c58:	dc001117 	ldw	r16,68(sp)
 1003c5c:	dc801017 	ldw	r18,64(sp)
 1003c60:	0027883a 	mov	r19,zero
 1003c64:	04000b0e 	bge	zero,r16,1003c94 <_dtoa_r+0x7ec>
 1003c68:	d8c00a17 	ldw	r3,40(sp)
 1003c6c:	00c0090e 	bge	zero,r3,1003c94 <_dtoa_r+0x7ec>
 1003c70:	8005883a 	mov	r2,r16
 1003c74:	1c011316 	blt	r3,r16,10040c4 <_dtoa_r+0xc1c>
 1003c78:	d9000a17 	ldw	r4,40(sp)
 1003c7c:	d9801117 	ldw	r6,68(sp)
 1003c80:	80a1c83a 	sub	r16,r16,r2
 1003c84:	2089c83a 	sub	r4,r4,r2
 1003c88:	308dc83a 	sub	r6,r6,r2
 1003c8c:	d9000a15 	stw	r4,40(sp)
 1003c90:	d9801115 	stw	r6,68(sp)
 1003c94:	d8801017 	ldw	r2,64(sp)
 1003c98:	0080150e 	bge	zero,r2,1003cf0 <_dtoa_r+0x848>
 1003c9c:	d8c00b17 	ldw	r3,44(sp)
 1003ca0:	1805003a 	cmpeq	r2,r3,zero
 1003ca4:	1001c91e 	bne	r2,zero,10043cc <_dtoa_r+0xf24>
 1003ca8:	04800e0e 	bge	zero,r18,1003ce4 <_dtoa_r+0x83c>
 1003cac:	d9001617 	ldw	r4,88(sp)
 1003cb0:	980b883a 	mov	r5,r19
 1003cb4:	900d883a 	mov	r6,r18
 1003cb8:	10075300 	call	1007530 <__pow5mult>
 1003cbc:	d9001617 	ldw	r4,88(sp)
 1003cc0:	d9800717 	ldw	r6,28(sp)
 1003cc4:	100b883a 	mov	r5,r2
 1003cc8:	1027883a 	mov	r19,r2
 1003ccc:	10071740 	call	1007174 <__multiply>
 1003cd0:	d9001617 	ldw	r4,88(sp)
 1003cd4:	d9400717 	ldw	r5,28(sp)
 1003cd8:	1023883a 	mov	r17,r2
 1003cdc:	10066e40 	call	10066e4 <_Bfree>
 1003ce0:	dc400715 	stw	r17,28(sp)
 1003ce4:	d9001017 	ldw	r4,64(sp)
 1003ce8:	248dc83a 	sub	r6,r4,r18
 1003cec:	30010e1e 	bne	r6,zero,1004128 <_dtoa_r+0xc80>
 1003cf0:	d9001617 	ldw	r4,88(sp)
 1003cf4:	04400044 	movi	r17,1
 1003cf8:	880b883a 	mov	r5,r17
 1003cfc:	10073c80 	call	10073c8 <__i2b>
 1003d00:	d9800917 	ldw	r6,36(sp)
 1003d04:	1025883a 	mov	r18,r2
 1003d08:	0180040e 	bge	zero,r6,1003d1c <_dtoa_r+0x874>
 1003d0c:	d9001617 	ldw	r4,88(sp)
 1003d10:	100b883a 	mov	r5,r2
 1003d14:	10075300 	call	1007530 <__pow5mult>
 1003d18:	1025883a 	mov	r18,r2
 1003d1c:	d8801717 	ldw	r2,92(sp)
 1003d20:	8880f30e 	bge	r17,r2,10040f0 <_dtoa_r+0xc48>
 1003d24:	0023883a 	mov	r17,zero
 1003d28:	d9800917 	ldw	r6,36(sp)
 1003d2c:	30019e1e 	bne	r6,zero,10043a8 <_dtoa_r+0xf00>
 1003d30:	00c00044 	movi	r3,1
 1003d34:	d9000a17 	ldw	r4,40(sp)
 1003d38:	20c5883a 	add	r2,r4,r3
 1003d3c:	10c007cc 	andi	r3,r2,31
 1003d40:	1800841e 	bne	r3,zero,1003f54 <_dtoa_r+0xaac>
 1003d44:	00800704 	movi	r2,28
 1003d48:	d9000a17 	ldw	r4,40(sp)
 1003d4c:	d9801117 	ldw	r6,68(sp)
 1003d50:	80a1883a 	add	r16,r16,r2
 1003d54:	2089883a 	add	r4,r4,r2
 1003d58:	308d883a 	add	r6,r6,r2
 1003d5c:	d9000a15 	stw	r4,40(sp)
 1003d60:	d9801115 	stw	r6,68(sp)
 1003d64:	d8801117 	ldw	r2,68(sp)
 1003d68:	0080050e 	bge	zero,r2,1003d80 <_dtoa_r+0x8d8>
 1003d6c:	d9400717 	ldw	r5,28(sp)
 1003d70:	d9001617 	ldw	r4,88(sp)
 1003d74:	100d883a 	mov	r6,r2
 1003d78:	10070280 	call	1007028 <__lshift>
 1003d7c:	d8800715 	stw	r2,28(sp)
 1003d80:	d8c00a17 	ldw	r3,40(sp)
 1003d84:	00c0050e 	bge	zero,r3,1003d9c <_dtoa_r+0x8f4>
 1003d88:	d9001617 	ldw	r4,88(sp)
 1003d8c:	900b883a 	mov	r5,r18
 1003d90:	180d883a 	mov	r6,r3
 1003d94:	10070280 	call	1007028 <__lshift>
 1003d98:	1025883a 	mov	r18,r2
 1003d9c:	d9000c17 	ldw	r4,48(sp)
 1003da0:	2005003a 	cmpeq	r2,r4,zero
 1003da4:	10016f26 	beq	r2,zero,1004364 <_dtoa_r+0xebc>
 1003da8:	d9000f17 	ldw	r4,60(sp)
 1003dac:	0102170e 	bge	zero,r4,100460c <_dtoa_r+0x1164>
 1003db0:	d9800b17 	ldw	r6,44(sp)
 1003db4:	3005003a 	cmpeq	r2,r6,zero
 1003db8:	1000881e 	bne	r2,zero,1003fdc <_dtoa_r+0xb34>
 1003dbc:	0400050e 	bge	zero,r16,1003dd4 <_dtoa_r+0x92c>
 1003dc0:	d9001617 	ldw	r4,88(sp)
 1003dc4:	980b883a 	mov	r5,r19
 1003dc8:	800d883a 	mov	r6,r16
 1003dcc:	10070280 	call	1007028 <__lshift>
 1003dd0:	1027883a 	mov	r19,r2
 1003dd4:	8804c03a 	cmpne	r2,r17,zero
 1003dd8:	1002541e 	bne	r2,zero,100472c <_dtoa_r+0x1284>
 1003ddc:	980b883a 	mov	r5,r19
 1003de0:	dd800517 	ldw	r22,20(sp)
 1003de4:	dcc00615 	stw	r19,24(sp)
 1003de8:	a700004c 	andi	fp,r20,1
 1003dec:	2827883a 	mov	r19,r5
 1003df0:	d9000717 	ldw	r4,28(sp)
 1003df4:	900b883a 	mov	r5,r18
 1003df8:	10032640 	call	1003264 <quorem>
 1003dfc:	d9000717 	ldw	r4,28(sp)
 1003e00:	d9400617 	ldw	r5,24(sp)
 1003e04:	1023883a 	mov	r17,r2
 1003e08:	8dc00c04 	addi	r23,r17,48
 1003e0c:	10068400 	call	1006840 <__mcmp>
 1003e10:	d9001617 	ldw	r4,88(sp)
 1003e14:	900b883a 	mov	r5,r18
 1003e18:	980d883a 	mov	r6,r19
 1003e1c:	1029883a 	mov	r20,r2
 1003e20:	1006e9c0 	call	1006e9c <__mdiff>
 1003e24:	102b883a 	mov	r21,r2
 1003e28:	10800317 	ldw	r2,12(r2)
 1003e2c:	1001281e 	bne	r2,zero,10042d0 <_dtoa_r+0xe28>
 1003e30:	d9000717 	ldw	r4,28(sp)
 1003e34:	a80b883a 	mov	r5,r21
 1003e38:	10068400 	call	1006840 <__mcmp>
 1003e3c:	d9001617 	ldw	r4,88(sp)
 1003e40:	1021883a 	mov	r16,r2
 1003e44:	a80b883a 	mov	r5,r21
 1003e48:	10066e40 	call	10066e4 <_Bfree>
 1003e4c:	8000041e 	bne	r16,zero,1003e60 <_dtoa_r+0x9b8>
 1003e50:	d8801717 	ldw	r2,92(sp)
 1003e54:	1000021e 	bne	r2,zero,1003e60 <_dtoa_r+0x9b8>
 1003e58:	e004c03a 	cmpne	r2,fp,zero
 1003e5c:	10011726 	beq	r2,zero,10042bc <_dtoa_r+0xe14>
 1003e60:	a0010616 	blt	r20,zero,100427c <_dtoa_r+0xdd4>
 1003e64:	a000041e 	bne	r20,zero,1003e78 <_dtoa_r+0x9d0>
 1003e68:	d8c01717 	ldw	r3,92(sp)
 1003e6c:	1800021e 	bne	r3,zero,1003e78 <_dtoa_r+0x9d0>
 1003e70:	e004c03a 	cmpne	r2,fp,zero
 1003e74:	10010126 	beq	r2,zero,100427c <_dtoa_r+0xdd4>
 1003e78:	04023d16 	blt	zero,r16,1004770 <_dtoa_r+0x12c8>
 1003e7c:	b5c00005 	stb	r23,0(r22)
 1003e80:	d9800517 	ldw	r6,20(sp)
 1003e84:	d9000f17 	ldw	r4,60(sp)
 1003e88:	b5800044 	addi	r22,r22,1
 1003e8c:	3105883a 	add	r2,r6,r4
 1003e90:	b0806526 	beq	r22,r2,1004028 <_dtoa_r+0xb80>
 1003e94:	d9400717 	ldw	r5,28(sp)
 1003e98:	d9001617 	ldw	r4,88(sp)
 1003e9c:	01800284 	movi	r6,10
 1003ea0:	000f883a 	mov	r7,zero
 1003ea4:	10074040 	call	1007404 <__multadd>
 1003ea8:	d8800715 	stw	r2,28(sp)
 1003eac:	d8800617 	ldw	r2,24(sp)
 1003eb0:	14c10c26 	beq	r2,r19,10042e4 <_dtoa_r+0xe3c>
 1003eb4:	d9400617 	ldw	r5,24(sp)
 1003eb8:	d9001617 	ldw	r4,88(sp)
 1003ebc:	01800284 	movi	r6,10
 1003ec0:	000f883a 	mov	r7,zero
 1003ec4:	10074040 	call	1007404 <__multadd>
 1003ec8:	d9001617 	ldw	r4,88(sp)
 1003ecc:	980b883a 	mov	r5,r19
 1003ed0:	01800284 	movi	r6,10
 1003ed4:	000f883a 	mov	r7,zero
 1003ed8:	d8800615 	stw	r2,24(sp)
 1003edc:	10074040 	call	1007404 <__multadd>
 1003ee0:	1027883a 	mov	r19,r2
 1003ee4:	003fc206 	br	1003df0 <_dtoa_r+0x948>
 1003ee8:	2445c83a 	sub	r2,r4,r17
 1003eec:	a088983a 	sll	r4,r20,r2
 1003ef0:	003e4b06 	br	1003820 <_dtoa_r+0x378>
 1003ef4:	01bfffc4 	movi	r6,-1
 1003ef8:	00800044 	movi	r2,1
 1003efc:	d9800e15 	stw	r6,56(sp)
 1003f00:	d9800f15 	stw	r6,60(sp)
 1003f04:	d8800b15 	stw	r2,44(sp)
 1003f08:	d8c01617 	ldw	r3,88(sp)
 1003f0c:	008005c4 	movi	r2,23
 1003f10:	18001115 	stw	zero,68(r3)
 1003f14:	1580082e 	bgeu	r2,r22,1003f38 <_dtoa_r+0xa90>
 1003f18:	00c00104 	movi	r3,4
 1003f1c:	0009883a 	mov	r4,zero
 1003f20:	18c7883a 	add	r3,r3,r3
 1003f24:	18800504 	addi	r2,r3,20
 1003f28:	21000044 	addi	r4,r4,1
 1003f2c:	b0bffc2e 	bgeu	r22,r2,1003f20 <_dtoa_r+0xa78>
 1003f30:	d9801617 	ldw	r6,88(sp)
 1003f34:	31001115 	stw	r4,68(r6)
 1003f38:	dc000f17 	ldw	r16,60(sp)
 1003f3c:	003e4b06 	br	100386c <_dtoa_r+0x3c4>
 1003f40:	d9801717 	ldw	r6,92(sp)
 1003f44:	0023883a 	mov	r17,zero
 1003f48:	31bfff04 	addi	r6,r6,-4
 1003f4c:	d9801715 	stw	r6,92(sp)
 1003f50:	003df806 	br	1003734 <_dtoa_r+0x28c>
 1003f54:	00800804 	movi	r2,32
 1003f58:	10c9c83a 	sub	r4,r2,r3
 1003f5c:	00c00104 	movi	r3,4
 1003f60:	19005a16 	blt	r3,r4,10040cc <_dtoa_r+0xc24>
 1003f64:	008000c4 	movi	r2,3
 1003f68:	113f7e16 	blt	r2,r4,1003d64 <_dtoa_r+0x8bc>
 1003f6c:	20800704 	addi	r2,r4,28
 1003f70:	003f7506 	br	1003d48 <_dtoa_r+0x8a0>
 1003f74:	d9801717 	ldw	r6,92(sp)
 1003f78:	00800044 	movi	r2,1
 1003f7c:	1180a10e 	bge	r2,r6,1004204 <_dtoa_r+0xd5c>
 1003f80:	d9800f17 	ldw	r6,60(sp)
 1003f84:	d8c01017 	ldw	r3,64(sp)
 1003f88:	30bfffc4 	addi	r2,r6,-1
 1003f8c:	1881c616 	blt	r3,r2,10046a8 <_dtoa_r+0x1200>
 1003f90:	18a5c83a 	sub	r18,r3,r2
 1003f94:	d8800f17 	ldw	r2,60(sp)
 1003f98:	10026216 	blt	r2,zero,1004924 <_dtoa_r+0x147c>
 1003f9c:	dc001117 	ldw	r16,68(sp)
 1003fa0:	1007883a 	mov	r3,r2
 1003fa4:	d9800a17 	ldw	r6,40(sp)
 1003fa8:	d8801117 	ldw	r2,68(sp)
 1003fac:	d9001617 	ldw	r4,88(sp)
 1003fb0:	30cd883a 	add	r6,r6,r3
 1003fb4:	10c5883a 	add	r2,r2,r3
 1003fb8:	01400044 	movi	r5,1
 1003fbc:	d9800a15 	stw	r6,40(sp)
 1003fc0:	d8801115 	stw	r2,68(sp)
 1003fc4:	10073c80 	call	10073c8 <__i2b>
 1003fc8:	1027883a 	mov	r19,r2
 1003fcc:	003f2506 	br	1003c64 <_dtoa_r+0x7bc>
 1003fd0:	00c04074 	movhi	r3,257
 1003fd4:	18f70b04 	addi	r3,r3,-9172
 1003fd8:	003d6706 	br	1003578 <_dtoa_r+0xd0>
 1003fdc:	dd800517 	ldw	r22,20(sp)
 1003fe0:	04000044 	movi	r16,1
 1003fe4:	00000706 	br	1004004 <_dtoa_r+0xb5c>
 1003fe8:	d9400717 	ldw	r5,28(sp)
 1003fec:	d9001617 	ldw	r4,88(sp)
 1003ff0:	01800284 	movi	r6,10
 1003ff4:	000f883a 	mov	r7,zero
 1003ff8:	10074040 	call	1007404 <__multadd>
 1003ffc:	d8800715 	stw	r2,28(sp)
 1004000:	84000044 	addi	r16,r16,1
 1004004:	d9000717 	ldw	r4,28(sp)
 1004008:	900b883a 	mov	r5,r18
 100400c:	10032640 	call	1003264 <quorem>
 1004010:	15c00c04 	addi	r23,r2,48
 1004014:	b5c00005 	stb	r23,0(r22)
 1004018:	d8c00f17 	ldw	r3,60(sp)
 100401c:	b5800044 	addi	r22,r22,1
 1004020:	80fff116 	blt	r16,r3,1003fe8 <_dtoa_r+0xb40>
 1004024:	d8000615 	stw	zero,24(sp)
 1004028:	d9400717 	ldw	r5,28(sp)
 100402c:	d9001617 	ldw	r4,88(sp)
 1004030:	01800044 	movi	r6,1
 1004034:	10070280 	call	1007028 <__lshift>
 1004038:	1009883a 	mov	r4,r2
 100403c:	900b883a 	mov	r5,r18
 1004040:	d8800715 	stw	r2,28(sp)
 1004044:	10068400 	call	1006840 <__mcmp>
 1004048:	00803c0e 	bge	zero,r2,100413c <_dtoa_r+0xc94>
 100404c:	b009883a 	mov	r4,r22
 1004050:	213fffc4 	addi	r4,r4,-1
 1004054:	21400003 	ldbu	r5,0(r4)
 1004058:	00800e44 	movi	r2,57
 100405c:	28c03fcc 	andi	r3,r5,255
 1004060:	18c0201c 	xori	r3,r3,128
 1004064:	18ffe004 	addi	r3,r3,-128
 1004068:	1881981e 	bne	r3,r2,10046cc <_dtoa_r+0x1224>
 100406c:	d9800517 	ldw	r6,20(sp)
 1004070:	21bff71e 	bne	r4,r6,1004050 <_dtoa_r+0xba8>
 1004074:	d8800d17 	ldw	r2,52(sp)
 1004078:	37000044 	addi	fp,r6,1
 100407c:	10800044 	addi	r2,r2,1
 1004080:	d8800d15 	stw	r2,52(sp)
 1004084:	00800c44 	movi	r2,49
 1004088:	30800005 	stb	r2,0(r6)
 100408c:	d9001617 	ldw	r4,88(sp)
 1004090:	900b883a 	mov	r5,r18
 1004094:	10066e40 	call	10066e4 <_Bfree>
 1004098:	983ecd26 	beq	r19,zero,1003bd0 <_dtoa_r+0x728>
 100409c:	d8c00617 	ldw	r3,24(sp)
 10040a0:	18000426 	beq	r3,zero,10040b4 <_dtoa_r+0xc0c>
 10040a4:	1cc00326 	beq	r3,r19,10040b4 <_dtoa_r+0xc0c>
 10040a8:	d9001617 	ldw	r4,88(sp)
 10040ac:	180b883a 	mov	r5,r3
 10040b0:	10066e40 	call	10066e4 <_Bfree>
 10040b4:	d9001617 	ldw	r4,88(sp)
 10040b8:	980b883a 	mov	r5,r19
 10040bc:	10066e40 	call	10066e4 <_Bfree>
 10040c0:	003ec306 	br	1003bd0 <_dtoa_r+0x728>
 10040c4:	1805883a 	mov	r2,r3
 10040c8:	003eeb06 	br	1003c78 <_dtoa_r+0x7d0>
 10040cc:	d9800a17 	ldw	r6,40(sp)
 10040d0:	d8c01117 	ldw	r3,68(sp)
 10040d4:	20bfff04 	addi	r2,r4,-4
 10040d8:	308d883a 	add	r6,r6,r2
 10040dc:	1887883a 	add	r3,r3,r2
 10040e0:	80a1883a 	add	r16,r16,r2
 10040e4:	d9800a15 	stw	r6,40(sp)
 10040e8:	d8c01115 	stw	r3,68(sp)
 10040ec:	003f1d06 	br	1003d64 <_dtoa_r+0x8bc>
 10040f0:	a03f0c1e 	bne	r20,zero,1003d24 <_dtoa_r+0x87c>
 10040f4:	00800434 	movhi	r2,16
 10040f8:	10bfffc4 	addi	r2,r2,-1
 10040fc:	a884703a 	and	r2,r21,r2
 1004100:	103f081e 	bne	r2,zero,1003d24 <_dtoa_r+0x87c>
 1004104:	a89ffc2c 	andhi	r2,r21,32752
 1004108:	103f0626 	beq	r2,zero,1003d24 <_dtoa_r+0x87c>
 100410c:	d8c01117 	ldw	r3,68(sp)
 1004110:	d9000a17 	ldw	r4,40(sp)
 1004114:	18c00044 	addi	r3,r3,1
 1004118:	21000044 	addi	r4,r4,1
 100411c:	d8c01115 	stw	r3,68(sp)
 1004120:	d9000a15 	stw	r4,40(sp)
 1004124:	003f0006 	br	1003d28 <_dtoa_r+0x880>
 1004128:	d9400717 	ldw	r5,28(sp)
 100412c:	d9001617 	ldw	r4,88(sp)
 1004130:	10075300 	call	1007530 <__pow5mult>
 1004134:	d8800715 	stw	r2,28(sp)
 1004138:	003eed06 	br	1003cf0 <_dtoa_r+0x848>
 100413c:	1000021e 	bne	r2,zero,1004148 <_dtoa_r+0xca0>
 1004140:	b880004c 	andi	r2,r23,1
 1004144:	103fc11e 	bne	r2,zero,100404c <_dtoa_r+0xba4>
 1004148:	b5bfffc4 	addi	r22,r22,-1
 100414c:	b0c00007 	ldb	r3,0(r22)
 1004150:	00800c04 	movi	r2,48
 1004154:	18bffc26 	beq	r3,r2,1004148 <_dtoa_r+0xca0>
 1004158:	b7000044 	addi	fp,r22,1
 100415c:	003fcb06 	br	100408c <_dtoa_r+0xbe4>
 1004160:	d9800d17 	ldw	r6,52(sp)
 1004164:	018fc83a 	sub	r7,zero,r6
 1004168:	3801f726 	beq	r7,zero,1004948 <_dtoa_r+0x14a0>
 100416c:	398003cc 	andi	r6,r7,15
 1004170:	300c90fa 	slli	r6,r6,3
 1004174:	01404074 	movhi	r5,257
 1004178:	29772904 	addi	r5,r5,-9052
 100417c:	d9001217 	ldw	r4,72(sp)
 1004180:	314d883a 	add	r6,r6,r5
 1004184:	30c00117 	ldw	r3,4(r6)
 1004188:	30800017 	ldw	r2,0(r6)
 100418c:	d9401317 	ldw	r5,76(sp)
 1004190:	3821d13a 	srai	r16,r7,4
 1004194:	100d883a 	mov	r6,r2
 1004198:	180f883a 	mov	r7,r3
 100419c:	100985c0 	call	100985c <__muldf3>
 10041a0:	1011883a 	mov	r8,r2
 10041a4:	1813883a 	mov	r9,r3
 10041a8:	1029883a 	mov	r20,r2
 10041ac:	182b883a 	mov	r21,r3
 10041b0:	8001e526 	beq	r16,zero,1004948 <_dtoa_r+0x14a0>
 10041b4:	05800084 	movi	r22,2
 10041b8:	04404074 	movhi	r17,257
 10041bc:	8c775b04 	addi	r17,r17,-8852
 10041c0:	8080004c 	andi	r2,r16,1
 10041c4:	1005003a 	cmpeq	r2,r2,zero
 10041c8:	1000081e 	bne	r2,zero,10041ec <_dtoa_r+0xd44>
 10041cc:	89800017 	ldw	r6,0(r17)
 10041d0:	89c00117 	ldw	r7,4(r17)
 10041d4:	480b883a 	mov	r5,r9
 10041d8:	4009883a 	mov	r4,r8
 10041dc:	100985c0 	call	100985c <__muldf3>
 10041e0:	1011883a 	mov	r8,r2
 10041e4:	b5800044 	addi	r22,r22,1
 10041e8:	1813883a 	mov	r9,r3
 10041ec:	8021d07a 	srai	r16,r16,1
 10041f0:	8c400204 	addi	r17,r17,8
 10041f4:	803ff21e 	bne	r16,zero,10041c0 <_dtoa_r+0xd18>
 10041f8:	4029883a 	mov	r20,r8
 10041fc:	482b883a 	mov	r21,r9
 1004200:	003dca06 	br	100392c <_dtoa_r+0x484>
 1004204:	d9000817 	ldw	r4,32(sp)
 1004208:	2005003a 	cmpeq	r2,r4,zero
 100420c:	1001f61e 	bne	r2,zero,10049e8 <_dtoa_r+0x1540>
 1004210:	dc001117 	ldw	r16,68(sp)
 1004214:	dc801017 	ldw	r18,64(sp)
 1004218:	18c10cc4 	addi	r3,r3,1075
 100421c:	003f6106 	br	1003fa4 <_dtoa_r+0xafc>
 1004220:	d8000b15 	stw	zero,44(sp)
 1004224:	d9802617 	ldw	r6,152(sp)
 1004228:	d8c00d17 	ldw	r3,52(sp)
 100422c:	30800044 	addi	r2,r6,1
 1004230:	18ad883a 	add	r22,r3,r2
 1004234:	b13fffc4 	addi	r4,r22,-1
 1004238:	d9000e15 	stw	r4,56(sp)
 100423c:	0581f60e 	bge	zero,r22,1004a18 <_dtoa_r+0x1570>
 1004240:	dd800f15 	stw	r22,60(sp)
 1004244:	003f3006 	br	1003f08 <_dtoa_r+0xa60>
 1004248:	d8000b15 	stw	zero,44(sp)
 100424c:	d9002617 	ldw	r4,152(sp)
 1004250:	0101eb0e 	bge	zero,r4,1004a00 <_dtoa_r+0x1558>
 1004254:	202d883a 	mov	r22,r4
 1004258:	d9000e15 	stw	r4,56(sp)
 100425c:	d9000f15 	stw	r4,60(sp)
 1004260:	003f2906 	br	1003f08 <_dtoa_r+0xa60>
 1004264:	01800044 	movi	r6,1
 1004268:	d9800b15 	stw	r6,44(sp)
 100426c:	003ff706 	br	100424c <_dtoa_r+0xda4>
 1004270:	01000044 	movi	r4,1
 1004274:	d9000b15 	stw	r4,44(sp)
 1004278:	003fea06 	br	1004224 <_dtoa_r+0xd7c>
 100427c:	04000c0e 	bge	zero,r16,10042b0 <_dtoa_r+0xe08>
 1004280:	d9400717 	ldw	r5,28(sp)
 1004284:	d9001617 	ldw	r4,88(sp)
 1004288:	01800044 	movi	r6,1
 100428c:	10070280 	call	1007028 <__lshift>
 1004290:	1009883a 	mov	r4,r2
 1004294:	900b883a 	mov	r5,r18
 1004298:	d8800715 	stw	r2,28(sp)
 100429c:	10068400 	call	1006840 <__mcmp>
 10042a0:	0081e00e 	bge	zero,r2,1004a24 <_dtoa_r+0x157c>
 10042a4:	bdc00044 	addi	r23,r23,1
 10042a8:	00800e84 	movi	r2,58
 10042ac:	b881a226 	beq	r23,r2,1004938 <_dtoa_r+0x1490>
 10042b0:	b7000044 	addi	fp,r22,1
 10042b4:	b5c00005 	stb	r23,0(r22)
 10042b8:	003f7406 	br	100408c <_dtoa_r+0xbe4>
 10042bc:	00800e44 	movi	r2,57
 10042c0:	b8819d26 	beq	r23,r2,1004938 <_dtoa_r+0x1490>
 10042c4:	053ffa0e 	bge	zero,r20,10042b0 <_dtoa_r+0xe08>
 10042c8:	8dc00c44 	addi	r23,r17,49
 10042cc:	003ff806 	br	10042b0 <_dtoa_r+0xe08>
 10042d0:	d9001617 	ldw	r4,88(sp)
 10042d4:	a80b883a 	mov	r5,r21
 10042d8:	04000044 	movi	r16,1
 10042dc:	10066e40 	call	10066e4 <_Bfree>
 10042e0:	003edf06 	br	1003e60 <_dtoa_r+0x9b8>
 10042e4:	d9001617 	ldw	r4,88(sp)
 10042e8:	980b883a 	mov	r5,r19
 10042ec:	01800284 	movi	r6,10
 10042f0:	000f883a 	mov	r7,zero
 10042f4:	10074040 	call	1007404 <__multadd>
 10042f8:	1027883a 	mov	r19,r2
 10042fc:	d8800615 	stw	r2,24(sp)
 1004300:	003ebb06 	br	1003df0 <_dtoa_r+0x948>
 1004304:	d9801117 	ldw	r6,68(sp)
 1004308:	d8800d17 	ldw	r2,52(sp)
 100430c:	d8000915 	stw	zero,36(sp)
 1004310:	308dc83a 	sub	r6,r6,r2
 1004314:	0087c83a 	sub	r3,zero,r2
 1004318:	d9801115 	stw	r6,68(sp)
 100431c:	d8c01015 	stw	r3,64(sp)
 1004320:	003cfe06 	br	100371c <_dtoa_r+0x274>
 1004324:	018dc83a 	sub	r6,zero,r6
 1004328:	d9801115 	stw	r6,68(sp)
 100432c:	d8000a15 	stw	zero,40(sp)
 1004330:	003cf306 	br	1003700 <_dtoa_r+0x258>
 1004334:	d9000d17 	ldw	r4,52(sp)
 1004338:	100a1200 	call	100a120 <__floatsidf>
 100433c:	880b883a 	mov	r5,r17
 1004340:	8009883a 	mov	r4,r16
 1004344:	180f883a 	mov	r7,r3
 1004348:	100d883a 	mov	r6,r2
 100434c:	1009f000 	call	1009f00 <__nedf2>
 1004350:	103ce126 	beq	r2,zero,10036d8 <_dtoa_r+0x230>
 1004354:	d9800d17 	ldw	r6,52(sp)
 1004358:	31bfffc4 	addi	r6,r6,-1
 100435c:	d9800d15 	stw	r6,52(sp)
 1004360:	003cdd06 	br	10036d8 <_dtoa_r+0x230>
 1004364:	d9000717 	ldw	r4,28(sp)
 1004368:	900b883a 	mov	r5,r18
 100436c:	10068400 	call	1006840 <__mcmp>
 1004370:	103e8d0e 	bge	r2,zero,1003da8 <_dtoa_r+0x900>
 1004374:	d9400717 	ldw	r5,28(sp)
 1004378:	d9001617 	ldw	r4,88(sp)
 100437c:	01800284 	movi	r6,10
 1004380:	000f883a 	mov	r7,zero
 1004384:	10074040 	call	1007404 <__multadd>
 1004388:	d9800d17 	ldw	r6,52(sp)
 100438c:	d8800715 	stw	r2,28(sp)
 1004390:	31bfffc4 	addi	r6,r6,-1
 1004394:	d9800d15 	stw	r6,52(sp)
 1004398:	b001a71e 	bne	r22,zero,1004a38 <_dtoa_r+0x1590>
 100439c:	d8800e17 	ldw	r2,56(sp)
 10043a0:	d8800f15 	stw	r2,60(sp)
 10043a4:	003e8006 	br	1003da8 <_dtoa_r+0x900>
 10043a8:	90800417 	ldw	r2,16(r18)
 10043ac:	1085883a 	add	r2,r2,r2
 10043b0:	1085883a 	add	r2,r2,r2
 10043b4:	1485883a 	add	r2,r2,r18
 10043b8:	11000417 	ldw	r4,16(r2)
 10043bc:	100670c0 	call	100670c <__hi0bits>
 10043c0:	00c00804 	movi	r3,32
 10043c4:	1887c83a 	sub	r3,r3,r2
 10043c8:	003e5a06 	br	1003d34 <_dtoa_r+0x88c>
 10043cc:	d9400717 	ldw	r5,28(sp)
 10043d0:	d9801017 	ldw	r6,64(sp)
 10043d4:	d9001617 	ldw	r4,88(sp)
 10043d8:	10075300 	call	1007530 <__pow5mult>
 10043dc:	d8800715 	stw	r2,28(sp)
 10043e0:	003e4306 	br	1003cf0 <_dtoa_r+0x848>
 10043e4:	d9800f17 	ldw	r6,60(sp)
 10043e8:	d8800d17 	ldw	r2,52(sp)
 10043ec:	d9800315 	stw	r6,12(sp)
 10043f0:	d8800415 	stw	r2,16(sp)
 10043f4:	d8c00b17 	ldw	r3,44(sp)
 10043f8:	1805003a 	cmpeq	r2,r3,zero
 10043fc:	1000e21e 	bne	r2,zero,1004788 <_dtoa_r+0x12e0>
 1004400:	d9000317 	ldw	r4,12(sp)
 1004404:	0005883a 	mov	r2,zero
 1004408:	00cff834 	movhi	r3,16352
 100440c:	200c90fa 	slli	r6,r4,3
 1004410:	01004074 	movhi	r4,257
 1004414:	21372904 	addi	r4,r4,-9052
 1004418:	180b883a 	mov	r5,r3
 100441c:	310d883a 	add	r6,r6,r4
 1004420:	327fff17 	ldw	r9,-4(r6)
 1004424:	323ffe17 	ldw	r8,-8(r6)
 1004428:	1009883a 	mov	r4,r2
 100442c:	480f883a 	mov	r7,r9
 1004430:	400d883a 	mov	r6,r8
 1004434:	1009c200 	call	1009c20 <__divdf3>
 1004438:	180b883a 	mov	r5,r3
 100443c:	b00d883a 	mov	r6,r22
 1004440:	b80f883a 	mov	r7,r23
 1004444:	1009883a 	mov	r4,r2
 1004448:	10097680 	call	1009768 <__subdf3>
 100444c:	a80b883a 	mov	r5,r21
 1004450:	a009883a 	mov	r4,r20
 1004454:	d8c01915 	stw	r3,100(sp)
 1004458:	d8801815 	stw	r2,96(sp)
 100445c:	100a2180 	call	100a218 <__fixdfsi>
 1004460:	1009883a 	mov	r4,r2
 1004464:	1027883a 	mov	r19,r2
 1004468:	100a1200 	call	100a120 <__floatsidf>
 100446c:	a80b883a 	mov	r5,r21
 1004470:	a009883a 	mov	r4,r20
 1004474:	180f883a 	mov	r7,r3
 1004478:	100d883a 	mov	r6,r2
 100447c:	10097680 	call	1009768 <__subdf3>
 1004480:	d9801817 	ldw	r6,96(sp)
 1004484:	1823883a 	mov	r17,r3
 1004488:	d8801415 	stw	r2,80(sp)
 100448c:	302d883a 	mov	r22,r6
 1004490:	d9800517 	ldw	r6,20(sp)
 1004494:	9cc00c04 	addi	r19,r19,48
 1004498:	dc401515 	stw	r17,84(sp)
 100449c:	d8c01917 	ldw	r3,100(sp)
 10044a0:	34c00005 	stb	r19,0(r6)
 10044a4:	d8800517 	ldw	r2,20(sp)
 10044a8:	d9401917 	ldw	r5,100(sp)
 10044ac:	d9801417 	ldw	r6,80(sp)
 10044b0:	b009883a 	mov	r4,r22
 10044b4:	880f883a 	mov	r7,r17
 10044b8:	182f883a 	mov	r23,r3
 10044bc:	17000044 	addi	fp,r2,1
 10044c0:	1009f880 	call	1009f88 <__gtdf2>
 10044c4:	00804e16 	blt	zero,r2,1004600 <_dtoa_r+0x1158>
 10044c8:	d9801417 	ldw	r6,80(sp)
 10044cc:	0005883a 	mov	r2,zero
 10044d0:	00cffc34 	movhi	r3,16368
 10044d4:	180b883a 	mov	r5,r3
 10044d8:	880f883a 	mov	r7,r17
 10044dc:	1009883a 	mov	r4,r2
 10044e0:	10097680 	call	1009768 <__subdf3>
 10044e4:	d9401917 	ldw	r5,100(sp)
 10044e8:	180f883a 	mov	r7,r3
 10044ec:	b009883a 	mov	r4,r22
 10044f0:	100d883a 	mov	r6,r2
 10044f4:	1009f880 	call	1009f88 <__gtdf2>
 10044f8:	00bda216 	blt	zero,r2,1003b84 <_dtoa_r+0x6dc>
 10044fc:	d8c00317 	ldw	r3,12(sp)
 1004500:	00800044 	movi	r2,1
 1004504:	10c01216 	blt	r2,r3,1004550 <_dtoa_r+0x10a8>
 1004508:	003d4506 	br	1003a20 <_dtoa_r+0x578>
 100450c:	d9801417 	ldw	r6,80(sp)
 1004510:	0005883a 	mov	r2,zero
 1004514:	00cffc34 	movhi	r3,16368
 1004518:	180b883a 	mov	r5,r3
 100451c:	880f883a 	mov	r7,r17
 1004520:	1009883a 	mov	r4,r2
 1004524:	10097680 	call	1009768 <__subdf3>
 1004528:	d9c01b17 	ldw	r7,108(sp)
 100452c:	180b883a 	mov	r5,r3
 1004530:	1009883a 	mov	r4,r2
 1004534:	b00d883a 	mov	r6,r22
 1004538:	100a0980 	call	100a098 <__ltdf2>
 100453c:	103d9116 	blt	r2,zero,1003b84 <_dtoa_r+0x6dc>
 1004540:	d9800517 	ldw	r6,20(sp)
 1004544:	d9000317 	ldw	r4,12(sp)
 1004548:	3105883a 	add	r2,r6,r4
 100454c:	e0bd3426 	beq	fp,r2,1003a20 <_dtoa_r+0x578>
 1004550:	04500934 	movhi	r17,16420
 1004554:	0021883a 	mov	r16,zero
 1004558:	b80b883a 	mov	r5,r23
 100455c:	b009883a 	mov	r4,r22
 1004560:	800d883a 	mov	r6,r16
 1004564:	880f883a 	mov	r7,r17
 1004568:	100985c0 	call	100985c <__muldf3>
 100456c:	d9401517 	ldw	r5,84(sp)
 1004570:	d9001417 	ldw	r4,80(sp)
 1004574:	880f883a 	mov	r7,r17
 1004578:	000d883a 	mov	r6,zero
 100457c:	d8801a15 	stw	r2,104(sp)
 1004580:	d8c01b15 	stw	r3,108(sp)
 1004584:	100985c0 	call	100985c <__muldf3>
 1004588:	180b883a 	mov	r5,r3
 100458c:	1009883a 	mov	r4,r2
 1004590:	1823883a 	mov	r17,r3
 1004594:	1021883a 	mov	r16,r2
 1004598:	100a2180 	call	100a218 <__fixdfsi>
 100459c:	1009883a 	mov	r4,r2
 10045a0:	102b883a 	mov	r21,r2
 10045a4:	100a1200 	call	100a120 <__floatsidf>
 10045a8:	880b883a 	mov	r5,r17
 10045ac:	8009883a 	mov	r4,r16
 10045b0:	180f883a 	mov	r7,r3
 10045b4:	100d883a 	mov	r6,r2
 10045b8:	10097680 	call	1009768 <__subdf3>
 10045bc:	1021883a 	mov	r16,r2
 10045c0:	d9001b17 	ldw	r4,108(sp)
 10045c4:	1823883a 	mov	r17,r3
 10045c8:	dc001415 	stw	r16,80(sp)
 10045cc:	ad400c04 	addi	r21,r21,48
 10045d0:	dc401515 	stw	r17,84(sp)
 10045d4:	d8801a17 	ldw	r2,104(sp)
 10045d8:	e5400005 	stb	r21,0(fp)
 10045dc:	202f883a 	mov	r23,r4
 10045e0:	d9c01b17 	ldw	r7,108(sp)
 10045e4:	d9001417 	ldw	r4,80(sp)
 10045e8:	880b883a 	mov	r5,r17
 10045ec:	100d883a 	mov	r6,r2
 10045f0:	102d883a 	mov	r22,r2
 10045f4:	e7000044 	addi	fp,fp,1
 10045f8:	100a0980 	call	100a098 <__ltdf2>
 10045fc:	103fc30e 	bge	r2,zero,100450c <_dtoa_r+0x1064>
 1004600:	d9000417 	ldw	r4,16(sp)
 1004604:	d9000d15 	stw	r4,52(sp)
 1004608:	003d7106 	br	1003bd0 <_dtoa_r+0x728>
 100460c:	d9801717 	ldw	r6,92(sp)
 1004610:	00800084 	movi	r2,2
 1004614:	11bde60e 	bge	r2,r6,1003db0 <_dtoa_r+0x908>
 1004618:	203cfb1e 	bne	r4,zero,1003a08 <_dtoa_r+0x560>
 100461c:	d9001617 	ldw	r4,88(sp)
 1004620:	900b883a 	mov	r5,r18
 1004624:	01800144 	movi	r6,5
 1004628:	000f883a 	mov	r7,zero
 100462c:	10074040 	call	1007404 <__multadd>
 1004630:	d9000717 	ldw	r4,28(sp)
 1004634:	100b883a 	mov	r5,r2
 1004638:	1025883a 	mov	r18,r2
 100463c:	10068400 	call	1006840 <__mcmp>
 1004640:	00bcf10e 	bge	zero,r2,1003a08 <_dtoa_r+0x560>
 1004644:	d8c00d17 	ldw	r3,52(sp)
 1004648:	d9000517 	ldw	r4,20(sp)
 100464c:	d8000615 	stw	zero,24(sp)
 1004650:	18c00044 	addi	r3,r3,1
 1004654:	d8c00d15 	stw	r3,52(sp)
 1004658:	00800c44 	movi	r2,49
 100465c:	27000044 	addi	fp,r4,1
 1004660:	20800005 	stb	r2,0(r4)
 1004664:	003e8906 	br	100408c <_dtoa_r+0xbe4>
 1004668:	d8c00517 	ldw	r3,20(sp)
 100466c:	003bc206 	br	1003578 <_dtoa_r+0xd0>
 1004670:	01804074 	movhi	r6,257
 1004674:	31b75b04 	addi	r6,r6,-8852
 1004678:	30c00917 	ldw	r3,36(r6)
 100467c:	30800817 	ldw	r2,32(r6)
 1004680:	d9001217 	ldw	r4,72(sp)
 1004684:	d9401317 	ldw	r5,76(sp)
 1004688:	180f883a 	mov	r7,r3
 100468c:	100d883a 	mov	r6,r2
 1004690:	1009c200 	call	1009c20 <__divdf3>
 1004694:	948003cc 	andi	r18,r18,15
 1004698:	058000c4 	movi	r22,3
 100469c:	1029883a 	mov	r20,r2
 10046a0:	182b883a 	mov	r21,r3
 10046a4:	003c8906 	br	10038cc <_dtoa_r+0x424>
 10046a8:	d9001017 	ldw	r4,64(sp)
 10046ac:	d9800917 	ldw	r6,36(sp)
 10046b0:	0025883a 	mov	r18,zero
 10046b4:	1105c83a 	sub	r2,r2,r4
 10046b8:	2089883a 	add	r4,r4,r2
 10046bc:	308d883a 	add	r6,r6,r2
 10046c0:	d9001015 	stw	r4,64(sp)
 10046c4:	d9800915 	stw	r6,36(sp)
 10046c8:	003e3206 	br	1003f94 <_dtoa_r+0xaec>
 10046cc:	28800044 	addi	r2,r5,1
 10046d0:	27000044 	addi	fp,r4,1
 10046d4:	20800005 	stb	r2,0(r4)
 10046d8:	003e6c06 	br	100408c <_dtoa_r+0xbe4>
 10046dc:	d8800f17 	ldw	r2,60(sp)
 10046e0:	00bce016 	blt	zero,r2,1003a64 <_dtoa_r+0x5bc>
 10046e4:	d9800f17 	ldw	r6,60(sp)
 10046e8:	303cc51e 	bne	r6,zero,1003a00 <_dtoa_r+0x558>
 10046ec:	0005883a 	mov	r2,zero
 10046f0:	00d00534 	movhi	r3,16404
 10046f4:	980b883a 	mov	r5,r19
 10046f8:	180f883a 	mov	r7,r3
 10046fc:	9009883a 	mov	r4,r18
 1004700:	100d883a 	mov	r6,r2
 1004704:	100985c0 	call	100985c <__muldf3>
 1004708:	180b883a 	mov	r5,r3
 100470c:	a80f883a 	mov	r7,r21
 1004710:	1009883a 	mov	r4,r2
 1004714:	a00d883a 	mov	r6,r20
 1004718:	100a0100 	call	100a010 <__gedf2>
 100471c:	103cb80e 	bge	r2,zero,1003a00 <_dtoa_r+0x558>
 1004720:	0027883a 	mov	r19,zero
 1004724:	0025883a 	mov	r18,zero
 1004728:	003fc606 	br	1004644 <_dtoa_r+0x119c>
 100472c:	99400117 	ldw	r5,4(r19)
 1004730:	d9001617 	ldw	r4,88(sp)
 1004734:	1006c640 	call	1006c64 <_Balloc>
 1004738:	99800417 	ldw	r6,16(r19)
 100473c:	11000304 	addi	r4,r2,12
 1004740:	99400304 	addi	r5,r19,12
 1004744:	318d883a 	add	r6,r6,r6
 1004748:	318d883a 	add	r6,r6,r6
 100474c:	31800204 	addi	r6,r6,8
 1004750:	1023883a 	mov	r17,r2
 1004754:	10064cc0 	call	10064cc <memcpy>
 1004758:	d9001617 	ldw	r4,88(sp)
 100475c:	880b883a 	mov	r5,r17
 1004760:	01800044 	movi	r6,1
 1004764:	10070280 	call	1007028 <__lshift>
 1004768:	100b883a 	mov	r5,r2
 100476c:	003d9c06 	br	1003de0 <_dtoa_r+0x938>
 1004770:	00800e44 	movi	r2,57
 1004774:	b8807026 	beq	r23,r2,1004938 <_dtoa_r+0x1490>
 1004778:	b8800044 	addi	r2,r23,1
 100477c:	b7000044 	addi	fp,r22,1
 1004780:	b0800005 	stb	r2,0(r22)
 1004784:	003e4106 	br	100408c <_dtoa_r+0xbe4>
 1004788:	d8800317 	ldw	r2,12(sp)
 100478c:	01804074 	movhi	r6,257
 1004790:	31b72904 	addi	r6,r6,-9052
 1004794:	b009883a 	mov	r4,r22
 1004798:	100e90fa 	slli	r7,r2,3
 100479c:	b80b883a 	mov	r5,r23
 10047a0:	398f883a 	add	r7,r7,r6
 10047a4:	38bffe17 	ldw	r2,-8(r7)
 10047a8:	d9800517 	ldw	r6,20(sp)
 10047ac:	38ffff17 	ldw	r3,-4(r7)
 10047b0:	37000044 	addi	fp,r6,1
 10047b4:	180f883a 	mov	r7,r3
 10047b8:	100d883a 	mov	r6,r2
 10047bc:	100985c0 	call	100985c <__muldf3>
 10047c0:	a80b883a 	mov	r5,r21
 10047c4:	a009883a 	mov	r4,r20
 10047c8:	182f883a 	mov	r23,r3
 10047cc:	102d883a 	mov	r22,r2
 10047d0:	100a2180 	call	100a218 <__fixdfsi>
 10047d4:	1009883a 	mov	r4,r2
 10047d8:	1027883a 	mov	r19,r2
 10047dc:	100a1200 	call	100a120 <__floatsidf>
 10047e0:	a80b883a 	mov	r5,r21
 10047e4:	a009883a 	mov	r4,r20
 10047e8:	180f883a 	mov	r7,r3
 10047ec:	100d883a 	mov	r6,r2
 10047f0:	10097680 	call	1009768 <__subdf3>
 10047f4:	180b883a 	mov	r5,r3
 10047f8:	d8c00517 	ldw	r3,20(sp)
 10047fc:	9cc00c04 	addi	r19,r19,48
 1004800:	1009883a 	mov	r4,r2
 1004804:	1cc00005 	stb	r19,0(r3)
 1004808:	2021883a 	mov	r16,r4
 100480c:	d9000317 	ldw	r4,12(sp)
 1004810:	00800044 	movi	r2,1
 1004814:	2823883a 	mov	r17,r5
 1004818:	20802226 	beq	r4,r2,10048a4 <_dtoa_r+0x13fc>
 100481c:	1029883a 	mov	r20,r2
 1004820:	0005883a 	mov	r2,zero
 1004824:	00d00934 	movhi	r3,16420
 1004828:	180f883a 	mov	r7,r3
 100482c:	100d883a 	mov	r6,r2
 1004830:	880b883a 	mov	r5,r17
 1004834:	8009883a 	mov	r4,r16
 1004838:	100985c0 	call	100985c <__muldf3>
 100483c:	180b883a 	mov	r5,r3
 1004840:	1009883a 	mov	r4,r2
 1004844:	1823883a 	mov	r17,r3
 1004848:	1021883a 	mov	r16,r2
 100484c:	100a2180 	call	100a218 <__fixdfsi>
 1004850:	1009883a 	mov	r4,r2
 1004854:	102b883a 	mov	r21,r2
 1004858:	100a1200 	call	100a120 <__floatsidf>
 100485c:	880b883a 	mov	r5,r17
 1004860:	8009883a 	mov	r4,r16
 1004864:	180f883a 	mov	r7,r3
 1004868:	100d883a 	mov	r6,r2
 100486c:	10097680 	call	1009768 <__subdf3>
 1004870:	180b883a 	mov	r5,r3
 1004874:	d8c00517 	ldw	r3,20(sp)
 1004878:	1009883a 	mov	r4,r2
 100487c:	ad400c04 	addi	r21,r21,48
 1004880:	1d05883a 	add	r2,r3,r20
 1004884:	15400005 	stb	r21,0(r2)
 1004888:	2021883a 	mov	r16,r4
 100488c:	d9000317 	ldw	r4,12(sp)
 1004890:	a5000044 	addi	r20,r20,1
 1004894:	2823883a 	mov	r17,r5
 1004898:	a13fe11e 	bne	r20,r4,1004820 <_dtoa_r+0x1378>
 100489c:	e505883a 	add	r2,fp,r20
 10048a0:	173fffc4 	addi	fp,r2,-1
 10048a4:	0025883a 	mov	r18,zero
 10048a8:	04cff834 	movhi	r19,16352
 10048ac:	b009883a 	mov	r4,r22
 10048b0:	b80b883a 	mov	r5,r23
 10048b4:	900d883a 	mov	r6,r18
 10048b8:	980f883a 	mov	r7,r19
 10048bc:	10097e80 	call	10097e8 <__adddf3>
 10048c0:	180b883a 	mov	r5,r3
 10048c4:	1009883a 	mov	r4,r2
 10048c8:	800d883a 	mov	r6,r16
 10048cc:	880f883a 	mov	r7,r17
 10048d0:	100a0980 	call	100a098 <__ltdf2>
 10048d4:	103cab16 	blt	r2,zero,1003b84 <_dtoa_r+0x6dc>
 10048d8:	0009883a 	mov	r4,zero
 10048dc:	980b883a 	mov	r5,r19
 10048e0:	b80f883a 	mov	r7,r23
 10048e4:	b00d883a 	mov	r6,r22
 10048e8:	10097680 	call	1009768 <__subdf3>
 10048ec:	180b883a 	mov	r5,r3
 10048f0:	880f883a 	mov	r7,r17
 10048f4:	1009883a 	mov	r4,r2
 10048f8:	800d883a 	mov	r6,r16
 10048fc:	1009f880 	call	1009f88 <__gtdf2>
 1004900:	00bc470e 	bge	zero,r2,1003a20 <_dtoa_r+0x578>
 1004904:	00c00c04 	movi	r3,48
 1004908:	e73fffc4 	addi	fp,fp,-1
 100490c:	e0800007 	ldb	r2,0(fp)
 1004910:	10fffd26 	beq	r2,r3,1004908 <_dtoa_r+0x1460>
 1004914:	d9800417 	ldw	r6,16(sp)
 1004918:	e7000044 	addi	fp,fp,1
 100491c:	d9800d15 	stw	r6,52(sp)
 1004920:	003cab06 	br	1003bd0 <_dtoa_r+0x728>
 1004924:	d8c00f17 	ldw	r3,60(sp)
 1004928:	d9001117 	ldw	r4,68(sp)
 100492c:	20e1c83a 	sub	r16,r4,r3
 1004930:	0007883a 	mov	r3,zero
 1004934:	003d9b06 	br	1003fa4 <_dtoa_r+0xafc>
 1004938:	00800e44 	movi	r2,57
 100493c:	b0800005 	stb	r2,0(r22)
 1004940:	b5800044 	addi	r22,r22,1
 1004944:	003dc106 	br	100404c <_dtoa_r+0xba4>
 1004948:	05800084 	movi	r22,2
 100494c:	003bf706 	br	100392c <_dtoa_r+0x484>
 1004950:	d9000f17 	ldw	r4,60(sp)
 1004954:	013c000e 	bge	zero,r4,1003958 <_dtoa_r+0x4b0>
 1004958:	d9800e17 	ldw	r6,56(sp)
 100495c:	01bc300e 	bge	zero,r6,1003a20 <_dtoa_r+0x578>
 1004960:	0005883a 	mov	r2,zero
 1004964:	00d00934 	movhi	r3,16420
 1004968:	a80b883a 	mov	r5,r21
 100496c:	180f883a 	mov	r7,r3
 1004970:	a009883a 	mov	r4,r20
 1004974:	100d883a 	mov	r6,r2
 1004978:	100985c0 	call	100985c <__muldf3>
 100497c:	b1000044 	addi	r4,r22,1
 1004980:	1021883a 	mov	r16,r2
 1004984:	1823883a 	mov	r17,r3
 1004988:	100a1200 	call	100a120 <__floatsidf>
 100498c:	880b883a 	mov	r5,r17
 1004990:	8009883a 	mov	r4,r16
 1004994:	180f883a 	mov	r7,r3
 1004998:	100d883a 	mov	r6,r2
 100499c:	100985c0 	call	100985c <__muldf3>
 10049a0:	0011883a 	mov	r8,zero
 10049a4:	02500734 	movhi	r9,16412
 10049a8:	180b883a 	mov	r5,r3
 10049ac:	480f883a 	mov	r7,r9
 10049b0:	1009883a 	mov	r4,r2
 10049b4:	400d883a 	mov	r6,r8
 10049b8:	10097e80 	call	10097e8 <__adddf3>
 10049bc:	102d883a 	mov	r22,r2
 10049c0:	00bf3034 	movhi	r2,64704
 10049c4:	10ef883a 	add	r23,r2,r3
 10049c8:	d8800d17 	ldw	r2,52(sp)
 10049cc:	d8c00e17 	ldw	r3,56(sp)
 10049d0:	8029883a 	mov	r20,r16
 10049d4:	10bfffc4 	addi	r2,r2,-1
 10049d8:	882b883a 	mov	r21,r17
 10049dc:	d8800415 	stw	r2,16(sp)
 10049e0:	d8c00315 	stw	r3,12(sp)
 10049e4:	003e8306 	br	10043f4 <_dtoa_r+0xf4c>
 10049e8:	d8800117 	ldw	r2,4(sp)
 10049ec:	dc001117 	ldw	r16,68(sp)
 10049f0:	dc801017 	ldw	r18,64(sp)
 10049f4:	00c00d84 	movi	r3,54
 10049f8:	1887c83a 	sub	r3,r3,r2
 10049fc:	003d6906 	br	1003fa4 <_dtoa_r+0xafc>
 1004a00:	01800044 	movi	r6,1
 1004a04:	3021883a 	mov	r16,r6
 1004a08:	d9800f15 	stw	r6,60(sp)
 1004a0c:	d9802615 	stw	r6,152(sp)
 1004a10:	d9800e15 	stw	r6,56(sp)
 1004a14:	003b9306 	br	1003864 <_dtoa_r+0x3bc>
 1004a18:	b021883a 	mov	r16,r22
 1004a1c:	dd800f15 	stw	r22,60(sp)
 1004a20:	003b9006 	br	1003864 <_dtoa_r+0x3bc>
 1004a24:	103e221e 	bne	r2,zero,10042b0 <_dtoa_r+0xe08>
 1004a28:	b880004c 	andi	r2,r23,1
 1004a2c:	1005003a 	cmpeq	r2,r2,zero
 1004a30:	103e1f1e 	bne	r2,zero,10042b0 <_dtoa_r+0xe08>
 1004a34:	003e1b06 	br	10042a4 <_dtoa_r+0xdfc>
 1004a38:	d9001617 	ldw	r4,88(sp)
 1004a3c:	980b883a 	mov	r5,r19
 1004a40:	01800284 	movi	r6,10
 1004a44:	000f883a 	mov	r7,zero
 1004a48:	10074040 	call	1007404 <__multadd>
 1004a4c:	d8c00e17 	ldw	r3,56(sp)
 1004a50:	1027883a 	mov	r19,r2
 1004a54:	d8c00f15 	stw	r3,60(sp)
 1004a58:	003cd306 	br	1003da8 <_dtoa_r+0x900>

01004a5c <_fflush_r>:
 1004a5c:	defffb04 	addi	sp,sp,-20
 1004a60:	dcc00315 	stw	r19,12(sp)
 1004a64:	dc800215 	stw	r18,8(sp)
 1004a68:	dfc00415 	stw	ra,16(sp)
 1004a6c:	dc400115 	stw	r17,4(sp)
 1004a70:	dc000015 	stw	r16,0(sp)
 1004a74:	2027883a 	mov	r19,r4
 1004a78:	2825883a 	mov	r18,r5
 1004a7c:	20000226 	beq	r4,zero,1004a88 <_fflush_r+0x2c>
 1004a80:	20800e17 	ldw	r2,56(r4)
 1004a84:	10005626 	beq	r2,zero,1004be0 <_fflush_r+0x184>
 1004a88:	9100030b 	ldhu	r4,12(r18)
 1004a8c:	20ffffcc 	andi	r3,r4,65535
 1004a90:	18e0001c 	xori	r3,r3,32768
 1004a94:	18e00004 	addi	r3,r3,-32768
 1004a98:	1880020c 	andi	r2,r3,8
 1004a9c:	1000261e 	bne	r2,zero,1004b38 <_fflush_r+0xdc>
 1004aa0:	90c00117 	ldw	r3,4(r18)
 1004aa4:	20820014 	ori	r2,r4,2048
 1004aa8:	9080030d 	sth	r2,12(r18)
 1004aac:	1009883a 	mov	r4,r2
 1004ab0:	00c0400e 	bge	zero,r3,1004bb4 <_fflush_r+0x158>
 1004ab4:	92000a17 	ldw	r8,40(r18)
 1004ab8:	40004026 	beq	r8,zero,1004bbc <_fflush_r+0x160>
 1004abc:	2084000c 	andi	r2,r4,4096
 1004ac0:	10005326 	beq	r2,zero,1004c10 <_fflush_r+0x1b4>
 1004ac4:	94001417 	ldw	r16,80(r18)
 1004ac8:	9080030b 	ldhu	r2,12(r18)
 1004acc:	1080010c 	andi	r2,r2,4
 1004ad0:	1000481e 	bne	r2,zero,1004bf4 <_fflush_r+0x198>
 1004ad4:	91400717 	ldw	r5,28(r18)
 1004ad8:	9809883a 	mov	r4,r19
 1004adc:	800d883a 	mov	r6,r16
 1004ae0:	000f883a 	mov	r7,zero
 1004ae4:	403ee83a 	callr	r8
 1004ae8:	8080261e 	bne	r16,r2,1004b84 <_fflush_r+0x128>
 1004aec:	9080030b 	ldhu	r2,12(r18)
 1004af0:	91000417 	ldw	r4,16(r18)
 1004af4:	90000115 	stw	zero,4(r18)
 1004af8:	10bdffcc 	andi	r2,r2,63487
 1004afc:	10ffffcc 	andi	r3,r2,65535
 1004b00:	18c4000c 	andi	r3,r3,4096
 1004b04:	9080030d 	sth	r2,12(r18)
 1004b08:	91000015 	stw	r4,0(r18)
 1004b0c:	18002b26 	beq	r3,zero,1004bbc <_fflush_r+0x160>
 1004b10:	0007883a 	mov	r3,zero
 1004b14:	1805883a 	mov	r2,r3
 1004b18:	94001415 	stw	r16,80(r18)
 1004b1c:	dfc00417 	ldw	ra,16(sp)
 1004b20:	dcc00317 	ldw	r19,12(sp)
 1004b24:	dc800217 	ldw	r18,8(sp)
 1004b28:	dc400117 	ldw	r17,4(sp)
 1004b2c:	dc000017 	ldw	r16,0(sp)
 1004b30:	dec00504 	addi	sp,sp,20
 1004b34:	f800283a 	ret
 1004b38:	94400417 	ldw	r17,16(r18)
 1004b3c:	88001f26 	beq	r17,zero,1004bbc <_fflush_r+0x160>
 1004b40:	90800017 	ldw	r2,0(r18)
 1004b44:	18c000cc 	andi	r3,r3,3
 1004b48:	94400015 	stw	r17,0(r18)
 1004b4c:	1461c83a 	sub	r16,r2,r17
 1004b50:	18002526 	beq	r3,zero,1004be8 <_fflush_r+0x18c>
 1004b54:	0005883a 	mov	r2,zero
 1004b58:	90800215 	stw	r2,8(r18)
 1004b5c:	0400170e 	bge	zero,r16,1004bbc <_fflush_r+0x160>
 1004b60:	90c00917 	ldw	r3,36(r18)
 1004b64:	91400717 	ldw	r5,28(r18)
 1004b68:	880d883a 	mov	r6,r17
 1004b6c:	800f883a 	mov	r7,r16
 1004b70:	9809883a 	mov	r4,r19
 1004b74:	183ee83a 	callr	r3
 1004b78:	88a3883a 	add	r17,r17,r2
 1004b7c:	80a1c83a 	sub	r16,r16,r2
 1004b80:	00bff616 	blt	zero,r2,1004b5c <_fflush_r+0x100>
 1004b84:	9080030b 	ldhu	r2,12(r18)
 1004b88:	00ffffc4 	movi	r3,-1
 1004b8c:	10801014 	ori	r2,r2,64
 1004b90:	9080030d 	sth	r2,12(r18)
 1004b94:	1805883a 	mov	r2,r3
 1004b98:	dfc00417 	ldw	ra,16(sp)
 1004b9c:	dcc00317 	ldw	r19,12(sp)
 1004ba0:	dc800217 	ldw	r18,8(sp)
 1004ba4:	dc400117 	ldw	r17,4(sp)
 1004ba8:	dc000017 	ldw	r16,0(sp)
 1004bac:	dec00504 	addi	sp,sp,20
 1004bb0:	f800283a 	ret
 1004bb4:	90800f17 	ldw	r2,60(r18)
 1004bb8:	00bfbe16 	blt	zero,r2,1004ab4 <_fflush_r+0x58>
 1004bbc:	0007883a 	mov	r3,zero
 1004bc0:	1805883a 	mov	r2,r3
 1004bc4:	dfc00417 	ldw	ra,16(sp)
 1004bc8:	dcc00317 	ldw	r19,12(sp)
 1004bcc:	dc800217 	ldw	r18,8(sp)
 1004bd0:	dc400117 	ldw	r17,4(sp)
 1004bd4:	dc000017 	ldw	r16,0(sp)
 1004bd8:	dec00504 	addi	sp,sp,20
 1004bdc:	f800283a 	ret
 1004be0:	1004cf40 	call	1004cf4 <__sinit>
 1004be4:	003fa806 	br	1004a88 <_fflush_r+0x2c>
 1004be8:	90800517 	ldw	r2,20(r18)
 1004bec:	90800215 	stw	r2,8(r18)
 1004bf0:	003fda06 	br	1004b5c <_fflush_r+0x100>
 1004bf4:	90800117 	ldw	r2,4(r18)
 1004bf8:	90c00c17 	ldw	r3,48(r18)
 1004bfc:	80a1c83a 	sub	r16,r16,r2
 1004c00:	183fb426 	beq	r3,zero,1004ad4 <_fflush_r+0x78>
 1004c04:	90800f17 	ldw	r2,60(r18)
 1004c08:	80a1c83a 	sub	r16,r16,r2
 1004c0c:	003fb106 	br	1004ad4 <_fflush_r+0x78>
 1004c10:	91400717 	ldw	r5,28(r18)
 1004c14:	9809883a 	mov	r4,r19
 1004c18:	000d883a 	mov	r6,zero
 1004c1c:	01c00044 	movi	r7,1
 1004c20:	403ee83a 	callr	r8
 1004c24:	1021883a 	mov	r16,r2
 1004c28:	00bfffc4 	movi	r2,-1
 1004c2c:	80800226 	beq	r16,r2,1004c38 <_fflush_r+0x1dc>
 1004c30:	92000a17 	ldw	r8,40(r18)
 1004c34:	003fa406 	br	1004ac8 <_fflush_r+0x6c>
 1004c38:	98c00017 	ldw	r3,0(r19)
 1004c3c:	00800744 	movi	r2,29
 1004c40:	18bfde26 	beq	r3,r2,1004bbc <_fflush_r+0x160>
 1004c44:	9080030b 	ldhu	r2,12(r18)
 1004c48:	8007883a 	mov	r3,r16
 1004c4c:	10801014 	ori	r2,r2,64
 1004c50:	9080030d 	sth	r2,12(r18)
 1004c54:	003fcf06 	br	1004b94 <_fflush_r+0x138>

01004c58 <fflush>:
 1004c58:	01404034 	movhi	r5,256
 1004c5c:	29529704 	addi	r5,r5,19036
 1004c60:	2007883a 	mov	r3,r4
 1004c64:	20000526 	beq	r4,zero,1004c7c <fflush+0x24>
 1004c68:	00804074 	movhi	r2,257
 1004c6c:	10be1c04 	addi	r2,r2,-1936
 1004c70:	11000017 	ldw	r4,0(r2)
 1004c74:	180b883a 	mov	r5,r3
 1004c78:	1004a5c1 	jmpi	1004a5c <_fflush_r>
 1004c7c:	00804074 	movhi	r2,257
 1004c80:	10be1d04 	addi	r2,r2,-1932
 1004c84:	11000017 	ldw	r4,0(r2)
 1004c88:	100585c1 	jmpi	100585c <_fwalk_reent>

01004c8c <std>:
 1004c8c:	00804034 	movhi	r2,256
 1004c90:	109f9104 	addi	r2,r2,32324
 1004c94:	20800b15 	stw	r2,44(r4)
 1004c98:	00804034 	movhi	r2,256
 1004c9c:	109fcc04 	addi	r2,r2,32560
 1004ca0:	20800815 	stw	r2,32(r4)
 1004ca4:	00c04034 	movhi	r3,256
 1004ca8:	18dfad04 	addi	r3,r3,32436
 1004cac:	00804034 	movhi	r2,256
 1004cb0:	109f9304 	addi	r2,r2,32332
 1004cb4:	2140030d 	sth	r5,12(r4)
 1004cb8:	2180038d 	sth	r6,14(r4)
 1004cbc:	20c00915 	stw	r3,36(r4)
 1004cc0:	20800a15 	stw	r2,40(r4)
 1004cc4:	20000015 	stw	zero,0(r4)
 1004cc8:	20000115 	stw	zero,4(r4)
 1004ccc:	20000215 	stw	zero,8(r4)
 1004cd0:	20000415 	stw	zero,16(r4)
 1004cd4:	20000515 	stw	zero,20(r4)
 1004cd8:	20000615 	stw	zero,24(r4)
 1004cdc:	21000715 	stw	r4,28(r4)
 1004ce0:	f800283a 	ret

01004ce4 <__sfp_lock_acquire>:
 1004ce4:	f800283a 	ret

01004ce8 <__sfp_lock_release>:
 1004ce8:	f800283a 	ret

01004cec <__sinit_lock_acquire>:
 1004cec:	f800283a 	ret

01004cf0 <__sinit_lock_release>:
 1004cf0:	f800283a 	ret

01004cf4 <__sinit>:
 1004cf4:	20800e17 	ldw	r2,56(r4)
 1004cf8:	defffd04 	addi	sp,sp,-12
 1004cfc:	dc400115 	stw	r17,4(sp)
 1004d00:	dc000015 	stw	r16,0(sp)
 1004d04:	dfc00215 	stw	ra,8(sp)
 1004d08:	04400044 	movi	r17,1
 1004d0c:	01400104 	movi	r5,4
 1004d10:	000d883a 	mov	r6,zero
 1004d14:	2021883a 	mov	r16,r4
 1004d18:	2200bb04 	addi	r8,r4,748
 1004d1c:	200f883a 	mov	r7,r4
 1004d20:	10000526 	beq	r2,zero,1004d38 <__sinit+0x44>
 1004d24:	dfc00217 	ldw	ra,8(sp)
 1004d28:	dc400117 	ldw	r17,4(sp)
 1004d2c:	dc000017 	ldw	r16,0(sp)
 1004d30:	dec00304 	addi	sp,sp,12
 1004d34:	f800283a 	ret
 1004d38:	21000117 	ldw	r4,4(r4)
 1004d3c:	00804034 	movhi	r2,256
 1004d40:	10937604 	addi	r2,r2,19928
 1004d44:	00c000c4 	movi	r3,3
 1004d48:	80800f15 	stw	r2,60(r16)
 1004d4c:	80c0b915 	stw	r3,740(r16)
 1004d50:	8200ba15 	stw	r8,744(r16)
 1004d54:	84400e15 	stw	r17,56(r16)
 1004d58:	8000b815 	stw	zero,736(r16)
 1004d5c:	1004c8c0 	call	1004c8c <std>
 1004d60:	81000217 	ldw	r4,8(r16)
 1004d64:	880d883a 	mov	r6,r17
 1004d68:	800f883a 	mov	r7,r16
 1004d6c:	01400284 	movi	r5,10
 1004d70:	1004c8c0 	call	1004c8c <std>
 1004d74:	81000317 	ldw	r4,12(r16)
 1004d78:	800f883a 	mov	r7,r16
 1004d7c:	01400484 	movi	r5,18
 1004d80:	01800084 	movi	r6,2
 1004d84:	dfc00217 	ldw	ra,8(sp)
 1004d88:	dc400117 	ldw	r17,4(sp)
 1004d8c:	dc000017 	ldw	r16,0(sp)
 1004d90:	dec00304 	addi	sp,sp,12
 1004d94:	1004c8c1 	jmpi	1004c8c <std>

01004d98 <__fp_lock>:
 1004d98:	0005883a 	mov	r2,zero
 1004d9c:	f800283a 	ret

01004da0 <__fp_unlock>:
 1004da0:	0005883a 	mov	r2,zero
 1004da4:	f800283a 	ret

01004da8 <__fp_unlock_all>:
 1004da8:	00804074 	movhi	r2,257
 1004dac:	10be1c04 	addi	r2,r2,-1936
 1004db0:	11000017 	ldw	r4,0(r2)
 1004db4:	01404034 	movhi	r5,256
 1004db8:	29536804 	addi	r5,r5,19872
 1004dbc:	10059241 	jmpi	1005924 <_fwalk>

01004dc0 <__fp_lock_all>:
 1004dc0:	00804074 	movhi	r2,257
 1004dc4:	10be1c04 	addi	r2,r2,-1936
 1004dc8:	11000017 	ldw	r4,0(r2)
 1004dcc:	01404034 	movhi	r5,256
 1004dd0:	29536604 	addi	r5,r5,19864
 1004dd4:	10059241 	jmpi	1005924 <_fwalk>

01004dd8 <_cleanup_r>:
 1004dd8:	01404074 	movhi	r5,257
 1004ddc:	2960e004 	addi	r5,r5,-31872
 1004de0:	10059241 	jmpi	1005924 <_fwalk>

01004de4 <_cleanup>:
 1004de4:	00804074 	movhi	r2,257
 1004de8:	10be1d04 	addi	r2,r2,-1932
 1004dec:	11000017 	ldw	r4,0(r2)
 1004df0:	1004dd81 	jmpi	1004dd8 <_cleanup_r>

01004df4 <__sfmoreglue>:
 1004df4:	defffc04 	addi	sp,sp,-16
 1004df8:	dc000015 	stw	r16,0(sp)
 1004dfc:	2821883a 	mov	r16,r5
 1004e00:	dc400115 	stw	r17,4(sp)
 1004e04:	01401704 	movi	r5,92
 1004e08:	2023883a 	mov	r17,r4
 1004e0c:	8009883a 	mov	r4,r16
 1004e10:	dfc00315 	stw	ra,12(sp)
 1004e14:	dcc00215 	stw	r19,8(sp)
 1004e18:	1000a8c0 	call	1000a8c <__mulsi3>
 1004e1c:	11400304 	addi	r5,r2,12
 1004e20:	8809883a 	mov	r4,r17
 1004e24:	1027883a 	mov	r19,r2
 1004e28:	1005ca80 	call	1005ca8 <_malloc_r>
 1004e2c:	10c00304 	addi	r3,r2,12
 1004e30:	1023883a 	mov	r17,r2
 1004e34:	1809883a 	mov	r4,r3
 1004e38:	980d883a 	mov	r6,r19
 1004e3c:	000b883a 	mov	r5,zero
 1004e40:	10000b26 	beq	r2,zero,1004e70 <__sfmoreglue+0x7c>
 1004e44:	14000115 	stw	r16,4(r2)
 1004e48:	10c00215 	stw	r3,8(r2)
 1004e4c:	10000015 	stw	zero,0(r2)
 1004e50:	100664c0 	call	100664c <memset>
 1004e54:	8805883a 	mov	r2,r17
 1004e58:	dfc00317 	ldw	ra,12(sp)
 1004e5c:	dcc00217 	ldw	r19,8(sp)
 1004e60:	dc400117 	ldw	r17,4(sp)
 1004e64:	dc000017 	ldw	r16,0(sp)
 1004e68:	dec00404 	addi	sp,sp,16
 1004e6c:	f800283a 	ret
 1004e70:	0023883a 	mov	r17,zero
 1004e74:	8805883a 	mov	r2,r17
 1004e78:	dfc00317 	ldw	ra,12(sp)
 1004e7c:	dcc00217 	ldw	r19,8(sp)
 1004e80:	dc400117 	ldw	r17,4(sp)
 1004e84:	dc000017 	ldw	r16,0(sp)
 1004e88:	dec00404 	addi	sp,sp,16
 1004e8c:	f800283a 	ret

01004e90 <__sfp>:
 1004e90:	defffd04 	addi	sp,sp,-12
 1004e94:	00804074 	movhi	r2,257
 1004e98:	10be1d04 	addi	r2,r2,-1932
 1004e9c:	dc000015 	stw	r16,0(sp)
 1004ea0:	14000017 	ldw	r16,0(r2)
 1004ea4:	dc400115 	stw	r17,4(sp)
 1004ea8:	dfc00215 	stw	ra,8(sp)
 1004eac:	80800e17 	ldw	r2,56(r16)
 1004eb0:	2023883a 	mov	r17,r4
 1004eb4:	10002626 	beq	r2,zero,1004f50 <__sfp+0xc0>
 1004eb8:	8400b804 	addi	r16,r16,736
 1004ebc:	80800117 	ldw	r2,4(r16)
 1004ec0:	81000217 	ldw	r4,8(r16)
 1004ec4:	10ffffc4 	addi	r3,r2,-1
 1004ec8:	18000916 	blt	r3,zero,1004ef0 <__sfp+0x60>
 1004ecc:	2080030f 	ldh	r2,12(r4)
 1004ed0:	10000b26 	beq	r2,zero,1004f00 <__sfp+0x70>
 1004ed4:	017fffc4 	movi	r5,-1
 1004ed8:	00000206 	br	1004ee4 <__sfp+0x54>
 1004edc:	2080030f 	ldh	r2,12(r4)
 1004ee0:	10000726 	beq	r2,zero,1004f00 <__sfp+0x70>
 1004ee4:	18ffffc4 	addi	r3,r3,-1
 1004ee8:	21001704 	addi	r4,r4,92
 1004eec:	197ffb1e 	bne	r3,r5,1004edc <__sfp+0x4c>
 1004ef0:	80800017 	ldw	r2,0(r16)
 1004ef4:	10001926 	beq	r2,zero,1004f5c <__sfp+0xcc>
 1004ef8:	1021883a 	mov	r16,r2
 1004efc:	003fef06 	br	1004ebc <__sfp+0x2c>
 1004f00:	00bfffc4 	movi	r2,-1
 1004f04:	00c00044 	movi	r3,1
 1004f08:	2080038d 	sth	r2,14(r4)
 1004f0c:	20c0030d 	sth	r3,12(r4)
 1004f10:	20000015 	stw	zero,0(r4)
 1004f14:	20000215 	stw	zero,8(r4)
 1004f18:	20000115 	stw	zero,4(r4)
 1004f1c:	20000415 	stw	zero,16(r4)
 1004f20:	20000515 	stw	zero,20(r4)
 1004f24:	20000615 	stw	zero,24(r4)
 1004f28:	20000c15 	stw	zero,48(r4)
 1004f2c:	20000d15 	stw	zero,52(r4)
 1004f30:	20001115 	stw	zero,68(r4)
 1004f34:	20001215 	stw	zero,72(r4)
 1004f38:	2005883a 	mov	r2,r4
 1004f3c:	dfc00217 	ldw	ra,8(sp)
 1004f40:	dc400117 	ldw	r17,4(sp)
 1004f44:	dc000017 	ldw	r16,0(sp)
 1004f48:	dec00304 	addi	sp,sp,12
 1004f4c:	f800283a 	ret
 1004f50:	8009883a 	mov	r4,r16
 1004f54:	1004cf40 	call	1004cf4 <__sinit>
 1004f58:	003fd706 	br	1004eb8 <__sfp+0x28>
 1004f5c:	8809883a 	mov	r4,r17
 1004f60:	01400104 	movi	r5,4
 1004f64:	1004df40 	call	1004df4 <__sfmoreglue>
 1004f68:	80800015 	stw	r2,0(r16)
 1004f6c:	103fe21e 	bne	r2,zero,1004ef8 <__sfp+0x68>
 1004f70:	00800304 	movi	r2,12
 1004f74:	0009883a 	mov	r4,zero
 1004f78:	88800015 	stw	r2,0(r17)
 1004f7c:	003fee06 	br	1004f38 <__sfp+0xa8>

01004f80 <_malloc_trim_r>:
 1004f80:	defffb04 	addi	sp,sp,-20
 1004f84:	dcc00315 	stw	r19,12(sp)
 1004f88:	04c04074 	movhi	r19,257
 1004f8c:	9cf88d04 	addi	r19,r19,-7628
 1004f90:	dc800215 	stw	r18,8(sp)
 1004f94:	dc400115 	stw	r17,4(sp)
 1004f98:	dc000015 	stw	r16,0(sp)
 1004f9c:	2823883a 	mov	r17,r5
 1004fa0:	2025883a 	mov	r18,r4
 1004fa4:	dfc00415 	stw	ra,16(sp)
 1004fa8:	100b0800 	call	100b080 <__malloc_lock>
 1004fac:	98800217 	ldw	r2,8(r19)
 1004fb0:	9009883a 	mov	r4,r18
 1004fb4:	000b883a 	mov	r5,zero
 1004fb8:	10c00117 	ldw	r3,4(r2)
 1004fbc:	00bfff04 	movi	r2,-4
 1004fc0:	18a0703a 	and	r16,r3,r2
 1004fc4:	8463c83a 	sub	r17,r16,r17
 1004fc8:	8c43fbc4 	addi	r17,r17,4079
 1004fcc:	8822d33a 	srli	r17,r17,12
 1004fd0:	0083ffc4 	movi	r2,4095
 1004fd4:	8c7fffc4 	addi	r17,r17,-1
 1004fd8:	8822933a 	slli	r17,r17,12
 1004fdc:	1440060e 	bge	r2,r17,1004ff8 <_malloc_trim_r+0x78>
 1004fe0:	1007dd40 	call	1007dd4 <_sbrk_r>
 1004fe4:	98c00217 	ldw	r3,8(r19)
 1004fe8:	9009883a 	mov	r4,r18
 1004fec:	044bc83a 	sub	r5,zero,r17
 1004ff0:	80c7883a 	add	r3,r16,r3
 1004ff4:	10c00926 	beq	r2,r3,100501c <_malloc_trim_r+0x9c>
 1004ff8:	100b0a00 	call	100b0a0 <__malloc_unlock>
 1004ffc:	0005883a 	mov	r2,zero
 1005000:	dfc00417 	ldw	ra,16(sp)
 1005004:	dcc00317 	ldw	r19,12(sp)
 1005008:	dc800217 	ldw	r18,8(sp)
 100500c:	dc400117 	ldw	r17,4(sp)
 1005010:	dc000017 	ldw	r16,0(sp)
 1005014:	dec00504 	addi	sp,sp,20
 1005018:	f800283a 	ret
 100501c:	9009883a 	mov	r4,r18
 1005020:	1007dd40 	call	1007dd4 <_sbrk_r>
 1005024:	844dc83a 	sub	r6,r16,r17
 1005028:	00ffffc4 	movi	r3,-1
 100502c:	9009883a 	mov	r4,r18
 1005030:	000b883a 	mov	r5,zero
 1005034:	01c04074 	movhi	r7,257
 1005038:	39c4e104 	addi	r7,r7,4996
 100503c:	31800054 	ori	r6,r6,1
 1005040:	10c00926 	beq	r2,r3,1005068 <_malloc_trim_r+0xe8>
 1005044:	38800017 	ldw	r2,0(r7)
 1005048:	98c00217 	ldw	r3,8(r19)
 100504c:	9009883a 	mov	r4,r18
 1005050:	1445c83a 	sub	r2,r2,r17
 1005054:	38800015 	stw	r2,0(r7)
 1005058:	19800115 	stw	r6,4(r3)
 100505c:	100b0a00 	call	100b0a0 <__malloc_unlock>
 1005060:	00800044 	movi	r2,1
 1005064:	003fe606 	br	1005000 <_malloc_trim_r+0x80>
 1005068:	1007dd40 	call	1007dd4 <_sbrk_r>
 100506c:	99800217 	ldw	r6,8(r19)
 1005070:	100f883a 	mov	r7,r2
 1005074:	9009883a 	mov	r4,r18
 1005078:	1187c83a 	sub	r3,r2,r6
 100507c:	008003c4 	movi	r2,15
 1005080:	19400054 	ori	r5,r3,1
 1005084:	10ffdc0e 	bge	r2,r3,1004ff8 <_malloc_trim_r+0x78>
 1005088:	00804074 	movhi	r2,257
 100508c:	10be2104 	addi	r2,r2,-1916
 1005090:	10c00017 	ldw	r3,0(r2)
 1005094:	00804074 	movhi	r2,257
 1005098:	1084e104 	addi	r2,r2,4996
 100509c:	31400115 	stw	r5,4(r6)
 10050a0:	38c7c83a 	sub	r3,r7,r3
 10050a4:	10c00015 	stw	r3,0(r2)
 10050a8:	003fd306 	br	1004ff8 <_malloc_trim_r+0x78>

010050ac <_free_r>:
 10050ac:	defffd04 	addi	sp,sp,-12
 10050b0:	dc400115 	stw	r17,4(sp)
 10050b4:	dc000015 	stw	r16,0(sp)
 10050b8:	dfc00215 	stw	ra,8(sp)
 10050bc:	2821883a 	mov	r16,r5
 10050c0:	2023883a 	mov	r17,r4
 10050c4:	28005a26 	beq	r5,zero,1005230 <_free_r+0x184>
 10050c8:	100b0800 	call	100b080 <__malloc_lock>
 10050cc:	823ffe04 	addi	r8,r16,-8
 10050d0:	41400117 	ldw	r5,4(r8)
 10050d4:	00bfff84 	movi	r2,-2
 10050d8:	02804074 	movhi	r10,257
 10050dc:	52b88d04 	addi	r10,r10,-7628
 10050e0:	288e703a 	and	r7,r5,r2
 10050e4:	41cd883a 	add	r6,r8,r7
 10050e8:	30c00117 	ldw	r3,4(r6)
 10050ec:	51000217 	ldw	r4,8(r10)
 10050f0:	00bfff04 	movi	r2,-4
 10050f4:	1892703a 	and	r9,r3,r2
 10050f8:	5017883a 	mov	r11,r10
 10050fc:	31006726 	beq	r6,r4,100529c <_free_r+0x1f0>
 1005100:	2880004c 	andi	r2,r5,1
 1005104:	1005003a 	cmpeq	r2,r2,zero
 1005108:	32400115 	stw	r9,4(r6)
 100510c:	10001a1e 	bne	r2,zero,1005178 <_free_r+0xcc>
 1005110:	000b883a 	mov	r5,zero
 1005114:	3247883a 	add	r3,r6,r9
 1005118:	18800117 	ldw	r2,4(r3)
 100511c:	1080004c 	andi	r2,r2,1
 1005120:	1000231e 	bne	r2,zero,10051b0 <_free_r+0x104>
 1005124:	280ac03a 	cmpne	r5,r5,zero
 1005128:	3a4f883a 	add	r7,r7,r9
 100512c:	2800451e 	bne	r5,zero,1005244 <_free_r+0x198>
 1005130:	31000217 	ldw	r4,8(r6)
 1005134:	00804074 	movhi	r2,257
 1005138:	10b88f04 	addi	r2,r2,-7620
 100513c:	20807b26 	beq	r4,r2,100532c <_free_r+0x280>
 1005140:	30800317 	ldw	r2,12(r6)
 1005144:	3a07883a 	add	r3,r7,r8
 1005148:	19c00015 	stw	r7,0(r3)
 100514c:	11000215 	stw	r4,8(r2)
 1005150:	20800315 	stw	r2,12(r4)
 1005154:	38800054 	ori	r2,r7,1
 1005158:	40800115 	stw	r2,4(r8)
 100515c:	28001a26 	beq	r5,zero,10051c8 <_free_r+0x11c>
 1005160:	8809883a 	mov	r4,r17
 1005164:	dfc00217 	ldw	ra,8(sp)
 1005168:	dc400117 	ldw	r17,4(sp)
 100516c:	dc000017 	ldw	r16,0(sp)
 1005170:	dec00304 	addi	sp,sp,12
 1005174:	100b0a01 	jmpi	100b0a0 <__malloc_unlock>
 1005178:	80bffe17 	ldw	r2,-8(r16)
 100517c:	50c00204 	addi	r3,r10,8
 1005180:	4091c83a 	sub	r8,r8,r2
 1005184:	41000217 	ldw	r4,8(r8)
 1005188:	388f883a 	add	r7,r7,r2
 100518c:	20c06126 	beq	r4,r3,1005314 <_free_r+0x268>
 1005190:	40800317 	ldw	r2,12(r8)
 1005194:	3247883a 	add	r3,r6,r9
 1005198:	000b883a 	mov	r5,zero
 100519c:	11000215 	stw	r4,8(r2)
 10051a0:	20800315 	stw	r2,12(r4)
 10051a4:	18800117 	ldw	r2,4(r3)
 10051a8:	1080004c 	andi	r2,r2,1
 10051ac:	103fdd26 	beq	r2,zero,1005124 <_free_r+0x78>
 10051b0:	38800054 	ori	r2,r7,1
 10051b4:	3a07883a 	add	r3,r7,r8
 10051b8:	280ac03a 	cmpne	r5,r5,zero
 10051bc:	40800115 	stw	r2,4(r8)
 10051c0:	19c00015 	stw	r7,0(r3)
 10051c4:	283fe61e 	bne	r5,zero,1005160 <_free_r+0xb4>
 10051c8:	00807fc4 	movi	r2,511
 10051cc:	11c01f2e 	bgeu	r2,r7,100524c <_free_r+0x1a0>
 10051d0:	3806d27a 	srli	r3,r7,9
 10051d4:	1800481e 	bne	r3,zero,10052f8 <_free_r+0x24c>
 10051d8:	3804d0fa 	srli	r2,r7,3
 10051dc:	100690fa 	slli	r3,r2,3
 10051e0:	1acd883a 	add	r6,r3,r11
 10051e4:	31400217 	ldw	r5,8(r6)
 10051e8:	31405926 	beq	r6,r5,1005350 <_free_r+0x2a4>
 10051ec:	28800117 	ldw	r2,4(r5)
 10051f0:	00ffff04 	movi	r3,-4
 10051f4:	10c4703a 	and	r2,r2,r3
 10051f8:	3880022e 	bgeu	r7,r2,1005204 <_free_r+0x158>
 10051fc:	29400217 	ldw	r5,8(r5)
 1005200:	317ffa1e 	bne	r6,r5,10051ec <_free_r+0x140>
 1005204:	29800317 	ldw	r6,12(r5)
 1005208:	41800315 	stw	r6,12(r8)
 100520c:	41400215 	stw	r5,8(r8)
 1005210:	8809883a 	mov	r4,r17
 1005214:	2a000315 	stw	r8,12(r5)
 1005218:	32000215 	stw	r8,8(r6)
 100521c:	dfc00217 	ldw	ra,8(sp)
 1005220:	dc400117 	ldw	r17,4(sp)
 1005224:	dc000017 	ldw	r16,0(sp)
 1005228:	dec00304 	addi	sp,sp,12
 100522c:	100b0a01 	jmpi	100b0a0 <__malloc_unlock>
 1005230:	dfc00217 	ldw	ra,8(sp)
 1005234:	dc400117 	ldw	r17,4(sp)
 1005238:	dc000017 	ldw	r16,0(sp)
 100523c:	dec00304 	addi	sp,sp,12
 1005240:	f800283a 	ret
 1005244:	31000217 	ldw	r4,8(r6)
 1005248:	003fbd06 	br	1005140 <_free_r+0x94>
 100524c:	3806d0fa 	srli	r3,r7,3
 1005250:	00800044 	movi	r2,1
 1005254:	51400117 	ldw	r5,4(r10)
 1005258:	180890fa 	slli	r4,r3,3
 100525c:	1807d0ba 	srai	r3,r3,2
 1005260:	22c9883a 	add	r4,r4,r11
 1005264:	21800217 	ldw	r6,8(r4)
 1005268:	10c4983a 	sll	r2,r2,r3
 100526c:	41000315 	stw	r4,12(r8)
 1005270:	41800215 	stw	r6,8(r8)
 1005274:	288ab03a 	or	r5,r5,r2
 1005278:	22000215 	stw	r8,8(r4)
 100527c:	8809883a 	mov	r4,r17
 1005280:	51400115 	stw	r5,4(r10)
 1005284:	32000315 	stw	r8,12(r6)
 1005288:	dfc00217 	ldw	ra,8(sp)
 100528c:	dc400117 	ldw	r17,4(sp)
 1005290:	dc000017 	ldw	r16,0(sp)
 1005294:	dec00304 	addi	sp,sp,12
 1005298:	100b0a01 	jmpi	100b0a0 <__malloc_unlock>
 100529c:	2880004c 	andi	r2,r5,1
 10052a0:	3a4d883a 	add	r6,r7,r9
 10052a4:	1000071e 	bne	r2,zero,10052c4 <_free_r+0x218>
 10052a8:	80bffe17 	ldw	r2,-8(r16)
 10052ac:	4091c83a 	sub	r8,r8,r2
 10052b0:	41000317 	ldw	r4,12(r8)
 10052b4:	40c00217 	ldw	r3,8(r8)
 10052b8:	308d883a 	add	r6,r6,r2
 10052bc:	20c00215 	stw	r3,8(r4)
 10052c0:	19000315 	stw	r4,12(r3)
 10052c4:	00804074 	movhi	r2,257
 10052c8:	10be2004 	addi	r2,r2,-1920
 10052cc:	11000017 	ldw	r4,0(r2)
 10052d0:	30c00054 	ori	r3,r6,1
 10052d4:	52000215 	stw	r8,8(r10)
 10052d8:	40c00115 	stw	r3,4(r8)
 10052dc:	313fa036 	bltu	r6,r4,1005160 <_free_r+0xb4>
 10052e0:	00804074 	movhi	r2,257
 10052e4:	1084d204 	addi	r2,r2,4936
 10052e8:	11400017 	ldw	r5,0(r2)
 10052ec:	8809883a 	mov	r4,r17
 10052f0:	1004f800 	call	1004f80 <_malloc_trim_r>
 10052f4:	003f9a06 	br	1005160 <_free_r+0xb4>
 10052f8:	00800104 	movi	r2,4
 10052fc:	10c0072e 	bgeu	r2,r3,100531c <_free_r+0x270>
 1005300:	00800504 	movi	r2,20
 1005304:	10c01936 	bltu	r2,r3,100536c <_free_r+0x2c0>
 1005308:	188016c4 	addi	r2,r3,91
 100530c:	100690fa 	slli	r3,r2,3
 1005310:	003fb306 	br	10051e0 <_free_r+0x134>
 1005314:	01400044 	movi	r5,1
 1005318:	003f7e06 	br	1005114 <_free_r+0x68>
 100531c:	3804d1ba 	srli	r2,r7,6
 1005320:	10800e04 	addi	r2,r2,56
 1005324:	100690fa 	slli	r3,r2,3
 1005328:	003fad06 	br	10051e0 <_free_r+0x134>
 100532c:	22000315 	stw	r8,12(r4)
 1005330:	22000215 	stw	r8,8(r4)
 1005334:	3a05883a 	add	r2,r7,r8
 1005338:	38c00054 	ori	r3,r7,1
 100533c:	11c00015 	stw	r7,0(r2)
 1005340:	41000215 	stw	r4,8(r8)
 1005344:	40c00115 	stw	r3,4(r8)
 1005348:	41000315 	stw	r4,12(r8)
 100534c:	003f8406 	br	1005160 <_free_r+0xb4>
 1005350:	1005d0ba 	srai	r2,r2,2
 1005354:	00c00044 	movi	r3,1
 1005358:	51000117 	ldw	r4,4(r10)
 100535c:	1886983a 	sll	r3,r3,r2
 1005360:	20c8b03a 	or	r4,r4,r3
 1005364:	51000115 	stw	r4,4(r10)
 1005368:	003fa706 	br	1005208 <_free_r+0x15c>
 100536c:	00801504 	movi	r2,84
 1005370:	10c00436 	bltu	r2,r3,1005384 <_free_r+0x2d8>
 1005374:	3804d33a 	srli	r2,r7,12
 1005378:	10801b84 	addi	r2,r2,110
 100537c:	100690fa 	slli	r3,r2,3
 1005380:	003f9706 	br	10051e0 <_free_r+0x134>
 1005384:	00805504 	movi	r2,340
 1005388:	10c00436 	bltu	r2,r3,100539c <_free_r+0x2f0>
 100538c:	3804d3fa 	srli	r2,r7,15
 1005390:	10801dc4 	addi	r2,r2,119
 1005394:	100690fa 	slli	r3,r2,3
 1005398:	003f9106 	br	10051e0 <_free_r+0x134>
 100539c:	00815504 	movi	r2,1364
 10053a0:	10c0032e 	bgeu	r2,r3,10053b0 <_free_r+0x304>
 10053a4:	00801f84 	movi	r2,126
 10053a8:	00c0fc04 	movi	r3,1008
 10053ac:	003f8c06 	br	10051e0 <_free_r+0x134>
 10053b0:	3804d4ba 	srli	r2,r7,18
 10053b4:	10801f04 	addi	r2,r2,124
 10053b8:	100690fa 	slli	r3,r2,3
 10053bc:	003f8806 	br	10051e0 <_free_r+0x134>

010053c0 <__sfvwrite_r>:
 10053c0:	30800217 	ldw	r2,8(r6)
 10053c4:	defff504 	addi	sp,sp,-44
 10053c8:	df000915 	stw	fp,36(sp)
 10053cc:	dd800715 	stw	r22,28(sp)
 10053d0:	dc800315 	stw	r18,12(sp)
 10053d4:	dfc00a15 	stw	ra,40(sp)
 10053d8:	ddc00815 	stw	r23,32(sp)
 10053dc:	dd400615 	stw	r21,24(sp)
 10053e0:	dd000515 	stw	r20,20(sp)
 10053e4:	dcc00415 	stw	r19,16(sp)
 10053e8:	dc400215 	stw	r17,8(sp)
 10053ec:	dc000115 	stw	r16,4(sp)
 10053f0:	302d883a 	mov	r22,r6
 10053f4:	2039883a 	mov	fp,r4
 10053f8:	2825883a 	mov	r18,r5
 10053fc:	10001c26 	beq	r2,zero,1005470 <__sfvwrite_r+0xb0>
 1005400:	29c0030b 	ldhu	r7,12(r5)
 1005404:	3880020c 	andi	r2,r7,8
 1005408:	10002726 	beq	r2,zero,10054a8 <__sfvwrite_r+0xe8>
 100540c:	28800417 	ldw	r2,16(r5)
 1005410:	10002526 	beq	r2,zero,10054a8 <__sfvwrite_r+0xe8>
 1005414:	3880008c 	andi	r2,r7,2
 1005418:	b5400017 	ldw	r21,0(r22)
 100541c:	10002826 	beq	r2,zero,10054c0 <__sfvwrite_r+0x100>
 1005420:	0021883a 	mov	r16,zero
 1005424:	0023883a 	mov	r17,zero
 1005428:	880d883a 	mov	r6,r17
 100542c:	e009883a 	mov	r4,fp
 1005430:	00810004 	movi	r2,1024
 1005434:	80006e26 	beq	r16,zero,10055f0 <__sfvwrite_r+0x230>
 1005438:	800f883a 	mov	r7,r16
 100543c:	91400717 	ldw	r5,28(r18)
 1005440:	1400012e 	bgeu	r2,r16,1005448 <__sfvwrite_r+0x88>
 1005444:	100f883a 	mov	r7,r2
 1005448:	90c00917 	ldw	r3,36(r18)
 100544c:	183ee83a 	callr	r3
 1005450:	1007883a 	mov	r3,r2
 1005454:	80a1c83a 	sub	r16,r16,r2
 1005458:	88a3883a 	add	r17,r17,r2
 100545c:	00806d0e 	bge	zero,r2,1005614 <__sfvwrite_r+0x254>
 1005460:	b0800217 	ldw	r2,8(r22)
 1005464:	10c5c83a 	sub	r2,r2,r3
 1005468:	b0800215 	stw	r2,8(r22)
 100546c:	103fee1e 	bne	r2,zero,1005428 <__sfvwrite_r+0x68>
 1005470:	0009883a 	mov	r4,zero
 1005474:	2005883a 	mov	r2,r4
 1005478:	dfc00a17 	ldw	ra,40(sp)
 100547c:	df000917 	ldw	fp,36(sp)
 1005480:	ddc00817 	ldw	r23,32(sp)
 1005484:	dd800717 	ldw	r22,28(sp)
 1005488:	dd400617 	ldw	r21,24(sp)
 100548c:	dd000517 	ldw	r20,20(sp)
 1005490:	dcc00417 	ldw	r19,16(sp)
 1005494:	dc800317 	ldw	r18,12(sp)
 1005498:	dc400217 	ldw	r17,8(sp)
 100549c:	dc000117 	ldw	r16,4(sp)
 10054a0:	dec00b04 	addi	sp,sp,44
 10054a4:	f800283a 	ret
 10054a8:	10031280 	call	1003128 <__swsetup_r>
 10054ac:	1000e41e 	bne	r2,zero,1005840 <__sfvwrite_r+0x480>
 10054b0:	91c0030b 	ldhu	r7,12(r18)
 10054b4:	b5400017 	ldw	r21,0(r22)
 10054b8:	3880008c 	andi	r2,r7,2
 10054bc:	103fd81e 	bne	r2,zero,1005420 <__sfvwrite_r+0x60>
 10054c0:	3880004c 	andi	r2,r7,1
 10054c4:	1005003a 	cmpeq	r2,r2,zero
 10054c8:	10005726 	beq	r2,zero,1005628 <__sfvwrite_r+0x268>
 10054cc:	0029883a 	mov	r20,zero
 10054d0:	002f883a 	mov	r23,zero
 10054d4:	a0004226 	beq	r20,zero,10055e0 <__sfvwrite_r+0x220>
 10054d8:	3880800c 	andi	r2,r7,512
 10054dc:	94000217 	ldw	r16,8(r18)
 10054e0:	10008b26 	beq	r2,zero,1005710 <__sfvwrite_r+0x350>
 10054e4:	800d883a 	mov	r6,r16
 10054e8:	a400a536 	bltu	r20,r16,1005780 <__sfvwrite_r+0x3c0>
 10054ec:	3881200c 	andi	r2,r7,1152
 10054f0:	10002726 	beq	r2,zero,1005590 <__sfvwrite_r+0x1d0>
 10054f4:	90800517 	ldw	r2,20(r18)
 10054f8:	92000417 	ldw	r8,16(r18)
 10054fc:	91400017 	ldw	r5,0(r18)
 1005500:	1087883a 	add	r3,r2,r2
 1005504:	1887883a 	add	r3,r3,r2
 1005508:	1808d7fa 	srli	r4,r3,31
 100550c:	2a21c83a 	sub	r16,r5,r8
 1005510:	80800044 	addi	r2,r16,1
 1005514:	20c9883a 	add	r4,r4,r3
 1005518:	2027d07a 	srai	r19,r4,1
 100551c:	a085883a 	add	r2,r20,r2
 1005520:	980d883a 	mov	r6,r19
 1005524:	9880022e 	bgeu	r19,r2,1005530 <__sfvwrite_r+0x170>
 1005528:	1027883a 	mov	r19,r2
 100552c:	100d883a 	mov	r6,r2
 1005530:	3881000c 	andi	r2,r7,1024
 1005534:	1000b826 	beq	r2,zero,1005818 <__sfvwrite_r+0x458>
 1005538:	300b883a 	mov	r5,r6
 100553c:	e009883a 	mov	r4,fp
 1005540:	1005ca80 	call	1005ca8 <_malloc_r>
 1005544:	10003126 	beq	r2,zero,100560c <__sfvwrite_r+0x24c>
 1005548:	91400417 	ldw	r5,16(r18)
 100554c:	1009883a 	mov	r4,r2
 1005550:	800d883a 	mov	r6,r16
 1005554:	1023883a 	mov	r17,r2
 1005558:	10064cc0 	call	10064cc <memcpy>
 100555c:	90c0030b 	ldhu	r3,12(r18)
 1005560:	00beffc4 	movi	r2,-1025
 1005564:	1886703a 	and	r3,r3,r2
 1005568:	18c02014 	ori	r3,r3,128
 100556c:	90c0030d 	sth	r3,12(r18)
 1005570:	9c07c83a 	sub	r3,r19,r16
 1005574:	8c05883a 	add	r2,r17,r16
 1005578:	a00d883a 	mov	r6,r20
 100557c:	a021883a 	mov	r16,r20
 1005580:	90800015 	stw	r2,0(r18)
 1005584:	90c00215 	stw	r3,8(r18)
 1005588:	94400415 	stw	r17,16(r18)
 100558c:	94c00515 	stw	r19,20(r18)
 1005590:	91000017 	ldw	r4,0(r18)
 1005594:	b80b883a 	mov	r5,r23
 1005598:	a023883a 	mov	r17,r20
 100559c:	100656c0 	call	100656c <memmove>
 10055a0:	90c00217 	ldw	r3,8(r18)
 10055a4:	90800017 	ldw	r2,0(r18)
 10055a8:	a027883a 	mov	r19,r20
 10055ac:	1c07c83a 	sub	r3,r3,r16
 10055b0:	1405883a 	add	r2,r2,r16
 10055b4:	90c00215 	stw	r3,8(r18)
 10055b8:	a021883a 	mov	r16,r20
 10055bc:	90800015 	stw	r2,0(r18)
 10055c0:	b0800217 	ldw	r2,8(r22)
 10055c4:	1405c83a 	sub	r2,r2,r16
 10055c8:	b0800215 	stw	r2,8(r22)
 10055cc:	103fa826 	beq	r2,zero,1005470 <__sfvwrite_r+0xb0>
 10055d0:	a469c83a 	sub	r20,r20,r17
 10055d4:	91c0030b 	ldhu	r7,12(r18)
 10055d8:	bcef883a 	add	r23,r23,r19
 10055dc:	a03fbe1e 	bne	r20,zero,10054d8 <__sfvwrite_r+0x118>
 10055e0:	adc00017 	ldw	r23,0(r21)
 10055e4:	ad000117 	ldw	r20,4(r21)
 10055e8:	ad400204 	addi	r21,r21,8
 10055ec:	003fb906 	br	10054d4 <__sfvwrite_r+0x114>
 10055f0:	ac400017 	ldw	r17,0(r21)
 10055f4:	ac000117 	ldw	r16,4(r21)
 10055f8:	ad400204 	addi	r21,r21,8
 10055fc:	003f8a06 	br	1005428 <__sfvwrite_r+0x68>
 1005600:	91400417 	ldw	r5,16(r18)
 1005604:	e009883a 	mov	r4,fp
 1005608:	10050ac0 	call	10050ac <_free_r>
 100560c:	00800304 	movi	r2,12
 1005610:	e0800015 	stw	r2,0(fp)
 1005614:	9080030b 	ldhu	r2,12(r18)
 1005618:	013fffc4 	movi	r4,-1
 100561c:	10801014 	ori	r2,r2,64
 1005620:	9080030d 	sth	r2,12(r18)
 1005624:	003f9306 	br	1005474 <__sfvwrite_r+0xb4>
 1005628:	0027883a 	mov	r19,zero
 100562c:	002f883a 	mov	r23,zero
 1005630:	d8000015 	stw	zero,0(sp)
 1005634:	0029883a 	mov	r20,zero
 1005638:	98001e26 	beq	r19,zero,10056b4 <__sfvwrite_r+0x2f4>
 100563c:	d8c00017 	ldw	r3,0(sp)
 1005640:	1804c03a 	cmpne	r2,r3,zero
 1005644:	10005e26 	beq	r2,zero,10057c0 <__sfvwrite_r+0x400>
 1005648:	9821883a 	mov	r16,r19
 100564c:	a4c0012e 	bgeu	r20,r19,1005654 <__sfvwrite_r+0x294>
 1005650:	a021883a 	mov	r16,r20
 1005654:	91000017 	ldw	r4,0(r18)
 1005658:	90800417 	ldw	r2,16(r18)
 100565c:	91800217 	ldw	r6,8(r18)
 1005660:	91c00517 	ldw	r7,20(r18)
 1005664:	1100022e 	bgeu	r2,r4,1005670 <__sfvwrite_r+0x2b0>
 1005668:	31e3883a 	add	r17,r6,r7
 100566c:	8c001616 	blt	r17,r16,10056c8 <__sfvwrite_r+0x308>
 1005670:	81c03816 	blt	r16,r7,1005754 <__sfvwrite_r+0x394>
 1005674:	90c00917 	ldw	r3,36(r18)
 1005678:	91400717 	ldw	r5,28(r18)
 100567c:	e009883a 	mov	r4,fp
 1005680:	b80d883a 	mov	r6,r23
 1005684:	183ee83a 	callr	r3
 1005688:	1023883a 	mov	r17,r2
 100568c:	00bfe10e 	bge	zero,r2,1005614 <__sfvwrite_r+0x254>
 1005690:	a469c83a 	sub	r20,r20,r17
 1005694:	a0001826 	beq	r20,zero,10056f8 <__sfvwrite_r+0x338>
 1005698:	b0800217 	ldw	r2,8(r22)
 100569c:	1445c83a 	sub	r2,r2,r17
 10056a0:	b0800215 	stw	r2,8(r22)
 10056a4:	103f7226 	beq	r2,zero,1005470 <__sfvwrite_r+0xb0>
 10056a8:	9c67c83a 	sub	r19,r19,r17
 10056ac:	bc6f883a 	add	r23,r23,r17
 10056b0:	983fe21e 	bne	r19,zero,100563c <__sfvwrite_r+0x27c>
 10056b4:	adc00017 	ldw	r23,0(r21)
 10056b8:	acc00117 	ldw	r19,4(r21)
 10056bc:	ad400204 	addi	r21,r21,8
 10056c0:	d8000015 	stw	zero,0(sp)
 10056c4:	003fdc06 	br	1005638 <__sfvwrite_r+0x278>
 10056c8:	b80b883a 	mov	r5,r23
 10056cc:	880d883a 	mov	r6,r17
 10056d0:	100656c0 	call	100656c <memmove>
 10056d4:	90c00017 	ldw	r3,0(r18)
 10056d8:	e009883a 	mov	r4,fp
 10056dc:	900b883a 	mov	r5,r18
 10056e0:	1c47883a 	add	r3,r3,r17
 10056e4:	90c00015 	stw	r3,0(r18)
 10056e8:	1004a5c0 	call	1004a5c <_fflush_r>
 10056ec:	103fc91e 	bne	r2,zero,1005614 <__sfvwrite_r+0x254>
 10056f0:	a469c83a 	sub	r20,r20,r17
 10056f4:	a03fe81e 	bne	r20,zero,1005698 <__sfvwrite_r+0x2d8>
 10056f8:	e009883a 	mov	r4,fp
 10056fc:	900b883a 	mov	r5,r18
 1005700:	1004a5c0 	call	1004a5c <_fflush_r>
 1005704:	103fc31e 	bne	r2,zero,1005614 <__sfvwrite_r+0x254>
 1005708:	d8000015 	stw	zero,0(sp)
 100570c:	003fe206 	br	1005698 <__sfvwrite_r+0x2d8>
 1005710:	91000017 	ldw	r4,0(r18)
 1005714:	90800417 	ldw	r2,16(r18)
 1005718:	1100022e 	bgeu	r2,r4,1005724 <__sfvwrite_r+0x364>
 100571c:	8023883a 	mov	r17,r16
 1005720:	85003136 	bltu	r16,r20,10057e8 <__sfvwrite_r+0x428>
 1005724:	91c00517 	ldw	r7,20(r18)
 1005728:	a1c01836 	bltu	r20,r7,100578c <__sfvwrite_r+0x3cc>
 100572c:	90c00917 	ldw	r3,36(r18)
 1005730:	91400717 	ldw	r5,28(r18)
 1005734:	e009883a 	mov	r4,fp
 1005738:	b80d883a 	mov	r6,r23
 100573c:	183ee83a 	callr	r3
 1005740:	1021883a 	mov	r16,r2
 1005744:	00bfb30e 	bge	zero,r2,1005614 <__sfvwrite_r+0x254>
 1005748:	1023883a 	mov	r17,r2
 100574c:	1027883a 	mov	r19,r2
 1005750:	003f9b06 	br	10055c0 <__sfvwrite_r+0x200>
 1005754:	b80b883a 	mov	r5,r23
 1005758:	800d883a 	mov	r6,r16
 100575c:	100656c0 	call	100656c <memmove>
 1005760:	90c00217 	ldw	r3,8(r18)
 1005764:	90800017 	ldw	r2,0(r18)
 1005768:	8023883a 	mov	r17,r16
 100576c:	1c07c83a 	sub	r3,r3,r16
 1005770:	1405883a 	add	r2,r2,r16
 1005774:	90c00215 	stw	r3,8(r18)
 1005778:	90800015 	stw	r2,0(r18)
 100577c:	003fc406 	br	1005690 <__sfvwrite_r+0x2d0>
 1005780:	a00d883a 	mov	r6,r20
 1005784:	a021883a 	mov	r16,r20
 1005788:	003f8106 	br	1005590 <__sfvwrite_r+0x1d0>
 100578c:	b80b883a 	mov	r5,r23
 1005790:	a00d883a 	mov	r6,r20
 1005794:	100656c0 	call	100656c <memmove>
 1005798:	90c00217 	ldw	r3,8(r18)
 100579c:	90800017 	ldw	r2,0(r18)
 10057a0:	a021883a 	mov	r16,r20
 10057a4:	1d07c83a 	sub	r3,r3,r20
 10057a8:	1505883a 	add	r2,r2,r20
 10057ac:	a023883a 	mov	r17,r20
 10057b0:	a027883a 	mov	r19,r20
 10057b4:	90c00215 	stw	r3,8(r18)
 10057b8:	90800015 	stw	r2,0(r18)
 10057bc:	003f8006 	br	10055c0 <__sfvwrite_r+0x200>
 10057c0:	b809883a 	mov	r4,r23
 10057c4:	01400284 	movi	r5,10
 10057c8:	980d883a 	mov	r6,r19
 10057cc:	10063e80 	call	10063e8 <memchr>
 10057d0:	10001726 	beq	r2,zero,1005830 <__sfvwrite_r+0x470>
 10057d4:	15c5c83a 	sub	r2,r2,r23
 10057d8:	15000044 	addi	r20,r2,1
 10057dc:	00800044 	movi	r2,1
 10057e0:	d8800015 	stw	r2,0(sp)
 10057e4:	003f9806 	br	1005648 <__sfvwrite_r+0x288>
 10057e8:	b80b883a 	mov	r5,r23
 10057ec:	800d883a 	mov	r6,r16
 10057f0:	100656c0 	call	100656c <memmove>
 10057f4:	90c00017 	ldw	r3,0(r18)
 10057f8:	e009883a 	mov	r4,fp
 10057fc:	900b883a 	mov	r5,r18
 1005800:	1c07883a 	add	r3,r3,r16
 1005804:	90c00015 	stw	r3,0(r18)
 1005808:	8027883a 	mov	r19,r16
 100580c:	1004a5c0 	call	1004a5c <_fflush_r>
 1005810:	103f6b26 	beq	r2,zero,10055c0 <__sfvwrite_r+0x200>
 1005814:	003f7f06 	br	1005614 <__sfvwrite_r+0x254>
 1005818:	400b883a 	mov	r5,r8
 100581c:	e009883a 	mov	r4,fp
 1005820:	10077700 	call	1007770 <_realloc_r>
 1005824:	103f7626 	beq	r2,zero,1005600 <__sfvwrite_r+0x240>
 1005828:	1023883a 	mov	r17,r2
 100582c:	003f5006 	br	1005570 <__sfvwrite_r+0x1b0>
 1005830:	00c00044 	movi	r3,1
 1005834:	9d000044 	addi	r20,r19,1
 1005838:	d8c00015 	stw	r3,0(sp)
 100583c:	003f8206 	br	1005648 <__sfvwrite_r+0x288>
 1005840:	9080030b 	ldhu	r2,12(r18)
 1005844:	00c00244 	movi	r3,9
 1005848:	013fffc4 	movi	r4,-1
 100584c:	10801014 	ori	r2,r2,64
 1005850:	9080030d 	sth	r2,12(r18)
 1005854:	e0c00015 	stw	r3,0(fp)
 1005858:	003f0606 	br	1005474 <__sfvwrite_r+0xb4>

0100585c <_fwalk_reent>:
 100585c:	defff704 	addi	sp,sp,-36
 1005860:	dcc00315 	stw	r19,12(sp)
 1005864:	24c0b804 	addi	r19,r4,736
 1005868:	dd800615 	stw	r22,24(sp)
 100586c:	dd400515 	stw	r21,20(sp)
 1005870:	dfc00815 	stw	ra,32(sp)
 1005874:	ddc00715 	stw	r23,28(sp)
 1005878:	dd000415 	stw	r20,16(sp)
 100587c:	dc800215 	stw	r18,8(sp)
 1005880:	dc400115 	stw	r17,4(sp)
 1005884:	dc000015 	stw	r16,0(sp)
 1005888:	202b883a 	mov	r21,r4
 100588c:	282d883a 	mov	r22,r5
 1005890:	1004ce40 	call	1004ce4 <__sfp_lock_acquire>
 1005894:	98002126 	beq	r19,zero,100591c <_fwalk_reent+0xc0>
 1005898:	002f883a 	mov	r23,zero
 100589c:	9c800117 	ldw	r18,4(r19)
 10058a0:	9c000217 	ldw	r16,8(r19)
 10058a4:	90bfffc4 	addi	r2,r18,-1
 10058a8:	10000d16 	blt	r2,zero,10058e0 <_fwalk_reent+0x84>
 10058ac:	0023883a 	mov	r17,zero
 10058b0:	053fffc4 	movi	r20,-1
 10058b4:	8080030f 	ldh	r2,12(r16)
 10058b8:	8c400044 	addi	r17,r17,1
 10058bc:	10000626 	beq	r2,zero,10058d8 <_fwalk_reent+0x7c>
 10058c0:	8080038f 	ldh	r2,14(r16)
 10058c4:	800b883a 	mov	r5,r16
 10058c8:	a809883a 	mov	r4,r21
 10058cc:	15000226 	beq	r2,r20,10058d8 <_fwalk_reent+0x7c>
 10058d0:	b03ee83a 	callr	r22
 10058d4:	b8aeb03a 	or	r23,r23,r2
 10058d8:	84001704 	addi	r16,r16,92
 10058dc:	947ff51e 	bne	r18,r17,10058b4 <_fwalk_reent+0x58>
 10058e0:	9cc00017 	ldw	r19,0(r19)
 10058e4:	983fed1e 	bne	r19,zero,100589c <_fwalk_reent+0x40>
 10058e8:	1004ce80 	call	1004ce8 <__sfp_lock_release>
 10058ec:	b805883a 	mov	r2,r23
 10058f0:	dfc00817 	ldw	ra,32(sp)
 10058f4:	ddc00717 	ldw	r23,28(sp)
 10058f8:	dd800617 	ldw	r22,24(sp)
 10058fc:	dd400517 	ldw	r21,20(sp)
 1005900:	dd000417 	ldw	r20,16(sp)
 1005904:	dcc00317 	ldw	r19,12(sp)
 1005908:	dc800217 	ldw	r18,8(sp)
 100590c:	dc400117 	ldw	r17,4(sp)
 1005910:	dc000017 	ldw	r16,0(sp)
 1005914:	dec00904 	addi	sp,sp,36
 1005918:	f800283a 	ret
 100591c:	002f883a 	mov	r23,zero
 1005920:	003ff106 	br	10058e8 <_fwalk_reent+0x8c>

01005924 <_fwalk>:
