
parallel_ports_2.elf:     file format elf32-littlenios2
parallel_ports_2.elf
architecture: nios2, flags 0x00000112:
EXEC_P, HAS_SYMS, D_PAGED
start address 0x010001b4

Program Header:
    LOAD off    0x00001000 vaddr 0x01000000 paddr 0x01000000 align 2**12
         filesz 0x00000020 memsz 0x00000020 flags r-x
    LOAD off    0x00001020 vaddr 0x01000020 paddr 0x01000020 align 2**12
         filesz 0x0000d78c memsz 0x0000d78c flags r-x
    LOAD off    0x0000e7ac vaddr 0x0100d7ac paddr 0x0100f260 align 2**12
         filesz 0x00001ab4 memsz 0x00001ab4 flags rw-
    LOAD off    0x00010d14 vaddr 0x01010d14 paddr 0x01010d14 align 2**12
         filesz 0x00000000 memsz 0x000002ec flags rw-

Sections:
Idx Name          Size      VMA       LMA       File off  Algn
  0 .entry        00000020  01000000  01000000  00001000  2**5
                  CONTENTS, ALLOC, LOAD, READONLY, CODE
  1 .exceptions   00000194  01000020  01000020  00001020  2**2
                  CONTENTS, ALLOC, LOAD, READONLY, CODE
  2 .text         0000d0f4  010001b4  010001b4  000011b4  2**2
                  CONTENTS, ALLOC, LOAD, READONLY, CODE
  3 .rodata       00000504  0100d2a8  0100d2a8  0000e2a8  2**2
                  CONTENTS, ALLOC, LOAD, READONLY, DATA
  4 .rwdata       00001ab4  0100d7ac  0100f260  0000e7ac  2**2
                  CONTENTS, ALLOC, LOAD, DATA, SMALL_DATA
  5 .bss          000002ec  01010d14  01010d14  00010d14  2**2
                  ALLOC, SMALL_DATA
  6 .comment      00000026  00000000  00000000  00010260  2**0
                  CONTENTS, READONLY
  7 .debug_aranges 00000cf8  00000000  00000000  00010288  2**3
                  CONTENTS, READONLY, DEBUGGING
  8 .debug_pubnames 00001564  00000000  00000000  00010f80  2**0
                  CONTENTS, READONLY, DEBUGGING
  9 .debug_info   00024e05  00000000  00000000  000124e4  2**0
                  CONTENTS, READONLY, DEBUGGING
 10 .debug_abbrev 00007dc5  00000000  00000000  000372e9  2**0
                  CONTENTS, READONLY, DEBUGGING
 11 .debug_line   0001411b  00000000  00000000  0003f0ae  2**0
                  CONTENTS, READONLY, DEBUGGING
 12 .debug_frame  00001a38  00000000  00000000  000531cc  2**2
                  CONTENTS, READONLY, DEBUGGING
 13 .debug_str    0000235a  00000000  00000000  00054c04  2**0
                  CONTENTS, READONLY, DEBUGGING
 14 .debug_loc    0000c28d  00000000  00000000  00056f5e  2**0
                  CONTENTS, READONLY, DEBUGGING
 15 .debug_alt_sim_info 00000010  00000000  00000000  000631ec  2**2
                  CONTENTS, READONLY, DEBUGGING
 16 .debug_ranges 000009e0  00000000  00000000  00063200  2**3
                  CONTENTS, READONLY, DEBUGGING
 17 .thread_model 00000003  00000000  00000000  00066d4c  2**0
                  CONTENTS, READONLY
 18 .cpu          0000000c  00000000  00000000  00066d4f  2**0
                  CONTENTS, READONLY
 19 .qsys         00000001  00000000  00000000  00066d5b  2**0
                  CONTENTS, READONLY
 20 .simulation_enabled 00000001  00000000  00000000  00066d5c  2**0
                  CONTENTS, READONLY
 21 .stderr_dev   0000000b  00000000  00000000  00066d5d  2**0
                  CONTENTS, READONLY
 22 .stdin_dev    0000000b  00000000  00000000  00066d68  2**0
                  CONTENTS, READONLY
 23 .stdout_dev   0000000b  00000000  00000000  00066d73  2**0
                  CONTENTS, READONLY
 24 .sopc_system_name 0000000b  00000000  00000000  00066d7e  2**0
                  CONTENTS, READONLY
 25 .quartus_project_dir 00000021  00000000  00000000  00066d89  2**0
                  CONTENTS, READONLY
 26 .sopcinfo     0004b663  00000000  00000000  00066daa  2**0
                  CONTENTS, READONLY
SYMBOL TABLE:
01000000 l    d  .entry	00000000 .entry
01000020 l    d  .exceptions	00000000 .exceptions
010001b4 l    d  .text	00000000 .text
0100d2a8 l    d  .rodata	00000000 .rodata
0100d7ac l    d  .rwdata	00000000 .rwdata
01010d14 l    d  .bss	00000000 .bss
00000000 l    d  .comment	00000000 .comment
00000000 l    d  .debug_aranges	00000000 .debug_aranges
00000000 l    d  .debug_pubnames	00000000 .debug_pubnames
00000000 l    d  .debug_info	00000000 .debug_info
00000000 l    d  .debug_abbrev	00000000 .debug_abbrev
00000000 l    d  .debug_line	00000000 .debug_line
00000000 l    d  .debug_frame	00000000 .debug_frame
00000000 l    d  .debug_str	00000000 .debug_str
00000000 l    d  .debug_loc	00000000 .debug_loc
00000000 l    d  .debug_alt_sim_info	00000000 .debug_alt_sim_info
00000000 l    d  .debug_ranges	00000000 .debug_ranges
010001ec l       .text	00000000 alt_after_alt_main
00000000 l    df *ABS*	00000000 alt_irq_handler.c
00000000 l    df *ABS*	00000000 hello_world.c
00000000 l    df *ABS*	00000000 printf.c
00000000 l    df *ABS*	00000000 vfprintf.c
010004dc l     F .text	00000058 __sprint_r
0100d4aa l     O .rodata	00000010 blanks.3452
0100d49a l     O .rodata	00000010 zeroes.3453
00000000 l    df *ABS*	00000000 wsetup.c
00000000 l    df *ABS*	00000000 dtoa.c
01002558 l     F .text	00000244 quorem
00000000 l    df *ABS*	00000000 fflush.c
00000000 l    df *ABS*	00000000 findfp.c
01003f80 l     F .text	00000058 std
0100408c l     F .text	00000008 __fp_lock
01004094 l     F .text	00000008 __fp_unlock
00000000 l    df *ABS*	00000000 mallocr.c
00000000 l    df *ABS*	00000000 fvwrite.c
00000000 l    df *ABS*	00000000 fwalk.c
00000000 l    df *ABS*	00000000 impure.c
0100d7ac l     O .rwdata	00000400 impure_data
00000000 l    df *ABS*	00000000 locale.c
0100f22c l     O .rwdata	00000004 charset
0100d4e0 l     O .rodata	00000030 lconv
00000000 l    df *ABS*	00000000 makebuf.c
00000000 l    df *ABS*	00000000 mallocr.c
00000000 l    df *ABS*	00000000 memchr.c
00000000 l    df *ABS*	00000000 memcpy.c
00000000 l    df *ABS*	00000000 memmove.c
00000000 l    df *ABS*	00000000 memset.c
00000000 l    df *ABS*	00000000 mprec.c
0100d628 l     O .rodata	0000000c p05.2458
00000000 l    df *ABS*	00000000 mallocr.c
00000000 l    df *ABS*	00000000 s_isinfd.c
00000000 l    df *ABS*	00000000 s_isnand.c
00000000 l    df *ABS*	00000000 sbrkr.c
00000000 l    df *ABS*	00000000 stdio.c
00000000 l    df *ABS*	00000000 strcmp.c
00000000 l    df *ABS*	00000000 strlen.c
00000000 l    df *ABS*	00000000 writer.c
00000000 l    df *ABS*	00000000 mallocr.c
00000000 l    df *ABS*	00000000 closer.c
00000000 l    df *ABS*	00000000 fclose.c
00000000 l    df *ABS*	00000000 fstatr.c
00000000 l    df *ABS*	00000000 int_errno.c
00000000 l    df *ABS*	00000000 isattyr.c
00000000 l    df *ABS*	00000000 lseekr.c
00000000 l    df *ABS*	00000000 readr.c
00000000 l    df *ABS*	00000000 libgcc2.c
00000000 l    df *ABS*	00000000 libgcc2.c
00000000 l    df *ABS*	00000000 dp-bit.c
010084b4 l     F .text	00000410 _fpadd_parts
00000000 l    df *ABS*	00000000 dp-bit.c
00000000 l    df *ABS*	00000000 dp-bit.c
00000000 l    df *ABS*	00000000 dp-bit.c
00000000 l    df *ABS*	00000000 dp-bit.c
00000000 l    df *ABS*	00000000 dp-bit.c
00000000 l    df *ABS*	00000000 dp-bit.c
00000000 l    df *ABS*	00000000 dp-bit.c
00000000 l    df *ABS*	00000000 dp-bit.c
00000000 l    df *ABS*	00000000 dp-bit.c
00000000 l    df *ABS*	00000000 dp-bit.c
00000000 l    df *ABS*	00000000 dp-bit.c
00000000 l    df *ABS*	00000000 lib2-divmod.c
010095e0 l     F .text	0000007c udivmodsi4
00000000 l    df *ABS*	00000000 lib2-mul.c
00000000 l    df *ABS*	00000000 libgcc2.c
00000000 l    df *ABS*	00000000 libgcc2.c
00000000 l    df *ABS*	00000000 libgcc2.c
00000000 l    df *ABS*	00000000 dp-bit.c
00000000 l    df *ABS*	00000000 dp-bit.c
00000000 l    df *ABS*	00000000 dp-bit.c
00000000 l    df *ABS*	00000000 alt_close.c
01009f1c l     F .text	00000060 alt_get_errno
00000000 l    df *ABS*	00000000 alt_dev.c
01009f7c l     F .text	0000002c alt_dev_null_write
00000000 l    df *ABS*	00000000 alt_errno.c
00000000 l    df *ABS*	00000000 alt_fstat.c
0100a080 l     F .text	00000060 alt_get_errno
00000000 l    df *ABS*	00000000 alt_isatty.c
0100a1a4 l     F .text	00000060 alt_get_errno
00000000 l    df *ABS*	00000000 alt_load.c
0100a284 l     F .text	0000006c alt_load_section
00000000 l    df *ABS*	00000000 alt_lseek.c
0100a3e4 l     F .text	00000060 alt_get_errno
00000000 l    df *ABS*	00000000 alt_main.c
00000000 l    df *ABS*	00000000 alt_malloc_lock.c
00000000 l    df *ABS*	00000000 alt_printf.c
00000000 l    df *ABS*	00000000 alt_putchar.c
00000000 l    df *ABS*	00000000 alt_read.c
0100a8ac l     F .text	00000060 alt_get_errno
00000000 l    df *ABS*	00000000 alt_release_fd.c
00000000 l    df *ABS*	00000000 alt_sbrk.c
0100f250 l     O .rwdata	00000004 heap_end
00000000 l    df *ABS*	00000000 alt_write.c
0100ab64 l     F .text	00000060 alt_get_errno
00000000 l    df *ABS*	00000000 alt_sys_init.c
0100e168 l     O .rwdata	00001060 jtag_uart_0
0100f1c8 l     O .rwdata	0000002c character_lcd_0
0100f1f4 l     O .rwdata	0000002c parallel_port_0
0100ac60 l     F .text	00000038 alt_dev_reg
00000000 l    df *ABS*	00000000 altera_avalon_jtag_uart_fd.c
00000000 l    df *ABS*	00000000 altera_avalon_jtag_uart_init.c
0100aea0 l     F .text	00000228 altera_avalon_jtag_uart_irq
0100b0c8 l     F .text	000000b0 altera_avalon_jtag_uart_timeout
00000000 l    df *ABS*	00000000 altera_avalon_jtag_uart_ioctl.c
00000000 l    df *ABS*	00000000 altera_avalon_jtag_uart_read.c
00000000 l    df *ABS*	00000000 altera_avalon_jtag_uart_write.c
00000000 l    df *ABS*	00000000 altera_up_avalon_character_lcd.c
00000000 l    df *ABS*	00000000 altera_up_avalon_parallel_port.c
00000000 l    df *ABS*	00000000 alt_alarm_start.c
00000000 l    df *ABS*	00000000 alt_dcache_flush_all.c
00000000 l    df *ABS*	00000000 alt_dev_llist_insert.c
0100bed8 l     F .text	00000060 alt_get_errno
00000000 l    df *ABS*	00000000 alt_do_ctors.c
00000000 l    df *ABS*	00000000 alt_do_dtors.c
00000000 l    df *ABS*	00000000 alt_find_dev.c
00000000 l    df *ABS*	00000000 alt_icache_flush_all.c
00000000 l    df *ABS*	00000000 alt_iic.c
00000000 l    df *ABS*	00000000 alt_iic_isr_register.c
00000000 l    df *ABS*	00000000 alt_io_redirect.c
0100c37c l     F .text	000000d8 alt_open_fd
00000000 l    df *ABS*	00000000 alt_irq_vars.c
00000000 l    df *ABS*	00000000 alt_open.c
0100c4cc l     F .text	000000f8 alt_file_locked
0100c750 l     F .text	00000060 alt_get_errno
00000000 l    df *ABS*	00000000 alt_tick.c
00000000 l    df *ABS*	00000000 altera_nios2_qsys_irq.c
00000000 l    df *ABS*	00000000 alt_find_file.c
00000000 l    df *ABS*	00000000 alt_get_fd.c
00000000 l    df *ABS*	00000000 atexit.c
00000000 l    df *ABS*	00000000 exit.c
00000000 l    df *ABS*	00000000 memcmp.c
00000000 l    df *ABS*	00000000 putc.c
00000000 l    df *ABS*	00000000 wbuf.c
00000000 l    df *ABS*	00000000 __atexit.c
00000000 l    df *ABS*	00000000 __call_atexit.c
0100d090 l     F .text	00000004 register_fini
00000000 l    df *ABS*	00000000 alt_exit.c
0100d244 l     F .text	00000040 alt_sim_halt
01005d70 g     F .text	00000094 _mprec_log10
01005e5c g     F .text	00000088 __any_on
01007688 g     F .text	00000070 _isatty_r
0100d600 g     O .rodata	00000028 __mprec_tinytens
0100a444 g     F .text	0000006c alt_main
01010d70 g     O .bss	00000100 alt_irq
010076f8 g     F .text	00000078 _lseek_r
0100f260 g       *ABS*	00000000 __flash_rwdata_start
0100b7c0 g     F .text	00000034 alt_up_character_lcd_send_cmd
01008fd4 g     F .text	00000088 __eqdf2
01011000 g       *ABS*	00000000 __alt_heap_start
01000464 g     F .text	00000044 printf
010070cc g     F .text	00000068 __sseek
01003fe8 g     F .text	000000a4 __sinit
0100ce10 g     F .text	00000130 __swbuf_r
01004cf4 g     F .text	00000084 _setlocale_r
010040e8 g     F .text	0000009c __sfmoreglue
0100a4d0 g     F .text	00000020 __malloc_unlock
010057ec g     F .text	000000e0 memmove
010040d8 g     F .text	00000010 _cleanup
01005ee4 g     F .text	000000bc _Balloc
010090e4 g     F .text	00000088 __gtdf2
00000000  w      *UND*	00000000 __errno
0100b744 g     F .text	0000007c get_DDRAM_addr
01000000 g     F .entry	0000000c __reset
01000020 g       *ABS*	00000000 __flash_exceptions_start
01007614 g     F .text	00000074 _fstat_r
01010d2c g     O .bss	00000004 errno
01010d34 g     O .bss	00000004 alt_argv
01017220 g       *ABS*	00000000 _gp
0100dfe8 g     O .rwdata	00000180 alt_fd_list
0100c000 g     F .text	00000094 alt_find_dev
0100574c g     F .text	000000a0 memcpy
0100b958 g     F .text	0000004c alt_up_character_lcd_write_fd
010040cc g     F .text	0000000c _cleanup_r
0100927c g     F .text	000000f8 __floatsidf
0100c454 g     F .text	00000078 alt_io_redirect
010091f4 g     F .text	00000088 __ltdf2
0100d2a8 g       *ABS*	00000000 __DTOR_END__
01005cc0 g     F .text	000000b0 __ratio
0100b2e0 g     F .text	00000224 altera_avalon_jtag_uart_read
00000000  w      *UND*	00000000 malloc
010004a8 g     F .text	00000034 _printf_r
00000000 g       *ABS*	00000000 __alt_mem_onchip_memory2_0
0100971c g     F .text	00000008 __udivsi3
0100a0e0 g     F .text	000000c4 isatty
0100d510 g     O .rodata	000000c8 __mprec_tens
01004cd0 g     F .text	00000008 __locale_charset
01010d20 g     O .bss	00000004 __malloc_top_pad
0100f228 g     O .rwdata	00000004 __mb_cur_max
01004cd8 g     F .text	0000000c _localeconv_r
01006648 g     F .text	0000003c __i2b
010046b4 g     F .text	0000049c __sfvwrite_r
01007054 g     F .text	00000070 _sbrk_r
01007770 g     F .text	00000078 _read_r
0100dbac g     O .rwdata	0000000c __lc_ctype
0100f248 g     O .rwdata	00000004 alt_max_fd
01009c1c g     F .text	00000138 __unpack_d
010074f0 g     F .text	00000110 _fclose_r
01003f4c g     F .text	00000034 fflush
01010d24 g     O .bss	00000004 __malloc_max_sbrked_mem
01008944 g     F .text	00000074 __adddf3
01005ba0 g     F .text	00000120 __b2d
01007e54 g     F .text	00000660 __umoddi3
0100a2f0 g     F .text	000000f4 lseek
0100f224 g     O .rwdata	00000004 _global_impure_ptr
010069f0 g     F .text	000005f4 _realloc_r
01011000 g       *ABS*	00000000 __bss_end
0100c284 g     F .text	000000f8 alt_iic_isr_register
0100c848 g     F .text	0000010c alt_tick
010077e8 g     F .text	0000066c __udivdi3
0100d5d8 g     O .rodata	00000028 __mprec_bigtens
010068d0 g     F .text	00000120 __s2b
0100944c g     F .text	00000194 __floatunsidf
01005ac0 g     F .text	00000060 __mcmp
010040b4 g     F .text	00000018 __fp_lock_all
0100c23c g     F .text	00000048 alt_ic_irq_enabled
0100c7b0 g     F .text	00000098 alt_alarm_stop
01010d3c g     O .bss	00000004 alt_irq_active
010000ec g     F .exceptions	000000c8 alt_irq_handler
0100dfc0 g     O .rwdata	00000028 alt_dev_null
0100bc40 g     F .text	00000034 alt_up_character_lcd_cursor_blink_on
0100bc74 g     F .text	00000040 alt_up_parallel_port_open_dev
0100be08 g     F .text	0000001c alt_dcache_flush_all
0100598c g     F .text	00000070 __hi0bits
01009374 g     F .text	000000d8 __fixdfsi
0100f260 g       *ABS*	00000000 __ram_rwdata_end
0100f240 g     O .rwdata	00000008 alt_dev_list
0100aa40 g     F .text	00000124 write
0100cd28 g     F .text	000000e8 _putc_r
0100d7ac g       *ABS*	00000000 __ram_rodata_end
01009fa8 g     F .text	000000d8 fstat
010067b0 g     F .text	00000120 __pow5mult
01010d14 g     O .bss	00000004 __nlocale_changed
01009724 g     F .text	00000008 __umodsi3
01011000 g       *ABS*	00000000 end
0100ade0 g     F .text	000000c0 altera_avalon_jtag_uart_init
0100d2a4 g       *ABS*	00000000 __CTOR_LIST__
01800000 g       *ABS*	00000000 __alt_stack_pointer
01009888 g     F .text	00000080 __clzsi2
0100b504 g     F .text	00000240 altera_avalon_jtag_uart_write
01003fd8 g     F .text	00000004 __sfp_lock_acquire
01005668 g     F .text	000000e4 memchr
0100b868 g     F .text	00000078 alt_up_character_lcd_write
01000534 g     F .text	00001ec4 ___vfprintf_internal_r
010043a0 g     F .text	00000314 _free_r
0100a4f0 g     F .text	00000258 alt_printf
0100d094 g     F .text	000001b0 __call_exitprocs
01010d18 g     O .bss	00000004 __mlocale_changed
0100f234 g     O .rwdata	00000004 __malloc_sbrk_base
010001b4 g     F .text	0000003c _start
01010d40 g     O .bss	00000004 _alt_tick_rate
010062a8 g     F .text	0000014c __lshift
01010d44 g     O .bss	00000004 _alt_nticks
0100a788 g     F .text	00000124 read
0100abf8 g     F .text	00000068 alt_sys_init
0100bacc g     F .text	000000b0 alt_up_character_lcd_shift_display
0100cf5c g     F .text	00000134 __register_exitproc
010063f4 g     F .text	00000254 __multiply
0100bb7c g     F .text	00000090 alt_up_character_lcd_erase_pos
0100b178 g     F .text	00000074 altera_avalon_jtag_uart_close
0100972c g     F .text	00000038 __mulsi3
0100d7ac g       *ABS*	00000000 __ram_rwdata_start
0100d2a8 g       *ABS*	00000000 __ram_rodata_start
01010d48 g     O .bss	00000028 __malloc_current_mallinfo
01005fa0 g     F .text	0000017c __d2b
0100ac98 g     F .text	00000058 altera_avalon_jtag_uart_read_fd
0100ca94 g     F .text	000000d0 alt_get_fd
01009d54 g     F .text	000000c8 __fpcmp_parts_d
01007480 g     F .text	00000070 _close_r
0100cbb0 g     F .text	00000074 memcmp
0100ad48 g     F .text	00000048 altera_avalon_jtag_uart_close_fd
01011000 g       *ABS*	00000000 __alt_stack_base
0100ad90 g     F .text	00000050 altera_avalon_jtag_uart_ioctl_fd
0100241c g     F .text	0000013c __swsetup_r
01008d7c g     F .text	00000258 __divdf3
01004184 g     F .text	000000f0 __sfp
01005e04 g     F .text	00000058 __copybits
0100dbb8 g     O .rwdata	00000408 __malloc_av_
01003fe4 g     F .text	00000004 __sinit_lock_release
010089b8 g     F .text	000003c4 __muldf3
010071b0 g     F .text	00000060 __sread
0100c974 g     F .text	00000120 alt_find_file
0100be24 g     F .text	000000b4 alt_dev_llist_insert
0100a4b0 g     F .text	00000020 __malloc_lock
0100a984 g     F .text	000000bc sbrk
01003d50 g     F .text	000001fc _fflush_r
010073b8 g     F .text	000000c8 _calloc_r
01010d14 g       *ABS*	00000000 __bss_start
010058cc g     F .text	00000098 memset
010001f0 g     F .text	00000274 main
01010d38 g     O .bss	00000004 alt_envp
01010d28 g     O .bss	00000004 __malloc_max_total_mem
0100acf0 g     F .text	00000058 altera_avalon_jtag_uart_write_fd
0100cf40 g     F .text	0000001c __swbuf
0100ba1c g     F .text	000000b0 alt_up_character_lcd_shift_cursor
010070c4 g     F .text	00000008 __sclose
01800000 g       *ABS*	00000000 __alt_heap_limit
01007600 g     F .text	00000014 fclose
01010e70 g     O .bss	00000190 _atexit0
0100279c g     F .text	000015b4 _dtoa_r
01004f28 g     F .text	00000740 _malloc_r
0100f24c g     O .rwdata	00000004 alt_errno
01004c18 g     F .text	000000b8 _fwalk
0100cc24 g     F .text	00000104 putc
0100965c g     F .text	00000060 __divsi3
0100d634 g     O .rodata	00000014 __thenan_df
0100b828 g     F .text	00000040 alt_up_character_lcd_open_dev
01004274 g     F .text	0000012c _malloc_trim_r
0100d2a8 g       *ABS*	00000000 __CTOR_END__
0100b7f4 g     F .text	00000034 alt_up_character_lcd_init
01007210 g     F .text	000000bc strcmp
0100d2a8 g       *ABS*	00000000 __flash_rodata_start
0100d2a8 g       *ABS*	00000000 __DTOR_LIST__
0100905c g     F .text	00000088 __nedf2
0100abc4 g     F .text	00000034 alt_irq_init
0100a90c g     F .text	00000078 alt_release_fd
0100bc0c g     F .text	00000034 alt_up_character_lcd_cursor_off
0100d648 g     O .rodata	00000100 __clz_tab
01010d1c g     O .bss	00000004 _PathLocale
0100cb64 g     F .text	00000014 atexit
01007340 g     F .text	00000078 _write_r
01004d78 g     F .text	0000001c setlocale
0100f220 g     O .rwdata	00000004 _impure_ptr
01010d30 g     O .bss	00000004 alt_argc
0100bf9c g     F .text	00000064 _do_dtors
01000020 g       .exceptions	00000000 alt_irq_entry
01005b20 g     F .text	00000080 __ulp
01006fe4 g     F .text	00000040 __isinfd
0100409c g     F .text	00000018 __fp_unlock_all
0100f238 g     O .rwdata	00000008 alt_fs_list
01000020 g       *ABS*	00000000 __ram_exceptions_start
01004ce4 g     F .text	00000010 localeconv
0100c0b0 g     F .text	00000050 alt_ic_isr_register
0100f260 g       *ABS*	00000000 _edata
01011000 g       *ABS*	00000000 _end
010001b4 g       *ABS*	00000000 __ram_exceptions_end
0100b1ec g     F .text	000000f4 altera_avalon_jtag_uart_ioctl
0100c19c g     F .text	000000a0 alt_ic_irq_disable
01007134 g     F .text	0000007c __swrite
0100f230 g     O .rwdata	00000004 __malloc_trim_threshold
0100c954 g     F .text	00000020 altera_nios2_qsys_irq_init
0100cb78 g     F .text	00000038 exit
01004b50 g     F .text	000000c8 _fwalk_reent
0100611c g     F .text	0000018c __mdiff
010096bc g     F .text	00000060 __modsi3
01800000 g       *ABS*	00000000 __alt_data_end
01000020 g     F .exceptions	00000000 alt_exception
01003fdc g     F .text	00000004 __sfp_lock_release
01000000 g       *ABS*	00000000 __alt_mem_sdram
0100b8e0 g     F .text	00000078 alt_up_character_lcd_string
0100d284 g     F .text	00000020 _exit
01007024 g     F .text	00000030 __isnand
0100bcb4 g     F .text	00000154 alt_alarm_start
01009764 g     F .text	00000124 __muldi3
01004d94 g     F .text	00000194 __smakebuf_r
010072cc g     F .text	00000074 strlen
0100c5c4 g     F .text	0000018c open
0100916c g     F .text	00000088 __gedf2
0100a748 g     F .text	00000040 alt_putchar
0100c094 g     F .text	0000001c alt_icache_flush_all
0100b9a4 g     F .text	00000078 alt_up_character_lcd_set_cursor_pos
0100f254 g     O .rwdata	00000004 alt_priority_mask
0100c100 g     F .text	0000009c alt_ic_irq_enable
010023f8 g     F .text	00000024 __vfprintf_internal
010088c4 g     F .text	00000080 __subdf3
010059fc g     F .text	000000c4 __lo0bits
0100f258 g     O .rwdata	00000008 alt_alarm_list
0100bf38 g     F .text	00000064 _do_ctors
01009e1c g     F .text	00000100 close
0100a204 g     F .text	00000080 alt_load
01009908 g     F .text	00000314 __pack_d
00000000  w      *UND*	00000000 free
01003fe0 g     F .text	00000004 __sinit_lock_acquire
01006684 g     F .text	0000012c __multadd
01005964 g     F .text	00000028 _Bfree



Disassembly of section .entry:

01000000 <__reset>:
 * Jump to the _start entry point in the .text section if reset code
 * is allowed or if optimizing for RTL simulation.
 */
#if defined(ALT_ALLOW_CODE_AT_RESET) || defined(ALT_SIM_OPTIMIZE)
    /* Jump to the _start entry point in the .text section. */
    movhi r1, %hi(_start)
 1000000:	00404034 	movhi	at,256
    ori r1, r1, %lo(_start)
 1000004:	08406d14 	ori	at,at,436
    jmp r1
 1000008:	0800683a 	jmp	at
	...

Disassembly of section .exceptions:

01000020 <alt_exception>:
         * Process an exception.  For all exceptions we must preserve all
         * caller saved registers on the stack (See the Nios2 ABI
         * documentation for details).
         */

        addi  sp, sp, -76
 1000020:	deffed04 	addi	sp,sp,-76

#endif

#endif

        stw   ra,  0(sp)
 1000024:	dfc00015 	stw	ra,0(sp)
        /*
         * Leave a gap in the stack frame at 4(sp) for the muldiv handler to
         * store zero into.
         */

        stw   r1,   8(sp)
 1000028:	d8400215 	stw	at,8(sp)
        stw   r2,  12(sp)
 100002c:	d8800315 	stw	r2,12(sp)
        stw   r3,  16(sp)
 1000030:	d8c00415 	stw	r3,16(sp)
        stw   r4,  20(sp)
 1000034:	d9000515 	stw	r4,20(sp)
        stw   r5,  24(sp)
 1000038:	d9400615 	stw	r5,24(sp)
        stw   r6,  28(sp)
 100003c:	d9800715 	stw	r6,28(sp)
        stw   r7,  32(sp)
 1000040:	d9c00815 	stw	r7,32(sp)

        rdctl r5, estatus
 1000044:	000b307a 	rdctl	r5,estatus

        stw   r8,  36(sp)
 1000048:	da000915 	stw	r8,36(sp)
        stw   r9,  40(sp)
 100004c:	da400a15 	stw	r9,40(sp)
        stw   r10, 44(sp)
 1000050:	da800b15 	stw	r10,44(sp)
        stw   r11, 48(sp)
 1000054:	dac00c15 	stw	r11,48(sp)
        stw   r12, 52(sp)
 1000058:	db000d15 	stw	r12,52(sp)
        stw   r13, 56(sp)
 100005c:	db400e15 	stw	r13,56(sp)
        stw   r14, 60(sp)
 1000060:	db800f15 	stw	r14,60(sp)
        stw   r15, 64(sp)
 1000064:	dbc01015 	stw	r15,64(sp)
        /*
         * ea-4 contains the address of the instruction being executed
         * when the exception occured. For interrupt exceptions, we will
         * will be re-issue the isntruction. Store it in 72(sp)
         */
        stw   r5,  68(sp)  /* estatus */
 1000068:	d9401115 	stw	r5,68(sp)
        addi  r15, ea, -4  /* instruction that caused exception */
 100006c:	ebffff04 	addi	r15,ea,-4
        stw   r15,  72(sp)
 1000070:	dbc01215 	stw	r15,72(sp)
#else
        /*
         * Test to see if the exception was a software exception or caused 
         * by an external interrupt, and vector accordingly.
         */
        rdctl r4, ipending
 1000074:	0009313a 	rdctl	r4,ipending
        andi  r2, r5, 1
 1000078:	2880004c 	andi	r2,r5,1
        beq   r2, zero, .Lnot_irq
 100007c:	10000326 	beq	r2,zero,100008c <alt_exception+0x6c>
        beq   r4, zero, .Lnot_irq
 1000080:	20000226 	beq	r4,zero,100008c <alt_exception+0x6c>
        /*
         * Now that all necessary registers have been preserved, call 
         * alt_irq_handler() to process the interrupts.
         */

        call alt_irq_handler
 1000084:	10000ec0 	call	10000ec <alt_irq_handler>

        .section .exceptions.irqreturn, "xa"

        br    .Lexception_exit
 1000088:	00000306 	br	1000098 <alt_exception+0x78>
         * upon completion, so we write ea (address of instruction *after*
         * the one where the exception occured) into 72(sp). The actual
         * instruction that caused the exception is written in r2, which these
         * handlers will utilize.
         */
        stw   ea,  72(sp)  /* Don't re-issue */
 100008c:	df401215 	stw	ea,72(sp)
        ldw   r2, -4(ea)   /* Instruction that caused exception */
 1000090:	e8bfff17 	ldw	r2,-4(ea)
#ifdef NIOS2_HAS_DEBUG_STUB
       /*
        *  Either tell the user now (if there is a debugger attached) or go into
        *  the debug monitor which will loop until a debugger is attached.
        */
        break
 1000094:	003da03a 	break	0
        /* 
         * Restore the saved registers, so that all general purpose registers 
         * have been restored to their state at the time the interrupt occured.
         */

        ldw   r5,  68(sp)
 1000098:	d9401117 	ldw	r5,68(sp)
        ldw   ea,  72(sp)  /* This becomes the PC once eret is executed */
 100009c:	df401217 	ldw	ea,72(sp)
        ldw   ra,   0(sp)
 10000a0:	dfc00017 	ldw	ra,0(sp)

        wrctl estatus, r5
 10000a4:	2801707a 	wrctl	estatus,r5

        ldw   r1,   8(sp)
 10000a8:	d8400217 	ldw	at,8(sp)
        ldw   r2,  12(sp)
 10000ac:	d8800317 	ldw	r2,12(sp)
        ldw   r3,  16(sp)
 10000b0:	d8c00417 	ldw	r3,16(sp)
        ldw   r4,  20(sp)
 10000b4:	d9000517 	ldw	r4,20(sp)
        ldw   r5,  24(sp)
 10000b8:	d9400617 	ldw	r5,24(sp)
        ldw   r6,  28(sp)
 10000bc:	d9800717 	ldw	r6,28(sp)
        ldw   r7,  32(sp)
 10000c0:	d9c00817 	ldw	r7,32(sp)
#ifdef ALT_STACK_CHECK
        ldw   et, %gprel(alt_exception_old_stack_limit)(gp)
#endif
#endif

        ldw   r8,  36(sp)
 10000c4:	da000917 	ldw	r8,36(sp)
        ldw   r9,  40(sp)
 10000c8:	da400a17 	ldw	r9,40(sp)
        ldw   r10, 44(sp)
 10000cc:	da800b17 	ldw	r10,44(sp)
        ldw   r11, 48(sp)
 10000d0:	dac00c17 	ldw	r11,48(sp)
        ldw   r12, 52(sp)
 10000d4:	db000d17 	ldw	r12,52(sp)
        ldw   r13, 56(sp)
 10000d8:	db400e17 	ldw	r13,56(sp)
        ldw   r14, 60(sp)
 10000dc:	db800f17 	ldw	r14,60(sp)
        ldw   r15, 64(sp)
 10000e0:	dbc01017 	ldw	r15,64(sp)
#endif

        ldw   sp,  76(sp)

#else
        addi  sp, sp, 76
 10000e4:	dec01304 	addi	sp,sp,76

        /*
         * Return to the interrupted instruction.
         */

        eret
 10000e8:	ef80083a 	eret

010000ec <alt_irq_handler>:
 * instruction is present if the macro ALT_CI_INTERRUPT_VECTOR defined.
 */

void alt_irq_handler (void) __attribute__ ((section (".exceptions")));
void alt_irq_handler (void)
{
 10000ec:	defff904 	addi	sp,sp,-28
 10000f0:	dfc00615 	stw	ra,24(sp)
 10000f4:	df000515 	stw	fp,20(sp)
 10000f8:	df000504 	addi	fp,sp,20
#ifndef NIOS2_EIC_PRESENT
static ALT_INLINE alt_u32 ALT_ALWAYS_INLINE alt_irq_pending (void)
{
  alt_u32 active;

  NIOS2_READ_IPENDING (active);
 10000fc:	0005313a 	rdctl	r2,ipending
 1000100:	e0bffc15 	stw	r2,-16(fp)

  return active;
 1000104:	e0bffc17 	ldw	r2,-16(fp)
   * Consider the case where the high priority interupt is asserted during
   * the interrupt entry sequence for a lower priority interrupt to see why
   * this is the case.
   */

  active = alt_irq_pending ();
 1000108:	e0bfff15 	stw	r2,-4(fp)

  do
  {
    i = 0;
 100010c:	e03ffd15 	stw	zero,-12(fp)
    mask = 1;
 1000110:	00800044 	movi	r2,1
 1000114:	e0bffe15 	stw	r2,-8(fp)
     * called to clear the interrupt condition.
     */

    do
    {
      if (active & mask)
 1000118:	e0ffff17 	ldw	r3,-4(fp)
 100011c:	e0bffe17 	ldw	r2,-8(fp)
 1000120:	1884703a 	and	r2,r3,r2
 1000124:	1005003a 	cmpeq	r2,r2,zero
 1000128:	1000161e 	bne	r2,zero,1000184 <alt_irq_handler+0x98>
      { 
#ifdef ALT_ENHANCED_INTERRUPT_API_PRESENT
        alt_irq[i].handler(alt_irq[i].context); 
 100012c:	e0bffd17 	ldw	r2,-12(fp)
 1000130:	00c04074 	movhi	r3,257
 1000134:	18c35c04 	addi	r3,r3,3440
 1000138:	100490fa 	slli	r2,r2,3
 100013c:	10c5883a 	add	r2,r2,r3
 1000140:	11400017 	ldw	r5,0(r2)
 1000144:	e0bffd17 	ldw	r2,-12(fp)
 1000148:	00c04074 	movhi	r3,257
 100014c:	18c35c04 	addi	r3,r3,3440
 1000150:	100490fa 	slli	r2,r2,3
 1000154:	10c5883a 	add	r2,r2,r3
 1000158:	10800104 	addi	r2,r2,4
 100015c:	11000017 	ldw	r4,0(r2)
 1000160:	283ee83a 	callr	r5
#ifndef NIOS2_EIC_PRESENT
static ALT_INLINE alt_u32 ALT_ALWAYS_INLINE alt_irq_pending (void)
{
  alt_u32 active;

  NIOS2_READ_IPENDING (active);
 1000164:	0005313a 	rdctl	r2,ipending
 1000168:	e0bffb15 	stw	r2,-20(fp)

  return active;
 100016c:	e0bffb17 	ldw	r2,-20(fp)
      mask <<= 1;
      i++;

    } while (1);

    active = alt_irq_pending ();
 1000170:	e0bfff15 	stw	r2,-4(fp)
    
  } while (active);
 1000174:	e0bfff17 	ldw	r2,-4(fp)
 1000178:	1004c03a 	cmpne	r2,r2,zero
 100017c:	103fe31e 	bne	r2,zero,100010c <alt_irq_handler+0x20>
 1000180:	00000706 	br	10001a0 <alt_irq_handler+0xb4>
#else
        alt_irq[i].handler(alt_irq[i].context, i); 
#endif
        break;
      }
      mask <<= 1;
 1000184:	e0bffe17 	ldw	r2,-8(fp)
 1000188:	1085883a 	add	r2,r2,r2
 100018c:	e0bffe15 	stw	r2,-8(fp)
      i++;
 1000190:	e0bffd17 	ldw	r2,-12(fp)
 1000194:	10800044 	addi	r2,r2,1
 1000198:	e0bffd15 	stw	r2,-12(fp)

    } while (1);
 100019c:	003fde06 	br	1000118 <alt_irq_handler+0x2c>
  /*
   * Notify the operating system that interrupt processing is complete.
   */ 

  ALT_OS_INT_EXIT();
}
 10001a0:	e037883a 	mov	sp,fp
 10001a4:	dfc00117 	ldw	ra,4(sp)
 10001a8:	df000017 	ldw	fp,0(sp)
 10001ac:	dec00204 	addi	sp,sp,8
 10001b0:	f800283a 	ret

Disassembly of section .text:

010001b4 <_start>:
#if (NIOS2_NUM_OF_SHADOW_REG_SETS == 0)    
    /*
     * Now that the caches are initialized, set up the stack pointer.
     * The value provided by the linker is assumed to be correctly aligned.
     */
    movhi sp, %hi(__alt_stack_pointer)
 10001b4:	06c06034 	movhi	sp,384
    ori sp, sp, %lo(__alt_stack_pointer)
 10001b8:	dec00014 	ori	sp,sp,0

    /* Set up the global pointer. */
    movhi gp, %hi(_gp)
 10001bc:	06804074 	movhi	gp,257
    ori gp, gp, %lo(_gp)
 10001c0:	d69c8814 	ori	gp,gp,29216
 */
#ifndef ALT_SIM_OPTIMIZE
    /* Log that the BSS is about to be cleared. */
    ALT_LOG_PUTS(alt_log_msg_bss)

    movhi r2, %hi(__bss_start)
 10001c4:	00804074 	movhi	r2,257
    ori r2, r2, %lo(__bss_start)
 10001c8:	10834514 	ori	r2,r2,3348

    movhi r3, %hi(__bss_end)
 10001cc:	00c04074 	movhi	r3,257
    ori r3, r3, %lo(__bss_end)
 10001d0:	18c40014 	ori	r3,r3,4096

    beq r2, r3, 1f
 10001d4:	10c00326 	beq	r2,r3,10001e4 <_start+0x30>

0:
    stw zero, (r2)
 10001d8:	10000015 	stw	zero,0(r2)
    addi r2, r2, 4
 10001dc:	10800104 	addi	r2,r2,4
    bltu r2, r3, 0b
 10001e0:	10fffd36 	bltu	r2,r3,10001d8 <_start+0x24>
     * section aren't defined until alt_load() has been called).
     */
    mov   et, zero
#endif

    call alt_load
 10001e4:	100a2040 	call	100a204 <alt_load>

    /* Log that alt_main is about to be called. */
    ALT_LOG_PUTS(alt_log_msg_alt_main)

    /* Call the C entry point. It should never return. */
    call alt_main
 10001e8:	100a4440 	call	100a444 <alt_main>

010001ec <alt_after_alt_main>:

    /* Wait in infinite loop in case alt_main does return. */
alt_after_alt_main:
    br alt_after_alt_main
 10001ec:	003fff06 	br	10001ec <alt_after_alt_main>

010001f0 <main>:


// Do something for the sum!!!!

int main(void)
{
 10001f0:	defff904 	addi	sp,sp,-28
 10001f4:	dfc00615 	stw	ra,24(sp)
 10001f8:	df000515 	stw	fp,20(sp)
 10001fc:	df000504 	addi	fp,sp,20
	alt_up_character_lcd_dev * char_lcd_dev;
	alt_up_parallel_port_dev* parallel_port_dev;
	unsigned int key;
	char *key_str;
	// open the Character LCD port
	char_lcd_dev = alt_up_character_lcd_open_dev ("/dev/character_lcd_0");
 1000200:	01004074 	movhi	r4,257
 1000204:	2134aa04 	addi	r4,r4,-11608
 1000208:	100b8280 	call	100b828 <alt_up_character_lcd_open_dev>
 100020c:	e0bfff15 	stw	r2,-4(fp)
	parallel_port_dev = alt_up_parallel_port_open_dev("/dev/parallel_port_0");
 1000210:	01004074 	movhi	r4,257
 1000214:	2134b004 	addi	r4,r4,-11584
 1000218:	100bc740 	call	100bc74 <alt_up_parallel_port_open_dev>
 100021c:	e0bffe15 	stw	r2,-8(fp)

	if ( char_lcd_dev == NULL)
 1000220:	e0bfff17 	ldw	r2,-4(fp)
 1000224:	1004c03a 	cmpne	r2,r2,zero
 1000228:	1000041e 	bne	r2,zero,100023c <main+0x4c>
		alt_printf ("Error: could not open character LCD device\n");
 100022c:	01004074 	movhi	r4,257
 1000230:	2134b604 	addi	r4,r4,-11560
 1000234:	100a4f00 	call	100a4f0 <alt_printf>
 1000238:	00000306 	br	1000248 <main+0x58>
	else
		alt_printf ("Opened character LCD device\n");
 100023c:	01004074 	movhi	r4,257
 1000240:	2134c104 	addi	r4,r4,-11516
 1000244:	100a4f00 	call	100a4f0 <alt_printf>

	if (parallel_port_dev == NULL)
 1000248:	e0bffe17 	ldw	r2,-8(fp)
 100024c:	1004c03a 	cmpne	r2,r2,zero
 1000250:	1000041e 	bne	r2,zero,1000264 <main+0x74>
		alt_printf ("Error: could not open Parallel Port device\n");
 1000254:	01004074 	movhi	r4,257
 1000258:	2134c904 	addi	r4,r4,-11484
 100025c:	100a4f00 	call	100a4f0 <alt_printf>
 1000260:	00000306 	br	1000270 <main+0x80>
	else
		alt_printf ("Opened Parallel Port device\n");
 1000264:	01004074 	movhi	r4,257
 1000268:	2134d404 	addi	r4,r4,-11440
 100026c:	100a4f00 	call	100a4f0 <alt_printf>

	/* Initialize the character display */
	alt_up_character_lcd_init (char_lcd_dev);
 1000270:	e13fff17 	ldw	r4,-4(fp)
 1000274:	100b7f40 	call	100b7f4 <alt_up_character_lcd_init>

	/* Write in the first row */
	alt_up_character_lcd_string(char_lcd_dev, "Keys pressed:");
 1000278:	e13fff17 	ldw	r4,-4(fp)
 100027c:	01404074 	movhi	r5,257
 1000280:	2974dc04 	addi	r5,r5,-11408
 1000284:	100b8e00 	call	100b8e0 <alt_up_character_lcd_string>
 1000288:	00000006 	br	100028c <main+0x9c>

	while(1){
		key = alt_up_parallel_port_read_data(parallel_port_dev);
 100028c:	e0bffe17 	ldw	r2,-8(fp)
 1000290:	10800a17 	ldw	r2,40(r2)
 1000294:	10800037 	ldwio	r2,0(r2)
 1000298:	e0bffd15 	stw	r2,-12(fp)

		if (key != 0){
 100029c:	e0bffd17 	ldw	r2,-12(fp)
 10002a0:	1005003a 	cmpeq	r2,r2,zero
 10002a4:	1000641e 	bne	r2,zero,1000438 <main+0x248>
			unsigned int mask = 8;
 10002a8:	00800204 	movi	r2,8
 10002ac:	e0bffb15 	stw	r2,-20(fp)
			printf("%d\n", key);/* Write in the second row */
 10002b0:	01004074 	movhi	r4,257
 10002b4:	2134e004 	addi	r4,r4,-11392
 10002b8:	e17ffd17 	ldw	r5,-12(fp)
 10002bc:	10004640 	call	1000464 <printf>

			switch(key){
 10002c0:	e0bffd17 	ldw	r2,-12(fp)
 10002c4:	10800428 	cmpgeui	r2,r2,16
 10002c8:	1000531e 	bne	r2,zero,1000418 <main+0x228>
 10002cc:	e0bffd17 	ldw	r2,-12(fp)
 10002d0:	1085883a 	add	r2,r2,r2
 10002d4:	1087883a 	add	r3,r2,r2
 10002d8:	00804034 	movhi	r2,256
 10002dc:	1080bb04 	addi	r2,r2,748
 10002e0:	1885883a 	add	r2,r3,r2
 10002e4:	10800017 	ldw	r2,0(r2)
 10002e8:	1000683a 	jmp	r2
 10002ec:	01000418 	cmpnei	r4,zero,16
 10002f0:	0100032c 	andhi	r4,zero,12
 10002f4:	0100033c 	xorhi	r4,zero,12
 10002f8:	0100034c 	andi	r4,zero,13
 10002fc:	0100035c 	xori	r4,zero,13
 1000300:	0100036c 	andhi	r4,zero,13
 1000304:	0100037c 	xorhi	r4,zero,13
 1000308:	0100038c 	andi	r4,zero,14
 100030c:	0100039c 	xori	r4,zero,14
 1000310:	010003ac 	andhi	r4,zero,14
 1000314:	010003bc 	xorhi	r4,zero,14
 1000318:	010003cc 	andi	r4,zero,15
 100031c:	010003dc 	xori	r4,zero,15
 1000320:	010003ec 	andhi	r4,zero,15
 1000324:	010003fc 	xorhi	r4,zero,15
 1000328:	0100040c 	andi	r4,zero,16
				case 1:
					key_str = "0      ";
 100032c:	00804074 	movhi	r2,257
 1000330:	10b4e104 	addi	r2,r2,-11388
 1000334:	e0bffc15 	stw	r2,-16(fp)
					break;
 1000338:	00003706 	br	1000418 <main+0x228>
				case 2:
					key_str = "1      ";
 100033c:	00804074 	movhi	r2,257
 1000340:	10b4e304 	addi	r2,r2,-11380
 1000344:	e0bffc15 	stw	r2,-16(fp)
					break;
 1000348:	00003306 	br	1000418 <main+0x228>
				case 3:
					key_str = "0 1      ";
 100034c:	00804074 	movhi	r2,257
 1000350:	10b4e504 	addi	r2,r2,-11372
 1000354:	e0bffc15 	stw	r2,-16(fp)
					break;
 1000358:	00002f06 	br	1000418 <main+0x228>
				case 4:
					key_str = "2      ";
 100035c:	00804074 	movhi	r2,257
 1000360:	10b4e804 	addi	r2,r2,-11360
 1000364:	e0bffc15 	stw	r2,-16(fp)
					break;
 1000368:	00002b06 	br	1000418 <main+0x228>
				case 5:
					key_str = "0 2      ";
 100036c:	00804074 	movhi	r2,257
 1000370:	10b4ea04 	addi	r2,r2,-11352
 1000374:	e0bffc15 	stw	r2,-16(fp)
					break;
 1000378:	00002706 	br	1000418 <main+0x228>
				case 6:
					key_str = "1 2      ";
 100037c:	00804074 	movhi	r2,257
 1000380:	10b4ed04 	addi	r2,r2,-11340
 1000384:	e0bffc15 	stw	r2,-16(fp)
					break;
 1000388:	00002306 	br	1000418 <main+0x228>
				case 7:
					key_str = "0 1 2    ";
 100038c:	00804074 	movhi	r2,257
 1000390:	10b4f004 	addi	r2,r2,-11328
 1000394:	e0bffc15 	stw	r2,-16(fp)
					break;
 1000398:	00001f06 	br	1000418 <main+0x228>
				case 8:
					key_str = "3        ";
 100039c:	00804074 	movhi	r2,257
 10003a0:	10b4f304 	addi	r2,r2,-11316
 10003a4:	e0bffc15 	stw	r2,-16(fp)
					break;
 10003a8:	00001b06 	br	1000418 <main+0x228>
				case 9:
					key_str = "0 3      ";
 10003ac:	00804074 	movhi	r2,257
 10003b0:	10b4f604 	addi	r2,r2,-11304
 10003b4:	e0bffc15 	stw	r2,-16(fp)
					break;
 10003b8:	00001706 	br	1000418 <main+0x228>
				case 10:
					key_str = "1 3      ";
 10003bc:	00804074 	movhi	r2,257
 10003c0:	10b4f904 	addi	r2,r2,-11292
 10003c4:	e0bffc15 	stw	r2,-16(fp)
					break;
 10003c8:	00001306 	br	1000418 <main+0x228>
				case 11:
					key_str = "0 1 3    ";
 10003cc:	00804074 	movhi	r2,257
 10003d0:	10b4fc04 	addi	r2,r2,-11280
 10003d4:	e0bffc15 	stw	r2,-16(fp)
					break;
 10003d8:	00000f06 	br	1000418 <main+0x228>
				case 12:
					key_str = "2 3      ";
 10003dc:	00804074 	movhi	r2,257
 10003e0:	10b4ff04 	addi	r2,r2,-11268
 10003e4:	e0bffc15 	stw	r2,-16(fp)
					break;
 10003e8:	00000b06 	br	1000418 <main+0x228>
				case 13:
					key_str = "0 2 3    ";
 10003ec:	00804074 	movhi	r2,257
 10003f0:	10b50204 	addi	r2,r2,-11256
 10003f4:	e0bffc15 	stw	r2,-16(fp)
					break;
 10003f8:	00000706 	br	1000418 <main+0x228>
				case 14:
					key_str = "1 2 3    ";
 10003fc:	00804074 	movhi	r2,257
 1000400:	10b50504 	addi	r2,r2,-11244
 1000404:	e0bffc15 	stw	r2,-16(fp)
					break;
 1000408:	00000306 	br	1000418 <main+0x228>
				case 15:
					key_str = "0 1 2 3  ";
 100040c:	00804074 	movhi	r2,257
 1000410:	10b50804 	addi	r2,r2,-11232
 1000414:	e0bffc15 	stw	r2,-16(fp)
					break;
			}

			alt_up_character_lcd_set_cursor_pos(char_lcd_dev, 0, 1);
 1000418:	e13fff17 	ldw	r4,-4(fp)
 100041c:	000b883a 	mov	r5,zero
 1000420:	01800044 	movi	r6,1
 1000424:	100b9a40 	call	100b9a4 <alt_up_character_lcd_set_cursor_pos>
			alt_up_character_lcd_string(char_lcd_dev, key_str);
 1000428:	e13fff17 	ldw	r4,-4(fp)
 100042c:	e17ffc17 	ldw	r5,-16(fp)
 1000430:	100b8e00 	call	100b8e0 <alt_up_character_lcd_string>
 1000434:	003f9506 	br	100028c <main+0x9c>
		}
		else{
			key_str = "             \0";
 1000438:	00804074 	movhi	r2,257
 100043c:	10b50b04 	addi	r2,r2,-11220
 1000440:	e0bffc15 	stw	r2,-16(fp)
			alt_up_character_lcd_set_cursor_pos(char_lcd_dev, 0, 1);
 1000444:	e13fff17 	ldw	r4,-4(fp)
 1000448:	000b883a 	mov	r5,zero
 100044c:	01800044 	movi	r6,1
 1000450:	100b9a40 	call	100b9a4 <alt_up_character_lcd_set_cursor_pos>
			alt_up_character_lcd_string(char_lcd_dev, key_str);
 1000454:	e13fff17 	ldw	r4,-4(fp)
 1000458:	e17ffc17 	ldw	r5,-16(fp)
 100045c:	100b8e00 	call	100b8e0 <alt_up_character_lcd_string>
		}
	}
 1000460:	003f8a06 	br	100028c <main+0x9c>

01000464 <printf>:
 1000464:	defffb04 	addi	sp,sp,-20
 1000468:	dfc00115 	stw	ra,4(sp)
 100046c:	d9400215 	stw	r5,8(sp)
 1000470:	d9800315 	stw	r6,12(sp)
 1000474:	d9c00415 	stw	r7,16(sp)
 1000478:	00804074 	movhi	r2,257
 100047c:	10bc8804 	addi	r2,r2,-3552
 1000480:	10c00017 	ldw	r3,0(r2)
 1000484:	200b883a 	mov	r5,r4
 1000488:	d8800204 	addi	r2,sp,8
 100048c:	19000217 	ldw	r4,8(r3)
 1000490:	100d883a 	mov	r6,r2
 1000494:	d8800015 	stw	r2,0(sp)
 1000498:	10023f80 	call	10023f8 <__vfprintf_internal>
 100049c:	dfc00117 	ldw	ra,4(sp)
 10004a0:	dec00504 	addi	sp,sp,20
 10004a4:	f800283a 	ret

010004a8 <_printf_r>:
 10004a8:	defffc04 	addi	sp,sp,-16
 10004ac:	dfc00115 	stw	ra,4(sp)
 10004b0:	d9800215 	stw	r6,8(sp)
 10004b4:	d9c00315 	stw	r7,12(sp)
 10004b8:	280d883a 	mov	r6,r5
 10004bc:	21400217 	ldw	r5,8(r4)
 10004c0:	d8c00204 	addi	r3,sp,8
 10004c4:	180f883a 	mov	r7,r3
 10004c8:	d8c00015 	stw	r3,0(sp)
 10004cc:	10005340 	call	1000534 <___vfprintf_internal_r>
 10004d0:	dfc00117 	ldw	ra,4(sp)
 10004d4:	dec00404 	addi	sp,sp,16
 10004d8:	f800283a 	ret

010004dc <__sprint_r>:
 10004dc:	30800217 	ldw	r2,8(r6)
 10004e0:	defffe04 	addi	sp,sp,-8
 10004e4:	dc000015 	stw	r16,0(sp)
 10004e8:	dfc00115 	stw	ra,4(sp)
 10004ec:	3021883a 	mov	r16,r6
 10004f0:	0007883a 	mov	r3,zero
 10004f4:	1000061e 	bne	r2,zero,1000510 <__sprint_r+0x34>
 10004f8:	1805883a 	mov	r2,r3
 10004fc:	30000115 	stw	zero,4(r6)
 1000500:	dfc00117 	ldw	ra,4(sp)
 1000504:	dc000017 	ldw	r16,0(sp)
 1000508:	dec00204 	addi	sp,sp,8
 100050c:	f800283a 	ret
 1000510:	10046b40 	call	10046b4 <__sfvwrite_r>
 1000514:	1007883a 	mov	r3,r2
 1000518:	1805883a 	mov	r2,r3
 100051c:	80000115 	stw	zero,4(r16)
 1000520:	80000215 	stw	zero,8(r16)
 1000524:	dfc00117 	ldw	ra,4(sp)
 1000528:	dc000017 	ldw	r16,0(sp)
 100052c:	dec00204 	addi	sp,sp,8
 1000530:	f800283a 	ret

01000534 <___vfprintf_internal_r>:
 1000534:	defea404 	addi	sp,sp,-1392
 1000538:	dd815815 	stw	r22,1376(sp)
 100053c:	dc015215 	stw	r16,1352(sp)
 1000540:	d9c15115 	stw	r7,1348(sp)
 1000544:	dfc15b15 	stw	ra,1388(sp)
 1000548:	df015a15 	stw	fp,1384(sp)
 100054c:	ddc15915 	stw	r23,1380(sp)
 1000550:	dd415715 	stw	r21,1372(sp)
 1000554:	dd015615 	stw	r20,1368(sp)
 1000558:	dcc15515 	stw	r19,1364(sp)
 100055c:	dc815415 	stw	r18,1360(sp)
 1000560:	dc415315 	stw	r17,1356(sp)
 1000564:	282d883a 	mov	r22,r5
 1000568:	3021883a 	mov	r16,r6
 100056c:	d9014f15 	stw	r4,1340(sp)
 1000570:	1004cd80 	call	1004cd8 <_localeconv_r>
 1000574:	10800017 	ldw	r2,0(r2)
 1000578:	d9c15117 	ldw	r7,1348(sp)
 100057c:	d8814915 	stw	r2,1316(sp)
 1000580:	d8814f17 	ldw	r2,1340(sp)
 1000584:	10000226 	beq	r2,zero,1000590 <___vfprintf_internal_r+0x5c>
 1000588:	10800e17 	ldw	r2,56(r2)
 100058c:	10020d26 	beq	r2,zero,1000dc4 <___vfprintf_internal_r+0x890>
 1000590:	b080030b 	ldhu	r2,12(r22)
 1000594:	1080020c 	andi	r2,r2,8
 1000598:	10020e26 	beq	r2,zero,1000dd4 <___vfprintf_internal_r+0x8a0>
 100059c:	b0800417 	ldw	r2,16(r22)
 10005a0:	10020c26 	beq	r2,zero,1000dd4 <___vfprintf_internal_r+0x8a0>
 10005a4:	b200030b 	ldhu	r8,12(r22)
 10005a8:	00800284 	movi	r2,10
 10005ac:	40c0068c 	andi	r3,r8,26
 10005b0:	18802f1e 	bne	r3,r2,1000670 <___vfprintf_internal_r+0x13c>
 10005b4:	b080038f 	ldh	r2,14(r22)
 10005b8:	10002d16 	blt	r2,zero,1000670 <___vfprintf_internal_r+0x13c>
 10005bc:	b240038b 	ldhu	r9,14(r22)
 10005c0:	b2800717 	ldw	r10,28(r22)
 10005c4:	b2c00917 	ldw	r11,36(r22)
 10005c8:	d9014f17 	ldw	r4,1340(sp)
 10005cc:	dc402904 	addi	r17,sp,164
 10005d0:	d8804004 	addi	r2,sp,256
 10005d4:	00c10004 	movi	r3,1024
 10005d8:	423fff4c 	andi	r8,r8,65533
 10005dc:	800d883a 	mov	r6,r16
 10005e0:	880b883a 	mov	r5,r17
 10005e4:	da002c0d 	sth	r8,176(sp)
 10005e8:	da402c8d 	sth	r9,178(sp)
 10005ec:	da803015 	stw	r10,192(sp)
 10005f0:	dac03215 	stw	r11,200(sp)
 10005f4:	d8802d15 	stw	r2,180(sp)
 10005f8:	d8c02e15 	stw	r3,184(sp)
 10005fc:	d8802915 	stw	r2,164(sp)
 1000600:	d8c02b15 	stw	r3,172(sp)
 1000604:	d8002f15 	stw	zero,188(sp)
 1000608:	10005340 	call	1000534 <___vfprintf_internal_r>
 100060c:	d8814b15 	stw	r2,1324(sp)
 1000610:	10000416 	blt	r2,zero,1000624 <___vfprintf_internal_r+0xf0>
 1000614:	d9014f17 	ldw	r4,1340(sp)
 1000618:	880b883a 	mov	r5,r17
 100061c:	1003d500 	call	1003d50 <_fflush_r>
 1000620:	1002321e 	bne	r2,zero,1000eec <___vfprintf_internal_r+0x9b8>
 1000624:	d8802c0b 	ldhu	r2,176(sp)
 1000628:	1080100c 	andi	r2,r2,64
 100062c:	10000326 	beq	r2,zero,100063c <___vfprintf_internal_r+0x108>
 1000630:	b080030b 	ldhu	r2,12(r22)
 1000634:	10801014 	ori	r2,r2,64
 1000638:	b080030d 	sth	r2,12(r22)
 100063c:	d8814b17 	ldw	r2,1324(sp)
 1000640:	dfc15b17 	ldw	ra,1388(sp)
 1000644:	df015a17 	ldw	fp,1384(sp)
 1000648:	ddc15917 	ldw	r23,1380(sp)
 100064c:	dd815817 	ldw	r22,1376(sp)
 1000650:	dd415717 	ldw	r21,1372(sp)
 1000654:	dd015617 	ldw	r20,1368(sp)
 1000658:	dcc15517 	ldw	r19,1364(sp)
 100065c:	dc815417 	ldw	r18,1360(sp)
 1000660:	dc415317 	ldw	r17,1356(sp)
 1000664:	dc015217 	ldw	r16,1352(sp)
 1000668:	dec15c04 	addi	sp,sp,1392
 100066c:	f800283a 	ret
 1000670:	0005883a 	mov	r2,zero
 1000674:	0007883a 	mov	r3,zero
 1000678:	dd401904 	addi	r21,sp,100
 100067c:	d8814215 	stw	r2,1288(sp)
 1000680:	802f883a 	mov	r23,r16
 1000684:	d8c14315 	stw	r3,1292(sp)
 1000688:	d8014b15 	stw	zero,1324(sp)
 100068c:	d8014815 	stw	zero,1312(sp)
 1000690:	d8014415 	stw	zero,1296(sp)
 1000694:	d8014715 	stw	zero,1308(sp)
 1000698:	dd400c15 	stw	r21,48(sp)
 100069c:	d8000e15 	stw	zero,56(sp)
 10006a0:	d8000d15 	stw	zero,52(sp)
 10006a4:	b8800007 	ldb	r2,0(r23)
 10006a8:	10001926 	beq	r2,zero,1000710 <___vfprintf_internal_r+0x1dc>
 10006ac:	00c00944 	movi	r3,37
 10006b0:	10c01726 	beq	r2,r3,1000710 <___vfprintf_internal_r+0x1dc>
 10006b4:	b821883a 	mov	r16,r23
 10006b8:	00000106 	br	10006c0 <___vfprintf_internal_r+0x18c>
 10006bc:	10c00326 	beq	r2,r3,10006cc <___vfprintf_internal_r+0x198>
 10006c0:	84000044 	addi	r16,r16,1
 10006c4:	80800007 	ldb	r2,0(r16)
 10006c8:	103ffc1e 	bne	r2,zero,10006bc <___vfprintf_internal_r+0x188>
 10006cc:	85e7c83a 	sub	r19,r16,r23
 10006d0:	98000e26 	beq	r19,zero,100070c <___vfprintf_internal_r+0x1d8>
 10006d4:	dc800e17 	ldw	r18,56(sp)
 10006d8:	dc400d17 	ldw	r17,52(sp)
 10006dc:	008001c4 	movi	r2,7
 10006e0:	94e5883a 	add	r18,r18,r19
 10006e4:	8c400044 	addi	r17,r17,1
 10006e8:	adc00015 	stw	r23,0(r21)
 10006ec:	dc800e15 	stw	r18,56(sp)
 10006f0:	acc00115 	stw	r19,4(r21)
 10006f4:	dc400d15 	stw	r17,52(sp)
 10006f8:	14428b16 	blt	r2,r17,1001128 <___vfprintf_internal_r+0xbf4>
 10006fc:	ad400204 	addi	r21,r21,8
 1000700:	d9014b17 	ldw	r4,1324(sp)
 1000704:	24c9883a 	add	r4,r4,r19
 1000708:	d9014b15 	stw	r4,1324(sp)
 100070c:	802f883a 	mov	r23,r16
 1000710:	b8800007 	ldb	r2,0(r23)
 1000714:	10013c26 	beq	r2,zero,1000c08 <___vfprintf_internal_r+0x6d4>
 1000718:	bdc00044 	addi	r23,r23,1
 100071c:	d8000405 	stb	zero,16(sp)
 1000720:	b8c00007 	ldb	r3,0(r23)
 1000724:	04ffffc4 	movi	r19,-1
 1000728:	d8014c15 	stw	zero,1328(sp)
 100072c:	d8014a15 	stw	zero,1320(sp)
 1000730:	d8c14d15 	stw	r3,1332(sp)
 1000734:	bdc00044 	addi	r23,r23,1
 1000738:	d9414d17 	ldw	r5,1332(sp)
 100073c:	00801604 	movi	r2,88
 1000740:	28fff804 	addi	r3,r5,-32
 1000744:	10c06036 	bltu	r2,r3,10008c8 <___vfprintf_internal_r+0x394>
 1000748:	18c5883a 	add	r2,r3,r3
 100074c:	1085883a 	add	r2,r2,r2
 1000750:	00c04034 	movhi	r3,256
 1000754:	18c1d904 	addi	r3,r3,1892
 1000758:	10c5883a 	add	r2,r2,r3
 100075c:	11000017 	ldw	r4,0(r2)
 1000760:	2000683a 	jmp	r4
 1000764:	010016d8 	cmpnei	r4,zero,91
 1000768:	010008c8 	cmpgei	r4,zero,35
 100076c:	010008c8 	cmpgei	r4,zero,35
 1000770:	010016c4 	movi	r4,91
 1000774:	010008c8 	cmpgei	r4,zero,35
 1000778:	010008c8 	cmpgei	r4,zero,35
 100077c:	010008c8 	cmpgei	r4,zero,35
 1000780:	010008c8 	cmpgei	r4,zero,35
 1000784:	010008c8 	cmpgei	r4,zero,35
 1000788:	010008c8 	cmpgei	r4,zero,35
 100078c:	010014a4 	muli	r4,zero,82
 1000790:	010016b4 	movhi	r4,90
 1000794:	010008c8 	cmpgei	r4,zero,35
 1000798:	010014bc 	xorhi	r4,zero,82
 100079c:	0100175c 	xori	r4,zero,93
 10007a0:	010008c8 	cmpgei	r4,zero,35
 10007a4:	01001748 	cmpgei	r4,zero,93
 10007a8:	01001704 	movi	r4,92
 10007ac:	01001704 	movi	r4,92
 10007b0:	01001704 	movi	r4,92
 10007b4:	01001704 	movi	r4,92
 10007b8:	01001704 	movi	r4,92
 10007bc:	01001704 	movi	r4,92
 10007c0:	01001704 	movi	r4,92
 10007c4:	01001704 	movi	r4,92
 10007c8:	01001704 	movi	r4,92
 10007cc:	010008c8 	cmpgei	r4,zero,35
 10007d0:	010008c8 	cmpgei	r4,zero,35
 10007d4:	010008c8 	cmpgei	r4,zero,35
 10007d8:	010008c8 	cmpgei	r4,zero,35
 10007dc:	010008c8 	cmpgei	r4,zero,35
 10007e0:	010008c8 	cmpgei	r4,zero,35
 10007e4:	010008c8 	cmpgei	r4,zero,35
 10007e8:	010008c8 	cmpgei	r4,zero,35
 10007ec:	010008c8 	cmpgei	r4,zero,35
 10007f0:	010008c8 	cmpgei	r4,zero,35
 10007f4:	01000f20 	cmpeqi	r4,zero,60
 10007f8:	0100158c 	andi	r4,zero,86
 10007fc:	010008c8 	cmpgei	r4,zero,35
 1000800:	0100158c 	andi	r4,zero,86
 1000804:	010008c8 	cmpgei	r4,zero,35
 1000808:	010008c8 	cmpgei	r4,zero,35
 100080c:	010008c8 	cmpgei	r4,zero,35
 1000810:	010008c8 	cmpgei	r4,zero,35
 1000814:	010016f0 	cmpltui	r4,zero,91
 1000818:	010008c8 	cmpgei	r4,zero,35
 100081c:	010008c8 	cmpgei	r4,zero,35
 1000820:	01000fd4 	movui	r4,63
 1000824:	010008c8 	cmpgei	r4,zero,35
 1000828:	010008c8 	cmpgei	r4,zero,35
 100082c:	010008c8 	cmpgei	r4,zero,35
 1000830:	010008c8 	cmpgei	r4,zero,35
 1000834:	010008c8 	cmpgei	r4,zero,35
 1000838:	01001020 	cmpeqi	r4,zero,64
 100083c:	010008c8 	cmpgei	r4,zero,35
 1000840:	010008c8 	cmpgei	r4,zero,35
 1000844:	01001640 	call	100164 <__alt_mem_onchip_memory2_0+0x100164>
 1000848:	010008c8 	cmpgei	r4,zero,35
 100084c:	010008c8 	cmpgei	r4,zero,35
 1000850:	010008c8 	cmpgei	r4,zero,35
 1000854:	010008c8 	cmpgei	r4,zero,35
 1000858:	010008c8 	cmpgei	r4,zero,35
 100085c:	010008c8 	cmpgei	r4,zero,35
 1000860:	010008c8 	cmpgei	r4,zero,35
 1000864:	010008c8 	cmpgei	r4,zero,35
 1000868:	010008c8 	cmpgei	r4,zero,35
 100086c:	010008c8 	cmpgei	r4,zero,35
 1000870:	01001614 	movui	r4,88
 1000874:	01000f2c 	andhi	r4,zero,60
 1000878:	0100158c 	andi	r4,zero,86
 100087c:	0100158c 	andi	r4,zero,86
 1000880:	0100158c 	andi	r4,zero,86
 1000884:	01001578 	rdprs	r4,zero,85
 1000888:	01000f2c 	andhi	r4,zero,60
 100088c:	010008c8 	cmpgei	r4,zero,35
 1000890:	010008c8 	cmpgei	r4,zero,35
 1000894:	01001500 	call	100150 <__alt_mem_onchip_memory2_0+0x100150>
 1000898:	010008c8 	cmpgei	r4,zero,35
 100089c:	010014d0 	cmplti	r4,zero,83
 10008a0:	01000fe0 	cmpeqi	r4,zero,63
 10008a4:	01001530 	cmpltui	r4,zero,84
 10008a8:	0100151c 	xori	r4,zero,84
 10008ac:	010008c8 	cmpgei	r4,zero,35
 10008b0:	010017c4 	movi	r4,95
 10008b4:	010008c8 	cmpgei	r4,zero,35
 10008b8:	0100102c 	andhi	r4,zero,64
 10008bc:	010008c8 	cmpgei	r4,zero,35
 10008c0:	010008c8 	cmpgei	r4,zero,35
 10008c4:	010016a4 	muli	r4,zero,90
 10008c8:	d9014d17 	ldw	r4,1332(sp)
 10008cc:	2000ce26 	beq	r4,zero,1000c08 <___vfprintf_internal_r+0x6d4>
 10008d0:	01400044 	movi	r5,1
 10008d4:	d9800f04 	addi	r6,sp,60
 10008d8:	d9c14015 	stw	r7,1280(sp)
 10008dc:	d9414515 	stw	r5,1300(sp)
 10008e0:	d9814115 	stw	r6,1284(sp)
 10008e4:	280f883a 	mov	r7,r5
 10008e8:	d9000f05 	stb	r4,60(sp)
 10008ec:	d8000405 	stb	zero,16(sp)
 10008f0:	d8014615 	stw	zero,1304(sp)
 10008f4:	d8c14c17 	ldw	r3,1328(sp)
 10008f8:	1880008c 	andi	r2,r3,2
 10008fc:	1005003a 	cmpeq	r2,r2,zero
 1000900:	d8815015 	stw	r2,1344(sp)
 1000904:	1000031e 	bne	r2,zero,1000914 <___vfprintf_internal_r+0x3e0>
 1000908:	d9014517 	ldw	r4,1300(sp)
 100090c:	21000084 	addi	r4,r4,2
 1000910:	d9014515 	stw	r4,1300(sp)
 1000914:	d9414c17 	ldw	r5,1328(sp)
 1000918:	2940210c 	andi	r5,r5,132
 100091c:	d9414e15 	stw	r5,1336(sp)
 1000920:	28002d1e 	bne	r5,zero,10009d8 <___vfprintf_internal_r+0x4a4>
 1000924:	d9814a17 	ldw	r6,1320(sp)
 1000928:	d8814517 	ldw	r2,1300(sp)
 100092c:	30a1c83a 	sub	r16,r6,r2
 1000930:	0400290e 	bge	zero,r16,10009d8 <___vfprintf_internal_r+0x4a4>
 1000934:	00800404 	movi	r2,16
 1000938:	14045e0e 	bge	r2,r16,1001ab4 <___vfprintf_internal_r+0x1580>
 100093c:	dc800e17 	ldw	r18,56(sp)
 1000940:	dc400d17 	ldw	r17,52(sp)
 1000944:	1027883a 	mov	r19,r2
 1000948:	07004074 	movhi	fp,257
 100094c:	e7352a84 	addi	fp,fp,-11094
 1000950:	050001c4 	movi	r20,7
 1000954:	00000306 	br	1000964 <___vfprintf_internal_r+0x430>
 1000958:	843ffc04 	addi	r16,r16,-16
 100095c:	ad400204 	addi	r21,r21,8
 1000960:	9c00130e 	bge	r19,r16,10009b0 <___vfprintf_internal_r+0x47c>
 1000964:	94800404 	addi	r18,r18,16
 1000968:	8c400044 	addi	r17,r17,1
 100096c:	af000015 	stw	fp,0(r21)
 1000970:	acc00115 	stw	r19,4(r21)
 1000974:	dc800e15 	stw	r18,56(sp)
 1000978:	dc400d15 	stw	r17,52(sp)
 100097c:	a47ff60e 	bge	r20,r17,1000958 <___vfprintf_internal_r+0x424>
 1000980:	d9014f17 	ldw	r4,1340(sp)
 1000984:	b00b883a 	mov	r5,r22
 1000988:	d9800c04 	addi	r6,sp,48
 100098c:	d9c15115 	stw	r7,1348(sp)
 1000990:	10004dc0 	call	10004dc <__sprint_r>
 1000994:	d9c15117 	ldw	r7,1348(sp)
 1000998:	10009e1e 	bne	r2,zero,1000c14 <___vfprintf_internal_r+0x6e0>
 100099c:	843ffc04 	addi	r16,r16,-16
 10009a0:	dc800e17 	ldw	r18,56(sp)
 10009a4:	dc400d17 	ldw	r17,52(sp)
 10009a8:	dd401904 	addi	r21,sp,100
 10009ac:	9c3fed16 	blt	r19,r16,1000964 <___vfprintf_internal_r+0x430>
 10009b0:	9425883a 	add	r18,r18,r16
 10009b4:	8c400044 	addi	r17,r17,1
 10009b8:	008001c4 	movi	r2,7
 10009bc:	af000015 	stw	fp,0(r21)
 10009c0:	ac000115 	stw	r16,4(r21)
 10009c4:	dc800e15 	stw	r18,56(sp)
 10009c8:	dc400d15 	stw	r17,52(sp)
 10009cc:	1441f516 	blt	r2,r17,10011a4 <___vfprintf_internal_r+0xc70>
 10009d0:	ad400204 	addi	r21,r21,8
 10009d4:	00000206 	br	10009e0 <___vfprintf_internal_r+0x4ac>
 10009d8:	dc800e17 	ldw	r18,56(sp)
 10009dc:	dc400d17 	ldw	r17,52(sp)
 10009e0:	d8800407 	ldb	r2,16(sp)
 10009e4:	10000b26 	beq	r2,zero,1000a14 <___vfprintf_internal_r+0x4e0>
 10009e8:	00800044 	movi	r2,1
 10009ec:	94800044 	addi	r18,r18,1
 10009f0:	8c400044 	addi	r17,r17,1
 10009f4:	a8800115 	stw	r2,4(r21)
 10009f8:	d8c00404 	addi	r3,sp,16
 10009fc:	008001c4 	movi	r2,7
 1000a00:	a8c00015 	stw	r3,0(r21)
 1000a04:	dc800e15 	stw	r18,56(sp)
 1000a08:	dc400d15 	stw	r17,52(sp)
 1000a0c:	1441da16 	blt	r2,r17,1001178 <___vfprintf_internal_r+0xc44>
 1000a10:	ad400204 	addi	r21,r21,8
 1000a14:	d9015017 	ldw	r4,1344(sp)
 1000a18:	20000b1e 	bne	r4,zero,1000a48 <___vfprintf_internal_r+0x514>
 1000a1c:	d8800444 	addi	r2,sp,17
 1000a20:	94800084 	addi	r18,r18,2
 1000a24:	8c400044 	addi	r17,r17,1
 1000a28:	a8800015 	stw	r2,0(r21)
 1000a2c:	00c00084 	movi	r3,2
 1000a30:	008001c4 	movi	r2,7
 1000a34:	a8c00115 	stw	r3,4(r21)
 1000a38:	dc800e15 	stw	r18,56(sp)
 1000a3c:	dc400d15 	stw	r17,52(sp)
 1000a40:	1441c216 	blt	r2,r17,100114c <___vfprintf_internal_r+0xc18>
 1000a44:	ad400204 	addi	r21,r21,8
 1000a48:	d9414e17 	ldw	r5,1336(sp)
 1000a4c:	00802004 	movi	r2,128
 1000a50:	2880b126 	beq	r5,r2,1000d18 <___vfprintf_internal_r+0x7e4>
 1000a54:	d8c14617 	ldw	r3,1304(sp)
 1000a58:	19e1c83a 	sub	r16,r3,r7
 1000a5c:	0400260e 	bge	zero,r16,1000af8 <___vfprintf_internal_r+0x5c4>
 1000a60:	00800404 	movi	r2,16
 1000a64:	1403cf0e 	bge	r2,r16,10019a4 <___vfprintf_internal_r+0x1470>
 1000a68:	1027883a 	mov	r19,r2
 1000a6c:	07004074 	movhi	fp,257
 1000a70:	e7352684 	addi	fp,fp,-11110
 1000a74:	050001c4 	movi	r20,7
 1000a78:	00000306 	br	1000a88 <___vfprintf_internal_r+0x554>
 1000a7c:	843ffc04 	addi	r16,r16,-16
 1000a80:	ad400204 	addi	r21,r21,8
 1000a84:	9c00130e 	bge	r19,r16,1000ad4 <___vfprintf_internal_r+0x5a0>
 1000a88:	94800404 	addi	r18,r18,16
 1000a8c:	8c400044 	addi	r17,r17,1
 1000a90:	af000015 	stw	fp,0(r21)
 1000a94:	acc00115 	stw	r19,4(r21)
 1000a98:	dc800e15 	stw	r18,56(sp)
 1000a9c:	dc400d15 	stw	r17,52(sp)
 1000aa0:	a47ff60e 	bge	r20,r17,1000a7c <___vfprintf_internal_r+0x548>
 1000aa4:	d9014f17 	ldw	r4,1340(sp)
 1000aa8:	b00b883a 	mov	r5,r22
 1000aac:	d9800c04 	addi	r6,sp,48
 1000ab0:	d9c15115 	stw	r7,1348(sp)
 1000ab4:	10004dc0 	call	10004dc <__sprint_r>
 1000ab8:	d9c15117 	ldw	r7,1348(sp)
 1000abc:	1000551e 	bne	r2,zero,1000c14 <___vfprintf_internal_r+0x6e0>
 1000ac0:	843ffc04 	addi	r16,r16,-16
 1000ac4:	dc800e17 	ldw	r18,56(sp)
 1000ac8:	dc400d17 	ldw	r17,52(sp)
 1000acc:	dd401904 	addi	r21,sp,100
 1000ad0:	9c3fed16 	blt	r19,r16,1000a88 <___vfprintf_internal_r+0x554>
 1000ad4:	9425883a 	add	r18,r18,r16
 1000ad8:	8c400044 	addi	r17,r17,1
 1000adc:	008001c4 	movi	r2,7
 1000ae0:	af000015 	stw	fp,0(r21)
 1000ae4:	ac000115 	stw	r16,4(r21)
 1000ae8:	dc800e15 	stw	r18,56(sp)
 1000aec:	dc400d15 	stw	r17,52(sp)
 1000af0:	14418216 	blt	r2,r17,10010fc <___vfprintf_internal_r+0xbc8>
 1000af4:	ad400204 	addi	r21,r21,8
 1000af8:	d9014c17 	ldw	r4,1328(sp)
 1000afc:	2080400c 	andi	r2,r4,256
 1000b00:	10004a1e 	bne	r2,zero,1000c2c <___vfprintf_internal_r+0x6f8>
 1000b04:	d9414117 	ldw	r5,1284(sp)
 1000b08:	91e5883a 	add	r18,r18,r7
 1000b0c:	8c400044 	addi	r17,r17,1
 1000b10:	008001c4 	movi	r2,7
 1000b14:	a9400015 	stw	r5,0(r21)
 1000b18:	a9c00115 	stw	r7,4(r21)
 1000b1c:	dc800e15 	stw	r18,56(sp)
 1000b20:	dc400d15 	stw	r17,52(sp)
 1000b24:	14416716 	blt	r2,r17,10010c4 <___vfprintf_internal_r+0xb90>
 1000b28:	a8c00204 	addi	r3,r21,8
 1000b2c:	d9814c17 	ldw	r6,1328(sp)
 1000b30:	3080010c 	andi	r2,r6,4
 1000b34:	10002826 	beq	r2,zero,1000bd8 <___vfprintf_internal_r+0x6a4>
 1000b38:	d8814a17 	ldw	r2,1320(sp)
 1000b3c:	d9014517 	ldw	r4,1300(sp)
 1000b40:	1121c83a 	sub	r16,r2,r4
 1000b44:	0400240e 	bge	zero,r16,1000bd8 <___vfprintf_internal_r+0x6a4>
 1000b48:	00800404 	movi	r2,16
 1000b4c:	1404550e 	bge	r2,r16,1001ca4 <___vfprintf_internal_r+0x1770>
 1000b50:	dc400d17 	ldw	r17,52(sp)
 1000b54:	1027883a 	mov	r19,r2
 1000b58:	07004074 	movhi	fp,257
 1000b5c:	e7352a84 	addi	fp,fp,-11094
 1000b60:	050001c4 	movi	r20,7
 1000b64:	00000306 	br	1000b74 <___vfprintf_internal_r+0x640>
 1000b68:	843ffc04 	addi	r16,r16,-16
 1000b6c:	18c00204 	addi	r3,r3,8
 1000b70:	9c00110e 	bge	r19,r16,1000bb8 <___vfprintf_internal_r+0x684>
 1000b74:	94800404 	addi	r18,r18,16
 1000b78:	8c400044 	addi	r17,r17,1
 1000b7c:	1f000015 	stw	fp,0(r3)
 1000b80:	1cc00115 	stw	r19,4(r3)
 1000b84:	dc800e15 	stw	r18,56(sp)
 1000b88:	dc400d15 	stw	r17,52(sp)
 1000b8c:	a47ff60e 	bge	r20,r17,1000b68 <___vfprintf_internal_r+0x634>
 1000b90:	d9014f17 	ldw	r4,1340(sp)
 1000b94:	b00b883a 	mov	r5,r22
 1000b98:	d9800c04 	addi	r6,sp,48
 1000b9c:	10004dc0 	call	10004dc <__sprint_r>
 1000ba0:	10001c1e 	bne	r2,zero,1000c14 <___vfprintf_internal_r+0x6e0>
 1000ba4:	843ffc04 	addi	r16,r16,-16
 1000ba8:	dc800e17 	ldw	r18,56(sp)
 1000bac:	dc400d17 	ldw	r17,52(sp)
 1000bb0:	d8c01904 	addi	r3,sp,100
 1000bb4:	9c3fef16 	blt	r19,r16,1000b74 <___vfprintf_internal_r+0x640>
 1000bb8:	9425883a 	add	r18,r18,r16
 1000bbc:	8c400044 	addi	r17,r17,1
 1000bc0:	008001c4 	movi	r2,7
 1000bc4:	1f000015 	stw	fp,0(r3)
 1000bc8:	1c000115 	stw	r16,4(r3)
 1000bcc:	dc800e15 	stw	r18,56(sp)
 1000bd0:	dc400d15 	stw	r17,52(sp)
 1000bd4:	1440cb16 	blt	r2,r17,1000f04 <___vfprintf_internal_r+0x9d0>
 1000bd8:	d8814a17 	ldw	r2,1320(sp)
 1000bdc:	d9414517 	ldw	r5,1300(sp)
 1000be0:	1140010e 	bge	r2,r5,1000be8 <___vfprintf_internal_r+0x6b4>
 1000be4:	2805883a 	mov	r2,r5
 1000be8:	d9814b17 	ldw	r6,1324(sp)
 1000bec:	308d883a 	add	r6,r6,r2
 1000bf0:	d9814b15 	stw	r6,1324(sp)
 1000bf4:	90013b1e 	bne	r18,zero,10010e4 <___vfprintf_internal_r+0xbb0>
 1000bf8:	d9c14017 	ldw	r7,1280(sp)
 1000bfc:	dd401904 	addi	r21,sp,100
 1000c00:	d8000d15 	stw	zero,52(sp)
 1000c04:	003ea706 	br	10006a4 <___vfprintf_internal_r+0x170>
 1000c08:	d8800e17 	ldw	r2,56(sp)
 1000c0c:	1005451e 	bne	r2,zero,1002124 <___vfprintf_internal_r+0x1bf0>
 1000c10:	d8000d15 	stw	zero,52(sp)
 1000c14:	b080030b 	ldhu	r2,12(r22)
 1000c18:	1080100c 	andi	r2,r2,64
 1000c1c:	103e8726 	beq	r2,zero,100063c <___vfprintf_internal_r+0x108>
 1000c20:	00bfffc4 	movi	r2,-1
 1000c24:	d8814b15 	stw	r2,1324(sp)
 1000c28:	003e8406 	br	100063c <___vfprintf_internal_r+0x108>
 1000c2c:	d9814d17 	ldw	r6,1332(sp)
 1000c30:	00801944 	movi	r2,101
 1000c34:	11806e16 	blt	r2,r6,1000df0 <___vfprintf_internal_r+0x8bc>
 1000c38:	d9414717 	ldw	r5,1308(sp)
 1000c3c:	00c00044 	movi	r3,1
 1000c40:	1943490e 	bge	r3,r5,1001968 <___vfprintf_internal_r+0x1434>
 1000c44:	d8814117 	ldw	r2,1284(sp)
 1000c48:	94800044 	addi	r18,r18,1
 1000c4c:	8c400044 	addi	r17,r17,1
 1000c50:	a8800015 	stw	r2,0(r21)
 1000c54:	008001c4 	movi	r2,7
 1000c58:	a8c00115 	stw	r3,4(r21)
 1000c5c:	dc800e15 	stw	r18,56(sp)
 1000c60:	dc400d15 	stw	r17,52(sp)
 1000c64:	1441ca16 	blt	r2,r17,1001390 <___vfprintf_internal_r+0xe5c>
 1000c68:	a8c00204 	addi	r3,r21,8
 1000c6c:	d9014917 	ldw	r4,1316(sp)
 1000c70:	00800044 	movi	r2,1
 1000c74:	94800044 	addi	r18,r18,1
 1000c78:	8c400044 	addi	r17,r17,1
 1000c7c:	18800115 	stw	r2,4(r3)
 1000c80:	008001c4 	movi	r2,7
 1000c84:	19000015 	stw	r4,0(r3)
 1000c88:	dc800e15 	stw	r18,56(sp)
 1000c8c:	dc400d15 	stw	r17,52(sp)
 1000c90:	1441b616 	blt	r2,r17,100136c <___vfprintf_internal_r+0xe38>
 1000c94:	1cc00204 	addi	r19,r3,8
 1000c98:	d9014217 	ldw	r4,1288(sp)
 1000c9c:	d9414317 	ldw	r5,1292(sp)
 1000ca0:	000d883a 	mov	r6,zero
 1000ca4:	000f883a 	mov	r7,zero
 1000ca8:	100905c0 	call	100905c <__nedf2>
 1000cac:	10017426 	beq	r2,zero,1001280 <___vfprintf_internal_r+0xd4c>
 1000cb0:	d9414717 	ldw	r5,1308(sp)
 1000cb4:	d9814117 	ldw	r6,1284(sp)
 1000cb8:	8c400044 	addi	r17,r17,1
 1000cbc:	2c85883a 	add	r2,r5,r18
 1000cc0:	14bfffc4 	addi	r18,r2,-1
 1000cc4:	28bfffc4 	addi	r2,r5,-1
 1000cc8:	30c00044 	addi	r3,r6,1
 1000ccc:	98800115 	stw	r2,4(r19)
 1000cd0:	008001c4 	movi	r2,7
 1000cd4:	98c00015 	stw	r3,0(r19)
 1000cd8:	dc800e15 	stw	r18,56(sp)
 1000cdc:	dc400d15 	stw	r17,52(sp)
 1000ce0:	14418e16 	blt	r2,r17,100131c <___vfprintf_internal_r+0xde8>
 1000ce4:	9cc00204 	addi	r19,r19,8
 1000ce8:	d9414817 	ldw	r5,1312(sp)
 1000cec:	d8800804 	addi	r2,sp,32
 1000cf0:	8c400044 	addi	r17,r17,1
 1000cf4:	9165883a 	add	r18,r18,r5
 1000cf8:	98800015 	stw	r2,0(r19)
 1000cfc:	008001c4 	movi	r2,7
 1000d00:	99400115 	stw	r5,4(r19)
 1000d04:	dc800e15 	stw	r18,56(sp)
 1000d08:	dc400d15 	stw	r17,52(sp)
 1000d0c:	1440ed16 	blt	r2,r17,10010c4 <___vfprintf_internal_r+0xb90>
 1000d10:	98c00204 	addi	r3,r19,8
 1000d14:	003f8506 	br	1000b2c <___vfprintf_internal_r+0x5f8>
 1000d18:	d9814a17 	ldw	r6,1320(sp)
 1000d1c:	d8814517 	ldw	r2,1300(sp)
 1000d20:	30a1c83a 	sub	r16,r6,r2
 1000d24:	043f4b0e 	bge	zero,r16,1000a54 <___vfprintf_internal_r+0x520>
 1000d28:	00800404 	movi	r2,16
 1000d2c:	14043a0e 	bge	r2,r16,1001e18 <___vfprintf_internal_r+0x18e4>
 1000d30:	1027883a 	mov	r19,r2
 1000d34:	07004074 	movhi	fp,257
 1000d38:	e7352684 	addi	fp,fp,-11110
 1000d3c:	050001c4 	movi	r20,7
 1000d40:	00000306 	br	1000d50 <___vfprintf_internal_r+0x81c>
 1000d44:	843ffc04 	addi	r16,r16,-16
 1000d48:	ad400204 	addi	r21,r21,8
 1000d4c:	9c00130e 	bge	r19,r16,1000d9c <___vfprintf_internal_r+0x868>
 1000d50:	94800404 	addi	r18,r18,16
 1000d54:	8c400044 	addi	r17,r17,1
 1000d58:	af000015 	stw	fp,0(r21)
 1000d5c:	acc00115 	stw	r19,4(r21)
 1000d60:	dc800e15 	stw	r18,56(sp)
 1000d64:	dc400d15 	stw	r17,52(sp)
 1000d68:	a47ff60e 	bge	r20,r17,1000d44 <___vfprintf_internal_r+0x810>
 1000d6c:	d9014f17 	ldw	r4,1340(sp)
 1000d70:	b00b883a 	mov	r5,r22
 1000d74:	d9800c04 	addi	r6,sp,48
 1000d78:	d9c15115 	stw	r7,1348(sp)
 1000d7c:	10004dc0 	call	10004dc <__sprint_r>
 1000d80:	d9c15117 	ldw	r7,1348(sp)
 1000d84:	103fa31e 	bne	r2,zero,1000c14 <___vfprintf_internal_r+0x6e0>
 1000d88:	843ffc04 	addi	r16,r16,-16
 1000d8c:	dc800e17 	ldw	r18,56(sp)
 1000d90:	dc400d17 	ldw	r17,52(sp)
 1000d94:	dd401904 	addi	r21,sp,100
 1000d98:	9c3fed16 	blt	r19,r16,1000d50 <___vfprintf_internal_r+0x81c>
 1000d9c:	9425883a 	add	r18,r18,r16
 1000da0:	8c400044 	addi	r17,r17,1
 1000da4:	008001c4 	movi	r2,7
 1000da8:	af000015 	stw	fp,0(r21)
 1000dac:	ac000115 	stw	r16,4(r21)
 1000db0:	dc800e15 	stw	r18,56(sp)
 1000db4:	dc400d15 	stw	r17,52(sp)
 1000db8:	14416116 	blt	r2,r17,1001340 <___vfprintf_internal_r+0xe0c>
 1000dbc:	ad400204 	addi	r21,r21,8
 1000dc0:	003f2406 	br	1000a54 <___vfprintf_internal_r+0x520>
 1000dc4:	d9014f17 	ldw	r4,1340(sp)
 1000dc8:	1003fe80 	call	1003fe8 <__sinit>
 1000dcc:	d9c15117 	ldw	r7,1348(sp)
 1000dd0:	003def06 	br	1000590 <___vfprintf_internal_r+0x5c>
 1000dd4:	d9014f17 	ldw	r4,1340(sp)
 1000dd8:	b00b883a 	mov	r5,r22
 1000ddc:	d9c15115 	stw	r7,1348(sp)
 1000de0:	100241c0 	call	100241c <__swsetup_r>
 1000de4:	d9c15117 	ldw	r7,1348(sp)
 1000de8:	103dee26 	beq	r2,zero,10005a4 <___vfprintf_internal_r+0x70>
 1000dec:	003f8c06 	br	1000c20 <___vfprintf_internal_r+0x6ec>
 1000df0:	d9014217 	ldw	r4,1288(sp)
 1000df4:	d9414317 	ldw	r5,1292(sp)
 1000df8:	000d883a 	mov	r6,zero
 1000dfc:	000f883a 	mov	r7,zero
 1000e00:	1008fd40 	call	1008fd4 <__eqdf2>
 1000e04:	1000f21e 	bne	r2,zero,10011d0 <___vfprintf_internal_r+0xc9c>
 1000e08:	00804074 	movhi	r2,257
 1000e0c:	10b52604 	addi	r2,r2,-11112
 1000e10:	94800044 	addi	r18,r18,1
 1000e14:	8c400044 	addi	r17,r17,1
 1000e18:	a8800015 	stw	r2,0(r21)
 1000e1c:	00c00044 	movi	r3,1
 1000e20:	008001c4 	movi	r2,7
 1000e24:	a8c00115 	stw	r3,4(r21)
 1000e28:	dc800e15 	stw	r18,56(sp)
 1000e2c:	dc400d15 	stw	r17,52(sp)
 1000e30:	14430016 	blt	r2,r17,1001a34 <___vfprintf_internal_r+0x1500>
 1000e34:	a8c00204 	addi	r3,r21,8
 1000e38:	d8800517 	ldw	r2,20(sp)
 1000e3c:	d9014717 	ldw	r4,1308(sp)
 1000e40:	11015c0e 	bge	r2,r4,10013b4 <___vfprintf_internal_r+0xe80>
 1000e44:	dc400d17 	ldw	r17,52(sp)
 1000e48:	d9814917 	ldw	r6,1316(sp)
 1000e4c:	00800044 	movi	r2,1
 1000e50:	94800044 	addi	r18,r18,1
 1000e54:	8c400044 	addi	r17,r17,1
 1000e58:	18800115 	stw	r2,4(r3)
 1000e5c:	008001c4 	movi	r2,7
 1000e60:	19800015 	stw	r6,0(r3)
 1000e64:	dc800e15 	stw	r18,56(sp)
 1000e68:	dc400d15 	stw	r17,52(sp)
 1000e6c:	14431616 	blt	r2,r17,1001ac8 <___vfprintf_internal_r+0x1594>
 1000e70:	18c00204 	addi	r3,r3,8
 1000e74:	d8814717 	ldw	r2,1308(sp)
 1000e78:	143fffc4 	addi	r16,r2,-1
 1000e7c:	043f2b0e 	bge	zero,r16,1000b2c <___vfprintf_internal_r+0x5f8>
 1000e80:	00800404 	movi	r2,16
 1000e84:	1402a80e 	bge	r2,r16,1001928 <___vfprintf_internal_r+0x13f4>
 1000e88:	dc400d17 	ldw	r17,52(sp)
 1000e8c:	1027883a 	mov	r19,r2
 1000e90:	07004074 	movhi	fp,257
 1000e94:	e7352684 	addi	fp,fp,-11110
 1000e98:	050001c4 	movi	r20,7
 1000e9c:	00000306 	br	1000eac <___vfprintf_internal_r+0x978>
 1000ea0:	18c00204 	addi	r3,r3,8
 1000ea4:	843ffc04 	addi	r16,r16,-16
 1000ea8:	9c02a20e 	bge	r19,r16,1001934 <___vfprintf_internal_r+0x1400>
 1000eac:	94800404 	addi	r18,r18,16
 1000eb0:	8c400044 	addi	r17,r17,1
 1000eb4:	1f000015 	stw	fp,0(r3)
 1000eb8:	1cc00115 	stw	r19,4(r3)
 1000ebc:	dc800e15 	stw	r18,56(sp)
 1000ec0:	dc400d15 	stw	r17,52(sp)
 1000ec4:	a47ff60e 	bge	r20,r17,1000ea0 <___vfprintf_internal_r+0x96c>
 1000ec8:	d9014f17 	ldw	r4,1340(sp)
 1000ecc:	b00b883a 	mov	r5,r22
 1000ed0:	d9800c04 	addi	r6,sp,48
 1000ed4:	10004dc0 	call	10004dc <__sprint_r>
 1000ed8:	103f4e1e 	bne	r2,zero,1000c14 <___vfprintf_internal_r+0x6e0>
 1000edc:	dc800e17 	ldw	r18,56(sp)
 1000ee0:	dc400d17 	ldw	r17,52(sp)
 1000ee4:	d8c01904 	addi	r3,sp,100
 1000ee8:	003fee06 	br	1000ea4 <___vfprintf_internal_r+0x970>
 1000eec:	d8802c0b 	ldhu	r2,176(sp)
 1000ef0:	00ffffc4 	movi	r3,-1
 1000ef4:	d8c14b15 	stw	r3,1324(sp)
 1000ef8:	1080100c 	andi	r2,r2,64
 1000efc:	103dcc1e 	bne	r2,zero,1000630 <___vfprintf_internal_r+0xfc>
 1000f00:	003dce06 	br	100063c <___vfprintf_internal_r+0x108>
 1000f04:	d9014f17 	ldw	r4,1340(sp)
 1000f08:	b00b883a 	mov	r5,r22
 1000f0c:	d9800c04 	addi	r6,sp,48
 1000f10:	10004dc0 	call	10004dc <__sprint_r>
 1000f14:	103f3f1e 	bne	r2,zero,1000c14 <___vfprintf_internal_r+0x6e0>
 1000f18:	dc800e17 	ldw	r18,56(sp)
 1000f1c:	003f2e06 	br	1000bd8 <___vfprintf_internal_r+0x6a4>
 1000f20:	d9414c17 	ldw	r5,1328(sp)
 1000f24:	29400414 	ori	r5,r5,16
 1000f28:	d9414c15 	stw	r5,1328(sp)
 1000f2c:	d9814c17 	ldw	r6,1328(sp)
 1000f30:	3080080c 	andi	r2,r6,32
 1000f34:	10014f1e 	bne	r2,zero,1001474 <___vfprintf_internal_r+0xf40>
 1000f38:	d8c14c17 	ldw	r3,1328(sp)
 1000f3c:	1880040c 	andi	r2,r3,16
 1000f40:	1002f01e 	bne	r2,zero,1001b04 <___vfprintf_internal_r+0x15d0>
 1000f44:	d9014c17 	ldw	r4,1328(sp)
 1000f48:	2080100c 	andi	r2,r4,64
 1000f4c:	1002ed26 	beq	r2,zero,1001b04 <___vfprintf_internal_r+0x15d0>
 1000f50:	3880000f 	ldh	r2,0(r7)
 1000f54:	39c00104 	addi	r7,r7,4
 1000f58:	d9c14015 	stw	r7,1280(sp)
 1000f5c:	1023d7fa 	srai	r17,r2,31
 1000f60:	1021883a 	mov	r16,r2
 1000f64:	88037816 	blt	r17,zero,1001d48 <___vfprintf_internal_r+0x1814>
 1000f68:	01000044 	movi	r4,1
 1000f6c:	98000416 	blt	r19,zero,1000f80 <___vfprintf_internal_r+0xa4c>
 1000f70:	d8c14c17 	ldw	r3,1328(sp)
 1000f74:	00bfdfc4 	movi	r2,-129
 1000f78:	1886703a 	and	r3,r3,r2
 1000f7c:	d8c14c15 	stw	r3,1328(sp)
 1000f80:	8444b03a 	or	r2,r16,r17
 1000f84:	10022c1e 	bne	r2,zero,1001838 <___vfprintf_internal_r+0x1304>
 1000f88:	98022b1e 	bne	r19,zero,1001838 <___vfprintf_internal_r+0x1304>
 1000f8c:	20803fcc 	andi	r2,r4,255
 1000f90:	1002a126 	beq	r2,zero,1001a18 <___vfprintf_internal_r+0x14e4>
 1000f94:	d8c01904 	addi	r3,sp,100
 1000f98:	dd000f04 	addi	r20,sp,60
 1000f9c:	d8c14115 	stw	r3,1284(sp)
 1000fa0:	d8c14117 	ldw	r3,1284(sp)
 1000fa4:	dcc14515 	stw	r19,1300(sp)
 1000fa8:	a0c5c83a 	sub	r2,r20,r3
 1000fac:	11c00a04 	addi	r7,r2,40
 1000fb0:	99c0010e 	bge	r19,r7,1000fb8 <___vfprintf_internal_r+0xa84>
 1000fb4:	d9c14515 	stw	r7,1300(sp)
 1000fb8:	dcc14615 	stw	r19,1304(sp)
 1000fbc:	d8800407 	ldb	r2,16(sp)
 1000fc0:	103e4c26 	beq	r2,zero,10008f4 <___vfprintf_internal_r+0x3c0>
 1000fc4:	d8814517 	ldw	r2,1300(sp)
 1000fc8:	10800044 	addi	r2,r2,1
 1000fcc:	d8814515 	stw	r2,1300(sp)
 1000fd0:	003e4806 	br	10008f4 <___vfprintf_internal_r+0x3c0>
 1000fd4:	d9814c17 	ldw	r6,1328(sp)
 1000fd8:	31800414 	ori	r6,r6,16
 1000fdc:	d9814c15 	stw	r6,1328(sp)
 1000fe0:	d8c14c17 	ldw	r3,1328(sp)
 1000fe4:	1880080c 	andi	r2,r3,32
 1000fe8:	1001271e 	bne	r2,zero,1001488 <___vfprintf_internal_r+0xf54>
 1000fec:	d9414c17 	ldw	r5,1328(sp)
 1000ff0:	2880040c 	andi	r2,r5,16
 1000ff4:	1002bc1e 	bne	r2,zero,1001ae8 <___vfprintf_internal_r+0x15b4>
 1000ff8:	d9814c17 	ldw	r6,1328(sp)
 1000ffc:	3080100c 	andi	r2,r6,64
 1001000:	1002b926 	beq	r2,zero,1001ae8 <___vfprintf_internal_r+0x15b4>
 1001004:	3c00000b 	ldhu	r16,0(r7)
 1001008:	0009883a 	mov	r4,zero
 100100c:	39c00104 	addi	r7,r7,4
 1001010:	0023883a 	mov	r17,zero
 1001014:	d9c14015 	stw	r7,1280(sp)
 1001018:	d8000405 	stb	zero,16(sp)
 100101c:	003fd306 	br	1000f6c <___vfprintf_internal_r+0xa38>
 1001020:	d9014c17 	ldw	r4,1328(sp)
 1001024:	21000414 	ori	r4,r4,16
 1001028:	d9014c15 	stw	r4,1328(sp)
 100102c:	d9414c17 	ldw	r5,1328(sp)
 1001030:	2880080c 	andi	r2,r5,32
 1001034:	1001081e 	bne	r2,zero,1001458 <___vfprintf_internal_r+0xf24>
 1001038:	d8c14c17 	ldw	r3,1328(sp)
 100103c:	1880040c 	andi	r2,r3,16
 1001040:	1002b61e 	bne	r2,zero,1001b1c <___vfprintf_internal_r+0x15e8>
 1001044:	d9014c17 	ldw	r4,1328(sp)
 1001048:	2080100c 	andi	r2,r4,64
 100104c:	1002b326 	beq	r2,zero,1001b1c <___vfprintf_internal_r+0x15e8>
 1001050:	3c00000b 	ldhu	r16,0(r7)
 1001054:	01000044 	movi	r4,1
 1001058:	39c00104 	addi	r7,r7,4
 100105c:	0023883a 	mov	r17,zero
 1001060:	d9c14015 	stw	r7,1280(sp)
 1001064:	d8000405 	stb	zero,16(sp)
 1001068:	003fc006 	br	1000f6c <___vfprintf_internal_r+0xa38>
 100106c:	d9014f17 	ldw	r4,1340(sp)
 1001070:	b00b883a 	mov	r5,r22
 1001074:	d9800c04 	addi	r6,sp,48
 1001078:	10004dc0 	call	10004dc <__sprint_r>
 100107c:	103ee51e 	bne	r2,zero,1000c14 <___vfprintf_internal_r+0x6e0>
 1001080:	dc800e17 	ldw	r18,56(sp)
 1001084:	d8c01904 	addi	r3,sp,100
 1001088:	d9814c17 	ldw	r6,1328(sp)
 100108c:	3080004c 	andi	r2,r6,1
 1001090:	1005003a 	cmpeq	r2,r2,zero
 1001094:	103ea51e 	bne	r2,zero,1000b2c <___vfprintf_internal_r+0x5f8>
 1001098:	00800044 	movi	r2,1
 100109c:	dc400d17 	ldw	r17,52(sp)
 10010a0:	18800115 	stw	r2,4(r3)
 10010a4:	d8814917 	ldw	r2,1316(sp)
 10010a8:	94800044 	addi	r18,r18,1
 10010ac:	8c400044 	addi	r17,r17,1
 10010b0:	18800015 	stw	r2,0(r3)
 10010b4:	008001c4 	movi	r2,7
 10010b8:	dc800e15 	stw	r18,56(sp)
 10010bc:	dc400d15 	stw	r17,52(sp)
 10010c0:	1442240e 	bge	r2,r17,1001954 <___vfprintf_internal_r+0x1420>
 10010c4:	d9014f17 	ldw	r4,1340(sp)
 10010c8:	b00b883a 	mov	r5,r22
 10010cc:	d9800c04 	addi	r6,sp,48
 10010d0:	10004dc0 	call	10004dc <__sprint_r>
 10010d4:	103ecf1e 	bne	r2,zero,1000c14 <___vfprintf_internal_r+0x6e0>
 10010d8:	dc800e17 	ldw	r18,56(sp)
 10010dc:	d8c01904 	addi	r3,sp,100
 10010e0:	003e9206 	br	1000b2c <___vfprintf_internal_r+0x5f8>
 10010e4:	d9014f17 	ldw	r4,1340(sp)
 10010e8:	b00b883a 	mov	r5,r22
 10010ec:	d9800c04 	addi	r6,sp,48
 10010f0:	10004dc0 	call	10004dc <__sprint_r>
 10010f4:	103ec026 	beq	r2,zero,1000bf8 <___vfprintf_internal_r+0x6c4>
 10010f8:	003ec606 	br	1000c14 <___vfprintf_internal_r+0x6e0>
 10010fc:	d9014f17 	ldw	r4,1340(sp)
 1001100:	b00b883a 	mov	r5,r22
 1001104:	d9800c04 	addi	r6,sp,48
 1001108:	d9c15115 	stw	r7,1348(sp)
 100110c:	10004dc0 	call	10004dc <__sprint_r>
 1001110:	d9c15117 	ldw	r7,1348(sp)
 1001114:	103ebf1e 	bne	r2,zero,1000c14 <___vfprintf_internal_r+0x6e0>
 1001118:	dc800e17 	ldw	r18,56(sp)
 100111c:	dc400d17 	ldw	r17,52(sp)
 1001120:	dd401904 	addi	r21,sp,100
 1001124:	003e7406 	br	1000af8 <___vfprintf_internal_r+0x5c4>
 1001128:	d9014f17 	ldw	r4,1340(sp)
 100112c:	b00b883a 	mov	r5,r22
 1001130:	d9800c04 	addi	r6,sp,48
 1001134:	d9c15115 	stw	r7,1348(sp)
 1001138:	10004dc0 	call	10004dc <__sprint_r>
 100113c:	d9c15117 	ldw	r7,1348(sp)
 1001140:	103eb41e 	bne	r2,zero,1000c14 <___vfprintf_internal_r+0x6e0>
 1001144:	dd401904 	addi	r21,sp,100
 1001148:	003d6d06 	br	1000700 <___vfprintf_internal_r+0x1cc>
 100114c:	d9014f17 	ldw	r4,1340(sp)
 1001150:	b00b883a 	mov	r5,r22
 1001154:	d9800c04 	addi	r6,sp,48
 1001158:	d9c15115 	stw	r7,1348(sp)
 100115c:	10004dc0 	call	10004dc <__sprint_r>
 1001160:	d9c15117 	ldw	r7,1348(sp)
 1001164:	103eab1e 	bne	r2,zero,1000c14 <___vfprintf_internal_r+0x6e0>
 1001168:	dc800e17 	ldw	r18,56(sp)
 100116c:	dc400d17 	ldw	r17,52(sp)
 1001170:	dd401904 	addi	r21,sp,100
 1001174:	003e3406 	br	1000a48 <___vfprintf_internal_r+0x514>
 1001178:	d9014f17 	ldw	r4,1340(sp)
 100117c:	b00b883a 	mov	r5,r22
 1001180:	d9800c04 	addi	r6,sp,48
 1001184:	d9c15115 	stw	r7,1348(sp)
 1001188:	10004dc0 	call	10004dc <__sprint_r>
 100118c:	d9c15117 	ldw	r7,1348(sp)
 1001190:	103ea01e 	bne	r2,zero,1000c14 <___vfprintf_internal_r+0x6e0>
 1001194:	dc800e17 	ldw	r18,56(sp)
 1001198:	dc400d17 	ldw	r17,52(sp)
 100119c:	dd401904 	addi	r21,sp,100
 10011a0:	003e1c06 	br	1000a14 <___vfprintf_internal_r+0x4e0>
 10011a4:	d9014f17 	ldw	r4,1340(sp)
 10011a8:	b00b883a 	mov	r5,r22
 10011ac:	d9800c04 	addi	r6,sp,48
 10011b0:	d9c15115 	stw	r7,1348(sp)
 10011b4:	10004dc0 	call	10004dc <__sprint_r>
 10011b8:	d9c15117 	ldw	r7,1348(sp)
 10011bc:	103e951e 	bne	r2,zero,1000c14 <___vfprintf_internal_r+0x6e0>
 10011c0:	dc800e17 	ldw	r18,56(sp)
 10011c4:	dc400d17 	ldw	r17,52(sp)
 10011c8:	dd401904 	addi	r21,sp,100
 10011cc:	003e0406 	br	10009e0 <___vfprintf_internal_r+0x4ac>
 10011d0:	d9000517 	ldw	r4,20(sp)
 10011d4:	0102580e 	bge	zero,r4,1001b38 <___vfprintf_internal_r+0x1604>
 10011d8:	d9814717 	ldw	r6,1308(sp)
 10011dc:	21807a16 	blt	r4,r6,10013c8 <___vfprintf_internal_r+0xe94>
 10011e0:	d8814117 	ldw	r2,1284(sp)
 10011e4:	91a5883a 	add	r18,r18,r6
 10011e8:	8c400044 	addi	r17,r17,1
 10011ec:	a8800015 	stw	r2,0(r21)
 10011f0:	008001c4 	movi	r2,7
 10011f4:	a9800115 	stw	r6,4(r21)
 10011f8:	dc800e15 	stw	r18,56(sp)
 10011fc:	dc400d15 	stw	r17,52(sp)
 1001200:	1442fc16 	blt	r2,r17,1001df4 <___vfprintf_internal_r+0x18c0>
 1001204:	a8c00204 	addi	r3,r21,8
 1001208:	d9414717 	ldw	r5,1308(sp)
 100120c:	2161c83a 	sub	r16,r4,r5
 1001210:	043f9d0e 	bge	zero,r16,1001088 <___vfprintf_internal_r+0xb54>
 1001214:	00800404 	movi	r2,16
 1001218:	1402190e 	bge	r2,r16,1001a80 <___vfprintf_internal_r+0x154c>
 100121c:	dc400d17 	ldw	r17,52(sp)
 1001220:	1027883a 	mov	r19,r2
 1001224:	07004074 	movhi	fp,257
 1001228:	e7352684 	addi	fp,fp,-11110
 100122c:	050001c4 	movi	r20,7
 1001230:	00000306 	br	1001240 <___vfprintf_internal_r+0xd0c>
 1001234:	18c00204 	addi	r3,r3,8
 1001238:	843ffc04 	addi	r16,r16,-16
 100123c:	9c02130e 	bge	r19,r16,1001a8c <___vfprintf_internal_r+0x1558>
 1001240:	94800404 	addi	r18,r18,16
 1001244:	8c400044 	addi	r17,r17,1
 1001248:	1f000015 	stw	fp,0(r3)
 100124c:	1cc00115 	stw	r19,4(r3)
 1001250:	dc800e15 	stw	r18,56(sp)
 1001254:	dc400d15 	stw	r17,52(sp)
 1001258:	a47ff60e 	bge	r20,r17,1001234 <___vfprintf_internal_r+0xd00>
 100125c:	d9014f17 	ldw	r4,1340(sp)
 1001260:	b00b883a 	mov	r5,r22
 1001264:	d9800c04 	addi	r6,sp,48
 1001268:	10004dc0 	call	10004dc <__sprint_r>
 100126c:	103e691e 	bne	r2,zero,1000c14 <___vfprintf_internal_r+0x6e0>
 1001270:	dc800e17 	ldw	r18,56(sp)
 1001274:	dc400d17 	ldw	r17,52(sp)
 1001278:	d8c01904 	addi	r3,sp,100
 100127c:	003fee06 	br	1001238 <___vfprintf_internal_r+0xd04>
 1001280:	d8814717 	ldw	r2,1308(sp)
 1001284:	143fffc4 	addi	r16,r2,-1
 1001288:	043e970e 	bge	zero,r16,1000ce8 <___vfprintf_internal_r+0x7b4>
 100128c:	00800404 	movi	r2,16
 1001290:	1400180e 	bge	r2,r16,10012f4 <___vfprintf_internal_r+0xdc0>
 1001294:	1029883a 	mov	r20,r2
 1001298:	07004074 	movhi	fp,257
 100129c:	e7352684 	addi	fp,fp,-11110
 10012a0:	054001c4 	movi	r21,7
 10012a4:	00000306 	br	10012b4 <___vfprintf_internal_r+0xd80>
 10012a8:	9cc00204 	addi	r19,r19,8
 10012ac:	843ffc04 	addi	r16,r16,-16
 10012b0:	a400120e 	bge	r20,r16,10012fc <___vfprintf_internal_r+0xdc8>
 10012b4:	94800404 	addi	r18,r18,16
 10012b8:	8c400044 	addi	r17,r17,1
 10012bc:	9f000015 	stw	fp,0(r19)
 10012c0:	9d000115 	stw	r20,4(r19)
 10012c4:	dc800e15 	stw	r18,56(sp)
 10012c8:	dc400d15 	stw	r17,52(sp)
 10012cc:	ac7ff60e 	bge	r21,r17,10012a8 <___vfprintf_internal_r+0xd74>
 10012d0:	d9014f17 	ldw	r4,1340(sp)
 10012d4:	b00b883a 	mov	r5,r22
 10012d8:	d9800c04 	addi	r6,sp,48
 10012dc:	10004dc0 	call	10004dc <__sprint_r>
 10012e0:	103e4c1e 	bne	r2,zero,1000c14 <___vfprintf_internal_r+0x6e0>
 10012e4:	dc800e17 	ldw	r18,56(sp)
 10012e8:	dc400d17 	ldw	r17,52(sp)
 10012ec:	dcc01904 	addi	r19,sp,100
 10012f0:	003fee06 	br	10012ac <___vfprintf_internal_r+0xd78>
 10012f4:	07004074 	movhi	fp,257
 10012f8:	e7352684 	addi	fp,fp,-11110
 10012fc:	9425883a 	add	r18,r18,r16
 1001300:	8c400044 	addi	r17,r17,1
 1001304:	008001c4 	movi	r2,7
 1001308:	9f000015 	stw	fp,0(r19)
 100130c:	9c000115 	stw	r16,4(r19)
 1001310:	dc800e15 	stw	r18,56(sp)
 1001314:	dc400d15 	stw	r17,52(sp)
 1001318:	147e720e 	bge	r2,r17,1000ce4 <___vfprintf_internal_r+0x7b0>
 100131c:	d9014f17 	ldw	r4,1340(sp)
 1001320:	b00b883a 	mov	r5,r22
 1001324:	d9800c04 	addi	r6,sp,48
 1001328:	10004dc0 	call	10004dc <__sprint_r>
 100132c:	103e391e 	bne	r2,zero,1000c14 <___vfprintf_internal_r+0x6e0>
 1001330:	dc800e17 	ldw	r18,56(sp)
 1001334:	dc400d17 	ldw	r17,52(sp)
 1001338:	dcc01904 	addi	r19,sp,100
 100133c:	003e6a06 	br	1000ce8 <___vfprintf_internal_r+0x7b4>
 1001340:	d9014f17 	ldw	r4,1340(sp)
 1001344:	b00b883a 	mov	r5,r22
 1001348:	d9800c04 	addi	r6,sp,48
 100134c:	d9c15115 	stw	r7,1348(sp)
 1001350:	10004dc0 	call	10004dc <__sprint_r>
 1001354:	d9c15117 	ldw	r7,1348(sp)
 1001358:	103e2e1e 	bne	r2,zero,1000c14 <___vfprintf_internal_r+0x6e0>
 100135c:	dc800e17 	ldw	r18,56(sp)
 1001360:	dc400d17 	ldw	r17,52(sp)
 1001364:	dd401904 	addi	r21,sp,100
 1001368:	003dba06 	br	1000a54 <___vfprintf_internal_r+0x520>
 100136c:	d9014f17 	ldw	r4,1340(sp)
 1001370:	b00b883a 	mov	r5,r22
 1001374:	d9800c04 	addi	r6,sp,48
 1001378:	10004dc0 	call	10004dc <__sprint_r>
 100137c:	103e251e 	bne	r2,zero,1000c14 <___vfprintf_internal_r+0x6e0>
 1001380:	dc800e17 	ldw	r18,56(sp)
 1001384:	dc400d17 	ldw	r17,52(sp)
 1001388:	dcc01904 	addi	r19,sp,100
 100138c:	003e4206 	br	1000c98 <___vfprintf_internal_r+0x764>
 1001390:	d9014f17 	ldw	r4,1340(sp)
 1001394:	b00b883a 	mov	r5,r22
 1001398:	d9800c04 	addi	r6,sp,48
 100139c:	10004dc0 	call	10004dc <__sprint_r>
 10013a0:	103e1c1e 	bne	r2,zero,1000c14 <___vfprintf_internal_r+0x6e0>
 10013a4:	dc800e17 	ldw	r18,56(sp)
 10013a8:	dc400d17 	ldw	r17,52(sp)
 10013ac:	d8c01904 	addi	r3,sp,100
 10013b0:	003e2e06 	br	1000c6c <___vfprintf_internal_r+0x738>
 10013b4:	d9414c17 	ldw	r5,1328(sp)
 10013b8:	2880004c 	andi	r2,r5,1
 10013bc:	1005003a 	cmpeq	r2,r2,zero
 10013c0:	103dda1e 	bne	r2,zero,1000b2c <___vfprintf_internal_r+0x5f8>
 10013c4:	003e9f06 	br	1000e44 <___vfprintf_internal_r+0x910>
 10013c8:	d8c14117 	ldw	r3,1284(sp)
 10013cc:	9125883a 	add	r18,r18,r4
 10013d0:	8c400044 	addi	r17,r17,1
 10013d4:	008001c4 	movi	r2,7
 10013d8:	a8c00015 	stw	r3,0(r21)
 10013dc:	a9000115 	stw	r4,4(r21)
 10013e0:	dc800e15 	stw	r18,56(sp)
 10013e4:	dc400d15 	stw	r17,52(sp)
 10013e8:	14426c16 	blt	r2,r17,1001d9c <___vfprintf_internal_r+0x1868>
 10013ec:	a8c00204 	addi	r3,r21,8
 10013f0:	d9414917 	ldw	r5,1316(sp)
 10013f4:	00800044 	movi	r2,1
 10013f8:	94800044 	addi	r18,r18,1
 10013fc:	8c400044 	addi	r17,r17,1
 1001400:	18800115 	stw	r2,4(r3)
 1001404:	008001c4 	movi	r2,7
 1001408:	19400015 	stw	r5,0(r3)
 100140c:	dc800e15 	stw	r18,56(sp)
 1001410:	dc400d15 	stw	r17,52(sp)
 1001414:	2021883a 	mov	r16,r4
 1001418:	14425616 	blt	r2,r17,1001d74 <___vfprintf_internal_r+0x1840>
 100141c:	19400204 	addi	r5,r3,8
 1001420:	d9814717 	ldw	r6,1308(sp)
 1001424:	8c400044 	addi	r17,r17,1
 1001428:	dc400d15 	stw	r17,52(sp)
 100142c:	3107c83a 	sub	r3,r6,r4
 1001430:	d9014117 	ldw	r4,1284(sp)
 1001434:	90e5883a 	add	r18,r18,r3
 1001438:	28c00115 	stw	r3,4(r5)
 100143c:	8105883a 	add	r2,r16,r4
 1001440:	28800015 	stw	r2,0(r5)
 1001444:	008001c4 	movi	r2,7
 1001448:	dc800e15 	stw	r18,56(sp)
 100144c:	147f1d16 	blt	r2,r17,10010c4 <___vfprintf_internal_r+0xb90>
 1001450:	28c00204 	addi	r3,r5,8
 1001454:	003db506 	br	1000b2c <___vfprintf_internal_r+0x5f8>
 1001458:	3c000017 	ldw	r16,0(r7)
 100145c:	3c400117 	ldw	r17,4(r7)
 1001460:	39800204 	addi	r6,r7,8
 1001464:	01000044 	movi	r4,1
 1001468:	d9814015 	stw	r6,1280(sp)
 100146c:	d8000405 	stb	zero,16(sp)
 1001470:	003ebe06 	br	1000f6c <___vfprintf_internal_r+0xa38>
 1001474:	3c000017 	ldw	r16,0(r7)
 1001478:	3c400117 	ldw	r17,4(r7)
 100147c:	38800204 	addi	r2,r7,8
 1001480:	d8814015 	stw	r2,1280(sp)
 1001484:	003eb706 	br	1000f64 <___vfprintf_internal_r+0xa30>
 1001488:	3c000017 	ldw	r16,0(r7)
 100148c:	3c400117 	ldw	r17,4(r7)
 1001490:	39000204 	addi	r4,r7,8
 1001494:	d9014015 	stw	r4,1280(sp)
 1001498:	0009883a 	mov	r4,zero
 100149c:	d8000405 	stb	zero,16(sp)
 10014a0:	003eb206 	br	1000f6c <___vfprintf_internal_r+0xa38>
 10014a4:	38c00017 	ldw	r3,0(r7)
 10014a8:	39c00104 	addi	r7,r7,4
 10014ac:	d8c14a15 	stw	r3,1320(sp)
 10014b0:	1800d70e 	bge	r3,zero,1001810 <___vfprintf_internal_r+0x12dc>
 10014b4:	00c7c83a 	sub	r3,zero,r3
 10014b8:	d8c14a15 	stw	r3,1320(sp)
 10014bc:	d9014c17 	ldw	r4,1328(sp)
 10014c0:	b8c00007 	ldb	r3,0(r23)
 10014c4:	21000114 	ori	r4,r4,4
 10014c8:	d9014c15 	stw	r4,1328(sp)
 10014cc:	003c9806 	br	1000730 <___vfprintf_internal_r+0x1fc>
 10014d0:	d9814c17 	ldw	r6,1328(sp)
 10014d4:	3080080c 	andi	r2,r6,32
 10014d8:	1001f626 	beq	r2,zero,1001cb4 <___vfprintf_internal_r+0x1780>
 10014dc:	d9014b17 	ldw	r4,1324(sp)
 10014e0:	38800017 	ldw	r2,0(r7)
 10014e4:	39c00104 	addi	r7,r7,4
 10014e8:	d9c14015 	stw	r7,1280(sp)
 10014ec:	2007d7fa 	srai	r3,r4,31
 10014f0:	d9c14017 	ldw	r7,1280(sp)
 10014f4:	11000015 	stw	r4,0(r2)
 10014f8:	10c00115 	stw	r3,4(r2)
 10014fc:	003c6906 	br	10006a4 <___vfprintf_internal_r+0x170>
 1001500:	b8c00007 	ldb	r3,0(r23)
 1001504:	00801b04 	movi	r2,108
 1001508:	18825526 	beq	r3,r2,1001e60 <___vfprintf_internal_r+0x192c>
 100150c:	d9414c17 	ldw	r5,1328(sp)
 1001510:	29400414 	ori	r5,r5,16
 1001514:	d9414c15 	stw	r5,1328(sp)
 1001518:	003c8506 	br	1000730 <___vfprintf_internal_r+0x1fc>
 100151c:	d9814c17 	ldw	r6,1328(sp)
 1001520:	b8c00007 	ldb	r3,0(r23)
 1001524:	31800814 	ori	r6,r6,32
 1001528:	d9814c15 	stw	r6,1328(sp)
 100152c:	003c8006 	br	1000730 <___vfprintf_internal_r+0x1fc>
 1001530:	d8814c17 	ldw	r2,1328(sp)
 1001534:	3c000017 	ldw	r16,0(r7)
 1001538:	00c01e04 	movi	r3,120
 100153c:	10800094 	ori	r2,r2,2
 1001540:	d8814c15 	stw	r2,1328(sp)
 1001544:	39c00104 	addi	r7,r7,4
 1001548:	01404074 	movhi	r5,257
 100154c:	29750f04 	addi	r5,r5,-11204
 1001550:	00800c04 	movi	r2,48
 1001554:	0023883a 	mov	r17,zero
 1001558:	01000084 	movi	r4,2
 100155c:	d9c14015 	stw	r7,1280(sp)
 1001560:	d8c14d15 	stw	r3,1332(sp)
 1001564:	d9414415 	stw	r5,1296(sp)
 1001568:	d8800445 	stb	r2,17(sp)
 100156c:	d8c00485 	stb	r3,18(sp)
 1001570:	d8000405 	stb	zero,16(sp)
 1001574:	003e7d06 	br	1000f6c <___vfprintf_internal_r+0xa38>
 1001578:	d8814c17 	ldw	r2,1328(sp)
 100157c:	b8c00007 	ldb	r3,0(r23)
 1001580:	10801014 	ori	r2,r2,64
 1001584:	d8814c15 	stw	r2,1328(sp)
 1001588:	003c6906 	br	1000730 <___vfprintf_internal_r+0x1fc>
 100158c:	d9414c17 	ldw	r5,1328(sp)
 1001590:	2880020c 	andi	r2,r5,8
 1001594:	1001e526 	beq	r2,zero,1001d2c <___vfprintf_internal_r+0x17f8>
 1001598:	39800017 	ldw	r6,0(r7)
 100159c:	38800204 	addi	r2,r7,8
 10015a0:	d8814015 	stw	r2,1280(sp)
 10015a4:	d9814215 	stw	r6,1288(sp)
 10015a8:	39c00117 	ldw	r7,4(r7)
 10015ac:	d9c14315 	stw	r7,1292(sp)
 10015b0:	d9014217 	ldw	r4,1288(sp)
 10015b4:	d9414317 	ldw	r5,1292(sp)
 10015b8:	1006fe40 	call	1006fe4 <__isinfd>
 10015bc:	10021d26 	beq	r2,zero,1001e34 <___vfprintf_internal_r+0x1900>
 10015c0:	d9014217 	ldw	r4,1288(sp)
 10015c4:	d9414317 	ldw	r5,1292(sp)
 10015c8:	000d883a 	mov	r6,zero
 10015cc:	000f883a 	mov	r7,zero
 10015d0:	10091f40 	call	10091f4 <__ltdf2>
 10015d4:	1002d016 	blt	r2,zero,1002118 <___vfprintf_internal_r+0x1be4>
 10015d8:	d9414d17 	ldw	r5,1332(sp)
 10015dc:	008011c4 	movi	r2,71
 10015e0:	11421016 	blt	r2,r5,1001e24 <___vfprintf_internal_r+0x18f0>
 10015e4:	01804074 	movhi	r6,257
 10015e8:	31b51404 	addi	r6,r6,-11184
 10015ec:	d9814115 	stw	r6,1284(sp)
 10015f0:	d9014c17 	ldw	r4,1328(sp)
 10015f4:	00c000c4 	movi	r3,3
 10015f8:	00bfdfc4 	movi	r2,-129
 10015fc:	2088703a 	and	r4,r4,r2
 1001600:	180f883a 	mov	r7,r3
 1001604:	d8c14515 	stw	r3,1300(sp)
 1001608:	d9014c15 	stw	r4,1328(sp)
 100160c:	d8014615 	stw	zero,1304(sp)
 1001610:	003e6a06 	br	1000fbc <___vfprintf_internal_r+0xa88>
 1001614:	38800017 	ldw	r2,0(r7)
 1001618:	00c00044 	movi	r3,1
 100161c:	39c00104 	addi	r7,r7,4
 1001620:	d9c14015 	stw	r7,1280(sp)
 1001624:	d9000f04 	addi	r4,sp,60
 1001628:	180f883a 	mov	r7,r3
 100162c:	d8c14515 	stw	r3,1300(sp)
 1001630:	d9014115 	stw	r4,1284(sp)
 1001634:	d8800f05 	stb	r2,60(sp)
 1001638:	d8000405 	stb	zero,16(sp)
 100163c:	003cac06 	br	10008f0 <___vfprintf_internal_r+0x3bc>
 1001640:	01404074 	movhi	r5,257
 1001644:	29751a04 	addi	r5,r5,-11160
 1001648:	d9414415 	stw	r5,1296(sp)
 100164c:	d9814c17 	ldw	r6,1328(sp)
 1001650:	3080080c 	andi	r2,r6,32
 1001654:	1000ff26 	beq	r2,zero,1001a54 <___vfprintf_internal_r+0x1520>
 1001658:	3c000017 	ldw	r16,0(r7)
 100165c:	3c400117 	ldw	r17,4(r7)
 1001660:	38800204 	addi	r2,r7,8
 1001664:	d8814015 	stw	r2,1280(sp)
 1001668:	d9414c17 	ldw	r5,1328(sp)
 100166c:	2880004c 	andi	r2,r5,1
 1001670:	1005003a 	cmpeq	r2,r2,zero
 1001674:	1000b91e 	bne	r2,zero,100195c <___vfprintf_internal_r+0x1428>
 1001678:	8444b03a 	or	r2,r16,r17
 100167c:	1000b726 	beq	r2,zero,100195c <___vfprintf_internal_r+0x1428>
 1001680:	d9814d17 	ldw	r6,1332(sp)
 1001684:	29400094 	ori	r5,r5,2
 1001688:	00800c04 	movi	r2,48
 100168c:	01000084 	movi	r4,2
 1001690:	d9414c15 	stw	r5,1328(sp)
 1001694:	d8800445 	stb	r2,17(sp)
 1001698:	d9800485 	stb	r6,18(sp)
 100169c:	d8000405 	stb	zero,16(sp)
 10016a0:	003e3206 	br	1000f6c <___vfprintf_internal_r+0xa38>
 10016a4:	01804074 	movhi	r6,257
 10016a8:	31b50f04 	addi	r6,r6,-11204
 10016ac:	d9814415 	stw	r6,1296(sp)
 10016b0:	003fe606 	br	100164c <___vfprintf_internal_r+0x1118>
 10016b4:	00800ac4 	movi	r2,43
 10016b8:	d8800405 	stb	r2,16(sp)
 10016bc:	b8c00007 	ldb	r3,0(r23)
 10016c0:	003c1b06 	br	1000730 <___vfprintf_internal_r+0x1fc>
 10016c4:	d8814c17 	ldw	r2,1328(sp)
 10016c8:	b8c00007 	ldb	r3,0(r23)
 10016cc:	10800054 	ori	r2,r2,1
 10016d0:	d8814c15 	stw	r2,1328(sp)
 10016d4:	003c1606 	br	1000730 <___vfprintf_internal_r+0x1fc>
 10016d8:	d8800407 	ldb	r2,16(sp)
 10016dc:	10004c1e 	bne	r2,zero,1001810 <___vfprintf_internal_r+0x12dc>
 10016e0:	00800804 	movi	r2,32
 10016e4:	d8800405 	stb	r2,16(sp)
 10016e8:	b8c00007 	ldb	r3,0(r23)
 10016ec:	003c1006 	br	1000730 <___vfprintf_internal_r+0x1fc>
 10016f0:	d9814c17 	ldw	r6,1328(sp)
 10016f4:	b8c00007 	ldb	r3,0(r23)
 10016f8:	31800214 	ori	r6,r6,8
 10016fc:	d9814c15 	stw	r6,1328(sp)
 1001700:	003c0b06 	br	1000730 <___vfprintf_internal_r+0x1fc>
 1001704:	0009883a 	mov	r4,zero
 1001708:	04000244 	movi	r16,9
 100170c:	01400284 	movi	r5,10
 1001710:	d9c15115 	stw	r7,1348(sp)
 1001714:	100972c0 	call	100972c <__mulsi3>
 1001718:	b9000007 	ldb	r4,0(r23)
 100171c:	d8c14d17 	ldw	r3,1332(sp)
 1001720:	bdc00044 	addi	r23,r23,1
 1001724:	d9014d15 	stw	r4,1332(sp)
 1001728:	d9414d17 	ldw	r5,1332(sp)
 100172c:	1885883a 	add	r2,r3,r2
 1001730:	113ff404 	addi	r4,r2,-48
 1001734:	28bff404 	addi	r2,r5,-48
 1001738:	d9c15117 	ldw	r7,1348(sp)
 100173c:	80bff32e 	bgeu	r16,r2,100170c <___vfprintf_internal_r+0x11d8>
 1001740:	d9014a15 	stw	r4,1320(sp)
 1001744:	003bfc06 	br	1000738 <___vfprintf_internal_r+0x204>
 1001748:	d8814c17 	ldw	r2,1328(sp)
 100174c:	b8c00007 	ldb	r3,0(r23)
 1001750:	10802014 	ori	r2,r2,128
 1001754:	d8814c15 	stw	r2,1328(sp)
 1001758:	003bf506 	br	1000730 <___vfprintf_internal_r+0x1fc>
 100175c:	b8c00007 	ldb	r3,0(r23)
 1001760:	00800a84 	movi	r2,42
 1001764:	bdc00044 	addi	r23,r23,1
 1001768:	18831826 	beq	r3,r2,10023cc <___vfprintf_internal_r+0x1e98>
 100176c:	d8c14d15 	stw	r3,1332(sp)
 1001770:	18bff404 	addi	r2,r3,-48
 1001774:	00c00244 	movi	r3,9
 1001778:	18827b36 	bltu	r3,r2,1002168 <___vfprintf_internal_r+0x1c34>
 100177c:	1821883a 	mov	r16,r3
 1001780:	0009883a 	mov	r4,zero
 1001784:	01400284 	movi	r5,10
 1001788:	d9c15115 	stw	r7,1348(sp)
 100178c:	100972c0 	call	100972c <__mulsi3>
 1001790:	d9414d17 	ldw	r5,1332(sp)
 1001794:	b9800007 	ldb	r6,0(r23)
 1001798:	d9c15117 	ldw	r7,1348(sp)
 100179c:	1145883a 	add	r2,r2,r5
 10017a0:	113ff404 	addi	r4,r2,-48
 10017a4:	30bff404 	addi	r2,r6,-48
 10017a8:	d9814d15 	stw	r6,1332(sp)
 10017ac:	bdc00044 	addi	r23,r23,1
 10017b0:	80bff42e 	bgeu	r16,r2,1001784 <___vfprintf_internal_r+0x1250>
 10017b4:	2027883a 	mov	r19,r4
 10017b8:	203bdf0e 	bge	r4,zero,1000738 <___vfprintf_internal_r+0x204>
 10017bc:	04ffffc4 	movi	r19,-1
 10017c0:	003bdd06 	br	1000738 <___vfprintf_internal_r+0x204>
 10017c4:	d8000405 	stb	zero,16(sp)
 10017c8:	39800017 	ldw	r6,0(r7)
 10017cc:	39c00104 	addi	r7,r7,4
 10017d0:	d9c14015 	stw	r7,1280(sp)
 10017d4:	d9814115 	stw	r6,1284(sp)
 10017d8:	3001c926 	beq	r6,zero,1001f00 <___vfprintf_internal_r+0x19cc>
 10017dc:	98000e16 	blt	r19,zero,1001818 <___vfprintf_internal_r+0x12e4>
 10017e0:	d9014117 	ldw	r4,1284(sp)
 10017e4:	000b883a 	mov	r5,zero
 10017e8:	980d883a 	mov	r6,r19
 10017ec:	10056680 	call	1005668 <memchr>
 10017f0:	10025926 	beq	r2,zero,1002158 <___vfprintf_internal_r+0x1c24>
 10017f4:	d8c14117 	ldw	r3,1284(sp)
 10017f8:	10cfc83a 	sub	r7,r2,r3
 10017fc:	99c19e16 	blt	r19,r7,1001e78 <___vfprintf_internal_r+0x1944>
 1001800:	d9c14515 	stw	r7,1300(sp)
 1001804:	38000916 	blt	r7,zero,100182c <___vfprintf_internal_r+0x12f8>
 1001808:	d8014615 	stw	zero,1304(sp)
 100180c:	003deb06 	br	1000fbc <___vfprintf_internal_r+0xa88>
 1001810:	b8c00007 	ldb	r3,0(r23)
 1001814:	003bc606 	br	1000730 <___vfprintf_internal_r+0x1fc>
 1001818:	d9014117 	ldw	r4,1284(sp)
 100181c:	10072cc0 	call	10072cc <strlen>
 1001820:	d8814515 	stw	r2,1300(sp)
 1001824:	100f883a 	mov	r7,r2
 1001828:	103ff70e 	bge	r2,zero,1001808 <___vfprintf_internal_r+0x12d4>
 100182c:	d8014515 	stw	zero,1300(sp)
 1001830:	d8014615 	stw	zero,1304(sp)
 1001834:	003de106 	br	1000fbc <___vfprintf_internal_r+0xa88>
 1001838:	20c03fcc 	andi	r3,r4,255
 100183c:	00800044 	movi	r2,1
 1001840:	18802d26 	beq	r3,r2,10018f8 <___vfprintf_internal_r+0x13c4>
 1001844:	18800e36 	bltu	r3,r2,1001880 <___vfprintf_internal_r+0x134c>
 1001848:	00800084 	movi	r2,2
 100184c:	1880fa26 	beq	r3,r2,1001c38 <___vfprintf_internal_r+0x1704>
 1001850:	01004074 	movhi	r4,257
 1001854:	21351f04 	addi	r4,r4,-11140
 1001858:	10072cc0 	call	10072cc <strlen>
 100185c:	100f883a 	mov	r7,r2
 1001860:	dcc14515 	stw	r19,1300(sp)
 1001864:	9880010e 	bge	r19,r2,100186c <___vfprintf_internal_r+0x1338>
 1001868:	d8814515 	stw	r2,1300(sp)
 100186c:	00804074 	movhi	r2,257
 1001870:	10b51f04 	addi	r2,r2,-11140
 1001874:	dcc14615 	stw	r19,1304(sp)
 1001878:	d8814115 	stw	r2,1284(sp)
 100187c:	003dcf06 	br	1000fbc <___vfprintf_internal_r+0xa88>
 1001880:	d9401904 	addi	r5,sp,100
 1001884:	dd000f04 	addi	r20,sp,60
 1001888:	d9414115 	stw	r5,1284(sp)
 100188c:	880a977a 	slli	r5,r17,29
 1001890:	d9814117 	ldw	r6,1284(sp)
 1001894:	8004d0fa 	srli	r2,r16,3
 1001898:	8806d0fa 	srli	r3,r17,3
 100189c:	810001cc 	andi	r4,r16,7
 10018a0:	2884b03a 	or	r2,r5,r2
 10018a4:	31bfffc4 	addi	r6,r6,-1
 10018a8:	21000c04 	addi	r4,r4,48
 10018ac:	d9814115 	stw	r6,1284(sp)
 10018b0:	10cab03a 	or	r5,r2,r3
 10018b4:	31000005 	stb	r4,0(r6)
 10018b8:	1021883a 	mov	r16,r2
 10018bc:	1823883a 	mov	r17,r3
 10018c0:	283ff21e 	bne	r5,zero,100188c <___vfprintf_internal_r+0x1358>
 10018c4:	d8c14c17 	ldw	r3,1328(sp)
 10018c8:	1880004c 	andi	r2,r3,1
 10018cc:	1005003a 	cmpeq	r2,r2,zero
 10018d0:	103db31e 	bne	r2,zero,1000fa0 <___vfprintf_internal_r+0xa6c>
 10018d4:	20803fcc 	andi	r2,r4,255
 10018d8:	1080201c 	xori	r2,r2,128
 10018dc:	10bfe004 	addi	r2,r2,-128
 10018e0:	00c00c04 	movi	r3,48
 10018e4:	10fdae26 	beq	r2,r3,1000fa0 <___vfprintf_internal_r+0xa6c>
 10018e8:	31bfffc4 	addi	r6,r6,-1
 10018ec:	d9814115 	stw	r6,1284(sp)
 10018f0:	30c00005 	stb	r3,0(r6)
 10018f4:	003daa06 	br	1000fa0 <___vfprintf_internal_r+0xa6c>
 10018f8:	88800068 	cmpgeui	r2,r17,1
 10018fc:	10002c1e 	bne	r2,zero,10019b0 <___vfprintf_internal_r+0x147c>
 1001900:	8800021e 	bne	r17,zero,100190c <___vfprintf_internal_r+0x13d8>
 1001904:	00800244 	movi	r2,9
 1001908:	14002936 	bltu	r2,r16,10019b0 <___vfprintf_internal_r+0x147c>
 100190c:	d90018c4 	addi	r4,sp,99
 1001910:	dd000f04 	addi	r20,sp,60
 1001914:	d9014115 	stw	r4,1284(sp)
 1001918:	d9014117 	ldw	r4,1284(sp)
 100191c:	80800c04 	addi	r2,r16,48
 1001920:	20800005 	stb	r2,0(r4)
 1001924:	003d9e06 	br	1000fa0 <___vfprintf_internal_r+0xa6c>
 1001928:	dc400d17 	ldw	r17,52(sp)
 100192c:	07004074 	movhi	fp,257
 1001930:	e7352684 	addi	fp,fp,-11110
 1001934:	9425883a 	add	r18,r18,r16
 1001938:	8c400044 	addi	r17,r17,1
 100193c:	008001c4 	movi	r2,7
 1001940:	1f000015 	stw	fp,0(r3)
 1001944:	1c000115 	stw	r16,4(r3)
 1001948:	dc800e15 	stw	r18,56(sp)
 100194c:	dc400d15 	stw	r17,52(sp)
 1001950:	147ddc16 	blt	r2,r17,10010c4 <___vfprintf_internal_r+0xb90>
 1001954:	18c00204 	addi	r3,r3,8
 1001958:	003c7406 	br	1000b2c <___vfprintf_internal_r+0x5f8>
 100195c:	01000084 	movi	r4,2
 1001960:	d8000405 	stb	zero,16(sp)
 1001964:	003d8106 	br	1000f6c <___vfprintf_internal_r+0xa38>
 1001968:	d9814c17 	ldw	r6,1328(sp)
 100196c:	30c4703a 	and	r2,r6,r3
 1001970:	1005003a 	cmpeq	r2,r2,zero
 1001974:	103cb326 	beq	r2,zero,1000c44 <___vfprintf_internal_r+0x710>
 1001978:	d9014117 	ldw	r4,1284(sp)
 100197c:	94800044 	addi	r18,r18,1
 1001980:	8c400044 	addi	r17,r17,1
 1001984:	008001c4 	movi	r2,7
 1001988:	a9000015 	stw	r4,0(r21)
 100198c:	a8c00115 	stw	r3,4(r21)
 1001990:	dc800e15 	stw	r18,56(sp)
 1001994:	dc400d15 	stw	r17,52(sp)
 1001998:	147e6016 	blt	r2,r17,100131c <___vfprintf_internal_r+0xde8>
 100199c:	acc00204 	addi	r19,r21,8
 10019a0:	003cd106 	br	1000ce8 <___vfprintf_internal_r+0x7b4>
 10019a4:	07004074 	movhi	fp,257
 10019a8:	e7352684 	addi	fp,fp,-11110
 10019ac:	003c4906 	br	1000ad4 <___vfprintf_internal_r+0x5a0>
 10019b0:	dd000f04 	addi	r20,sp,60
 10019b4:	dc801904 	addi	r18,sp,100
 10019b8:	8009883a 	mov	r4,r16
 10019bc:	880b883a 	mov	r5,r17
 10019c0:	01800284 	movi	r6,10
 10019c4:	000f883a 	mov	r7,zero
 10019c8:	1007e540 	call	1007e54 <__umoddi3>
 10019cc:	12000c04 	addi	r8,r2,48
 10019d0:	94bfffc4 	addi	r18,r18,-1
 10019d4:	8009883a 	mov	r4,r16
 10019d8:	880b883a 	mov	r5,r17
 10019dc:	01800284 	movi	r6,10
 10019e0:	000f883a 	mov	r7,zero
 10019e4:	92000005 	stb	r8,0(r18)
 10019e8:	10077e80 	call	10077e8 <__udivdi3>
 10019ec:	1009883a 	mov	r4,r2
 10019f0:	1021883a 	mov	r16,r2
 10019f4:	18800068 	cmpgeui	r2,r3,1
 10019f8:	1823883a 	mov	r17,r3
 10019fc:	103fee1e 	bne	r2,zero,10019b8 <___vfprintf_internal_r+0x1484>
 1001a00:	1800021e 	bne	r3,zero,1001a0c <___vfprintf_internal_r+0x14d8>
 1001a04:	00800244 	movi	r2,9
 1001a08:	113feb36 	bltu	r2,r4,10019b8 <___vfprintf_internal_r+0x1484>
 1001a0c:	94bfffc4 	addi	r18,r18,-1
 1001a10:	dc814115 	stw	r18,1284(sp)
 1001a14:	003fc006 	br	1001918 <___vfprintf_internal_r+0x13e4>
 1001a18:	d9014c17 	ldw	r4,1328(sp)
 1001a1c:	2080004c 	andi	r2,r4,1
 1001a20:	10009a1e 	bne	r2,zero,1001c8c <___vfprintf_internal_r+0x1758>
 1001a24:	d9401904 	addi	r5,sp,100
 1001a28:	dd000f04 	addi	r20,sp,60
 1001a2c:	d9414115 	stw	r5,1284(sp)
 1001a30:	003d5b06 	br	1000fa0 <___vfprintf_internal_r+0xa6c>
 1001a34:	d9014f17 	ldw	r4,1340(sp)
 1001a38:	b00b883a 	mov	r5,r22
 1001a3c:	d9800c04 	addi	r6,sp,48
 1001a40:	10004dc0 	call	10004dc <__sprint_r>
 1001a44:	103c731e 	bne	r2,zero,1000c14 <___vfprintf_internal_r+0x6e0>
 1001a48:	dc800e17 	ldw	r18,56(sp)
 1001a4c:	d8c01904 	addi	r3,sp,100
 1001a50:	003cf906 	br	1000e38 <___vfprintf_internal_r+0x904>
 1001a54:	d8c14c17 	ldw	r3,1328(sp)
 1001a58:	1880040c 	andi	r2,r3,16
 1001a5c:	1000711e 	bne	r2,zero,1001c24 <___vfprintf_internal_r+0x16f0>
 1001a60:	d9014c17 	ldw	r4,1328(sp)
 1001a64:	2080100c 	andi	r2,r4,64
 1001a68:	10006e26 	beq	r2,zero,1001c24 <___vfprintf_internal_r+0x16f0>
 1001a6c:	3c00000b 	ldhu	r16,0(r7)
 1001a70:	0023883a 	mov	r17,zero
 1001a74:	39c00104 	addi	r7,r7,4
 1001a78:	d9c14015 	stw	r7,1280(sp)
 1001a7c:	003efa06 	br	1001668 <___vfprintf_internal_r+0x1134>
 1001a80:	dc400d17 	ldw	r17,52(sp)
 1001a84:	07004074 	movhi	fp,257
 1001a88:	e7352684 	addi	fp,fp,-11110
 1001a8c:	9425883a 	add	r18,r18,r16
 1001a90:	8c400044 	addi	r17,r17,1
 1001a94:	008001c4 	movi	r2,7
 1001a98:	1f000015 	stw	fp,0(r3)
 1001a9c:	1c000115 	stw	r16,4(r3)
 1001aa0:	dc800e15 	stw	r18,56(sp)
 1001aa4:	dc400d15 	stw	r17,52(sp)
 1001aa8:	147d7016 	blt	r2,r17,100106c <___vfprintf_internal_r+0xb38>
 1001aac:	18c00204 	addi	r3,r3,8
 1001ab0:	003d7506 	br	1001088 <___vfprintf_internal_r+0xb54>
 1001ab4:	dc800e17 	ldw	r18,56(sp)
 1001ab8:	dc400d17 	ldw	r17,52(sp)
 1001abc:	07004074 	movhi	fp,257
 1001ac0:	e7352a84 	addi	fp,fp,-11094
 1001ac4:	003bba06 	br	10009b0 <___vfprintf_internal_r+0x47c>
 1001ac8:	d9014f17 	ldw	r4,1340(sp)
 1001acc:	b00b883a 	mov	r5,r22
 1001ad0:	d9800c04 	addi	r6,sp,48
 1001ad4:	10004dc0 	call	10004dc <__sprint_r>
 1001ad8:	103c4e1e 	bne	r2,zero,1000c14 <___vfprintf_internal_r+0x6e0>
 1001adc:	dc800e17 	ldw	r18,56(sp)
 1001ae0:	d8c01904 	addi	r3,sp,100
 1001ae4:	003ce306 	br	1000e74 <___vfprintf_internal_r+0x940>
 1001ae8:	3c000017 	ldw	r16,0(r7)
 1001aec:	0009883a 	mov	r4,zero
 1001af0:	39c00104 	addi	r7,r7,4
 1001af4:	0023883a 	mov	r17,zero
 1001af8:	d9c14015 	stw	r7,1280(sp)
 1001afc:	d8000405 	stb	zero,16(sp)
 1001b00:	003d1a06 	br	1000f6c <___vfprintf_internal_r+0xa38>
 1001b04:	38800017 	ldw	r2,0(r7)
 1001b08:	39c00104 	addi	r7,r7,4
 1001b0c:	d9c14015 	stw	r7,1280(sp)
 1001b10:	1023d7fa 	srai	r17,r2,31
 1001b14:	1021883a 	mov	r16,r2
 1001b18:	003d1206 	br	1000f64 <___vfprintf_internal_r+0xa30>
 1001b1c:	3c000017 	ldw	r16,0(r7)
 1001b20:	01000044 	movi	r4,1
 1001b24:	39c00104 	addi	r7,r7,4
 1001b28:	0023883a 	mov	r17,zero
 1001b2c:	d9c14015 	stw	r7,1280(sp)
 1001b30:	d8000405 	stb	zero,16(sp)
 1001b34:	003d0d06 	br	1000f6c <___vfprintf_internal_r+0xa38>
 1001b38:	00804074 	movhi	r2,257
 1001b3c:	10b52604 	addi	r2,r2,-11112
 1001b40:	94800044 	addi	r18,r18,1
 1001b44:	8c400044 	addi	r17,r17,1
 1001b48:	a8800015 	stw	r2,0(r21)
 1001b4c:	00c00044 	movi	r3,1
 1001b50:	008001c4 	movi	r2,7
 1001b54:	a8c00115 	stw	r3,4(r21)
 1001b58:	dc800e15 	stw	r18,56(sp)
 1001b5c:	dc400d15 	stw	r17,52(sp)
 1001b60:	1440ca16 	blt	r2,r17,1001e8c <___vfprintf_internal_r+0x1958>
 1001b64:	a8c00204 	addi	r3,r21,8
 1001b68:	2000061e 	bne	r4,zero,1001b84 <___vfprintf_internal_r+0x1650>
 1001b6c:	d9414717 	ldw	r5,1308(sp)
 1001b70:	2800041e 	bne	r5,zero,1001b84 <___vfprintf_internal_r+0x1650>
 1001b74:	d9814c17 	ldw	r6,1328(sp)
 1001b78:	3080004c 	andi	r2,r6,1
 1001b7c:	1005003a 	cmpeq	r2,r2,zero
 1001b80:	103bea1e 	bne	r2,zero,1000b2c <___vfprintf_internal_r+0x5f8>
 1001b84:	00800044 	movi	r2,1
 1001b88:	dc400d17 	ldw	r17,52(sp)
 1001b8c:	18800115 	stw	r2,4(r3)
 1001b90:	d8814917 	ldw	r2,1316(sp)
 1001b94:	94800044 	addi	r18,r18,1
 1001b98:	8c400044 	addi	r17,r17,1
 1001b9c:	18800015 	stw	r2,0(r3)
 1001ba0:	008001c4 	movi	r2,7
 1001ba4:	dc800e15 	stw	r18,56(sp)
 1001ba8:	dc400d15 	stw	r17,52(sp)
 1001bac:	1440ca16 	blt	r2,r17,1001ed8 <___vfprintf_internal_r+0x19a4>
 1001bb0:	18c00204 	addi	r3,r3,8
 1001bb4:	0121c83a 	sub	r16,zero,r4
 1001bb8:	0400500e 	bge	zero,r16,1001cfc <___vfprintf_internal_r+0x17c8>
 1001bbc:	00800404 	movi	r2,16
 1001bc0:	1400800e 	bge	r2,r16,1001dc4 <___vfprintf_internal_r+0x1890>
 1001bc4:	1027883a 	mov	r19,r2
 1001bc8:	07004074 	movhi	fp,257
 1001bcc:	e7352684 	addi	fp,fp,-11110
 1001bd0:	050001c4 	movi	r20,7
 1001bd4:	00000306 	br	1001be4 <___vfprintf_internal_r+0x16b0>
 1001bd8:	18c00204 	addi	r3,r3,8
 1001bdc:	843ffc04 	addi	r16,r16,-16
 1001be0:	9c007a0e 	bge	r19,r16,1001dcc <___vfprintf_internal_r+0x1898>
 1001be4:	94800404 	addi	r18,r18,16
 1001be8:	8c400044 	addi	r17,r17,1
 1001bec:	1f000015 	stw	fp,0(r3)
 1001bf0:	1cc00115 	stw	r19,4(r3)
 1001bf4:	dc800e15 	stw	r18,56(sp)
 1001bf8:	dc400d15 	stw	r17,52(sp)
 1001bfc:	a47ff60e 	bge	r20,r17,1001bd8 <___vfprintf_internal_r+0x16a4>
 1001c00:	d9014f17 	ldw	r4,1340(sp)
 1001c04:	b00b883a 	mov	r5,r22
 1001c08:	d9800c04 	addi	r6,sp,48
 1001c0c:	10004dc0 	call	10004dc <__sprint_r>
 1001c10:	103c001e 	bne	r2,zero,1000c14 <___vfprintf_internal_r+0x6e0>
 1001c14:	dc800e17 	ldw	r18,56(sp)
 1001c18:	dc400d17 	ldw	r17,52(sp)
 1001c1c:	d8c01904 	addi	r3,sp,100
 1001c20:	003fee06 	br	1001bdc <___vfprintf_internal_r+0x16a8>
 1001c24:	3c000017 	ldw	r16,0(r7)
 1001c28:	0023883a 	mov	r17,zero
 1001c2c:	39c00104 	addi	r7,r7,4
 1001c30:	d9c14015 	stw	r7,1280(sp)
 1001c34:	003e8c06 	br	1001668 <___vfprintf_internal_r+0x1134>
 1001c38:	d9401904 	addi	r5,sp,100
 1001c3c:	dd000f04 	addi	r20,sp,60
 1001c40:	d9414115 	stw	r5,1284(sp)
 1001c44:	d9814417 	ldw	r6,1296(sp)
 1001c48:	880a973a 	slli	r5,r17,28
 1001c4c:	8004d13a 	srli	r2,r16,4
 1001c50:	810003cc 	andi	r4,r16,15
 1001c54:	3109883a 	add	r4,r6,r4
 1001c58:	2884b03a 	or	r2,r5,r2
 1001c5c:	21400003 	ldbu	r5,0(r4)
 1001c60:	d9014117 	ldw	r4,1284(sp)
 1001c64:	8806d13a 	srli	r3,r17,4
 1001c68:	1021883a 	mov	r16,r2
 1001c6c:	213fffc4 	addi	r4,r4,-1
 1001c70:	d9014115 	stw	r4,1284(sp)
 1001c74:	d9814117 	ldw	r6,1284(sp)
 1001c78:	10c8b03a 	or	r4,r2,r3
 1001c7c:	1823883a 	mov	r17,r3
 1001c80:	31400005 	stb	r5,0(r6)
 1001c84:	203fef1e 	bne	r4,zero,1001c44 <___vfprintf_internal_r+0x1710>
 1001c88:	003cc506 	br	1000fa0 <___vfprintf_internal_r+0xa6c>
 1001c8c:	00800c04 	movi	r2,48
 1001c90:	d98018c4 	addi	r6,sp,99
 1001c94:	dd000f04 	addi	r20,sp,60
 1001c98:	d88018c5 	stb	r2,99(sp)
 1001c9c:	d9814115 	stw	r6,1284(sp)
 1001ca0:	003cbf06 	br	1000fa0 <___vfprintf_internal_r+0xa6c>
 1001ca4:	dc400d17 	ldw	r17,52(sp)
 1001ca8:	07004074 	movhi	fp,257
 1001cac:	e7352a84 	addi	fp,fp,-11094
 1001cb0:	003bc106 	br	1000bb8 <___vfprintf_internal_r+0x684>
 1001cb4:	d9414c17 	ldw	r5,1328(sp)
 1001cb8:	2880040c 	andi	r2,r5,16
 1001cbc:	10007c26 	beq	r2,zero,1001eb0 <___vfprintf_internal_r+0x197c>
 1001cc0:	38800017 	ldw	r2,0(r7)
 1001cc4:	39c00104 	addi	r7,r7,4
 1001cc8:	d9c14015 	stw	r7,1280(sp)
 1001ccc:	d9814b17 	ldw	r6,1324(sp)
 1001cd0:	d9c14017 	ldw	r7,1280(sp)
 1001cd4:	11800015 	stw	r6,0(r2)
 1001cd8:	003a7206 	br	10006a4 <___vfprintf_internal_r+0x170>
 1001cdc:	d9014f17 	ldw	r4,1340(sp)
 1001ce0:	b00b883a 	mov	r5,r22
 1001ce4:	d9800c04 	addi	r6,sp,48
 1001ce8:	10004dc0 	call	10004dc <__sprint_r>
 1001cec:	103bc91e 	bne	r2,zero,1000c14 <___vfprintf_internal_r+0x6e0>
 1001cf0:	dc800e17 	ldw	r18,56(sp)
 1001cf4:	dc400d17 	ldw	r17,52(sp)
 1001cf8:	d8c01904 	addi	r3,sp,100
 1001cfc:	d9014717 	ldw	r4,1308(sp)
 1001d00:	d9414117 	ldw	r5,1284(sp)
 1001d04:	8c400044 	addi	r17,r17,1
 1001d08:	9125883a 	add	r18,r18,r4
 1001d0c:	008001c4 	movi	r2,7
 1001d10:	19400015 	stw	r5,0(r3)
 1001d14:	19000115 	stw	r4,4(r3)
 1001d18:	dc800e15 	stw	r18,56(sp)
 1001d1c:	dc400d15 	stw	r17,52(sp)
 1001d20:	147ce816 	blt	r2,r17,10010c4 <___vfprintf_internal_r+0xb90>
 1001d24:	18c00204 	addi	r3,r3,8
 1001d28:	003b8006 	br	1000b2c <___vfprintf_internal_r+0x5f8>
 1001d2c:	38c00017 	ldw	r3,0(r7)
 1001d30:	39000204 	addi	r4,r7,8
 1001d34:	d9014015 	stw	r4,1280(sp)
 1001d38:	d8c14215 	stw	r3,1288(sp)
 1001d3c:	39c00117 	ldw	r7,4(r7)
 1001d40:	d9c14315 	stw	r7,1292(sp)
 1001d44:	003e1a06 	br	10015b0 <___vfprintf_internal_r+0x107c>
 1001d48:	0005883a 	mov	r2,zero
 1001d4c:	1409c83a 	sub	r4,r2,r16
 1001d50:	1105803a 	cmpltu	r2,r2,r4
 1001d54:	044bc83a 	sub	r5,zero,r17
 1001d58:	2885c83a 	sub	r2,r5,r2
 1001d5c:	2021883a 	mov	r16,r4
 1001d60:	1023883a 	mov	r17,r2
 1001d64:	01000044 	movi	r4,1
 1001d68:	00800b44 	movi	r2,45
 1001d6c:	d8800405 	stb	r2,16(sp)
 1001d70:	003c7e06 	br	1000f6c <___vfprintf_internal_r+0xa38>
 1001d74:	d9014f17 	ldw	r4,1340(sp)
 1001d78:	b00b883a 	mov	r5,r22
 1001d7c:	d9800c04 	addi	r6,sp,48
 1001d80:	10004dc0 	call	10004dc <__sprint_r>
 1001d84:	103ba31e 	bne	r2,zero,1000c14 <___vfprintf_internal_r+0x6e0>
 1001d88:	dc800e17 	ldw	r18,56(sp)
 1001d8c:	dc400d17 	ldw	r17,52(sp)
 1001d90:	d9000517 	ldw	r4,20(sp)
 1001d94:	d9401904 	addi	r5,sp,100
 1001d98:	003da106 	br	1001420 <___vfprintf_internal_r+0xeec>
 1001d9c:	d9014f17 	ldw	r4,1340(sp)
 1001da0:	b00b883a 	mov	r5,r22
 1001da4:	d9800c04 	addi	r6,sp,48
 1001da8:	10004dc0 	call	10004dc <__sprint_r>
 1001dac:	103b991e 	bne	r2,zero,1000c14 <___vfprintf_internal_r+0x6e0>
 1001db0:	dc800e17 	ldw	r18,56(sp)
 1001db4:	dc400d17 	ldw	r17,52(sp)
 1001db8:	d9000517 	ldw	r4,20(sp)
 1001dbc:	d8c01904 	addi	r3,sp,100
 1001dc0:	003d8b06 	br	10013f0 <___vfprintf_internal_r+0xebc>
 1001dc4:	07004074 	movhi	fp,257
 1001dc8:	e7352684 	addi	fp,fp,-11110
 1001dcc:	9425883a 	add	r18,r18,r16
 1001dd0:	8c400044 	addi	r17,r17,1
 1001dd4:	008001c4 	movi	r2,7
 1001dd8:	1f000015 	stw	fp,0(r3)
 1001ddc:	1c000115 	stw	r16,4(r3)
 1001de0:	dc800e15 	stw	r18,56(sp)
 1001de4:	dc400d15 	stw	r17,52(sp)
 1001de8:	147fbc16 	blt	r2,r17,1001cdc <___vfprintf_internal_r+0x17a8>
 1001dec:	18c00204 	addi	r3,r3,8
 1001df0:	003fc206 	br	1001cfc <___vfprintf_internal_r+0x17c8>
 1001df4:	d9014f17 	ldw	r4,1340(sp)
 1001df8:	b00b883a 	mov	r5,r22
 1001dfc:	d9800c04 	addi	r6,sp,48
 1001e00:	10004dc0 	call	10004dc <__sprint_r>
 1001e04:	103b831e 	bne	r2,zero,1000c14 <___vfprintf_internal_r+0x6e0>
 1001e08:	dc800e17 	ldw	r18,56(sp)
 1001e0c:	d9000517 	ldw	r4,20(sp)
 1001e10:	d8c01904 	addi	r3,sp,100
 1001e14:	003cfc06 	br	1001208 <___vfprintf_internal_r+0xcd4>
 1001e18:	07004074 	movhi	fp,257
 1001e1c:	e7352684 	addi	fp,fp,-11110
 1001e20:	003bde06 	br	1000d9c <___vfprintf_internal_r+0x868>
 1001e24:	00804074 	movhi	r2,257
 1001e28:	10b51504 	addi	r2,r2,-11180
 1001e2c:	d8814115 	stw	r2,1284(sp)
 1001e30:	003def06 	br	10015f0 <___vfprintf_internal_r+0x10bc>
 1001e34:	d9014217 	ldw	r4,1288(sp)
 1001e38:	d9414317 	ldw	r5,1292(sp)
 1001e3c:	10070240 	call	1007024 <__isnand>
 1001e40:	10003926 	beq	r2,zero,1001f28 <___vfprintf_internal_r+0x19f4>
 1001e44:	d9414d17 	ldw	r5,1332(sp)
 1001e48:	008011c4 	movi	r2,71
 1001e4c:	1140ce16 	blt	r2,r5,1002188 <___vfprintf_internal_r+0x1c54>
 1001e50:	01804074 	movhi	r6,257
 1001e54:	31b51604 	addi	r6,r6,-11176
 1001e58:	d9814115 	stw	r6,1284(sp)
 1001e5c:	003de406 	br	10015f0 <___vfprintf_internal_r+0x10bc>
 1001e60:	d9014c17 	ldw	r4,1328(sp)
 1001e64:	bdc00044 	addi	r23,r23,1
 1001e68:	b8c00007 	ldb	r3,0(r23)
 1001e6c:	21000814 	ori	r4,r4,32
 1001e70:	d9014c15 	stw	r4,1328(sp)
 1001e74:	003a2e06 	br	1000730 <___vfprintf_internal_r+0x1fc>
 1001e78:	dcc14515 	stw	r19,1300(sp)
 1001e7c:	98011016 	blt	r19,zero,10022c0 <___vfprintf_internal_r+0x1d8c>
 1001e80:	980f883a 	mov	r7,r19
 1001e84:	d8014615 	stw	zero,1304(sp)
 1001e88:	003c4c06 	br	1000fbc <___vfprintf_internal_r+0xa88>
 1001e8c:	d9014f17 	ldw	r4,1340(sp)
 1001e90:	b00b883a 	mov	r5,r22
 1001e94:	d9800c04 	addi	r6,sp,48
 1001e98:	10004dc0 	call	10004dc <__sprint_r>
 1001e9c:	103b5d1e 	bne	r2,zero,1000c14 <___vfprintf_internal_r+0x6e0>
 1001ea0:	dc800e17 	ldw	r18,56(sp)
 1001ea4:	d9000517 	ldw	r4,20(sp)
 1001ea8:	d8c01904 	addi	r3,sp,100
 1001eac:	003f2e06 	br	1001b68 <___vfprintf_internal_r+0x1634>
 1001eb0:	d8c14c17 	ldw	r3,1328(sp)
 1001eb4:	1880100c 	andi	r2,r3,64
 1001eb8:	1000a026 	beq	r2,zero,100213c <___vfprintf_internal_r+0x1c08>
 1001ebc:	38800017 	ldw	r2,0(r7)
 1001ec0:	39c00104 	addi	r7,r7,4
 1001ec4:	d9c14015 	stw	r7,1280(sp)
 1001ec8:	d9014b17 	ldw	r4,1324(sp)
 1001ecc:	d9c14017 	ldw	r7,1280(sp)
 1001ed0:	1100000d 	sth	r4,0(r2)
 1001ed4:	0039f306 	br	10006a4 <___vfprintf_internal_r+0x170>
 1001ed8:	d9014f17 	ldw	r4,1340(sp)
 1001edc:	b00b883a 	mov	r5,r22
 1001ee0:	d9800c04 	addi	r6,sp,48
 1001ee4:	10004dc0 	call	10004dc <__sprint_r>
 1001ee8:	103b4a1e 	bne	r2,zero,1000c14 <___vfprintf_internal_r+0x6e0>
 1001eec:	dc800e17 	ldw	r18,56(sp)
 1001ef0:	dc400d17 	ldw	r17,52(sp)
 1001ef4:	d9000517 	ldw	r4,20(sp)
 1001ef8:	d8c01904 	addi	r3,sp,100
 1001efc:	003f2d06 	br	1001bb4 <___vfprintf_internal_r+0x1680>
 1001f00:	00800184 	movi	r2,6
 1001f04:	14c09a36 	bltu	r2,r19,1002170 <___vfprintf_internal_r+0x1c3c>
 1001f08:	dcc14515 	stw	r19,1300(sp)
 1001f0c:	9800010e 	bge	r19,zero,1001f14 <___vfprintf_internal_r+0x19e0>
 1001f10:	d8014515 	stw	zero,1300(sp)
 1001f14:	00804074 	movhi	r2,257
 1001f18:	10b51804 	addi	r2,r2,-11168
 1001f1c:	980f883a 	mov	r7,r19
 1001f20:	d8814115 	stw	r2,1284(sp)
 1001f24:	003a7206 	br	10008f0 <___vfprintf_internal_r+0x3bc>
 1001f28:	00bfffc4 	movi	r2,-1
 1001f2c:	9880e226 	beq	r19,r2,10022b8 <___vfprintf_internal_r+0x1d84>
 1001f30:	d9414d17 	ldw	r5,1332(sp)
 1001f34:	008019c4 	movi	r2,103
 1001f38:	2880dc26 	beq	r5,r2,10022ac <___vfprintf_internal_r+0x1d78>
 1001f3c:	008011c4 	movi	r2,71
 1001f40:	2880da26 	beq	r5,r2,10022ac <___vfprintf_internal_r+0x1d78>
 1001f44:	d9414c17 	ldw	r5,1328(sp)
 1001f48:	d9014317 	ldw	r4,1292(sp)
 1001f4c:	d9814217 	ldw	r6,1288(sp)
 1001f50:	29404014 	ori	r5,r5,256
 1001f54:	d9414c15 	stw	r5,1328(sp)
 1001f58:	2000cc16 	blt	r4,zero,100228c <___vfprintf_internal_r+0x1d58>
 1001f5c:	3021883a 	mov	r16,r6
 1001f60:	2023883a 	mov	r17,r4
 1001f64:	0039883a 	mov	fp,zero
 1001f68:	d9414d17 	ldw	r5,1332(sp)
 1001f6c:	00801984 	movi	r2,102
 1001f70:	2880b726 	beq	r5,r2,1002250 <___vfprintf_internal_r+0x1d1c>
 1001f74:	00801184 	movi	r2,70
 1001f78:	2880b526 	beq	r5,r2,1002250 <___vfprintf_internal_r+0x1d1c>
 1001f7c:	00801944 	movi	r2,101
 1001f80:	2880c826 	beq	r5,r2,10022a4 <___vfprintf_internal_r+0x1d70>
 1001f84:	00801144 	movi	r2,69
 1001f88:	2880c626 	beq	r5,r2,10022a4 <___vfprintf_internal_r+0x1d70>
 1001f8c:	9829883a 	mov	r20,r19
 1001f90:	d9014f17 	ldw	r4,1340(sp)
 1001f94:	d8800504 	addi	r2,sp,20
 1001f98:	880d883a 	mov	r6,r17
 1001f9c:	d8800115 	stw	r2,4(sp)
 1001fa0:	d8c00604 	addi	r3,sp,24
 1001fa4:	d8800704 	addi	r2,sp,28
 1001fa8:	800b883a 	mov	r5,r16
 1001fac:	01c00084 	movi	r7,2
 1001fb0:	d8c00215 	stw	r3,8(sp)
 1001fb4:	d8800315 	stw	r2,12(sp)
 1001fb8:	dd000015 	stw	r20,0(sp)
 1001fbc:	100279c0 	call	100279c <_dtoa_r>
 1001fc0:	d9814d17 	ldw	r6,1332(sp)
 1001fc4:	d8814115 	stw	r2,1284(sp)
 1001fc8:	008019c4 	movi	r2,103
 1001fcc:	30809526 	beq	r6,r2,1002224 <___vfprintf_internal_r+0x1cf0>
 1001fd0:	d8c14d17 	ldw	r3,1332(sp)
 1001fd4:	008011c4 	movi	r2,71
 1001fd8:	18809226 	beq	r3,r2,1002224 <___vfprintf_internal_r+0x1cf0>
 1001fdc:	d9414117 	ldw	r5,1284(sp)
 1001fe0:	d9814d17 	ldw	r6,1332(sp)
 1001fe4:	00801984 	movi	r2,102
 1001fe8:	2d25883a 	add	r18,r5,r20
 1001fec:	30808626 	beq	r6,r2,1002208 <___vfprintf_internal_r+0x1cd4>
 1001ff0:	00801184 	movi	r2,70
 1001ff4:	30808426 	beq	r6,r2,1002208 <___vfprintf_internal_r+0x1cd4>
 1001ff8:	000d883a 	mov	r6,zero
 1001ffc:	000f883a 	mov	r7,zero
 1002000:	880b883a 	mov	r5,r17
 1002004:	8009883a 	mov	r4,r16
 1002008:	1008fd40 	call	1008fd4 <__eqdf2>
 100200c:	1000751e 	bne	r2,zero,10021e4 <___vfprintf_internal_r+0x1cb0>
 1002010:	9005883a 	mov	r2,r18
 1002014:	dc800715 	stw	r18,28(sp)
 1002018:	d9014117 	ldw	r4,1284(sp)
 100201c:	d9414d17 	ldw	r5,1332(sp)
 1002020:	00c019c4 	movi	r3,103
 1002024:	1125c83a 	sub	r18,r2,r4
 1002028:	28c06826 	beq	r5,r3,10021cc <___vfprintf_internal_r+0x1c98>
 100202c:	008011c4 	movi	r2,71
 1002030:	28806626 	beq	r5,r2,10021cc <___vfprintf_internal_r+0x1c98>
 1002034:	d9000517 	ldw	r4,20(sp)
 1002038:	d8c14d17 	ldw	r3,1332(sp)
 100203c:	00801944 	movi	r2,101
 1002040:	10c05516 	blt	r2,r3,1002198 <___vfprintf_internal_r+0x1c64>
 1002044:	213fffc4 	addi	r4,r4,-1
 1002048:	d9000515 	stw	r4,20(sp)
 100204c:	d8c00805 	stb	r3,32(sp)
 1002050:	2021883a 	mov	r16,r4
 1002054:	2000c116 	blt	r4,zero,100235c <___vfprintf_internal_r+0x1e28>
 1002058:	00800ac4 	movi	r2,43
 100205c:	d8800845 	stb	r2,33(sp)
 1002060:	00800244 	movi	r2,9
 1002064:	1400af0e 	bge	r2,r16,1002324 <___vfprintf_internal_r+0x1df0>
 1002068:	1027883a 	mov	r19,r2
 100206c:	dc400b84 	addi	r17,sp,46
 1002070:	8009883a 	mov	r4,r16
 1002074:	01400284 	movi	r5,10
 1002078:	10096bc0 	call	10096bc <__modsi3>
 100207c:	10800c04 	addi	r2,r2,48
 1002080:	8c7fffc4 	addi	r17,r17,-1
 1002084:	8009883a 	mov	r4,r16
 1002088:	01400284 	movi	r5,10
 100208c:	88800005 	stb	r2,0(r17)
 1002090:	100965c0 	call	100965c <__divsi3>
 1002094:	1021883a 	mov	r16,r2
 1002098:	98bff516 	blt	r19,r2,1002070 <___vfprintf_internal_r+0x1b3c>
 100209c:	10c00c04 	addi	r3,r2,48
 10020a0:	d88009c4 	addi	r2,sp,39
 10020a4:	108001c4 	addi	r2,r2,7
 10020a8:	897fffc4 	addi	r5,r17,-1
 10020ac:	88ffffc5 	stb	r3,-1(r17)
 10020b0:	2880a72e 	bgeu	r5,r2,1002350 <___vfprintf_internal_r+0x1e1c>
 10020b4:	1009883a 	mov	r4,r2
 10020b8:	d9800804 	addi	r6,sp,32
 10020bc:	d8c00884 	addi	r3,sp,34
 10020c0:	28800003 	ldbu	r2,0(r5)
 10020c4:	29400044 	addi	r5,r5,1
 10020c8:	18800005 	stb	r2,0(r3)
 10020cc:	18c00044 	addi	r3,r3,1
 10020d0:	293ffb36 	bltu	r5,r4,10020c0 <___vfprintf_internal_r+0x1b8c>
 10020d4:	1987c83a 	sub	r3,r3,r6
 10020d8:	00800044 	movi	r2,1
 10020dc:	d8c14815 	stw	r3,1312(sp)
 10020e0:	90cf883a 	add	r7,r18,r3
 10020e4:	1480960e 	bge	r2,r18,1002340 <___vfprintf_internal_r+0x1e0c>
 10020e8:	39c00044 	addi	r7,r7,1
 10020ec:	d9c14515 	stw	r7,1300(sp)
 10020f0:	38003416 	blt	r7,zero,10021c4 <___vfprintf_internal_r+0x1c90>
 10020f4:	e0803fcc 	andi	r2,fp,255
 10020f8:	1080201c 	xori	r2,r2,128
 10020fc:	10bfe004 	addi	r2,r2,-128
 1002100:	10004e26 	beq	r2,zero,100223c <___vfprintf_internal_r+0x1d08>
 1002104:	00800b44 	movi	r2,45
 1002108:	dc814715 	stw	r18,1308(sp)
 100210c:	d8014615 	stw	zero,1304(sp)
 1002110:	d8800405 	stb	r2,16(sp)
 1002114:	003bab06 	br	1000fc4 <___vfprintf_internal_r+0xa90>
 1002118:	00800b44 	movi	r2,45
 100211c:	d8800405 	stb	r2,16(sp)
 1002120:	003d2d06 	br	10015d8 <___vfprintf_internal_r+0x10a4>
 1002124:	d9014f17 	ldw	r4,1340(sp)
 1002128:	b00b883a 	mov	r5,r22
 100212c:	d9800c04 	addi	r6,sp,48
 1002130:	10004dc0 	call	10004dc <__sprint_r>
 1002134:	103ab71e 	bne	r2,zero,1000c14 <___vfprintf_internal_r+0x6e0>
 1002138:	003ab506 	br	1000c10 <___vfprintf_internal_r+0x6dc>
 100213c:	38800017 	ldw	r2,0(r7)
 1002140:	39c00104 	addi	r7,r7,4
 1002144:	d9c14015 	stw	r7,1280(sp)
 1002148:	d9414b17 	ldw	r5,1324(sp)
 100214c:	d9c14017 	ldw	r7,1280(sp)
 1002150:	11400015 	stw	r5,0(r2)
 1002154:	00395306 	br	10006a4 <___vfprintf_internal_r+0x170>
 1002158:	980f883a 	mov	r7,r19
 100215c:	dcc14515 	stw	r19,1300(sp)
 1002160:	d8014615 	stw	zero,1304(sp)
 1002164:	003b9506 	br	1000fbc <___vfprintf_internal_r+0xa88>
 1002168:	0027883a 	mov	r19,zero
 100216c:	00397206 	br	1000738 <___vfprintf_internal_r+0x204>
 1002170:	00c04074 	movhi	r3,257
 1002174:	18f51804 	addi	r3,r3,-11168
 1002178:	100f883a 	mov	r7,r2
 100217c:	d8814515 	stw	r2,1300(sp)
 1002180:	d8c14115 	stw	r3,1284(sp)
 1002184:	0039da06 	br	10008f0 <___vfprintf_internal_r+0x3bc>
 1002188:	00804074 	movhi	r2,257
 100218c:	10b51704 	addi	r2,r2,-11172
 1002190:	d8814115 	stw	r2,1284(sp)
 1002194:	003d1606 	br	10015f0 <___vfprintf_internal_r+0x10bc>
 1002198:	d9414d17 	ldw	r5,1332(sp)
 100219c:	00801984 	movi	r2,102
 10021a0:	28804926 	beq	r5,r2,10022c8 <___vfprintf_internal_r+0x1d94>
 10021a4:	200f883a 	mov	r7,r4
 10021a8:	24805716 	blt	r4,r18,1002308 <___vfprintf_internal_r+0x1dd4>
 10021ac:	d9414c17 	ldw	r5,1328(sp)
 10021b0:	2880004c 	andi	r2,r5,1
 10021b4:	10000126 	beq	r2,zero,10021bc <___vfprintf_internal_r+0x1c88>
 10021b8:	21c00044 	addi	r7,r4,1
 10021bc:	d9c14515 	stw	r7,1300(sp)
 10021c0:	383fcc0e 	bge	r7,zero,10020f4 <___vfprintf_internal_r+0x1bc0>
 10021c4:	d8014515 	stw	zero,1300(sp)
 10021c8:	003fca06 	br	10020f4 <___vfprintf_internal_r+0x1bc0>
 10021cc:	d9000517 	ldw	r4,20(sp)
 10021d0:	00bfff04 	movi	r2,-4
 10021d4:	1100480e 	bge	r2,r4,10022f8 <___vfprintf_internal_r+0x1dc4>
 10021d8:	99004716 	blt	r19,r4,10022f8 <___vfprintf_internal_r+0x1dc4>
 10021dc:	d8c14d15 	stw	r3,1332(sp)
 10021e0:	003ff006 	br	10021a4 <___vfprintf_internal_r+0x1c70>
 10021e4:	d8800717 	ldw	r2,28(sp)
 10021e8:	14bf8b2e 	bgeu	r2,r18,1002018 <___vfprintf_internal_r+0x1ae4>
 10021ec:	9007883a 	mov	r3,r18
 10021f0:	01000c04 	movi	r4,48
 10021f4:	11000005 	stb	r4,0(r2)
 10021f8:	10800044 	addi	r2,r2,1
 10021fc:	d8800715 	stw	r2,28(sp)
 1002200:	18bffc1e 	bne	r3,r2,10021f4 <___vfprintf_internal_r+0x1cc0>
 1002204:	003f8406 	br	1002018 <___vfprintf_internal_r+0x1ae4>
 1002208:	d8814117 	ldw	r2,1284(sp)
 100220c:	10c00007 	ldb	r3,0(r2)
 1002210:	00800c04 	movi	r2,48
 1002214:	18805b26 	beq	r3,r2,1002384 <___vfprintf_internal_r+0x1e50>
 1002218:	d9000517 	ldw	r4,20(sp)
 100221c:	9125883a 	add	r18,r18,r4
 1002220:	003f7506 	br	1001ff8 <___vfprintf_internal_r+0x1ac4>
 1002224:	d9014c17 	ldw	r4,1328(sp)
 1002228:	2080004c 	andi	r2,r4,1
 100222c:	1005003a 	cmpeq	r2,r2,zero
 1002230:	103f6a26 	beq	r2,zero,1001fdc <___vfprintf_internal_r+0x1aa8>
 1002234:	d8800717 	ldw	r2,28(sp)
 1002238:	003f7706 	br	1002018 <___vfprintf_internal_r+0x1ae4>
 100223c:	d9c14515 	stw	r7,1300(sp)
 1002240:	38004d16 	blt	r7,zero,1002378 <___vfprintf_internal_r+0x1e44>
 1002244:	dc814715 	stw	r18,1308(sp)
 1002248:	d8014615 	stw	zero,1304(sp)
 100224c:	003b5b06 	br	1000fbc <___vfprintf_internal_r+0xa88>
 1002250:	d9014f17 	ldw	r4,1340(sp)
 1002254:	d8800504 	addi	r2,sp,20
 1002258:	d8800115 	stw	r2,4(sp)
 100225c:	d8c00604 	addi	r3,sp,24
 1002260:	d8800704 	addi	r2,sp,28
 1002264:	800b883a 	mov	r5,r16
 1002268:	880d883a 	mov	r6,r17
 100226c:	01c000c4 	movi	r7,3
 1002270:	d8c00215 	stw	r3,8(sp)
 1002274:	d8800315 	stw	r2,12(sp)
 1002278:	dcc00015 	stw	r19,0(sp)
 100227c:	9829883a 	mov	r20,r19
 1002280:	100279c0 	call	100279c <_dtoa_r>
 1002284:	d8814115 	stw	r2,1284(sp)
 1002288:	003f5106 	br	1001fd0 <___vfprintf_internal_r+0x1a9c>
 100228c:	d8c14217 	ldw	r3,1288(sp)
 1002290:	d9014317 	ldw	r4,1292(sp)
 1002294:	07000b44 	movi	fp,45
 1002298:	1821883a 	mov	r16,r3
 100229c:	2460003c 	xorhi	r17,r4,32768
 10022a0:	003f3106 	br	1001f68 <___vfprintf_internal_r+0x1a34>
 10022a4:	9d000044 	addi	r20,r19,1
 10022a8:	003f3906 	br	1001f90 <___vfprintf_internal_r+0x1a5c>
 10022ac:	983f251e 	bne	r19,zero,1001f44 <___vfprintf_internal_r+0x1a10>
 10022b0:	04c00044 	movi	r19,1
 10022b4:	003f2306 	br	1001f44 <___vfprintf_internal_r+0x1a10>
 10022b8:	04c00184 	movi	r19,6
 10022bc:	003f2106 	br	1001f44 <___vfprintf_internal_r+0x1a10>
 10022c0:	d8014515 	stw	zero,1300(sp)
 10022c4:	003eee06 	br	1001e80 <___vfprintf_internal_r+0x194c>
 10022c8:	200f883a 	mov	r7,r4
 10022cc:	0100370e 	bge	zero,r4,10023ac <___vfprintf_internal_r+0x1e78>
 10022d0:	9800031e 	bne	r19,zero,10022e0 <___vfprintf_internal_r+0x1dac>
 10022d4:	d9814c17 	ldw	r6,1328(sp)
 10022d8:	3080004c 	andi	r2,r6,1
 10022dc:	103fb726 	beq	r2,zero,10021bc <___vfprintf_internal_r+0x1c88>
 10022e0:	20800044 	addi	r2,r4,1
 10022e4:	98a7883a 	add	r19,r19,r2
 10022e8:	dcc14515 	stw	r19,1300(sp)
 10022ec:	980f883a 	mov	r7,r19
 10022f0:	983f800e 	bge	r19,zero,10020f4 <___vfprintf_internal_r+0x1bc0>
 10022f4:	003fb306 	br	10021c4 <___vfprintf_internal_r+0x1c90>
 10022f8:	d9814d17 	ldw	r6,1332(sp)
 10022fc:	31bfff84 	addi	r6,r6,-2
 1002300:	d9814d15 	stw	r6,1332(sp)
 1002304:	003f4c06 	br	1002038 <___vfprintf_internal_r+0x1b04>
 1002308:	0100180e 	bge	zero,r4,100236c <___vfprintf_internal_r+0x1e38>
 100230c:	00800044 	movi	r2,1
 1002310:	1485883a 	add	r2,r2,r18
 1002314:	d8814515 	stw	r2,1300(sp)
 1002318:	100f883a 	mov	r7,r2
 100231c:	103f750e 	bge	r2,zero,10020f4 <___vfprintf_internal_r+0x1bc0>
 1002320:	003fa806 	br	10021c4 <___vfprintf_internal_r+0x1c90>
 1002324:	80c00c04 	addi	r3,r16,48
 1002328:	00800c04 	movi	r2,48
 100232c:	d8c008c5 	stb	r3,35(sp)
 1002330:	d9800804 	addi	r6,sp,32
 1002334:	d8c00904 	addi	r3,sp,36
 1002338:	d8800885 	stb	r2,34(sp)
 100233c:	003f6506 	br	10020d4 <___vfprintf_internal_r+0x1ba0>
 1002340:	d9014c17 	ldw	r4,1328(sp)
 1002344:	2084703a 	and	r2,r4,r2
 1002348:	103f9c26 	beq	r2,zero,10021bc <___vfprintf_internal_r+0x1c88>
 100234c:	003f6606 	br	10020e8 <___vfprintf_internal_r+0x1bb4>
 1002350:	d9800804 	addi	r6,sp,32
 1002354:	d8c00884 	addi	r3,sp,34
 1002358:	003f5e06 	br	10020d4 <___vfprintf_internal_r+0x1ba0>
 100235c:	00800b44 	movi	r2,45
 1002360:	0121c83a 	sub	r16,zero,r4
 1002364:	d8800845 	stb	r2,33(sp)
 1002368:	003f3d06 	br	1002060 <___vfprintf_internal_r+0x1b2c>
 100236c:	00800084 	movi	r2,2
 1002370:	1105c83a 	sub	r2,r2,r4
 1002374:	003fe606 	br	1002310 <___vfprintf_internal_r+0x1ddc>
 1002378:	d8014515 	stw	zero,1300(sp)
 100237c:	dc814715 	stw	r18,1308(sp)
 1002380:	003fb106 	br	1002248 <___vfprintf_internal_r+0x1d14>
 1002384:	000d883a 	mov	r6,zero
 1002388:	000f883a 	mov	r7,zero
 100238c:	8009883a 	mov	r4,r16
 1002390:	880b883a 	mov	r5,r17
 1002394:	100905c0 	call	100905c <__nedf2>
 1002398:	103f9f26 	beq	r2,zero,1002218 <___vfprintf_internal_r+0x1ce4>
 100239c:	00800044 	movi	r2,1
 10023a0:	1509c83a 	sub	r4,r2,r20
 10023a4:	d9000515 	stw	r4,20(sp)
 10023a8:	003f9b06 	br	1002218 <___vfprintf_internal_r+0x1ce4>
 10023ac:	98000d1e 	bne	r19,zero,10023e4 <___vfprintf_internal_r+0x1eb0>
 10023b0:	d8c14c17 	ldw	r3,1328(sp)
 10023b4:	1880004c 	andi	r2,r3,1
 10023b8:	10000a1e 	bne	r2,zero,10023e4 <___vfprintf_internal_r+0x1eb0>
 10023bc:	01000044 	movi	r4,1
 10023c0:	200f883a 	mov	r7,r4
 10023c4:	d9014515 	stw	r4,1300(sp)
 10023c8:	003f4a06 	br	10020f4 <___vfprintf_internal_r+0x1bc0>
 10023cc:	3cc00017 	ldw	r19,0(r7)
 10023d0:	39c00104 	addi	r7,r7,4
 10023d4:	983d0e0e 	bge	r19,zero,1001810 <___vfprintf_internal_r+0x12dc>
 10023d8:	b8c00007 	ldb	r3,0(r23)
 10023dc:	04ffffc4 	movi	r19,-1
 10023e0:	0038d306 	br	1000730 <___vfprintf_internal_r+0x1fc>
 10023e4:	9cc00084 	addi	r19,r19,2
 10023e8:	dcc14515 	stw	r19,1300(sp)
 10023ec:	980f883a 	mov	r7,r19
 10023f0:	983f400e 	bge	r19,zero,10020f4 <___vfprintf_internal_r+0x1bc0>
 10023f4:	003f7306 	br	10021c4 <___vfprintf_internal_r+0x1c90>

010023f8 <__vfprintf_internal>:
 10023f8:	00804074 	movhi	r2,257
 10023fc:	10bc8804 	addi	r2,r2,-3552
 1002400:	2013883a 	mov	r9,r4
 1002404:	11000017 	ldw	r4,0(r2)
 1002408:	2805883a 	mov	r2,r5
 100240c:	300f883a 	mov	r7,r6
 1002410:	480b883a 	mov	r5,r9
 1002414:	100d883a 	mov	r6,r2
 1002418:	10005341 	jmpi	1000534 <___vfprintf_internal_r>

0100241c <__swsetup_r>:
 100241c:	00804074 	movhi	r2,257
 1002420:	10bc8804 	addi	r2,r2,-3552
 1002424:	10c00017 	ldw	r3,0(r2)
 1002428:	defffd04 	addi	sp,sp,-12
 100242c:	dc400115 	stw	r17,4(sp)
 1002430:	dc000015 	stw	r16,0(sp)
 1002434:	dfc00215 	stw	ra,8(sp)
 1002438:	2023883a 	mov	r17,r4
 100243c:	2821883a 	mov	r16,r5
 1002440:	18000226 	beq	r3,zero,100244c <__swsetup_r+0x30>
 1002444:	18800e17 	ldw	r2,56(r3)
 1002448:	10001f26 	beq	r2,zero,10024c8 <__swsetup_r+0xac>
 100244c:	8100030b 	ldhu	r4,12(r16)
 1002450:	2080020c 	andi	r2,r4,8
 1002454:	10002826 	beq	r2,zero,10024f8 <__swsetup_r+0xdc>
 1002458:	81400417 	ldw	r5,16(r16)
 100245c:	28001d26 	beq	r5,zero,10024d4 <__swsetup_r+0xb8>
 1002460:	2080004c 	andi	r2,r4,1
 1002464:	1005003a 	cmpeq	r2,r2,zero
 1002468:	10000b26 	beq	r2,zero,1002498 <__swsetup_r+0x7c>
 100246c:	2080008c 	andi	r2,r4,2
 1002470:	10001226 	beq	r2,zero,10024bc <__swsetup_r+0xa0>
 1002474:	0005883a 	mov	r2,zero
 1002478:	80800215 	stw	r2,8(r16)
 100247c:	28000b26 	beq	r5,zero,10024ac <__swsetup_r+0x90>
 1002480:	0005883a 	mov	r2,zero
 1002484:	dfc00217 	ldw	ra,8(sp)
 1002488:	dc400117 	ldw	r17,4(sp)
 100248c:	dc000017 	ldw	r16,0(sp)
 1002490:	dec00304 	addi	sp,sp,12
 1002494:	f800283a 	ret
 1002498:	80800517 	ldw	r2,20(r16)
 100249c:	80000215 	stw	zero,8(r16)
 10024a0:	0085c83a 	sub	r2,zero,r2
 10024a4:	80800615 	stw	r2,24(r16)
 10024a8:	283ff51e 	bne	r5,zero,1002480 <__swsetup_r+0x64>
 10024ac:	2080200c 	andi	r2,r4,128
 10024b0:	103ff326 	beq	r2,zero,1002480 <__swsetup_r+0x64>
 10024b4:	00bfffc4 	movi	r2,-1
 10024b8:	003ff206 	br	1002484 <__swsetup_r+0x68>
 10024bc:	80800517 	ldw	r2,20(r16)
 10024c0:	80800215 	stw	r2,8(r16)
 10024c4:	003fed06 	br	100247c <__swsetup_r+0x60>
 10024c8:	1809883a 	mov	r4,r3
 10024cc:	1003fe80 	call	1003fe8 <__sinit>
 10024d0:	003fde06 	br	100244c <__swsetup_r+0x30>
 10024d4:	20c0a00c 	andi	r3,r4,640
 10024d8:	00808004 	movi	r2,512
 10024dc:	18bfe026 	beq	r3,r2,1002460 <__swsetup_r+0x44>
 10024e0:	8809883a 	mov	r4,r17
 10024e4:	800b883a 	mov	r5,r16
 10024e8:	1004d940 	call	1004d94 <__smakebuf_r>
 10024ec:	8100030b 	ldhu	r4,12(r16)
 10024f0:	81400417 	ldw	r5,16(r16)
 10024f4:	003fda06 	br	1002460 <__swsetup_r+0x44>
 10024f8:	2080040c 	andi	r2,r4,16
 10024fc:	103fed26 	beq	r2,zero,10024b4 <__swsetup_r+0x98>
 1002500:	2080010c 	andi	r2,r4,4
 1002504:	10001226 	beq	r2,zero,1002550 <__swsetup_r+0x134>
 1002508:	81400c17 	ldw	r5,48(r16)
 100250c:	28000526 	beq	r5,zero,1002524 <__swsetup_r+0x108>
 1002510:	80801004 	addi	r2,r16,64
 1002514:	28800226 	beq	r5,r2,1002520 <__swsetup_r+0x104>
 1002518:	8809883a 	mov	r4,r17
 100251c:	10043a00 	call	10043a0 <_free_r>
 1002520:	80000c15 	stw	zero,48(r16)
 1002524:	8080030b 	ldhu	r2,12(r16)
 1002528:	81400417 	ldw	r5,16(r16)
 100252c:	80000115 	stw	zero,4(r16)
 1002530:	10bff6cc 	andi	r2,r2,65499
 1002534:	8080030d 	sth	r2,12(r16)
 1002538:	81400015 	stw	r5,0(r16)
 100253c:	8080030b 	ldhu	r2,12(r16)
 1002540:	10800214 	ori	r2,r2,8
 1002544:	113fffcc 	andi	r4,r2,65535
 1002548:	8080030d 	sth	r2,12(r16)
 100254c:	003fc306 	br	100245c <__swsetup_r+0x40>
 1002550:	81400417 	ldw	r5,16(r16)
 1002554:	003ff906 	br	100253c <__swsetup_r+0x120>

01002558 <quorem>:
 1002558:	28c00417 	ldw	r3,16(r5)
 100255c:	20800417 	ldw	r2,16(r4)
 1002560:	defff104 	addi	sp,sp,-60
 1002564:	dfc00e15 	stw	ra,56(sp)
 1002568:	df000d15 	stw	fp,52(sp)
 100256c:	ddc00c15 	stw	r23,48(sp)
 1002570:	dd800b15 	stw	r22,44(sp)
 1002574:	dd400a15 	stw	r21,40(sp)
 1002578:	dd000915 	stw	r20,36(sp)
 100257c:	dcc00815 	stw	r19,32(sp)
 1002580:	dc800715 	stw	r18,28(sp)
 1002584:	dc400615 	stw	r17,24(sp)
 1002588:	dc000515 	stw	r16,20(sp)
 100258c:	d9000315 	stw	r4,12(sp)
 1002590:	d9400415 	stw	r5,16(sp)
 1002594:	10c07f16 	blt	r2,r3,1002794 <quorem+0x23c>
 1002598:	1d3fffc4 	addi	r20,r3,-1
 100259c:	d8c00417 	ldw	r3,16(sp)
 10025a0:	d9000317 	ldw	r4,12(sp)
 10025a4:	a505883a 	add	r2,r20,r20
 10025a8:	1085883a 	add	r2,r2,r2
 10025ac:	1cc00504 	addi	r19,r3,20
 10025b0:	25c00504 	addi	r23,r4,20
 10025b4:	98ad883a 	add	r22,r19,r2
 10025b8:	15c7883a 	add	r3,r2,r23
 10025bc:	b1400017 	ldw	r5,0(r22)
 10025c0:	19000017 	ldw	r4,0(r3)
 10025c4:	d8c00015 	stw	r3,0(sp)
 10025c8:	29400044 	addi	r5,r5,1
 10025cc:	d9000215 	stw	r4,8(sp)
 10025d0:	100971c0 	call	100971c <__udivsi3>
 10025d4:	1039883a 	mov	fp,r2
 10025d8:	10003d1e 	bne	r2,zero,10026d0 <quorem+0x178>
 10025dc:	d9400417 	ldw	r5,16(sp)
 10025e0:	d9000317 	ldw	r4,12(sp)
 10025e4:	1005ac00 	call	1005ac0 <__mcmp>
 10025e8:	10002c16 	blt	r2,zero,100269c <quorem+0x144>
 10025ec:	e7000044 	addi	fp,fp,1
 10025f0:	b80f883a 	mov	r7,r23
 10025f4:	0011883a 	mov	r8,zero
 10025f8:	0009883a 	mov	r4,zero
 10025fc:	99400017 	ldw	r5,0(r19)
 1002600:	38c00017 	ldw	r3,0(r7)
 1002604:	9cc00104 	addi	r19,r19,4
 1002608:	28bfffcc 	andi	r2,r5,65535
 100260c:	2085883a 	add	r2,r4,r2
 1002610:	11bfffcc 	andi	r6,r2,65535
 1002614:	193fffcc 	andi	r4,r3,65535
 1002618:	1004d43a 	srli	r2,r2,16
 100261c:	280ad43a 	srli	r5,r5,16
 1002620:	2189c83a 	sub	r4,r4,r6
 1002624:	2209883a 	add	r4,r4,r8
 1002628:	1806d43a 	srli	r3,r3,16
 100262c:	288b883a 	add	r5,r5,r2
 1002630:	200dd43a 	srai	r6,r4,16
 1002634:	28bfffcc 	andi	r2,r5,65535
 1002638:	1887c83a 	sub	r3,r3,r2
 100263c:	1987883a 	add	r3,r3,r6
 1002640:	3900000d 	sth	r4,0(r7)
 1002644:	38c0008d 	sth	r3,2(r7)
 1002648:	2808d43a 	srli	r4,r5,16
 100264c:	39c00104 	addi	r7,r7,4
 1002650:	1811d43a 	srai	r8,r3,16
 1002654:	b4ffe92e 	bgeu	r22,r19,10025fc <quorem+0xa4>
 1002658:	a505883a 	add	r2,r20,r20
 100265c:	1085883a 	add	r2,r2,r2
 1002660:	b885883a 	add	r2,r23,r2
 1002664:	10c00017 	ldw	r3,0(r2)
 1002668:	18000c1e 	bne	r3,zero,100269c <quorem+0x144>
 100266c:	113fff04 	addi	r4,r2,-4
 1002670:	b900082e 	bgeu	r23,r4,1002694 <quorem+0x13c>
 1002674:	10bfff17 	ldw	r2,-4(r2)
 1002678:	10000326 	beq	r2,zero,1002688 <quorem+0x130>
 100267c:	00000506 	br	1002694 <quorem+0x13c>
 1002680:	20800017 	ldw	r2,0(r4)
 1002684:	1000031e 	bne	r2,zero,1002694 <quorem+0x13c>
 1002688:	213fff04 	addi	r4,r4,-4
 100268c:	a53fffc4 	addi	r20,r20,-1
 1002690:	b93ffb36 	bltu	r23,r4,1002680 <quorem+0x128>
 1002694:	d9000317 	ldw	r4,12(sp)
 1002698:	25000415 	stw	r20,16(r4)
 100269c:	e005883a 	mov	r2,fp
 10026a0:	dfc00e17 	ldw	ra,56(sp)
 10026a4:	df000d17 	ldw	fp,52(sp)
 10026a8:	ddc00c17 	ldw	r23,48(sp)
 10026ac:	dd800b17 	ldw	r22,44(sp)
 10026b0:	dd400a17 	ldw	r21,40(sp)
 10026b4:	dd000917 	ldw	r20,36(sp)
 10026b8:	dcc00817 	ldw	r19,32(sp)
 10026bc:	dc800717 	ldw	r18,28(sp)
 10026c0:	dc400617 	ldw	r17,24(sp)
 10026c4:	dc000517 	ldw	r16,20(sp)
 10026c8:	dec00f04 	addi	sp,sp,60
 10026cc:	f800283a 	ret
 10026d0:	b823883a 	mov	r17,r23
 10026d4:	9825883a 	mov	r18,r19
 10026d8:	d8000115 	stw	zero,4(sp)
 10026dc:	002b883a 	mov	r21,zero
 10026e0:	94000017 	ldw	r16,0(r18)
 10026e4:	e009883a 	mov	r4,fp
 10026e8:	94800104 	addi	r18,r18,4
 10026ec:	817fffcc 	andi	r5,r16,65535
 10026f0:	100972c0 	call	100972c <__mulsi3>
 10026f4:	800ad43a 	srli	r5,r16,16
 10026f8:	e009883a 	mov	r4,fp
 10026fc:	a8a1883a 	add	r16,r21,r2
 1002700:	100972c0 	call	100972c <__mulsi3>
 1002704:	89000017 	ldw	r4,0(r17)
 1002708:	80ffffcc 	andi	r3,r16,65535
 100270c:	8020d43a 	srli	r16,r16,16
 1002710:	217fffcc 	andi	r5,r4,65535
 1002714:	28cbc83a 	sub	r5,r5,r3
 1002718:	d8c00117 	ldw	r3,4(sp)
 100271c:	2008d43a 	srli	r4,r4,16
 1002720:	1405883a 	add	r2,r2,r16
 1002724:	28cb883a 	add	r5,r5,r3
 1002728:	280dd43a 	srai	r6,r5,16
 100272c:	10ffffcc 	andi	r3,r2,65535
 1002730:	20c9c83a 	sub	r4,r4,r3
 1002734:	2189883a 	add	r4,r4,r6
 1002738:	8900008d 	sth	r4,2(r17)
 100273c:	2009d43a 	srai	r4,r4,16
 1002740:	8940000d 	sth	r5,0(r17)
 1002744:	102ad43a 	srli	r21,r2,16
 1002748:	8c400104 	addi	r17,r17,4
 100274c:	d9000115 	stw	r4,4(sp)
 1002750:	b4bfe32e 	bgeu	r22,r18,10026e0 <quorem+0x188>
 1002754:	d9000217 	ldw	r4,8(sp)
 1002758:	203fa01e 	bne	r4,zero,10025dc <quorem+0x84>
 100275c:	d8800017 	ldw	r2,0(sp)
 1002760:	10ffff04 	addi	r3,r2,-4
 1002764:	b8c0082e 	bgeu	r23,r3,1002788 <quorem+0x230>
 1002768:	10bfff17 	ldw	r2,-4(r2)
 100276c:	10000326 	beq	r2,zero,100277c <quorem+0x224>
 1002770:	00000506 	br	1002788 <quorem+0x230>
 1002774:	18800017 	ldw	r2,0(r3)
 1002778:	1000031e 	bne	r2,zero,1002788 <quorem+0x230>
 100277c:	18ffff04 	addi	r3,r3,-4
 1002780:	a53fffc4 	addi	r20,r20,-1
 1002784:	b8fffb36 	bltu	r23,r3,1002774 <quorem+0x21c>
 1002788:	d8c00317 	ldw	r3,12(sp)
 100278c:	1d000415 	stw	r20,16(r3)
 1002790:	003f9206 	br	10025dc <quorem+0x84>
 1002794:	0005883a 	mov	r2,zero
 1002798:	003fc106 	br	10026a0 <quorem+0x148>

0100279c <_dtoa_r>:
 100279c:	22001017 	ldw	r8,64(r4)
 10027a0:	deffda04 	addi	sp,sp,-152
 10027a4:	dd402115 	stw	r21,132(sp)
 10027a8:	dd002015 	stw	r20,128(sp)
 10027ac:	dc801e15 	stw	r18,120(sp)
 10027b0:	dc401d15 	stw	r17,116(sp)
 10027b4:	dfc02515 	stw	ra,148(sp)
 10027b8:	df002415 	stw	fp,144(sp)
 10027bc:	ddc02315 	stw	r23,140(sp)
 10027c0:	dd802215 	stw	r22,136(sp)
 10027c4:	dcc01f15 	stw	r19,124(sp)
 10027c8:	dc001c15 	stw	r16,112(sp)
 10027cc:	d9001615 	stw	r4,88(sp)
 10027d0:	3023883a 	mov	r17,r6
 10027d4:	2829883a 	mov	r20,r5
 10027d8:	d9c01715 	stw	r7,92(sp)
 10027dc:	dc802817 	ldw	r18,160(sp)
 10027e0:	302b883a 	mov	r21,r6
 10027e4:	40000a26 	beq	r8,zero,1002810 <_dtoa_r+0x74>
 10027e8:	20801117 	ldw	r2,68(r4)
 10027ec:	400b883a 	mov	r5,r8
 10027f0:	40800115 	stw	r2,4(r8)
 10027f4:	20c01117 	ldw	r3,68(r4)
 10027f8:	00800044 	movi	r2,1
 10027fc:	10c4983a 	sll	r2,r2,r3
 1002800:	40800215 	stw	r2,8(r8)
 1002804:	10059640 	call	1005964 <_Bfree>
 1002808:	d8c01617 	ldw	r3,88(sp)
 100280c:	18001015 	stw	zero,64(r3)
 1002810:	8800a316 	blt	r17,zero,1002aa0 <_dtoa_r+0x304>
 1002814:	90000015 	stw	zero,0(r18)
 1002818:	a8dffc2c 	andhi	r3,r21,32752
 100281c:	009ffc34 	movhi	r2,32752
 1002820:	18809126 	beq	r3,r2,1002a68 <_dtoa_r+0x2cc>
 1002824:	000d883a 	mov	r6,zero
 1002828:	000f883a 	mov	r7,zero
 100282c:	a009883a 	mov	r4,r20
 1002830:	a80b883a 	mov	r5,r21
 1002834:	dd001215 	stw	r20,72(sp)
 1002838:	dd401315 	stw	r21,76(sp)
 100283c:	100905c0 	call	100905c <__nedf2>
 1002840:	1000171e 	bne	r2,zero,10028a0 <_dtoa_r+0x104>
 1002844:	d9802717 	ldw	r6,156(sp)
 1002848:	00800044 	movi	r2,1
 100284c:	30800015 	stw	r2,0(r6)
 1002850:	d8802917 	ldw	r2,164(sp)
 1002854:	10029b26 	beq	r2,zero,10032c4 <_dtoa_r+0xb28>
 1002858:	d9002917 	ldw	r4,164(sp)
 100285c:	00804074 	movhi	r2,257
 1002860:	10b52644 	addi	r2,r2,-11111
 1002864:	10ffffc4 	addi	r3,r2,-1
 1002868:	20800015 	stw	r2,0(r4)
 100286c:	1805883a 	mov	r2,r3
 1002870:	dfc02517 	ldw	ra,148(sp)
 1002874:	df002417 	ldw	fp,144(sp)
 1002878:	ddc02317 	ldw	r23,140(sp)
 100287c:	dd802217 	ldw	r22,136(sp)
 1002880:	dd402117 	ldw	r21,132(sp)
 1002884:	dd002017 	ldw	r20,128(sp)
 1002888:	dcc01f17 	ldw	r19,124(sp)
 100288c:	dc801e17 	ldw	r18,120(sp)
 1002890:	dc401d17 	ldw	r17,116(sp)
 1002894:	dc001c17 	ldw	r16,112(sp)
 1002898:	dec02604 	addi	sp,sp,152
 100289c:	f800283a 	ret
 10028a0:	d9001617 	ldw	r4,88(sp)
 10028a4:	d9401217 	ldw	r5,72(sp)
 10028a8:	d8800104 	addi	r2,sp,4
 10028ac:	a80d883a 	mov	r6,r21
 10028b0:	d9c00204 	addi	r7,sp,8
 10028b4:	d8800015 	stw	r2,0(sp)
 10028b8:	1005fa00 	call	1005fa0 <__d2b>
 10028bc:	d8800715 	stw	r2,28(sp)
 10028c0:	a804d53a 	srli	r2,r21,20
 10028c4:	1101ffcc 	andi	r4,r2,2047
 10028c8:	20008626 	beq	r4,zero,1002ae4 <_dtoa_r+0x348>
 10028cc:	d8c01217 	ldw	r3,72(sp)
 10028d0:	00800434 	movhi	r2,16
 10028d4:	10bfffc4 	addi	r2,r2,-1
 10028d8:	ddc00117 	ldw	r23,4(sp)
 10028dc:	a884703a 	and	r2,r21,r2
 10028e0:	1811883a 	mov	r8,r3
 10028e4:	124ffc34 	orhi	r9,r2,16368
 10028e8:	25bf0044 	addi	r22,r4,-1023
 10028ec:	d8000815 	stw	zero,32(sp)
 10028f0:	0005883a 	mov	r2,zero
 10028f4:	00cffe34 	movhi	r3,16376
 10028f8:	480b883a 	mov	r5,r9
 10028fc:	4009883a 	mov	r4,r8
 1002900:	180f883a 	mov	r7,r3
 1002904:	100d883a 	mov	r6,r2
 1002908:	10088c40 	call	10088c4 <__subdf3>
 100290c:	0218dbf4 	movhi	r8,25455
 1002910:	4210d844 	addi	r8,r8,17249
 1002914:	024ff4f4 	movhi	r9,16339
 1002918:	4a61e9c4 	addi	r9,r9,-30809
 100291c:	480f883a 	mov	r7,r9
 1002920:	400d883a 	mov	r6,r8
 1002924:	180b883a 	mov	r5,r3
 1002928:	1009883a 	mov	r4,r2
 100292c:	10089b80 	call	10089b8 <__muldf3>
 1002930:	0222d874 	movhi	r8,35681
 1002934:	42322cc4 	addi	r8,r8,-14157
 1002938:	024ff1f4 	movhi	r9,16327
 100293c:	4a628a04 	addi	r9,r9,-30168
 1002940:	480f883a 	mov	r7,r9
 1002944:	400d883a 	mov	r6,r8
 1002948:	180b883a 	mov	r5,r3
 100294c:	1009883a 	mov	r4,r2
 1002950:	10089440 	call	1008944 <__adddf3>
 1002954:	b009883a 	mov	r4,r22
 1002958:	1021883a 	mov	r16,r2
 100295c:	1823883a 	mov	r17,r3
 1002960:	100927c0 	call	100927c <__floatsidf>
 1002964:	021427f4 	movhi	r8,20639
 1002968:	421e7ec4 	addi	r8,r8,31227
 100296c:	024ff4f4 	movhi	r9,16339
 1002970:	4a5104c4 	addi	r9,r9,17427
 1002974:	480f883a 	mov	r7,r9
 1002978:	400d883a 	mov	r6,r8
 100297c:	180b883a 	mov	r5,r3
 1002980:	1009883a 	mov	r4,r2
 1002984:	10089b80 	call	10089b8 <__muldf3>
 1002988:	180f883a 	mov	r7,r3
 100298c:	880b883a 	mov	r5,r17
 1002990:	100d883a 	mov	r6,r2
 1002994:	8009883a 	mov	r4,r16
 1002998:	10089440 	call	1008944 <__adddf3>
 100299c:	1009883a 	mov	r4,r2
 10029a0:	180b883a 	mov	r5,r3
 10029a4:	1021883a 	mov	r16,r2
 10029a8:	1823883a 	mov	r17,r3
 10029ac:	10093740 	call	1009374 <__fixdfsi>
 10029b0:	000d883a 	mov	r6,zero
 10029b4:	000f883a 	mov	r7,zero
 10029b8:	8009883a 	mov	r4,r16
 10029bc:	880b883a 	mov	r5,r17
 10029c0:	d8800d15 	stw	r2,52(sp)
 10029c4:	10091f40 	call	10091f4 <__ltdf2>
 10029c8:	10031716 	blt	r2,zero,1003628 <_dtoa_r+0xe8c>
 10029cc:	d8c00d17 	ldw	r3,52(sp)
 10029d0:	00800584 	movi	r2,22
 10029d4:	10c1482e 	bgeu	r2,r3,1002ef8 <_dtoa_r+0x75c>
 10029d8:	01000044 	movi	r4,1
 10029dc:	d9000c15 	stw	r4,48(sp)
 10029e0:	bd85c83a 	sub	r2,r23,r22
 10029e4:	11bfffc4 	addi	r6,r2,-1
 10029e8:	30030b16 	blt	r6,zero,1003618 <_dtoa_r+0xe7c>
 10029ec:	d9800a15 	stw	r6,40(sp)
 10029f0:	d8001115 	stw	zero,68(sp)
 10029f4:	d8c00d17 	ldw	r3,52(sp)
 10029f8:	1802ff16 	blt	r3,zero,10035f8 <_dtoa_r+0xe5c>
 10029fc:	d9000a17 	ldw	r4,40(sp)
 1002a00:	d8c00915 	stw	r3,36(sp)
 1002a04:	d8001015 	stw	zero,64(sp)
 1002a08:	20c9883a 	add	r4,r4,r3
 1002a0c:	d9000a15 	stw	r4,40(sp)
 1002a10:	d9001717 	ldw	r4,92(sp)
 1002a14:	00800244 	movi	r2,9
 1002a18:	11004636 	bltu	r2,r4,1002b34 <_dtoa_r+0x398>
 1002a1c:	00800144 	movi	r2,5
 1002a20:	11020416 	blt	r2,r4,1003234 <_dtoa_r+0xa98>
 1002a24:	04400044 	movi	r17,1
 1002a28:	d8c01717 	ldw	r3,92(sp)
 1002a2c:	00800144 	movi	r2,5
 1002a30:	10c1ed36 	bltu	r2,r3,10031e8 <_dtoa_r+0xa4c>
 1002a34:	18c5883a 	add	r2,r3,r3
 1002a38:	1085883a 	add	r2,r2,r2
 1002a3c:	00c04034 	movhi	r3,256
 1002a40:	18ca9404 	addi	r3,r3,10832
 1002a44:	10c5883a 	add	r2,r2,r3
 1002a48:	11000017 	ldw	r4,0(r2)
 1002a4c:	2000683a 	jmp	r4
 1002a50:	01002b3c 	xorhi	r4,zero,172
 1002a54:	01002b3c 	xorhi	r4,zero,172
 1002a58:	0100353c 	xorhi	r4,zero,212
 1002a5c:	01003514 	movui	r4,212
 1002a60:	01003558 	cmpnei	r4,zero,213
 1002a64:	01003564 	muli	r4,zero,213
 1002a68:	d9002717 	ldw	r4,156(sp)
 1002a6c:	0089c3c4 	movi	r2,9999
 1002a70:	20800015 	stw	r2,0(r4)
 1002a74:	a0001026 	beq	r20,zero,1002ab8 <_dtoa_r+0x31c>
 1002a78:	00c04074 	movhi	r3,257
 1002a7c:	18f53204 	addi	r3,r3,-11064
 1002a80:	d9802917 	ldw	r6,164(sp)
 1002a84:	303f7926 	beq	r6,zero,100286c <_dtoa_r+0xd0>
 1002a88:	188000c7 	ldb	r2,3(r3)
 1002a8c:	190000c4 	addi	r4,r3,3
 1002a90:	1000101e 	bne	r2,zero,1002ad4 <_dtoa_r+0x338>
 1002a94:	d8802917 	ldw	r2,164(sp)
 1002a98:	11000015 	stw	r4,0(r2)
 1002a9c:	003f7306 	br	100286c <_dtoa_r+0xd0>
 1002aa0:	00a00034 	movhi	r2,32768
 1002aa4:	10bfffc4 	addi	r2,r2,-1
 1002aa8:	00c00044 	movi	r3,1
 1002aac:	88aa703a 	and	r21,r17,r2
 1002ab0:	90c00015 	stw	r3,0(r18)
 1002ab4:	003f5806 	br	1002818 <_dtoa_r+0x7c>
 1002ab8:	00800434 	movhi	r2,16
 1002abc:	10bfffc4 	addi	r2,r2,-1
 1002ac0:	a884703a 	and	r2,r21,r2
 1002ac4:	103fec1e 	bne	r2,zero,1002a78 <_dtoa_r+0x2dc>
 1002ac8:	00c04074 	movhi	r3,257
 1002acc:	18f52f04 	addi	r3,r3,-11076
 1002ad0:	003feb06 	br	1002a80 <_dtoa_r+0x2e4>
 1002ad4:	d8802917 	ldw	r2,164(sp)
 1002ad8:	19000204 	addi	r4,r3,8
 1002adc:	11000015 	stw	r4,0(r2)
 1002ae0:	003f6206 	br	100286c <_dtoa_r+0xd0>
 1002ae4:	ddc00117 	ldw	r23,4(sp)
 1002ae8:	d8800217 	ldw	r2,8(sp)
 1002aec:	01000804 	movi	r4,32
 1002af0:	b8c10c84 	addi	r3,r23,1074
 1002af4:	18a3883a 	add	r17,r3,r2
 1002af8:	2441b80e 	bge	r4,r17,10031dc <_dtoa_r+0xa40>
 1002afc:	00c01004 	movi	r3,64
 1002b00:	1c47c83a 	sub	r3,r3,r17
 1002b04:	88bff804 	addi	r2,r17,-32
 1002b08:	a8c6983a 	sll	r3,r21,r3
 1002b0c:	a084d83a 	srl	r2,r20,r2
 1002b10:	1888b03a 	or	r4,r3,r2
 1002b14:	100944c0 	call	100944c <__floatunsidf>
 1002b18:	1011883a 	mov	r8,r2
 1002b1c:	00bf8434 	movhi	r2,65040
 1002b20:	01000044 	movi	r4,1
 1002b24:	10d3883a 	add	r9,r2,r3
 1002b28:	8dbef344 	addi	r22,r17,-1075
 1002b2c:	d9000815 	stw	r4,32(sp)
 1002b30:	003f6f06 	br	10028f0 <_dtoa_r+0x154>
 1002b34:	d8001715 	stw	zero,92(sp)
 1002b38:	04400044 	movi	r17,1
 1002b3c:	00bfffc4 	movi	r2,-1
 1002b40:	00c00044 	movi	r3,1
 1002b44:	d8800e15 	stw	r2,56(sp)
 1002b48:	d8002615 	stw	zero,152(sp)
 1002b4c:	d8800f15 	stw	r2,60(sp)
 1002b50:	d8c00b15 	stw	r3,44(sp)
 1002b54:	1021883a 	mov	r16,r2
 1002b58:	d8801617 	ldw	r2,88(sp)
 1002b5c:	10001115 	stw	zero,68(r2)
 1002b60:	d8801617 	ldw	r2,88(sp)
 1002b64:	11401117 	ldw	r5,68(r2)
 1002b68:	1009883a 	mov	r4,r2
 1002b6c:	1005ee40 	call	1005ee4 <_Balloc>
 1002b70:	d8c01617 	ldw	r3,88(sp)
 1002b74:	d8800515 	stw	r2,20(sp)
 1002b78:	18801015 	stw	r2,64(r3)
 1002b7c:	00800384 	movi	r2,14
 1002b80:	14006836 	bltu	r2,r16,1002d24 <_dtoa_r+0x588>
 1002b84:	8805003a 	cmpeq	r2,r17,zero
 1002b88:	1000661e 	bne	r2,zero,1002d24 <_dtoa_r+0x588>
 1002b8c:	d9000d17 	ldw	r4,52(sp)
 1002b90:	0102300e 	bge	zero,r4,1003454 <_dtoa_r+0xcb8>
 1002b94:	208003cc 	andi	r2,r4,15
 1002b98:	100490fa 	slli	r2,r2,3
 1002b9c:	2025d13a 	srai	r18,r4,4
 1002ba0:	00c04074 	movhi	r3,257
 1002ba4:	18f54404 	addi	r3,r3,-10992
 1002ba8:	10c5883a 	add	r2,r2,r3
 1002bac:	90c0040c 	andi	r3,r18,16
 1002bb0:	14000017 	ldw	r16,0(r2)
 1002bb4:	14400117 	ldw	r17,4(r2)
 1002bb8:	18036a1e 	bne	r3,zero,1003964 <_dtoa_r+0x11c8>
 1002bbc:	05800084 	movi	r22,2
 1002bc0:	90001026 	beq	r18,zero,1002c04 <_dtoa_r+0x468>
 1002bc4:	04c04074 	movhi	r19,257
 1002bc8:	9cf57604 	addi	r19,r19,-10792
 1002bcc:	9080004c 	andi	r2,r18,1
 1002bd0:	1005003a 	cmpeq	r2,r2,zero
 1002bd4:	1000081e 	bne	r2,zero,1002bf8 <_dtoa_r+0x45c>
 1002bd8:	99800017 	ldw	r6,0(r19)
 1002bdc:	99c00117 	ldw	r7,4(r19)
 1002be0:	880b883a 	mov	r5,r17
 1002be4:	8009883a 	mov	r4,r16
 1002be8:	10089b80 	call	10089b8 <__muldf3>
 1002bec:	1021883a 	mov	r16,r2
 1002bf0:	b5800044 	addi	r22,r22,1
 1002bf4:	1823883a 	mov	r17,r3
 1002bf8:	9025d07a 	srai	r18,r18,1
 1002bfc:	9cc00204 	addi	r19,r19,8
 1002c00:	903ff21e 	bne	r18,zero,1002bcc <_dtoa_r+0x430>
 1002c04:	a80b883a 	mov	r5,r21
 1002c08:	a009883a 	mov	r4,r20
 1002c0c:	880f883a 	mov	r7,r17
 1002c10:	800d883a 	mov	r6,r16
 1002c14:	1008d7c0 	call	1008d7c <__divdf3>
 1002c18:	1029883a 	mov	r20,r2
 1002c1c:	182b883a 	mov	r21,r3
 1002c20:	d8c00c17 	ldw	r3,48(sp)
 1002c24:	1805003a 	cmpeq	r2,r3,zero
 1002c28:	1000081e 	bne	r2,zero,1002c4c <_dtoa_r+0x4b0>
 1002c2c:	0005883a 	mov	r2,zero
 1002c30:	00cffc34 	movhi	r3,16368
 1002c34:	180f883a 	mov	r7,r3
 1002c38:	a009883a 	mov	r4,r20
 1002c3c:	a80b883a 	mov	r5,r21
 1002c40:	100d883a 	mov	r6,r2
 1002c44:	10091f40 	call	10091f4 <__ltdf2>
 1002c48:	1003fe16 	blt	r2,zero,1003c44 <_dtoa_r+0x14a8>
 1002c4c:	b009883a 	mov	r4,r22
 1002c50:	100927c0 	call	100927c <__floatsidf>
 1002c54:	180b883a 	mov	r5,r3
 1002c58:	1009883a 	mov	r4,r2
 1002c5c:	a00d883a 	mov	r6,r20
 1002c60:	a80f883a 	mov	r7,r21
 1002c64:	10089b80 	call	10089b8 <__muldf3>
 1002c68:	0011883a 	mov	r8,zero
 1002c6c:	02500734 	movhi	r9,16412
 1002c70:	1009883a 	mov	r4,r2
 1002c74:	180b883a 	mov	r5,r3
 1002c78:	480f883a 	mov	r7,r9
 1002c7c:	400d883a 	mov	r6,r8
 1002c80:	10089440 	call	1008944 <__adddf3>
 1002c84:	d9000f17 	ldw	r4,60(sp)
 1002c88:	102d883a 	mov	r22,r2
 1002c8c:	00bf3034 	movhi	r2,64704
 1002c90:	18b9883a 	add	fp,r3,r2
 1002c94:	e02f883a 	mov	r23,fp
 1002c98:	20028f1e 	bne	r4,zero,10036d8 <_dtoa_r+0xf3c>
 1002c9c:	0005883a 	mov	r2,zero
 1002ca0:	00d00534 	movhi	r3,16404
 1002ca4:	a009883a 	mov	r4,r20
 1002ca8:	a80b883a 	mov	r5,r21
 1002cac:	180f883a 	mov	r7,r3
 1002cb0:	100d883a 	mov	r6,r2
 1002cb4:	10088c40 	call	10088c4 <__subdf3>
 1002cb8:	1009883a 	mov	r4,r2
 1002cbc:	e00f883a 	mov	r7,fp
 1002cc0:	180b883a 	mov	r5,r3
 1002cc4:	b00d883a 	mov	r6,r22
 1002cc8:	1025883a 	mov	r18,r2
 1002ccc:	1827883a 	mov	r19,r3
 1002cd0:	10090e40 	call	10090e4 <__gtdf2>
 1002cd4:	00834f16 	blt	zero,r2,1003a14 <_dtoa_r+0x1278>
 1002cd8:	e0e0003c 	xorhi	r3,fp,32768
 1002cdc:	9009883a 	mov	r4,r18
 1002ce0:	980b883a 	mov	r5,r19
 1002ce4:	180f883a 	mov	r7,r3
 1002ce8:	b00d883a 	mov	r6,r22
 1002cec:	10091f40 	call	10091f4 <__ltdf2>
 1002cf0:	1000080e 	bge	r2,zero,1002d14 <_dtoa_r+0x578>
 1002cf4:	0027883a 	mov	r19,zero
 1002cf8:	0025883a 	mov	r18,zero
 1002cfc:	d8802617 	ldw	r2,152(sp)
 1002d00:	df000517 	ldw	fp,20(sp)
 1002d04:	d8000615 	stw	zero,24(sp)
 1002d08:	0084303a 	nor	r2,zero,r2
 1002d0c:	d8800d15 	stw	r2,52(sp)
 1002d10:	00019b06 	br	1003380 <_dtoa_r+0xbe4>
 1002d14:	d9801217 	ldw	r6,72(sp)
 1002d18:	d8801317 	ldw	r2,76(sp)
 1002d1c:	3029883a 	mov	r20,r6
 1002d20:	102b883a 	mov	r21,r2
 1002d24:	d8c00217 	ldw	r3,8(sp)
 1002d28:	18008516 	blt	r3,zero,1002f40 <_dtoa_r+0x7a4>
 1002d2c:	d9000d17 	ldw	r4,52(sp)
 1002d30:	00800384 	movi	r2,14
 1002d34:	11008216 	blt	r2,r4,1002f40 <_dtoa_r+0x7a4>
 1002d38:	200490fa 	slli	r2,r4,3
 1002d3c:	d9802617 	ldw	r6,152(sp)
 1002d40:	00c04074 	movhi	r3,257
 1002d44:	18f54404 	addi	r3,r3,-10992
 1002d48:	10c5883a 	add	r2,r2,r3
 1002d4c:	14800017 	ldw	r18,0(r2)
 1002d50:	14c00117 	ldw	r19,4(r2)
 1002d54:	30031e16 	blt	r6,zero,10039d0 <_dtoa_r+0x1234>
 1002d58:	d9000517 	ldw	r4,20(sp)
 1002d5c:	d8c00f17 	ldw	r3,60(sp)
 1002d60:	a823883a 	mov	r17,r21
 1002d64:	a021883a 	mov	r16,r20
 1002d68:	192b883a 	add	r21,r3,r4
 1002d6c:	2039883a 	mov	fp,r4
 1002d70:	00000f06 	br	1002db0 <_dtoa_r+0x614>
 1002d74:	0005883a 	mov	r2,zero
 1002d78:	00d00934 	movhi	r3,16420
 1002d7c:	5009883a 	mov	r4,r10
 1002d80:	580b883a 	mov	r5,r11
 1002d84:	180f883a 	mov	r7,r3
 1002d88:	100d883a 	mov	r6,r2
 1002d8c:	10089b80 	call	10089b8 <__muldf3>
 1002d90:	180b883a 	mov	r5,r3
 1002d94:	000d883a 	mov	r6,zero
 1002d98:	000f883a 	mov	r7,zero
 1002d9c:	1009883a 	mov	r4,r2
 1002da0:	1021883a 	mov	r16,r2
 1002da4:	1823883a 	mov	r17,r3
 1002da8:	100905c0 	call	100905c <__nedf2>
 1002dac:	10004526 	beq	r2,zero,1002ec4 <_dtoa_r+0x728>
 1002db0:	900d883a 	mov	r6,r18
 1002db4:	980f883a 	mov	r7,r19
 1002db8:	8009883a 	mov	r4,r16
 1002dbc:	880b883a 	mov	r5,r17
 1002dc0:	1008d7c0 	call	1008d7c <__divdf3>
 1002dc4:	180b883a 	mov	r5,r3
 1002dc8:	1009883a 	mov	r4,r2
 1002dcc:	10093740 	call	1009374 <__fixdfsi>
 1002dd0:	1009883a 	mov	r4,r2
 1002dd4:	1029883a 	mov	r20,r2
 1002dd8:	100927c0 	call	100927c <__floatsidf>
 1002ddc:	180f883a 	mov	r7,r3
 1002de0:	9009883a 	mov	r4,r18
 1002de4:	980b883a 	mov	r5,r19
 1002de8:	100d883a 	mov	r6,r2
 1002dec:	10089b80 	call	10089b8 <__muldf3>
 1002df0:	180f883a 	mov	r7,r3
 1002df4:	880b883a 	mov	r5,r17
 1002df8:	8009883a 	mov	r4,r16
 1002dfc:	100d883a 	mov	r6,r2
 1002e00:	10088c40 	call	10088c4 <__subdf3>
 1002e04:	1015883a 	mov	r10,r2
 1002e08:	a0800c04 	addi	r2,r20,48
 1002e0c:	e0800005 	stb	r2,0(fp)
 1002e10:	e7000044 	addi	fp,fp,1
 1002e14:	1817883a 	mov	r11,r3
 1002e18:	e57fd61e 	bne	fp,r21,1002d74 <_dtoa_r+0x5d8>
 1002e1c:	500d883a 	mov	r6,r10
 1002e20:	180f883a 	mov	r7,r3
 1002e24:	5009883a 	mov	r4,r10
 1002e28:	180b883a 	mov	r5,r3
 1002e2c:	10089440 	call	1008944 <__adddf3>
 1002e30:	100d883a 	mov	r6,r2
 1002e34:	9009883a 	mov	r4,r18
 1002e38:	980b883a 	mov	r5,r19
 1002e3c:	180f883a 	mov	r7,r3
 1002e40:	1021883a 	mov	r16,r2
 1002e44:	1823883a 	mov	r17,r3
 1002e48:	10091f40 	call	10091f4 <__ltdf2>
 1002e4c:	10000816 	blt	r2,zero,1002e70 <_dtoa_r+0x6d4>
 1002e50:	980b883a 	mov	r5,r19
 1002e54:	800d883a 	mov	r6,r16
 1002e58:	880f883a 	mov	r7,r17
 1002e5c:	9009883a 	mov	r4,r18
 1002e60:	1008fd40 	call	1008fd4 <__eqdf2>
 1002e64:	1000171e 	bne	r2,zero,1002ec4 <_dtoa_r+0x728>
 1002e68:	a080004c 	andi	r2,r20,1
 1002e6c:	10001526 	beq	r2,zero,1002ec4 <_dtoa_r+0x728>
 1002e70:	d8800d17 	ldw	r2,52(sp)
 1002e74:	d8800415 	stw	r2,16(sp)
 1002e78:	e009883a 	mov	r4,fp
 1002e7c:	213fffc4 	addi	r4,r4,-1
 1002e80:	20c00007 	ldb	r3,0(r4)
 1002e84:	00800e44 	movi	r2,57
 1002e88:	1880081e 	bne	r3,r2,1002eac <_dtoa_r+0x710>
 1002e8c:	d8800517 	ldw	r2,20(sp)
 1002e90:	113ffa1e 	bne	r2,r4,1002e7c <_dtoa_r+0x6e0>
 1002e94:	d8c00417 	ldw	r3,16(sp)
 1002e98:	d9800517 	ldw	r6,20(sp)
 1002e9c:	00800c04 	movi	r2,48
 1002ea0:	18c00044 	addi	r3,r3,1
 1002ea4:	d8c00415 	stw	r3,16(sp)
 1002ea8:	30800005 	stb	r2,0(r6)
 1002eac:	20800003 	ldbu	r2,0(r4)
 1002eb0:	d8c00417 	ldw	r3,16(sp)
 1002eb4:	27000044 	addi	fp,r4,1
 1002eb8:	10800044 	addi	r2,r2,1
 1002ebc:	d8c00d15 	stw	r3,52(sp)
 1002ec0:	20800005 	stb	r2,0(r4)
 1002ec4:	d9001617 	ldw	r4,88(sp)
 1002ec8:	d9400717 	ldw	r5,28(sp)
 1002ecc:	10059640 	call	1005964 <_Bfree>
 1002ed0:	e0000005 	stb	zero,0(fp)
 1002ed4:	d9800d17 	ldw	r6,52(sp)
 1002ed8:	d8c02717 	ldw	r3,156(sp)
 1002edc:	d9002917 	ldw	r4,164(sp)
 1002ee0:	30800044 	addi	r2,r6,1
 1002ee4:	18800015 	stw	r2,0(r3)
 1002ee8:	20029c26 	beq	r4,zero,100395c <_dtoa_r+0x11c0>
 1002eec:	d8c00517 	ldw	r3,20(sp)
 1002ef0:	27000015 	stw	fp,0(r4)
 1002ef4:	003e5d06 	br	100286c <_dtoa_r+0xd0>
 1002ef8:	d9800d17 	ldw	r6,52(sp)
 1002efc:	00c04074 	movhi	r3,257
 1002f00:	18f54404 	addi	r3,r3,-10992
 1002f04:	d9001217 	ldw	r4,72(sp)
 1002f08:	300490fa 	slli	r2,r6,3
 1002f0c:	d9401317 	ldw	r5,76(sp)
 1002f10:	10c5883a 	add	r2,r2,r3
 1002f14:	12000017 	ldw	r8,0(r2)
 1002f18:	12400117 	ldw	r9,4(r2)
 1002f1c:	400d883a 	mov	r6,r8
 1002f20:	480f883a 	mov	r7,r9
 1002f24:	10091f40 	call	10091f4 <__ltdf2>
 1002f28:	1000030e 	bge	r2,zero,1002f38 <_dtoa_r+0x79c>
 1002f2c:	d8800d17 	ldw	r2,52(sp)
 1002f30:	10bfffc4 	addi	r2,r2,-1
 1002f34:	d8800d15 	stw	r2,52(sp)
 1002f38:	d8000c15 	stw	zero,48(sp)
 1002f3c:	003ea806 	br	10029e0 <_dtoa_r+0x244>
 1002f40:	d9000b17 	ldw	r4,44(sp)
 1002f44:	202cc03a 	cmpne	r22,r4,zero
 1002f48:	b000c71e 	bne	r22,zero,1003268 <_dtoa_r+0xacc>
 1002f4c:	dc001117 	ldw	r16,68(sp)
 1002f50:	dc801017 	ldw	r18,64(sp)
 1002f54:	0027883a 	mov	r19,zero
 1002f58:	04000b0e 	bge	zero,r16,1002f88 <_dtoa_r+0x7ec>
 1002f5c:	d8c00a17 	ldw	r3,40(sp)
 1002f60:	00c0090e 	bge	zero,r3,1002f88 <_dtoa_r+0x7ec>
 1002f64:	8005883a 	mov	r2,r16
 1002f68:	1c011316 	blt	r3,r16,10033b8 <_dtoa_r+0xc1c>
 1002f6c:	d9000a17 	ldw	r4,40(sp)
 1002f70:	d9801117 	ldw	r6,68(sp)
 1002f74:	80a1c83a 	sub	r16,r16,r2
 1002f78:	2089c83a 	sub	r4,r4,r2
 1002f7c:	308dc83a 	sub	r6,r6,r2
 1002f80:	d9000a15 	stw	r4,40(sp)
 1002f84:	d9801115 	stw	r6,68(sp)
 1002f88:	d8801017 	ldw	r2,64(sp)
 1002f8c:	0080150e 	bge	zero,r2,1002fe4 <_dtoa_r+0x848>
 1002f90:	d8c00b17 	ldw	r3,44(sp)
 1002f94:	1805003a 	cmpeq	r2,r3,zero
 1002f98:	1001c91e 	bne	r2,zero,10036c0 <_dtoa_r+0xf24>
 1002f9c:	04800e0e 	bge	zero,r18,1002fd8 <_dtoa_r+0x83c>
 1002fa0:	d9001617 	ldw	r4,88(sp)
 1002fa4:	980b883a 	mov	r5,r19
 1002fa8:	900d883a 	mov	r6,r18
 1002fac:	10067b00 	call	10067b0 <__pow5mult>
 1002fb0:	d9001617 	ldw	r4,88(sp)
 1002fb4:	d9800717 	ldw	r6,28(sp)
 1002fb8:	100b883a 	mov	r5,r2
 1002fbc:	1027883a 	mov	r19,r2
 1002fc0:	10063f40 	call	10063f4 <__multiply>
 1002fc4:	d9001617 	ldw	r4,88(sp)
 1002fc8:	d9400717 	ldw	r5,28(sp)
 1002fcc:	1023883a 	mov	r17,r2
 1002fd0:	10059640 	call	1005964 <_Bfree>
 1002fd4:	dc400715 	stw	r17,28(sp)
 1002fd8:	d9001017 	ldw	r4,64(sp)
 1002fdc:	248dc83a 	sub	r6,r4,r18
 1002fe0:	30010e1e 	bne	r6,zero,100341c <_dtoa_r+0xc80>
 1002fe4:	d9001617 	ldw	r4,88(sp)
 1002fe8:	04400044 	movi	r17,1
 1002fec:	880b883a 	mov	r5,r17
 1002ff0:	10066480 	call	1006648 <__i2b>
 1002ff4:	d9800917 	ldw	r6,36(sp)
 1002ff8:	1025883a 	mov	r18,r2
 1002ffc:	0180040e 	bge	zero,r6,1003010 <_dtoa_r+0x874>
 1003000:	d9001617 	ldw	r4,88(sp)
 1003004:	100b883a 	mov	r5,r2
 1003008:	10067b00 	call	10067b0 <__pow5mult>
 100300c:	1025883a 	mov	r18,r2
 1003010:	d8801717 	ldw	r2,92(sp)
 1003014:	8880f30e 	bge	r17,r2,10033e4 <_dtoa_r+0xc48>
 1003018:	0023883a 	mov	r17,zero
 100301c:	d9800917 	ldw	r6,36(sp)
 1003020:	30019e1e 	bne	r6,zero,100369c <_dtoa_r+0xf00>
 1003024:	00c00044 	movi	r3,1
 1003028:	d9000a17 	ldw	r4,40(sp)
 100302c:	20c5883a 	add	r2,r4,r3
 1003030:	10c007cc 	andi	r3,r2,31
 1003034:	1800841e 	bne	r3,zero,1003248 <_dtoa_r+0xaac>
 1003038:	00800704 	movi	r2,28
 100303c:	d9000a17 	ldw	r4,40(sp)
 1003040:	d9801117 	ldw	r6,68(sp)
 1003044:	80a1883a 	add	r16,r16,r2
 1003048:	2089883a 	add	r4,r4,r2
 100304c:	308d883a 	add	r6,r6,r2
 1003050:	d9000a15 	stw	r4,40(sp)
 1003054:	d9801115 	stw	r6,68(sp)
 1003058:	d8801117 	ldw	r2,68(sp)
 100305c:	0080050e 	bge	zero,r2,1003074 <_dtoa_r+0x8d8>
 1003060:	d9400717 	ldw	r5,28(sp)
 1003064:	d9001617 	ldw	r4,88(sp)
 1003068:	100d883a 	mov	r6,r2
 100306c:	10062a80 	call	10062a8 <__lshift>
 1003070:	d8800715 	stw	r2,28(sp)
 1003074:	d8c00a17 	ldw	r3,40(sp)
 1003078:	00c0050e 	bge	zero,r3,1003090 <_dtoa_r+0x8f4>
 100307c:	d9001617 	ldw	r4,88(sp)
 1003080:	900b883a 	mov	r5,r18
 1003084:	180d883a 	mov	r6,r3
 1003088:	10062a80 	call	10062a8 <__lshift>
 100308c:	1025883a 	mov	r18,r2
 1003090:	d9000c17 	ldw	r4,48(sp)
 1003094:	2005003a 	cmpeq	r2,r4,zero
 1003098:	10016f26 	beq	r2,zero,1003658 <_dtoa_r+0xebc>
 100309c:	d9000f17 	ldw	r4,60(sp)
 10030a0:	0102170e 	bge	zero,r4,1003900 <_dtoa_r+0x1164>
 10030a4:	d9800b17 	ldw	r6,44(sp)
 10030a8:	3005003a 	cmpeq	r2,r6,zero
 10030ac:	1000881e 	bne	r2,zero,10032d0 <_dtoa_r+0xb34>
 10030b0:	0400050e 	bge	zero,r16,10030c8 <_dtoa_r+0x92c>
 10030b4:	d9001617 	ldw	r4,88(sp)
 10030b8:	980b883a 	mov	r5,r19
 10030bc:	800d883a 	mov	r6,r16
 10030c0:	10062a80 	call	10062a8 <__lshift>
 10030c4:	1027883a 	mov	r19,r2
 10030c8:	8804c03a 	cmpne	r2,r17,zero
 10030cc:	1002541e 	bne	r2,zero,1003a20 <_dtoa_r+0x1284>
 10030d0:	980b883a 	mov	r5,r19
 10030d4:	dd800517 	ldw	r22,20(sp)
 10030d8:	dcc00615 	stw	r19,24(sp)
 10030dc:	a700004c 	andi	fp,r20,1
 10030e0:	2827883a 	mov	r19,r5
 10030e4:	d9000717 	ldw	r4,28(sp)
 10030e8:	900b883a 	mov	r5,r18
 10030ec:	10025580 	call	1002558 <quorem>
 10030f0:	d9000717 	ldw	r4,28(sp)
 10030f4:	d9400617 	ldw	r5,24(sp)
 10030f8:	1023883a 	mov	r17,r2
 10030fc:	8dc00c04 	addi	r23,r17,48
 1003100:	1005ac00 	call	1005ac0 <__mcmp>
 1003104:	d9001617 	ldw	r4,88(sp)
 1003108:	900b883a 	mov	r5,r18
 100310c:	980d883a 	mov	r6,r19
 1003110:	1029883a 	mov	r20,r2
 1003114:	100611c0 	call	100611c <__mdiff>
 1003118:	102b883a 	mov	r21,r2
 100311c:	10800317 	ldw	r2,12(r2)
 1003120:	1001281e 	bne	r2,zero,10035c4 <_dtoa_r+0xe28>
 1003124:	d9000717 	ldw	r4,28(sp)
 1003128:	a80b883a 	mov	r5,r21
 100312c:	1005ac00 	call	1005ac0 <__mcmp>
 1003130:	d9001617 	ldw	r4,88(sp)
 1003134:	1021883a 	mov	r16,r2
 1003138:	a80b883a 	mov	r5,r21
 100313c:	10059640 	call	1005964 <_Bfree>
 1003140:	8000041e 	bne	r16,zero,1003154 <_dtoa_r+0x9b8>
 1003144:	d8801717 	ldw	r2,92(sp)
 1003148:	1000021e 	bne	r2,zero,1003154 <_dtoa_r+0x9b8>
 100314c:	e004c03a 	cmpne	r2,fp,zero
 1003150:	10011726 	beq	r2,zero,10035b0 <_dtoa_r+0xe14>
 1003154:	a0010616 	blt	r20,zero,1003570 <_dtoa_r+0xdd4>
 1003158:	a000041e 	bne	r20,zero,100316c <_dtoa_r+0x9d0>
 100315c:	d8c01717 	ldw	r3,92(sp)
 1003160:	1800021e 	bne	r3,zero,100316c <_dtoa_r+0x9d0>
 1003164:	e004c03a 	cmpne	r2,fp,zero
 1003168:	10010126 	beq	r2,zero,1003570 <_dtoa_r+0xdd4>
 100316c:	04023d16 	blt	zero,r16,1003a64 <_dtoa_r+0x12c8>
 1003170:	b5c00005 	stb	r23,0(r22)
 1003174:	d9800517 	ldw	r6,20(sp)
 1003178:	d9000f17 	ldw	r4,60(sp)
 100317c:	b5800044 	addi	r22,r22,1
 1003180:	3105883a 	add	r2,r6,r4
 1003184:	b0806526 	beq	r22,r2,100331c <_dtoa_r+0xb80>
 1003188:	d9400717 	ldw	r5,28(sp)
 100318c:	d9001617 	ldw	r4,88(sp)
 1003190:	01800284 	movi	r6,10
 1003194:	000f883a 	mov	r7,zero
 1003198:	10066840 	call	1006684 <__multadd>
 100319c:	d8800715 	stw	r2,28(sp)
 10031a0:	d8800617 	ldw	r2,24(sp)
 10031a4:	14c10c26 	beq	r2,r19,10035d8 <_dtoa_r+0xe3c>
 10031a8:	d9400617 	ldw	r5,24(sp)
 10031ac:	d9001617 	ldw	r4,88(sp)
 10031b0:	01800284 	movi	r6,10
 10031b4:	000f883a 	mov	r7,zero
 10031b8:	10066840 	call	1006684 <__multadd>
 10031bc:	d9001617 	ldw	r4,88(sp)
 10031c0:	980b883a 	mov	r5,r19
 10031c4:	01800284 	movi	r6,10
 10031c8:	000f883a 	mov	r7,zero
 10031cc:	d8800615 	stw	r2,24(sp)
 10031d0:	10066840 	call	1006684 <__multadd>
 10031d4:	1027883a 	mov	r19,r2
 10031d8:	003fc206 	br	10030e4 <_dtoa_r+0x948>
 10031dc:	2445c83a 	sub	r2,r4,r17
 10031e0:	a088983a 	sll	r4,r20,r2
 10031e4:	003e4b06 	br	1002b14 <_dtoa_r+0x378>
 10031e8:	01bfffc4 	movi	r6,-1
 10031ec:	00800044 	movi	r2,1
 10031f0:	d9800e15 	stw	r6,56(sp)
 10031f4:	d9800f15 	stw	r6,60(sp)
 10031f8:	d8800b15 	stw	r2,44(sp)
 10031fc:	d8c01617 	ldw	r3,88(sp)
 1003200:	008005c4 	movi	r2,23
 1003204:	18001115 	stw	zero,68(r3)
 1003208:	1580082e 	bgeu	r2,r22,100322c <_dtoa_r+0xa90>
 100320c:	00c00104 	movi	r3,4
 1003210:	0009883a 	mov	r4,zero
 1003214:	18c7883a 	add	r3,r3,r3
 1003218:	18800504 	addi	r2,r3,20
 100321c:	21000044 	addi	r4,r4,1
 1003220:	b0bffc2e 	bgeu	r22,r2,1003214 <_dtoa_r+0xa78>
 1003224:	d9801617 	ldw	r6,88(sp)
 1003228:	31001115 	stw	r4,68(r6)
 100322c:	dc000f17 	ldw	r16,60(sp)
 1003230:	003e4b06 	br	1002b60 <_dtoa_r+0x3c4>
 1003234:	d9801717 	ldw	r6,92(sp)
 1003238:	0023883a 	mov	r17,zero
 100323c:	31bfff04 	addi	r6,r6,-4
 1003240:	d9801715 	stw	r6,92(sp)
 1003244:	003df806 	br	1002a28 <_dtoa_r+0x28c>
 1003248:	00800804 	movi	r2,32
 100324c:	10c9c83a 	sub	r4,r2,r3
 1003250:	00c00104 	movi	r3,4
 1003254:	19005a16 	blt	r3,r4,10033c0 <_dtoa_r+0xc24>
 1003258:	008000c4 	movi	r2,3
 100325c:	113f7e16 	blt	r2,r4,1003058 <_dtoa_r+0x8bc>
 1003260:	20800704 	addi	r2,r4,28
 1003264:	003f7506 	br	100303c <_dtoa_r+0x8a0>
 1003268:	d9801717 	ldw	r6,92(sp)
 100326c:	00800044 	movi	r2,1
 1003270:	1180a10e 	bge	r2,r6,10034f8 <_dtoa_r+0xd5c>
 1003274:	d9800f17 	ldw	r6,60(sp)
 1003278:	d8c01017 	ldw	r3,64(sp)
 100327c:	30bfffc4 	addi	r2,r6,-1
 1003280:	1881c616 	blt	r3,r2,100399c <_dtoa_r+0x1200>
 1003284:	18a5c83a 	sub	r18,r3,r2
 1003288:	d8800f17 	ldw	r2,60(sp)
 100328c:	10026216 	blt	r2,zero,1003c18 <_dtoa_r+0x147c>
 1003290:	dc001117 	ldw	r16,68(sp)
 1003294:	1007883a 	mov	r3,r2
 1003298:	d9800a17 	ldw	r6,40(sp)
 100329c:	d8801117 	ldw	r2,68(sp)
 10032a0:	d9001617 	ldw	r4,88(sp)
 10032a4:	30cd883a 	add	r6,r6,r3
 10032a8:	10c5883a 	add	r2,r2,r3
 10032ac:	01400044 	movi	r5,1
 10032b0:	d9800a15 	stw	r6,40(sp)
 10032b4:	d8801115 	stw	r2,68(sp)
 10032b8:	10066480 	call	1006648 <__i2b>
 10032bc:	1027883a 	mov	r19,r2
 10032c0:	003f2506 	br	1002f58 <_dtoa_r+0x7bc>
 10032c4:	00c04074 	movhi	r3,257
 10032c8:	18f52604 	addi	r3,r3,-11112
 10032cc:	003d6706 	br	100286c <_dtoa_r+0xd0>
 10032d0:	dd800517 	ldw	r22,20(sp)
 10032d4:	04000044 	movi	r16,1
 10032d8:	00000706 	br	10032f8 <_dtoa_r+0xb5c>
 10032dc:	d9400717 	ldw	r5,28(sp)
 10032e0:	d9001617 	ldw	r4,88(sp)
 10032e4:	01800284 	movi	r6,10
 10032e8:	000f883a 	mov	r7,zero
 10032ec:	10066840 	call	1006684 <__multadd>
 10032f0:	d8800715 	stw	r2,28(sp)
 10032f4:	84000044 	addi	r16,r16,1
 10032f8:	d9000717 	ldw	r4,28(sp)
 10032fc:	900b883a 	mov	r5,r18
 1003300:	10025580 	call	1002558 <quorem>
 1003304:	15c00c04 	addi	r23,r2,48
 1003308:	b5c00005 	stb	r23,0(r22)
 100330c:	d8c00f17 	ldw	r3,60(sp)
 1003310:	b5800044 	addi	r22,r22,1
 1003314:	80fff116 	blt	r16,r3,10032dc <_dtoa_r+0xb40>
 1003318:	d8000615 	stw	zero,24(sp)
 100331c:	d9400717 	ldw	r5,28(sp)
 1003320:	d9001617 	ldw	r4,88(sp)
 1003324:	01800044 	movi	r6,1
 1003328:	10062a80 	call	10062a8 <__lshift>
 100332c:	1009883a 	mov	r4,r2
 1003330:	900b883a 	mov	r5,r18
 1003334:	d8800715 	stw	r2,28(sp)
 1003338:	1005ac00 	call	1005ac0 <__mcmp>
 100333c:	00803c0e 	bge	zero,r2,1003430 <_dtoa_r+0xc94>
 1003340:	b009883a 	mov	r4,r22
 1003344:	213fffc4 	addi	r4,r4,-1
 1003348:	21400003 	ldbu	r5,0(r4)
 100334c:	00800e44 	movi	r2,57
 1003350:	28c03fcc 	andi	r3,r5,255
 1003354:	18c0201c 	xori	r3,r3,128
 1003358:	18ffe004 	addi	r3,r3,-128
 100335c:	1881981e 	bne	r3,r2,10039c0 <_dtoa_r+0x1224>
 1003360:	d9800517 	ldw	r6,20(sp)
 1003364:	21bff71e 	bne	r4,r6,1003344 <_dtoa_r+0xba8>
 1003368:	d8800d17 	ldw	r2,52(sp)
 100336c:	37000044 	addi	fp,r6,1
 1003370:	10800044 	addi	r2,r2,1
 1003374:	d8800d15 	stw	r2,52(sp)
 1003378:	00800c44 	movi	r2,49
 100337c:	30800005 	stb	r2,0(r6)
 1003380:	d9001617 	ldw	r4,88(sp)
 1003384:	900b883a 	mov	r5,r18
 1003388:	10059640 	call	1005964 <_Bfree>
 100338c:	983ecd26 	beq	r19,zero,1002ec4 <_dtoa_r+0x728>
 1003390:	d8c00617 	ldw	r3,24(sp)
 1003394:	18000426 	beq	r3,zero,10033a8 <_dtoa_r+0xc0c>
 1003398:	1cc00326 	beq	r3,r19,10033a8 <_dtoa_r+0xc0c>
 100339c:	d9001617 	ldw	r4,88(sp)
 10033a0:	180b883a 	mov	r5,r3
 10033a4:	10059640 	call	1005964 <_Bfree>
 10033a8:	d9001617 	ldw	r4,88(sp)
 10033ac:	980b883a 	mov	r5,r19
 10033b0:	10059640 	call	1005964 <_Bfree>
 10033b4:	003ec306 	br	1002ec4 <_dtoa_r+0x728>
 10033b8:	1805883a 	mov	r2,r3
 10033bc:	003eeb06 	br	1002f6c <_dtoa_r+0x7d0>
 10033c0:	d9800a17 	ldw	r6,40(sp)
 10033c4:	d8c01117 	ldw	r3,68(sp)
 10033c8:	20bfff04 	addi	r2,r4,-4
 10033cc:	308d883a 	add	r6,r6,r2
 10033d0:	1887883a 	add	r3,r3,r2
 10033d4:	80a1883a 	add	r16,r16,r2
 10033d8:	d9800a15 	stw	r6,40(sp)
 10033dc:	d8c01115 	stw	r3,68(sp)
 10033e0:	003f1d06 	br	1003058 <_dtoa_r+0x8bc>
 10033e4:	a03f0c1e 	bne	r20,zero,1003018 <_dtoa_r+0x87c>
 10033e8:	00800434 	movhi	r2,16
 10033ec:	10bfffc4 	addi	r2,r2,-1
 10033f0:	a884703a 	and	r2,r21,r2
 10033f4:	103f081e 	bne	r2,zero,1003018 <_dtoa_r+0x87c>
 10033f8:	a89ffc2c 	andhi	r2,r21,32752
 10033fc:	103f0626 	beq	r2,zero,1003018 <_dtoa_r+0x87c>
 1003400:	d8c01117 	ldw	r3,68(sp)
 1003404:	d9000a17 	ldw	r4,40(sp)
 1003408:	18c00044 	addi	r3,r3,1
 100340c:	21000044 	addi	r4,r4,1
 1003410:	d8c01115 	stw	r3,68(sp)
 1003414:	d9000a15 	stw	r4,40(sp)
 1003418:	003f0006 	br	100301c <_dtoa_r+0x880>
 100341c:	d9400717 	ldw	r5,28(sp)
 1003420:	d9001617 	ldw	r4,88(sp)
 1003424:	10067b00 	call	10067b0 <__pow5mult>
 1003428:	d8800715 	stw	r2,28(sp)
 100342c:	003eed06 	br	1002fe4 <_dtoa_r+0x848>
 1003430:	1000021e 	bne	r2,zero,100343c <_dtoa_r+0xca0>
 1003434:	b880004c 	andi	r2,r23,1
 1003438:	103fc11e 	bne	r2,zero,1003340 <_dtoa_r+0xba4>
 100343c:	b5bfffc4 	addi	r22,r22,-1
 1003440:	b0c00007 	ldb	r3,0(r22)
 1003444:	00800c04 	movi	r2,48
 1003448:	18bffc26 	beq	r3,r2,100343c <_dtoa_r+0xca0>
 100344c:	b7000044 	addi	fp,r22,1
 1003450:	003fcb06 	br	1003380 <_dtoa_r+0xbe4>
 1003454:	d9800d17 	ldw	r6,52(sp)
 1003458:	018fc83a 	sub	r7,zero,r6
 100345c:	3801f726 	beq	r7,zero,1003c3c <_dtoa_r+0x14a0>
 1003460:	398003cc 	andi	r6,r7,15
 1003464:	300c90fa 	slli	r6,r6,3
 1003468:	01404074 	movhi	r5,257
 100346c:	29754404 	addi	r5,r5,-10992
 1003470:	d9001217 	ldw	r4,72(sp)
 1003474:	314d883a 	add	r6,r6,r5
 1003478:	30c00117 	ldw	r3,4(r6)
 100347c:	30800017 	ldw	r2,0(r6)
 1003480:	d9401317 	ldw	r5,76(sp)
 1003484:	3821d13a 	srai	r16,r7,4
 1003488:	100d883a 	mov	r6,r2
 100348c:	180f883a 	mov	r7,r3
 1003490:	10089b80 	call	10089b8 <__muldf3>
 1003494:	1011883a 	mov	r8,r2
 1003498:	1813883a 	mov	r9,r3
 100349c:	1029883a 	mov	r20,r2
 10034a0:	182b883a 	mov	r21,r3
 10034a4:	8001e526 	beq	r16,zero,1003c3c <_dtoa_r+0x14a0>
 10034a8:	05800084 	movi	r22,2
 10034ac:	04404074 	movhi	r17,257
 10034b0:	8c757604 	addi	r17,r17,-10792
 10034b4:	8080004c 	andi	r2,r16,1
 10034b8:	1005003a 	cmpeq	r2,r2,zero
 10034bc:	1000081e 	bne	r2,zero,10034e0 <_dtoa_r+0xd44>
 10034c0:	89800017 	ldw	r6,0(r17)
 10034c4:	89c00117 	ldw	r7,4(r17)
 10034c8:	480b883a 	mov	r5,r9
 10034cc:	4009883a 	mov	r4,r8
 10034d0:	10089b80 	call	10089b8 <__muldf3>
 10034d4:	1011883a 	mov	r8,r2
 10034d8:	b5800044 	addi	r22,r22,1
 10034dc:	1813883a 	mov	r9,r3
 10034e0:	8021d07a 	srai	r16,r16,1
 10034e4:	8c400204 	addi	r17,r17,8
 10034e8:	803ff21e 	bne	r16,zero,10034b4 <_dtoa_r+0xd18>
 10034ec:	4029883a 	mov	r20,r8
 10034f0:	482b883a 	mov	r21,r9
 10034f4:	003dca06 	br	1002c20 <_dtoa_r+0x484>
 10034f8:	d9000817 	ldw	r4,32(sp)
 10034fc:	2005003a 	cmpeq	r2,r4,zero
 1003500:	1001f61e 	bne	r2,zero,1003cdc <_dtoa_r+0x1540>
 1003504:	dc001117 	ldw	r16,68(sp)
 1003508:	dc801017 	ldw	r18,64(sp)
 100350c:	18c10cc4 	addi	r3,r3,1075
 1003510:	003f6106 	br	1003298 <_dtoa_r+0xafc>
 1003514:	d8000b15 	stw	zero,44(sp)
 1003518:	d9802617 	ldw	r6,152(sp)
 100351c:	d8c00d17 	ldw	r3,52(sp)
 1003520:	30800044 	addi	r2,r6,1
 1003524:	18ad883a 	add	r22,r3,r2
 1003528:	b13fffc4 	addi	r4,r22,-1
 100352c:	d9000e15 	stw	r4,56(sp)
 1003530:	0581f60e 	bge	zero,r22,1003d0c <_dtoa_r+0x1570>
 1003534:	dd800f15 	stw	r22,60(sp)
 1003538:	003f3006 	br	10031fc <_dtoa_r+0xa60>
 100353c:	d8000b15 	stw	zero,44(sp)
 1003540:	d9002617 	ldw	r4,152(sp)
 1003544:	0101eb0e 	bge	zero,r4,1003cf4 <_dtoa_r+0x1558>
 1003548:	202d883a 	mov	r22,r4
 100354c:	d9000e15 	stw	r4,56(sp)
 1003550:	d9000f15 	stw	r4,60(sp)
 1003554:	003f2906 	br	10031fc <_dtoa_r+0xa60>
 1003558:	01800044 	movi	r6,1
 100355c:	d9800b15 	stw	r6,44(sp)
 1003560:	003ff706 	br	1003540 <_dtoa_r+0xda4>
 1003564:	01000044 	movi	r4,1
 1003568:	d9000b15 	stw	r4,44(sp)
 100356c:	003fea06 	br	1003518 <_dtoa_r+0xd7c>
 1003570:	04000c0e 	bge	zero,r16,10035a4 <_dtoa_r+0xe08>
 1003574:	d9400717 	ldw	r5,28(sp)
 1003578:	d9001617 	ldw	r4,88(sp)
 100357c:	01800044 	movi	r6,1
 1003580:	10062a80 	call	10062a8 <__lshift>
 1003584:	1009883a 	mov	r4,r2
 1003588:	900b883a 	mov	r5,r18
 100358c:	d8800715 	stw	r2,28(sp)
 1003590:	1005ac00 	call	1005ac0 <__mcmp>
 1003594:	0081e00e 	bge	zero,r2,1003d18 <_dtoa_r+0x157c>
 1003598:	bdc00044 	addi	r23,r23,1
 100359c:	00800e84 	movi	r2,58
 10035a0:	b881a226 	beq	r23,r2,1003c2c <_dtoa_r+0x1490>
 10035a4:	b7000044 	addi	fp,r22,1
 10035a8:	b5c00005 	stb	r23,0(r22)
 10035ac:	003f7406 	br	1003380 <_dtoa_r+0xbe4>
 10035b0:	00800e44 	movi	r2,57
 10035b4:	b8819d26 	beq	r23,r2,1003c2c <_dtoa_r+0x1490>
 10035b8:	053ffa0e 	bge	zero,r20,10035a4 <_dtoa_r+0xe08>
 10035bc:	8dc00c44 	addi	r23,r17,49
 10035c0:	003ff806 	br	10035a4 <_dtoa_r+0xe08>
 10035c4:	d9001617 	ldw	r4,88(sp)
 10035c8:	a80b883a 	mov	r5,r21
 10035cc:	04000044 	movi	r16,1
 10035d0:	10059640 	call	1005964 <_Bfree>
 10035d4:	003edf06 	br	1003154 <_dtoa_r+0x9b8>
 10035d8:	d9001617 	ldw	r4,88(sp)
 10035dc:	980b883a 	mov	r5,r19
 10035e0:	01800284 	movi	r6,10
 10035e4:	000f883a 	mov	r7,zero
 10035e8:	10066840 	call	1006684 <__multadd>
 10035ec:	1027883a 	mov	r19,r2
 10035f0:	d8800615 	stw	r2,24(sp)
 10035f4:	003ebb06 	br	10030e4 <_dtoa_r+0x948>
 10035f8:	d9801117 	ldw	r6,68(sp)
 10035fc:	d8800d17 	ldw	r2,52(sp)
 1003600:	d8000915 	stw	zero,36(sp)
 1003604:	308dc83a 	sub	r6,r6,r2
 1003608:	0087c83a 	sub	r3,zero,r2
 100360c:	d9801115 	stw	r6,68(sp)
 1003610:	d8c01015 	stw	r3,64(sp)
 1003614:	003cfe06 	br	1002a10 <_dtoa_r+0x274>
 1003618:	018dc83a 	sub	r6,zero,r6
 100361c:	d9801115 	stw	r6,68(sp)
 1003620:	d8000a15 	stw	zero,40(sp)
 1003624:	003cf306 	br	10029f4 <_dtoa_r+0x258>
 1003628:	d9000d17 	ldw	r4,52(sp)
 100362c:	100927c0 	call	100927c <__floatsidf>
 1003630:	880b883a 	mov	r5,r17
 1003634:	8009883a 	mov	r4,r16
 1003638:	180f883a 	mov	r7,r3
 100363c:	100d883a 	mov	r6,r2
 1003640:	100905c0 	call	100905c <__nedf2>
 1003644:	103ce126 	beq	r2,zero,10029cc <_dtoa_r+0x230>
 1003648:	d9800d17 	ldw	r6,52(sp)
 100364c:	31bfffc4 	addi	r6,r6,-1
 1003650:	d9800d15 	stw	r6,52(sp)
 1003654:	003cdd06 	br	10029cc <_dtoa_r+0x230>
 1003658:	d9000717 	ldw	r4,28(sp)
 100365c:	900b883a 	mov	r5,r18
 1003660:	1005ac00 	call	1005ac0 <__mcmp>
 1003664:	103e8d0e 	bge	r2,zero,100309c <_dtoa_r+0x900>
 1003668:	d9400717 	ldw	r5,28(sp)
 100366c:	d9001617 	ldw	r4,88(sp)
 1003670:	01800284 	movi	r6,10
 1003674:	000f883a 	mov	r7,zero
 1003678:	10066840 	call	1006684 <__multadd>
 100367c:	d9800d17 	ldw	r6,52(sp)
 1003680:	d8800715 	stw	r2,28(sp)
 1003684:	31bfffc4 	addi	r6,r6,-1
 1003688:	d9800d15 	stw	r6,52(sp)
 100368c:	b001a71e 	bne	r22,zero,1003d2c <_dtoa_r+0x1590>
 1003690:	d8800e17 	ldw	r2,56(sp)
 1003694:	d8800f15 	stw	r2,60(sp)
 1003698:	003e8006 	br	100309c <_dtoa_r+0x900>
 100369c:	90800417 	ldw	r2,16(r18)
 10036a0:	1085883a 	add	r2,r2,r2
 10036a4:	1085883a 	add	r2,r2,r2
 10036a8:	1485883a 	add	r2,r2,r18
 10036ac:	11000417 	ldw	r4,16(r2)
 10036b0:	100598c0 	call	100598c <__hi0bits>
 10036b4:	00c00804 	movi	r3,32
 10036b8:	1887c83a 	sub	r3,r3,r2
 10036bc:	003e5a06 	br	1003028 <_dtoa_r+0x88c>
 10036c0:	d9400717 	ldw	r5,28(sp)
 10036c4:	d9801017 	ldw	r6,64(sp)
 10036c8:	d9001617 	ldw	r4,88(sp)
 10036cc:	10067b00 	call	10067b0 <__pow5mult>
 10036d0:	d8800715 	stw	r2,28(sp)
 10036d4:	003e4306 	br	1002fe4 <_dtoa_r+0x848>
 10036d8:	d9800f17 	ldw	r6,60(sp)
 10036dc:	d8800d17 	ldw	r2,52(sp)
 10036e0:	d9800315 	stw	r6,12(sp)
 10036e4:	d8800415 	stw	r2,16(sp)
 10036e8:	d8c00b17 	ldw	r3,44(sp)
 10036ec:	1805003a 	cmpeq	r2,r3,zero
 10036f0:	1000e21e 	bne	r2,zero,1003a7c <_dtoa_r+0x12e0>
 10036f4:	d9000317 	ldw	r4,12(sp)
 10036f8:	0005883a 	mov	r2,zero
 10036fc:	00cff834 	movhi	r3,16352
 1003700:	200c90fa 	slli	r6,r4,3
 1003704:	01004074 	movhi	r4,257
 1003708:	21354404 	addi	r4,r4,-10992
 100370c:	180b883a 	mov	r5,r3
 1003710:	310d883a 	add	r6,r6,r4
 1003714:	327fff17 	ldw	r9,-4(r6)
 1003718:	323ffe17 	ldw	r8,-8(r6)
 100371c:	1009883a 	mov	r4,r2
 1003720:	480f883a 	mov	r7,r9
 1003724:	400d883a 	mov	r6,r8
 1003728:	1008d7c0 	call	1008d7c <__divdf3>
 100372c:	180b883a 	mov	r5,r3
 1003730:	b00d883a 	mov	r6,r22
 1003734:	b80f883a 	mov	r7,r23
 1003738:	1009883a 	mov	r4,r2
 100373c:	10088c40 	call	10088c4 <__subdf3>
 1003740:	a80b883a 	mov	r5,r21
 1003744:	a009883a 	mov	r4,r20
 1003748:	d8c01915 	stw	r3,100(sp)
 100374c:	d8801815 	stw	r2,96(sp)
 1003750:	10093740 	call	1009374 <__fixdfsi>
 1003754:	1009883a 	mov	r4,r2
 1003758:	1027883a 	mov	r19,r2
 100375c:	100927c0 	call	100927c <__floatsidf>
 1003760:	a80b883a 	mov	r5,r21
 1003764:	a009883a 	mov	r4,r20
 1003768:	180f883a 	mov	r7,r3
 100376c:	100d883a 	mov	r6,r2
 1003770:	10088c40 	call	10088c4 <__subdf3>
 1003774:	d9801817 	ldw	r6,96(sp)
 1003778:	1823883a 	mov	r17,r3
 100377c:	d8801415 	stw	r2,80(sp)
 1003780:	302d883a 	mov	r22,r6
 1003784:	d9800517 	ldw	r6,20(sp)
 1003788:	9cc00c04 	addi	r19,r19,48
 100378c:	dc401515 	stw	r17,84(sp)
 1003790:	d8c01917 	ldw	r3,100(sp)
 1003794:	34c00005 	stb	r19,0(r6)
 1003798:	d8800517 	ldw	r2,20(sp)
 100379c:	d9401917 	ldw	r5,100(sp)
 10037a0:	d9801417 	ldw	r6,80(sp)
 10037a4:	b009883a 	mov	r4,r22
 10037a8:	880f883a 	mov	r7,r17
 10037ac:	182f883a 	mov	r23,r3
 10037b0:	17000044 	addi	fp,r2,1
 10037b4:	10090e40 	call	10090e4 <__gtdf2>
 10037b8:	00804e16 	blt	zero,r2,10038f4 <_dtoa_r+0x1158>
 10037bc:	d9801417 	ldw	r6,80(sp)
 10037c0:	0005883a 	mov	r2,zero
 10037c4:	00cffc34 	movhi	r3,16368
 10037c8:	180b883a 	mov	r5,r3
 10037cc:	880f883a 	mov	r7,r17
 10037d0:	1009883a 	mov	r4,r2
 10037d4:	10088c40 	call	10088c4 <__subdf3>
 10037d8:	d9401917 	ldw	r5,100(sp)
 10037dc:	180f883a 	mov	r7,r3
 10037e0:	b009883a 	mov	r4,r22
 10037e4:	100d883a 	mov	r6,r2
 10037e8:	10090e40 	call	10090e4 <__gtdf2>
 10037ec:	00bda216 	blt	zero,r2,1002e78 <_dtoa_r+0x6dc>
 10037f0:	d8c00317 	ldw	r3,12(sp)
 10037f4:	00800044 	movi	r2,1
 10037f8:	10c01216 	blt	r2,r3,1003844 <_dtoa_r+0x10a8>
 10037fc:	003d4506 	br	1002d14 <_dtoa_r+0x578>
 1003800:	d9801417 	ldw	r6,80(sp)
 1003804:	0005883a 	mov	r2,zero
 1003808:	00cffc34 	movhi	r3,16368
 100380c:	180b883a 	mov	r5,r3
 1003810:	880f883a 	mov	r7,r17
 1003814:	1009883a 	mov	r4,r2
 1003818:	10088c40 	call	10088c4 <__subdf3>
 100381c:	d9c01b17 	ldw	r7,108(sp)
 1003820:	180b883a 	mov	r5,r3
 1003824:	1009883a 	mov	r4,r2
 1003828:	b00d883a 	mov	r6,r22
 100382c:	10091f40 	call	10091f4 <__ltdf2>
 1003830:	103d9116 	blt	r2,zero,1002e78 <_dtoa_r+0x6dc>
 1003834:	d9800517 	ldw	r6,20(sp)
 1003838:	d9000317 	ldw	r4,12(sp)
 100383c:	3105883a 	add	r2,r6,r4
 1003840:	e0bd3426 	beq	fp,r2,1002d14 <_dtoa_r+0x578>
 1003844:	04500934 	movhi	r17,16420
 1003848:	0021883a 	mov	r16,zero
 100384c:	b80b883a 	mov	r5,r23
 1003850:	b009883a 	mov	r4,r22
 1003854:	800d883a 	mov	r6,r16
 1003858:	880f883a 	mov	r7,r17
 100385c:	10089b80 	call	10089b8 <__muldf3>
 1003860:	d9401517 	ldw	r5,84(sp)
 1003864:	d9001417 	ldw	r4,80(sp)
 1003868:	880f883a 	mov	r7,r17
 100386c:	000d883a 	mov	r6,zero
 1003870:	d8801a15 	stw	r2,104(sp)
 1003874:	d8c01b15 	stw	r3,108(sp)
 1003878:	10089b80 	call	10089b8 <__muldf3>
 100387c:	180b883a 	mov	r5,r3
 1003880:	1009883a 	mov	r4,r2
 1003884:	1823883a 	mov	r17,r3
 1003888:	1021883a 	mov	r16,r2
 100388c:	10093740 	call	1009374 <__fixdfsi>
 1003890:	1009883a 	mov	r4,r2
 1003894:	102b883a 	mov	r21,r2
 1003898:	100927c0 	call	100927c <__floatsidf>
 100389c:	880b883a 	mov	r5,r17
 10038a0:	8009883a 	mov	r4,r16
 10038a4:	180f883a 	mov	r7,r3
 10038a8:	100d883a 	mov	r6,r2
 10038ac:	10088c40 	call	10088c4 <__subdf3>
 10038b0:	1021883a 	mov	r16,r2
 10038b4:	d9001b17 	ldw	r4,108(sp)
 10038b8:	1823883a 	mov	r17,r3
 10038bc:	dc001415 	stw	r16,80(sp)
 10038c0:	ad400c04 	addi	r21,r21,48
 10038c4:	dc401515 	stw	r17,84(sp)
 10038c8:	d8801a17 	ldw	r2,104(sp)
 10038cc:	e5400005 	stb	r21,0(fp)
 10038d0:	202f883a 	mov	r23,r4
 10038d4:	d9c01b17 	ldw	r7,108(sp)
 10038d8:	d9001417 	ldw	r4,80(sp)
 10038dc:	880b883a 	mov	r5,r17
 10038e0:	100d883a 	mov	r6,r2
 10038e4:	102d883a 	mov	r22,r2
 10038e8:	e7000044 	addi	fp,fp,1
 10038ec:	10091f40 	call	10091f4 <__ltdf2>
 10038f0:	103fc30e 	bge	r2,zero,1003800 <_dtoa_r+0x1064>
 10038f4:	d9000417 	ldw	r4,16(sp)
 10038f8:	d9000d15 	stw	r4,52(sp)
 10038fc:	003d7106 	br	1002ec4 <_dtoa_r+0x728>
 1003900:	d9801717 	ldw	r6,92(sp)
 1003904:	00800084 	movi	r2,2
 1003908:	11bde60e 	bge	r2,r6,10030a4 <_dtoa_r+0x908>
 100390c:	203cfb1e 	bne	r4,zero,1002cfc <_dtoa_r+0x560>
 1003910:	d9001617 	ldw	r4,88(sp)
 1003914:	900b883a 	mov	r5,r18
 1003918:	01800144 	movi	r6,5
 100391c:	000f883a 	mov	r7,zero
 1003920:	10066840 	call	1006684 <__multadd>
 1003924:	d9000717 	ldw	r4,28(sp)
 1003928:	100b883a 	mov	r5,r2
 100392c:	1025883a 	mov	r18,r2
 1003930:	1005ac00 	call	1005ac0 <__mcmp>
 1003934:	00bcf10e 	bge	zero,r2,1002cfc <_dtoa_r+0x560>
 1003938:	d8c00d17 	ldw	r3,52(sp)
 100393c:	d9000517 	ldw	r4,20(sp)
 1003940:	d8000615 	stw	zero,24(sp)
 1003944:	18c00044 	addi	r3,r3,1
 1003948:	d8c00d15 	stw	r3,52(sp)
 100394c:	00800c44 	movi	r2,49
 1003950:	27000044 	addi	fp,r4,1
 1003954:	20800005 	stb	r2,0(r4)
 1003958:	003e8906 	br	1003380 <_dtoa_r+0xbe4>
 100395c:	d8c00517 	ldw	r3,20(sp)
 1003960:	003bc206 	br	100286c <_dtoa_r+0xd0>
 1003964:	01804074 	movhi	r6,257
 1003968:	31b57604 	addi	r6,r6,-10792
 100396c:	30c00917 	ldw	r3,36(r6)
 1003970:	30800817 	ldw	r2,32(r6)
 1003974:	d9001217 	ldw	r4,72(sp)
 1003978:	d9401317 	ldw	r5,76(sp)
 100397c:	180f883a 	mov	r7,r3
 1003980:	100d883a 	mov	r6,r2
 1003984:	1008d7c0 	call	1008d7c <__divdf3>
 1003988:	948003cc 	andi	r18,r18,15
 100398c:	058000c4 	movi	r22,3
 1003990:	1029883a 	mov	r20,r2
 1003994:	182b883a 	mov	r21,r3
 1003998:	003c8906 	br	1002bc0 <_dtoa_r+0x424>
 100399c:	d9001017 	ldw	r4,64(sp)
 10039a0:	d9800917 	ldw	r6,36(sp)
 10039a4:	0025883a 	mov	r18,zero
 10039a8:	1105c83a 	sub	r2,r2,r4
 10039ac:	2089883a 	add	r4,r4,r2
 10039b0:	308d883a 	add	r6,r6,r2
 10039b4:	d9001015 	stw	r4,64(sp)
 10039b8:	d9800915 	stw	r6,36(sp)
 10039bc:	003e3206 	br	1003288 <_dtoa_r+0xaec>
 10039c0:	28800044 	addi	r2,r5,1
 10039c4:	27000044 	addi	fp,r4,1
 10039c8:	20800005 	stb	r2,0(r4)
 10039cc:	003e6c06 	br	1003380 <_dtoa_r+0xbe4>
 10039d0:	d8800f17 	ldw	r2,60(sp)
 10039d4:	00bce016 	blt	zero,r2,1002d58 <_dtoa_r+0x5bc>
 10039d8:	d9800f17 	ldw	r6,60(sp)
 10039dc:	303cc51e 	bne	r6,zero,1002cf4 <_dtoa_r+0x558>
 10039e0:	0005883a 	mov	r2,zero
 10039e4:	00d00534 	movhi	r3,16404
 10039e8:	980b883a 	mov	r5,r19
 10039ec:	180f883a 	mov	r7,r3
 10039f0:	9009883a 	mov	r4,r18
 10039f4:	100d883a 	mov	r6,r2
 10039f8:	10089b80 	call	10089b8 <__muldf3>
 10039fc:	180b883a 	mov	r5,r3
 1003a00:	a80f883a 	mov	r7,r21
 1003a04:	1009883a 	mov	r4,r2
 1003a08:	a00d883a 	mov	r6,r20
 1003a0c:	100916c0 	call	100916c <__gedf2>
 1003a10:	103cb80e 	bge	r2,zero,1002cf4 <_dtoa_r+0x558>
 1003a14:	0027883a 	mov	r19,zero
 1003a18:	0025883a 	mov	r18,zero
 1003a1c:	003fc606 	br	1003938 <_dtoa_r+0x119c>
 1003a20:	99400117 	ldw	r5,4(r19)
 1003a24:	d9001617 	ldw	r4,88(sp)
 1003a28:	1005ee40 	call	1005ee4 <_Balloc>
 1003a2c:	99800417 	ldw	r6,16(r19)
 1003a30:	11000304 	addi	r4,r2,12
 1003a34:	99400304 	addi	r5,r19,12
 1003a38:	318d883a 	add	r6,r6,r6
 1003a3c:	318d883a 	add	r6,r6,r6
 1003a40:	31800204 	addi	r6,r6,8
 1003a44:	1023883a 	mov	r17,r2
 1003a48:	100574c0 	call	100574c <memcpy>
 1003a4c:	d9001617 	ldw	r4,88(sp)
 1003a50:	880b883a 	mov	r5,r17
 1003a54:	01800044 	movi	r6,1
 1003a58:	10062a80 	call	10062a8 <__lshift>
 1003a5c:	100b883a 	mov	r5,r2
 1003a60:	003d9c06 	br	10030d4 <_dtoa_r+0x938>
 1003a64:	00800e44 	movi	r2,57
 1003a68:	b8807026 	beq	r23,r2,1003c2c <_dtoa_r+0x1490>
 1003a6c:	b8800044 	addi	r2,r23,1
 1003a70:	b7000044 	addi	fp,r22,1
 1003a74:	b0800005 	stb	r2,0(r22)
 1003a78:	003e4106 	br	1003380 <_dtoa_r+0xbe4>
 1003a7c:	d8800317 	ldw	r2,12(sp)
 1003a80:	01804074 	movhi	r6,257
 1003a84:	31b54404 	addi	r6,r6,-10992
 1003a88:	b009883a 	mov	r4,r22
 1003a8c:	100e90fa 	slli	r7,r2,3
 1003a90:	b80b883a 	mov	r5,r23
 1003a94:	398f883a 	add	r7,r7,r6
 1003a98:	38bffe17 	ldw	r2,-8(r7)
 1003a9c:	d9800517 	ldw	r6,20(sp)
 1003aa0:	38ffff17 	ldw	r3,-4(r7)
 1003aa4:	37000044 	addi	fp,r6,1
 1003aa8:	180f883a 	mov	r7,r3
 1003aac:	100d883a 	mov	r6,r2
 1003ab0:	10089b80 	call	10089b8 <__muldf3>
 1003ab4:	a80b883a 	mov	r5,r21
 1003ab8:	a009883a 	mov	r4,r20
 1003abc:	182f883a 	mov	r23,r3
 1003ac0:	102d883a 	mov	r22,r2
 1003ac4:	10093740 	call	1009374 <__fixdfsi>
 1003ac8:	1009883a 	mov	r4,r2
 1003acc:	1027883a 	mov	r19,r2
 1003ad0:	100927c0 	call	100927c <__floatsidf>
 1003ad4:	a80b883a 	mov	r5,r21
 1003ad8:	a009883a 	mov	r4,r20
 1003adc:	180f883a 	mov	r7,r3
 1003ae0:	100d883a 	mov	r6,r2
 1003ae4:	10088c40 	call	10088c4 <__subdf3>
 1003ae8:	180b883a 	mov	r5,r3
 1003aec:	d8c00517 	ldw	r3,20(sp)
 1003af0:	9cc00c04 	addi	r19,r19,48
 1003af4:	1009883a 	mov	r4,r2
 1003af8:	1cc00005 	stb	r19,0(r3)
 1003afc:	2021883a 	mov	r16,r4
 1003b00:	d9000317 	ldw	r4,12(sp)
 1003b04:	00800044 	movi	r2,1
 1003b08:	2823883a 	mov	r17,r5
 1003b0c:	20802226 	beq	r4,r2,1003b98 <_dtoa_r+0x13fc>
 1003b10:	1029883a 	mov	r20,r2
 1003b14:	0005883a 	mov	r2,zero
 1003b18:	00d00934 	movhi	r3,16420
 1003b1c:	180f883a 	mov	r7,r3
 1003b20:	100d883a 	mov	r6,r2
 1003b24:	880b883a 	mov	r5,r17
 1003b28:	8009883a 	mov	r4,r16
 1003b2c:	10089b80 	call	10089b8 <__muldf3>
 1003b30:	180b883a 	mov	r5,r3
 1003b34:	1009883a 	mov	r4,r2
 1003b38:	1823883a 	mov	r17,r3
 1003b3c:	1021883a 	mov	r16,r2
 1003b40:	10093740 	call	1009374 <__fixdfsi>
 1003b44:	1009883a 	mov	r4,r2
 1003b48:	102b883a 	mov	r21,r2
 1003b4c:	100927c0 	call	100927c <__floatsidf>
 1003b50:	880b883a 	mov	r5,r17
 1003b54:	8009883a 	mov	r4,r16
 1003b58:	180f883a 	mov	r7,r3
 1003b5c:	100d883a 	mov	r6,r2
 1003b60:	10088c40 	call	10088c4 <__subdf3>
 1003b64:	180b883a 	mov	r5,r3
 1003b68:	d8c00517 	ldw	r3,20(sp)
 1003b6c:	1009883a 	mov	r4,r2
 1003b70:	ad400c04 	addi	r21,r21,48
 1003b74:	1d05883a 	add	r2,r3,r20
 1003b78:	15400005 	stb	r21,0(r2)
 1003b7c:	2021883a 	mov	r16,r4
 1003b80:	d9000317 	ldw	r4,12(sp)
 1003b84:	a5000044 	addi	r20,r20,1
 1003b88:	2823883a 	mov	r17,r5
 1003b8c:	a13fe11e 	bne	r20,r4,1003b14 <_dtoa_r+0x1378>
 1003b90:	e505883a 	add	r2,fp,r20
 1003b94:	173fffc4 	addi	fp,r2,-1
 1003b98:	0025883a 	mov	r18,zero
 1003b9c:	04cff834 	movhi	r19,16352
 1003ba0:	b009883a 	mov	r4,r22
 1003ba4:	b80b883a 	mov	r5,r23
 1003ba8:	900d883a 	mov	r6,r18
 1003bac:	980f883a 	mov	r7,r19
 1003bb0:	10089440 	call	1008944 <__adddf3>
 1003bb4:	180b883a 	mov	r5,r3
 1003bb8:	1009883a 	mov	r4,r2
 1003bbc:	800d883a 	mov	r6,r16
 1003bc0:	880f883a 	mov	r7,r17
 1003bc4:	10091f40 	call	10091f4 <__ltdf2>
 1003bc8:	103cab16 	blt	r2,zero,1002e78 <_dtoa_r+0x6dc>
 1003bcc:	0009883a 	mov	r4,zero
 1003bd0:	980b883a 	mov	r5,r19
 1003bd4:	b80f883a 	mov	r7,r23
 1003bd8:	b00d883a 	mov	r6,r22
 1003bdc:	10088c40 	call	10088c4 <__subdf3>
 1003be0:	180b883a 	mov	r5,r3
 1003be4:	880f883a 	mov	r7,r17
 1003be8:	1009883a 	mov	r4,r2
 1003bec:	800d883a 	mov	r6,r16
 1003bf0:	10090e40 	call	10090e4 <__gtdf2>
 1003bf4:	00bc470e 	bge	zero,r2,1002d14 <_dtoa_r+0x578>
 1003bf8:	00c00c04 	movi	r3,48
 1003bfc:	e73fffc4 	addi	fp,fp,-1
 1003c00:	e0800007 	ldb	r2,0(fp)
 1003c04:	10fffd26 	beq	r2,r3,1003bfc <_dtoa_r+0x1460>
 1003c08:	d9800417 	ldw	r6,16(sp)
 1003c0c:	e7000044 	addi	fp,fp,1
 1003c10:	d9800d15 	stw	r6,52(sp)
 1003c14:	003cab06 	br	1002ec4 <_dtoa_r+0x728>
 1003c18:	d8c00f17 	ldw	r3,60(sp)
 1003c1c:	d9001117 	ldw	r4,68(sp)
 1003c20:	20e1c83a 	sub	r16,r4,r3
 1003c24:	0007883a 	mov	r3,zero
 1003c28:	003d9b06 	br	1003298 <_dtoa_r+0xafc>
 1003c2c:	00800e44 	movi	r2,57
 1003c30:	b0800005 	stb	r2,0(r22)
 1003c34:	b5800044 	addi	r22,r22,1
 1003c38:	003dc106 	br	1003340 <_dtoa_r+0xba4>
 1003c3c:	05800084 	movi	r22,2
 1003c40:	003bf706 	br	1002c20 <_dtoa_r+0x484>
 1003c44:	d9000f17 	ldw	r4,60(sp)
 1003c48:	013c000e 	bge	zero,r4,1002c4c <_dtoa_r+0x4b0>
 1003c4c:	d9800e17 	ldw	r6,56(sp)
 1003c50:	01bc300e 	bge	zero,r6,1002d14 <_dtoa_r+0x578>
 1003c54:	0005883a 	mov	r2,zero
 1003c58:	00d00934 	movhi	r3,16420
 1003c5c:	a80b883a 	mov	r5,r21
 1003c60:	180f883a 	mov	r7,r3
 1003c64:	a009883a 	mov	r4,r20
 1003c68:	100d883a 	mov	r6,r2
 1003c6c:	10089b80 	call	10089b8 <__muldf3>
 1003c70:	b1000044 	addi	r4,r22,1
 1003c74:	1021883a 	mov	r16,r2
 1003c78:	1823883a 	mov	r17,r3
 1003c7c:	100927c0 	call	100927c <__floatsidf>
 1003c80:	880b883a 	mov	r5,r17
 1003c84:	8009883a 	mov	r4,r16
 1003c88:	180f883a 	mov	r7,r3
 1003c8c:	100d883a 	mov	r6,r2
 1003c90:	10089b80 	call	10089b8 <__muldf3>
 1003c94:	0011883a 	mov	r8,zero
 1003c98:	02500734 	movhi	r9,16412
 1003c9c:	180b883a 	mov	r5,r3
 1003ca0:	480f883a 	mov	r7,r9
 1003ca4:	1009883a 	mov	r4,r2
 1003ca8:	400d883a 	mov	r6,r8
 1003cac:	10089440 	call	1008944 <__adddf3>
 1003cb0:	102d883a 	mov	r22,r2
 1003cb4:	00bf3034 	movhi	r2,64704
 1003cb8:	10ef883a 	add	r23,r2,r3
 1003cbc:	d8800d17 	ldw	r2,52(sp)
 1003cc0:	d8c00e17 	ldw	r3,56(sp)
 1003cc4:	8029883a 	mov	r20,r16
 1003cc8:	10bfffc4 	addi	r2,r2,-1
 1003ccc:	882b883a 	mov	r21,r17
 1003cd0:	d8800415 	stw	r2,16(sp)
 1003cd4:	d8c00315 	stw	r3,12(sp)
 1003cd8:	003e8306 	br	10036e8 <_dtoa_r+0xf4c>
 1003cdc:	d8800117 	ldw	r2,4(sp)
 1003ce0:	dc001117 	ldw	r16,68(sp)
 1003ce4:	dc801017 	ldw	r18,64(sp)
 1003ce8:	00c00d84 	movi	r3,54
 1003cec:	1887c83a 	sub	r3,r3,r2
 1003cf0:	003d6906 	br	1003298 <_dtoa_r+0xafc>
 1003cf4:	01800044 	movi	r6,1
 1003cf8:	3021883a 	mov	r16,r6
 1003cfc:	d9800f15 	stw	r6,60(sp)
 1003d00:	d9802615 	stw	r6,152(sp)
 1003d04:	d9800e15 	stw	r6,56(sp)
 1003d08:	003b9306 	br	1002b58 <_dtoa_r+0x3bc>
 1003d0c:	b021883a 	mov	r16,r22
 1003d10:	dd800f15 	stw	r22,60(sp)
 1003d14:	003b9006 	br	1002b58 <_dtoa_r+0x3bc>
 1003d18:	103e221e 	bne	r2,zero,10035a4 <_dtoa_r+0xe08>
 1003d1c:	b880004c 	andi	r2,r23,1
 1003d20:	1005003a 	cmpeq	r2,r2,zero
 1003d24:	103e1f1e 	bne	r2,zero,10035a4 <_dtoa_r+0xe08>
 1003d28:	003e1b06 	br	1003598 <_dtoa_r+0xdfc>
 1003d2c:	d9001617 	ldw	r4,88(sp)
 1003d30:	980b883a 	mov	r5,r19
 1003d34:	01800284 	movi	r6,10
 1003d38:	000f883a 	mov	r7,zero
 1003d3c:	10066840 	call	1006684 <__multadd>
 1003d40:	d8c00e17 	ldw	r3,56(sp)
 1003d44:	1027883a 	mov	r19,r2
 1003d48:	d8c00f15 	stw	r3,60(sp)
 1003d4c:	003cd306 	br	100309c <_dtoa_r+0x900>

01003d50 <_fflush_r>:
 1003d50:	defffb04 	addi	sp,sp,-20
 1003d54:	dcc00315 	stw	r19,12(sp)
 1003d58:	dc800215 	stw	r18,8(sp)
 1003d5c:	dfc00415 	stw	ra,16(sp)
 1003d60:	dc400115 	stw	r17,4(sp)
 1003d64:	dc000015 	stw	r16,0(sp)
 1003d68:	2027883a 	mov	r19,r4
 1003d6c:	2825883a 	mov	r18,r5
 1003d70:	20000226 	beq	r4,zero,1003d7c <_fflush_r+0x2c>
 1003d74:	20800e17 	ldw	r2,56(r4)
 1003d78:	10005626 	beq	r2,zero,1003ed4 <_fflush_r+0x184>
 1003d7c:	9100030b 	ldhu	r4,12(r18)
 1003d80:	20ffffcc 	andi	r3,r4,65535
 1003d84:	18e0001c 	xori	r3,r3,32768
 1003d88:	18e00004 	addi	r3,r3,-32768
 1003d8c:	1880020c 	andi	r2,r3,8
 1003d90:	1000261e 	bne	r2,zero,1003e2c <_fflush_r+0xdc>
 1003d94:	90c00117 	ldw	r3,4(r18)
 1003d98:	20820014 	ori	r2,r4,2048
 1003d9c:	9080030d 	sth	r2,12(r18)
 1003da0:	1009883a 	mov	r4,r2
 1003da4:	00c0400e 	bge	zero,r3,1003ea8 <_fflush_r+0x158>
 1003da8:	92000a17 	ldw	r8,40(r18)
 1003dac:	40004026 	beq	r8,zero,1003eb0 <_fflush_r+0x160>
 1003db0:	2084000c 	andi	r2,r4,4096
 1003db4:	10005326 	beq	r2,zero,1003f04 <_fflush_r+0x1b4>
 1003db8:	94001417 	ldw	r16,80(r18)
 1003dbc:	9080030b 	ldhu	r2,12(r18)
 1003dc0:	1080010c 	andi	r2,r2,4
 1003dc4:	1000481e 	bne	r2,zero,1003ee8 <_fflush_r+0x198>
 1003dc8:	91400717 	ldw	r5,28(r18)
 1003dcc:	9809883a 	mov	r4,r19
 1003dd0:	800d883a 	mov	r6,r16
 1003dd4:	000f883a 	mov	r7,zero
 1003dd8:	403ee83a 	callr	r8
 1003ddc:	8080261e 	bne	r16,r2,1003e78 <_fflush_r+0x128>
 1003de0:	9080030b 	ldhu	r2,12(r18)
 1003de4:	91000417 	ldw	r4,16(r18)
 1003de8:	90000115 	stw	zero,4(r18)
 1003dec:	10bdffcc 	andi	r2,r2,63487
 1003df0:	10ffffcc 	andi	r3,r2,65535
 1003df4:	18c4000c 	andi	r3,r3,4096
 1003df8:	9080030d 	sth	r2,12(r18)
 1003dfc:	91000015 	stw	r4,0(r18)
 1003e00:	18002b26 	beq	r3,zero,1003eb0 <_fflush_r+0x160>
 1003e04:	0007883a 	mov	r3,zero
 1003e08:	1805883a 	mov	r2,r3
 1003e0c:	94001415 	stw	r16,80(r18)
 1003e10:	dfc00417 	ldw	ra,16(sp)
 1003e14:	dcc00317 	ldw	r19,12(sp)
 1003e18:	dc800217 	ldw	r18,8(sp)
 1003e1c:	dc400117 	ldw	r17,4(sp)
 1003e20:	dc000017 	ldw	r16,0(sp)
 1003e24:	dec00504 	addi	sp,sp,20
 1003e28:	f800283a 	ret
 1003e2c:	94400417 	ldw	r17,16(r18)
 1003e30:	88001f26 	beq	r17,zero,1003eb0 <_fflush_r+0x160>
 1003e34:	90800017 	ldw	r2,0(r18)
 1003e38:	18c000cc 	andi	r3,r3,3
 1003e3c:	94400015 	stw	r17,0(r18)
 1003e40:	1461c83a 	sub	r16,r2,r17
 1003e44:	18002526 	beq	r3,zero,1003edc <_fflush_r+0x18c>
 1003e48:	0005883a 	mov	r2,zero
 1003e4c:	90800215 	stw	r2,8(r18)
 1003e50:	0400170e 	bge	zero,r16,1003eb0 <_fflush_r+0x160>
 1003e54:	90c00917 	ldw	r3,36(r18)
 1003e58:	91400717 	ldw	r5,28(r18)
 1003e5c:	880d883a 	mov	r6,r17
 1003e60:	800f883a 	mov	r7,r16
 1003e64:	9809883a 	mov	r4,r19
 1003e68:	183ee83a 	callr	r3
 1003e6c:	88a3883a 	add	r17,r17,r2
 1003e70:	80a1c83a 	sub	r16,r16,r2
 1003e74:	00bff616 	blt	zero,r2,1003e50 <_fflush_r+0x100>
 1003e78:	9080030b 	ldhu	r2,12(r18)
 1003e7c:	00ffffc4 	movi	r3,-1
 1003e80:	10801014 	ori	r2,r2,64
 1003e84:	9080030d 	sth	r2,12(r18)
 1003e88:	1805883a 	mov	r2,r3
 1003e8c:	dfc00417 	ldw	ra,16(sp)
 1003e90:	dcc00317 	ldw	r19,12(sp)
 1003e94:	dc800217 	ldw	r18,8(sp)
 1003e98:	dc400117 	ldw	r17,4(sp)
 1003e9c:	dc000017 	ldw	r16,0(sp)
 1003ea0:	dec00504 	addi	sp,sp,20
 1003ea4:	f800283a 	ret
 1003ea8:	90800f17 	ldw	r2,60(r18)
 1003eac:	00bfbe16 	blt	zero,r2,1003da8 <_fflush_r+0x58>
 1003eb0:	0007883a 	mov	r3,zero
 1003eb4:	1805883a 	mov	r2,r3
 1003eb8:	dfc00417 	ldw	ra,16(sp)
 1003ebc:	dcc00317 	ldw	r19,12(sp)
 1003ec0:	dc800217 	ldw	r18,8(sp)
 1003ec4:	dc400117 	ldw	r17,4(sp)
 1003ec8:	dc000017 	ldw	r16,0(sp)
 1003ecc:	dec00504 	addi	sp,sp,20
 1003ed0:	f800283a 	ret
 1003ed4:	1003fe80 	call	1003fe8 <__sinit>
 1003ed8:	003fa806 	br	1003d7c <_fflush_r+0x2c>
 1003edc:	90800517 	ldw	r2,20(r18)
 1003ee0:	90800215 	stw	r2,8(r18)
 1003ee4:	003fda06 	br	1003e50 <_fflush_r+0x100>
 1003ee8:	90800117 	ldw	r2,4(r18)
 1003eec:	90c00c17 	ldw	r3,48(r18)
 1003ef0:	80a1c83a 	sub	r16,r16,r2
 1003ef4:	183fb426 	beq	r3,zero,1003dc8 <_fflush_r+0x78>
 1003ef8:	90800f17 	ldw	r2,60(r18)
 1003efc:	80a1c83a 	sub	r16,r16,r2
 1003f00:	003fb106 	br	1003dc8 <_fflush_r+0x78>
 1003f04:	91400717 	ldw	r5,28(r18)
 1003f08:	9809883a 	mov	r4,r19
 1003f0c:	000d883a 	mov	r6,zero
 1003f10:	01c00044 	movi	r7,1
 1003f14:	403ee83a 	callr	r8
 1003f18:	1021883a 	mov	r16,r2
 1003f1c:	00bfffc4 	movi	r2,-1
 1003f20:	80800226 	beq	r16,r2,1003f2c <_fflush_r+0x1dc>
 1003f24:	92000a17 	ldw	r8,40(r18)
 1003f28:	003fa406 	br	1003dbc <_fflush_r+0x6c>
 1003f2c:	98c00017 	ldw	r3,0(r19)
 1003f30:	00800744 	movi	r2,29
 1003f34:	18bfde26 	beq	r3,r2,1003eb0 <_fflush_r+0x160>
 1003f38:	9080030b 	ldhu	r2,12(r18)
 1003f3c:	8007883a 	mov	r3,r16
 1003f40:	10801014 	ori	r2,r2,64
 1003f44:	9080030d 	sth	r2,12(r18)
 1003f48:	003fcf06 	br	1003e88 <_fflush_r+0x138>

01003f4c <fflush>:
 1003f4c:	01404034 	movhi	r5,256
 1003f50:	294f5404 	addi	r5,r5,15696
 1003f54:	2007883a 	mov	r3,r4
 1003f58:	20000526 	beq	r4,zero,1003f70 <fflush+0x24>
 1003f5c:	00804074 	movhi	r2,257
 1003f60:	10bc8804 	addi	r2,r2,-3552
 1003f64:	11000017 	ldw	r4,0(r2)
 1003f68:	180b883a 	mov	r5,r3
 1003f6c:	1003d501 	jmpi	1003d50 <_fflush_r>
 1003f70:	00804074 	movhi	r2,257
 1003f74:	10bc8904 	addi	r2,r2,-3548
 1003f78:	11000017 	ldw	r4,0(r2)
 1003f7c:	1004b501 	jmpi	1004b50 <_fwalk_reent>

01003f80 <std>:
 1003f80:	00804034 	movhi	r2,256
 1003f84:	109c3104 	addi	r2,r2,28868
 1003f88:	20800b15 	stw	r2,44(r4)
 1003f8c:	00804034 	movhi	r2,256
 1003f90:	109c6c04 	addi	r2,r2,29104
 1003f94:	20800815 	stw	r2,32(r4)
 1003f98:	00c04034 	movhi	r3,256
 1003f9c:	18dc4d04 	addi	r3,r3,28980
 1003fa0:	00804034 	movhi	r2,256
 1003fa4:	109c3304 	addi	r2,r2,28876
 1003fa8:	2140030d 	sth	r5,12(r4)
 1003fac:	2180038d 	sth	r6,14(r4)
 1003fb0:	20c00915 	stw	r3,36(r4)
 1003fb4:	20800a15 	stw	r2,40(r4)
 1003fb8:	20000015 	stw	zero,0(r4)
 1003fbc:	20000115 	stw	zero,4(r4)
 1003fc0:	20000215 	stw	zero,8(r4)
 1003fc4:	20000415 	stw	zero,16(r4)
 1003fc8:	20000515 	stw	zero,20(r4)
 1003fcc:	20000615 	stw	zero,24(r4)
 1003fd0:	21000715 	stw	r4,28(r4)
 1003fd4:	f800283a 	ret

01003fd8 <__sfp_lock_acquire>:
 1003fd8:	f800283a 	ret

01003fdc <__sfp_lock_release>:
 1003fdc:	f800283a 	ret

01003fe0 <__sinit_lock_acquire>:
 1003fe0:	f800283a 	ret

01003fe4 <__sinit_lock_release>:
 1003fe4:	f800283a 	ret

01003fe8 <__sinit>:
 1003fe8:	20800e17 	ldw	r2,56(r4)
 1003fec:	defffd04 	addi	sp,sp,-12
 1003ff0:	dc400115 	stw	r17,4(sp)
 1003ff4:	dc000015 	stw	r16,0(sp)
 1003ff8:	dfc00215 	stw	ra,8(sp)
 1003ffc:	04400044 	movi	r17,1
 1004000:	01400104 	movi	r5,4
 1004004:	000d883a 	mov	r6,zero
 1004008:	2021883a 	mov	r16,r4
 100400c:	2200bb04 	addi	r8,r4,748
 1004010:	200f883a 	mov	r7,r4
 1004014:	10000526 	beq	r2,zero,100402c <__sinit+0x44>
 1004018:	dfc00217 	ldw	ra,8(sp)
 100401c:	dc400117 	ldw	r17,4(sp)
 1004020:	dc000017 	ldw	r16,0(sp)
 1004024:	dec00304 	addi	sp,sp,12
 1004028:	f800283a 	ret
 100402c:	21000117 	ldw	r4,4(r4)
 1004030:	00804034 	movhi	r2,256
 1004034:	10903304 	addi	r2,r2,16588
 1004038:	00c000c4 	movi	r3,3
 100403c:	80800f15 	stw	r2,60(r16)
 1004040:	80c0b915 	stw	r3,740(r16)
 1004044:	8200ba15 	stw	r8,744(r16)
 1004048:	84400e15 	stw	r17,56(r16)
 100404c:	8000b815 	stw	zero,736(r16)
 1004050:	1003f800 	call	1003f80 <std>
 1004054:	81000217 	ldw	r4,8(r16)
 1004058:	880d883a 	mov	r6,r17
 100405c:	800f883a 	mov	r7,r16
 1004060:	01400284 	movi	r5,10
 1004064:	1003f800 	call	1003f80 <std>
 1004068:	81000317 	ldw	r4,12(r16)
 100406c:	800f883a 	mov	r7,r16
 1004070:	01400484 	movi	r5,18
 1004074:	01800084 	movi	r6,2
 1004078:	dfc00217 	ldw	ra,8(sp)
 100407c:	dc400117 	ldw	r17,4(sp)
 1004080:	dc000017 	ldw	r16,0(sp)
 1004084:	dec00304 	addi	sp,sp,12
 1004088:	1003f801 	jmpi	1003f80 <std>

0100408c <__fp_lock>:
 100408c:	0005883a 	mov	r2,zero
 1004090:	f800283a 	ret

01004094 <__fp_unlock>:
 1004094:	0005883a 	mov	r2,zero
 1004098:	f800283a 	ret

0100409c <__fp_unlock_all>:
 100409c:	00804074 	movhi	r2,257
 10040a0:	10bc8804 	addi	r2,r2,-3552
 10040a4:	11000017 	ldw	r4,0(r2)
 10040a8:	01404034 	movhi	r5,256
 10040ac:	29502504 	addi	r5,r5,16532
 10040b0:	1004c181 	jmpi	1004c18 <_fwalk>

010040b4 <__fp_lock_all>:
 10040b4:	00804074 	movhi	r2,257
 10040b8:	10bc8804 	addi	r2,r2,-3552
 10040bc:	11000017 	ldw	r4,0(r2)
 10040c0:	01404034 	movhi	r5,256
 10040c4:	29502304 	addi	r5,r5,16524
 10040c8:	1004c181 	jmpi	1004c18 <_fwalk>

010040cc <_cleanup_r>:
 10040cc:	01404034 	movhi	r5,256
 10040d0:	295d8004 	addi	r5,r5,30208
 10040d4:	1004c181 	jmpi	1004c18 <_fwalk>

010040d8 <_cleanup>:
 10040d8:	00804074 	movhi	r2,257
 10040dc:	10bc8904 	addi	r2,r2,-3548
 10040e0:	11000017 	ldw	r4,0(r2)
 10040e4:	10040cc1 	jmpi	10040cc <_cleanup_r>

010040e8 <__sfmoreglue>:
 10040e8:	defffc04 	addi	sp,sp,-16
 10040ec:	dc000015 	stw	r16,0(sp)
 10040f0:	2821883a 	mov	r16,r5
 10040f4:	dc400115 	stw	r17,4(sp)
 10040f8:	01401704 	movi	r5,92
 10040fc:	2023883a 	mov	r17,r4
 1004100:	8009883a 	mov	r4,r16
 1004104:	dfc00315 	stw	ra,12(sp)
 1004108:	dcc00215 	stw	r19,8(sp)
 100410c:	100972c0 	call	100972c <__mulsi3>
 1004110:	11400304 	addi	r5,r2,12
 1004114:	8809883a 	mov	r4,r17
 1004118:	1027883a 	mov	r19,r2
 100411c:	1004f280 	call	1004f28 <_malloc_r>
 1004120:	10c00304 	addi	r3,r2,12
 1004124:	1023883a 	mov	r17,r2
 1004128:	1809883a 	mov	r4,r3
 100412c:	980d883a 	mov	r6,r19
 1004130:	000b883a 	mov	r5,zero
 1004134:	10000b26 	beq	r2,zero,1004164 <__sfmoreglue+0x7c>
 1004138:	14000115 	stw	r16,4(r2)
 100413c:	10c00215 	stw	r3,8(r2)
 1004140:	10000015 	stw	zero,0(r2)
 1004144:	10058cc0 	call	10058cc <memset>
 1004148:	8805883a 	mov	r2,r17
 100414c:	dfc00317 	ldw	ra,12(sp)
 1004150:	dcc00217 	ldw	r19,8(sp)
 1004154:	dc400117 	ldw	r17,4(sp)
 1004158:	dc000017 	ldw	r16,0(sp)
 100415c:	dec00404 	addi	sp,sp,16
 1004160:	f800283a 	ret
 1004164:	0023883a 	mov	r17,zero
 1004168:	8805883a 	mov	r2,r17
 100416c:	dfc00317 	ldw	ra,12(sp)
 1004170:	dcc00217 	ldw	r19,8(sp)
 1004174:	dc400117 	ldw	r17,4(sp)
 1004178:	dc000017 	ldw	r16,0(sp)
 100417c:	dec00404 	addi	sp,sp,16
 1004180:	f800283a 	ret

01004184 <__sfp>:
 1004184:	defffd04 	addi	sp,sp,-12
 1004188:	00804074 	movhi	r2,257
 100418c:	10bc8904 	addi	r2,r2,-3548
 1004190:	dc000015 	stw	r16,0(sp)
 1004194:	14000017 	ldw	r16,0(r2)
 1004198:	dc400115 	stw	r17,4(sp)
 100419c:	dfc00215 	stw	ra,8(sp)
 10041a0:	80800e17 	ldw	r2,56(r16)
 10041a4:	2023883a 	mov	r17,r4
 10041a8:	10002626 	beq	r2,zero,1004244 <__sfp+0xc0>
 10041ac:	8400b804 	addi	r16,r16,736
 10041b0:	80800117 	ldw	r2,4(r16)
 10041b4:	81000217 	ldw	r4,8(r16)
 10041b8:	10ffffc4 	addi	r3,r2,-1
 10041bc:	18000916 	blt	r3,zero,10041e4 <__sfp+0x60>
 10041c0:	2080030f 	ldh	r2,12(r4)
 10041c4:	10000b26 	beq	r2,zero,10041f4 <__sfp+0x70>
 10041c8:	017fffc4 	movi	r5,-1
 10041cc:	00000206 	br	10041d8 <__sfp+0x54>
 10041d0:	2080030f 	ldh	r2,12(r4)
 10041d4:	10000726 	beq	r2,zero,10041f4 <__sfp+0x70>
 10041d8:	18ffffc4 	addi	r3,r3,-1
 10041dc:	21001704 	addi	r4,r4,92
 10041e0:	197ffb1e 	bne	r3,r5,10041d0 <__sfp+0x4c>
 10041e4:	80800017 	ldw	r2,0(r16)
 10041e8:	10001926 	beq	r2,zero,1004250 <__sfp+0xcc>
 10041ec:	1021883a 	mov	r16,r2
 10041f0:	003fef06 	br	10041b0 <__sfp+0x2c>
 10041f4:	00bfffc4 	movi	r2,-1
 10041f8:	00c00044 	movi	r3,1
 10041fc:	2080038d 	sth	r2,14(r4)
 1004200:	20c0030d 	sth	r3,12(r4)
 1004204:	20000015 	stw	zero,0(r4)
 1004208:	20000215 	stw	zero,8(r4)
 100420c:	20000115 	stw	zero,4(r4)
 1004210:	20000415 	stw	zero,16(r4)
 1004214:	20000515 	stw	zero,20(r4)
 1004218:	20000615 	stw	zero,24(r4)
 100421c:	20000c15 	stw	zero,48(r4)
 1004220:	20000d15 	stw	zero,52(r4)
 1004224:	20001115 	stw	zero,68(r4)
 1004228:	20001215 	stw	zero,72(r4)
 100422c:	2005883a 	mov	r2,r4
 1004230:	dfc00217 	ldw	ra,8(sp)
 1004234:	dc400117 	ldw	r17,4(sp)
 1004238:	dc000017 	ldw	r16,0(sp)
 100423c:	dec00304 	addi	sp,sp,12
 1004240:	f800283a 	ret
 1004244:	8009883a 	mov	r4,r16
 1004248:	1003fe80 	call	1003fe8 <__sinit>
 100424c:	003fd706 	br	10041ac <__sfp+0x28>
 1004250:	8809883a 	mov	r4,r17
 1004254:	01400104 	movi	r5,4
 1004258:	10040e80 	call	10040e8 <__sfmoreglue>
 100425c:	80800015 	stw	r2,0(r16)
 1004260:	103fe21e 	bne	r2,zero,10041ec <__sfp+0x68>
 1004264:	00800304 	movi	r2,12
 1004268:	0009883a 	mov	r4,zero
 100426c:	88800015 	stw	r2,0(r17)
 1004270:	003fee06 	br	100422c <__sfp+0xa8>

01004274 <_malloc_trim_r>:
 1004274:	defffb04 	addi	sp,sp,-20
 1004278:	dcc00315 	stw	r19,12(sp)
 100427c:	04c04074 	movhi	r19,257
 1004280:	9cf6ee04 	addi	r19,r19,-9288
 1004284:	dc800215 	stw	r18,8(sp)
 1004288:	dc400115 	stw	r17,4(sp)
 100428c:	dc000015 	stw	r16,0(sp)
 1004290:	2823883a 	mov	r17,r5
 1004294:	2025883a 	mov	r18,r4
 1004298:	dfc00415 	stw	ra,16(sp)
 100429c:	100a4b00 	call	100a4b0 <__malloc_lock>
 10042a0:	98800217 	ldw	r2,8(r19)
 10042a4:	9009883a 	mov	r4,r18
 10042a8:	000b883a 	mov	r5,zero
 10042ac:	10c00117 	ldw	r3,4(r2)
 10042b0:	00bfff04 	movi	r2,-4
 10042b4:	18a0703a 	and	r16,r3,r2
 10042b8:	8463c83a 	sub	r17,r16,r17
 10042bc:	8c43fbc4 	addi	r17,r17,4079
 10042c0:	8822d33a 	srli	r17,r17,12
 10042c4:	0083ffc4 	movi	r2,4095
 10042c8:	8c7fffc4 	addi	r17,r17,-1
 10042cc:	8822933a 	slli	r17,r17,12
 10042d0:	1440060e 	bge	r2,r17,10042ec <_malloc_trim_r+0x78>
 10042d4:	10070540 	call	1007054 <_sbrk_r>
 10042d8:	98c00217 	ldw	r3,8(r19)
 10042dc:	9009883a 	mov	r4,r18
 10042e0:	044bc83a 	sub	r5,zero,r17
 10042e4:	80c7883a 	add	r3,r16,r3
 10042e8:	10c00926 	beq	r2,r3,1004310 <_malloc_trim_r+0x9c>
 10042ec:	100a4d00 	call	100a4d0 <__malloc_unlock>
 10042f0:	0005883a 	mov	r2,zero
 10042f4:	dfc00417 	ldw	ra,16(sp)
 10042f8:	dcc00317 	ldw	r19,12(sp)
 10042fc:	dc800217 	ldw	r18,8(sp)
 1004300:	dc400117 	ldw	r17,4(sp)
 1004304:	dc000017 	ldw	r16,0(sp)
 1004308:	dec00504 	addi	sp,sp,20
 100430c:	f800283a 	ret
 1004310:	9009883a 	mov	r4,r18
 1004314:	10070540 	call	1007054 <_sbrk_r>
 1004318:	844dc83a 	sub	r6,r16,r17
 100431c:	00ffffc4 	movi	r3,-1
 1004320:	9009883a 	mov	r4,r18
 1004324:	000b883a 	mov	r5,zero
 1004328:	01c04074 	movhi	r7,257
 100432c:	39c35204 	addi	r7,r7,3400
 1004330:	31800054 	ori	r6,r6,1
 1004334:	10c00926 	beq	r2,r3,100435c <_malloc_trim_r+0xe8>
 1004338:	38800017 	ldw	r2,0(r7)
 100433c:	98c00217 	ldw	r3,8(r19)
 1004340:	9009883a 	mov	r4,r18
 1004344:	1445c83a 	sub	r2,r2,r17
 1004348:	38800015 	stw	r2,0(r7)
 100434c:	19800115 	stw	r6,4(r3)
 1004350:	100a4d00 	call	100a4d0 <__malloc_unlock>
 1004354:	00800044 	movi	r2,1
 1004358:	003fe606 	br	10042f4 <_malloc_trim_r+0x80>
 100435c:	10070540 	call	1007054 <_sbrk_r>
 1004360:	99800217 	ldw	r6,8(r19)
 1004364:	100f883a 	mov	r7,r2
 1004368:	9009883a 	mov	r4,r18
 100436c:	1187c83a 	sub	r3,r2,r6
 1004370:	008003c4 	movi	r2,15
 1004374:	19400054 	ori	r5,r3,1
 1004378:	10ffdc0e 	bge	r2,r3,10042ec <_malloc_trim_r+0x78>
 100437c:	00804074 	movhi	r2,257
 1004380:	10bc8d04 	addi	r2,r2,-3532
 1004384:	10c00017 	ldw	r3,0(r2)
 1004388:	00804074 	movhi	r2,257
 100438c:	10835204 	addi	r2,r2,3400
 1004390:	31400115 	stw	r5,4(r6)
 1004394:	38c7c83a 	sub	r3,r7,r3
 1004398:	10c00015 	stw	r3,0(r2)
 100439c:	003fd306 	br	10042ec <_malloc_trim_r+0x78>

010043a0 <_free_r>:
 10043a0:	defffd04 	addi	sp,sp,-12
 10043a4:	dc400115 	stw	r17,4(sp)
 10043a8:	dc000015 	stw	r16,0(sp)
 10043ac:	dfc00215 	stw	ra,8(sp)
 10043b0:	2821883a 	mov	r16,r5
 10043b4:	2023883a 	mov	r17,r4
 10043b8:	28005a26 	beq	r5,zero,1004524 <_free_r+0x184>
 10043bc:	100a4b00 	call	100a4b0 <__malloc_lock>
 10043c0:	823ffe04 	addi	r8,r16,-8
 10043c4:	41400117 	ldw	r5,4(r8)
 10043c8:	00bfff84 	movi	r2,-2
 10043cc:	02804074 	movhi	r10,257
 10043d0:	52b6ee04 	addi	r10,r10,-9288
 10043d4:	288e703a 	and	r7,r5,r2
 10043d8:	41cd883a 	add	r6,r8,r7
 10043dc:	30c00117 	ldw	r3,4(r6)
 10043e0:	51000217 	ldw	r4,8(r10)
 10043e4:	00bfff04 	movi	r2,-4
 10043e8:	1892703a 	and	r9,r3,r2
 10043ec:	5017883a 	mov	r11,r10
 10043f0:	31006726 	beq	r6,r4,1004590 <_free_r+0x1f0>
 10043f4:	2880004c 	andi	r2,r5,1
 10043f8:	1005003a 	cmpeq	r2,r2,zero
 10043fc:	32400115 	stw	r9,4(r6)
 1004400:	10001a1e 	bne	r2,zero,100446c <_free_r+0xcc>
 1004404:	000b883a 	mov	r5,zero
 1004408:	3247883a 	add	r3,r6,r9
 100440c:	18800117 	ldw	r2,4(r3)
 1004410:	1080004c 	andi	r2,r2,1
 1004414:	1000231e 	bne	r2,zero,10044a4 <_free_r+0x104>
 1004418:	280ac03a 	cmpne	r5,r5,zero
 100441c:	3a4f883a 	add	r7,r7,r9
 1004420:	2800451e 	bne	r5,zero,1004538 <_free_r+0x198>
 1004424:	31000217 	ldw	r4,8(r6)
 1004428:	00804074 	movhi	r2,257
 100442c:	10b6f004 	addi	r2,r2,-9280
 1004430:	20807b26 	beq	r4,r2,1004620 <_free_r+0x280>
 1004434:	30800317 	ldw	r2,12(r6)
 1004438:	3a07883a 	add	r3,r7,r8
 100443c:	19c00015 	stw	r7,0(r3)
 1004440:	11000215 	stw	r4,8(r2)
 1004444:	20800315 	stw	r2,12(r4)
 1004448:	38800054 	ori	r2,r7,1
 100444c:	40800115 	stw	r2,4(r8)
 1004450:	28001a26 	beq	r5,zero,10044bc <_free_r+0x11c>
 1004454:	8809883a 	mov	r4,r17
 1004458:	dfc00217 	ldw	ra,8(sp)
 100445c:	dc400117 	ldw	r17,4(sp)
 1004460:	dc000017 	ldw	r16,0(sp)
 1004464:	dec00304 	addi	sp,sp,12
 1004468:	100a4d01 	jmpi	100a4d0 <__malloc_unlock>
 100446c:	80bffe17 	ldw	r2,-8(r16)
 1004470:	50c00204 	addi	r3,r10,8
 1004474:	4091c83a 	sub	r8,r8,r2
 1004478:	41000217 	ldw	r4,8(r8)
 100447c:	388f883a 	add	r7,r7,r2
 1004480:	20c06126 	beq	r4,r3,1004608 <_free_r+0x268>
 1004484:	40800317 	ldw	r2,12(r8)
 1004488:	3247883a 	add	r3,r6,r9
 100448c:	000b883a 	mov	r5,zero
 1004490:	11000215 	stw	r4,8(r2)
 1004494:	20800315 	stw	r2,12(r4)
 1004498:	18800117 	ldw	r2,4(r3)
 100449c:	1080004c 	andi	r2,r2,1
 10044a0:	103fdd26 	beq	r2,zero,1004418 <_free_r+0x78>
 10044a4:	38800054 	ori	r2,r7,1
 10044a8:	3a07883a 	add	r3,r7,r8
 10044ac:	280ac03a 	cmpne	r5,r5,zero
 10044b0:	40800115 	stw	r2,4(r8)
 10044b4:	19c00015 	stw	r7,0(r3)
 10044b8:	283fe61e 	bne	r5,zero,1004454 <_free_r+0xb4>
 10044bc:	00807fc4 	movi	r2,511
 10044c0:	11c01f2e 	bgeu	r2,r7,1004540 <_free_r+0x1a0>
 10044c4:	3806d27a 	srli	r3,r7,9
 10044c8:	1800481e 	bne	r3,zero,10045ec <_free_r+0x24c>
 10044cc:	3804d0fa 	srli	r2,r7,3
 10044d0:	100690fa 	slli	r3,r2,3
 10044d4:	1acd883a 	add	r6,r3,r11
 10044d8:	31400217 	ldw	r5,8(r6)
 10044dc:	31405926 	beq	r6,r5,1004644 <_free_r+0x2a4>
 10044e0:	28800117 	ldw	r2,4(r5)
 10044e4:	00ffff04 	movi	r3,-4
 10044e8:	10c4703a 	and	r2,r2,r3
 10044ec:	3880022e 	bgeu	r7,r2,10044f8 <_free_r+0x158>
 10044f0:	29400217 	ldw	r5,8(r5)
 10044f4:	317ffa1e 	bne	r6,r5,10044e0 <_free_r+0x140>
 10044f8:	29800317 	ldw	r6,12(r5)
 10044fc:	41800315 	stw	r6,12(r8)
 1004500:	41400215 	stw	r5,8(r8)
 1004504:	8809883a 	mov	r4,r17
 1004508:	2a000315 	stw	r8,12(r5)
 100450c:	32000215 	stw	r8,8(r6)
 1004510:	dfc00217 	ldw	ra,8(sp)
 1004514:	dc400117 	ldw	r17,4(sp)
 1004518:	dc000017 	ldw	r16,0(sp)
 100451c:	dec00304 	addi	sp,sp,12
 1004520:	100a4d01 	jmpi	100a4d0 <__malloc_unlock>
 1004524:	dfc00217 	ldw	ra,8(sp)
 1004528:	dc400117 	ldw	r17,4(sp)
 100452c:	dc000017 	ldw	r16,0(sp)
 1004530:	dec00304 	addi	sp,sp,12
 1004534:	f800283a 	ret
 1004538:	31000217 	ldw	r4,8(r6)
 100453c:	003fbd06 	br	1004434 <_free_r+0x94>
 1004540:	3806d0fa 	srli	r3,r7,3
 1004544:	00800044 	movi	r2,1
 1004548:	51400117 	ldw	r5,4(r10)
 100454c:	180890fa 	slli	r4,r3,3
 1004550:	1807d0ba 	srai	r3,r3,2
 1004554:	22c9883a 	add	r4,r4,r11
 1004558:	21800217 	ldw	r6,8(r4)
 100455c:	10c4983a 	sll	r2,r2,r3
 1004560:	41000315 	stw	r4,12(r8)
 1004564:	41800215 	stw	r6,8(r8)
 1004568:	288ab03a 	or	r5,r5,r2
 100456c:	22000215 	stw	r8,8(r4)
 1004570:	8809883a 	mov	r4,r17
 1004574:	51400115 	stw	r5,4(r10)
 1004578:	32000315 	stw	r8,12(r6)
 100457c:	dfc00217 	ldw	ra,8(sp)
 1004580:	dc400117 	ldw	r17,4(sp)
 1004584:	dc000017 	ldw	r16,0(sp)
 1004588:	dec00304 	addi	sp,sp,12
 100458c:	100a4d01 	jmpi	100a4d0 <__malloc_unlock>
 1004590:	2880004c 	andi	r2,r5,1
 1004594:	3a4d883a 	add	r6,r7,r9
 1004598:	1000071e 	bne	r2,zero,10045b8 <_free_r+0x218>
 100459c:	80bffe17 	ldw	r2,-8(r16)
 10045a0:	4091c83a 	sub	r8,r8,r2
 10045a4:	41000317 	ldw	r4,12(r8)
 10045a8:	40c00217 	ldw	r3,8(r8)
 10045ac:	308d883a 	add	r6,r6,r2
 10045b0:	20c00215 	stw	r3,8(r4)
 10045b4:	19000315 	stw	r4,12(r3)
 10045b8:	00804074 	movhi	r2,257
 10045bc:	10bc8c04 	addi	r2,r2,-3536
 10045c0:	11000017 	ldw	r4,0(r2)
 10045c4:	30c00054 	ori	r3,r6,1
 10045c8:	52000215 	stw	r8,8(r10)
 10045cc:	40c00115 	stw	r3,4(r8)
 10045d0:	313fa036 	bltu	r6,r4,1004454 <_free_r+0xb4>
 10045d4:	00804074 	movhi	r2,257
 10045d8:	10834804 	addi	r2,r2,3360
 10045dc:	11400017 	ldw	r5,0(r2)
 10045e0:	8809883a 	mov	r4,r17
 10045e4:	10042740 	call	1004274 <_malloc_trim_r>
 10045e8:	003f9a06 	br	1004454 <_free_r+0xb4>
 10045ec:	00800104 	movi	r2,4
 10045f0:	10c0072e 	bgeu	r2,r3,1004610 <_free_r+0x270>
 10045f4:	00800504 	movi	r2,20
 10045f8:	10c01936 	bltu	r2,r3,1004660 <_free_r+0x2c0>
 10045fc:	188016c4 	addi	r2,r3,91
 1004600:	100690fa 	slli	r3,r2,3
 1004604:	003fb306 	br	10044d4 <_free_r+0x134>
 1004608:	01400044 	movi	r5,1
 100460c:	003f7e06 	br	1004408 <_free_r+0x68>
 1004610:	3804d1ba 	srli	r2,r7,6
 1004614:	10800e04 	addi	r2,r2,56
 1004618:	100690fa 	slli	r3,r2,3
 100461c:	003fad06 	br	10044d4 <_free_r+0x134>
 1004620:	22000315 	stw	r8,12(r4)
 1004624:	22000215 	stw	r8,8(r4)
 1004628:	3a05883a 	add	r2,r7,r8
 100462c:	38c00054 	ori	r3,r7,1
 1004630:	11c00015 	stw	r7,0(r2)
 1004634:	41000215 	stw	r4,8(r8)
 1004638:	40c00115 	stw	r3,4(r8)
 100463c:	41000315 	stw	r4,12(r8)
 1004640:	003f8406 	br	1004454 <_free_r+0xb4>
 1004644:	1005d0ba 	srai	r2,r2,2
 1004648:	00c00044 	movi	r3,1
 100464c:	51000117 	ldw	r4,4(r10)
 1004650:	1886983a 	sll	r3,r3,r2
 1004654:	20c8b03a 	or	r4,r4,r3
 1004658:	51000115 	stw	r4,4(r10)
 100465c:	003fa706 	br	10044fc <_free_r+0x15c>
 1004660:	00801504 	movi	r2,84
 1004664:	10c00436 	bltu	r2,r3,1004678 <_free_r+0x2d8>
 1004668:	3804d33a 	srli	r2,r7,12
 100466c:	10801b84 	addi	r2,r2,110
 1004670:	100690fa 	slli	r3,r2,3
 1004674:	003f9706 	br	10044d4 <_free_r+0x134>
 1004678:	00805504 	movi	r2,340
 100467c:	10c00436 	bltu	r2,r3,1004690 <_free_r+0x2f0>
 1004680:	3804d3fa 	srli	r2,r7,15
 1004684:	10801dc4 	addi	r2,r2,119
 1004688:	100690fa 	slli	r3,r2,3
 100468c:	003f9106 	br	10044d4 <_free_r+0x134>
 1004690:	00815504 	movi	r2,1364
 1004694:	10c0032e 	bgeu	r2,r3,10046a4 <_free_r+0x304>
 1004698:	00801f84 	movi	r2,126
 100469c:	00c0fc04 	movi	r3,1008
 10046a0:	003f8c06 	br	10044d4 <_free_r+0x134>
 10046a4:	3804d4ba 	srli	r2,r7,18
 10046a8:	10801f04 	addi	r2,r2,124
 10046ac:	100690fa 	slli	r3,r2,3
 10046b0:	003f8806 	br	10044d4 <_free_r+0x134>

010046b4 <__sfvwrite_r>:
 10046b4:	30800217 	ldw	r2,8(r6)
 10046b8:	defff504 	addi	sp,sp,-44
 10046bc:	df000915 	stw	fp,36(sp)
 10046c0:	dd800715 	stw	r22,28(sp)
 10046c4:	dc800315 	stw	r18,12(sp)
 10046c8:	dfc00a15 	stw	ra,40(sp)
 10046cc:	ddc00815 	stw	r23,32(sp)
 10046d0:	dd400615 	stw	r21,24(sp)
 10046d4:	dd000515 	stw	r20,20(sp)
 10046d8:	dcc00415 	stw	r19,16(sp)
 10046dc:	dc400215 	stw	r17,8(sp)
 10046e0:	dc000115 	stw	r16,4(sp)
 10046e4:	302d883a 	mov	r22,r6
 10046e8:	2039883a 	mov	fp,r4
 10046ec:	2825883a 	mov	r18,r5
 10046f0:	10001c26 	beq	r2,zero,1004764 <__sfvwrite_r+0xb0>
 10046f4:	29c0030b 	ldhu	r7,12(r5)
 10046f8:	3880020c 	andi	r2,r7,8
 10046fc:	10002726 	beq	r2,zero,100479c <__sfvwrite_r+0xe8>
 1004700:	28800417 	ldw	r2,16(r5)
 1004704:	10002526 	beq	r2,zero,100479c <__sfvwrite_r+0xe8>
 1004708:	3880008c 	andi	r2,r7,2
 100470c:	b5400017 	ldw	r21,0(r22)
 1004710:	10002826 	beq	r2,zero,10047b4 <__sfvwrite_r+0x100>
 1004714:	0021883a 	mov	r16,zero
 1004718:	0023883a 	mov	r17,zero
 100471c:	880d883a 	mov	r6,r17
 1004720:	e009883a 	mov	r4,fp
 1004724:	00810004 	movi	r2,1024
 1004728:	80006e26 	beq	r16,zero,10048e4 <__sfvwrite_r+0x230>
 100472c:	800f883a 	mov	r7,r16
 1004730:	91400717 	ldw	r5,28(r18)
 1004734:	1400012e 	bgeu	r2,r16,100473c <__sfvwrite_r+0x88>
 1004738:	100f883a 	mov	r7,r2
 100473c:	90c00917 	ldw	r3,36(r18)
 1004740:	183ee83a 	callr	r3
 1004744:	1007883a 	mov	r3,r2
 1004748:	80a1c83a 	sub	r16,r16,r2
 100474c:	88a3883a 	add	r17,r17,r2
 1004750:	00806d0e 	bge	zero,r2,1004908 <__sfvwrite_r+0x254>
 1004754:	b0800217 	ldw	r2,8(r22)
 1004758:	10c5c83a 	sub	r2,r2,r3
 100475c:	b0800215 	stw	r2,8(r22)
 1004760:	103fee1e 	bne	r2,zero,100471c <__sfvwrite_r+0x68>
 1004764:	0009883a 	mov	r4,zero
 1004768:	2005883a 	mov	r2,r4
 100476c:	dfc00a17 	ldw	ra,40(sp)
 1004770:	df000917 	ldw	fp,36(sp)
 1004774:	ddc00817 	ldw	r23,32(sp)
 1004778:	dd800717 	ldw	r22,28(sp)
 100477c:	dd400617 	ldw	r21,24(sp)
 1004780:	dd000517 	ldw	r20,20(sp)
 1004784:	dcc00417 	ldw	r19,16(sp)
 1004788:	dc800317 	ldw	r18,12(sp)
 100478c:	dc400217 	ldw	r17,8(sp)
 1004790:	dc000117 	ldw	r16,4(sp)
 1004794:	dec00b04 	addi	sp,sp,44
 1004798:	f800283a 	ret
 100479c:	100241c0 	call	100241c <__swsetup_r>
 10047a0:	1000e41e 	bne	r2,zero,1004b34 <__sfvwrite_r+0x480>
 10047a4:	91c0030b 	ldhu	r7,12(r18)
 10047a8:	b5400017 	ldw	r21,0(r22)
 10047ac:	3880008c 	andi	r2,r7,2
 10047b0:	103fd81e 	bne	r2,zero,1004714 <__sfvwrite_r+0x60>
 10047b4:	3880004c 	andi	r2,r7,1
 10047b8:	1005003a 	cmpeq	r2,r2,zero
 10047bc:	10005726 	beq	r2,zero,100491c <__sfvwrite_r+0x268>
 10047c0:	0029883a 	mov	r20,zero
 10047c4:	002f883a 	mov	r23,zero
 10047c8:	a0004226 	beq	r20,zero,10048d4 <__sfvwrite_r+0x220>
 10047cc:	3880800c 	andi	r2,r7,512
 10047d0:	94000217 	ldw	r16,8(r18)
 10047d4:	10008b26 	beq	r2,zero,1004a04 <__sfvwrite_r+0x350>
 10047d8:	800d883a 	mov	r6,r16
 10047dc:	a400a536 	bltu	r20,r16,1004a74 <__sfvwrite_r+0x3c0>
 10047e0:	3881200c 	andi	r2,r7,1152
 10047e4:	10002726 	beq	r2,zero,1004884 <__sfvwrite_r+0x1d0>
 10047e8:	90800517 	ldw	r2,20(r18)
 10047ec:	92000417 	ldw	r8,16(r18)
 10047f0:	91400017 	ldw	r5,0(r18)
 10047f4:	1087883a 	add	r3,r2,r2
 10047f8:	1887883a 	add	r3,r3,r2
 10047fc:	1808d7fa 	srli	r4,r3,31
 1004800:	2a21c83a 	sub	r16,r5,r8
 1004804:	80800044 	addi	r2,r16,1
 1004808:	20c9883a 	add	r4,r4,r3
 100480c:	2027d07a 	srai	r19,r4,1
 1004810:	a085883a 	add	r2,r20,r2
 1004814:	980d883a 	mov	r6,r19
 1004818:	9880022e 	bgeu	r19,r2,1004824 <__sfvwrite_r+0x170>
 100481c:	1027883a 	mov	r19,r2
 1004820:	100d883a 	mov	r6,r2
 1004824:	3881000c 	andi	r2,r7,1024
 1004828:	1000b826 	beq	r2,zero,1004b0c <__sfvwrite_r+0x458>
 100482c:	300b883a 	mov	r5,r6
 1004830:	e009883a 	mov	r4,fp
 1004834:	1004f280 	call	1004f28 <_malloc_r>
 1004838:	10003126 	beq	r2,zero,1004900 <__sfvwrite_r+0x24c>
 100483c:	91400417 	ldw	r5,16(r18)
 1004840:	1009883a 	mov	r4,r2
 1004844:	800d883a 	mov	r6,r16
 1004848:	1023883a 	mov	r17,r2
 100484c:	100574c0 	call	100574c <memcpy>
 1004850:	90c0030b 	ldhu	r3,12(r18)
 1004854:	00beffc4 	movi	r2,-1025
 1004858:	1886703a 	and	r3,r3,r2
 100485c:	18c02014 	ori	r3,r3,128
 1004860:	90c0030d 	sth	r3,12(r18)
 1004864:	9c07c83a 	sub	r3,r19,r16
 1004868:	8c05883a 	add	r2,r17,r16
 100486c:	a00d883a 	mov	r6,r20
 1004870:	a021883a 	mov	r16,r20
 1004874:	90800015 	stw	r2,0(r18)
 1004878:	90c00215 	stw	r3,8(r18)
 100487c:	94400415 	stw	r17,16(r18)
 1004880:	94c00515 	stw	r19,20(r18)
 1004884:	91000017 	ldw	r4,0(r18)
 1004888:	b80b883a 	mov	r5,r23
 100488c:	a023883a 	mov	r17,r20
 1004890:	10057ec0 	call	10057ec <memmove>
 1004894:	90c00217 	ldw	r3,8(r18)
 1004898:	90800017 	ldw	r2,0(r18)
 100489c:	a027883a 	mov	r19,r20
 10048a0:	1c07c83a 	sub	r3,r3,r16
 10048a4:	1405883a 	add	r2,r2,r16
 10048a8:	90c00215 	stw	r3,8(r18)
 10048ac:	a021883a 	mov	r16,r20
 10048b0:	90800015 	stw	r2,0(r18)
 10048b4:	b0800217 	ldw	r2,8(r22)
 10048b8:	1405c83a 	sub	r2,r2,r16
 10048bc:	b0800215 	stw	r2,8(r22)
 10048c0:	103fa826 	beq	r2,zero,1004764 <__sfvwrite_r+0xb0>
 10048c4:	a469c83a 	sub	r20,r20,r17
 10048c8:	91c0030b 	ldhu	r7,12(r18)
 10048cc:	bcef883a 	add	r23,r23,r19
 10048d0:	a03fbe1e 	bne	r20,zero,10047cc <__sfvwrite_r+0x118>
 10048d4:	adc00017 	ldw	r23,0(r21)
 10048d8:	ad000117 	ldw	r20,4(r21)
 10048dc:	ad400204 	addi	r21,r21,8
 10048e0:	003fb906 	br	10047c8 <__sfvwrite_r+0x114>
 10048e4:	ac400017 	ldw	r17,0(r21)
 10048e8:	ac000117 	ldw	r16,4(r21)
 10048ec:	ad400204 	addi	r21,r21,8
 10048f0:	003f8a06 	br	100471c <__sfvwrite_r+0x68>
 10048f4:	91400417 	ldw	r5,16(r18)
 10048f8:	e009883a 	mov	r4,fp
 10048fc:	10043a00 	call	10043a0 <_free_r>
 1004900:	00800304 	movi	r2,12
 1004904:	e0800015 	stw	r2,0(fp)
 1004908:	9080030b 	ldhu	r2,12(r18)
 100490c:	013fffc4 	movi	r4,-1
 1004910:	10801014 	ori	r2,r2,64
 1004914:	9080030d 	sth	r2,12(r18)
 1004918:	003f9306 	br	1004768 <__sfvwrite_r+0xb4>
 100491c:	0027883a 	mov	r19,zero
 1004920:	002f883a 	mov	r23,zero
 1004924:	d8000015 	stw	zero,0(sp)
 1004928:	0029883a 	mov	r20,zero
 100492c:	98001e26 	beq	r19,zero,10049a8 <__sfvwrite_r+0x2f4>
 1004930:	d8c00017 	ldw	r3,0(sp)
 1004934:	1804c03a 	cmpne	r2,r3,zero
 1004938:	10005e26 	beq	r2,zero,1004ab4 <__sfvwrite_r+0x400>
 100493c:	9821883a 	mov	r16,r19
 1004940:	a4c0012e 	bgeu	r20,r19,1004948 <__sfvwrite_r+0x294>
 1004944:	a021883a 	mov	r16,r20
 1004948:	91000017 	ldw	r4,0(r18)
 100494c:	90800417 	ldw	r2,16(r18)
 1004950:	91800217 	ldw	r6,8(r18)
 1004954:	91c00517 	ldw	r7,20(r18)
 1004958:	1100022e 	bgeu	r2,r4,1004964 <__sfvwrite_r+0x2b0>
 100495c:	31e3883a 	add	r17,r6,r7
 1004960:	8c001616 	blt	r17,r16,10049bc <__sfvwrite_r+0x308>
 1004964:	81c03816 	blt	r16,r7,1004a48 <__sfvwrite_r+0x394>
 1004968:	90c00917 	ldw	r3,36(r18)
 100496c:	91400717 	ldw	r5,28(r18)
 1004970:	e009883a 	mov	r4,fp
 1004974:	b80d883a 	mov	r6,r23
 1004978:	183ee83a 	callr	r3
 100497c:	1023883a 	mov	r17,r2
 1004980:	00bfe10e 	bge	zero,r2,1004908 <__sfvwrite_r+0x254>
 1004984:	a469c83a 	sub	r20,r20,r17
 1004988:	a0001826 	beq	r20,zero,10049ec <__sfvwrite_r+0x338>
 100498c:	b0800217 	ldw	r2,8(r22)
 1004990:	1445c83a 	sub	r2,r2,r17
 1004994:	b0800215 	stw	r2,8(r22)
 1004998:	103f7226 	beq	r2,zero,1004764 <__sfvwrite_r+0xb0>
 100499c:	9c67c83a 	sub	r19,r19,r17
 10049a0:	bc6f883a 	add	r23,r23,r17
 10049a4:	983fe21e 	bne	r19,zero,1004930 <__sfvwrite_r+0x27c>
 10049a8:	adc00017 	ldw	r23,0(r21)
 10049ac:	acc00117 	ldw	r19,4(r21)
 10049b0:	ad400204 	addi	r21,r21,8
 10049b4:	d8000015 	stw	zero,0(sp)
 10049b8:	003fdc06 	br	100492c <__sfvwrite_r+0x278>
 10049bc:	b80b883a 	mov	r5,r23
 10049c0:	880d883a 	mov	r6,r17
 10049c4:	10057ec0 	call	10057ec <memmove>
 10049c8:	90c00017 	ldw	r3,0(r18)
 10049cc:	e009883a 	mov	r4,fp
 10049d0:	900b883a 	mov	r5,r18
 10049d4:	1c47883a 	add	r3,r3,r17
 10049d8:	90c00015 	stw	r3,0(r18)
 10049dc:	1003d500 	call	1003d50 <_fflush_r>
 10049e0:	103fc91e 	bne	r2,zero,1004908 <__sfvwrite_r+0x254>
 10049e4:	a469c83a 	sub	r20,r20,r17
 10049e8:	a03fe81e 	bne	r20,zero,100498c <__sfvwrite_r+0x2d8>
 10049ec:	e009883a 	mov	r4,fp
 10049f0:	900b883a 	mov	r5,r18
 10049f4:	1003d500 	call	1003d50 <_fflush_r>
 10049f8:	103fc31e 	bne	r2,zero,1004908 <__sfvwrite_r+0x254>
 10049fc:	d8000015 	stw	zero,0(sp)
 1004a00:	003fe206 	br	100498c <__sfvwrite_r+0x2d8>
 1004a04:	91000017 	ldw	r4,0(r18)
 1004a08:	90800417 	ldw	r2,16(r18)
 1004a0c:	1100022e 	bgeu	r2,r4,1004a18 <__sfvwrite_r+0x364>
 1004a10:	8023883a 	mov	r17,r16
 1004a14:	85003136 	bltu	r16,r20,1004adc <__sfvwrite_r+0x428>
 1004a18:	91c00517 	ldw	r7,20(r18)
 1004a1c:	a1c01836 	bltu	r20,r7,1004a80 <__sfvwrite_r+0x3cc>
 1004a20:	90c00917 	ldw	r3,36(r18)
 1004a24:	91400717 	ldw	r5,28(r18)
 1004a28:	e009883a 	mov	r4,fp
 1004a2c:	b80d883a 	mov	r6,r23
 1004a30:	183ee83a 	callr	r3
 1004a34:	1021883a 	mov	r16,r2
 1004a38:	00bfb30e 	bge	zero,r2,1004908 <__sfvwrite_r+0x254>
 1004a3c:	1023883a 	mov	r17,r2
 1004a40:	1027883a 	mov	r19,r2
 1004a44:	003f9b06 	br	10048b4 <__sfvwrite_r+0x200>
 1004a48:	b80b883a 	mov	r5,r23
 1004a4c:	800d883a 	mov	r6,r16
 1004a50:	10057ec0 	call	10057ec <memmove>
 1004a54:	90c00217 	ldw	r3,8(r18)
 1004a58:	90800017 	ldw	r2,0(r18)
 1004a5c:	8023883a 	mov	r17,r16
 1004a60:	1c07c83a 	sub	r3,r3,r16
 1004a64:	1405883a 	add	r2,r2,r16
 1004a68:	90c00215 	stw	r3,8(r18)
 1004a6c:	90800015 	stw	r2,0(r18)
 1004a70:	003fc406 	br	1004984 <__sfvwrite_r+0x2d0>
 1004a74:	a00d883a 	mov	r6,r20
 1004a78:	a021883a 	mov	r16,r20
 1004a7c:	003f8106 	br	1004884 <__sfvwrite_r+0x1d0>
 1004a80:	b80b883a 	mov	r5,r23
 1004a84:	a00d883a 	mov	r6,r20
 1004a88:	10057ec0 	call	10057ec <memmove>
 1004a8c:	90c00217 	ldw	r3,8(r18)
 1004a90:	90800017 	ldw	r2,0(r18)
 1004a94:	a021883a 	mov	r16,r20
 1004a98:	1d07c83a 	sub	r3,r3,r20
 1004a9c:	1505883a 	add	r2,r2,r20
 1004aa0:	a023883a 	mov	r17,r20
 1004aa4:	a027883a 	mov	r19,r20
 1004aa8:	90c00215 	stw	r3,8(r18)
 1004aac:	90800015 	stw	r2,0(r18)
 1004ab0:	003f8006 	br	10048b4 <__sfvwrite_r+0x200>
 1004ab4:	b809883a 	mov	r4,r23
 1004ab8:	01400284 	movi	r5,10
 1004abc:	980d883a 	mov	r6,r19
 1004ac0:	10056680 	call	1005668 <memchr>
 1004ac4:	10001726 	beq	r2,zero,1004b24 <__sfvwrite_r+0x470>
 1004ac8:	15c5c83a 	sub	r2,r2,r23
 1004acc:	15000044 	addi	r20,r2,1
 1004ad0:	00800044 	movi	r2,1
 1004ad4:	d8800015 	stw	r2,0(sp)
 1004ad8:	003f9806 	br	100493c <__sfvwrite_r+0x288>
 1004adc:	b80b883a 	mov	r5,r23
 1004ae0:	800d883a 	mov	r6,r16
 1004ae4:	10057ec0 	call	10057ec <memmove>
 1004ae8:	90c00017 	ldw	r3,0(r18)
 1004aec:	e009883a 	mov	r4,fp
 1004af0:	900b883a 	mov	r5,r18
 1004af4:	1c07883a 	add	r3,r3,r16
 1004af8:	90c00015 	stw	r3,0(r18)
 1004afc:	8027883a 	mov	r19,r16
 1004b00:	1003d500 	call	1003d50 <_fflush_r>
 1004b04:	103f6b26 	beq	r2,zero,10048b4 <__sfvwrite_r+0x200>
 1004b08:	003f7f06 	br	1004908 <__sfvwrite_r+0x254>
 1004b0c:	400b883a 	mov	r5,r8
 1004b10:	e009883a 	mov	r4,fp
 1004b14:	10069f00 	call	10069f0 <_realloc_r>
 1004b18:	103f7626 	beq	r2,zero,10048f4 <__sfvwrite_r+0x240>
 1004b1c:	1023883a 	mov	r17,r2
 1004b20:	003f5006 	br	1004864 <__sfvwrite_r+0x1b0>
 1004b24:	00c00044 	movi	r3,1
 1004b28:	9d000044 	addi	r20,r19,1
 1004b2c:	d8c00015 	stw	r3,0(sp)
 1004b30:	003f8206 	br	100493c <__sfvwrite_r+0x288>
 1004b34:	9080030b 	ldhu	r2,12(r18)
 1004b38:	00c00244 	movi	r3,9
 1004b3c:	013fffc4 	movi	r4,-1
 1004b40:	10801014 	ori	r2,r2,64
 1004b44:	9080030d 	sth	r2,12(r18)
 1004b48:	e0c00015 	stw	r3,0(fp)
 1004b4c:	003f0606 	br	1004768 <__sfvwrite_r+0xb4>

01004b50 <_fwalk_reent>:
 1004b50:	defff704 	addi	sp,sp,-36
 1004b54:	dcc00315 	stw	r19,12(sp)
 1004b58:	24c0b804 	addi	r19,r4,736
 1004b5c:	dd800615 	stw	r22,24(sp)
 1004b60:	dd400515 	stw	r21,20(sp)
 1004b64:	dfc00815 	stw	ra,32(sp)
 1004b68:	ddc00715 	stw	r23,28(sp)
 1004b6c:	dd000415 	stw	r20,16(sp)
 1004b70:	dc800215 	stw	r18,8(sp)
 1004b74:	dc400115 	stw	r17,4(sp)
 1004b78:	dc000015 	stw	r16,0(sp)
 1004b7c:	202b883a 	mov	r21,r4
 1004b80:	282d883a 	mov	r22,r5
 1004b84:	1003fd80 	call	1003fd8 <__sfp_lock_acquire>
 1004b88:	98002126 	beq	r19,zero,1004c10 <_fwalk_reent+0xc0>
 1004b8c:	002f883a 	mov	r23,zero
 1004b90:	9c800117 	ldw	r18,4(r19)
 1004b94:	9c000217 	ldw	r16,8(r19)
 1004b98:	90bfffc4 	addi	r2,r18,-1
 1004b9c:	10000d16 	blt	r2,zero,1004bd4 <_fwalk_reent+0x84>
 1004ba0:	0023883a 	mov	r17,zero
 1004ba4:	053fffc4 	movi	r20,-1
 1004ba8:	8080030f 	ldh	r2,12(r16)
 1004bac:	8c400044 	addi	r17,r17,1
 1004bb0:	10000626 	beq	r2,zero,1004bcc <_fwalk_reent+0x7c>
 1004bb4:	8080038f 	ldh	r2,14(r16)
 1004bb8:	800b883a 	mov	r5,r16
 1004bbc:	a809883a 	mov	r4,r21
 1004bc0:	15000226 	beq	r2,r20,1004bcc <_fwalk_reent+0x7c>
 1004bc4:	b03ee83a 	callr	r22
 1004bc8:	b8aeb03a 	or	r23,r23,r2
 1004bcc:	84001704 	addi	r16,r16,92
 1004bd0:	947ff51e 	bne	r18,r17,1004ba8 <_fwalk_reent+0x58>
 1004bd4:	9cc00017 	ldw	r19,0(r19)
 1004bd8:	983fed1e 	bne	r19,zero,1004b90 <_fwalk_reent+0x40>
 1004bdc:	1003fdc0 	call	1003fdc <__sfp_lock_release>
 1004be0:	b805883a 	mov	r2,r23
 1004be4:	dfc00817 	ldw	ra,32(sp)
 1004be8:	ddc00717 	ldw	r23,28(sp)
 1004bec:	dd800617 	ldw	r22,24(sp)
 1004bf0:	dd400517 	ldw	r21,20(sp)
 1004bf4:	dd000417 	ldw	r20,16(sp)
 1004bf8:	dcc00317 	ldw	r19,12(sp)
 1004bfc:	dc800217 	ldw	r18,8(sp)
 1004c00:	dc400117 	ldw	r17,4(sp)
 1004c04:	dc000017 	ldw	r16,0(sp)
 1004c08:	dec00904 	addi	sp,sp,36
 1004c0c:	f800283a 	ret
 1004c10:	002f883a 	mov	r23,zero
 1004c14:	003ff106 	br	1004bdc <_fwalk_reent+0x8c>

01004c18 <_fwalk>:
 1004c18:	defff804 	addi	sp,sp,-32
 1004c1c:	dcc00315 	stw	r19,12(sp)
 1004c20:	24c0b804 	addi	r19,r4,736
 1004c24:	dd400515 	stw	r21,20(sp)
 1004c28:	dfc00715 	stw	ra,28(sp)
 1004c2c:	dd800615 	stw	r22,24(sp)
 1004c30:	dd000415 	stw	r20,16(sp)
 1004c34:	dc800215 	stw	r18,8(sp)
 1004c38:	dc400115 	stw	r17,4(sp)
 1004c3c:	dc000015 	stw	r16,0(sp)
 1004c40:	282b883a 	mov	r21,r5
 1004c44:	1003fd80 	call	1003fd8 <__sfp_lock_acquire>
 1004c48:	98001f26 	beq	r19,zero,1004cc8 <_fwalk+0xb0>
 1004c4c:	002d883a 	mov	r22,zero
 1004c50:	9c800117 	ldw	r18,4(r19)
 1004c54:	9c000217 	ldw	r16,8(r19)
 1004c58:	90bfffc4 	addi	r2,r18,-1
 1004c5c:	10000c16 	blt	r2,zero,1004c90 <_fwalk+0x78>
 1004c60:	0023883a 	mov	r17,zero
 1004c64:	053fffc4 	movi	r20,-1
 1004c68:	8080030f 	ldh	r2,12(r16)
 1004c6c:	8c400044 	addi	r17,r17,1
 1004c70:	10000526 	beq	r2,zero,1004c88 <_fwalk+0x70>
 1004c74:	8080038f 	ldh	r2,14(r16)
 1004c78:	8009883a 	mov	r4,r16
 1004c7c:	15000226 	beq	r2,r20,1004c88 <_fwalk+0x70>
 1004c80:	a83ee83a 	callr	r21
 1004c84:	b0acb03a 	or	r22,r22,r2
 1004c88:	84001704 	addi	r16,r16,92
 1004c8c:	947ff61e 	bne	r18,r17,1004c68 <_fwalk+0x50>
 1004c90:	9cc00017 	ldw	r19,0(r19)
 1004c94:	983fee1e 	bne	r19,zero,1004c50 <_fwalk+0x38>
 1004c98:	1003fdc0 	call	1003fdc <__sfp_lock_release>
 1004c9c:	b005883a 	mov	r2,r22
 1004ca0:	dfc00717 	ldw	ra,28(sp)
 1004ca4:	dd800617 	ldw	r22,24(sp)
 1004ca8:	dd400517 	ldw	r21,20(sp)
 1004cac:	dd000417 	ldw	r20,16(sp)
 1004cb0:	dcc00317 	ldw	r19,12(sp)
 1004cb4:	dc800217 	ldw	r18,8(sp)
 1004cb8:	dc400117 	ldw	r17,4(sp)
 1004cbc:	dc000017 	ldw	r16,0(sp)
 1004cc0:	dec00804 	addi	sp,sp,32
 1004cc4:	f800283a 	ret
 1004cc8:	002d883a 	mov	r22,zero
 1004ccc:	003ff206 	br	1004c98 <_fwalk+0x80>

01004cd0 <__locale_charset>:
 1004cd0:	d0a00317 	ldw	r2,-32756(gp)
 1004cd4:	f800283a 	ret

01004cd8 <_localeconv_r>:
 1004cd8:	00804074 	movhi	r2,257
 1004cdc:	10b53804 	addi	r2,r2,-11040
 1004ce0:	f800283a 	ret

01004ce4 <localeconv>:
 1004ce4:	00804074 	movhi	r2,257
 1004ce8:	10bc8804 	addi	r2,r2,-3552
 1004cec:	11000017 	ldw	r4,0(r2)
 1004cf0:	1004cd81 	jmpi	1004cd8 <_localeconv_r>

01004cf4 <_setlocale_r>:
 1004cf4:	defffc04 	addi	sp,sp,-16
 1004cf8:	00c04074 	movhi	r3,257
 1004cfc:	18f53304 	addi	r3,r3,-11060
 1004d00:	dc800215 	stw	r18,8(sp)
 1004d04:	dc400115 	stw	r17,4(sp)
 1004d08:	dc000015 	stw	r16,0(sp)
 1004d0c:	2023883a 	mov	r17,r4
 1004d10:	2825883a 	mov	r18,r5
 1004d14:	dfc00315 	stw	ra,12(sp)
 1004d18:	3021883a 	mov	r16,r6
 1004d1c:	3009883a 	mov	r4,r6
 1004d20:	180b883a 	mov	r5,r3
 1004d24:	30000926 	beq	r6,zero,1004d4c <_setlocale_r+0x58>
 1004d28:	10072100 	call	1007210 <strcmp>
 1004d2c:	8009883a 	mov	r4,r16
 1004d30:	01404074 	movhi	r5,257
 1004d34:	29751e04 	addi	r5,r5,-11144
 1004d38:	10000b1e 	bne	r2,zero,1004d68 <_setlocale_r+0x74>
 1004d3c:	8c000d15 	stw	r16,52(r17)
 1004d40:	8c800c15 	stw	r18,48(r17)
 1004d44:	00c04074 	movhi	r3,257
 1004d48:	18f53304 	addi	r3,r3,-11060
 1004d4c:	1805883a 	mov	r2,r3
 1004d50:	dfc00317 	ldw	ra,12(sp)
 1004d54:	dc800217 	ldw	r18,8(sp)
 1004d58:	dc400117 	ldw	r17,4(sp)
 1004d5c:	dc000017 	ldw	r16,0(sp)
 1004d60:	dec00404 	addi	sp,sp,16
 1004d64:	f800283a 	ret
 1004d68:	10072100 	call	1007210 <strcmp>
 1004d6c:	0007883a 	mov	r3,zero
 1004d70:	103ff226 	beq	r2,zero,1004d3c <_setlocale_r+0x48>
 1004d74:	003ff506 	br	1004d4c <_setlocale_r+0x58>

01004d78 <setlocale>:
 1004d78:	01804074 	movhi	r6,257
 1004d7c:	31bc8804 	addi	r6,r6,-3552
 1004d80:	2007883a 	mov	r3,r4
 1004d84:	31000017 	ldw	r4,0(r6)
 1004d88:	280d883a 	mov	r6,r5
 1004d8c:	180b883a 	mov	r5,r3
 1004d90:	1004cf41 	jmpi	1004cf4 <_setlocale_r>

01004d94 <__smakebuf_r>:
 1004d94:	2880030b 	ldhu	r2,12(r5)
 1004d98:	deffed04 	addi	sp,sp,-76
 1004d9c:	dc401015 	stw	r17,64(sp)
 1004da0:	1080008c 	andi	r2,r2,2
 1004da4:	dc000f15 	stw	r16,60(sp)
 1004da8:	dfc01215 	stw	ra,72(sp)
 1004dac:	dc801115 	stw	r18,68(sp)
 1004db0:	2821883a 	mov	r16,r5
 1004db4:	2023883a 	mov	r17,r4
 1004db8:	10000b26 	beq	r2,zero,1004de8 <__smakebuf_r+0x54>
 1004dbc:	28c010c4 	addi	r3,r5,67
 1004dc0:	00800044 	movi	r2,1
 1004dc4:	28800515 	stw	r2,20(r5)
 1004dc8:	28c00415 	stw	r3,16(r5)
 1004dcc:	28c00015 	stw	r3,0(r5)
 1004dd0:	dfc01217 	ldw	ra,72(sp)
 1004dd4:	dc801117 	ldw	r18,68(sp)
 1004dd8:	dc401017 	ldw	r17,64(sp)
 1004ddc:	dc000f17 	ldw	r16,60(sp)
 1004de0:	dec01304 	addi	sp,sp,76
 1004de4:	f800283a 	ret
 1004de8:	2940038f 	ldh	r5,14(r5)
 1004dec:	28002116 	blt	r5,zero,1004e74 <__smakebuf_r+0xe0>
 1004df0:	d80d883a 	mov	r6,sp
 1004df4:	10076140 	call	1007614 <_fstat_r>
 1004df8:	10001e16 	blt	r2,zero,1004e74 <__smakebuf_r+0xe0>
 1004dfc:	d8800117 	ldw	r2,4(sp)
 1004e00:	00e00014 	movui	r3,32768
 1004e04:	113c000c 	andi	r4,r2,61440
 1004e08:	20c03126 	beq	r4,r3,1004ed0 <__smakebuf_r+0x13c>
 1004e0c:	8080030b 	ldhu	r2,12(r16)
 1004e10:	00c80004 	movi	r3,8192
 1004e14:	10820014 	ori	r2,r2,2048
 1004e18:	8080030d 	sth	r2,12(r16)
 1004e1c:	20c01e26 	beq	r4,r3,1004e98 <__smakebuf_r+0x104>
 1004e20:	04810004 	movi	r18,1024
 1004e24:	8809883a 	mov	r4,r17
 1004e28:	900b883a 	mov	r5,r18
 1004e2c:	1004f280 	call	1004f28 <_malloc_r>
 1004e30:	1009883a 	mov	r4,r2
 1004e34:	10003126 	beq	r2,zero,1004efc <__smakebuf_r+0x168>
 1004e38:	80c0030b 	ldhu	r3,12(r16)
 1004e3c:	00804034 	movhi	r2,256
 1004e40:	10903304 	addi	r2,r2,16588
 1004e44:	88800f15 	stw	r2,60(r17)
 1004e48:	18c02014 	ori	r3,r3,128
 1004e4c:	84800515 	stw	r18,20(r16)
 1004e50:	80c0030d 	sth	r3,12(r16)
 1004e54:	81000415 	stw	r4,16(r16)
 1004e58:	81000015 	stw	r4,0(r16)
 1004e5c:	dfc01217 	ldw	ra,72(sp)
 1004e60:	dc801117 	ldw	r18,68(sp)
 1004e64:	dc401017 	ldw	r17,64(sp)
 1004e68:	dc000f17 	ldw	r16,60(sp)
 1004e6c:	dec01304 	addi	sp,sp,76
 1004e70:	f800283a 	ret
 1004e74:	80c0030b 	ldhu	r3,12(r16)
 1004e78:	1880200c 	andi	r2,r3,128
 1004e7c:	10000426 	beq	r2,zero,1004e90 <__smakebuf_r+0xfc>
 1004e80:	04801004 	movi	r18,64
 1004e84:	18820014 	ori	r2,r3,2048
 1004e88:	8080030d 	sth	r2,12(r16)
 1004e8c:	003fe506 	br	1004e24 <__smakebuf_r+0x90>
 1004e90:	04810004 	movi	r18,1024
 1004e94:	003ffb06 	br	1004e84 <__smakebuf_r+0xf0>
 1004e98:	8140038f 	ldh	r5,14(r16)
 1004e9c:	8809883a 	mov	r4,r17
 1004ea0:	10076880 	call	1007688 <_isatty_r>
 1004ea4:	103fde26 	beq	r2,zero,1004e20 <__smakebuf_r+0x8c>
 1004ea8:	8080030b 	ldhu	r2,12(r16)
 1004eac:	80c010c4 	addi	r3,r16,67
 1004eb0:	04810004 	movi	r18,1024
 1004eb4:	10800054 	ori	r2,r2,1
 1004eb8:	8080030d 	sth	r2,12(r16)
 1004ebc:	00800044 	movi	r2,1
 1004ec0:	80c00415 	stw	r3,16(r16)
 1004ec4:	80800515 	stw	r2,20(r16)
 1004ec8:	80c00015 	stw	r3,0(r16)
 1004ecc:	003fd506 	br	1004e24 <__smakebuf_r+0x90>
 1004ed0:	80c00a17 	ldw	r3,40(r16)
 1004ed4:	00804034 	movhi	r2,256
 1004ed8:	109c3304 	addi	r2,r2,28876
 1004edc:	18bfcb1e 	bne	r3,r2,1004e0c <__smakebuf_r+0x78>
 1004ee0:	8080030b 	ldhu	r2,12(r16)
 1004ee4:	00c10004 	movi	r3,1024
 1004ee8:	1825883a 	mov	r18,r3
 1004eec:	10c4b03a 	or	r2,r2,r3
 1004ef0:	8080030d 	sth	r2,12(r16)
 1004ef4:	80c01315 	stw	r3,76(r16)
 1004ef8:	003fca06 	br	1004e24 <__smakebuf_r+0x90>
 1004efc:	8100030b 	ldhu	r4,12(r16)
 1004f00:	2080800c 	andi	r2,r4,512
 1004f04:	103fb21e 	bne	r2,zero,1004dd0 <__smakebuf_r+0x3c>
 1004f08:	80c010c4 	addi	r3,r16,67
 1004f0c:	21000094 	ori	r4,r4,2
 1004f10:	00800044 	movi	r2,1
 1004f14:	80800515 	stw	r2,20(r16)
 1004f18:	8100030d 	sth	r4,12(r16)
 1004f1c:	80c00415 	stw	r3,16(r16)
 1004f20:	80c00015 	stw	r3,0(r16)
 1004f24:	003faa06 	br	1004dd0 <__smakebuf_r+0x3c>

01004f28 <_malloc_r>:
 1004f28:	defff604 	addi	sp,sp,-40
 1004f2c:	28c002c4 	addi	r3,r5,11
 1004f30:	00800584 	movi	r2,22
 1004f34:	dc800215 	stw	r18,8(sp)
 1004f38:	dfc00915 	stw	ra,36(sp)
 1004f3c:	df000815 	stw	fp,32(sp)
 1004f40:	ddc00715 	stw	r23,28(sp)
 1004f44:	dd800615 	stw	r22,24(sp)
 1004f48:	dd400515 	stw	r21,20(sp)
 1004f4c:	dd000415 	stw	r20,16(sp)
 1004f50:	dcc00315 	stw	r19,12(sp)
 1004f54:	dc400115 	stw	r17,4(sp)
 1004f58:	dc000015 	stw	r16,0(sp)
 1004f5c:	2025883a 	mov	r18,r4
 1004f60:	10c01236 	bltu	r2,r3,1004fac <_malloc_r+0x84>
 1004f64:	04400404 	movi	r17,16
 1004f68:	8940142e 	bgeu	r17,r5,1004fbc <_malloc_r+0x94>
 1004f6c:	00800304 	movi	r2,12
 1004f70:	0007883a 	mov	r3,zero
 1004f74:	90800015 	stw	r2,0(r18)
 1004f78:	1805883a 	mov	r2,r3
 1004f7c:	dfc00917 	ldw	ra,36(sp)
 1004f80:	df000817 	ldw	fp,32(sp)
 1004f84:	ddc00717 	ldw	r23,28(sp)
 1004f88:	dd800617 	ldw	r22,24(sp)
 1004f8c:	dd400517 	ldw	r21,20(sp)
 1004f90:	dd000417 	ldw	r20,16(sp)
 1004f94:	dcc00317 	ldw	r19,12(sp)
 1004f98:	dc800217 	ldw	r18,8(sp)
 1004f9c:	dc400117 	ldw	r17,4(sp)
 1004fa0:	dc000017 	ldw	r16,0(sp)
 1004fa4:	dec00a04 	addi	sp,sp,40
 1004fa8:	f800283a 	ret
 1004fac:	00bffe04 	movi	r2,-8
 1004fb0:	18a2703a 	and	r17,r3,r2
 1004fb4:	883fed16 	blt	r17,zero,1004f6c <_malloc_r+0x44>
 1004fb8:	897fec36 	bltu	r17,r5,1004f6c <_malloc_r+0x44>
 1004fbc:	9009883a 	mov	r4,r18
 1004fc0:	100a4b00 	call	100a4b0 <__malloc_lock>
 1004fc4:	00807dc4 	movi	r2,503
 1004fc8:	14402b2e 	bgeu	r2,r17,1005078 <_malloc_r+0x150>
 1004fcc:	8806d27a 	srli	r3,r17,9
 1004fd0:	18003f1e 	bne	r3,zero,10050d0 <_malloc_r+0x1a8>
 1004fd4:	880cd0fa 	srli	r6,r17,3
 1004fd8:	300490fa 	slli	r2,r6,3
 1004fdc:	02c04074 	movhi	r11,257
 1004fe0:	5af6ee04 	addi	r11,r11,-9288
 1004fe4:	12cb883a 	add	r5,r2,r11
 1004fe8:	2c000317 	ldw	r16,12(r5)
 1004fec:	580f883a 	mov	r7,r11
 1004ff0:	2c00041e 	bne	r5,r16,1005004 <_malloc_r+0xdc>
 1004ff4:	00000a06 	br	1005020 <_malloc_r+0xf8>
 1004ff8:	1800860e 	bge	r3,zero,1005214 <_malloc_r+0x2ec>
 1004ffc:	84000317 	ldw	r16,12(r16)
 1005000:	2c000726 	beq	r5,r16,1005020 <_malloc_r+0xf8>
 1005004:	80800117 	ldw	r2,4(r16)
 1005008:	00ffff04 	movi	r3,-4
 100500c:	10c8703a 	and	r4,r2,r3
 1005010:	2447c83a 	sub	r3,r4,r17
 1005014:	008003c4 	movi	r2,15
 1005018:	10fff70e 	bge	r2,r3,1004ff8 <_malloc_r+0xd0>
 100501c:	31bfffc4 	addi	r6,r6,-1
 1005020:	32400044 	addi	r9,r6,1
 1005024:	02804074 	movhi	r10,257
 1005028:	52b6f004 	addi	r10,r10,-9280
 100502c:	54000217 	ldw	r16,8(r10)
 1005030:	8280a026 	beq	r16,r10,10052b4 <_malloc_r+0x38c>
 1005034:	80800117 	ldw	r2,4(r16)
 1005038:	00ffff04 	movi	r3,-4
 100503c:	10ca703a 	and	r5,r2,r3
 1005040:	2c4dc83a 	sub	r6,r5,r17
 1005044:	008003c4 	movi	r2,15
 1005048:	11808316 	blt	r2,r6,1005258 <_malloc_r+0x330>
 100504c:	52800315 	stw	r10,12(r10)
 1005050:	52800215 	stw	r10,8(r10)
 1005054:	30002916 	blt	r6,zero,10050fc <_malloc_r+0x1d4>
 1005058:	8147883a 	add	r3,r16,r5
 100505c:	18800117 	ldw	r2,4(r3)
 1005060:	9009883a 	mov	r4,r18
 1005064:	10800054 	ori	r2,r2,1
 1005068:	18800115 	stw	r2,4(r3)
 100506c:	100a4d00 	call	100a4d0 <__malloc_unlock>
 1005070:	80c00204 	addi	r3,r16,8
 1005074:	003fc006 	br	1004f78 <_malloc_r+0x50>
 1005078:	02c04074 	movhi	r11,257
 100507c:	5af6ee04 	addi	r11,r11,-9288
 1005080:	8ac5883a 	add	r2,r17,r11
 1005084:	14000317 	ldw	r16,12(r2)
 1005088:	580f883a 	mov	r7,r11
 100508c:	8806d0fa 	srli	r3,r17,3
 1005090:	14006c26 	beq	r2,r16,1005244 <_malloc_r+0x31c>
 1005094:	80c00117 	ldw	r3,4(r16)
 1005098:	00bfff04 	movi	r2,-4
 100509c:	81800317 	ldw	r6,12(r16)
 10050a0:	1886703a 	and	r3,r3,r2
 10050a4:	80c7883a 	add	r3,r16,r3
 10050a8:	18800117 	ldw	r2,4(r3)
 10050ac:	81400217 	ldw	r5,8(r16)
 10050b0:	9009883a 	mov	r4,r18
 10050b4:	10800054 	ori	r2,r2,1
 10050b8:	18800115 	stw	r2,4(r3)
 10050bc:	31400215 	stw	r5,8(r6)
 10050c0:	29800315 	stw	r6,12(r5)
 10050c4:	100a4d00 	call	100a4d0 <__malloc_unlock>
 10050c8:	80c00204 	addi	r3,r16,8
 10050cc:	003faa06 	br	1004f78 <_malloc_r+0x50>
 10050d0:	00800104 	movi	r2,4
 10050d4:	10c0052e 	bgeu	r2,r3,10050ec <_malloc_r+0x1c4>
 10050d8:	00800504 	movi	r2,20
 10050dc:	10c07836 	bltu	r2,r3,10052c0 <_malloc_r+0x398>
 10050e0:	198016c4 	addi	r6,r3,91
 10050e4:	300490fa 	slli	r2,r6,3
 10050e8:	003fbc06 	br	1004fdc <_malloc_r+0xb4>
 10050ec:	8804d1ba 	srli	r2,r17,6
 10050f0:	11800e04 	addi	r6,r2,56
 10050f4:	300490fa 	slli	r2,r6,3
 10050f8:	003fb806 	br	1004fdc <_malloc_r+0xb4>
 10050fc:	00807fc4 	movi	r2,511
 1005100:	1140bb36 	bltu	r2,r5,10053f0 <_malloc_r+0x4c8>
 1005104:	2806d0fa 	srli	r3,r5,3
 1005108:	573ffe04 	addi	fp,r10,-8
 100510c:	00800044 	movi	r2,1
 1005110:	180890fa 	slli	r4,r3,3
 1005114:	1807d0ba 	srai	r3,r3,2
 1005118:	e1c00117 	ldw	r7,4(fp)
 100511c:	5909883a 	add	r4,r11,r4
 1005120:	21400217 	ldw	r5,8(r4)
 1005124:	10c4983a 	sll	r2,r2,r3
 1005128:	81000315 	stw	r4,12(r16)
 100512c:	81400215 	stw	r5,8(r16)
 1005130:	388eb03a 	or	r7,r7,r2
 1005134:	2c000315 	stw	r16,12(r5)
 1005138:	24000215 	stw	r16,8(r4)
 100513c:	e1c00115 	stw	r7,4(fp)
 1005140:	4807883a 	mov	r3,r9
 1005144:	4800cd16 	blt	r9,zero,100547c <_malloc_r+0x554>
 1005148:	1807d0ba 	srai	r3,r3,2
 100514c:	00800044 	movi	r2,1
 1005150:	10c8983a 	sll	r4,r2,r3
 1005154:	39004436 	bltu	r7,r4,1005268 <_malloc_r+0x340>
 1005158:	21c4703a 	and	r2,r4,r7
 100515c:	10000a1e 	bne	r2,zero,1005188 <_malloc_r+0x260>
 1005160:	2109883a 	add	r4,r4,r4
 1005164:	00bfff04 	movi	r2,-4
 1005168:	4884703a 	and	r2,r9,r2
 100516c:	3906703a 	and	r3,r7,r4
 1005170:	12400104 	addi	r9,r2,4
 1005174:	1800041e 	bne	r3,zero,1005188 <_malloc_r+0x260>
 1005178:	2109883a 	add	r4,r4,r4
 100517c:	3904703a 	and	r2,r7,r4
 1005180:	4a400104 	addi	r9,r9,4
 1005184:	103ffc26 	beq	r2,zero,1005178 <_malloc_r+0x250>
 1005188:	480490fa 	slli	r2,r9,3
 100518c:	4819883a 	mov	r12,r9
 1005190:	023fff04 	movi	r8,-4
 1005194:	589b883a 	add	r13,r11,r2
 1005198:	6807883a 	mov	r3,r13
 100519c:	014003c4 	movi	r5,15
 10051a0:	1c000317 	ldw	r16,12(r3)
 10051a4:	1c00041e 	bne	r3,r16,10051b8 <_malloc_r+0x290>
 10051a8:	0000a706 	br	1005448 <_malloc_r+0x520>
 10051ac:	3000ab0e 	bge	r6,zero,100545c <_malloc_r+0x534>
 10051b0:	84000317 	ldw	r16,12(r16)
 10051b4:	1c00a426 	beq	r3,r16,1005448 <_malloc_r+0x520>
 10051b8:	80800117 	ldw	r2,4(r16)
 10051bc:	1204703a 	and	r2,r2,r8
 10051c0:	144dc83a 	sub	r6,r2,r17
 10051c4:	29bff90e 	bge	r5,r6,10051ac <_malloc_r+0x284>
 10051c8:	81000317 	ldw	r4,12(r16)
 10051cc:	80c00217 	ldw	r3,8(r16)
 10051d0:	89400054 	ori	r5,r17,1
 10051d4:	8445883a 	add	r2,r16,r17
 10051d8:	20c00215 	stw	r3,8(r4)
 10051dc:	19000315 	stw	r4,12(r3)
 10051e0:	81400115 	stw	r5,4(r16)
 10051e4:	1187883a 	add	r3,r2,r6
 10051e8:	31000054 	ori	r4,r6,1
 10051ec:	50800315 	stw	r2,12(r10)
 10051f0:	50800215 	stw	r2,8(r10)
 10051f4:	19800015 	stw	r6,0(r3)
 10051f8:	11000115 	stw	r4,4(r2)
 10051fc:	12800215 	stw	r10,8(r2)
 1005200:	12800315 	stw	r10,12(r2)
 1005204:	9009883a 	mov	r4,r18
 1005208:	100a4d00 	call	100a4d0 <__malloc_unlock>
 100520c:	80c00204 	addi	r3,r16,8
 1005210:	003f5906 	br	1004f78 <_malloc_r+0x50>
 1005214:	8109883a 	add	r4,r16,r4
 1005218:	20800117 	ldw	r2,4(r4)
 100521c:	80c00217 	ldw	r3,8(r16)
 1005220:	81400317 	ldw	r5,12(r16)
 1005224:	10800054 	ori	r2,r2,1
 1005228:	20800115 	stw	r2,4(r4)
 100522c:	28c00215 	stw	r3,8(r5)
 1005230:	19400315 	stw	r5,12(r3)
 1005234:	9009883a 	mov	r4,r18
 1005238:	100a4d00 	call	100a4d0 <__malloc_unlock>
 100523c:	80c00204 	addi	r3,r16,8
 1005240:	003f4d06 	br	1004f78 <_malloc_r+0x50>
 1005244:	80800204 	addi	r2,r16,8
 1005248:	14000317 	ldw	r16,12(r2)
 100524c:	143f911e 	bne	r2,r16,1005094 <_malloc_r+0x16c>
 1005250:	1a400084 	addi	r9,r3,2
 1005254:	003f7306 	br	1005024 <_malloc_r+0xfc>
 1005258:	88c00054 	ori	r3,r17,1
 100525c:	8445883a 	add	r2,r16,r17
 1005260:	80c00115 	stw	r3,4(r16)
 1005264:	003fdf06 	br	10051e4 <_malloc_r+0x2bc>
 1005268:	e4000217 	ldw	r16,8(fp)
 100526c:	00bfff04 	movi	r2,-4
 1005270:	80c00117 	ldw	r3,4(r16)
 1005274:	802d883a 	mov	r22,r16
 1005278:	18aa703a 	and	r21,r3,r2
 100527c:	ac401636 	bltu	r21,r17,10052d8 <_malloc_r+0x3b0>
 1005280:	ac49c83a 	sub	r4,r21,r17
 1005284:	008003c4 	movi	r2,15
 1005288:	1100130e 	bge	r2,r4,10052d8 <_malloc_r+0x3b0>
 100528c:	88800054 	ori	r2,r17,1
 1005290:	8447883a 	add	r3,r16,r17
 1005294:	80800115 	stw	r2,4(r16)
 1005298:	20800054 	ori	r2,r4,1
 100529c:	18800115 	stw	r2,4(r3)
 10052a0:	e0c00215 	stw	r3,8(fp)
 10052a4:	9009883a 	mov	r4,r18
 10052a8:	100a4d00 	call	100a4d0 <__malloc_unlock>
 10052ac:	80c00204 	addi	r3,r16,8
 10052b0:	003f3106 	br	1004f78 <_malloc_r+0x50>
 10052b4:	39c00117 	ldw	r7,4(r7)
 10052b8:	573ffe04 	addi	fp,r10,-8
 10052bc:	003fa006 	br	1005140 <_malloc_r+0x218>
 10052c0:	00801504 	movi	r2,84
 10052c4:	10c06736 	bltu	r2,r3,1005464 <_malloc_r+0x53c>
 10052c8:	8804d33a 	srli	r2,r17,12
 10052cc:	11801b84 	addi	r6,r2,110
 10052d0:	300490fa 	slli	r2,r6,3
 10052d4:	003f4106 	br	1004fdc <_malloc_r+0xb4>
 10052d8:	d0a6c017 	ldw	r2,-25856(gp)
 10052dc:	d0e00517 	ldw	r3,-32748(gp)
 10052e0:	053fffc4 	movi	r20,-1
 10052e4:	10800404 	addi	r2,r2,16
 10052e8:	88a7883a 	add	r19,r17,r2
 10052ec:	1d000326 	beq	r3,r20,10052fc <_malloc_r+0x3d4>
 10052f0:	98c3ffc4 	addi	r3,r19,4095
 10052f4:	00bc0004 	movi	r2,-4096
 10052f8:	18a6703a 	and	r19,r3,r2
 10052fc:	9009883a 	mov	r4,r18
 1005300:	980b883a 	mov	r5,r19
 1005304:	10070540 	call	1007054 <_sbrk_r>
 1005308:	1009883a 	mov	r4,r2
 100530c:	15000426 	beq	r2,r20,1005320 <_malloc_r+0x3f8>
 1005310:	854b883a 	add	r5,r16,r21
 1005314:	1029883a 	mov	r20,r2
 1005318:	11405a2e 	bgeu	r2,r5,1005484 <_malloc_r+0x55c>
 100531c:	87000c26 	beq	r16,fp,1005350 <_malloc_r+0x428>
 1005320:	e4000217 	ldw	r16,8(fp)
 1005324:	80c00117 	ldw	r3,4(r16)
 1005328:	00bfff04 	movi	r2,-4
 100532c:	1884703a 	and	r2,r3,r2
 1005330:	14400336 	bltu	r2,r17,1005340 <_malloc_r+0x418>
 1005334:	1449c83a 	sub	r4,r2,r17
 1005338:	008003c4 	movi	r2,15
 100533c:	113fd316 	blt	r2,r4,100528c <_malloc_r+0x364>
 1005340:	9009883a 	mov	r4,r18
 1005344:	100a4d00 	call	100a4d0 <__malloc_unlock>
 1005348:	0007883a 	mov	r3,zero
 100534c:	003f0a06 	br	1004f78 <_malloc_r+0x50>
 1005350:	05c04074 	movhi	r23,257
 1005354:	bdc35204 	addi	r23,r23,3400
 1005358:	b8800017 	ldw	r2,0(r23)
 100535c:	988d883a 	add	r6,r19,r2
 1005360:	b9800015 	stw	r6,0(r23)
 1005364:	d0e00517 	ldw	r3,-32748(gp)
 1005368:	00bfffc4 	movi	r2,-1
 100536c:	18808e26 	beq	r3,r2,10055a8 <_malloc_r+0x680>
 1005370:	2145c83a 	sub	r2,r4,r5
 1005374:	3085883a 	add	r2,r6,r2
 1005378:	b8800015 	stw	r2,0(r23)
 100537c:	20c001cc 	andi	r3,r4,7
 1005380:	18005f1e 	bne	r3,zero,1005500 <_malloc_r+0x5d8>
 1005384:	000b883a 	mov	r5,zero
 1005388:	a4c5883a 	add	r2,r20,r19
 100538c:	1083ffcc 	andi	r2,r2,4095
 1005390:	00c40004 	movi	r3,4096
 1005394:	1887c83a 	sub	r3,r3,r2
 1005398:	28e7883a 	add	r19,r5,r3
 100539c:	9009883a 	mov	r4,r18
 10053a0:	980b883a 	mov	r5,r19
 10053a4:	10070540 	call	1007054 <_sbrk_r>
 10053a8:	1007883a 	mov	r3,r2
 10053ac:	00bfffc4 	movi	r2,-1
 10053b0:	18807a26 	beq	r3,r2,100559c <_malloc_r+0x674>
 10053b4:	1d05c83a 	sub	r2,r3,r20
 10053b8:	9885883a 	add	r2,r19,r2
 10053bc:	10c00054 	ori	r3,r2,1
 10053c0:	b8800017 	ldw	r2,0(r23)
 10053c4:	a021883a 	mov	r16,r20
 10053c8:	a0c00115 	stw	r3,4(r20)
 10053cc:	9885883a 	add	r2,r19,r2
 10053d0:	b8800015 	stw	r2,0(r23)
 10053d4:	e5000215 	stw	r20,8(fp)
 10053d8:	b7003626 	beq	r22,fp,10054b4 <_malloc_r+0x58c>
 10053dc:	018003c4 	movi	r6,15
 10053e0:	35404b36 	bltu	r6,r21,1005510 <_malloc_r+0x5e8>
 10053e4:	00800044 	movi	r2,1
 10053e8:	a0800115 	stw	r2,4(r20)
 10053ec:	003fcd06 	br	1005324 <_malloc_r+0x3fc>
 10053f0:	2808d27a 	srli	r4,r5,9
 10053f4:	2000371e 	bne	r4,zero,10054d4 <_malloc_r+0x5ac>
 10053f8:	2808d0fa 	srli	r4,r5,3
 10053fc:	200690fa 	slli	r3,r4,3
 1005400:	1ad1883a 	add	r8,r3,r11
 1005404:	41800217 	ldw	r6,8(r8)
 1005408:	41805b26 	beq	r8,r6,1005578 <_malloc_r+0x650>
 100540c:	30800117 	ldw	r2,4(r6)
 1005410:	00ffff04 	movi	r3,-4
 1005414:	10c4703a 	and	r2,r2,r3
 1005418:	2880022e 	bgeu	r5,r2,1005424 <_malloc_r+0x4fc>
 100541c:	31800217 	ldw	r6,8(r6)
 1005420:	41bffa1e 	bne	r8,r6,100540c <_malloc_r+0x4e4>
 1005424:	32000317 	ldw	r8,12(r6)
 1005428:	39c00117 	ldw	r7,4(r7)
 100542c:	82000315 	stw	r8,12(r16)
 1005430:	81800215 	stw	r6,8(r16)
 1005434:	07004074 	movhi	fp,257
 1005438:	e736ee04 	addi	fp,fp,-9288
 100543c:	34000315 	stw	r16,12(r6)
 1005440:	44000215 	stw	r16,8(r8)
 1005444:	003f3e06 	br	1005140 <_malloc_r+0x218>
 1005448:	63000044 	addi	r12,r12,1
 100544c:	608000cc 	andi	r2,r12,3
 1005450:	10005d26 	beq	r2,zero,10055c8 <_malloc_r+0x6a0>
 1005454:	18c00204 	addi	r3,r3,8
 1005458:	003f5106 	br	10051a0 <_malloc_r+0x278>
 100545c:	8089883a 	add	r4,r16,r2
 1005460:	003f6d06 	br	1005218 <_malloc_r+0x2f0>
 1005464:	00805504 	movi	r2,340
 1005468:	10c02036 	bltu	r2,r3,10054ec <_malloc_r+0x5c4>
 100546c:	8804d3fa 	srli	r2,r17,15
 1005470:	11801dc4 	addi	r6,r2,119
 1005474:	300490fa 	slli	r2,r6,3
 1005478:	003ed806 	br	1004fdc <_malloc_r+0xb4>
 100547c:	48c000c4 	addi	r3,r9,3
 1005480:	003f3106 	br	1005148 <_malloc_r+0x220>
 1005484:	05c04074 	movhi	r23,257
 1005488:	bdc35204 	addi	r23,r23,3400
 100548c:	b8800017 	ldw	r2,0(r23)
 1005490:	988d883a 	add	r6,r19,r2
 1005494:	b9800015 	stw	r6,0(r23)
 1005498:	293fb21e 	bne	r5,r4,1005364 <_malloc_r+0x43c>
 100549c:	2083ffcc 	andi	r2,r4,4095
 10054a0:	103fb01e 	bne	r2,zero,1005364 <_malloc_r+0x43c>
 10054a4:	e4000217 	ldw	r16,8(fp)
 10054a8:	9d45883a 	add	r2,r19,r21
 10054ac:	10800054 	ori	r2,r2,1
 10054b0:	80800115 	stw	r2,4(r16)
 10054b4:	b8c00017 	ldw	r3,0(r23)
 10054b8:	d0a6c117 	ldw	r2,-25852(gp)
 10054bc:	10c0012e 	bgeu	r2,r3,10054c4 <_malloc_r+0x59c>
 10054c0:	d0e6c115 	stw	r3,-25852(gp)
 10054c4:	d0a6c217 	ldw	r2,-25848(gp)
 10054c8:	10ff962e 	bgeu	r2,r3,1005324 <_malloc_r+0x3fc>
 10054cc:	d0e6c215 	stw	r3,-25848(gp)
 10054d0:	003f9406 	br	1005324 <_malloc_r+0x3fc>
 10054d4:	00800104 	movi	r2,4
 10054d8:	11001e36 	bltu	r2,r4,1005554 <_malloc_r+0x62c>
 10054dc:	2804d1ba 	srli	r2,r5,6
 10054e0:	11000e04 	addi	r4,r2,56
 10054e4:	200690fa 	slli	r3,r4,3
 10054e8:	003fc506 	br	1005400 <_malloc_r+0x4d8>
 10054ec:	00815504 	movi	r2,1364
 10054f0:	10c01d2e 	bgeu	r2,r3,1005568 <_malloc_r+0x640>
 10054f4:	01801f84 	movi	r6,126
 10054f8:	0080fc04 	movi	r2,1008
 10054fc:	003eb706 	br	1004fdc <_malloc_r+0xb4>
 1005500:	00800204 	movi	r2,8
 1005504:	10cbc83a 	sub	r5,r2,r3
 1005508:	2169883a 	add	r20,r4,r5
 100550c:	003f9e06 	br	1005388 <_malloc_r+0x460>
 1005510:	00bffe04 	movi	r2,-8
 1005514:	a93ffd04 	addi	r4,r21,-12
 1005518:	2088703a 	and	r4,r4,r2
 100551c:	b10b883a 	add	r5,r22,r4
 1005520:	00c00144 	movi	r3,5
 1005524:	28c00215 	stw	r3,8(r5)
 1005528:	28c00115 	stw	r3,4(r5)
 100552c:	b0800117 	ldw	r2,4(r22)
 1005530:	1080004c 	andi	r2,r2,1
 1005534:	2084b03a 	or	r2,r4,r2
 1005538:	b0800115 	stw	r2,4(r22)
 100553c:	313fdd2e 	bgeu	r6,r4,10054b4 <_malloc_r+0x58c>
 1005540:	b1400204 	addi	r5,r22,8
 1005544:	9009883a 	mov	r4,r18
 1005548:	10043a00 	call	10043a0 <_free_r>
 100554c:	e4000217 	ldw	r16,8(fp)
 1005550:	003fd806 	br	10054b4 <_malloc_r+0x58c>
 1005554:	00800504 	movi	r2,20
 1005558:	11001536 	bltu	r2,r4,10055b0 <_malloc_r+0x688>
 100555c:	210016c4 	addi	r4,r4,91
 1005560:	200690fa 	slli	r3,r4,3
 1005564:	003fa606 	br	1005400 <_malloc_r+0x4d8>
 1005568:	8804d4ba 	srli	r2,r17,18
 100556c:	11801f04 	addi	r6,r2,124
 1005570:	300490fa 	slli	r2,r6,3
 1005574:	003e9906 	br	1004fdc <_malloc_r+0xb4>
 1005578:	2009d0ba 	srai	r4,r4,2
 100557c:	01404074 	movhi	r5,257
 1005580:	2976ee04 	addi	r5,r5,-9288
 1005584:	00c00044 	movi	r3,1
 1005588:	28800117 	ldw	r2,4(r5)
 100558c:	1906983a 	sll	r3,r3,r4
 1005590:	10c4b03a 	or	r2,r2,r3
 1005594:	28800115 	stw	r2,4(r5)
 1005598:	003fa306 	br	1005428 <_malloc_r+0x500>
 100559c:	0027883a 	mov	r19,zero
 10055a0:	00c00044 	movi	r3,1
 10055a4:	003f8606 	br	10053c0 <_malloc_r+0x498>
 10055a8:	d1200515 	stw	r4,-32748(gp)
 10055ac:	003f7306 	br	100537c <_malloc_r+0x454>
 10055b0:	00801504 	movi	r2,84
 10055b4:	11001936 	bltu	r2,r4,100561c <_malloc_r+0x6f4>
 10055b8:	2804d33a 	srli	r2,r5,12
 10055bc:	11001b84 	addi	r4,r2,110
 10055c0:	200690fa 	slli	r3,r4,3
 10055c4:	003f8e06 	br	1005400 <_malloc_r+0x4d8>
 10055c8:	480b883a 	mov	r5,r9
 10055cc:	6807883a 	mov	r3,r13
 10055d0:	288000cc 	andi	r2,r5,3
 10055d4:	18fffe04 	addi	r3,r3,-8
 10055d8:	297fffc4 	addi	r5,r5,-1
 10055dc:	10001526 	beq	r2,zero,1005634 <_malloc_r+0x70c>
 10055e0:	18800217 	ldw	r2,8(r3)
 10055e4:	10fffa26 	beq	r2,r3,10055d0 <_malloc_r+0x6a8>
 10055e8:	2109883a 	add	r4,r4,r4
 10055ec:	393f1e36 	bltu	r7,r4,1005268 <_malloc_r+0x340>
 10055f0:	203f1d26 	beq	r4,zero,1005268 <_malloc_r+0x340>
 10055f4:	21c4703a 	and	r2,r4,r7
 10055f8:	10000226 	beq	r2,zero,1005604 <_malloc_r+0x6dc>
 10055fc:	6013883a 	mov	r9,r12
 1005600:	003ee106 	br	1005188 <_malloc_r+0x260>
 1005604:	2109883a 	add	r4,r4,r4
 1005608:	3904703a 	and	r2,r7,r4
 100560c:	63000104 	addi	r12,r12,4
 1005610:	103ffc26 	beq	r2,zero,1005604 <_malloc_r+0x6dc>
 1005614:	6013883a 	mov	r9,r12
 1005618:	003edb06 	br	1005188 <_malloc_r+0x260>
 100561c:	00805504 	movi	r2,340
 1005620:	11000836 	bltu	r2,r4,1005644 <_malloc_r+0x71c>
 1005624:	2804d3fa 	srli	r2,r5,15
 1005628:	11001dc4 	addi	r4,r2,119
 100562c:	200690fa 	slli	r3,r4,3
 1005630:	003f7306 	br	1005400 <_malloc_r+0x4d8>
 1005634:	0104303a 	nor	r2,zero,r4
 1005638:	388e703a 	and	r7,r7,r2
 100563c:	e1c00115 	stw	r7,4(fp)
 1005640:	003fe906 	br	10055e8 <_malloc_r+0x6c0>
 1005644:	00815504 	movi	r2,1364
 1005648:	1100032e 	bgeu	r2,r4,1005658 <_malloc_r+0x730>
 100564c:	01001f84 	movi	r4,126
 1005650:	00c0fc04 	movi	r3,1008
 1005654:	003f6a06 	br	1005400 <_malloc_r+0x4d8>
 1005658:	2804d4ba 	srli	r2,r5,18
 100565c:	11001f04 	addi	r4,r2,124
 1005660:	200690fa 	slli	r3,r4,3
 1005664:	003f6606 	br	1005400 <_malloc_r+0x4d8>

01005668 <memchr>:
 1005668:	008000c4 	movi	r2,3
 100566c:	29403fcc 	andi	r5,r5,255
 1005670:	2007883a 	mov	r3,r4
 1005674:	1180022e 	bgeu	r2,r6,1005680 <memchr+0x18>
 1005678:	2084703a 	and	r2,r4,r2
 100567c:	10000b26 	beq	r2,zero,10056ac <memchr+0x44>
 1005680:	313fffc4 	addi	r4,r6,-1
 1005684:	3000051e 	bne	r6,zero,100569c <memchr+0x34>
 1005688:	00002c06 	br	100573c <memchr+0xd4>
 100568c:	213fffc4 	addi	r4,r4,-1
 1005690:	00bfffc4 	movi	r2,-1
 1005694:	18c00044 	addi	r3,r3,1
 1005698:	20802826 	beq	r4,r2,100573c <memchr+0xd4>
 100569c:	18800003 	ldbu	r2,0(r3)
 10056a0:	28bffa1e 	bne	r5,r2,100568c <memchr+0x24>
 10056a4:	1805883a 	mov	r2,r3
 10056a8:	f800283a 	ret
 10056ac:	0011883a 	mov	r8,zero
 10056b0:	0007883a 	mov	r3,zero
 10056b4:	01c00104 	movi	r7,4
 10056b8:	4004923a 	slli	r2,r8,8
 10056bc:	18c00044 	addi	r3,r3,1
 10056c0:	1151883a 	add	r8,r2,r5
 10056c4:	19fffc1e 	bne	r3,r7,10056b8 <memchr+0x50>
 10056c8:	02bfbff4 	movhi	r10,65279
 10056cc:	52bfbfc4 	addi	r10,r10,-257
 10056d0:	02602074 	movhi	r9,32897
 10056d4:	4a602004 	addi	r9,r9,-32640
 10056d8:	02c000c4 	movi	r11,3
 10056dc:	20800017 	ldw	r2,0(r4)
 10056e0:	31bfff04 	addi	r6,r6,-4
 10056e4:	200f883a 	mov	r7,r4
 10056e8:	1204f03a 	xor	r2,r2,r8
 10056ec:	1287883a 	add	r3,r2,r10
 10056f0:	1a46703a 	and	r3,r3,r9
 10056f4:	0084303a 	nor	r2,zero,r2
 10056f8:	10c4703a 	and	r2,r2,r3
 10056fc:	10000b26 	beq	r2,zero,100572c <memchr+0xc4>
 1005700:	20800003 	ldbu	r2,0(r4)
 1005704:	28800f26 	beq	r5,r2,1005744 <memchr+0xdc>
 1005708:	20800043 	ldbu	r2,1(r4)
 100570c:	21c00044 	addi	r7,r4,1
 1005710:	28800c26 	beq	r5,r2,1005744 <memchr+0xdc>
 1005714:	20800083 	ldbu	r2,2(r4)
 1005718:	21c00084 	addi	r7,r4,2
 100571c:	28800926 	beq	r5,r2,1005744 <memchr+0xdc>
 1005720:	208000c3 	ldbu	r2,3(r4)
 1005724:	21c000c4 	addi	r7,r4,3
 1005728:	28800626 	beq	r5,r2,1005744 <memchr+0xdc>
 100572c:	21000104 	addi	r4,r4,4
 1005730:	59bfea36 	bltu	r11,r6,10056dc <memchr+0x74>
 1005734:	2007883a 	mov	r3,r4
 1005738:	003fd106 	br	1005680 <memchr+0x18>
 100573c:	0005883a 	mov	r2,zero
 1005740:	f800283a 	ret
 1005744:	3805883a 	mov	r2,r7
 1005748:	f800283a 	ret

0100574c <memcpy>:
 100574c:	01c003c4 	movi	r7,15
 1005750:	2007883a 	mov	r3,r4
 1005754:	3980032e 	bgeu	r7,r6,1005764 <memcpy+0x18>
 1005758:	2904b03a 	or	r2,r5,r4
 100575c:	108000cc 	andi	r2,r2,3
 1005760:	10000926 	beq	r2,zero,1005788 <memcpy+0x3c>
 1005764:	30000626 	beq	r6,zero,1005780 <memcpy+0x34>
 1005768:	30cd883a 	add	r6,r6,r3
 100576c:	28800003 	ldbu	r2,0(r5)
 1005770:	29400044 	addi	r5,r5,1
 1005774:	18800005 	stb	r2,0(r3)
 1005778:	18c00044 	addi	r3,r3,1
 100577c:	30fffb1e 	bne	r6,r3,100576c <memcpy+0x20>
 1005780:	2005883a 	mov	r2,r4
 1005784:	f800283a 	ret
 1005788:	3811883a 	mov	r8,r7
 100578c:	200f883a 	mov	r7,r4
 1005790:	28c00017 	ldw	r3,0(r5)
 1005794:	31bffc04 	addi	r6,r6,-16
 1005798:	38c00015 	stw	r3,0(r7)
 100579c:	28800117 	ldw	r2,4(r5)
 10057a0:	38800115 	stw	r2,4(r7)
 10057a4:	28c00217 	ldw	r3,8(r5)
 10057a8:	38c00215 	stw	r3,8(r7)
 10057ac:	28800317 	ldw	r2,12(r5)
 10057b0:	29400404 	addi	r5,r5,16
 10057b4:	38800315 	stw	r2,12(r7)
 10057b8:	39c00404 	addi	r7,r7,16
 10057bc:	41bff436 	bltu	r8,r6,1005790 <memcpy+0x44>
 10057c0:	008000c4 	movi	r2,3
 10057c4:	1180072e 	bgeu	r2,r6,10057e4 <memcpy+0x98>
 10057c8:	1007883a 	mov	r3,r2
 10057cc:	28800017 	ldw	r2,0(r5)
 10057d0:	31bfff04 	addi	r6,r6,-4
 10057d4:	29400104 	addi	r5,r5,4
 10057d8:	38800015 	stw	r2,0(r7)
 10057dc:	39c00104 	addi	r7,r7,4
 10057e0:	19bffa36 	bltu	r3,r6,10057cc <memcpy+0x80>
 10057e4:	3807883a 	mov	r3,r7
 10057e8:	003fde06 	br	1005764 <memcpy+0x18>

010057ec <memmove>:
 10057ec:	2807883a 	mov	r3,r5
 10057f0:	2011883a 	mov	r8,r4
 10057f4:	29000c2e 	bgeu	r5,r4,1005828 <memmove+0x3c>
 10057f8:	298f883a 	add	r7,r5,r6
 10057fc:	21c00a2e 	bgeu	r4,r7,1005828 <memmove+0x3c>
 1005800:	30000726 	beq	r6,zero,1005820 <memmove+0x34>
 1005804:	2187883a 	add	r3,r4,r6
 1005808:	198dc83a 	sub	r6,r3,r6
 100580c:	39ffffc4 	addi	r7,r7,-1
 1005810:	38800003 	ldbu	r2,0(r7)
 1005814:	18ffffc4 	addi	r3,r3,-1
 1005818:	18800005 	stb	r2,0(r3)
 100581c:	19bffb1e 	bne	r3,r6,100580c <memmove+0x20>
 1005820:	2005883a 	mov	r2,r4
 1005824:	f800283a 	ret
 1005828:	01c003c4 	movi	r7,15
 100582c:	39800a36 	bltu	r7,r6,1005858 <memmove+0x6c>
 1005830:	303ffb26 	beq	r6,zero,1005820 <memmove+0x34>
 1005834:	400f883a 	mov	r7,r8
 1005838:	320d883a 	add	r6,r6,r8
 100583c:	28800003 	ldbu	r2,0(r5)
 1005840:	29400044 	addi	r5,r5,1
 1005844:	38800005 	stb	r2,0(r7)
 1005848:	39c00044 	addi	r7,r7,1
 100584c:	39bffb1e 	bne	r7,r6,100583c <memmove+0x50>
 1005850:	2005883a 	mov	r2,r4
 1005854:	f800283a 	ret
 1005858:	1904b03a 	or	r2,r3,r4
 100585c:	108000cc 	andi	r2,r2,3
 1005860:	103ff31e 	bne	r2,zero,1005830 <memmove+0x44>
 1005864:	3811883a 	mov	r8,r7
 1005868:	180b883a 	mov	r5,r3
 100586c:	200f883a 	mov	r7,r4
 1005870:	28c00017 	ldw	r3,0(r5)
 1005874:	31bffc04 	addi	r6,r6,-16
 1005878:	38c00015 	stw	r3,0(r7)
 100587c:	28800117 	ldw	r2,4(r5)
 1005880:	38800115 	stw	r2,4(r7)
 1005884:	28c00217 	ldw	r3,8(r5)
 1005888:	38c00215 	stw	r3,8(r7)
 100588c:	28800317 	ldw	r2,12(r5)
 1005890:	29400404 	addi	r5,r5,16
 1005894:	38800315 	stw	r2,12(r7)
 1005898:	39c00404 	addi	r7,r7,16
 100589c:	41bff436 	bltu	r8,r6,1005870 <memmove+0x84>
 10058a0:	008000c4 	movi	r2,3
 10058a4:	1180072e 	bgeu	r2,r6,10058c4 <memmove+0xd8>
 10058a8:	1007883a 	mov	r3,r2
 10058ac:	28800017 	ldw	r2,0(r5)
 10058b0:	31bfff04 	addi	r6,r6,-4
 10058b4:	29400104 	addi	r5,r5,4
 10058b8:	38800015 	stw	r2,0(r7)
 10058bc:	39c00104 	addi	r7,r7,4
 10058c0:	19bffa36 	bltu	r3,r6,10058ac <memmove+0xc0>
 10058c4:	3811883a 	mov	r8,r7
 10058c8:	003fd906 	br	1005830 <memmove+0x44>

010058cc <memset>:
 10058cc:	008000c4 	movi	r2,3
 10058d0:	29403fcc 	andi	r5,r5,255
 10058d4:	2007883a 	mov	r3,r4
 10058d8:	1180022e 	bgeu	r2,r6,10058e4 <memset+0x18>
 10058dc:	2084703a 	and	r2,r4,r2
 10058e0:	10000826 	beq	r2,zero,1005904 <memset+0x38>
 10058e4:	30000526 	beq	r6,zero,10058fc <memset+0x30>
 10058e8:	2805883a 	mov	r2,r5
 10058ec:	30cd883a 	add	r6,r6,r3
 10058f0:	18800005 	stb	r2,0(r3)
 10058f4:	18c00044 	addi	r3,r3,1
 10058f8:	19bffd1e 	bne	r3,r6,10058f0 <memset+0x24>
 10058fc:	2005883a 	mov	r2,r4
 1005900:	f800283a 	ret
 1005904:	2804923a 	slli	r2,r5,8
 1005908:	020003c4 	movi	r8,15
 100590c:	200f883a 	mov	r7,r4
 1005910:	2884b03a 	or	r2,r5,r2
 1005914:	1006943a 	slli	r3,r2,16
 1005918:	10c6b03a 	or	r3,r2,r3
 100591c:	41800a2e 	bgeu	r8,r6,1005948 <memset+0x7c>
 1005920:	4005883a 	mov	r2,r8
 1005924:	31bffc04 	addi	r6,r6,-16
 1005928:	38c00015 	stw	r3,0(r7)
 100592c:	38c00115 	stw	r3,4(r7)
 1005930:	38c00215 	stw	r3,8(r7)
 1005934:	38c00315 	stw	r3,12(r7)
 1005938:	39c00404 	addi	r7,r7,16
 100593c:	11bff936 	bltu	r2,r6,1005924 <memset+0x58>
 1005940:	008000c4 	movi	r2,3
 1005944:	1180052e 	bgeu	r2,r6,100595c <memset+0x90>
 1005948:	31bfff04 	addi	r6,r6,-4
 100594c:	008000c4 	movi	r2,3
 1005950:	38c00015 	stw	r3,0(r7)
 1005954:	39c00104 	addi	r7,r7,4
 1005958:	11bffb36 	bltu	r2,r6,1005948 <memset+0x7c>
 100595c:	3807883a 	mov	r3,r7
 1005960:	003fe006 	br	10058e4 <memset+0x18>

01005964 <_Bfree>:
 1005964:	28000826 	beq	r5,zero,1005988 <_Bfree+0x24>
 1005968:	28800117 	ldw	r2,4(r5)
 100596c:	21001317 	ldw	r4,76(r4)
 1005970:	1085883a 	add	r2,r2,r2
 1005974:	1085883a 	add	r2,r2,r2
 1005978:	1105883a 	add	r2,r2,r4
 100597c:	10c00017 	ldw	r3,0(r2)
 1005980:	28c00015 	stw	r3,0(r5)
 1005984:	11400015 	stw	r5,0(r2)
 1005988:	f800283a 	ret

0100598c <__hi0bits>:
 100598c:	20bfffec 	andhi	r2,r4,65535
 1005990:	10001426 	beq	r2,zero,10059e4 <__hi0bits+0x58>
 1005994:	0007883a 	mov	r3,zero
 1005998:	20bfc02c 	andhi	r2,r4,65280
 100599c:	1000021e 	bne	r2,zero,10059a8 <__hi0bits+0x1c>
 10059a0:	2008923a 	slli	r4,r4,8
 10059a4:	18c00204 	addi	r3,r3,8
 10059a8:	20bc002c 	andhi	r2,r4,61440
 10059ac:	1000021e 	bne	r2,zero,10059b8 <__hi0bits+0x2c>
 10059b0:	2008913a 	slli	r4,r4,4
 10059b4:	18c00104 	addi	r3,r3,4
 10059b8:	20b0002c 	andhi	r2,r4,49152
 10059bc:	1000031e 	bne	r2,zero,10059cc <__hi0bits+0x40>
 10059c0:	2105883a 	add	r2,r4,r4
 10059c4:	18c00084 	addi	r3,r3,2
 10059c8:	1089883a 	add	r4,r2,r2
 10059cc:	20000316 	blt	r4,zero,10059dc <__hi0bits+0x50>
 10059d0:	2090002c 	andhi	r2,r4,16384
 10059d4:	10000626 	beq	r2,zero,10059f0 <__hi0bits+0x64>
 10059d8:	18c00044 	addi	r3,r3,1
 10059dc:	1805883a 	mov	r2,r3
 10059e0:	f800283a 	ret
 10059e4:	2008943a 	slli	r4,r4,16
 10059e8:	00c00404 	movi	r3,16
 10059ec:	003fea06 	br	1005998 <__hi0bits+0xc>
 10059f0:	00c00804 	movi	r3,32
 10059f4:	1805883a 	mov	r2,r3
 10059f8:	f800283a 	ret

010059fc <__lo0bits>:
 10059fc:	20c00017 	ldw	r3,0(r4)
 1005a00:	188001cc 	andi	r2,r3,7
 1005a04:	10000a26 	beq	r2,zero,1005a30 <__lo0bits+0x34>
 1005a08:	1880004c 	andi	r2,r3,1
 1005a0c:	1005003a 	cmpeq	r2,r2,zero
 1005a10:	10002126 	beq	r2,zero,1005a98 <__lo0bits+0x9c>
 1005a14:	1880008c 	andi	r2,r3,2
 1005a18:	1000251e 	bne	r2,zero,1005ab0 <__lo0bits+0xb4>
 1005a1c:	1804d0ba 	srli	r2,r3,2
 1005a20:	01400084 	movi	r5,2
 1005a24:	20800015 	stw	r2,0(r4)
 1005a28:	2805883a 	mov	r2,r5
 1005a2c:	f800283a 	ret
 1005a30:	18bfffcc 	andi	r2,r3,65535
 1005a34:	10001526 	beq	r2,zero,1005a8c <__lo0bits+0x90>
 1005a38:	000b883a 	mov	r5,zero
 1005a3c:	18803fcc 	andi	r2,r3,255
 1005a40:	1000021e 	bne	r2,zero,1005a4c <__lo0bits+0x50>
 1005a44:	1806d23a 	srli	r3,r3,8
 1005a48:	29400204 	addi	r5,r5,8
 1005a4c:	188003cc 	andi	r2,r3,15
 1005a50:	1000021e 	bne	r2,zero,1005a5c <__lo0bits+0x60>
 1005a54:	1806d13a 	srli	r3,r3,4
 1005a58:	29400104 	addi	r5,r5,4
 1005a5c:	188000cc 	andi	r2,r3,3
 1005a60:	1000021e 	bne	r2,zero,1005a6c <__lo0bits+0x70>
 1005a64:	1806d0ba 	srli	r3,r3,2
 1005a68:	29400084 	addi	r5,r5,2
 1005a6c:	1880004c 	andi	r2,r3,1
 1005a70:	1000031e 	bne	r2,zero,1005a80 <__lo0bits+0x84>
 1005a74:	1806d07a 	srli	r3,r3,1
 1005a78:	18000a26 	beq	r3,zero,1005aa4 <__lo0bits+0xa8>
 1005a7c:	29400044 	addi	r5,r5,1
 1005a80:	2805883a 	mov	r2,r5
 1005a84:	20c00015 	stw	r3,0(r4)
 1005a88:	f800283a 	ret
 1005a8c:	1806d43a 	srli	r3,r3,16
 1005a90:	01400404 	movi	r5,16
 1005a94:	003fe906 	br	1005a3c <__lo0bits+0x40>
 1005a98:	000b883a 	mov	r5,zero
 1005a9c:	2805883a 	mov	r2,r5
 1005aa0:	f800283a 	ret
 1005aa4:	01400804 	movi	r5,32
 1005aa8:	2805883a 	mov	r2,r5
 1005aac:	f800283a 	ret
 1005ab0:	1804d07a 	srli	r2,r3,1
 1005ab4:	01400044 	movi	r5,1
 1005ab8:	20800015 	stw	r2,0(r4)
 1005abc:	003fda06 	br	1005a28 <__lo0bits+0x2c>

01005ac0 <__mcmp>:
 1005ac0:	20800417 	ldw	r2,16(r4)
 1005ac4:	28c00417 	ldw	r3,16(r5)
 1005ac8:	10cfc83a 	sub	r7,r2,r3
 1005acc:	38000c1e 	bne	r7,zero,1005b00 <__mcmp+0x40>
 1005ad0:	18c5883a 	add	r2,r3,r3
 1005ad4:	1085883a 	add	r2,r2,r2
 1005ad8:	10c00504 	addi	r3,r2,20
 1005adc:	21000504 	addi	r4,r4,20
 1005ae0:	28cb883a 	add	r5,r5,r3
 1005ae4:	2085883a 	add	r2,r4,r2
 1005ae8:	10bfff04 	addi	r2,r2,-4
 1005aec:	297fff04 	addi	r5,r5,-4
 1005af0:	11800017 	ldw	r6,0(r2)
 1005af4:	28c00017 	ldw	r3,0(r5)
 1005af8:	30c0031e 	bne	r6,r3,1005b08 <__mcmp+0x48>
 1005afc:	20bffa36 	bltu	r4,r2,1005ae8 <__mcmp+0x28>
 1005b00:	3805883a 	mov	r2,r7
 1005b04:	f800283a 	ret
 1005b08:	30c00336 	bltu	r6,r3,1005b18 <__mcmp+0x58>
 1005b0c:	01c00044 	movi	r7,1
 1005b10:	3805883a 	mov	r2,r7
 1005b14:	f800283a 	ret
 1005b18:	01ffffc4 	movi	r7,-1
 1005b1c:	003ff806 	br	1005b00 <__mcmp+0x40>

01005b20 <__ulp>:
 1005b20:	295ffc2c 	andhi	r5,r5,32752
 1005b24:	013f3034 	movhi	r4,64704
 1005b28:	290b883a 	add	r5,r5,r4
 1005b2c:	0145c83a 	sub	r2,zero,r5
 1005b30:	1007d53a 	srai	r3,r2,20
 1005b34:	000d883a 	mov	r6,zero
 1005b38:	0140040e 	bge	zero,r5,1005b4c <__ulp+0x2c>
 1005b3c:	280f883a 	mov	r7,r5
 1005b40:	3807883a 	mov	r3,r7
 1005b44:	3005883a 	mov	r2,r6
 1005b48:	f800283a 	ret
 1005b4c:	008004c4 	movi	r2,19
 1005b50:	193ffb04 	addi	r4,r3,-20
 1005b54:	10c00c0e 	bge	r2,r3,1005b88 <__ulp+0x68>
 1005b58:	008007c4 	movi	r2,31
 1005b5c:	1107c83a 	sub	r3,r2,r4
 1005b60:	00800784 	movi	r2,30
 1005b64:	01400044 	movi	r5,1
 1005b68:	11000216 	blt	r2,r4,1005b74 <__ulp+0x54>
 1005b6c:	00800044 	movi	r2,1
 1005b70:	10ca983a 	sll	r5,r2,r3
 1005b74:	000f883a 	mov	r7,zero
 1005b78:	280d883a 	mov	r6,r5
 1005b7c:	3807883a 	mov	r3,r7
 1005b80:	3005883a 	mov	r2,r6
 1005b84:	f800283a 	ret
 1005b88:	00800234 	movhi	r2,8
 1005b8c:	10cfd83a 	sra	r7,r2,r3
 1005b90:	000d883a 	mov	r6,zero
 1005b94:	3005883a 	mov	r2,r6
 1005b98:	3807883a 	mov	r3,r7
 1005b9c:	f800283a 	ret

01005ba0 <__b2d>:
 1005ba0:	20800417 	ldw	r2,16(r4)
 1005ba4:	defff904 	addi	sp,sp,-28
 1005ba8:	dd000415 	stw	r20,16(sp)
 1005bac:	1085883a 	add	r2,r2,r2
 1005bb0:	25000504 	addi	r20,r4,20
 1005bb4:	1085883a 	add	r2,r2,r2
 1005bb8:	dc000015 	stw	r16,0(sp)
 1005bbc:	a0a1883a 	add	r16,r20,r2
 1005bc0:	dd400515 	stw	r21,20(sp)
 1005bc4:	857fff17 	ldw	r21,-4(r16)
 1005bc8:	dc400115 	stw	r17,4(sp)
 1005bcc:	dfc00615 	stw	ra,24(sp)
 1005bd0:	a809883a 	mov	r4,r21
 1005bd4:	2823883a 	mov	r17,r5
 1005bd8:	dcc00315 	stw	r19,12(sp)
 1005bdc:	dc800215 	stw	r18,8(sp)
 1005be0:	100598c0 	call	100598c <__hi0bits>
 1005be4:	100b883a 	mov	r5,r2
 1005be8:	00800804 	movi	r2,32
 1005bec:	1145c83a 	sub	r2,r2,r5
 1005bf0:	88800015 	stw	r2,0(r17)
 1005bf4:	00800284 	movi	r2,10
 1005bf8:	80ffff04 	addi	r3,r16,-4
 1005bfc:	11401416 	blt	r2,r5,1005c50 <__b2d+0xb0>
 1005c00:	008002c4 	movi	r2,11
 1005c04:	1149c83a 	sub	r4,r2,r5
 1005c08:	a0c02736 	bltu	r20,r3,1005ca8 <__b2d+0x108>
 1005c0c:	000d883a 	mov	r6,zero
 1005c10:	28800544 	addi	r2,r5,21
 1005c14:	a906d83a 	srl	r3,r21,r4
 1005c18:	a884983a 	sll	r2,r21,r2
 1005c1c:	1ccffc34 	orhi	r19,r3,16368
 1005c20:	11a4b03a 	or	r18,r2,r6
 1005c24:	9005883a 	mov	r2,r18
 1005c28:	9807883a 	mov	r3,r19
 1005c2c:	dfc00617 	ldw	ra,24(sp)
 1005c30:	dd400517 	ldw	r21,20(sp)
 1005c34:	dd000417 	ldw	r20,16(sp)
 1005c38:	dcc00317 	ldw	r19,12(sp)
 1005c3c:	dc800217 	ldw	r18,8(sp)
 1005c40:	dc400117 	ldw	r17,4(sp)
 1005c44:	dc000017 	ldw	r16,0(sp)
 1005c48:	dec00704 	addi	sp,sp,28
 1005c4c:	f800283a 	ret
 1005c50:	a0c00e36 	bltu	r20,r3,1005c8c <__b2d+0xec>
 1005c54:	293ffd44 	addi	r4,r5,-11
 1005c58:	000d883a 	mov	r6,zero
 1005c5c:	20000f26 	beq	r4,zero,1005c9c <__b2d+0xfc>
 1005c60:	00800804 	movi	r2,32
 1005c64:	110bc83a 	sub	r5,r2,r4
 1005c68:	a0c01236 	bltu	r20,r3,1005cb4 <__b2d+0x114>
 1005c6c:	000f883a 	mov	r7,zero
 1005c70:	a904983a 	sll	r2,r21,r4
 1005c74:	3146d83a 	srl	r3,r6,r5
 1005c78:	3108983a 	sll	r4,r6,r4
 1005c7c:	108ffc34 	orhi	r2,r2,16368
 1005c80:	18a6b03a 	or	r19,r3,r2
 1005c84:	3924b03a 	or	r18,r7,r4
 1005c88:	003fe606 	br	1005c24 <__b2d+0x84>
 1005c8c:	293ffd44 	addi	r4,r5,-11
 1005c90:	81bffe17 	ldw	r6,-8(r16)
 1005c94:	80fffe04 	addi	r3,r16,-8
 1005c98:	203ff11e 	bne	r4,zero,1005c60 <__b2d+0xc0>
 1005c9c:	accffc34 	orhi	r19,r21,16368
 1005ca0:	3025883a 	mov	r18,r6
 1005ca4:	003fdf06 	br	1005c24 <__b2d+0x84>
 1005ca8:	18bfff17 	ldw	r2,-4(r3)
 1005cac:	110cd83a 	srl	r6,r2,r4
 1005cb0:	003fd706 	br	1005c10 <__b2d+0x70>
 1005cb4:	18bfff17 	ldw	r2,-4(r3)
 1005cb8:	114ed83a 	srl	r7,r2,r5
 1005cbc:	003fec06 	br	1005c70 <__b2d+0xd0>

01005cc0 <__ratio>:
 1005cc0:	defff904 	addi	sp,sp,-28
 1005cc4:	dc400215 	stw	r17,8(sp)
 1005cc8:	2823883a 	mov	r17,r5
 1005ccc:	d80b883a 	mov	r5,sp
 1005cd0:	dfc00615 	stw	ra,24(sp)
 1005cd4:	dd000515 	stw	r20,20(sp)
 1005cd8:	dcc00415 	stw	r19,16(sp)
 1005cdc:	dc800315 	stw	r18,12(sp)
 1005ce0:	2025883a 	mov	r18,r4
 1005ce4:	1005ba00 	call	1005ba0 <__b2d>
 1005ce8:	8809883a 	mov	r4,r17
 1005cec:	d9400104 	addi	r5,sp,4
 1005cf0:	1027883a 	mov	r19,r2
 1005cf4:	1829883a 	mov	r20,r3
 1005cf8:	1005ba00 	call	1005ba0 <__b2d>
 1005cfc:	89000417 	ldw	r4,16(r17)
 1005d00:	91c00417 	ldw	r7,16(r18)
 1005d04:	d9800117 	ldw	r6,4(sp)
 1005d08:	180b883a 	mov	r5,r3
 1005d0c:	390fc83a 	sub	r7,r7,r4
 1005d10:	1009883a 	mov	r4,r2
 1005d14:	d8800017 	ldw	r2,0(sp)
 1005d18:	380e917a 	slli	r7,r7,5
 1005d1c:	2011883a 	mov	r8,r4
 1005d20:	1185c83a 	sub	r2,r2,r6
 1005d24:	11c5883a 	add	r2,r2,r7
 1005d28:	1006953a 	slli	r3,r2,20
 1005d2c:	2813883a 	mov	r9,r5
 1005d30:	00800d0e 	bge	zero,r2,1005d68 <__ratio+0xa8>
 1005d34:	1d29883a 	add	r20,r3,r20
 1005d38:	a00b883a 	mov	r5,r20
 1005d3c:	480f883a 	mov	r7,r9
 1005d40:	9809883a 	mov	r4,r19
 1005d44:	400d883a 	mov	r6,r8
 1005d48:	1008d7c0 	call	1008d7c <__divdf3>
 1005d4c:	dfc00617 	ldw	ra,24(sp)
 1005d50:	dd000517 	ldw	r20,20(sp)
 1005d54:	dcc00417 	ldw	r19,16(sp)
 1005d58:	dc800317 	ldw	r18,12(sp)
 1005d5c:	dc400217 	ldw	r17,8(sp)
 1005d60:	dec00704 	addi	sp,sp,28
 1005d64:	f800283a 	ret
 1005d68:	28d3c83a 	sub	r9,r5,r3
 1005d6c:	003ff206 	br	1005d38 <__ratio+0x78>

01005d70 <_mprec_log10>:
 1005d70:	defffe04 	addi	sp,sp,-8
 1005d74:	008005c4 	movi	r2,23
 1005d78:	dc000015 	stw	r16,0(sp)
 1005d7c:	dfc00115 	stw	ra,4(sp)
 1005d80:	2021883a 	mov	r16,r4
 1005d84:	11000c16 	blt	r2,r4,1005db8 <_mprec_log10+0x48>
 1005d88:	200490fa 	slli	r2,r4,3
 1005d8c:	00c04074 	movhi	r3,257
 1005d90:	18f54404 	addi	r3,r3,-10992
 1005d94:	10c5883a 	add	r2,r2,r3
 1005d98:	12400117 	ldw	r9,4(r2)
 1005d9c:	12000017 	ldw	r8,0(r2)
 1005da0:	4807883a 	mov	r3,r9
 1005da4:	4005883a 	mov	r2,r8
 1005da8:	dfc00117 	ldw	ra,4(sp)
 1005dac:	dc000017 	ldw	r16,0(sp)
 1005db0:	dec00204 	addi	sp,sp,8
 1005db4:	f800283a 	ret
 1005db8:	0011883a 	mov	r8,zero
 1005dbc:	024ffc34 	movhi	r9,16368
 1005dc0:	0005883a 	mov	r2,zero
 1005dc4:	00d00934 	movhi	r3,16420
 1005dc8:	480b883a 	mov	r5,r9
 1005dcc:	4009883a 	mov	r4,r8
 1005dd0:	180f883a 	mov	r7,r3
 1005dd4:	100d883a 	mov	r6,r2
 1005dd8:	10089b80 	call	10089b8 <__muldf3>
 1005ddc:	843fffc4 	addi	r16,r16,-1
 1005de0:	1011883a 	mov	r8,r2
 1005de4:	1813883a 	mov	r9,r3
 1005de8:	803ff51e 	bne	r16,zero,1005dc0 <_mprec_log10+0x50>
 1005dec:	4005883a 	mov	r2,r8
 1005df0:	4807883a 	mov	r3,r9
 1005df4:	dfc00117 	ldw	ra,4(sp)
 1005df8:	dc000017 	ldw	r16,0(sp)
 1005dfc:	dec00204 	addi	sp,sp,8
 1005e00:	f800283a 	ret

01005e04 <__copybits>:
 1005e04:	297fffc4 	addi	r5,r5,-1
 1005e08:	30800417 	ldw	r2,16(r6)
 1005e0c:	280bd17a 	srai	r5,r5,5
 1005e10:	31800504 	addi	r6,r6,20
 1005e14:	1085883a 	add	r2,r2,r2
 1005e18:	294b883a 	add	r5,r5,r5
 1005e1c:	294b883a 	add	r5,r5,r5
 1005e20:	1085883a 	add	r2,r2,r2
 1005e24:	290b883a 	add	r5,r5,r4
 1005e28:	3087883a 	add	r3,r6,r2
 1005e2c:	29400104 	addi	r5,r5,4
 1005e30:	30c0052e 	bgeu	r6,r3,1005e48 <__copybits+0x44>
 1005e34:	30800017 	ldw	r2,0(r6)
 1005e38:	31800104 	addi	r6,r6,4
 1005e3c:	20800015 	stw	r2,0(r4)
 1005e40:	21000104 	addi	r4,r4,4
 1005e44:	30fffb36 	bltu	r6,r3,1005e34 <__copybits+0x30>
 1005e48:	2140032e 	bgeu	r4,r5,1005e58 <__copybits+0x54>
 1005e4c:	20000015 	stw	zero,0(r4)
 1005e50:	21000104 	addi	r4,r4,4
 1005e54:	217ffd36 	bltu	r4,r5,1005e4c <__copybits+0x48>
 1005e58:	f800283a 	ret

01005e5c <__any_on>:
 1005e5c:	20800417 	ldw	r2,16(r4)
 1005e60:	2807d17a 	srai	r3,r5,5
 1005e64:	21000504 	addi	r4,r4,20
 1005e68:	10c00d0e 	bge	r2,r3,1005ea0 <__any_on+0x44>
 1005e6c:	1085883a 	add	r2,r2,r2
 1005e70:	1085883a 	add	r2,r2,r2
 1005e74:	208d883a 	add	r6,r4,r2
 1005e78:	2180182e 	bgeu	r4,r6,1005edc <__any_on+0x80>
 1005e7c:	30bfff17 	ldw	r2,-4(r6)
 1005e80:	30ffff04 	addi	r3,r6,-4
 1005e84:	1000041e 	bne	r2,zero,1005e98 <__any_on+0x3c>
 1005e88:	20c0142e 	bgeu	r4,r3,1005edc <__any_on+0x80>
 1005e8c:	18ffff04 	addi	r3,r3,-4
 1005e90:	18800017 	ldw	r2,0(r3)
 1005e94:	103ffc26 	beq	r2,zero,1005e88 <__any_on+0x2c>
 1005e98:	00800044 	movi	r2,1
 1005e9c:	f800283a 	ret
 1005ea0:	18800a0e 	bge	r3,r2,1005ecc <__any_on+0x70>
 1005ea4:	294007cc 	andi	r5,r5,31
 1005ea8:	28000826 	beq	r5,zero,1005ecc <__any_on+0x70>
 1005eac:	18c5883a 	add	r2,r3,r3
 1005eb0:	1085883a 	add	r2,r2,r2
 1005eb4:	208d883a 	add	r6,r4,r2
 1005eb8:	30c00017 	ldw	r3,0(r6)
 1005ebc:	1944d83a 	srl	r2,r3,r5
 1005ec0:	1144983a 	sll	r2,r2,r5
 1005ec4:	18bff41e 	bne	r3,r2,1005e98 <__any_on+0x3c>
 1005ec8:	003feb06 	br	1005e78 <__any_on+0x1c>
 1005ecc:	18c5883a 	add	r2,r3,r3
 1005ed0:	1085883a 	add	r2,r2,r2
 1005ed4:	208d883a 	add	r6,r4,r2
 1005ed8:	003fe706 	br	1005e78 <__any_on+0x1c>
 1005edc:	0005883a 	mov	r2,zero
 1005ee0:	f800283a 	ret

01005ee4 <_Balloc>:
 1005ee4:	20c01317 	ldw	r3,76(r4)
 1005ee8:	defffb04 	addi	sp,sp,-20
 1005eec:	dcc00315 	stw	r19,12(sp)
 1005ef0:	dc800215 	stw	r18,8(sp)
 1005ef4:	dfc00415 	stw	ra,16(sp)
 1005ef8:	2825883a 	mov	r18,r5
 1005efc:	dc400115 	stw	r17,4(sp)
 1005f00:	dc000015 	stw	r16,0(sp)
 1005f04:	2027883a 	mov	r19,r4
 1005f08:	01800404 	movi	r6,16
 1005f0c:	01400104 	movi	r5,4
 1005f10:	18001726 	beq	r3,zero,1005f70 <_Balloc+0x8c>
 1005f14:	01400044 	movi	r5,1
 1005f18:	9485883a 	add	r2,r18,r18
 1005f1c:	2ca2983a 	sll	r17,r5,r18
 1005f20:	1085883a 	add	r2,r2,r2
 1005f24:	10c7883a 	add	r3,r2,r3
 1005f28:	1c000017 	ldw	r16,0(r3)
 1005f2c:	8c4d883a 	add	r6,r17,r17
 1005f30:	318d883a 	add	r6,r6,r6
 1005f34:	9809883a 	mov	r4,r19
 1005f38:	31800504 	addi	r6,r6,20
 1005f3c:	80001226 	beq	r16,zero,1005f88 <_Balloc+0xa4>
 1005f40:	80800017 	ldw	r2,0(r16)
 1005f44:	18800015 	stw	r2,0(r3)
 1005f48:	80000415 	stw	zero,16(r16)
 1005f4c:	80000315 	stw	zero,12(r16)
 1005f50:	8005883a 	mov	r2,r16
 1005f54:	dfc00417 	ldw	ra,16(sp)
 1005f58:	dcc00317 	ldw	r19,12(sp)
 1005f5c:	dc800217 	ldw	r18,8(sp)
 1005f60:	dc400117 	ldw	r17,4(sp)
 1005f64:	dc000017 	ldw	r16,0(sp)
 1005f68:	dec00504 	addi	sp,sp,20
 1005f6c:	f800283a 	ret
 1005f70:	10073b80 	call	10073b8 <_calloc_r>
 1005f74:	1007883a 	mov	r3,r2
 1005f78:	0021883a 	mov	r16,zero
 1005f7c:	98801315 	stw	r2,76(r19)
 1005f80:	103fe41e 	bne	r2,zero,1005f14 <_Balloc+0x30>
 1005f84:	003ff206 	br	1005f50 <_Balloc+0x6c>
 1005f88:	10073b80 	call	10073b8 <_calloc_r>
 1005f8c:	103ff026 	beq	r2,zero,1005f50 <_Balloc+0x6c>
 1005f90:	1021883a 	mov	r16,r2
 1005f94:	14800115 	stw	r18,4(r2)
 1005f98:	14400215 	stw	r17,8(r2)
 1005f9c:	003fea06 	br	1005f48 <_Balloc+0x64>

01005fa0 <__d2b>:
 1005fa0:	defff504 	addi	sp,sp,-44
 1005fa4:	dcc00515 	stw	r19,20(sp)
 1005fa8:	04c00044 	movi	r19,1
 1005fac:	dc000215 	stw	r16,8(sp)
 1005fb0:	2821883a 	mov	r16,r5
 1005fb4:	980b883a 	mov	r5,r19
 1005fb8:	ddc00915 	stw	r23,36(sp)
 1005fbc:	dd800815 	stw	r22,32(sp)
 1005fc0:	dd400715 	stw	r21,28(sp)
 1005fc4:	dd000615 	stw	r20,24(sp)
 1005fc8:	dc800415 	stw	r18,16(sp)
 1005fcc:	dc400315 	stw	r17,12(sp)
 1005fd0:	dfc00a15 	stw	ra,40(sp)
 1005fd4:	3023883a 	mov	r17,r6
 1005fd8:	382d883a 	mov	r22,r7
 1005fdc:	ddc00b17 	ldw	r23,44(sp)
 1005fe0:	1005ee40 	call	1005ee4 <_Balloc>
 1005fe4:	1025883a 	mov	r18,r2
 1005fe8:	00a00034 	movhi	r2,32768
 1005fec:	10bfffc4 	addi	r2,r2,-1
 1005ff0:	8888703a 	and	r4,r17,r2
 1005ff4:	202ad53a 	srli	r21,r4,20
 1005ff8:	00800434 	movhi	r2,16
 1005ffc:	10bfffc4 	addi	r2,r2,-1
 1006000:	8886703a 	and	r3,r17,r2
 1006004:	a829003a 	cmpeq	r20,r21,zero
 1006008:	800b883a 	mov	r5,r16
 100600c:	d8c00115 	stw	r3,4(sp)
 1006010:	94000504 	addi	r16,r18,20
 1006014:	a000021e 	bne	r20,zero,1006020 <__d2b+0x80>
 1006018:	18c00434 	orhi	r3,r3,16
 100601c:	d8c00115 	stw	r3,4(sp)
 1006020:	28002726 	beq	r5,zero,10060c0 <__d2b+0x120>
 1006024:	d809883a 	mov	r4,sp
 1006028:	d9400015 	stw	r5,0(sp)
 100602c:	10059fc0 	call	10059fc <__lo0bits>
 1006030:	100d883a 	mov	r6,r2
 1006034:	10003526 	beq	r2,zero,100610c <__d2b+0x16c>
 1006038:	d8c00117 	ldw	r3,4(sp)
 100603c:	00800804 	movi	r2,32
 1006040:	1185c83a 	sub	r2,r2,r6
 1006044:	d9000017 	ldw	r4,0(sp)
 1006048:	1886983a 	sll	r3,r3,r2
 100604c:	1906b03a 	or	r3,r3,r4
 1006050:	90c00515 	stw	r3,20(r18)
 1006054:	d8c00117 	ldw	r3,4(sp)
 1006058:	1986d83a 	srl	r3,r3,r6
 100605c:	d8c00115 	stw	r3,4(sp)
 1006060:	180b003a 	cmpeq	r5,r3,zero
 1006064:	00800084 	movi	r2,2
 1006068:	114bc83a 	sub	r5,r2,r5
 100606c:	80c00115 	stw	r3,4(r16)
 1006070:	91400415 	stw	r5,16(r18)
 1006074:	a0001a1e 	bne	r20,zero,10060e0 <__d2b+0x140>
 1006078:	3545883a 	add	r2,r6,r21
 100607c:	10bef344 	addi	r2,r2,-1075
 1006080:	00c00d44 	movi	r3,53
 1006084:	b0800015 	stw	r2,0(r22)
 1006088:	1987c83a 	sub	r3,r3,r6
 100608c:	b8c00015 	stw	r3,0(r23)
 1006090:	9005883a 	mov	r2,r18
 1006094:	dfc00a17 	ldw	ra,40(sp)
 1006098:	ddc00917 	ldw	r23,36(sp)
 100609c:	dd800817 	ldw	r22,32(sp)
 10060a0:	dd400717 	ldw	r21,28(sp)
 10060a4:	dd000617 	ldw	r20,24(sp)
 10060a8:	dcc00517 	ldw	r19,20(sp)
 10060ac:	dc800417 	ldw	r18,16(sp)
 10060b0:	dc400317 	ldw	r17,12(sp)
 10060b4:	dc000217 	ldw	r16,8(sp)
 10060b8:	dec00b04 	addi	sp,sp,44
 10060bc:	f800283a 	ret
 10060c0:	d9000104 	addi	r4,sp,4
 10060c4:	10059fc0 	call	10059fc <__lo0bits>
 10060c8:	11800804 	addi	r6,r2,32
 10060cc:	d8800117 	ldw	r2,4(sp)
 10060d0:	94c00415 	stw	r19,16(r18)
 10060d4:	980b883a 	mov	r5,r19
 10060d8:	90800515 	stw	r2,20(r18)
 10060dc:	a03fe626 	beq	r20,zero,1006078 <__d2b+0xd8>
 10060e0:	2945883a 	add	r2,r5,r5
 10060e4:	1085883a 	add	r2,r2,r2
 10060e8:	1405883a 	add	r2,r2,r16
 10060ec:	113fff17 	ldw	r4,-4(r2)
 10060f0:	30fef384 	addi	r3,r6,-1074
 10060f4:	2820917a 	slli	r16,r5,5
 10060f8:	b0c00015 	stw	r3,0(r22)
 10060fc:	100598c0 	call	100598c <__hi0bits>
 1006100:	80a1c83a 	sub	r16,r16,r2
 1006104:	bc000015 	stw	r16,0(r23)
 1006108:	003fe106 	br	1006090 <__d2b+0xf0>
 100610c:	d8800017 	ldw	r2,0(sp)
 1006110:	90800515 	stw	r2,20(r18)
 1006114:	d8c00117 	ldw	r3,4(sp)
 1006118:	003fd106 	br	1006060 <__d2b+0xc0>

0100611c <__mdiff>:
 100611c:	defffb04 	addi	sp,sp,-20
 1006120:	dc000015 	stw	r16,0(sp)
 1006124:	2821883a 	mov	r16,r5
 1006128:	dc800215 	stw	r18,8(sp)
 100612c:	300b883a 	mov	r5,r6
 1006130:	2025883a 	mov	r18,r4
 1006134:	8009883a 	mov	r4,r16
 1006138:	dc400115 	stw	r17,4(sp)
 100613c:	dfc00415 	stw	ra,16(sp)
 1006140:	dcc00315 	stw	r19,12(sp)
 1006144:	3023883a 	mov	r17,r6
 1006148:	1005ac00 	call	1005ac0 <__mcmp>
 100614c:	10004226 	beq	r2,zero,1006258 <__mdiff+0x13c>
 1006150:	10005016 	blt	r2,zero,1006294 <__mdiff+0x178>
 1006154:	0027883a 	mov	r19,zero
 1006158:	81400117 	ldw	r5,4(r16)
 100615c:	9009883a 	mov	r4,r18
 1006160:	1005ee40 	call	1005ee4 <_Balloc>
 1006164:	1019883a 	mov	r12,r2
 1006168:	82800417 	ldw	r10,16(r16)
 100616c:	88800417 	ldw	r2,16(r17)
 1006170:	81800504 	addi	r6,r16,20
 1006174:	5287883a 	add	r3,r10,r10
 1006178:	1085883a 	add	r2,r2,r2
 100617c:	18c7883a 	add	r3,r3,r3
 1006180:	1085883a 	add	r2,r2,r2
 1006184:	8a000504 	addi	r8,r17,20
 1006188:	64c00315 	stw	r19,12(r12)
 100618c:	30db883a 	add	r13,r6,r3
 1006190:	4097883a 	add	r11,r8,r2
 1006194:	61c00504 	addi	r7,r12,20
 1006198:	0013883a 	mov	r9,zero
 100619c:	31000017 	ldw	r4,0(r6)
 10061a0:	41400017 	ldw	r5,0(r8)
 10061a4:	42000104 	addi	r8,r8,4
 10061a8:	20bfffcc 	andi	r2,r4,65535
 10061ac:	28ffffcc 	andi	r3,r5,65535
 10061b0:	10c5c83a 	sub	r2,r2,r3
 10061b4:	1245883a 	add	r2,r2,r9
 10061b8:	2008d43a 	srli	r4,r4,16
 10061bc:	280ad43a 	srli	r5,r5,16
 10061c0:	1007d43a 	srai	r3,r2,16
 10061c4:	3880000d 	sth	r2,0(r7)
 10061c8:	2149c83a 	sub	r4,r4,r5
 10061cc:	20c9883a 	add	r4,r4,r3
 10061d0:	3900008d 	sth	r4,2(r7)
 10061d4:	31800104 	addi	r6,r6,4
 10061d8:	39c00104 	addi	r7,r7,4
 10061dc:	2013d43a 	srai	r9,r4,16
 10061e0:	42ffee36 	bltu	r8,r11,100619c <__mdiff+0x80>
 10061e4:	33400c2e 	bgeu	r6,r13,1006218 <__mdiff+0xfc>
 10061e8:	30800017 	ldw	r2,0(r6)
 10061ec:	31800104 	addi	r6,r6,4
 10061f0:	10ffffcc 	andi	r3,r2,65535
 10061f4:	1a47883a 	add	r3,r3,r9
 10061f8:	1004d43a 	srli	r2,r2,16
 10061fc:	1809d43a 	srai	r4,r3,16
 1006200:	38c0000d 	sth	r3,0(r7)
 1006204:	1105883a 	add	r2,r2,r4
 1006208:	3880008d 	sth	r2,2(r7)
 100620c:	1013d43a 	srai	r9,r2,16
 1006210:	39c00104 	addi	r7,r7,4
 1006214:	337ff436 	bltu	r6,r13,10061e8 <__mdiff+0xcc>
 1006218:	38bfff17 	ldw	r2,-4(r7)
 100621c:	38ffff04 	addi	r3,r7,-4
 1006220:	1000041e 	bne	r2,zero,1006234 <__mdiff+0x118>
 1006224:	18ffff04 	addi	r3,r3,-4
 1006228:	18800017 	ldw	r2,0(r3)
 100622c:	52bfffc4 	addi	r10,r10,-1
 1006230:	103ffc26 	beq	r2,zero,1006224 <__mdiff+0x108>
 1006234:	6005883a 	mov	r2,r12
 1006238:	62800415 	stw	r10,16(r12)
 100623c:	dfc00417 	ldw	ra,16(sp)
 1006240:	dcc00317 	ldw	r19,12(sp)
 1006244:	dc800217 	ldw	r18,8(sp)
 1006248:	dc400117 	ldw	r17,4(sp)
 100624c:	dc000017 	ldw	r16,0(sp)
 1006250:	dec00504 	addi	sp,sp,20
 1006254:	f800283a 	ret
 1006258:	9009883a 	mov	r4,r18
 100625c:	000b883a 	mov	r5,zero
 1006260:	1005ee40 	call	1005ee4 <_Balloc>
 1006264:	1019883a 	mov	r12,r2
 1006268:	00800044 	movi	r2,1
 100626c:	60800415 	stw	r2,16(r12)
 1006270:	6005883a 	mov	r2,r12
 1006274:	60000515 	stw	zero,20(r12)
 1006278:	dfc00417 	ldw	ra,16(sp)
 100627c:	dcc00317 	ldw	r19,12(sp)
 1006280:	dc800217 	ldw	r18,8(sp)
 1006284:	dc400117 	ldw	r17,4(sp)
 1006288:	dc000017 	ldw	r16,0(sp)
 100628c:	dec00504 	addi	sp,sp,20
 1006290:	f800283a 	ret
 1006294:	880d883a 	mov	r6,r17
 1006298:	04c00044 	movi	r19,1
 100629c:	8023883a 	mov	r17,r16
 10062a0:	3021883a 	mov	r16,r6
 10062a4:	003fac06 	br	1006158 <__mdiff+0x3c>

010062a8 <__lshift>:
 10062a8:	defff904 	addi	sp,sp,-28
 10062ac:	28800417 	ldw	r2,16(r5)
 10062b0:	dc000015 	stw	r16,0(sp)
 10062b4:	3021d17a 	srai	r16,r6,5
 10062b8:	28c00217 	ldw	r3,8(r5)
 10062bc:	10800044 	addi	r2,r2,1
 10062c0:	dc400115 	stw	r17,4(sp)
 10062c4:	80a3883a 	add	r17,r16,r2
 10062c8:	dd400515 	stw	r21,20(sp)
 10062cc:	dd000415 	stw	r20,16(sp)
 10062d0:	dc800215 	stw	r18,8(sp)
 10062d4:	dfc00615 	stw	ra,24(sp)
 10062d8:	2825883a 	mov	r18,r5
 10062dc:	dcc00315 	stw	r19,12(sp)
 10062e0:	3029883a 	mov	r20,r6
 10062e4:	202b883a 	mov	r21,r4
 10062e8:	29400117 	ldw	r5,4(r5)
 10062ec:	1c40030e 	bge	r3,r17,10062fc <__lshift+0x54>
 10062f0:	18c7883a 	add	r3,r3,r3
 10062f4:	29400044 	addi	r5,r5,1
 10062f8:	1c7ffd16 	blt	r3,r17,10062f0 <__lshift+0x48>
 10062fc:	a809883a 	mov	r4,r21
 1006300:	1005ee40 	call	1005ee4 <_Balloc>
 1006304:	1027883a 	mov	r19,r2
 1006308:	11400504 	addi	r5,r2,20
 100630c:	0400090e 	bge	zero,r16,1006334 <__lshift+0x8c>
 1006310:	2805883a 	mov	r2,r5
 1006314:	0007883a 	mov	r3,zero
 1006318:	18c00044 	addi	r3,r3,1
 100631c:	10000015 	stw	zero,0(r2)
 1006320:	10800104 	addi	r2,r2,4
 1006324:	80fffc1e 	bne	r16,r3,1006318 <__lshift+0x70>
 1006328:	8405883a 	add	r2,r16,r16
 100632c:	1085883a 	add	r2,r2,r2
 1006330:	288b883a 	add	r5,r5,r2
 1006334:	90800417 	ldw	r2,16(r18)
 1006338:	91000504 	addi	r4,r18,20
 100633c:	a18007cc 	andi	r6,r20,31
 1006340:	1085883a 	add	r2,r2,r2
 1006344:	1085883a 	add	r2,r2,r2
 1006348:	208f883a 	add	r7,r4,r2
 100634c:	30001e26 	beq	r6,zero,10063c8 <__lshift+0x120>
 1006350:	00800804 	movi	r2,32
 1006354:	1191c83a 	sub	r8,r2,r6
 1006358:	0007883a 	mov	r3,zero
 100635c:	20800017 	ldw	r2,0(r4)
 1006360:	1184983a 	sll	r2,r2,r6
 1006364:	1884b03a 	or	r2,r3,r2
 1006368:	28800015 	stw	r2,0(r5)
 100636c:	20c00017 	ldw	r3,0(r4)
 1006370:	21000104 	addi	r4,r4,4
 1006374:	29400104 	addi	r5,r5,4
 1006378:	1a06d83a 	srl	r3,r3,r8
 100637c:	21fff736 	bltu	r4,r7,100635c <__lshift+0xb4>
 1006380:	28c00015 	stw	r3,0(r5)
 1006384:	18000126 	beq	r3,zero,100638c <__lshift+0xe4>
 1006388:	8c400044 	addi	r17,r17,1
 100638c:	88bfffc4 	addi	r2,r17,-1
 1006390:	98800415 	stw	r2,16(r19)
 1006394:	a809883a 	mov	r4,r21
 1006398:	900b883a 	mov	r5,r18
 100639c:	10059640 	call	1005964 <_Bfree>
 10063a0:	9805883a 	mov	r2,r19
 10063a4:	dfc00617 	ldw	ra,24(sp)
 10063a8:	dd400517 	ldw	r21,20(sp)
 10063ac:	dd000417 	ldw	r20,16(sp)
 10063b0:	dcc00317 	ldw	r19,12(sp)
 10063b4:	dc800217 	ldw	r18,8(sp)
 10063b8:	dc400117 	ldw	r17,4(sp)
 10063bc:	dc000017 	ldw	r16,0(sp)
 10063c0:	dec00704 	addi	sp,sp,28
 10063c4:	f800283a 	ret
 10063c8:	20800017 	ldw	r2,0(r4)
 10063cc:	21000104 	addi	r4,r4,4
 10063d0:	28800015 	stw	r2,0(r5)
 10063d4:	29400104 	addi	r5,r5,4
 10063d8:	21ffec2e 	bgeu	r4,r7,100638c <__lshift+0xe4>
 10063dc:	20800017 	ldw	r2,0(r4)
 10063e0:	21000104 	addi	r4,r4,4
 10063e4:	28800015 	stw	r2,0(r5)
 10063e8:	29400104 	addi	r5,r5,4
 10063ec:	21fff636 	bltu	r4,r7,10063c8 <__lshift+0x120>
 10063f0:	003fe606 	br	100638c <__lshift+0xe4>

010063f4 <__multiply>:
 10063f4:	defff004 	addi	sp,sp,-64
 10063f8:	dc800815 	stw	r18,32(sp)
 10063fc:	dc400715 	stw	r17,28(sp)
 1006400:	2c800417 	ldw	r18,16(r5)
 1006404:	34400417 	ldw	r17,16(r6)
 1006408:	dcc00915 	stw	r19,36(sp)
 100640c:	dc000615 	stw	r16,24(sp)
 1006410:	dfc00f15 	stw	ra,60(sp)
 1006414:	df000e15 	stw	fp,56(sp)
 1006418:	ddc00d15 	stw	r23,52(sp)
 100641c:	dd800c15 	stw	r22,48(sp)
 1006420:	dd400b15 	stw	r21,44(sp)
 1006424:	dd000a15 	stw	r20,40(sp)
 1006428:	2821883a 	mov	r16,r5
 100642c:	3027883a 	mov	r19,r6
 1006430:	9440040e 	bge	r18,r17,1006444 <__multiply+0x50>
 1006434:	8825883a 	mov	r18,r17
 1006438:	2c400417 	ldw	r17,16(r5)
 100643c:	2827883a 	mov	r19,r5
 1006440:	3021883a 	mov	r16,r6
 1006444:	80800217 	ldw	r2,8(r16)
 1006448:	9447883a 	add	r3,r18,r17
 100644c:	d8c00415 	stw	r3,16(sp)
 1006450:	81400117 	ldw	r5,4(r16)
 1006454:	10c0010e 	bge	r2,r3,100645c <__multiply+0x68>
 1006458:	29400044 	addi	r5,r5,1
 100645c:	1005ee40 	call	1005ee4 <_Balloc>
 1006460:	d8800515 	stw	r2,20(sp)
 1006464:	d9000417 	ldw	r4,16(sp)
 1006468:	d8c00517 	ldw	r3,20(sp)
 100646c:	2105883a 	add	r2,r4,r4
 1006470:	1085883a 	add	r2,r2,r2
 1006474:	19000504 	addi	r4,r3,20
 1006478:	2085883a 	add	r2,r4,r2
 100647c:	d8800315 	stw	r2,12(sp)
 1006480:	2080052e 	bgeu	r4,r2,1006498 <__multiply+0xa4>
 1006484:	2005883a 	mov	r2,r4
 1006488:	d8c00317 	ldw	r3,12(sp)
 100648c:	10000015 	stw	zero,0(r2)
 1006490:	10800104 	addi	r2,r2,4
 1006494:	10fffc36 	bltu	r2,r3,1006488 <__multiply+0x94>
 1006498:	8c45883a 	add	r2,r17,r17
 100649c:	9487883a 	add	r3,r18,r18
 10064a0:	9dc00504 	addi	r23,r19,20
 10064a4:	1085883a 	add	r2,r2,r2
 10064a8:	84000504 	addi	r16,r16,20
 10064ac:	18c7883a 	add	r3,r3,r3
 10064b0:	b885883a 	add	r2,r23,r2
 10064b4:	dc000015 	stw	r16,0(sp)
 10064b8:	d8800215 	stw	r2,8(sp)
 10064bc:	80f9883a 	add	fp,r16,r3
 10064c0:	b880432e 	bgeu	r23,r2,10065d0 <__multiply+0x1dc>
 10064c4:	d9000115 	stw	r4,4(sp)
 10064c8:	b9000017 	ldw	r4,0(r23)
 10064cc:	253fffcc 	andi	r20,r4,65535
 10064d0:	a0001a26 	beq	r20,zero,100653c <__multiply+0x148>
 10064d4:	dcc00017 	ldw	r19,0(sp)
 10064d8:	dc800117 	ldw	r18,4(sp)
 10064dc:	002b883a 	mov	r21,zero
 10064e0:	9c400017 	ldw	r17,0(r19)
 10064e4:	94000017 	ldw	r16,0(r18)
 10064e8:	a009883a 	mov	r4,r20
 10064ec:	897fffcc 	andi	r5,r17,65535
 10064f0:	100972c0 	call	100972c <__mulsi3>
 10064f4:	880ad43a 	srli	r5,r17,16
 10064f8:	80ffffcc 	andi	r3,r16,65535
 10064fc:	a8c7883a 	add	r3,r21,r3
 1006500:	a009883a 	mov	r4,r20
 1006504:	10e3883a 	add	r17,r2,r3
 1006508:	8020d43a 	srli	r16,r16,16
 100650c:	100972c0 	call	100972c <__mulsi3>
 1006510:	8806d43a 	srli	r3,r17,16
 1006514:	1405883a 	add	r2,r2,r16
 1006518:	9cc00104 	addi	r19,r19,4
 100651c:	1887883a 	add	r3,r3,r2
 1006520:	90c0008d 	sth	r3,2(r18)
 1006524:	9440000d 	sth	r17,0(r18)
 1006528:	182ad43a 	srli	r21,r3,16
 100652c:	94800104 	addi	r18,r18,4
 1006530:	9f3feb36 	bltu	r19,fp,10064e0 <__multiply+0xec>
 1006534:	95400015 	stw	r21,0(r18)
 1006538:	b9000017 	ldw	r4,0(r23)
 100653c:	202ad43a 	srli	r21,r4,16
 1006540:	a8001c26 	beq	r21,zero,10065b4 <__multiply+0x1c0>
 1006544:	d9000117 	ldw	r4,4(sp)
 1006548:	dd000017 	ldw	r20,0(sp)
 100654c:	002d883a 	mov	r22,zero
 1006550:	24c00017 	ldw	r19,0(r4)
 1006554:	2025883a 	mov	r18,r4
 1006558:	9823883a 	mov	r17,r19
 100655c:	a4000017 	ldw	r16,0(r20)
 1006560:	a809883a 	mov	r4,r21
 1006564:	a5000104 	addi	r20,r20,4
 1006568:	817fffcc 	andi	r5,r16,65535
 100656c:	100972c0 	call	100972c <__mulsi3>
 1006570:	8806d43a 	srli	r3,r17,16
 1006574:	800ad43a 	srli	r5,r16,16
 1006578:	94c0000d 	sth	r19,0(r18)
 100657c:	b0c7883a 	add	r3,r22,r3
 1006580:	10e1883a 	add	r16,r2,r3
 1006584:	9400008d 	sth	r16,2(r18)
 1006588:	a809883a 	mov	r4,r21
 100658c:	94800104 	addi	r18,r18,4
 1006590:	100972c0 	call	100972c <__mulsi3>
 1006594:	94400017 	ldw	r17,0(r18)
 1006598:	8020d43a 	srli	r16,r16,16
 100659c:	88ffffcc 	andi	r3,r17,65535
 10065a0:	10c5883a 	add	r2,r2,r3
 10065a4:	80a7883a 	add	r19,r16,r2
 10065a8:	982cd43a 	srli	r22,r19,16
 10065ac:	a73feb36 	bltu	r20,fp,100655c <__multiply+0x168>
 10065b0:	94c00015 	stw	r19,0(r18)
 10065b4:	d8800217 	ldw	r2,8(sp)
 10065b8:	bdc00104 	addi	r23,r23,4
 10065bc:	b880042e 	bgeu	r23,r2,10065d0 <__multiply+0x1dc>
 10065c0:	d8c00117 	ldw	r3,4(sp)
 10065c4:	18c00104 	addi	r3,r3,4
 10065c8:	d8c00115 	stw	r3,4(sp)
 10065cc:	003fbe06 	br	10064c8 <__multiply+0xd4>
 10065d0:	d9000417 	ldw	r4,16(sp)
 10065d4:	01000c0e 	bge	zero,r4,1006608 <__multiply+0x214>
 10065d8:	d8c00317 	ldw	r3,12(sp)
 10065dc:	18bfff17 	ldw	r2,-4(r3)
 10065e0:	18ffff04 	addi	r3,r3,-4
 10065e4:	10000326 	beq	r2,zero,10065f4 <__multiply+0x200>
 10065e8:	00000706 	br	1006608 <__multiply+0x214>
 10065ec:	18800017 	ldw	r2,0(r3)
 10065f0:	1000051e 	bne	r2,zero,1006608 <__multiply+0x214>
 10065f4:	d9000417 	ldw	r4,16(sp)
 10065f8:	18ffff04 	addi	r3,r3,-4
 10065fc:	213fffc4 	addi	r4,r4,-1
 1006600:	d9000415 	stw	r4,16(sp)
 1006604:	203ff91e 	bne	r4,zero,10065ec <__multiply+0x1f8>
 1006608:	d8800417 	ldw	r2,16(sp)
 100660c:	d8c00517 	ldw	r3,20(sp)
 1006610:	18800415 	stw	r2,16(r3)
 1006614:	1805883a 	mov	r2,r3
 1006618:	dfc00f17 	ldw	ra,60(sp)
 100661c:	df000e17 	ldw	fp,56(sp)
 1006620:	ddc00d17 	ldw	r23,52(sp)
 1006624:	dd800c17 	ldw	r22,48(sp)
 1006628:	dd400b17 	ldw	r21,44(sp)
 100662c:	dd000a17 	ldw	r20,40(sp)
 1006630:	dcc00917 	ldw	r19,36(sp)
 1006634:	dc800817 	ldw	r18,32(sp)
 1006638:	dc400717 	ldw	r17,28(sp)
 100663c:	dc000617 	ldw	r16,24(sp)
 1006640:	dec01004 	addi	sp,sp,64
 1006644:	f800283a 	ret

01006648 <__i2b>:
 1006648:	defffd04 	addi	sp,sp,-12
 100664c:	dc000015 	stw	r16,0(sp)
 1006650:	04000044 	movi	r16,1
 1006654:	dc800115 	stw	r18,4(sp)
 1006658:	2825883a 	mov	r18,r5
 100665c:	800b883a 	mov	r5,r16
 1006660:	dfc00215 	stw	ra,8(sp)
 1006664:	1005ee40 	call	1005ee4 <_Balloc>
 1006668:	14000415 	stw	r16,16(r2)
 100666c:	14800515 	stw	r18,20(r2)
 1006670:	dfc00217 	ldw	ra,8(sp)
 1006674:	dc800117 	ldw	r18,4(sp)
 1006678:	dc000017 	ldw	r16,0(sp)
 100667c:	dec00304 	addi	sp,sp,12
 1006680:	f800283a 	ret

01006684 <__multadd>:
 1006684:	defff604 	addi	sp,sp,-40
 1006688:	dd800615 	stw	r22,24(sp)
 100668c:	2d800417 	ldw	r22,16(r5)
 1006690:	df000815 	stw	fp,32(sp)
 1006694:	ddc00715 	stw	r23,28(sp)
 1006698:	dd400515 	stw	r21,20(sp)
 100669c:	dd000415 	stw	r20,16(sp)
 10066a0:	dcc00315 	stw	r19,12(sp)
 10066a4:	dc800215 	stw	r18,8(sp)
 10066a8:	dfc00915 	stw	ra,36(sp)
 10066ac:	dc400115 	stw	r17,4(sp)
 10066b0:	dc000015 	stw	r16,0(sp)
 10066b4:	282f883a 	mov	r23,r5
 10066b8:	2039883a 	mov	fp,r4
 10066bc:	302b883a 	mov	r21,r6
 10066c0:	3829883a 	mov	r20,r7
 10066c4:	2c800504 	addi	r18,r5,20
 10066c8:	0027883a 	mov	r19,zero
 10066cc:	94400017 	ldw	r17,0(r18)
 10066d0:	a80b883a 	mov	r5,r21
 10066d4:	9cc00044 	addi	r19,r19,1
 10066d8:	893fffcc 	andi	r4,r17,65535
 10066dc:	100972c0 	call	100972c <__mulsi3>
 10066e0:	8808d43a 	srli	r4,r17,16
 10066e4:	1521883a 	add	r16,r2,r20
 10066e8:	a80b883a 	mov	r5,r21
 10066ec:	100972c0 	call	100972c <__mulsi3>
 10066f0:	8008d43a 	srli	r4,r16,16
 10066f4:	843fffcc 	andi	r16,r16,65535
 10066f8:	1105883a 	add	r2,r2,r4
 10066fc:	1006943a 	slli	r3,r2,16
 1006700:	1028d43a 	srli	r20,r2,16
 1006704:	1c07883a 	add	r3,r3,r16
 1006708:	90c00015 	stw	r3,0(r18)
 100670c:	94800104 	addi	r18,r18,4
 1006710:	9dbfee16 	blt	r19,r22,10066cc <__multadd+0x48>
 1006714:	a0000826 	beq	r20,zero,1006738 <__multadd+0xb4>
 1006718:	b8800217 	ldw	r2,8(r23)
 100671c:	b080130e 	bge	r22,r2,100676c <__multadd+0xe8>
 1006720:	b585883a 	add	r2,r22,r22
 1006724:	1085883a 	add	r2,r2,r2
 1006728:	15c5883a 	add	r2,r2,r23
 100672c:	b0c00044 	addi	r3,r22,1
 1006730:	15000515 	stw	r20,20(r2)
 1006734:	b8c00415 	stw	r3,16(r23)
 1006738:	b805883a 	mov	r2,r23
 100673c:	dfc00917 	ldw	ra,36(sp)
 1006740:	df000817 	ldw	fp,32(sp)
 1006744:	ddc00717 	ldw	r23,28(sp)
 1006748:	dd800617 	ldw	r22,24(sp)
 100674c:	dd400517 	ldw	r21,20(sp)
 1006750:	dd000417 	ldw	r20,16(sp)
 1006754:	dcc00317 	ldw	r19,12(sp)
 1006758:	dc800217 	ldw	r18,8(sp)
 100675c:	dc400117 	ldw	r17,4(sp)
 1006760:	dc000017 	ldw	r16,0(sp)
 1006764:	dec00a04 	addi	sp,sp,40
 1006768:	f800283a 	ret
 100676c:	b9400117 	ldw	r5,4(r23)
 1006770:	e009883a 	mov	r4,fp
 1006774:	29400044 	addi	r5,r5,1
 1006778:	1005ee40 	call	1005ee4 <_Balloc>
 100677c:	b9800417 	ldw	r6,16(r23)
 1006780:	b9400304 	addi	r5,r23,12
 1006784:	11000304 	addi	r4,r2,12
 1006788:	318d883a 	add	r6,r6,r6
 100678c:	318d883a 	add	r6,r6,r6
 1006790:	31800204 	addi	r6,r6,8
 1006794:	1023883a 	mov	r17,r2
 1006798:	100574c0 	call	100574c <memcpy>
 100679c:	b80b883a 	mov	r5,r23
 10067a0:	e009883a 	mov	r4,fp
 10067a4:	10059640 	call	1005964 <_Bfree>
 10067a8:	882f883a 	mov	r23,r17
 10067ac:	003fdc06 	br	1006720 <__multadd+0x9c>

010067b0 <__pow5mult>:
 10067b0:	defffa04 	addi	sp,sp,-24
 10067b4:	308000cc 	andi	r2,r6,3
 10067b8:	dd000415 	stw	r20,16(sp)
 10067bc:	dcc00315 	stw	r19,12(sp)
 10067c0:	dc000015 	stw	r16,0(sp)
 10067c4:	dfc00515 	stw	ra,20(sp)
 10067c8:	dc800215 	stw	r18,8(sp)
 10067cc:	dc400115 	stw	r17,4(sp)
 10067d0:	3021883a 	mov	r16,r6
 10067d4:	2027883a 	mov	r19,r4
 10067d8:	2829883a 	mov	r20,r5
 10067dc:	10002b1e 	bne	r2,zero,100688c <__pow5mult+0xdc>
 10067e0:	8025d0ba 	srai	r18,r16,2
 10067e4:	90001b26 	beq	r18,zero,1006854 <__pow5mult+0xa4>
 10067e8:	9c001217 	ldw	r16,72(r19)
 10067ec:	8000081e 	bne	r16,zero,1006810 <__pow5mult+0x60>
 10067f0:	00003006 	br	10068b4 <__pow5mult+0x104>
 10067f4:	800b883a 	mov	r5,r16
 10067f8:	800d883a 	mov	r6,r16
 10067fc:	9809883a 	mov	r4,r19
 1006800:	90001426 	beq	r18,zero,1006854 <__pow5mult+0xa4>
 1006804:	80800017 	ldw	r2,0(r16)
 1006808:	10001b26 	beq	r2,zero,1006878 <__pow5mult+0xc8>
 100680c:	1021883a 	mov	r16,r2
 1006810:	9080004c 	andi	r2,r18,1
 1006814:	1005003a 	cmpeq	r2,r2,zero
 1006818:	9025d07a 	srai	r18,r18,1
 100681c:	800d883a 	mov	r6,r16
 1006820:	9809883a 	mov	r4,r19
 1006824:	a00b883a 	mov	r5,r20
 1006828:	103ff21e 	bne	r2,zero,10067f4 <__pow5mult+0x44>
 100682c:	10063f40 	call	10063f4 <__multiply>
 1006830:	a00b883a 	mov	r5,r20
 1006834:	9809883a 	mov	r4,r19
 1006838:	1023883a 	mov	r17,r2
 100683c:	10059640 	call	1005964 <_Bfree>
 1006840:	8829883a 	mov	r20,r17
 1006844:	800b883a 	mov	r5,r16
 1006848:	800d883a 	mov	r6,r16
 100684c:	9809883a 	mov	r4,r19
 1006850:	903fec1e 	bne	r18,zero,1006804 <__pow5mult+0x54>
 1006854:	a005883a 	mov	r2,r20
 1006858:	dfc00517 	ldw	ra,20(sp)
 100685c:	dd000417 	ldw	r20,16(sp)
 1006860:	dcc00317 	ldw	r19,12(sp)
 1006864:	dc800217 	ldw	r18,8(sp)
 1006868:	dc400117 	ldw	r17,4(sp)
 100686c:	dc000017 	ldw	r16,0(sp)
 1006870:	dec00604 	addi	sp,sp,24
 1006874:	f800283a 	ret
 1006878:	10063f40 	call	10063f4 <__multiply>
 100687c:	80800015 	stw	r2,0(r16)
 1006880:	1021883a 	mov	r16,r2
 1006884:	10000015 	stw	zero,0(r2)
 1006888:	003fe106 	br	1006810 <__pow5mult+0x60>
 100688c:	1085883a 	add	r2,r2,r2
 1006890:	00c04074 	movhi	r3,257
 1006894:	18f58a04 	addi	r3,r3,-10712
 1006898:	1085883a 	add	r2,r2,r2
 100689c:	10c5883a 	add	r2,r2,r3
 10068a0:	11bfff17 	ldw	r6,-4(r2)
 10068a4:	000f883a 	mov	r7,zero
 10068a8:	10066840 	call	1006684 <__multadd>
 10068ac:	1029883a 	mov	r20,r2
 10068b0:	003fcb06 	br	10067e0 <__pow5mult+0x30>
 10068b4:	9809883a 	mov	r4,r19
 10068b8:	01409c44 	movi	r5,625
 10068bc:	10066480 	call	1006648 <__i2b>
 10068c0:	98801215 	stw	r2,72(r19)
 10068c4:	1021883a 	mov	r16,r2
 10068c8:	10000015 	stw	zero,0(r2)
 10068cc:	003fd006 	br	1006810 <__pow5mult+0x60>

010068d0 <__s2b>:
 10068d0:	defff904 	addi	sp,sp,-28
 10068d4:	dcc00315 	stw	r19,12(sp)
 10068d8:	dc800215 	stw	r18,8(sp)
 10068dc:	2827883a 	mov	r19,r5
 10068e0:	2025883a 	mov	r18,r4
 10068e4:	01400244 	movi	r5,9
 10068e8:	39000204 	addi	r4,r7,8
 10068ec:	dd000415 	stw	r20,16(sp)
 10068f0:	dc400115 	stw	r17,4(sp)
 10068f4:	dfc00615 	stw	ra,24(sp)
 10068f8:	dd400515 	stw	r21,20(sp)
 10068fc:	dc000015 	stw	r16,0(sp)
 1006900:	3829883a 	mov	r20,r7
 1006904:	3023883a 	mov	r17,r6
 1006908:	100965c0 	call	100965c <__divsi3>
 100690c:	00c00044 	movi	r3,1
 1006910:	1880350e 	bge	r3,r2,10069e8 <__s2b+0x118>
 1006914:	000b883a 	mov	r5,zero
 1006918:	18c7883a 	add	r3,r3,r3
 100691c:	29400044 	addi	r5,r5,1
 1006920:	18bffd16 	blt	r3,r2,1006918 <__s2b+0x48>
 1006924:	9009883a 	mov	r4,r18
 1006928:	1005ee40 	call	1005ee4 <_Balloc>
 100692c:	1011883a 	mov	r8,r2
 1006930:	d8800717 	ldw	r2,28(sp)
 1006934:	00c00044 	movi	r3,1
 1006938:	01800244 	movi	r6,9
 100693c:	40800515 	stw	r2,20(r8)
 1006940:	40c00415 	stw	r3,16(r8)
 1006944:	3440260e 	bge	r6,r17,10069e0 <__s2b+0x110>
 1006948:	3021883a 	mov	r16,r6
 100694c:	99ab883a 	add	r21,r19,r6
 1006950:	9c05883a 	add	r2,r19,r16
 1006954:	11c00007 	ldb	r7,0(r2)
 1006958:	400b883a 	mov	r5,r8
 100695c:	9009883a 	mov	r4,r18
 1006960:	39fff404 	addi	r7,r7,-48
 1006964:	01800284 	movi	r6,10
 1006968:	10066840 	call	1006684 <__multadd>
 100696c:	84000044 	addi	r16,r16,1
 1006970:	1011883a 	mov	r8,r2
 1006974:	8c3ff61e 	bne	r17,r16,1006950 <__s2b+0x80>
 1006978:	ac45883a 	add	r2,r21,r17
 100697c:	117ffe04 	addi	r5,r2,-8
 1006980:	880d883a 	mov	r6,r17
 1006984:	35000c0e 	bge	r6,r20,10069b8 <__s2b+0xe8>
 1006988:	a185c83a 	sub	r2,r20,r6
 100698c:	2821883a 	mov	r16,r5
 1006990:	28a3883a 	add	r17,r5,r2
 1006994:	81c00007 	ldb	r7,0(r16)
 1006998:	400b883a 	mov	r5,r8
 100699c:	9009883a 	mov	r4,r18
 10069a0:	39fff404 	addi	r7,r7,-48
 10069a4:	01800284 	movi	r6,10
 10069a8:	10066840 	call	1006684 <__multadd>
 10069ac:	84000044 	addi	r16,r16,1
 10069b0:	1011883a 	mov	r8,r2
 10069b4:	847ff71e 	bne	r16,r17,1006994 <__s2b+0xc4>
 10069b8:	4005883a 	mov	r2,r8
 10069bc:	dfc00617 	ldw	ra,24(sp)
 10069c0:	dd400517 	ldw	r21,20(sp)
 10069c4:	dd000417 	ldw	r20,16(sp)
 10069c8:	dcc00317 	ldw	r19,12(sp)
 10069cc:	dc800217 	ldw	r18,8(sp)
 10069d0:	dc400117 	ldw	r17,4(sp)
 10069d4:	dc000017 	ldw	r16,0(sp)
 10069d8:	dec00704 	addi	sp,sp,28
 10069dc:	f800283a 	ret
 10069e0:	99400284 	addi	r5,r19,10
 10069e4:	003fe706 	br	1006984 <__s2b+0xb4>
 10069e8:	000b883a 	mov	r5,zero
 10069ec:	003fcd06 	br	1006924 <__s2b+0x54>

010069f0 <_realloc_r>:
 10069f0:	defff404 	addi	sp,sp,-48
 10069f4:	dd800815 	stw	r22,32(sp)
 10069f8:	dc800415 	stw	r18,16(sp)
 10069fc:	dc400315 	stw	r17,12(sp)
 1006a00:	dfc00b15 	stw	ra,44(sp)
 1006a04:	df000a15 	stw	fp,40(sp)
 1006a08:	ddc00915 	stw	r23,36(sp)
 1006a0c:	dd400715 	stw	r21,28(sp)
 1006a10:	dd000615 	stw	r20,24(sp)
 1006a14:	dcc00515 	stw	r19,20(sp)
 1006a18:	dc000215 	stw	r16,8(sp)
 1006a1c:	2825883a 	mov	r18,r5
 1006a20:	3023883a 	mov	r17,r6
 1006a24:	202d883a 	mov	r22,r4
 1006a28:	2800c926 	beq	r5,zero,1006d50 <_realloc_r+0x360>
 1006a2c:	100a4b00 	call	100a4b0 <__malloc_lock>
 1006a30:	943ffe04 	addi	r16,r18,-8
 1006a34:	88c002c4 	addi	r3,r17,11
 1006a38:	00800584 	movi	r2,22
 1006a3c:	82000117 	ldw	r8,4(r16)
 1006a40:	10c01b2e 	bgeu	r2,r3,1006ab0 <_realloc_r+0xc0>
 1006a44:	00bffe04 	movi	r2,-8
 1006a48:	188e703a 	and	r7,r3,r2
 1006a4c:	3839883a 	mov	fp,r7
 1006a50:	38001a16 	blt	r7,zero,1006abc <_realloc_r+0xcc>
 1006a54:	e4401936 	bltu	fp,r17,1006abc <_realloc_r+0xcc>
 1006a58:	013fff04 	movi	r4,-4
 1006a5c:	4126703a 	and	r19,r8,r4
 1006a60:	99c02616 	blt	r19,r7,1006afc <_realloc_r+0x10c>
 1006a64:	802b883a 	mov	r21,r16
 1006a68:	9829883a 	mov	r20,r19
 1006a6c:	84000204 	addi	r16,r16,8
 1006a70:	a80f883a 	mov	r7,r21
 1006a74:	a70dc83a 	sub	r6,r20,fp
 1006a78:	008003c4 	movi	r2,15
 1006a7c:	1180c136 	bltu	r2,r6,1006d84 <_realloc_r+0x394>
 1006a80:	38800117 	ldw	r2,4(r7)
 1006a84:	a549883a 	add	r4,r20,r21
 1006a88:	1080004c 	andi	r2,r2,1
 1006a8c:	a084b03a 	or	r2,r20,r2
 1006a90:	38800115 	stw	r2,4(r7)
 1006a94:	20c00117 	ldw	r3,4(r4)
 1006a98:	18c00054 	ori	r3,r3,1
 1006a9c:	20c00115 	stw	r3,4(r4)
 1006aa0:	b009883a 	mov	r4,r22
 1006aa4:	100a4d00 	call	100a4d0 <__malloc_unlock>
 1006aa8:	8023883a 	mov	r17,r16
 1006aac:	00000606 	br	1006ac8 <_realloc_r+0xd8>
 1006ab0:	01c00404 	movi	r7,16
 1006ab4:	3839883a 	mov	fp,r7
 1006ab8:	e47fe72e 	bgeu	fp,r17,1006a58 <_realloc_r+0x68>
 1006abc:	00800304 	movi	r2,12
 1006ac0:	0023883a 	mov	r17,zero
 1006ac4:	b0800015 	stw	r2,0(r22)
 1006ac8:	8805883a 	mov	r2,r17
 1006acc:	dfc00b17 	ldw	ra,44(sp)
 1006ad0:	df000a17 	ldw	fp,40(sp)
 1006ad4:	ddc00917 	ldw	r23,36(sp)
 1006ad8:	dd800817 	ldw	r22,32(sp)
 1006adc:	dd400717 	ldw	r21,28(sp)
 1006ae0:	dd000617 	ldw	r20,24(sp)
 1006ae4:	dcc00517 	ldw	r19,20(sp)
 1006ae8:	dc800417 	ldw	r18,16(sp)
 1006aec:	dc400317 	ldw	r17,12(sp)
 1006af0:	dc000217 	ldw	r16,8(sp)
 1006af4:	dec00c04 	addi	sp,sp,48
 1006af8:	f800283a 	ret
 1006afc:	00804074 	movhi	r2,257
 1006b00:	10b6ee04 	addi	r2,r2,-9288
 1006b04:	12400217 	ldw	r9,8(r2)
 1006b08:	84cd883a 	add	r6,r16,r19
 1006b0c:	802b883a 	mov	r21,r16
 1006b10:	3240b926 	beq	r6,r9,1006df8 <_realloc_r+0x408>
 1006b14:	31400117 	ldw	r5,4(r6)
 1006b18:	00bfff84 	movi	r2,-2
 1006b1c:	2884703a 	and	r2,r5,r2
 1006b20:	1185883a 	add	r2,r2,r6
 1006b24:	10c00117 	ldw	r3,4(r2)
 1006b28:	18c0004c 	andi	r3,r3,1
 1006b2c:	1807003a 	cmpeq	r3,r3,zero
 1006b30:	1800a326 	beq	r3,zero,1006dc0 <_realloc_r+0x3d0>
 1006b34:	2908703a 	and	r4,r5,r4
 1006b38:	9929883a 	add	r20,r19,r4
 1006b3c:	a1c0a30e 	bge	r20,r7,1006dcc <_realloc_r+0x3dc>
 1006b40:	4080004c 	andi	r2,r8,1
 1006b44:	1000551e 	bne	r2,zero,1006c9c <_realloc_r+0x2ac>
 1006b48:	80800017 	ldw	r2,0(r16)
 1006b4c:	80afc83a 	sub	r23,r16,r2
 1006b50:	b8c00117 	ldw	r3,4(r23)
 1006b54:	00bfff04 	movi	r2,-4
 1006b58:	1884703a 	and	r2,r3,r2
 1006b5c:	30002e26 	beq	r6,zero,1006c18 <_realloc_r+0x228>
 1006b60:	3240b926 	beq	r6,r9,1006e48 <_realloc_r+0x458>
 1006b64:	98a9883a 	add	r20,r19,r2
 1006b68:	2509883a 	add	r4,r4,r20
 1006b6c:	d9000015 	stw	r4,0(sp)
 1006b70:	21c02a16 	blt	r4,r7,1006c1c <_realloc_r+0x22c>
 1006b74:	30800317 	ldw	r2,12(r6)
 1006b78:	30c00217 	ldw	r3,8(r6)
 1006b7c:	01400904 	movi	r5,36
 1006b80:	99bfff04 	addi	r6,r19,-4
 1006b84:	18800315 	stw	r2,12(r3)
 1006b88:	10c00215 	stw	r3,8(r2)
 1006b8c:	b9000317 	ldw	r4,12(r23)
 1006b90:	b8800217 	ldw	r2,8(r23)
 1006b94:	b82b883a 	mov	r21,r23
 1006b98:	bc000204 	addi	r16,r23,8
 1006b9c:	20800215 	stw	r2,8(r4)
 1006ba0:	11000315 	stw	r4,12(r2)
 1006ba4:	2980e436 	bltu	r5,r6,1006f38 <_realloc_r+0x548>
 1006ba8:	008004c4 	movi	r2,19
 1006bac:	9009883a 	mov	r4,r18
 1006bb0:	8011883a 	mov	r8,r16
 1006bb4:	11800f2e 	bgeu	r2,r6,1006bf4 <_realloc_r+0x204>
 1006bb8:	90800017 	ldw	r2,0(r18)
 1006bbc:	ba000404 	addi	r8,r23,16
 1006bc0:	91000204 	addi	r4,r18,8
 1006bc4:	b8800215 	stw	r2,8(r23)
 1006bc8:	90c00117 	ldw	r3,4(r18)
 1006bcc:	008006c4 	movi	r2,27
 1006bd0:	b8c00315 	stw	r3,12(r23)
 1006bd4:	1180072e 	bgeu	r2,r6,1006bf4 <_realloc_r+0x204>
 1006bd8:	90c00217 	ldw	r3,8(r18)
 1006bdc:	ba000604 	addi	r8,r23,24
 1006be0:	91000404 	addi	r4,r18,16
 1006be4:	b8c00415 	stw	r3,16(r23)
 1006be8:	90800317 	ldw	r2,12(r18)
 1006bec:	b8800515 	stw	r2,20(r23)
 1006bf0:	3140e726 	beq	r6,r5,1006f90 <_realloc_r+0x5a0>
 1006bf4:	20800017 	ldw	r2,0(r4)
 1006bf8:	dd000017 	ldw	r20,0(sp)
 1006bfc:	b80f883a 	mov	r7,r23
 1006c00:	40800015 	stw	r2,0(r8)
 1006c04:	20c00117 	ldw	r3,4(r4)
 1006c08:	40c00115 	stw	r3,4(r8)
 1006c0c:	20800217 	ldw	r2,8(r4)
 1006c10:	40800215 	stw	r2,8(r8)
 1006c14:	003f9706 	br	1006a74 <_realloc_r+0x84>
 1006c18:	98a9883a 	add	r20,r19,r2
 1006c1c:	a1c01f16 	blt	r20,r7,1006c9c <_realloc_r+0x2ac>
 1006c20:	b8c00317 	ldw	r3,12(r23)
 1006c24:	b8800217 	ldw	r2,8(r23)
 1006c28:	99bfff04 	addi	r6,r19,-4
 1006c2c:	01400904 	movi	r5,36
 1006c30:	b82b883a 	mov	r21,r23
 1006c34:	18800215 	stw	r2,8(r3)
 1006c38:	10c00315 	stw	r3,12(r2)
 1006c3c:	bc000204 	addi	r16,r23,8
 1006c40:	2980c336 	bltu	r5,r6,1006f50 <_realloc_r+0x560>
 1006c44:	008004c4 	movi	r2,19
 1006c48:	9009883a 	mov	r4,r18
 1006c4c:	8011883a 	mov	r8,r16
 1006c50:	11800f2e 	bgeu	r2,r6,1006c90 <_realloc_r+0x2a0>
 1006c54:	90800017 	ldw	r2,0(r18)
 1006c58:	ba000404 	addi	r8,r23,16
 1006c5c:	91000204 	addi	r4,r18,8
 1006c60:	b8800215 	stw	r2,8(r23)
 1006c64:	90c00117 	ldw	r3,4(r18)
 1006c68:	008006c4 	movi	r2,27
 1006c6c:	b8c00315 	stw	r3,12(r23)
 1006c70:	1180072e 	bgeu	r2,r6,1006c90 <_realloc_r+0x2a0>
 1006c74:	90c00217 	ldw	r3,8(r18)
 1006c78:	ba000604 	addi	r8,r23,24
 1006c7c:	91000404 	addi	r4,r18,16
 1006c80:	b8c00415 	stw	r3,16(r23)
 1006c84:	90800317 	ldw	r2,12(r18)
 1006c88:	b8800515 	stw	r2,20(r23)
 1006c8c:	3140c726 	beq	r6,r5,1006fac <_realloc_r+0x5bc>
 1006c90:	20800017 	ldw	r2,0(r4)
 1006c94:	b80f883a 	mov	r7,r23
 1006c98:	003fd906 	br	1006c00 <_realloc_r+0x210>
 1006c9c:	880b883a 	mov	r5,r17
 1006ca0:	b009883a 	mov	r4,r22
 1006ca4:	1004f280 	call	1004f28 <_malloc_r>
 1006ca8:	1023883a 	mov	r17,r2
 1006cac:	10002526 	beq	r2,zero,1006d44 <_realloc_r+0x354>
 1006cb0:	80800117 	ldw	r2,4(r16)
 1006cb4:	00ffff84 	movi	r3,-2
 1006cb8:	893ffe04 	addi	r4,r17,-8
 1006cbc:	10c4703a 	and	r2,r2,r3
 1006cc0:	8085883a 	add	r2,r16,r2
 1006cc4:	20809526 	beq	r4,r2,1006f1c <_realloc_r+0x52c>
 1006cc8:	99bfff04 	addi	r6,r19,-4
 1006ccc:	01c00904 	movi	r7,36
 1006cd0:	39804536 	bltu	r7,r6,1006de8 <_realloc_r+0x3f8>
 1006cd4:	008004c4 	movi	r2,19
 1006cd8:	9009883a 	mov	r4,r18
 1006cdc:	880b883a 	mov	r5,r17
 1006ce0:	11800f2e 	bgeu	r2,r6,1006d20 <_realloc_r+0x330>
 1006ce4:	90800017 	ldw	r2,0(r18)
 1006ce8:	89400204 	addi	r5,r17,8
 1006cec:	91000204 	addi	r4,r18,8
 1006cf0:	88800015 	stw	r2,0(r17)
 1006cf4:	90c00117 	ldw	r3,4(r18)
 1006cf8:	008006c4 	movi	r2,27
 1006cfc:	88c00115 	stw	r3,4(r17)
 1006d00:	1180072e 	bgeu	r2,r6,1006d20 <_realloc_r+0x330>
 1006d04:	90c00217 	ldw	r3,8(r18)
 1006d08:	89400404 	addi	r5,r17,16
 1006d0c:	91000404 	addi	r4,r18,16
 1006d10:	88c00215 	stw	r3,8(r17)
 1006d14:	90800317 	ldw	r2,12(r18)
 1006d18:	88800315 	stw	r2,12(r17)
 1006d1c:	31c09126 	beq	r6,r7,1006f64 <_realloc_r+0x574>
 1006d20:	20800017 	ldw	r2,0(r4)
 1006d24:	28800015 	stw	r2,0(r5)
 1006d28:	20c00117 	ldw	r3,4(r4)
 1006d2c:	28c00115 	stw	r3,4(r5)
 1006d30:	20800217 	ldw	r2,8(r4)
 1006d34:	28800215 	stw	r2,8(r5)
 1006d38:	900b883a 	mov	r5,r18
 1006d3c:	b009883a 	mov	r4,r22
 1006d40:	10043a00 	call	10043a0 <_free_r>
 1006d44:	b009883a 	mov	r4,r22
 1006d48:	100a4d00 	call	100a4d0 <__malloc_unlock>
 1006d4c:	003f5e06 	br	1006ac8 <_realloc_r+0xd8>
 1006d50:	300b883a 	mov	r5,r6
 1006d54:	dfc00b17 	ldw	ra,44(sp)
 1006d58:	df000a17 	ldw	fp,40(sp)
 1006d5c:	ddc00917 	ldw	r23,36(sp)
 1006d60:	dd800817 	ldw	r22,32(sp)
 1006d64:	dd400717 	ldw	r21,28(sp)
 1006d68:	dd000617 	ldw	r20,24(sp)
 1006d6c:	dcc00517 	ldw	r19,20(sp)
 1006d70:	dc800417 	ldw	r18,16(sp)
 1006d74:	dc400317 	ldw	r17,12(sp)
 1006d78:	dc000217 	ldw	r16,8(sp)
 1006d7c:	dec00c04 	addi	sp,sp,48
 1006d80:	1004f281 	jmpi	1004f28 <_malloc_r>
 1006d84:	38800117 	ldw	r2,4(r7)
 1006d88:	e54b883a 	add	r5,fp,r21
 1006d8c:	31000054 	ori	r4,r6,1
 1006d90:	1080004c 	andi	r2,r2,1
 1006d94:	1704b03a 	or	r2,r2,fp
 1006d98:	38800115 	stw	r2,4(r7)
 1006d9c:	29000115 	stw	r4,4(r5)
 1006da0:	2987883a 	add	r3,r5,r6
 1006da4:	18800117 	ldw	r2,4(r3)
 1006da8:	29400204 	addi	r5,r5,8
 1006dac:	b009883a 	mov	r4,r22
 1006db0:	10800054 	ori	r2,r2,1
 1006db4:	18800115 	stw	r2,4(r3)
 1006db8:	10043a00 	call	10043a0 <_free_r>
 1006dbc:	003f3806 	br	1006aa0 <_realloc_r+0xb0>
 1006dc0:	000d883a 	mov	r6,zero
 1006dc4:	0009883a 	mov	r4,zero
 1006dc8:	003f5d06 	br	1006b40 <_realloc_r+0x150>
 1006dcc:	30c00217 	ldw	r3,8(r6)
 1006dd0:	30800317 	ldw	r2,12(r6)
 1006dd4:	800f883a 	mov	r7,r16
 1006dd8:	84000204 	addi	r16,r16,8
 1006ddc:	10c00215 	stw	r3,8(r2)
 1006de0:	18800315 	stw	r2,12(r3)
 1006de4:	003f2306 	br	1006a74 <_realloc_r+0x84>
 1006de8:	8809883a 	mov	r4,r17
 1006dec:	900b883a 	mov	r5,r18
 1006df0:	10057ec0 	call	10057ec <memmove>
 1006df4:	003fd006 	br	1006d38 <_realloc_r+0x348>
 1006df8:	30800117 	ldw	r2,4(r6)
 1006dfc:	e0c00404 	addi	r3,fp,16
 1006e00:	1108703a 	and	r4,r2,r4
 1006e04:	9905883a 	add	r2,r19,r4
 1006e08:	10ff4d16 	blt	r2,r3,1006b40 <_realloc_r+0x150>
 1006e0c:	1705c83a 	sub	r2,r2,fp
 1006e10:	870b883a 	add	r5,r16,fp
 1006e14:	10800054 	ori	r2,r2,1
 1006e18:	28800115 	stw	r2,4(r5)
 1006e1c:	80c00117 	ldw	r3,4(r16)
 1006e20:	00804074 	movhi	r2,257
 1006e24:	10b6ee04 	addi	r2,r2,-9288
 1006e28:	b009883a 	mov	r4,r22
 1006e2c:	18c0004c 	andi	r3,r3,1
 1006e30:	e0c6b03a 	or	r3,fp,r3
 1006e34:	11400215 	stw	r5,8(r2)
 1006e38:	80c00115 	stw	r3,4(r16)
 1006e3c:	100a4d00 	call	100a4d0 <__malloc_unlock>
 1006e40:	84400204 	addi	r17,r16,8
 1006e44:	003f2006 	br	1006ac8 <_realloc_r+0xd8>
 1006e48:	98a9883a 	add	r20,r19,r2
 1006e4c:	2509883a 	add	r4,r4,r20
 1006e50:	e0800404 	addi	r2,fp,16
 1006e54:	d9000115 	stw	r4,4(sp)
 1006e58:	20bf7016 	blt	r4,r2,1006c1c <_realloc_r+0x22c>
 1006e5c:	b8c00317 	ldw	r3,12(r23)
 1006e60:	b8800217 	ldw	r2,8(r23)
 1006e64:	99bfff04 	addi	r6,r19,-4
 1006e68:	01400904 	movi	r5,36
 1006e6c:	18800215 	stw	r2,8(r3)
 1006e70:	10c00315 	stw	r3,12(r2)
 1006e74:	bc400204 	addi	r17,r23,8
 1006e78:	29804136 	bltu	r5,r6,1006f80 <_realloc_r+0x590>
 1006e7c:	008004c4 	movi	r2,19
 1006e80:	9009883a 	mov	r4,r18
 1006e84:	880f883a 	mov	r7,r17
 1006e88:	11800f2e 	bgeu	r2,r6,1006ec8 <_realloc_r+0x4d8>
 1006e8c:	90800017 	ldw	r2,0(r18)
 1006e90:	b9c00404 	addi	r7,r23,16
 1006e94:	91000204 	addi	r4,r18,8
 1006e98:	b8800215 	stw	r2,8(r23)
 1006e9c:	90c00117 	ldw	r3,4(r18)
 1006ea0:	008006c4 	movi	r2,27
 1006ea4:	b8c00315 	stw	r3,12(r23)
 1006ea8:	1180072e 	bgeu	r2,r6,1006ec8 <_realloc_r+0x4d8>
 1006eac:	90c00217 	ldw	r3,8(r18)
 1006eb0:	b9c00604 	addi	r7,r23,24
 1006eb4:	91000404 	addi	r4,r18,16
 1006eb8:	b8c00415 	stw	r3,16(r23)
 1006ebc:	90800317 	ldw	r2,12(r18)
 1006ec0:	b8800515 	stw	r2,20(r23)
 1006ec4:	31404026 	beq	r6,r5,1006fc8 <_realloc_r+0x5d8>
 1006ec8:	20800017 	ldw	r2,0(r4)
 1006ecc:	38800015 	stw	r2,0(r7)
 1006ed0:	20c00117 	ldw	r3,4(r4)
 1006ed4:	38c00115 	stw	r3,4(r7)
 1006ed8:	20800217 	ldw	r2,8(r4)
 1006edc:	38800215 	stw	r2,8(r7)
 1006ee0:	d8c00117 	ldw	r3,4(sp)
 1006ee4:	bf0b883a 	add	r5,r23,fp
 1006ee8:	b009883a 	mov	r4,r22
 1006eec:	1f05c83a 	sub	r2,r3,fp
 1006ef0:	10800054 	ori	r2,r2,1
 1006ef4:	28800115 	stw	r2,4(r5)
 1006ef8:	b8c00117 	ldw	r3,4(r23)
 1006efc:	00804074 	movhi	r2,257
 1006f00:	10b6ee04 	addi	r2,r2,-9288
 1006f04:	11400215 	stw	r5,8(r2)
 1006f08:	18c0004c 	andi	r3,r3,1
 1006f0c:	e0c6b03a 	or	r3,fp,r3
 1006f10:	b8c00115 	stw	r3,4(r23)
 1006f14:	100a4d00 	call	100a4d0 <__malloc_unlock>
 1006f18:	003eeb06 	br	1006ac8 <_realloc_r+0xd8>
 1006f1c:	20800117 	ldw	r2,4(r4)
 1006f20:	00ffff04 	movi	r3,-4
 1006f24:	800f883a 	mov	r7,r16
 1006f28:	10c4703a 	and	r2,r2,r3
 1006f2c:	98a9883a 	add	r20,r19,r2
 1006f30:	84000204 	addi	r16,r16,8
 1006f34:	003ecf06 	br	1006a74 <_realloc_r+0x84>
 1006f38:	900b883a 	mov	r5,r18
 1006f3c:	8009883a 	mov	r4,r16
 1006f40:	10057ec0 	call	10057ec <memmove>
 1006f44:	dd000017 	ldw	r20,0(sp)
 1006f48:	b80f883a 	mov	r7,r23
 1006f4c:	003ec906 	br	1006a74 <_realloc_r+0x84>
 1006f50:	900b883a 	mov	r5,r18
 1006f54:	8009883a 	mov	r4,r16
 1006f58:	10057ec0 	call	10057ec <memmove>
 1006f5c:	b80f883a 	mov	r7,r23
 1006f60:	003ec406 	br	1006a74 <_realloc_r+0x84>
 1006f64:	90c00417 	ldw	r3,16(r18)
 1006f68:	89400604 	addi	r5,r17,24
 1006f6c:	91000604 	addi	r4,r18,24
 1006f70:	88c00415 	stw	r3,16(r17)
 1006f74:	90800517 	ldw	r2,20(r18)
 1006f78:	88800515 	stw	r2,20(r17)
 1006f7c:	003f6806 	br	1006d20 <_realloc_r+0x330>
 1006f80:	900b883a 	mov	r5,r18
 1006f84:	8809883a 	mov	r4,r17
 1006f88:	10057ec0 	call	10057ec <memmove>
 1006f8c:	003fd406 	br	1006ee0 <_realloc_r+0x4f0>
 1006f90:	90c00417 	ldw	r3,16(r18)
 1006f94:	91000604 	addi	r4,r18,24
 1006f98:	ba000804 	addi	r8,r23,32
 1006f9c:	b8c00615 	stw	r3,24(r23)
 1006fa0:	90800517 	ldw	r2,20(r18)
 1006fa4:	b8800715 	stw	r2,28(r23)
 1006fa8:	003f1206 	br	1006bf4 <_realloc_r+0x204>
 1006fac:	90c00417 	ldw	r3,16(r18)
 1006fb0:	91000604 	addi	r4,r18,24
 1006fb4:	ba000804 	addi	r8,r23,32
 1006fb8:	b8c00615 	stw	r3,24(r23)
 1006fbc:	90800517 	ldw	r2,20(r18)
 1006fc0:	b8800715 	stw	r2,28(r23)
 1006fc4:	003f3206 	br	1006c90 <_realloc_r+0x2a0>
 1006fc8:	90c00417 	ldw	r3,16(r18)
 1006fcc:	91000604 	addi	r4,r18,24
 1006fd0:	b9c00804 	addi	r7,r23,32
 1006fd4:	b8c00615 	stw	r3,24(r23)
 1006fd8:	90800517 	ldw	r2,20(r18)
 1006fdc:	b8800715 	stw	r2,28(r23)
 1006fe0:	003fb906 	br	1006ec8 <_realloc_r+0x4d8>

01006fe4 <__isinfd>:
 1006fe4:	200d883a 	mov	r6,r4
 1006fe8:	0109c83a 	sub	r4,zero,r4
 1006fec:	2188b03a 	or	r4,r4,r6
 1006ff0:	2008d7fa 	srli	r4,r4,31
 1006ff4:	00a00034 	movhi	r2,32768
 1006ff8:	10bfffc4 	addi	r2,r2,-1
 1006ffc:	1144703a 	and	r2,r2,r5
 1007000:	2088b03a 	or	r4,r4,r2
 1007004:	009ffc34 	movhi	r2,32752
 1007008:	1105c83a 	sub	r2,r2,r4
 100700c:	0087c83a 	sub	r3,zero,r2
 1007010:	10c4b03a 	or	r2,r2,r3
 1007014:	1004d7fa 	srli	r2,r2,31
 1007018:	00c00044 	movi	r3,1
 100701c:	1885c83a 	sub	r2,r3,r2
 1007020:	f800283a 	ret

01007024 <__isnand>:
 1007024:	200d883a 	mov	r6,r4
 1007028:	0109c83a 	sub	r4,zero,r4
 100702c:	2188b03a 	or	r4,r4,r6
 1007030:	2008d7fa 	srli	r4,r4,31
 1007034:	00a00034 	movhi	r2,32768
 1007038:	10bfffc4 	addi	r2,r2,-1
 100703c:	1144703a 	and	r2,r2,r5
 1007040:	2088b03a 	or	r4,r4,r2
 1007044:	009ffc34 	movhi	r2,32752
 1007048:	1105c83a 	sub	r2,r2,r4
 100704c:	1004d7fa 	srli	r2,r2,31
 1007050:	f800283a 	ret

01007054 <_sbrk_r>:
 1007054:	defffd04 	addi	sp,sp,-12
 1007058:	dc000015 	stw	r16,0(sp)
 100705c:	04004074 	movhi	r16,257
 1007060:	84034b04 	addi	r16,r16,3372
 1007064:	dc400115 	stw	r17,4(sp)
 1007068:	80000015 	stw	zero,0(r16)
 100706c:	2023883a 	mov	r17,r4
 1007070:	2809883a 	mov	r4,r5
 1007074:	dfc00215 	stw	ra,8(sp)
 1007078:	100a9840 	call	100a984 <sbrk>
 100707c:	1007883a 	mov	r3,r2
 1007080:	00bfffc4 	movi	r2,-1
 1007084:	18800626 	beq	r3,r2,10070a0 <_sbrk_r+0x4c>
 1007088:	1805883a 	mov	r2,r3
 100708c:	dfc00217 	ldw	ra,8(sp)
 1007090:	dc400117 	ldw	r17,4(sp)
 1007094:	dc000017 	ldw	r16,0(sp)
 1007098:	dec00304 	addi	sp,sp,12
 100709c:	f800283a 	ret
 10070a0:	80800017 	ldw	r2,0(r16)
 10070a4:	103ff826 	beq	r2,zero,1007088 <_sbrk_r+0x34>
 10070a8:	88800015 	stw	r2,0(r17)
 10070ac:	1805883a 	mov	r2,r3
 10070b0:	dfc00217 	ldw	ra,8(sp)
 10070b4:	dc400117 	ldw	r17,4(sp)
 10070b8:	dc000017 	ldw	r16,0(sp)
 10070bc:	dec00304 	addi	sp,sp,12
 10070c0:	f800283a 	ret

010070c4 <__sclose>:
 10070c4:	2940038f 	ldh	r5,14(r5)
 10070c8:	10074801 	jmpi	1007480 <_close_r>

010070cc <__sseek>:
 10070cc:	defffe04 	addi	sp,sp,-8
 10070d0:	dc000015 	stw	r16,0(sp)
 10070d4:	2821883a 	mov	r16,r5
 10070d8:	2940038f 	ldh	r5,14(r5)
 10070dc:	dfc00115 	stw	ra,4(sp)
 10070e0:	10076f80 	call	10076f8 <_lseek_r>
 10070e4:	1007883a 	mov	r3,r2
 10070e8:	00bfffc4 	movi	r2,-1
 10070ec:	18800926 	beq	r3,r2,1007114 <__sseek+0x48>
 10070f0:	8080030b 	ldhu	r2,12(r16)
 10070f4:	80c01415 	stw	r3,80(r16)
 10070f8:	10840014 	ori	r2,r2,4096
 10070fc:	8080030d 	sth	r2,12(r16)
 1007100:	1805883a 	mov	r2,r3
 1007104:	dfc00117 	ldw	ra,4(sp)
 1007108:	dc000017 	ldw	r16,0(sp)
 100710c:	dec00204 	addi	sp,sp,8
 1007110:	f800283a 	ret
 1007114:	8080030b 	ldhu	r2,12(r16)
 1007118:	10bbffcc 	andi	r2,r2,61439
 100711c:	8080030d 	sth	r2,12(r16)
 1007120:	1805883a 	mov	r2,r3
 1007124:	dfc00117 	ldw	ra,4(sp)
 1007128:	dc000017 	ldw	r16,0(sp)
 100712c:	dec00204 	addi	sp,sp,8
 1007130:	f800283a 	ret

01007134 <__swrite>:
 1007134:	2880030b 	ldhu	r2,12(r5)
 1007138:	defffb04 	addi	sp,sp,-20
 100713c:	dcc00315 	stw	r19,12(sp)
 1007140:	1080400c 	andi	r2,r2,256
 1007144:	dc800215 	stw	r18,8(sp)
 1007148:	dc400115 	stw	r17,4(sp)
 100714c:	dc000015 	stw	r16,0(sp)
 1007150:	3027883a 	mov	r19,r6
 1007154:	3825883a 	mov	r18,r7
 1007158:	dfc00415 	stw	ra,16(sp)
 100715c:	2821883a 	mov	r16,r5
 1007160:	000d883a 	mov	r6,zero
 1007164:	01c00084 	movi	r7,2
 1007168:	2023883a 	mov	r17,r4
 100716c:	10000226 	beq	r2,zero,1007178 <__swrite+0x44>
 1007170:	2940038f 	ldh	r5,14(r5)
 1007174:	10076f80 	call	10076f8 <_lseek_r>
 1007178:	8080030b 	ldhu	r2,12(r16)
 100717c:	8140038f 	ldh	r5,14(r16)
 1007180:	8809883a 	mov	r4,r17
 1007184:	10bbffcc 	andi	r2,r2,61439
 1007188:	980d883a 	mov	r6,r19
 100718c:	900f883a 	mov	r7,r18
 1007190:	8080030d 	sth	r2,12(r16)
 1007194:	dfc00417 	ldw	ra,16(sp)
 1007198:	dcc00317 	ldw	r19,12(sp)
 100719c:	dc800217 	ldw	r18,8(sp)
 10071a0:	dc400117 	ldw	r17,4(sp)
 10071a4:	dc000017 	ldw	r16,0(sp)
 10071a8:	dec00504 	addi	sp,sp,20
 10071ac:	10073401 	jmpi	1007340 <_write_r>

010071b0 <__sread>:
 10071b0:	defffe04 	addi	sp,sp,-8
 10071b4:	dc000015 	stw	r16,0(sp)
 10071b8:	2821883a 	mov	r16,r5
 10071bc:	2940038f 	ldh	r5,14(r5)
 10071c0:	dfc00115 	stw	ra,4(sp)
 10071c4:	10077700 	call	1007770 <_read_r>
 10071c8:	1007883a 	mov	r3,r2
 10071cc:	10000816 	blt	r2,zero,10071f0 <__sread+0x40>
 10071d0:	80801417 	ldw	r2,80(r16)
 10071d4:	10c5883a 	add	r2,r2,r3
 10071d8:	80801415 	stw	r2,80(r16)
 10071dc:	1805883a 	mov	r2,r3
 10071e0:	dfc00117 	ldw	ra,4(sp)
 10071e4:	dc000017 	ldw	r16,0(sp)
 10071e8:	dec00204 	addi	sp,sp,8
 10071ec:	f800283a 	ret
 10071f0:	8080030b 	ldhu	r2,12(r16)
 10071f4:	10bbffcc 	andi	r2,r2,61439
 10071f8:	8080030d 	sth	r2,12(r16)
 10071fc:	1805883a 	mov	r2,r3
 1007200:	dfc00117 	ldw	ra,4(sp)
 1007204:	dc000017 	ldw	r16,0(sp)
 1007208:	dec00204 	addi	sp,sp,8
 100720c:	f800283a 	ret

01007210 <strcmp>:
 1007210:	2144b03a 	or	r2,r4,r5
 1007214:	108000cc 	andi	r2,r2,3
 1007218:	10001d1e 	bne	r2,zero,1007290 <strcmp+0x80>
 100721c:	200f883a 	mov	r7,r4
 1007220:	28800017 	ldw	r2,0(r5)
 1007224:	21000017 	ldw	r4,0(r4)
 1007228:	280d883a 	mov	r6,r5
 100722c:	2080161e 	bne	r4,r2,1007288 <strcmp+0x78>
 1007230:	023fbff4 	movhi	r8,65279
 1007234:	423fbfc4 	addi	r8,r8,-257
 1007238:	2207883a 	add	r3,r4,r8
 100723c:	01602074 	movhi	r5,32897
 1007240:	29602004 	addi	r5,r5,-32640
 1007244:	1946703a 	and	r3,r3,r5
 1007248:	0104303a 	nor	r2,zero,r4
 100724c:	10c4703a 	and	r2,r2,r3
 1007250:	10001c1e 	bne	r2,zero,10072c4 <strcmp+0xb4>
 1007254:	4013883a 	mov	r9,r8
 1007258:	2811883a 	mov	r8,r5
 100725c:	00000106 	br	1007264 <strcmp+0x54>
 1007260:	1800181e 	bne	r3,zero,10072c4 <strcmp+0xb4>
 1007264:	39c00104 	addi	r7,r7,4
 1007268:	39000017 	ldw	r4,0(r7)
 100726c:	31800104 	addi	r6,r6,4
 1007270:	31400017 	ldw	r5,0(r6)
 1007274:	2245883a 	add	r2,r4,r9
 1007278:	1204703a 	and	r2,r2,r8
 100727c:	0106303a 	nor	r3,zero,r4
 1007280:	1886703a 	and	r3,r3,r2
 1007284:	217ff626 	beq	r4,r5,1007260 <strcmp+0x50>
 1007288:	3809883a 	mov	r4,r7
 100728c:	300b883a 	mov	r5,r6
 1007290:	20c00007 	ldb	r3,0(r4)
 1007294:	1800051e 	bne	r3,zero,10072ac <strcmp+0x9c>
 1007298:	00000606 	br	10072b4 <strcmp+0xa4>
 100729c:	21000044 	addi	r4,r4,1
 10072a0:	20c00007 	ldb	r3,0(r4)
 10072a4:	29400044 	addi	r5,r5,1
 10072a8:	18000226 	beq	r3,zero,10072b4 <strcmp+0xa4>
 10072ac:	28800007 	ldb	r2,0(r5)
 10072b0:	18bffa26 	beq	r3,r2,100729c <strcmp+0x8c>
 10072b4:	20c00003 	ldbu	r3,0(r4)
 10072b8:	28800003 	ldbu	r2,0(r5)
 10072bc:	1885c83a 	sub	r2,r3,r2
 10072c0:	f800283a 	ret
 10072c4:	0005883a 	mov	r2,zero
 10072c8:	f800283a 	ret

010072cc <strlen>:
 10072cc:	208000cc 	andi	r2,r4,3
 10072d0:	2011883a 	mov	r8,r4
 10072d4:	1000161e 	bne	r2,zero,1007330 <strlen+0x64>
 10072d8:	20c00017 	ldw	r3,0(r4)
 10072dc:	017fbff4 	movhi	r5,65279
 10072e0:	297fbfc4 	addi	r5,r5,-257
 10072e4:	01e02074 	movhi	r7,32897
 10072e8:	39e02004 	addi	r7,r7,-32640
 10072ec:	1945883a 	add	r2,r3,r5
 10072f0:	11c4703a 	and	r2,r2,r7
 10072f4:	00c6303a 	nor	r3,zero,r3
 10072f8:	1886703a 	and	r3,r3,r2
 10072fc:	18000c1e 	bne	r3,zero,1007330 <strlen+0x64>
 1007300:	280d883a 	mov	r6,r5
 1007304:	380b883a 	mov	r5,r7
 1007308:	21000104 	addi	r4,r4,4
 100730c:	20800017 	ldw	r2,0(r4)
 1007310:	1187883a 	add	r3,r2,r6
 1007314:	1946703a 	and	r3,r3,r5
 1007318:	0084303a 	nor	r2,zero,r2
 100731c:	10c4703a 	and	r2,r2,r3
 1007320:	103ff926 	beq	r2,zero,1007308 <strlen+0x3c>
 1007324:	20800007 	ldb	r2,0(r4)
 1007328:	10000326 	beq	r2,zero,1007338 <strlen+0x6c>
 100732c:	21000044 	addi	r4,r4,1
 1007330:	20800007 	ldb	r2,0(r4)
 1007334:	103ffd1e 	bne	r2,zero,100732c <strlen+0x60>
 1007338:	2205c83a 	sub	r2,r4,r8
 100733c:	f800283a 	ret

01007340 <_write_r>:
 1007340:	defffd04 	addi	sp,sp,-12
 1007344:	dc000015 	stw	r16,0(sp)
 1007348:	04004074 	movhi	r16,257
 100734c:	84034b04 	addi	r16,r16,3372
 1007350:	dc400115 	stw	r17,4(sp)
 1007354:	80000015 	stw	zero,0(r16)
 1007358:	2023883a 	mov	r17,r4
 100735c:	2809883a 	mov	r4,r5
 1007360:	300b883a 	mov	r5,r6
 1007364:	380d883a 	mov	r6,r7
 1007368:	dfc00215 	stw	ra,8(sp)
 100736c:	100aa400 	call	100aa40 <write>
 1007370:	1007883a 	mov	r3,r2
 1007374:	00bfffc4 	movi	r2,-1
 1007378:	18800626 	beq	r3,r2,1007394 <_write_r+0x54>
 100737c:	1805883a 	mov	r2,r3
 1007380:	dfc00217 	ldw	ra,8(sp)
 1007384:	dc400117 	ldw	r17,4(sp)
 1007388:	dc000017 	ldw	r16,0(sp)
 100738c:	dec00304 	addi	sp,sp,12
 1007390:	f800283a 	ret
 1007394:	80800017 	ldw	r2,0(r16)
 1007398:	103ff826 	beq	r2,zero,100737c <_write_r+0x3c>
 100739c:	88800015 	stw	r2,0(r17)
 10073a0:	1805883a 	mov	r2,r3
 10073a4:	dfc00217 	ldw	ra,8(sp)
 10073a8:	dc400117 	ldw	r17,4(sp)
 10073ac:	dc000017 	ldw	r16,0(sp)
 10073b0:	dec00304 	addi	sp,sp,12
 10073b4:	f800283a 	ret

010073b8 <_calloc_r>:
 10073b8:	defffe04 	addi	sp,sp,-8
 10073bc:	dc400015 	stw	r17,0(sp)
 10073c0:	2023883a 	mov	r17,r4
 10073c4:	2809883a 	mov	r4,r5
 10073c8:	300b883a 	mov	r5,r6
 10073cc:	dfc00115 	stw	ra,4(sp)
 10073d0:	100972c0 	call	100972c <__mulsi3>
 10073d4:	100b883a 	mov	r5,r2
 10073d8:	8809883a 	mov	r4,r17
 10073dc:	1004f280 	call	1004f28 <_malloc_r>
 10073e0:	1023883a 	mov	r17,r2
 10073e4:	01c00904 	movi	r7,36
 10073e8:	10000d26 	beq	r2,zero,1007420 <_calloc_r+0x68>
 10073ec:	10ffff17 	ldw	r3,-4(r2)
 10073f0:	1009883a 	mov	r4,r2
 10073f4:	00bfff04 	movi	r2,-4
 10073f8:	1886703a 	and	r3,r3,r2
 10073fc:	1887883a 	add	r3,r3,r2
 1007400:	180d883a 	mov	r6,r3
 1007404:	000b883a 	mov	r5,zero
 1007408:	38c01736 	bltu	r7,r3,1007468 <_calloc_r+0xb0>
 100740c:	008004c4 	movi	r2,19
 1007410:	10c00836 	bltu	r2,r3,1007434 <_calloc_r+0x7c>
 1007414:	20000215 	stw	zero,8(r4)
 1007418:	20000015 	stw	zero,0(r4)
 100741c:	20000115 	stw	zero,4(r4)
 1007420:	8805883a 	mov	r2,r17
 1007424:	dfc00117 	ldw	ra,4(sp)
 1007428:	dc400017 	ldw	r17,0(sp)
 100742c:	dec00204 	addi	sp,sp,8
 1007430:	f800283a 	ret
 1007434:	008006c4 	movi	r2,27
 1007438:	88000015 	stw	zero,0(r17)
 100743c:	88000115 	stw	zero,4(r17)
 1007440:	89000204 	addi	r4,r17,8
 1007444:	10fff32e 	bgeu	r2,r3,1007414 <_calloc_r+0x5c>
 1007448:	88000215 	stw	zero,8(r17)
 100744c:	88000315 	stw	zero,12(r17)
 1007450:	89000404 	addi	r4,r17,16
 1007454:	19ffef1e 	bne	r3,r7,1007414 <_calloc_r+0x5c>
 1007458:	89000604 	addi	r4,r17,24
 100745c:	88000415 	stw	zero,16(r17)
 1007460:	88000515 	stw	zero,20(r17)
 1007464:	003feb06 	br	1007414 <_calloc_r+0x5c>
 1007468:	10058cc0 	call	10058cc <memset>
 100746c:	8805883a 	mov	r2,r17
 1007470:	dfc00117 	ldw	ra,4(sp)
 1007474:	dc400017 	ldw	r17,0(sp)
 1007478:	dec00204 	addi	sp,sp,8
 100747c:	f800283a 	ret

01007480 <_close_r>:
 1007480:	defffd04 	addi	sp,sp,-12
 1007484:	dc000015 	stw	r16,0(sp)
 1007488:	04004074 	movhi	r16,257
 100748c:	84034b04 	addi	r16,r16,3372
 1007490:	dc400115 	stw	r17,4(sp)
 1007494:	80000015 	stw	zero,0(r16)
 1007498:	2023883a 	mov	r17,r4
 100749c:	2809883a 	mov	r4,r5
 10074a0:	dfc00215 	stw	ra,8(sp)
 10074a4:	1009e1c0 	call	1009e1c <close>
 10074a8:	1007883a 	mov	r3,r2
 10074ac:	00bfffc4 	movi	r2,-1
 10074b0:	18800626 	beq	r3,r2,10074cc <_close_r+0x4c>
 10074b4:	1805883a 	mov	r2,r3
 10074b8:	dfc00217 	ldw	ra,8(sp)
 10074bc:	dc400117 	ldw	r17,4(sp)
 10074c0:	dc000017 	ldw	r16,0(sp)
 10074c4:	dec00304 	addi	sp,sp,12
 10074c8:	f800283a 	ret
 10074cc:	80800017 	ldw	r2,0(r16)
 10074d0:	103ff826 	beq	r2,zero,10074b4 <_close_r+0x34>
 10074d4:	88800015 	stw	r2,0(r17)
 10074d8:	1805883a 	mov	r2,r3
 10074dc:	dfc00217 	ldw	ra,8(sp)
 10074e0:	dc400117 	ldw	r17,4(sp)
 10074e4:	dc000017 	ldw	r16,0(sp)
 10074e8:	dec00304 	addi	sp,sp,12
 10074ec:	f800283a 	ret

010074f0 <_fclose_r>:
 10074f0:	defffc04 	addi	sp,sp,-16
 10074f4:	dc400115 	stw	r17,4(sp)
 10074f8:	dc000015 	stw	r16,0(sp)
 10074fc:	dfc00315 	stw	ra,12(sp)
 1007500:	dc800215 	stw	r18,8(sp)
 1007504:	2821883a 	mov	r16,r5
 1007508:	2023883a 	mov	r17,r4
 100750c:	28002926 	beq	r5,zero,10075b4 <_fclose_r+0xc4>
 1007510:	1003fd80 	call	1003fd8 <__sfp_lock_acquire>
 1007514:	88000226 	beq	r17,zero,1007520 <_fclose_r+0x30>
 1007518:	88800e17 	ldw	r2,56(r17)
 100751c:	10002d26 	beq	r2,zero,10075d4 <_fclose_r+0xe4>
 1007520:	8080030f 	ldh	r2,12(r16)
 1007524:	10002226 	beq	r2,zero,10075b0 <_fclose_r+0xc0>
 1007528:	8809883a 	mov	r4,r17
 100752c:	800b883a 	mov	r5,r16
 1007530:	1003d500 	call	1003d50 <_fflush_r>
 1007534:	1025883a 	mov	r18,r2
 1007538:	80800b17 	ldw	r2,44(r16)
 100753c:	10000426 	beq	r2,zero,1007550 <_fclose_r+0x60>
 1007540:	81400717 	ldw	r5,28(r16)
 1007544:	8809883a 	mov	r4,r17
 1007548:	103ee83a 	callr	r2
 100754c:	10002a16 	blt	r2,zero,10075f8 <_fclose_r+0x108>
 1007550:	8080030b 	ldhu	r2,12(r16)
 1007554:	1080200c 	andi	r2,r2,128
 1007558:	1000231e 	bne	r2,zero,10075e8 <_fclose_r+0xf8>
 100755c:	81400c17 	ldw	r5,48(r16)
 1007560:	28000526 	beq	r5,zero,1007578 <_fclose_r+0x88>
 1007564:	80801004 	addi	r2,r16,64
 1007568:	28800226 	beq	r5,r2,1007574 <_fclose_r+0x84>
 100756c:	8809883a 	mov	r4,r17
 1007570:	10043a00 	call	10043a0 <_free_r>
 1007574:	80000c15 	stw	zero,48(r16)
 1007578:	81401117 	ldw	r5,68(r16)
 100757c:	28000326 	beq	r5,zero,100758c <_fclose_r+0x9c>
 1007580:	8809883a 	mov	r4,r17
 1007584:	10043a00 	call	10043a0 <_free_r>
 1007588:	80001115 	stw	zero,68(r16)
 100758c:	8000030d 	sth	zero,12(r16)
 1007590:	1003fdc0 	call	1003fdc <__sfp_lock_release>
 1007594:	9005883a 	mov	r2,r18
 1007598:	dfc00317 	ldw	ra,12(sp)
 100759c:	dc800217 	ldw	r18,8(sp)
 10075a0:	dc400117 	ldw	r17,4(sp)
 10075a4:	dc000017 	ldw	r16,0(sp)
 10075a8:	dec00404 	addi	sp,sp,16
 10075ac:	f800283a 	ret
 10075b0:	1003fdc0 	call	1003fdc <__sfp_lock_release>
 10075b4:	0025883a 	mov	r18,zero
 10075b8:	9005883a 	mov	r2,r18
 10075bc:	dfc00317 	ldw	ra,12(sp)
 10075c0:	dc800217 	ldw	r18,8(sp)
 10075c4:	dc400117 	ldw	r17,4(sp)
 10075c8:	dc000017 	ldw	r16,0(sp)
 10075cc:	dec00404 	addi	sp,sp,16
 10075d0:	f800283a 	ret
 10075d4:	8809883a 	mov	r4,r17
 10075d8:	1003fe80 	call	1003fe8 <__sinit>
 10075dc:	8080030f 	ldh	r2,12(r16)
 10075e0:	103fd11e 	bne	r2,zero,1007528 <_fclose_r+0x38>
 10075e4:	003ff206 	br	10075b0 <_fclose_r+0xc0>
 10075e8:	81400417 	ldw	r5,16(r16)
 10075ec:	8809883a 	mov	r4,r17
 10075f0:	10043a00 	call	10043a0 <_free_r>
 10075f4:	003fd906 	br	100755c <_fclose_r+0x6c>
 10075f8:	04bfffc4 	movi	r18,-1
 10075fc:	003fd406 	br	1007550 <_fclose_r+0x60>

01007600 <fclose>:
 1007600:	00804074 	movhi	r2,257
 1007604:	10bc8804 	addi	r2,r2,-3552
 1007608:	200b883a 	mov	r5,r4
 100760c:	11000017 	ldw	r4,0(r2)
 1007610:	10074f01 	jmpi	10074f0 <_fclose_r>

01007614 <_fstat_r>:
 1007614:	defffd04 	addi	sp,sp,-12
 1007618:	dc000015 	stw	r16,0(sp)
 100761c:	04004074 	movhi	r16,257
 1007620:	84034b04 	addi	r16,r16,3372
 1007624:	dc400115 	stw	r17,4(sp)
 1007628:	80000015 	stw	zero,0(r16)
 100762c:	2023883a 	mov	r17,r4
 1007630:	2809883a 	mov	r4,r5
 1007634:	300b883a 	mov	r5,r6
 1007638:	dfc00215 	stw	ra,8(sp)
 100763c:	1009fa80 	call	1009fa8 <fstat>
 1007640:	1007883a 	mov	r3,r2
 1007644:	00bfffc4 	movi	r2,-1
 1007648:	18800626 	beq	r3,r2,1007664 <_fstat_r+0x50>
 100764c:	1805883a 	mov	r2,r3
 1007650:	dfc00217 	ldw	ra,8(sp)
 1007654:	dc400117 	ldw	r17,4(sp)
 1007658:	dc000017 	ldw	r16,0(sp)
 100765c:	dec00304 	addi	sp,sp,12
 1007660:	f800283a 	ret
 1007664:	80800017 	ldw	r2,0(r16)
 1007668:	103ff826 	beq	r2,zero,100764c <_fstat_r+0x38>
 100766c:	88800015 	stw	r2,0(r17)
 1007670:	1805883a 	mov	r2,r3
 1007674:	dfc00217 	ldw	ra,8(sp)
 1007678:	dc400117 	ldw	r17,4(sp)
 100767c:	dc000017 	ldw	r16,0(sp)
 1007680:	dec00304 	addi	sp,sp,12
 1007684:	f800283a 	ret

01007688 <_isatty_r>:
 1007688:	defffd04 	addi	sp,sp,-12
 100768c:	dc000015 	stw	r16,0(sp)
 1007690:	04004074 	movhi	r16,257
 1007694:	84034b04 	addi	r16,r16,3372
 1007698:	dc400115 	stw	r17,4(sp)
 100769c:	80000015 	stw	zero,0(r16)
 10076a0:	2023883a 	mov	r17,r4
 10076a4:	2809883a 	mov	r4,r5
 10076a8:	dfc00215 	stw	ra,8(sp)
 10076ac:	100a0e00 	call	100a0e0 <isatty>
 10076b0:	1007883a 	mov	r3,r2
 10076b4:	00bfffc4 	movi	r2,-1
 10076b8:	18800626 	beq	r3,r2,10076d4 <_isatty_r+0x4c>
 10076bc:	1805883a 	mov	r2,r3
 10076c0:	dfc00217 	ldw	ra,8(sp)
 10076c4:	dc400117 	ldw	r17,4(sp)
 10076c8:	dc000017 	ldw	r16,0(sp)
 10076cc:	dec00304 	addi	sp,sp,12
 10076d0:	f800283a 	ret
 10076d4:	80800017 	ldw	r2,0(r16)
 10076d8:	103ff826 	beq	r2,zero,10076bc <_isatty_r+0x34>
 10076dc:	88800015 	stw	r2,0(r17)
 10076e0:	1805883a 	mov	r2,r3
 10076e4:	dfc00217 	ldw	ra,8(sp)
 10076e8:	dc400117 	ldw	r17,4(sp)
 10076ec:	dc000017 	ldw	r16,0(sp)
 10076f0:	dec00304 	addi	sp,sp,12
 10076f4:	f800283a 	ret

010076f8 <_lseek_r>:
 10076f8:	defffd04 	addi	sp,sp,-12
 10076fc:	dc000015 	stw	r16,0(sp)
 1007700:	04004074 	movhi	r16,257
 1007704:	84034b04 	addi	r16,r16,3372
 1007708:	dc400115 	stw	r17,4(sp)
 100770c:	80000015 	stw	zero,0(r16)
 1007710:	2023883a 	mov	r17,r4
 1007714:	2809883a 	mov	r4,r5
 1007718:	300b883a 	mov	r5,r6
 100771c:	380d883a 	mov	r6,r7
 1007720:	dfc00215 	stw	ra,8(sp)
 1007724:	100a2f00 	call	100a2f0 <lseek>
 1007728:	1007883a 	mov	r3,r2
 100772c:	00bfffc4 	movi	r2,-1
 1007730:	18800626 	beq	r3,r2,100774c <_lseek_r+0x54>
 1007734:	1805883a 	mov	r2,r3
 1007738:	dfc00217 	ldw	ra,8(sp)
 100773c:	dc400117 	ldw	r17,4(sp)
 1007740:	dc000017 	ldw	r16,0(sp)
 1007744:	dec00304 	addi	sp,sp,12
 1007748:	f800283a 	ret
 100774c:	80800017 	ldw	r2,0(r16)
 1007750:	103ff826 	beq	r2,zero,1007734 <_lseek_r+0x3c>
 1007754:	88800015 	stw	r2,0(r17)
 1007758:	1805883a 	mov	r2,r3
 100775c:	dfc00217 	ldw	ra,8(sp)
 1007760:	dc400117 	ldw	r17,4(sp)
 1007764:	dc000017 	ldw	r16,0(sp)
 1007768:	dec00304 	addi	sp,sp,12
 100776c:	f800283a 	ret

01007770 <_read_r>:
 1007770:	defffd04 	addi	sp,sp,-12
 1007774:	dc000015 	stw	r16,0(sp)
 1007778:	04004074 	movhi	r16,257
 100777c:	84034b04 	addi	r16,r16,3372
 1007780:	dc400115 	stw	r17,4(sp)
 1007784:	80000015 	stw	zero,0(r16)
 1007788:	2023883a 	mov	r17,r4
 100778c:	2809883a 	mov	r4,r5
 1007790:	300b883a 	mov	r5,r6
 1007794:	380d883a 	mov	r6,r7
 1007798:	dfc00215 	stw	ra,8(sp)
 100779c:	100a7880 	call	100a788 <read>
 10077a0:	1007883a 	mov	r3,r2
 10077a4:	00bfffc4 	movi	r2,-1
 10077a8:	18800626 	beq	r3,r2,10077c4 <_read_r+0x54>
 10077ac:	1805883a 	mov	r2,r3
 10077b0:	dfc00217 	ldw	ra,8(sp)
 10077b4:	dc400117 	ldw	r17,4(sp)
 10077b8:	dc000017 	ldw	r16,0(sp)
 10077bc:	dec00304 	addi	sp,sp,12
 10077c0:	f800283a 	ret
 10077c4:	80800017 	ldw	r2,0(r16)
 10077c8:	103ff826 	beq	r2,zero,10077ac <_read_r+0x3c>
 10077cc:	88800015 	stw	r2,0(r17)
 10077d0:	1805883a 	mov	r2,r3
 10077d4:	dfc00217 	ldw	ra,8(sp)
 10077d8:	dc400117 	ldw	r17,4(sp)
 10077dc:	dc000017 	ldw	r16,0(sp)
 10077e0:	dec00304 	addi	sp,sp,12
 10077e4:	f800283a 	ret

010077e8 <__udivdi3>:
 10077e8:	defff104 	addi	sp,sp,-60
 10077ec:	0015883a 	mov	r10,zero
 10077f0:	2005883a 	mov	r2,r4
 10077f4:	3011883a 	mov	r8,r6
 10077f8:	df000d15 	stw	fp,52(sp)
 10077fc:	dd400a15 	stw	r21,40(sp)
 1007800:	dcc00815 	stw	r19,32(sp)
 1007804:	dfc00e15 	stw	ra,56(sp)
 1007808:	ddc00c15 	stw	r23,48(sp)
 100780c:	dd800b15 	stw	r22,44(sp)
 1007810:	dd000915 	stw	r20,36(sp)
 1007814:	dc800715 	stw	r18,28(sp)
 1007818:	dc400615 	stw	r17,24(sp)
 100781c:	dc000515 	stw	r16,20(sp)
 1007820:	da800315 	stw	r10,12(sp)
 1007824:	4027883a 	mov	r19,r8
 1007828:	1039883a 	mov	fp,r2
 100782c:	282b883a 	mov	r21,r5
 1007830:	da800415 	stw	r10,16(sp)
 1007834:	3800401e 	bne	r7,zero,1007938 <__udivdi3+0x150>
 1007838:	2a006536 	bltu	r5,r8,10079d0 <__udivdi3+0x1e8>
 100783c:	4000b526 	beq	r8,zero,1007b14 <__udivdi3+0x32c>
 1007840:	00bfffd4 	movui	r2,65535
 1007844:	14c0ad36 	bltu	r2,r19,1007afc <__udivdi3+0x314>
 1007848:	00803fc4 	movi	r2,255
 100784c:	14c15e36 	bltu	r2,r19,1007dc8 <__udivdi3+0x5e0>
 1007850:	000b883a 	mov	r5,zero
 1007854:	0005883a 	mov	r2,zero
 1007858:	9884d83a 	srl	r2,r19,r2
 100785c:	01004074 	movhi	r4,257
 1007860:	21359204 	addi	r4,r4,-10680
 1007864:	01800804 	movi	r6,32
 1007868:	1105883a 	add	r2,r2,r4
 100786c:	10c00003 	ldbu	r3,0(r2)
 1007870:	28c7883a 	add	r3,r5,r3
 1007874:	30e9c83a 	sub	r20,r6,r3
 1007878:	a0010a1e 	bne	r20,zero,1007ca4 <__udivdi3+0x4bc>
 100787c:	982ed43a 	srli	r23,r19,16
 1007880:	acebc83a 	sub	r21,r21,r19
 1007884:	9dbfffcc 	andi	r22,r19,65535
 1007888:	05000044 	movi	r20,1
 100788c:	a809883a 	mov	r4,r21
 1007890:	b80b883a 	mov	r5,r23
 1007894:	100971c0 	call	100971c <__udivsi3>
 1007898:	100b883a 	mov	r5,r2
 100789c:	b009883a 	mov	r4,r22
 10078a0:	1021883a 	mov	r16,r2
 10078a4:	100972c0 	call	100972c <__mulsi3>
 10078a8:	a809883a 	mov	r4,r21
 10078ac:	b80b883a 	mov	r5,r23
 10078b0:	1023883a 	mov	r17,r2
 10078b4:	10097240 	call	1009724 <__umodsi3>
 10078b8:	1004943a 	slli	r2,r2,16
 10078bc:	e006d43a 	srli	r3,fp,16
 10078c0:	10c4b03a 	or	r2,r2,r3
 10078c4:	1440042e 	bgeu	r2,r17,10078d8 <__udivdi3+0xf0>
 10078c8:	14c5883a 	add	r2,r2,r19
 10078cc:	843fffc4 	addi	r16,r16,-1
 10078d0:	14c00136 	bltu	r2,r19,10078d8 <__udivdi3+0xf0>
 10078d4:	14415c36 	bltu	r2,r17,1007e48 <__udivdi3+0x660>
 10078d8:	1463c83a 	sub	r17,r2,r17
 10078dc:	8809883a 	mov	r4,r17
 10078e0:	b80b883a 	mov	r5,r23
 10078e4:	100971c0 	call	100971c <__udivsi3>
 10078e8:	100b883a 	mov	r5,r2
 10078ec:	b009883a 	mov	r4,r22
 10078f0:	102b883a 	mov	r21,r2
 10078f4:	100972c0 	call	100972c <__mulsi3>
 10078f8:	8809883a 	mov	r4,r17
 10078fc:	b80b883a 	mov	r5,r23
 1007900:	1025883a 	mov	r18,r2
 1007904:	10097240 	call	1009724 <__umodsi3>
 1007908:	1004943a 	slli	r2,r2,16
 100790c:	e0ffffcc 	andi	r3,fp,65535
 1007910:	10c4b03a 	or	r2,r2,r3
 1007914:	1480042e 	bgeu	r2,r18,1007928 <__udivdi3+0x140>
 1007918:	9885883a 	add	r2,r19,r2
 100791c:	ad7fffc4 	addi	r21,r21,-1
 1007920:	14c00136 	bltu	r2,r19,1007928 <__udivdi3+0x140>
 1007924:	14813c36 	bltu	r2,r18,1007e18 <__udivdi3+0x630>
 1007928:	8004943a 	slli	r2,r16,16
 100792c:	a009883a 	mov	r4,r20
 1007930:	a884b03a 	or	r2,r21,r2
 1007934:	00001506 	br	100798c <__udivdi3+0x1a4>
 1007938:	380d883a 	mov	r6,r7
 100793c:	29c06c36 	bltu	r5,r7,1007af0 <__udivdi3+0x308>
 1007940:	00bfffd4 	movui	r2,65535
 1007944:	11c06436 	bltu	r2,r7,1007ad8 <__udivdi3+0x2f0>
 1007948:	00803fc4 	movi	r2,255
 100794c:	11c11836 	bltu	r2,r7,1007db0 <__udivdi3+0x5c8>
 1007950:	000b883a 	mov	r5,zero
 1007954:	0005883a 	mov	r2,zero
 1007958:	3084d83a 	srl	r2,r6,r2
 100795c:	01004074 	movhi	r4,257
 1007960:	21359204 	addi	r4,r4,-10680
 1007964:	01c00804 	movi	r7,32
 1007968:	1105883a 	add	r2,r2,r4
 100796c:	10c00003 	ldbu	r3,0(r2)
 1007970:	28c7883a 	add	r3,r5,r3
 1007974:	38edc83a 	sub	r22,r7,r3
 1007978:	b000731e 	bne	r22,zero,1007b48 <__udivdi3+0x360>
 100797c:	35400136 	bltu	r6,r21,1007984 <__udivdi3+0x19c>
 1007980:	e4c05b36 	bltu	fp,r19,1007af0 <__udivdi3+0x308>
 1007984:	00800044 	movi	r2,1
 1007988:	0009883a 	mov	r4,zero
 100798c:	d8800315 	stw	r2,12(sp)
 1007990:	d9400317 	ldw	r5,12(sp)
 1007994:	2007883a 	mov	r3,r4
 1007998:	d9000415 	stw	r4,16(sp)
 100799c:	2805883a 	mov	r2,r5
 10079a0:	dfc00e17 	ldw	ra,56(sp)
 10079a4:	df000d17 	ldw	fp,52(sp)
 10079a8:	ddc00c17 	ldw	r23,48(sp)
 10079ac:	dd800b17 	ldw	r22,44(sp)
 10079b0:	dd400a17 	ldw	r21,40(sp)
 10079b4:	dd000917 	ldw	r20,36(sp)
 10079b8:	dcc00817 	ldw	r19,32(sp)
 10079bc:	dc800717 	ldw	r18,28(sp)
 10079c0:	dc400617 	ldw	r17,24(sp)
 10079c4:	dc000517 	ldw	r16,20(sp)
 10079c8:	dec00f04 	addi	sp,sp,60
 10079cc:	f800283a 	ret
 10079d0:	00bfffd4 	movui	r2,65535
 10079d4:	12005636 	bltu	r2,r8,1007b30 <__udivdi3+0x348>
 10079d8:	00803fc4 	movi	r2,255
 10079dc:	12010036 	bltu	r2,r8,1007de0 <__udivdi3+0x5f8>
 10079e0:	000b883a 	mov	r5,zero
 10079e4:	0005883a 	mov	r2,zero
 10079e8:	9884d83a 	srl	r2,r19,r2
 10079ec:	01004074 	movhi	r4,257
 10079f0:	21359204 	addi	r4,r4,-10680
 10079f4:	01800804 	movi	r6,32
 10079f8:	1105883a 	add	r2,r2,r4
 10079fc:	10c00003 	ldbu	r3,0(r2)
 1007a00:	28c7883a 	add	r3,r5,r3
 1007a04:	30cbc83a 	sub	r5,r6,r3
 1007a08:	28000626 	beq	r5,zero,1007a24 <__udivdi3+0x23c>
 1007a0c:	3145c83a 	sub	r2,r6,r5
 1007a10:	e084d83a 	srl	r2,fp,r2
 1007a14:	a946983a 	sll	r3,r21,r5
 1007a18:	e178983a 	sll	fp,fp,r5
 1007a1c:	9966983a 	sll	r19,r19,r5
 1007a20:	18aab03a 	or	r21,r3,r2
 1007a24:	982ed43a 	srli	r23,r19,16
 1007a28:	a809883a 	mov	r4,r21
 1007a2c:	9cbfffcc 	andi	r18,r19,65535
 1007a30:	b80b883a 	mov	r5,r23
 1007a34:	100971c0 	call	100971c <__udivsi3>
 1007a38:	100b883a 	mov	r5,r2
 1007a3c:	9009883a 	mov	r4,r18
 1007a40:	1021883a 	mov	r16,r2
 1007a44:	100972c0 	call	100972c <__mulsi3>
 1007a48:	a809883a 	mov	r4,r21
 1007a4c:	b80b883a 	mov	r5,r23
 1007a50:	1023883a 	mov	r17,r2
 1007a54:	10097240 	call	1009724 <__umodsi3>
 1007a58:	1004943a 	slli	r2,r2,16
 1007a5c:	e006d43a 	srli	r3,fp,16
 1007a60:	10c4b03a 	or	r2,r2,r3
 1007a64:	1440042e 	bgeu	r2,r17,1007a78 <__udivdi3+0x290>
 1007a68:	14c5883a 	add	r2,r2,r19
 1007a6c:	843fffc4 	addi	r16,r16,-1
 1007a70:	14c00136 	bltu	r2,r19,1007a78 <__udivdi3+0x290>
 1007a74:	1440ea36 	bltu	r2,r17,1007e20 <__udivdi3+0x638>
 1007a78:	1463c83a 	sub	r17,r2,r17
 1007a7c:	8809883a 	mov	r4,r17
 1007a80:	b80b883a 	mov	r5,r23
 1007a84:	100971c0 	call	100971c <__udivsi3>
 1007a88:	100b883a 	mov	r5,r2
 1007a8c:	9009883a 	mov	r4,r18
 1007a90:	102b883a 	mov	r21,r2
 1007a94:	100972c0 	call	100972c <__mulsi3>
 1007a98:	8809883a 	mov	r4,r17
 1007a9c:	b80b883a 	mov	r5,r23
 1007aa0:	1025883a 	mov	r18,r2
 1007aa4:	10097240 	call	1009724 <__umodsi3>
 1007aa8:	1004943a 	slli	r2,r2,16
 1007aac:	e0ffffcc 	andi	r3,fp,65535
 1007ab0:	10c4b03a 	or	r2,r2,r3
 1007ab4:	1480042e 	bgeu	r2,r18,1007ac8 <__udivdi3+0x2e0>
 1007ab8:	9885883a 	add	r2,r19,r2
 1007abc:	ad7fffc4 	addi	r21,r21,-1
 1007ac0:	14c00136 	bltu	r2,r19,1007ac8 <__udivdi3+0x2e0>
 1007ac4:	1480d936 	bltu	r2,r18,1007e2c <__udivdi3+0x644>
 1007ac8:	8004943a 	slli	r2,r16,16
 1007acc:	0009883a 	mov	r4,zero
 1007ad0:	a884b03a 	or	r2,r21,r2
 1007ad4:	003fad06 	br	100798c <__udivdi3+0x1a4>
 1007ad8:	00804034 	movhi	r2,256
 1007adc:	10bfffc4 	addi	r2,r2,-1
 1007ae0:	11c0b636 	bltu	r2,r7,1007dbc <__udivdi3+0x5d4>
 1007ae4:	01400404 	movi	r5,16
 1007ae8:	2805883a 	mov	r2,r5
 1007aec:	003f9a06 	br	1007958 <__udivdi3+0x170>
 1007af0:	0005883a 	mov	r2,zero
 1007af4:	0009883a 	mov	r4,zero
 1007af8:	003fa406 	br	100798c <__udivdi3+0x1a4>
 1007afc:	00804034 	movhi	r2,256
 1007b00:	10bfffc4 	addi	r2,r2,-1
 1007b04:	14c0b336 	bltu	r2,r19,1007dd4 <__udivdi3+0x5ec>
 1007b08:	01400404 	movi	r5,16
 1007b0c:	2805883a 	mov	r2,r5
 1007b10:	003f5106 	br	1007858 <__udivdi3+0x70>
 1007b14:	01000044 	movi	r4,1
 1007b18:	000b883a 	mov	r5,zero
 1007b1c:	100971c0 	call	100971c <__udivsi3>
 1007b20:	1027883a 	mov	r19,r2
 1007b24:	00bfffd4 	movui	r2,65535
 1007b28:	14fff436 	bltu	r2,r19,1007afc <__udivdi3+0x314>
 1007b2c:	003f4606 	br	1007848 <__udivdi3+0x60>
 1007b30:	00804034 	movhi	r2,256
 1007b34:	10bfffc4 	addi	r2,r2,-1
 1007b38:	1200ac36 	bltu	r2,r8,1007dec <__udivdi3+0x604>
 1007b3c:	01400404 	movi	r5,16
 1007b40:	2805883a 	mov	r2,r5
 1007b44:	003fa806 	br	10079e8 <__udivdi3+0x200>
 1007b48:	3d85c83a 	sub	r2,r7,r22
 1007b4c:	3588983a 	sll	r4,r6,r22
 1007b50:	9886d83a 	srl	r3,r19,r2
 1007b54:	a8a2d83a 	srl	r17,r21,r2
 1007b58:	e084d83a 	srl	r2,fp,r2
 1007b5c:	20eeb03a 	or	r23,r4,r3
 1007b60:	b824d43a 	srli	r18,r23,16
 1007b64:	ad86983a 	sll	r3,r21,r22
 1007b68:	8809883a 	mov	r4,r17
 1007b6c:	900b883a 	mov	r5,r18
 1007b70:	1886b03a 	or	r3,r3,r2
 1007b74:	d8c00115 	stw	r3,4(sp)
 1007b78:	bc3fffcc 	andi	r16,r23,65535
 1007b7c:	100971c0 	call	100971c <__udivsi3>
 1007b80:	100b883a 	mov	r5,r2
 1007b84:	8009883a 	mov	r4,r16
 1007b88:	1029883a 	mov	r20,r2
 1007b8c:	100972c0 	call	100972c <__mulsi3>
 1007b90:	900b883a 	mov	r5,r18
 1007b94:	8809883a 	mov	r4,r17
 1007b98:	102b883a 	mov	r21,r2
 1007b9c:	10097240 	call	1009724 <__umodsi3>
 1007ba0:	d9400117 	ldw	r5,4(sp)
 1007ba4:	1004943a 	slli	r2,r2,16
 1007ba8:	9da6983a 	sll	r19,r19,r22
 1007bac:	2806d43a 	srli	r3,r5,16
 1007bb0:	10c4b03a 	or	r2,r2,r3
 1007bb4:	1540032e 	bgeu	r2,r21,1007bc4 <__udivdi3+0x3dc>
 1007bb8:	15c5883a 	add	r2,r2,r23
 1007bbc:	a53fffc4 	addi	r20,r20,-1
 1007bc0:	15c0912e 	bgeu	r2,r23,1007e08 <__udivdi3+0x620>
 1007bc4:	1563c83a 	sub	r17,r2,r21
 1007bc8:	8809883a 	mov	r4,r17
 1007bcc:	900b883a 	mov	r5,r18
 1007bd0:	100971c0 	call	100971c <__udivsi3>
 1007bd4:	100b883a 	mov	r5,r2
 1007bd8:	8009883a 	mov	r4,r16
 1007bdc:	102b883a 	mov	r21,r2
 1007be0:	100972c0 	call	100972c <__mulsi3>
 1007be4:	8809883a 	mov	r4,r17
 1007be8:	900b883a 	mov	r5,r18
 1007bec:	1021883a 	mov	r16,r2
 1007bf0:	10097240 	call	1009724 <__umodsi3>
 1007bf4:	da800117 	ldw	r10,4(sp)
 1007bf8:	1004943a 	slli	r2,r2,16
 1007bfc:	50ffffcc 	andi	r3,r10,65535
 1007c00:	10c6b03a 	or	r3,r2,r3
 1007c04:	1c00032e 	bgeu	r3,r16,1007c14 <__udivdi3+0x42c>
 1007c08:	1dc7883a 	add	r3,r3,r23
 1007c0c:	ad7fffc4 	addi	r21,r21,-1
 1007c10:	1dc0792e 	bgeu	r3,r23,1007df8 <__udivdi3+0x610>
 1007c14:	a004943a 	slli	r2,r20,16
 1007c18:	982ed43a 	srli	r23,r19,16
 1007c1c:	9cffffcc 	andi	r19,r19,65535
 1007c20:	a8a4b03a 	or	r18,r21,r2
 1007c24:	947fffcc 	andi	r17,r18,65535
 1007c28:	902ad43a 	srli	r21,r18,16
 1007c2c:	8809883a 	mov	r4,r17
 1007c30:	980b883a 	mov	r5,r19
 1007c34:	1c21c83a 	sub	r16,r3,r16
 1007c38:	100972c0 	call	100972c <__mulsi3>
 1007c3c:	8809883a 	mov	r4,r17
 1007c40:	b80b883a 	mov	r5,r23
 1007c44:	1029883a 	mov	r20,r2
 1007c48:	100972c0 	call	100972c <__mulsi3>
 1007c4c:	980b883a 	mov	r5,r19
 1007c50:	a809883a 	mov	r4,r21
 1007c54:	1023883a 	mov	r17,r2
 1007c58:	100972c0 	call	100972c <__mulsi3>
 1007c5c:	a809883a 	mov	r4,r21
 1007c60:	b80b883a 	mov	r5,r23
 1007c64:	1027883a 	mov	r19,r2
 1007c68:	100972c0 	call	100972c <__mulsi3>
 1007c6c:	1009883a 	mov	r4,r2
 1007c70:	a004d43a 	srli	r2,r20,16
 1007c74:	8ce3883a 	add	r17,r17,r19
 1007c78:	1447883a 	add	r3,r2,r17
 1007c7c:	1cc0022e 	bgeu	r3,r19,1007c88 <__udivdi3+0x4a0>
 1007c80:	00800074 	movhi	r2,1
 1007c84:	2089883a 	add	r4,r4,r2
 1007c88:	1804d43a 	srli	r2,r3,16
 1007c8c:	2085883a 	add	r2,r4,r2
 1007c90:	80804436 	bltu	r16,r2,1007da4 <__udivdi3+0x5bc>
 1007c94:	80803e26 	beq	r16,r2,1007d90 <__udivdi3+0x5a8>
 1007c98:	9005883a 	mov	r2,r18
 1007c9c:	0009883a 	mov	r4,zero
 1007ca0:	003f3a06 	br	100798c <__udivdi3+0x1a4>
 1007ca4:	9d26983a 	sll	r19,r19,r20
 1007ca8:	3505c83a 	sub	r2,r6,r20
 1007cac:	a8a2d83a 	srl	r17,r21,r2
 1007cb0:	982ed43a 	srli	r23,r19,16
 1007cb4:	e084d83a 	srl	r2,fp,r2
 1007cb8:	ad06983a 	sll	r3,r21,r20
 1007cbc:	8809883a 	mov	r4,r17
 1007cc0:	b80b883a 	mov	r5,r23
 1007cc4:	1886b03a 	or	r3,r3,r2
 1007cc8:	d8c00015 	stw	r3,0(sp)
 1007ccc:	9dbfffcc 	andi	r22,r19,65535
 1007cd0:	100971c0 	call	100971c <__udivsi3>
 1007cd4:	100b883a 	mov	r5,r2
 1007cd8:	b009883a 	mov	r4,r22
 1007cdc:	d8800215 	stw	r2,8(sp)
 1007ce0:	100972c0 	call	100972c <__mulsi3>
 1007ce4:	8809883a 	mov	r4,r17
 1007ce8:	b80b883a 	mov	r5,r23
 1007cec:	102b883a 	mov	r21,r2
 1007cf0:	10097240 	call	1009724 <__umodsi3>
 1007cf4:	d9000017 	ldw	r4,0(sp)
 1007cf8:	1004943a 	slli	r2,r2,16
 1007cfc:	2006d43a 	srli	r3,r4,16
 1007d00:	10c4b03a 	or	r2,r2,r3
 1007d04:	1540052e 	bgeu	r2,r21,1007d1c <__udivdi3+0x534>
 1007d08:	d9400217 	ldw	r5,8(sp)
 1007d0c:	14c5883a 	add	r2,r2,r19
 1007d10:	297fffc4 	addi	r5,r5,-1
 1007d14:	d9400215 	stw	r5,8(sp)
 1007d18:	14c0462e 	bgeu	r2,r19,1007e34 <__udivdi3+0x64c>
 1007d1c:	1563c83a 	sub	r17,r2,r21
 1007d20:	8809883a 	mov	r4,r17
 1007d24:	b80b883a 	mov	r5,r23
 1007d28:	100971c0 	call	100971c <__udivsi3>
 1007d2c:	100b883a 	mov	r5,r2
 1007d30:	b009883a 	mov	r4,r22
 1007d34:	1025883a 	mov	r18,r2
 1007d38:	100972c0 	call	100972c <__mulsi3>
 1007d3c:	8809883a 	mov	r4,r17
 1007d40:	b80b883a 	mov	r5,r23
 1007d44:	1021883a 	mov	r16,r2
 1007d48:	10097240 	call	1009724 <__umodsi3>
 1007d4c:	da800017 	ldw	r10,0(sp)
 1007d50:	1004943a 	slli	r2,r2,16
 1007d54:	50ffffcc 	andi	r3,r10,65535
 1007d58:	10c6b03a 	or	r3,r2,r3
 1007d5c:	1c00062e 	bgeu	r3,r16,1007d78 <__udivdi3+0x590>
 1007d60:	1cc7883a 	add	r3,r3,r19
 1007d64:	94bfffc4 	addi	r18,r18,-1
 1007d68:	1cc00336 	bltu	r3,r19,1007d78 <__udivdi3+0x590>
 1007d6c:	1c00022e 	bgeu	r3,r16,1007d78 <__udivdi3+0x590>
 1007d70:	94bfffc4 	addi	r18,r18,-1
 1007d74:	1cc7883a 	add	r3,r3,r19
 1007d78:	d9000217 	ldw	r4,8(sp)
 1007d7c:	e538983a 	sll	fp,fp,r20
 1007d80:	1c2bc83a 	sub	r21,r3,r16
 1007d84:	2004943a 	slli	r2,r4,16
 1007d88:	90a8b03a 	or	r20,r18,r2
 1007d8c:	003ebf06 	br	100788c <__udivdi3+0xa4>
 1007d90:	1804943a 	slli	r2,r3,16
 1007d94:	e588983a 	sll	r4,fp,r22
 1007d98:	a0ffffcc 	andi	r3,r20,65535
 1007d9c:	10c5883a 	add	r2,r2,r3
 1007da0:	20bfbd2e 	bgeu	r4,r2,1007c98 <__udivdi3+0x4b0>
 1007da4:	90bfffc4 	addi	r2,r18,-1
 1007da8:	0009883a 	mov	r4,zero
 1007dac:	003ef706 	br	100798c <__udivdi3+0x1a4>
 1007db0:	01400204 	movi	r5,8
 1007db4:	2805883a 	mov	r2,r5
 1007db8:	003ee706 	br	1007958 <__udivdi3+0x170>
 1007dbc:	01400604 	movi	r5,24
 1007dc0:	2805883a 	mov	r2,r5
 1007dc4:	003ee406 	br	1007958 <__udivdi3+0x170>
 1007dc8:	01400204 	movi	r5,8
 1007dcc:	2805883a 	mov	r2,r5
 1007dd0:	003ea106 	br	1007858 <__udivdi3+0x70>
 1007dd4:	01400604 	movi	r5,24
 1007dd8:	2805883a 	mov	r2,r5
 1007ddc:	003e9e06 	br	1007858 <__udivdi3+0x70>
 1007de0:	01400204 	movi	r5,8
 1007de4:	2805883a 	mov	r2,r5
 1007de8:	003eff06 	br	10079e8 <__udivdi3+0x200>
 1007dec:	01400604 	movi	r5,24
 1007df0:	2805883a 	mov	r2,r5
 1007df4:	003efc06 	br	10079e8 <__udivdi3+0x200>
 1007df8:	1c3f862e 	bgeu	r3,r16,1007c14 <__udivdi3+0x42c>
 1007dfc:	1dc7883a 	add	r3,r3,r23
 1007e00:	ad7fffc4 	addi	r21,r21,-1
 1007e04:	003f8306 	br	1007c14 <__udivdi3+0x42c>
 1007e08:	157f6e2e 	bgeu	r2,r21,1007bc4 <__udivdi3+0x3dc>
 1007e0c:	a53fffc4 	addi	r20,r20,-1
 1007e10:	15c5883a 	add	r2,r2,r23
 1007e14:	003f6b06 	br	1007bc4 <__udivdi3+0x3dc>
 1007e18:	ad7fffc4 	addi	r21,r21,-1
 1007e1c:	003ec206 	br	1007928 <__udivdi3+0x140>
 1007e20:	843fffc4 	addi	r16,r16,-1
 1007e24:	14c5883a 	add	r2,r2,r19
 1007e28:	003f1306 	br	1007a78 <__udivdi3+0x290>
 1007e2c:	ad7fffc4 	addi	r21,r21,-1
 1007e30:	003f2506 	br	1007ac8 <__udivdi3+0x2e0>
 1007e34:	157fb92e 	bgeu	r2,r21,1007d1c <__udivdi3+0x534>
 1007e38:	297fffc4 	addi	r5,r5,-1
 1007e3c:	14c5883a 	add	r2,r2,r19
 1007e40:	d9400215 	stw	r5,8(sp)
 1007e44:	003fb506 	br	1007d1c <__udivdi3+0x534>
 1007e48:	843fffc4 	addi	r16,r16,-1
 1007e4c:	14c5883a 	add	r2,r2,r19
 1007e50:	003ea106 	br	10078d8 <__udivdi3+0xf0>

01007e54 <__umoddi3>:
 1007e54:	defff004 	addi	sp,sp,-64
 1007e58:	3011883a 	mov	r8,r6
 1007e5c:	000d883a 	mov	r6,zero
 1007e60:	dd400b15 	stw	r21,44(sp)
 1007e64:	dcc00915 	stw	r19,36(sp)
 1007e68:	dc000615 	stw	r16,24(sp)
 1007e6c:	dfc00f15 	stw	ra,60(sp)
 1007e70:	df000e15 	stw	fp,56(sp)
 1007e74:	ddc00d15 	stw	r23,52(sp)
 1007e78:	dd800c15 	stw	r22,48(sp)
 1007e7c:	dd000a15 	stw	r20,40(sp)
 1007e80:	dc800815 	stw	r18,32(sp)
 1007e84:	dc400715 	stw	r17,28(sp)
 1007e88:	2817883a 	mov	r11,r5
 1007e8c:	d9800415 	stw	r6,16(sp)
 1007e90:	4027883a 	mov	r19,r8
 1007e94:	d9800515 	stw	r6,20(sp)
 1007e98:	2021883a 	mov	r16,r4
 1007e9c:	282b883a 	mov	r21,r5
 1007ea0:	38002c1e 	bne	r7,zero,1007f54 <__umoddi3+0x100>
 1007ea4:	2a005636 	bltu	r5,r8,1008000 <__umoddi3+0x1ac>
 1007ea8:	40009a26 	beq	r8,zero,1008114 <__umoddi3+0x2c0>
 1007eac:	00bfffd4 	movui	r2,65535
 1007eb0:	14c09236 	bltu	r2,r19,10080fc <__umoddi3+0x2a8>
 1007eb4:	00803fc4 	movi	r2,255
 1007eb8:	14c15c36 	bltu	r2,r19,100842c <__umoddi3+0x5d8>
 1007ebc:	000b883a 	mov	r5,zero
 1007ec0:	0005883a 	mov	r2,zero
 1007ec4:	9884d83a 	srl	r2,r19,r2
 1007ec8:	01004074 	movhi	r4,257
 1007ecc:	21359204 	addi	r4,r4,-10680
 1007ed0:	01800804 	movi	r6,32
 1007ed4:	1105883a 	add	r2,r2,r4
 1007ed8:	10c00003 	ldbu	r3,0(r2)
 1007edc:	28c7883a 	add	r3,r5,r3
 1007ee0:	30e5c83a 	sub	r18,r6,r3
 1007ee4:	9000a41e 	bne	r18,zero,1008178 <__umoddi3+0x324>
 1007ee8:	982ed43a 	srli	r23,r19,16
 1007eec:	acebc83a 	sub	r21,r21,r19
 1007ef0:	9d3fffcc 	andi	r20,r19,65535
 1007ef4:	002d883a 	mov	r22,zero
 1007ef8:	a809883a 	mov	r4,r21
 1007efc:	b80b883a 	mov	r5,r23
 1007f00:	100971c0 	call	100971c <__udivsi3>
 1007f04:	100b883a 	mov	r5,r2
 1007f08:	a009883a 	mov	r4,r20
 1007f0c:	100972c0 	call	100972c <__mulsi3>
 1007f10:	a809883a 	mov	r4,r21
 1007f14:	b80b883a 	mov	r5,r23
 1007f18:	1023883a 	mov	r17,r2
 1007f1c:	10097240 	call	1009724 <__umodsi3>
 1007f20:	1004943a 	slli	r2,r2,16
 1007f24:	8006d43a 	srli	r3,r16,16
 1007f28:	10c4b03a 	or	r2,r2,r3
 1007f2c:	1440032e 	bgeu	r2,r17,1007f3c <__umoddi3+0xe8>
 1007f30:	14c5883a 	add	r2,r2,r19
 1007f34:	14c00136 	bltu	r2,r19,1007f3c <__umoddi3+0xe8>
 1007f38:	14415836 	bltu	r2,r17,100849c <__umoddi3+0x648>
 1007f3c:	1463c83a 	sub	r17,r2,r17
 1007f40:	8809883a 	mov	r4,r17
 1007f44:	b80b883a 	mov	r5,r23
 1007f48:	100971c0 	call	100971c <__udivsi3>
 1007f4c:	a009883a 	mov	r4,r20
 1007f50:	00005306 	br	10080a0 <__umoddi3+0x24c>
 1007f54:	380d883a 	mov	r6,r7
 1007f58:	29c0132e 	bgeu	r5,r7,1007fa8 <__umoddi3+0x154>
 1007f5c:	d9000415 	stw	r4,16(sp)
 1007f60:	d9400515 	stw	r5,20(sp)
 1007f64:	d9400417 	ldw	r5,16(sp)
 1007f68:	5813883a 	mov	r9,r11
 1007f6c:	2811883a 	mov	r8,r5
 1007f70:	4005883a 	mov	r2,r8
 1007f74:	4807883a 	mov	r3,r9
 1007f78:	dfc00f17 	ldw	ra,60(sp)
 1007f7c:	df000e17 	ldw	fp,56(sp)
 1007f80:	ddc00d17 	ldw	r23,52(sp)
 1007f84:	dd800c17 	ldw	r22,48(sp)
 1007f88:	dd400b17 	ldw	r21,44(sp)
 1007f8c:	dd000a17 	ldw	r20,40(sp)
 1007f90:	dcc00917 	ldw	r19,36(sp)
 1007f94:	dc800817 	ldw	r18,32(sp)
 1007f98:	dc400717 	ldw	r17,28(sp)
 1007f9c:	dc000617 	ldw	r16,24(sp)
 1007fa0:	dec01004 	addi	sp,sp,64
 1007fa4:	f800283a 	ret
 1007fa8:	00bfffd4 	movui	r2,65535
 1007fac:	11c06636 	bltu	r2,r7,1008148 <__umoddi3+0x2f4>
 1007fb0:	00803fc4 	movi	r2,255
 1007fb4:	11c12036 	bltu	r2,r7,1008438 <__umoddi3+0x5e4>
 1007fb8:	000b883a 	mov	r5,zero
 1007fbc:	0005883a 	mov	r2,zero
 1007fc0:	3084d83a 	srl	r2,r6,r2
 1007fc4:	01004074 	movhi	r4,257
 1007fc8:	21359204 	addi	r4,r4,-10680
 1007fcc:	01c00804 	movi	r7,32
 1007fd0:	1105883a 	add	r2,r2,r4
 1007fd4:	10c00003 	ldbu	r3,0(r2)
 1007fd8:	28c7883a 	add	r3,r5,r3
 1007fdc:	38e5c83a 	sub	r18,r7,r3
 1007fe0:	9000941e 	bne	r18,zero,1008234 <__umoddi3+0x3e0>
 1007fe4:	35405e36 	bltu	r6,r21,1008160 <__umoddi3+0x30c>
 1007fe8:	84c05d2e 	bgeu	r16,r19,1008160 <__umoddi3+0x30c>
 1007fec:	8011883a 	mov	r8,r16
 1007ff0:	a813883a 	mov	r9,r21
 1007ff4:	dc000415 	stw	r16,16(sp)
 1007ff8:	dd400515 	stw	r21,20(sp)
 1007ffc:	003fdc06 	br	1007f70 <__umoddi3+0x11c>
 1008000:	00bfffd4 	movui	r2,65535
 1008004:	12004a36 	bltu	r2,r8,1008130 <__umoddi3+0x2dc>
 1008008:	00803fc4 	movi	r2,255
 100800c:	12010d36 	bltu	r2,r8,1008444 <__umoddi3+0x5f0>
 1008010:	000b883a 	mov	r5,zero
 1008014:	0005883a 	mov	r2,zero
 1008018:	9884d83a 	srl	r2,r19,r2
 100801c:	01004074 	movhi	r4,257
 1008020:	21359204 	addi	r4,r4,-10680
 1008024:	01800804 	movi	r6,32
 1008028:	1105883a 	add	r2,r2,r4
 100802c:	10c00003 	ldbu	r3,0(r2)
 1008030:	28c7883a 	add	r3,r5,r3
 1008034:	30c7c83a 	sub	r3,r6,r3
 1008038:	1800dc1e 	bne	r3,zero,10083ac <__umoddi3+0x558>
 100803c:	002d883a 	mov	r22,zero
 1008040:	982ed43a 	srli	r23,r19,16
 1008044:	a809883a 	mov	r4,r21
 1008048:	9cbfffcc 	andi	r18,r19,65535
 100804c:	b80b883a 	mov	r5,r23
 1008050:	100971c0 	call	100971c <__udivsi3>
 1008054:	100b883a 	mov	r5,r2
 1008058:	9009883a 	mov	r4,r18
 100805c:	100972c0 	call	100972c <__mulsi3>
 1008060:	a809883a 	mov	r4,r21
 1008064:	b80b883a 	mov	r5,r23
 1008068:	1023883a 	mov	r17,r2
 100806c:	10097240 	call	1009724 <__umodsi3>
 1008070:	1004943a 	slli	r2,r2,16
 1008074:	8006d43a 	srli	r3,r16,16
 1008078:	10c4b03a 	or	r2,r2,r3
 100807c:	1440032e 	bgeu	r2,r17,100808c <__umoddi3+0x238>
 1008080:	14c5883a 	add	r2,r2,r19
 1008084:	14c00136 	bltu	r2,r19,100808c <__umoddi3+0x238>
 1008088:	14410236 	bltu	r2,r17,1008494 <__umoddi3+0x640>
 100808c:	1463c83a 	sub	r17,r2,r17
 1008090:	8809883a 	mov	r4,r17
 1008094:	b80b883a 	mov	r5,r23
 1008098:	100971c0 	call	100971c <__udivsi3>
 100809c:	9009883a 	mov	r4,r18
 10080a0:	100b883a 	mov	r5,r2
 10080a4:	100972c0 	call	100972c <__mulsi3>
 10080a8:	8809883a 	mov	r4,r17
 10080ac:	b80b883a 	mov	r5,r23
 10080b0:	102b883a 	mov	r21,r2
 10080b4:	10097240 	call	1009724 <__umodsi3>
 10080b8:	1004943a 	slli	r2,r2,16
 10080bc:	80ffffcc 	andi	r3,r16,65535
 10080c0:	10c4b03a 	or	r2,r2,r3
 10080c4:	1540042e 	bgeu	r2,r21,10080d8 <__umoddi3+0x284>
 10080c8:	14c5883a 	add	r2,r2,r19
 10080cc:	14c00236 	bltu	r2,r19,10080d8 <__umoddi3+0x284>
 10080d0:	1540012e 	bgeu	r2,r21,10080d8 <__umoddi3+0x284>
 10080d4:	14c5883a 	add	r2,r2,r19
 10080d8:	1545c83a 	sub	r2,r2,r21
 10080dc:	1584d83a 	srl	r2,r2,r22
 10080e0:	0013883a 	mov	r9,zero
 10080e4:	d8800415 	stw	r2,16(sp)
 10080e8:	d8c00417 	ldw	r3,16(sp)
 10080ec:	0005883a 	mov	r2,zero
 10080f0:	d8800515 	stw	r2,20(sp)
 10080f4:	1811883a 	mov	r8,r3
 10080f8:	003f9d06 	br	1007f70 <__umoddi3+0x11c>
 10080fc:	00804034 	movhi	r2,256
 1008100:	10bfffc4 	addi	r2,r2,-1
 1008104:	14c0c636 	bltu	r2,r19,1008420 <__umoddi3+0x5cc>
 1008108:	01400404 	movi	r5,16
 100810c:	2805883a 	mov	r2,r5
 1008110:	003f6c06 	br	1007ec4 <__umoddi3+0x70>
 1008114:	01000044 	movi	r4,1
 1008118:	000b883a 	mov	r5,zero
 100811c:	100971c0 	call	100971c <__udivsi3>
 1008120:	1027883a 	mov	r19,r2
 1008124:	00bfffd4 	movui	r2,65535
 1008128:	14fff436 	bltu	r2,r19,10080fc <__umoddi3+0x2a8>
 100812c:	003f6106 	br	1007eb4 <__umoddi3+0x60>
 1008130:	00804034 	movhi	r2,256
 1008134:	10bfffc4 	addi	r2,r2,-1
 1008138:	1200c536 	bltu	r2,r8,1008450 <__umoddi3+0x5fc>
 100813c:	01400404 	movi	r5,16
 1008140:	2805883a 	mov	r2,r5
 1008144:	003fb406 	br	1008018 <__umoddi3+0x1c4>
 1008148:	00804034 	movhi	r2,256
 100814c:	10bfffc4 	addi	r2,r2,-1
 1008150:	11c0c236 	bltu	r2,r7,100845c <__umoddi3+0x608>
 1008154:	01400404 	movi	r5,16
 1008158:	2805883a 	mov	r2,r5
 100815c:	003f9806 	br	1007fc0 <__umoddi3+0x16c>
 1008160:	84c9c83a 	sub	r4,r16,r19
 1008164:	8105803a 	cmpltu	r2,r16,r4
 1008168:	a987c83a 	sub	r3,r21,r6
 100816c:	18abc83a 	sub	r21,r3,r2
 1008170:	2021883a 	mov	r16,r4
 1008174:	003f9d06 	br	1007fec <__umoddi3+0x198>
 1008178:	9ca6983a 	sll	r19,r19,r18
 100817c:	3485c83a 	sub	r2,r6,r18
 1008180:	a8a2d83a 	srl	r17,r21,r2
 1008184:	982ed43a 	srli	r23,r19,16
 1008188:	ac86983a 	sll	r3,r21,r18
 100818c:	8084d83a 	srl	r2,r16,r2
 1008190:	8809883a 	mov	r4,r17
 1008194:	b80b883a 	mov	r5,r23
 1008198:	18b8b03a 	or	fp,r3,r2
 100819c:	9d3fffcc 	andi	r20,r19,65535
 10081a0:	100971c0 	call	100971c <__udivsi3>
 10081a4:	100b883a 	mov	r5,r2
 10081a8:	a009883a 	mov	r4,r20
 10081ac:	100972c0 	call	100972c <__mulsi3>
 10081b0:	8809883a 	mov	r4,r17
 10081b4:	b80b883a 	mov	r5,r23
 10081b8:	102b883a 	mov	r21,r2
 10081bc:	10097240 	call	1009724 <__umodsi3>
 10081c0:	1004943a 	slli	r2,r2,16
 10081c4:	e006d43a 	srli	r3,fp,16
 10081c8:	902d883a 	mov	r22,r18
 10081cc:	10c4b03a 	or	r2,r2,r3
 10081d0:	1540022e 	bgeu	r2,r21,10081dc <__umoddi3+0x388>
 10081d4:	14c5883a 	add	r2,r2,r19
 10081d8:	14c0ab2e 	bgeu	r2,r19,1008488 <__umoddi3+0x634>
 10081dc:	1563c83a 	sub	r17,r2,r21
 10081e0:	8809883a 	mov	r4,r17
 10081e4:	b80b883a 	mov	r5,r23
 10081e8:	100971c0 	call	100971c <__udivsi3>
 10081ec:	100b883a 	mov	r5,r2
 10081f0:	a009883a 	mov	r4,r20
 10081f4:	100972c0 	call	100972c <__mulsi3>
 10081f8:	8809883a 	mov	r4,r17
 10081fc:	b80b883a 	mov	r5,r23
 1008200:	102b883a 	mov	r21,r2
 1008204:	10097240 	call	1009724 <__umodsi3>
 1008208:	1004943a 	slli	r2,r2,16
 100820c:	e0ffffcc 	andi	r3,fp,65535
 1008210:	10c4b03a 	or	r2,r2,r3
 1008214:	1540042e 	bgeu	r2,r21,1008228 <__umoddi3+0x3d4>
 1008218:	14c5883a 	add	r2,r2,r19
 100821c:	14c00236 	bltu	r2,r19,1008228 <__umoddi3+0x3d4>
 1008220:	1540012e 	bgeu	r2,r21,1008228 <__umoddi3+0x3d4>
 1008224:	14c5883a 	add	r2,r2,r19
 1008228:	84a0983a 	sll	r16,r16,r18
 100822c:	156bc83a 	sub	r21,r2,r21
 1008230:	003f3106 	br	1007ef8 <__umoddi3+0xa4>
 1008234:	3c8fc83a 	sub	r7,r7,r18
 1008238:	3486983a 	sll	r3,r6,r18
 100823c:	99c4d83a 	srl	r2,r19,r7
 1008240:	a9e2d83a 	srl	r17,r21,r7
 1008244:	ac8c983a 	sll	r6,r21,r18
 1008248:	18acb03a 	or	r22,r3,r2
 100824c:	b02ed43a 	srli	r23,r22,16
 1008250:	81c4d83a 	srl	r2,r16,r7
 1008254:	8809883a 	mov	r4,r17
 1008258:	b80b883a 	mov	r5,r23
 100825c:	308cb03a 	or	r6,r6,r2
 1008260:	d9c00315 	stw	r7,12(sp)
 1008264:	d9800215 	stw	r6,8(sp)
 1008268:	b53fffcc 	andi	r20,r22,65535
 100826c:	100971c0 	call	100971c <__udivsi3>
 1008270:	100b883a 	mov	r5,r2
 1008274:	a009883a 	mov	r4,r20
 1008278:	1039883a 	mov	fp,r2
 100827c:	100972c0 	call	100972c <__mulsi3>
 1008280:	8809883a 	mov	r4,r17
 1008284:	b80b883a 	mov	r5,r23
 1008288:	102b883a 	mov	r21,r2
 100828c:	10097240 	call	1009724 <__umodsi3>
 1008290:	d9000217 	ldw	r4,8(sp)
 1008294:	1004943a 	slli	r2,r2,16
 1008298:	9ca6983a 	sll	r19,r19,r18
 100829c:	2006d43a 	srli	r3,r4,16
 10082a0:	84a0983a 	sll	r16,r16,r18
 10082a4:	dcc00015 	stw	r19,0(sp)
 10082a8:	10c4b03a 	or	r2,r2,r3
 10082ac:	dc000115 	stw	r16,4(sp)
 10082b0:	1540032e 	bgeu	r2,r21,10082c0 <__umoddi3+0x46c>
 10082b4:	1585883a 	add	r2,r2,r22
 10082b8:	e73fffc4 	addi	fp,fp,-1
 10082bc:	15806e2e 	bgeu	r2,r22,1008478 <__umoddi3+0x624>
 10082c0:	1563c83a 	sub	r17,r2,r21
 10082c4:	8809883a 	mov	r4,r17
 10082c8:	b80b883a 	mov	r5,r23
 10082cc:	100971c0 	call	100971c <__udivsi3>
 10082d0:	100b883a 	mov	r5,r2
 10082d4:	a009883a 	mov	r4,r20
 10082d8:	1021883a 	mov	r16,r2
 10082dc:	100972c0 	call	100972c <__mulsi3>
 10082e0:	b80b883a 	mov	r5,r23
 10082e4:	8809883a 	mov	r4,r17
 10082e8:	1029883a 	mov	r20,r2
 10082ec:	10097240 	call	1009724 <__umodsi3>
 10082f0:	d9400217 	ldw	r5,8(sp)
 10082f4:	1004943a 	slli	r2,r2,16
 10082f8:	28ffffcc 	andi	r3,r5,65535
 10082fc:	10c4b03a 	or	r2,r2,r3
 1008300:	1500032e 	bgeu	r2,r20,1008310 <__umoddi3+0x4bc>
 1008304:	1585883a 	add	r2,r2,r22
 1008308:	843fffc4 	addi	r16,r16,-1
 100830c:	1580562e 	bgeu	r2,r22,1008468 <__umoddi3+0x614>
 1008310:	d9800017 	ldw	r6,0(sp)
 1008314:	e022943a 	slli	r17,fp,16
 1008318:	302ed43a 	srli	r23,r6,16
 100831c:	8462b03a 	or	r17,r16,r17
 1008320:	34ffffcc 	andi	r19,r6,65535
 1008324:	882ad43a 	srli	r21,r17,16
 1008328:	8c7fffcc 	andi	r17,r17,65535
 100832c:	8809883a 	mov	r4,r17
 1008330:	980b883a 	mov	r5,r19
 1008334:	1521c83a 	sub	r16,r2,r20
 1008338:	100972c0 	call	100972c <__mulsi3>
 100833c:	8809883a 	mov	r4,r17
 1008340:	b80b883a 	mov	r5,r23
 1008344:	1029883a 	mov	r20,r2
 1008348:	100972c0 	call	100972c <__mulsi3>
 100834c:	980b883a 	mov	r5,r19
 1008350:	a809883a 	mov	r4,r21
 1008354:	1023883a 	mov	r17,r2
 1008358:	100972c0 	call	100972c <__mulsi3>
 100835c:	a809883a 	mov	r4,r21
 1008360:	b80b883a 	mov	r5,r23
 1008364:	1027883a 	mov	r19,r2
 1008368:	100972c0 	call	100972c <__mulsi3>
 100836c:	100b883a 	mov	r5,r2
 1008370:	a004d43a 	srli	r2,r20,16
 1008374:	8ce3883a 	add	r17,r17,r19
 1008378:	1449883a 	add	r4,r2,r17
 100837c:	24c0022e 	bgeu	r4,r19,1008388 <__umoddi3+0x534>
 1008380:	00800074 	movhi	r2,1
 1008384:	288b883a 	add	r5,r5,r2
 1008388:	2004d43a 	srli	r2,r4,16
 100838c:	2008943a 	slli	r4,r4,16
 1008390:	a0ffffcc 	andi	r3,r20,65535
 1008394:	288d883a 	add	r6,r5,r2
 1008398:	20c9883a 	add	r4,r4,r3
 100839c:	81800b36 	bltu	r16,r6,10083cc <__umoddi3+0x578>
 10083a0:	81804026 	beq	r16,r6,10084a4 <__umoddi3+0x650>
 10083a4:	818dc83a 	sub	r6,r16,r6
 10083a8:	00000f06 	br	10083e8 <__umoddi3+0x594>
 10083ac:	30c5c83a 	sub	r2,r6,r3
 10083b0:	182d883a 	mov	r22,r3
 10083b4:	8084d83a 	srl	r2,r16,r2
 10083b8:	a8c6983a 	sll	r3,r21,r3
 10083bc:	9da6983a 	sll	r19,r19,r22
 10083c0:	85a0983a 	sll	r16,r16,r22
 10083c4:	18aab03a 	or	r21,r3,r2
 10083c8:	003f1d06 	br	1008040 <__umoddi3+0x1ec>
 10083cc:	d8c00017 	ldw	r3,0(sp)
 10083d0:	20c5c83a 	sub	r2,r4,r3
 10083d4:	2089803a 	cmpltu	r4,r4,r2
 10083d8:	3587c83a 	sub	r3,r6,r22
 10083dc:	1907c83a 	sub	r3,r3,r4
 10083e0:	80cdc83a 	sub	r6,r16,r3
 10083e4:	1009883a 	mov	r4,r2
 10083e8:	d9400117 	ldw	r5,4(sp)
 10083ec:	2905c83a 	sub	r2,r5,r4
 10083f0:	2887803a 	cmpltu	r3,r5,r2
 10083f4:	30c7c83a 	sub	r3,r6,r3
 10083f8:	d9800317 	ldw	r6,12(sp)
 10083fc:	1484d83a 	srl	r2,r2,r18
 1008400:	1988983a 	sll	r4,r3,r6
 1008404:	1c86d83a 	srl	r3,r3,r18
 1008408:	2088b03a 	or	r4,r4,r2
 100840c:	2011883a 	mov	r8,r4
 1008410:	1813883a 	mov	r9,r3
 1008414:	d9000415 	stw	r4,16(sp)
 1008418:	d8c00515 	stw	r3,20(sp)
 100841c:	003ed406 	br	1007f70 <__umoddi3+0x11c>
 1008420:	01400604 	movi	r5,24
 1008424:	2805883a 	mov	r2,r5
 1008428:	003ea606 	br	1007ec4 <__umoddi3+0x70>
 100842c:	01400204 	movi	r5,8
 1008430:	2805883a 	mov	r2,r5
 1008434:	003ea306 	br	1007ec4 <__umoddi3+0x70>
 1008438:	01400204 	movi	r5,8
 100843c:	2805883a 	mov	r2,r5
 1008440:	003edf06 	br	1007fc0 <__umoddi3+0x16c>
 1008444:	01400204 	movi	r5,8
 1008448:	2805883a 	mov	r2,r5
 100844c:	003ef206 	br	1008018 <__umoddi3+0x1c4>
 1008450:	01400604 	movi	r5,24
 1008454:	2805883a 	mov	r2,r5
 1008458:	003eef06 	br	1008018 <__umoddi3+0x1c4>
 100845c:	01400604 	movi	r5,24
 1008460:	2805883a 	mov	r2,r5
 1008464:	003ed606 	br	1007fc0 <__umoddi3+0x16c>
 1008468:	153fa92e 	bgeu	r2,r20,1008310 <__umoddi3+0x4bc>
 100846c:	843fffc4 	addi	r16,r16,-1
 1008470:	1585883a 	add	r2,r2,r22
 1008474:	003fa606 	br	1008310 <__umoddi3+0x4bc>
 1008478:	157f912e 	bgeu	r2,r21,10082c0 <__umoddi3+0x46c>
 100847c:	e73fffc4 	addi	fp,fp,-1
 1008480:	1585883a 	add	r2,r2,r22
 1008484:	003f8e06 	br	10082c0 <__umoddi3+0x46c>
 1008488:	157f542e 	bgeu	r2,r21,10081dc <__umoddi3+0x388>
 100848c:	14c5883a 	add	r2,r2,r19
 1008490:	003f5206 	br	10081dc <__umoddi3+0x388>
 1008494:	14c5883a 	add	r2,r2,r19
 1008498:	003efc06 	br	100808c <__umoddi3+0x238>
 100849c:	14c5883a 	add	r2,r2,r19
 10084a0:	003ea606 	br	1007f3c <__umoddi3+0xe8>
 10084a4:	d8800117 	ldw	r2,4(sp)
 10084a8:	113fc836 	bltu	r2,r4,10083cc <__umoddi3+0x578>
 10084ac:	000d883a 	mov	r6,zero
 10084b0:	003fcd06 	br	10083e8 <__umoddi3+0x594>

010084b4 <_fpadd_parts>:
 10084b4:	defff804 	addi	sp,sp,-32
 10084b8:	dcc00315 	stw	r19,12(sp)
 10084bc:	2027883a 	mov	r19,r4
 10084c0:	21000017 	ldw	r4,0(r4)
 10084c4:	00c00044 	movi	r3,1
 10084c8:	dd400515 	stw	r21,20(sp)
 10084cc:	dd000415 	stw	r20,16(sp)
 10084d0:	ddc00715 	stw	r23,28(sp)
 10084d4:	dd800615 	stw	r22,24(sp)
 10084d8:	dc800215 	stw	r18,8(sp)
 10084dc:	dc400115 	stw	r17,4(sp)
 10084e0:	dc000015 	stw	r16,0(sp)
 10084e4:	282b883a 	mov	r21,r5
 10084e8:	3029883a 	mov	r20,r6
 10084ec:	1900632e 	bgeu	r3,r4,100867c <_fpadd_parts+0x1c8>
 10084f0:	28800017 	ldw	r2,0(r5)
 10084f4:	1880812e 	bgeu	r3,r2,10086fc <_fpadd_parts+0x248>
 10084f8:	00c00104 	movi	r3,4
 10084fc:	20c0dc26 	beq	r4,r3,1008870 <_fpadd_parts+0x3bc>
 1008500:	10c07e26 	beq	r2,r3,10086fc <_fpadd_parts+0x248>
 1008504:	00c00084 	movi	r3,2
 1008508:	10c06726 	beq	r2,r3,10086a8 <_fpadd_parts+0x1f4>
 100850c:	20c07b26 	beq	r4,r3,10086fc <_fpadd_parts+0x248>
 1008510:	9dc00217 	ldw	r23,8(r19)
 1008514:	28c00217 	ldw	r3,8(r5)
 1008518:	9c400317 	ldw	r17,12(r19)
 100851c:	2bc00317 	ldw	r15,12(r5)
 1008520:	b8cdc83a 	sub	r6,r23,r3
 1008524:	9c800417 	ldw	r18,16(r19)
 1008528:	2c000417 	ldw	r16,16(r5)
 100852c:	3009883a 	mov	r4,r6
 1008530:	30009716 	blt	r6,zero,1008790 <_fpadd_parts+0x2dc>
 1008534:	00800fc4 	movi	r2,63
 1008538:	11806b16 	blt	r2,r6,10086e8 <_fpadd_parts+0x234>
 100853c:	0100a40e 	bge	zero,r4,10087d0 <_fpadd_parts+0x31c>
 1008540:	35bff804 	addi	r22,r6,-32
 1008544:	b000bc16 	blt	r22,zero,1008838 <_fpadd_parts+0x384>
 1008548:	8596d83a 	srl	r11,r16,r22
 100854c:	0019883a 	mov	r12,zero
 1008550:	0013883a 	mov	r9,zero
 1008554:	01000044 	movi	r4,1
 1008558:	0015883a 	mov	r10,zero
 100855c:	b000be16 	blt	r22,zero,1008858 <_fpadd_parts+0x3a4>
 1008560:	2590983a 	sll	r8,r4,r22
 1008564:	000f883a 	mov	r7,zero
 1008568:	00bfffc4 	movi	r2,-1
 100856c:	3889883a 	add	r4,r7,r2
 1008570:	408b883a 	add	r5,r8,r2
 1008574:	21cd803a 	cmpltu	r6,r4,r7
 1008578:	314b883a 	add	r5,r6,r5
 100857c:	7904703a 	and	r2,r15,r4
 1008580:	8146703a 	and	r3,r16,r5
 1008584:	10c4b03a 	or	r2,r2,r3
 1008588:	10000226 	beq	r2,zero,1008594 <_fpadd_parts+0xe0>
 100858c:	02400044 	movi	r9,1
 1008590:	0015883a 	mov	r10,zero
 1008594:	5a5eb03a 	or	r15,r11,r9
 1008598:	62a0b03a 	or	r16,r12,r10
 100859c:	99400117 	ldw	r5,4(r19)
 10085a0:	a8800117 	ldw	r2,4(r21)
 10085a4:	28806e26 	beq	r5,r2,1008760 <_fpadd_parts+0x2ac>
 10085a8:	28006626 	beq	r5,zero,1008744 <_fpadd_parts+0x290>
 10085ac:	7c45c83a 	sub	r2,r15,r17
 10085b0:	7889803a 	cmpltu	r4,r15,r2
 10085b4:	8487c83a 	sub	r3,r16,r18
 10085b8:	1909c83a 	sub	r4,r3,r4
 10085bc:	100d883a 	mov	r6,r2
 10085c0:	200f883a 	mov	r7,r4
 10085c4:	38007716 	blt	r7,zero,10087a4 <_fpadd_parts+0x2f0>
 10085c8:	a5c00215 	stw	r23,8(r20)
 10085cc:	a1c00415 	stw	r7,16(r20)
 10085d0:	a0000115 	stw	zero,4(r20)
 10085d4:	a1800315 	stw	r6,12(r20)
 10085d8:	a2000317 	ldw	r8,12(r20)
 10085dc:	a2400417 	ldw	r9,16(r20)
 10085e0:	00bfffc4 	movi	r2,-1
 10085e4:	408b883a 	add	r5,r8,r2
 10085e8:	2a09803a 	cmpltu	r4,r5,r8
 10085ec:	488d883a 	add	r6,r9,r2
 10085f0:	01c40034 	movhi	r7,4096
 10085f4:	39ffffc4 	addi	r7,r7,-1
 10085f8:	218d883a 	add	r6,r4,r6
 10085fc:	39801736 	bltu	r7,r6,100865c <_fpadd_parts+0x1a8>
 1008600:	31c06526 	beq	r6,r7,1008798 <_fpadd_parts+0x2e4>
 1008604:	a3000217 	ldw	r12,8(r20)
 1008608:	4209883a 	add	r4,r8,r8
 100860c:	00bfffc4 	movi	r2,-1
 1008610:	220f803a 	cmpltu	r7,r4,r8
 1008614:	4a4b883a 	add	r5,r9,r9
 1008618:	394f883a 	add	r7,r7,r5
 100861c:	2095883a 	add	r10,r4,r2
 1008620:	3897883a 	add	r11,r7,r2
 1008624:	510d803a 	cmpltu	r6,r10,r4
 1008628:	6099883a 	add	r12,r12,r2
 100862c:	32d7883a 	add	r11,r6,r11
 1008630:	00840034 	movhi	r2,4096
 1008634:	10bfffc4 	addi	r2,r2,-1
 1008638:	2011883a 	mov	r8,r4
 100863c:	3813883a 	mov	r9,r7
 1008640:	a1000315 	stw	r4,12(r20)
 1008644:	a1c00415 	stw	r7,16(r20)
 1008648:	a3000215 	stw	r12,8(r20)
 100864c:	12c00336 	bltu	r2,r11,100865c <_fpadd_parts+0x1a8>
 1008650:	58bfed1e 	bne	r11,r2,1008608 <_fpadd_parts+0x154>
 1008654:	00bfff84 	movi	r2,-2
 1008658:	12bfeb2e 	bgeu	r2,r10,1008608 <_fpadd_parts+0x154>
 100865c:	a2800417 	ldw	r10,16(r20)
 1008660:	008000c4 	movi	r2,3
 1008664:	00c80034 	movhi	r3,8192
 1008668:	18ffffc4 	addi	r3,r3,-1
 100866c:	a2400317 	ldw	r9,12(r20)
 1008670:	a0800015 	stw	r2,0(r20)
 1008674:	1a802336 	bltu	r3,r10,1008704 <_fpadd_parts+0x250>
 1008678:	a027883a 	mov	r19,r20
 100867c:	9805883a 	mov	r2,r19
 1008680:	ddc00717 	ldw	r23,28(sp)
 1008684:	dd800617 	ldw	r22,24(sp)
 1008688:	dd400517 	ldw	r21,20(sp)
 100868c:	dd000417 	ldw	r20,16(sp)
 1008690:	dcc00317 	ldw	r19,12(sp)
 1008694:	dc800217 	ldw	r18,8(sp)
 1008698:	dc400117 	ldw	r17,4(sp)
 100869c:	dc000017 	ldw	r16,0(sp)
 10086a0:	dec00804 	addi	sp,sp,32
 10086a4:	f800283a 	ret
 10086a8:	20fff41e 	bne	r4,r3,100867c <_fpadd_parts+0x1c8>
 10086ac:	31000015 	stw	r4,0(r6)
 10086b0:	98800117 	ldw	r2,4(r19)
 10086b4:	30800115 	stw	r2,4(r6)
 10086b8:	98c00217 	ldw	r3,8(r19)
 10086bc:	30c00215 	stw	r3,8(r6)
 10086c0:	98800317 	ldw	r2,12(r19)
 10086c4:	30800315 	stw	r2,12(r6)
 10086c8:	98c00417 	ldw	r3,16(r19)
 10086cc:	30c00415 	stw	r3,16(r6)
 10086d0:	98800117 	ldw	r2,4(r19)
 10086d4:	28c00117 	ldw	r3,4(r5)
 10086d8:	3027883a 	mov	r19,r6
 10086dc:	10c4703a 	and	r2,r2,r3
 10086e0:	30800115 	stw	r2,4(r6)
 10086e4:	003fe506 	br	100867c <_fpadd_parts+0x1c8>
 10086e8:	1dc02616 	blt	r3,r23,1008784 <_fpadd_parts+0x2d0>
 10086ec:	0023883a 	mov	r17,zero
 10086f0:	182f883a 	mov	r23,r3
 10086f4:	0025883a 	mov	r18,zero
 10086f8:	003fa806 	br	100859c <_fpadd_parts+0xe8>
 10086fc:	a827883a 	mov	r19,r21
 1008700:	003fde06 	br	100867c <_fpadd_parts+0x1c8>
 1008704:	01800044 	movi	r6,1
 1008708:	500497fa 	slli	r2,r10,31
 100870c:	4808d07a 	srli	r4,r9,1
 1008710:	518ad83a 	srl	r5,r10,r6
 1008714:	a2000217 	ldw	r8,8(r20)
 1008718:	1108b03a 	or	r4,r2,r4
 100871c:	0007883a 	mov	r3,zero
 1008720:	4984703a 	and	r2,r9,r6
 1008724:	208cb03a 	or	r6,r4,r2
 1008728:	28ceb03a 	or	r7,r5,r3
 100872c:	42000044 	addi	r8,r8,1
 1008730:	a027883a 	mov	r19,r20
 1008734:	a1c00415 	stw	r7,16(r20)
 1008738:	a2000215 	stw	r8,8(r20)
 100873c:	a1800315 	stw	r6,12(r20)
 1008740:	003fce06 	br	100867c <_fpadd_parts+0x1c8>
 1008744:	8bc5c83a 	sub	r2,r17,r15
 1008748:	8889803a 	cmpltu	r4,r17,r2
 100874c:	9407c83a 	sub	r3,r18,r16
 1008750:	1909c83a 	sub	r4,r3,r4
 1008754:	100d883a 	mov	r6,r2
 1008758:	200f883a 	mov	r7,r4
 100875c:	003f9906 	br	10085c4 <_fpadd_parts+0x110>
 1008760:	7c45883a 	add	r2,r15,r17
 1008764:	13c9803a 	cmpltu	r4,r2,r15
 1008768:	8487883a 	add	r3,r16,r18
 100876c:	20c9883a 	add	r4,r4,r3
 1008770:	a1400115 	stw	r5,4(r20)
 1008774:	a5c00215 	stw	r23,8(r20)
 1008778:	a0800315 	stw	r2,12(r20)
 100877c:	a1000415 	stw	r4,16(r20)
 1008780:	003fb606 	br	100865c <_fpadd_parts+0x1a8>
 1008784:	001f883a 	mov	r15,zero
 1008788:	0021883a 	mov	r16,zero
 100878c:	003f8306 	br	100859c <_fpadd_parts+0xe8>
 1008790:	018dc83a 	sub	r6,zero,r6
 1008794:	003f6706 	br	1008534 <_fpadd_parts+0x80>
 1008798:	00bfff84 	movi	r2,-2
 100879c:	117faf36 	bltu	r2,r5,100865c <_fpadd_parts+0x1a8>
 10087a0:	003f9806 	br	1008604 <_fpadd_parts+0x150>
 10087a4:	0005883a 	mov	r2,zero
 10087a8:	1189c83a 	sub	r4,r2,r6
 10087ac:	1105803a 	cmpltu	r2,r2,r4
 10087b0:	01cbc83a 	sub	r5,zero,r7
 10087b4:	2885c83a 	sub	r2,r5,r2
 10087b8:	01800044 	movi	r6,1
 10087bc:	a1800115 	stw	r6,4(r20)
 10087c0:	a5c00215 	stw	r23,8(r20)
 10087c4:	a1000315 	stw	r4,12(r20)
 10087c8:	a0800415 	stw	r2,16(r20)
 10087cc:	003f8206 	br	10085d8 <_fpadd_parts+0x124>
 10087d0:	203f7226 	beq	r4,zero,100859c <_fpadd_parts+0xe8>
 10087d4:	35bff804 	addi	r22,r6,-32
 10087d8:	b9af883a 	add	r23,r23,r6
 10087dc:	b0003116 	blt	r22,zero,10088a4 <_fpadd_parts+0x3f0>
 10087e0:	959ad83a 	srl	r13,r18,r22
 10087e4:	001d883a 	mov	r14,zero
 10087e8:	000f883a 	mov	r7,zero
 10087ec:	01000044 	movi	r4,1
 10087f0:	0011883a 	mov	r8,zero
 10087f4:	b0002516 	blt	r22,zero,100888c <_fpadd_parts+0x3d8>
 10087f8:	2594983a 	sll	r10,r4,r22
 10087fc:	0013883a 	mov	r9,zero
 1008800:	00bfffc4 	movi	r2,-1
 1008804:	4889883a 	add	r4,r9,r2
 1008808:	508b883a 	add	r5,r10,r2
 100880c:	224d803a 	cmpltu	r6,r4,r9
 1008810:	314b883a 	add	r5,r6,r5
 1008814:	8904703a 	and	r2,r17,r4
 1008818:	9146703a 	and	r3,r18,r5
 100881c:	10c4b03a 	or	r2,r2,r3
 1008820:	10000226 	beq	r2,zero,100882c <_fpadd_parts+0x378>
 1008824:	01c00044 	movi	r7,1
 1008828:	0011883a 	mov	r8,zero
 100882c:	69e2b03a 	or	r17,r13,r7
 1008830:	7224b03a 	or	r18,r14,r8
 1008834:	003f5906 	br	100859c <_fpadd_parts+0xe8>
 1008838:	8407883a 	add	r3,r16,r16
 100883c:	008007c4 	movi	r2,31
 1008840:	1185c83a 	sub	r2,r2,r6
 1008844:	1886983a 	sll	r3,r3,r2
 1008848:	7996d83a 	srl	r11,r15,r6
 100884c:	8198d83a 	srl	r12,r16,r6
 1008850:	1ad6b03a 	or	r11,r3,r11
 1008854:	003f3e06 	br	1008550 <_fpadd_parts+0x9c>
 1008858:	2006d07a 	srli	r3,r4,1
 100885c:	008007c4 	movi	r2,31
 1008860:	1185c83a 	sub	r2,r2,r6
 1008864:	1890d83a 	srl	r8,r3,r2
 1008868:	218e983a 	sll	r7,r4,r6
 100886c:	003f3e06 	br	1008568 <_fpadd_parts+0xb4>
 1008870:	113f821e 	bne	r2,r4,100867c <_fpadd_parts+0x1c8>
 1008874:	28c00117 	ldw	r3,4(r5)
 1008878:	98800117 	ldw	r2,4(r19)
 100887c:	10ff7f26 	beq	r2,r3,100867c <_fpadd_parts+0x1c8>
 1008880:	04c04074 	movhi	r19,257
 1008884:	9cf58d04 	addi	r19,r19,-10700
 1008888:	003f7c06 	br	100867c <_fpadd_parts+0x1c8>
 100888c:	2006d07a 	srli	r3,r4,1
 1008890:	008007c4 	movi	r2,31
 1008894:	1185c83a 	sub	r2,r2,r6
 1008898:	1894d83a 	srl	r10,r3,r2
 100889c:	2192983a 	sll	r9,r4,r6
 10088a0:	003fd706 	br	1008800 <_fpadd_parts+0x34c>
 10088a4:	9487883a 	add	r3,r18,r18
 10088a8:	008007c4 	movi	r2,31
 10088ac:	1185c83a 	sub	r2,r2,r6
 10088b0:	1886983a 	sll	r3,r3,r2
 10088b4:	899ad83a 	srl	r13,r17,r6
 10088b8:	919cd83a 	srl	r14,r18,r6
 10088bc:	1b5ab03a 	or	r13,r3,r13
 10088c0:	003fc906 	br	10087e8 <_fpadd_parts+0x334>

010088c4 <__subdf3>:
 10088c4:	deffea04 	addi	sp,sp,-88
 10088c8:	dcc01415 	stw	r19,80(sp)
 10088cc:	dcc00404 	addi	r19,sp,16
 10088d0:	2011883a 	mov	r8,r4
 10088d4:	2813883a 	mov	r9,r5
 10088d8:	dc401315 	stw	r17,76(sp)
 10088dc:	d809883a 	mov	r4,sp
 10088e0:	980b883a 	mov	r5,r19
 10088e4:	dc400904 	addi	r17,sp,36
 10088e8:	dfc01515 	stw	ra,84(sp)
 10088ec:	da400115 	stw	r9,4(sp)
 10088f0:	d9c00315 	stw	r7,12(sp)
 10088f4:	da000015 	stw	r8,0(sp)
 10088f8:	d9800215 	stw	r6,8(sp)
 10088fc:	1009c1c0 	call	1009c1c <__unpack_d>
 1008900:	d9000204 	addi	r4,sp,8
 1008904:	880b883a 	mov	r5,r17
 1008908:	1009c1c0 	call	1009c1c <__unpack_d>
 100890c:	d8800a17 	ldw	r2,40(sp)
 1008910:	880b883a 	mov	r5,r17
 1008914:	9809883a 	mov	r4,r19
 1008918:	d9800e04 	addi	r6,sp,56
 100891c:	1080005c 	xori	r2,r2,1
 1008920:	d8800a15 	stw	r2,40(sp)
 1008924:	10084b40 	call	10084b4 <_fpadd_parts>
 1008928:	1009883a 	mov	r4,r2
 100892c:	10099080 	call	1009908 <__pack_d>
 1008930:	dfc01517 	ldw	ra,84(sp)
 1008934:	dcc01417 	ldw	r19,80(sp)
 1008938:	dc401317 	ldw	r17,76(sp)
 100893c:	dec01604 	addi	sp,sp,88
 1008940:	f800283a 	ret

01008944 <__adddf3>:
 1008944:	deffea04 	addi	sp,sp,-88
 1008948:	dcc01415 	stw	r19,80(sp)
 100894c:	dcc00404 	addi	r19,sp,16
 1008950:	2011883a 	mov	r8,r4
 1008954:	2813883a 	mov	r9,r5
 1008958:	dc401315 	stw	r17,76(sp)
 100895c:	d809883a 	mov	r4,sp
 1008960:	980b883a 	mov	r5,r19
 1008964:	dc400904 	addi	r17,sp,36
 1008968:	dfc01515 	stw	ra,84(sp)
 100896c:	da400115 	stw	r9,4(sp)
 1008970:	d9c00315 	stw	r7,12(sp)
 1008974:	da000015 	stw	r8,0(sp)
 1008978:	d9800215 	stw	r6,8(sp)
 100897c:	1009c1c0 	call	1009c1c <__unpack_d>
 1008980:	d9000204 	addi	r4,sp,8
 1008984:	880b883a 	mov	r5,r17
 1008988:	1009c1c0 	call	1009c1c <__unpack_d>
 100898c:	d9800e04 	addi	r6,sp,56
 1008990:	9809883a 	mov	r4,r19
 1008994:	880b883a 	mov	r5,r17
 1008998:	10084b40 	call	10084b4 <_fpadd_parts>
 100899c:	1009883a 	mov	r4,r2
 10089a0:	10099080 	call	1009908 <__pack_d>
 10089a4:	dfc01517 	ldw	ra,84(sp)
 10089a8:	dcc01417 	ldw	r19,80(sp)
 10089ac:	dc401317 	ldw	r17,76(sp)
 10089b0:	dec01604 	addi	sp,sp,88
 10089b4:	f800283a 	ret

010089b8 <__muldf3>:
 10089b8:	deffe004 	addi	sp,sp,-128
 10089bc:	dc401815 	stw	r17,96(sp)
 10089c0:	dc400404 	addi	r17,sp,16
 10089c4:	2011883a 	mov	r8,r4
 10089c8:	2813883a 	mov	r9,r5
 10089cc:	dc001715 	stw	r16,92(sp)
 10089d0:	d809883a 	mov	r4,sp
 10089d4:	880b883a 	mov	r5,r17
 10089d8:	dc000904 	addi	r16,sp,36
 10089dc:	dfc01f15 	stw	ra,124(sp)
 10089e0:	da400115 	stw	r9,4(sp)
 10089e4:	d9c00315 	stw	r7,12(sp)
 10089e8:	da000015 	stw	r8,0(sp)
 10089ec:	d9800215 	stw	r6,8(sp)
 10089f0:	ddc01e15 	stw	r23,120(sp)
 10089f4:	dd801d15 	stw	r22,116(sp)
 10089f8:	dd401c15 	stw	r21,112(sp)
 10089fc:	dd001b15 	stw	r20,108(sp)
 1008a00:	dcc01a15 	stw	r19,104(sp)
 1008a04:	dc801915 	stw	r18,100(sp)
 1008a08:	1009c1c0 	call	1009c1c <__unpack_d>
 1008a0c:	d9000204 	addi	r4,sp,8
 1008a10:	800b883a 	mov	r5,r16
 1008a14:	1009c1c0 	call	1009c1c <__unpack_d>
 1008a18:	d9000417 	ldw	r4,16(sp)
 1008a1c:	00800044 	movi	r2,1
 1008a20:	1100102e 	bgeu	r2,r4,1008a64 <__muldf3+0xac>
 1008a24:	d8c00917 	ldw	r3,36(sp)
 1008a28:	10c0062e 	bgeu	r2,r3,1008a44 <__muldf3+0x8c>
 1008a2c:	00800104 	movi	r2,4
 1008a30:	20800a26 	beq	r4,r2,1008a5c <__muldf3+0xa4>
 1008a34:	1880cc26 	beq	r3,r2,1008d68 <__muldf3+0x3b0>
 1008a38:	00800084 	movi	r2,2
 1008a3c:	20800926 	beq	r4,r2,1008a64 <__muldf3+0xac>
 1008a40:	1880191e 	bne	r3,r2,1008aa8 <__muldf3+0xf0>
 1008a44:	d8c00a17 	ldw	r3,40(sp)
 1008a48:	d8800517 	ldw	r2,20(sp)
 1008a4c:	8009883a 	mov	r4,r16
 1008a50:	10c4c03a 	cmpne	r2,r2,r3
 1008a54:	d8800a15 	stw	r2,40(sp)
 1008a58:	00000706 	br	1008a78 <__muldf3+0xc0>
 1008a5c:	00800084 	movi	r2,2
 1008a60:	1880c326 	beq	r3,r2,1008d70 <__muldf3+0x3b8>
 1008a64:	d8800517 	ldw	r2,20(sp)
 1008a68:	d8c00a17 	ldw	r3,40(sp)
 1008a6c:	8809883a 	mov	r4,r17
 1008a70:	10c4c03a 	cmpne	r2,r2,r3
 1008a74:	d8800515 	stw	r2,20(sp)
 1008a78:	10099080 	call	1009908 <__pack_d>
 1008a7c:	dfc01f17 	ldw	ra,124(sp)
 1008a80:	ddc01e17 	ldw	r23,120(sp)
 1008a84:	dd801d17 	ldw	r22,116(sp)
 1008a88:	dd401c17 	ldw	r21,112(sp)
 1008a8c:	dd001b17 	ldw	r20,108(sp)
 1008a90:	dcc01a17 	ldw	r19,104(sp)
 1008a94:	dc801917 	ldw	r18,100(sp)
 1008a98:	dc401817 	ldw	r17,96(sp)
 1008a9c:	dc001717 	ldw	r16,92(sp)
 1008aa0:	dec02004 	addi	sp,sp,128
 1008aa4:	f800283a 	ret
 1008aa8:	dd800717 	ldw	r22,28(sp)
 1008aac:	dc800c17 	ldw	r18,48(sp)
 1008ab0:	002b883a 	mov	r21,zero
 1008ab4:	0023883a 	mov	r17,zero
 1008ab8:	a80b883a 	mov	r5,r21
 1008abc:	b00d883a 	mov	r6,r22
 1008ac0:	880f883a 	mov	r7,r17
 1008ac4:	ddc00817 	ldw	r23,32(sp)
 1008ac8:	dcc00d17 	ldw	r19,52(sp)
 1008acc:	9009883a 	mov	r4,r18
 1008ad0:	10097640 	call	1009764 <__muldi3>
 1008ad4:	001b883a 	mov	r13,zero
 1008ad8:	680f883a 	mov	r7,r13
 1008adc:	b009883a 	mov	r4,r22
 1008ae0:	000b883a 	mov	r5,zero
 1008ae4:	980d883a 	mov	r6,r19
 1008ae8:	b82d883a 	mov	r22,r23
 1008aec:	002f883a 	mov	r23,zero
 1008af0:	db401615 	stw	r13,88(sp)
 1008af4:	d8801315 	stw	r2,76(sp)
 1008af8:	d8c01415 	stw	r3,80(sp)
 1008afc:	dcc01515 	stw	r19,84(sp)
 1008b00:	10097640 	call	1009764 <__muldi3>
 1008b04:	b00d883a 	mov	r6,r22
 1008b08:	000b883a 	mov	r5,zero
 1008b0c:	9009883a 	mov	r4,r18
 1008b10:	b80f883a 	mov	r7,r23
 1008b14:	1021883a 	mov	r16,r2
 1008b18:	1823883a 	mov	r17,r3
 1008b1c:	10097640 	call	1009764 <__muldi3>
 1008b20:	8085883a 	add	r2,r16,r2
 1008b24:	140d803a 	cmpltu	r6,r2,r16
 1008b28:	88c7883a 	add	r3,r17,r3
 1008b2c:	30cd883a 	add	r6,r6,r3
 1008b30:	1029883a 	mov	r20,r2
 1008b34:	302b883a 	mov	r21,r6
 1008b38:	da801317 	ldw	r10,76(sp)
 1008b3c:	dac01417 	ldw	r11,80(sp)
 1008b40:	db001517 	ldw	r12,84(sp)
 1008b44:	db401617 	ldw	r13,88(sp)
 1008b48:	3440612e 	bgeu	r6,r17,1008cd0 <__muldf3+0x318>
 1008b4c:	0009883a 	mov	r4,zero
 1008b50:	5105883a 	add	r2,r10,r4
 1008b54:	128d803a 	cmpltu	r6,r2,r10
 1008b58:	5d07883a 	add	r3,r11,r20
 1008b5c:	30cd883a 	add	r6,r6,r3
 1008b60:	0021883a 	mov	r16,zero
 1008b64:	04400044 	movi	r17,1
 1008b68:	1025883a 	mov	r18,r2
 1008b6c:	3027883a 	mov	r19,r6
 1008b70:	32c06236 	bltu	r6,r11,1008cfc <__muldf3+0x344>
 1008b74:	59807a26 	beq	r11,r6,1008d60 <__muldf3+0x3a8>
 1008b78:	680b883a 	mov	r5,r13
 1008b7c:	b80f883a 	mov	r7,r23
 1008b80:	6009883a 	mov	r4,r12
 1008b84:	b00d883a 	mov	r6,r22
 1008b88:	10097640 	call	1009764 <__muldi3>
 1008b8c:	1009883a 	mov	r4,r2
 1008b90:	000f883a 	mov	r7,zero
 1008b94:	1545883a 	add	r2,r2,r21
 1008b98:	1111803a 	cmpltu	r8,r2,r4
 1008b9c:	19c7883a 	add	r3,r3,r7
 1008ba0:	40c7883a 	add	r3,r8,r3
 1008ba4:	88cb883a 	add	r5,r17,r3
 1008ba8:	d8c00617 	ldw	r3,24(sp)
 1008bac:	8089883a 	add	r4,r16,r2
 1008bb0:	d8800b17 	ldw	r2,44(sp)
 1008bb4:	18c00104 	addi	r3,r3,4
 1008bb8:	240d803a 	cmpltu	r6,r4,r16
 1008bbc:	10c7883a 	add	r3,r2,r3
 1008bc0:	2013883a 	mov	r9,r4
 1008bc4:	d8800a17 	ldw	r2,40(sp)
 1008bc8:	d9000517 	ldw	r4,20(sp)
 1008bcc:	314d883a 	add	r6,r6,r5
 1008bd0:	3015883a 	mov	r10,r6
 1008bd4:	2088c03a 	cmpne	r4,r4,r2
 1008bd8:	00880034 	movhi	r2,8192
 1008bdc:	10bfffc4 	addi	r2,r2,-1
 1008be0:	d9000f15 	stw	r4,60(sp)
 1008be4:	d8c01015 	stw	r3,64(sp)
 1008be8:	1180162e 	bgeu	r2,r6,1008c44 <__muldf3+0x28c>
 1008bec:	1811883a 	mov	r8,r3
 1008bf0:	101f883a 	mov	r15,r2
 1008bf4:	980497fa 	slli	r2,r19,31
 1008bf8:	9016d07a 	srli	r11,r18,1
 1008bfc:	500697fa 	slli	r3,r10,31
 1008c00:	480cd07a 	srli	r6,r9,1
 1008c04:	500ed07a 	srli	r7,r10,1
 1008c08:	12d6b03a 	or	r11,r2,r11
 1008c0c:	00800044 	movi	r2,1
 1008c10:	198cb03a 	or	r6,r3,r6
 1008c14:	4888703a 	and	r4,r9,r2
 1008c18:	9818d07a 	srli	r12,r19,1
 1008c1c:	001b883a 	mov	r13,zero
 1008c20:	03a00034 	movhi	r14,32768
 1008c24:	3013883a 	mov	r9,r6
 1008c28:	3815883a 	mov	r10,r7
 1008c2c:	4091883a 	add	r8,r8,r2
 1008c30:	20000226 	beq	r4,zero,1008c3c <__muldf3+0x284>
 1008c34:	5b64b03a 	or	r18,r11,r13
 1008c38:	63a6b03a 	or	r19,r12,r14
 1008c3c:	7abfed36 	bltu	r15,r10,1008bf4 <__muldf3+0x23c>
 1008c40:	da001015 	stw	r8,64(sp)
 1008c44:	00840034 	movhi	r2,4096
 1008c48:	10bfffc4 	addi	r2,r2,-1
 1008c4c:	12801436 	bltu	r2,r10,1008ca0 <__muldf3+0x2e8>
 1008c50:	da001017 	ldw	r8,64(sp)
 1008c54:	101f883a 	mov	r15,r2
 1008c58:	4a45883a 	add	r2,r9,r9
 1008c5c:	124d803a 	cmpltu	r6,r2,r9
 1008c60:	5287883a 	add	r3,r10,r10
 1008c64:	9497883a 	add	r11,r18,r18
 1008c68:	5c8f803a 	cmpltu	r7,r11,r18
 1008c6c:	9cd9883a 	add	r12,r19,r19
 1008c70:	01000044 	movi	r4,1
 1008c74:	30cd883a 	add	r6,r6,r3
 1008c78:	3b0f883a 	add	r7,r7,r12
 1008c7c:	423fffc4 	addi	r8,r8,-1
 1008c80:	1013883a 	mov	r9,r2
 1008c84:	3015883a 	mov	r10,r6
 1008c88:	111ab03a 	or	r13,r2,r4
 1008c8c:	98003016 	blt	r19,zero,1008d50 <__muldf3+0x398>
 1008c90:	5825883a 	mov	r18,r11
 1008c94:	3827883a 	mov	r19,r7
 1008c98:	7abfef2e 	bgeu	r15,r10,1008c58 <__muldf3+0x2a0>
 1008c9c:	da001015 	stw	r8,64(sp)
 1008ca0:	00803fc4 	movi	r2,255
 1008ca4:	488e703a 	and	r7,r9,r2
 1008ca8:	00802004 	movi	r2,128
 1008cac:	0007883a 	mov	r3,zero
 1008cb0:	0011883a 	mov	r8,zero
 1008cb4:	38801826 	beq	r7,r2,1008d18 <__muldf3+0x360>
 1008cb8:	008000c4 	movi	r2,3
 1008cbc:	d9000e04 	addi	r4,sp,56
 1008cc0:	da801215 	stw	r10,72(sp)
 1008cc4:	d8800e15 	stw	r2,56(sp)
 1008cc8:	da401115 	stw	r9,68(sp)
 1008ccc:	003f6a06 	br	1008a78 <__muldf3+0xc0>
 1008cd0:	89802126 	beq	r17,r6,1008d58 <__muldf3+0x3a0>
 1008cd4:	0009883a 	mov	r4,zero
 1008cd8:	5105883a 	add	r2,r10,r4
 1008cdc:	128d803a 	cmpltu	r6,r2,r10
 1008ce0:	5d07883a 	add	r3,r11,r20
 1008ce4:	30cd883a 	add	r6,r6,r3
 1008ce8:	0021883a 	mov	r16,zero
 1008cec:	0023883a 	mov	r17,zero
 1008cf0:	1025883a 	mov	r18,r2
 1008cf4:	3027883a 	mov	r19,r6
 1008cf8:	32ff9e2e 	bgeu	r6,r11,1008b74 <__muldf3+0x1bc>
 1008cfc:	00800044 	movi	r2,1
 1008d00:	8089883a 	add	r4,r16,r2
 1008d04:	240d803a 	cmpltu	r6,r4,r16
 1008d08:	344d883a 	add	r6,r6,r17
 1008d0c:	2021883a 	mov	r16,r4
 1008d10:	3023883a 	mov	r17,r6
 1008d14:	003f9806 	br	1008b78 <__muldf3+0x1c0>
 1008d18:	403fe71e 	bne	r8,zero,1008cb8 <__muldf3+0x300>
 1008d1c:	01004004 	movi	r4,256
 1008d20:	4904703a 	and	r2,r9,r4
 1008d24:	10c4b03a 	or	r2,r2,r3
 1008d28:	103fe31e 	bne	r2,zero,1008cb8 <__muldf3+0x300>
 1008d2c:	94c4b03a 	or	r2,r18,r19
 1008d30:	103fe126 	beq	r2,zero,1008cb8 <__muldf3+0x300>
 1008d34:	49c5883a 	add	r2,r9,r7
 1008d38:	1251803a 	cmpltu	r8,r2,r9
 1008d3c:	4291883a 	add	r8,r8,r10
 1008d40:	013fc004 	movi	r4,-256
 1008d44:	1112703a 	and	r9,r2,r4
 1008d48:	4015883a 	mov	r10,r8
 1008d4c:	003fda06 	br	1008cb8 <__muldf3+0x300>
 1008d50:	6813883a 	mov	r9,r13
 1008d54:	003fce06 	br	1008c90 <__muldf3+0x2d8>
 1008d58:	143f7c36 	bltu	r2,r16,1008b4c <__muldf3+0x194>
 1008d5c:	003fdd06 	br	1008cd4 <__muldf3+0x31c>
 1008d60:	12bf852e 	bgeu	r2,r10,1008b78 <__muldf3+0x1c0>
 1008d64:	003fe506 	br	1008cfc <__muldf3+0x344>
 1008d68:	00800084 	movi	r2,2
 1008d6c:	20bf351e 	bne	r4,r2,1008a44 <__muldf3+0x8c>
 1008d70:	01004074 	movhi	r4,257
 1008d74:	21358d04 	addi	r4,r4,-10700
 1008d78:	003f3f06 	br	1008a78 <__muldf3+0xc0>

01008d7c <__divdf3>:
 1008d7c:	deffed04 	addi	sp,sp,-76
 1008d80:	dcc01115 	stw	r19,68(sp)
 1008d84:	dcc00404 	addi	r19,sp,16
 1008d88:	2011883a 	mov	r8,r4
 1008d8c:	2813883a 	mov	r9,r5
 1008d90:	dc000e15 	stw	r16,56(sp)
 1008d94:	d809883a 	mov	r4,sp
 1008d98:	980b883a 	mov	r5,r19
 1008d9c:	dc000904 	addi	r16,sp,36
 1008da0:	dfc01215 	stw	ra,72(sp)
 1008da4:	da400115 	stw	r9,4(sp)
 1008da8:	d9c00315 	stw	r7,12(sp)
 1008dac:	da000015 	stw	r8,0(sp)
 1008db0:	d9800215 	stw	r6,8(sp)
 1008db4:	dc801015 	stw	r18,64(sp)
 1008db8:	dc400f15 	stw	r17,60(sp)
 1008dbc:	1009c1c0 	call	1009c1c <__unpack_d>
 1008dc0:	d9000204 	addi	r4,sp,8
 1008dc4:	800b883a 	mov	r5,r16
 1008dc8:	1009c1c0 	call	1009c1c <__unpack_d>
 1008dcc:	d9000417 	ldw	r4,16(sp)
 1008dd0:	00800044 	movi	r2,1
 1008dd4:	11000b2e 	bgeu	r2,r4,1008e04 <__divdf3+0x88>
 1008dd8:	d9400917 	ldw	r5,36(sp)
 1008ddc:	1140762e 	bgeu	r2,r5,1008fb8 <__divdf3+0x23c>
 1008de0:	d8800517 	ldw	r2,20(sp)
 1008de4:	d8c00a17 	ldw	r3,40(sp)
 1008de8:	01800104 	movi	r6,4
 1008dec:	10c4f03a 	xor	r2,r2,r3
 1008df0:	d8800515 	stw	r2,20(sp)
 1008df4:	21800226 	beq	r4,r6,1008e00 <__divdf3+0x84>
 1008df8:	00800084 	movi	r2,2
 1008dfc:	2080141e 	bne	r4,r2,1008e50 <__divdf3+0xd4>
 1008e00:	29000926 	beq	r5,r4,1008e28 <__divdf3+0xac>
 1008e04:	9809883a 	mov	r4,r19
 1008e08:	10099080 	call	1009908 <__pack_d>
 1008e0c:	dfc01217 	ldw	ra,72(sp)
 1008e10:	dcc01117 	ldw	r19,68(sp)
 1008e14:	dc801017 	ldw	r18,64(sp)
 1008e18:	dc400f17 	ldw	r17,60(sp)
 1008e1c:	dc000e17 	ldw	r16,56(sp)
 1008e20:	dec01304 	addi	sp,sp,76
 1008e24:	f800283a 	ret
 1008e28:	01004074 	movhi	r4,257
 1008e2c:	21358d04 	addi	r4,r4,-10700
 1008e30:	10099080 	call	1009908 <__pack_d>
 1008e34:	dfc01217 	ldw	ra,72(sp)
 1008e38:	dcc01117 	ldw	r19,68(sp)
 1008e3c:	dc801017 	ldw	r18,64(sp)
 1008e40:	dc400f17 	ldw	r17,60(sp)
 1008e44:	dc000e17 	ldw	r16,56(sp)
 1008e48:	dec01304 	addi	sp,sp,76
 1008e4c:	f800283a 	ret
 1008e50:	29805b26 	beq	r5,r6,1008fc0 <__divdf3+0x244>
 1008e54:	28802d26 	beq	r5,r2,1008f0c <__divdf3+0x190>
 1008e58:	d8c00617 	ldw	r3,24(sp)
 1008e5c:	d8800b17 	ldw	r2,44(sp)
 1008e60:	d9c00817 	ldw	r7,32(sp)
 1008e64:	dc400d17 	ldw	r17,52(sp)
 1008e68:	188bc83a 	sub	r5,r3,r2
 1008e6c:	d9800717 	ldw	r6,28(sp)
 1008e70:	dc000c17 	ldw	r16,48(sp)
 1008e74:	d9400615 	stw	r5,24(sp)
 1008e78:	3c403836 	bltu	r7,r17,1008f5c <__divdf3+0x1e0>
 1008e7c:	89c03626 	beq	r17,r7,1008f58 <__divdf3+0x1dc>
 1008e80:	0015883a 	mov	r10,zero
 1008e84:	001d883a 	mov	r14,zero
 1008e88:	02c40034 	movhi	r11,4096
 1008e8c:	001f883a 	mov	r15,zero
 1008e90:	003f883a 	mov	ra,zero
 1008e94:	04800f44 	movi	r18,61
 1008e98:	00000f06 	br	1008ed8 <__divdf3+0x15c>
 1008e9c:	601d883a 	mov	r14,r12
 1008ea0:	681f883a 	mov	r15,r13
 1008ea4:	400d883a 	mov	r6,r8
 1008ea8:	100f883a 	mov	r7,r2
 1008eac:	3191883a 	add	r8,r6,r6
 1008eb0:	5808d07a 	srli	r4,r11,1
 1008eb4:	4185803a 	cmpltu	r2,r8,r6
 1008eb8:	39d3883a 	add	r9,r7,r7
 1008ebc:	28c6b03a 	or	r3,r5,r3
 1008ec0:	1245883a 	add	r2,r2,r9
 1008ec4:	1815883a 	mov	r10,r3
 1008ec8:	2017883a 	mov	r11,r4
 1008ecc:	400d883a 	mov	r6,r8
 1008ed0:	100f883a 	mov	r7,r2
 1008ed4:	fc801726 	beq	ra,r18,1008f34 <__divdf3+0x1b8>
 1008ed8:	580a97fa 	slli	r5,r11,31
 1008edc:	5006d07a 	srli	r3,r10,1
 1008ee0:	ffc00044 	addi	ra,ra,1
 1008ee4:	3c7ff136 	bltu	r7,r17,1008eac <__divdf3+0x130>
 1008ee8:	3411c83a 	sub	r8,r6,r16
 1008eec:	3205803a 	cmpltu	r2,r6,r8
 1008ef0:	3c53c83a 	sub	r9,r7,r17
 1008ef4:	7298b03a 	or	r12,r14,r10
 1008ef8:	7adab03a 	or	r13,r15,r11
 1008efc:	4885c83a 	sub	r2,r9,r2
 1008f00:	89ffe61e 	bne	r17,r7,1008e9c <__divdf3+0x120>
 1008f04:	343fe936 	bltu	r6,r16,1008eac <__divdf3+0x130>
 1008f08:	003fe406 	br	1008e9c <__divdf3+0x120>
 1008f0c:	9809883a 	mov	r4,r19
 1008f10:	d9800415 	stw	r6,16(sp)
 1008f14:	10099080 	call	1009908 <__pack_d>
 1008f18:	dfc01217 	ldw	ra,72(sp)
 1008f1c:	dcc01117 	ldw	r19,68(sp)
 1008f20:	dc801017 	ldw	r18,64(sp)
 1008f24:	dc400f17 	ldw	r17,60(sp)
 1008f28:	dc000e17 	ldw	r16,56(sp)
 1008f2c:	dec01304 	addi	sp,sp,76
 1008f30:	f800283a 	ret
 1008f34:	00803fc4 	movi	r2,255
 1008f38:	7090703a 	and	r8,r14,r2
 1008f3c:	00802004 	movi	r2,128
 1008f40:	0007883a 	mov	r3,zero
 1008f44:	0013883a 	mov	r9,zero
 1008f48:	40800d26 	beq	r8,r2,1008f80 <__divdf3+0x204>
 1008f4c:	dbc00815 	stw	r15,32(sp)
 1008f50:	db800715 	stw	r14,28(sp)
 1008f54:	003fab06 	br	1008e04 <__divdf3+0x88>
 1008f58:	343fc92e 	bgeu	r6,r16,1008e80 <__divdf3+0x104>
 1008f5c:	3185883a 	add	r2,r6,r6
 1008f60:	1189803a 	cmpltu	r4,r2,r6
 1008f64:	39c7883a 	add	r3,r7,r7
 1008f68:	20c9883a 	add	r4,r4,r3
 1008f6c:	297fffc4 	addi	r5,r5,-1
 1008f70:	100d883a 	mov	r6,r2
 1008f74:	200f883a 	mov	r7,r4
 1008f78:	d9400615 	stw	r5,24(sp)
 1008f7c:	003fc006 	br	1008e80 <__divdf3+0x104>
 1008f80:	483ff21e 	bne	r9,zero,1008f4c <__divdf3+0x1d0>
 1008f84:	01004004 	movi	r4,256
 1008f88:	7104703a 	and	r2,r14,r4
 1008f8c:	10c4b03a 	or	r2,r2,r3
 1008f90:	103fee1e 	bne	r2,zero,1008f4c <__divdf3+0x1d0>
 1008f94:	31c4b03a 	or	r2,r6,r7
 1008f98:	103fec26 	beq	r2,zero,1008f4c <__divdf3+0x1d0>
 1008f9c:	7205883a 	add	r2,r14,r8
 1008fa0:	1391803a 	cmpltu	r8,r2,r14
 1008fa4:	43d1883a 	add	r8,r8,r15
 1008fa8:	013fc004 	movi	r4,-256
 1008fac:	111c703a 	and	r14,r2,r4
 1008fb0:	401f883a 	mov	r15,r8
 1008fb4:	003fe506 	br	1008f4c <__divdf3+0x1d0>
 1008fb8:	8009883a 	mov	r4,r16
 1008fbc:	003f9206 	br	1008e08 <__divdf3+0x8c>
 1008fc0:	9809883a 	mov	r4,r19
 1008fc4:	d8000715 	stw	zero,28(sp)
 1008fc8:	d8000815 	stw	zero,32(sp)
 1008fcc:	d8000615 	stw	zero,24(sp)
 1008fd0:	003f8d06 	br	1008e08 <__divdf3+0x8c>

01008fd4 <__eqdf2>:
 1008fd4:	deffef04 	addi	sp,sp,-68
 1008fd8:	dc400f15 	stw	r17,60(sp)
 1008fdc:	dc400404 	addi	r17,sp,16
 1008fe0:	2005883a 	mov	r2,r4
 1008fe4:	2807883a 	mov	r3,r5
 1008fe8:	dc000e15 	stw	r16,56(sp)
 1008fec:	d809883a 	mov	r4,sp
 1008ff0:	880b883a 	mov	r5,r17
 1008ff4:	dc000904 	addi	r16,sp,36
 1008ff8:	d8c00115 	stw	r3,4(sp)
 1008ffc:	d8800015 	stw	r2,0(sp)
 1009000:	d9800215 	stw	r6,8(sp)
 1009004:	dfc01015 	stw	ra,64(sp)
 1009008:	d9c00315 	stw	r7,12(sp)
 100900c:	1009c1c0 	call	1009c1c <__unpack_d>
 1009010:	d9000204 	addi	r4,sp,8
 1009014:	800b883a 	mov	r5,r16
 1009018:	1009c1c0 	call	1009c1c <__unpack_d>
 100901c:	d8800417 	ldw	r2,16(sp)
 1009020:	00c00044 	movi	r3,1
 1009024:	180d883a 	mov	r6,r3
 1009028:	1880062e 	bgeu	r3,r2,1009044 <__eqdf2+0x70>
 100902c:	d8800917 	ldw	r2,36(sp)
 1009030:	8809883a 	mov	r4,r17
 1009034:	800b883a 	mov	r5,r16
 1009038:	1880022e 	bgeu	r3,r2,1009044 <__eqdf2+0x70>
 100903c:	1009d540 	call	1009d54 <__fpcmp_parts_d>
 1009040:	100d883a 	mov	r6,r2
 1009044:	3005883a 	mov	r2,r6
 1009048:	dfc01017 	ldw	ra,64(sp)
 100904c:	dc400f17 	ldw	r17,60(sp)
 1009050:	dc000e17 	ldw	r16,56(sp)
 1009054:	dec01104 	addi	sp,sp,68
 1009058:	f800283a 	ret

0100905c <__nedf2>:
 100905c:	deffef04 	addi	sp,sp,-68
 1009060:	dc400f15 	stw	r17,60(sp)
 1009064:	dc400404 	addi	r17,sp,16
 1009068:	2005883a 	mov	r2,r4
 100906c:	2807883a 	mov	r3,r5
 1009070:	dc000e15 	stw	r16,56(sp)
 1009074:	d809883a 	mov	r4,sp
 1009078:	880b883a 	mov	r5,r17
 100907c:	dc000904 	addi	r16,sp,36
 1009080:	d8c00115 	stw	r3,4(sp)
 1009084:	d8800015 	stw	r2,0(sp)
 1009088:	d9800215 	stw	r6,8(sp)
 100908c:	dfc01015 	stw	ra,64(sp)
 1009090:	d9c00315 	stw	r7,12(sp)
 1009094:	1009c1c0 	call	1009c1c <__unpack_d>
 1009098:	d9000204 	addi	r4,sp,8
 100909c:	800b883a 	mov	r5,r16
 10090a0:	1009c1c0 	call	1009c1c <__unpack_d>
 10090a4:	d8800417 	ldw	r2,16(sp)
 10090a8:	00c00044 	movi	r3,1
 10090ac:	180d883a 	mov	r6,r3
 10090b0:	1880062e 	bgeu	r3,r2,10090cc <__nedf2+0x70>
 10090b4:	d8800917 	ldw	r2,36(sp)
 10090b8:	8809883a 	mov	r4,r17
 10090bc:	800b883a 	mov	r5,r16
 10090c0:	1880022e 	bgeu	r3,r2,10090cc <__nedf2+0x70>
 10090c4:	1009d540 	call	1009d54 <__fpcmp_parts_d>
 10090c8:	100d883a 	mov	r6,r2
 10090cc:	3005883a 	mov	r2,r6
 10090d0:	dfc01017 	ldw	ra,64(sp)
 10090d4:	dc400f17 	ldw	r17,60(sp)
 10090d8:	dc000e17 	ldw	r16,56(sp)
 10090dc:	dec01104 	addi	sp,sp,68
 10090e0:	f800283a 	ret

010090e4 <__gtdf2>:
 10090e4:	deffef04 	addi	sp,sp,-68
 10090e8:	dc400f15 	stw	r17,60(sp)
 10090ec:	dc400404 	addi	r17,sp,16
 10090f0:	2005883a 	mov	r2,r4
 10090f4:	2807883a 	mov	r3,r5
 10090f8:	dc000e15 	stw	r16,56(sp)
 10090fc:	d809883a 	mov	r4,sp
 1009100:	880b883a 	mov	r5,r17
 1009104:	dc000904 	addi	r16,sp,36
 1009108:	d8c00115 	stw	r3,4(sp)
 100910c:	d8800015 	stw	r2,0(sp)
 1009110:	d9800215 	stw	r6,8(sp)
 1009114:	dfc01015 	stw	ra,64(sp)
 1009118:	d9c00315 	stw	r7,12(sp)
 100911c:	1009c1c0 	call	1009c1c <__unpack_d>
 1009120:	d9000204 	addi	r4,sp,8
 1009124:	800b883a 	mov	r5,r16
 1009128:	1009c1c0 	call	1009c1c <__unpack_d>
 100912c:	d8800417 	ldw	r2,16(sp)
 1009130:	00c00044 	movi	r3,1
 1009134:	01bfffc4 	movi	r6,-1
 1009138:	1880062e 	bgeu	r3,r2,1009154 <__gtdf2+0x70>
 100913c:	d8800917 	ldw	r2,36(sp)
 1009140:	8809883a 	mov	r4,r17
 1009144:	800b883a 	mov	r5,r16
 1009148:	1880022e 	bgeu	r3,r2,1009154 <__gtdf2+0x70>
 100914c:	1009d540 	call	1009d54 <__fpcmp_parts_d>
 1009150:	100d883a 	mov	r6,r2
 1009154:	3005883a 	mov	r2,r6
 1009158:	dfc01017 	ldw	ra,64(sp)
 100915c:	dc400f17 	ldw	r17,60(sp)
 1009160:	dc000e17 	ldw	r16,56(sp)
 1009164:	dec01104 	addi	sp,sp,68
 1009168:	f800283a 	ret

0100916c <__gedf2>:
 100916c:	deffef04 	addi	sp,sp,-68
 1009170:	dc400f15 	stw	r17,60(sp)
 1009174:	dc400404 	addi	r17,sp,16
 1009178:	2005883a 	mov	r2,r4
 100917c:	2807883a 	mov	r3,r5
 1009180:	dc000e15 	stw	r16,56(sp)
 1009184:	d809883a 	mov	r4,sp
 1009188:	880b883a 	mov	r5,r17
 100918c:	dc000904 	addi	r16,sp,36
 1009190:	d8c00115 	stw	r3,4(sp)
 1009194:	d8800015 	stw	r2,0(sp)
 1009198:	d9800215 	stw	r6,8(sp)
 100919c:	dfc01015 	stw	ra,64(sp)
 10091a0:	d9c00315 	stw	r7,12(sp)
 10091a4:	1009c1c0 	call	1009c1c <__unpack_d>
 10091a8:	d9000204 	addi	r4,sp,8
 10091ac:	800b883a 	mov	r5,r16
 10091b0:	1009c1c0 	call	1009c1c <__unpack_d>
 10091b4:	d8800417 	ldw	r2,16(sp)
 10091b8:	00c00044 	movi	r3,1
 10091bc:	01bfffc4 	movi	r6,-1
 10091c0:	1880062e 	bgeu	r3,r2,10091dc <__gedf2+0x70>
 10091c4:	d8800917 	ldw	r2,36(sp)
 10091c8:	8809883a 	mov	r4,r17
 10091cc:	800b883a 	mov	r5,r16
 10091d0:	1880022e 	bgeu	r3,r2,10091dc <__gedf2+0x70>
 10091d4:	1009d540 	call	1009d54 <__fpcmp_parts_d>
 10091d8:	100d883a 	mov	r6,r2
 10091dc:	3005883a 	mov	r2,r6
 10091e0:	dfc01017 	ldw	ra,64(sp)
 10091e4:	dc400f17 	ldw	r17,60(sp)
 10091e8:	dc000e17 	ldw	r16,56(sp)
 10091ec:	dec01104 	addi	sp,sp,68
 10091f0:	f800283a 	ret

010091f4 <__ltdf2>:
 10091f4:	deffef04 	addi	sp,sp,-68
 10091f8:	dc400f15 	stw	r17,60(sp)
 10091fc:	dc400404 	addi	r17,sp,16
 1009200:	2005883a 	mov	r2,r4
 1009204:	2807883a 	mov	r3,r5
 1009208:	dc000e15 	stw	r16,56(sp)
 100920c:	d809883a 	mov	r4,sp
 1009210:	880b883a 	mov	r5,r17
 1009214:	dc000904 	addi	r16,sp,36
 1009218:	d8c00115 	stw	r3,4(sp)
 100921c:	d8800015 	stw	r2,0(sp)
 1009220:	d9800215 	stw	r6,8(sp)
 1009224:	dfc01015 	stw	ra,64(sp)
 1009228:	d9c00315 	stw	r7,12(sp)
 100922c:	1009c1c0 	call	1009c1c <__unpack_d>
 1009230:	d9000204 	addi	r4,sp,8
 1009234:	800b883a 	mov	r5,r16
 1009238:	1009c1c0 	call	1009c1c <__unpack_d>
 100923c:	d8800417 	ldw	r2,16(sp)
 1009240:	00c00044 	movi	r3,1
 1009244:	180d883a 	mov	r6,r3
 1009248:	1880062e 	bgeu	r3,r2,1009264 <__ltdf2+0x70>
 100924c:	d8800917 	ldw	r2,36(sp)
 1009250:	8809883a 	mov	r4,r17
 1009254:	800b883a 	mov	r5,r16
 1009258:	1880022e 	bgeu	r3,r2,1009264 <__ltdf2+0x70>
 100925c:	1009d540 	call	1009d54 <__fpcmp_parts_d>
 1009260:	100d883a 	mov	r6,r2
 1009264:	3005883a 	mov	r2,r6
 1009268:	dfc01017 	ldw	ra,64(sp)
 100926c:	dc400f17 	ldw	r17,60(sp)
 1009270:	dc000e17 	ldw	r16,56(sp)
 1009274:	dec01104 	addi	sp,sp,68
 1009278:	f800283a 	ret

0100927c <__floatsidf>:
 100927c:	2006d7fa 	srli	r3,r4,31
 1009280:	defff604 	addi	sp,sp,-40
 1009284:	008000c4 	movi	r2,3
 1009288:	dfc00915 	stw	ra,36(sp)
 100928c:	dcc00815 	stw	r19,32(sp)
 1009290:	dc800715 	stw	r18,28(sp)
 1009294:	dc400615 	stw	r17,24(sp)
 1009298:	dc000515 	stw	r16,20(sp)
 100929c:	d8800015 	stw	r2,0(sp)
 10092a0:	d8c00115 	stw	r3,4(sp)
 10092a4:	20000f1e 	bne	r4,zero,10092e4 <__floatsidf+0x68>
 10092a8:	00800084 	movi	r2,2
 10092ac:	d8800015 	stw	r2,0(sp)
 10092b0:	d809883a 	mov	r4,sp
 10092b4:	10099080 	call	1009908 <__pack_d>
 10092b8:	1009883a 	mov	r4,r2
 10092bc:	180b883a 	mov	r5,r3
 10092c0:	2005883a 	mov	r2,r4
 10092c4:	2807883a 	mov	r3,r5
 10092c8:	dfc00917 	ldw	ra,36(sp)
 10092cc:	dcc00817 	ldw	r19,32(sp)
 10092d0:	dc800717 	ldw	r18,28(sp)
 10092d4:	dc400617 	ldw	r17,24(sp)
 10092d8:	dc000517 	ldw	r16,20(sp)
 10092dc:	dec00a04 	addi	sp,sp,40
 10092e0:	f800283a 	ret
 10092e4:	00800f04 	movi	r2,60
 10092e8:	1807003a 	cmpeq	r3,r3,zero
 10092ec:	d8800215 	stw	r2,8(sp)
 10092f0:	18001126 	beq	r3,zero,1009338 <__floatsidf+0xbc>
 10092f4:	0027883a 	mov	r19,zero
 10092f8:	2025883a 	mov	r18,r4
 10092fc:	d9000315 	stw	r4,12(sp)
 1009300:	dcc00415 	stw	r19,16(sp)
 1009304:	10098880 	call	1009888 <__clzsi2>
 1009308:	11000744 	addi	r4,r2,29
 100930c:	013fe80e 	bge	zero,r4,10092b0 <__floatsidf+0x34>
 1009310:	10bfff44 	addi	r2,r2,-3
 1009314:	10000c16 	blt	r2,zero,1009348 <__floatsidf+0xcc>
 1009318:	90a2983a 	sll	r17,r18,r2
 100931c:	0021883a 	mov	r16,zero
 1009320:	d8800217 	ldw	r2,8(sp)
 1009324:	dc400415 	stw	r17,16(sp)
 1009328:	dc000315 	stw	r16,12(sp)
 100932c:	1105c83a 	sub	r2,r2,r4
 1009330:	d8800215 	stw	r2,8(sp)
 1009334:	003fde06 	br	10092b0 <__floatsidf+0x34>
 1009338:	00a00034 	movhi	r2,32768
 100933c:	20800a26 	beq	r4,r2,1009368 <__floatsidf+0xec>
 1009340:	0109c83a 	sub	r4,zero,r4
 1009344:	003feb06 	br	10092f4 <__floatsidf+0x78>
 1009348:	9006d07a 	srli	r3,r18,1
 100934c:	008007c4 	movi	r2,31
 1009350:	1105c83a 	sub	r2,r2,r4
 1009354:	1886d83a 	srl	r3,r3,r2
 1009358:	9922983a 	sll	r17,r19,r4
 100935c:	9120983a 	sll	r16,r18,r4
 1009360:	1c62b03a 	or	r17,r3,r17
 1009364:	003fee06 	br	1009320 <__floatsidf+0xa4>
 1009368:	0009883a 	mov	r4,zero
 100936c:	01707834 	movhi	r5,49632
 1009370:	003fd306 	br	10092c0 <__floatsidf+0x44>

01009374 <__fixdfsi>:
 1009374:	defff804 	addi	sp,sp,-32
 1009378:	2005883a 	mov	r2,r4
 100937c:	2807883a 	mov	r3,r5
 1009380:	d809883a 	mov	r4,sp
 1009384:	d9400204 	addi	r5,sp,8
 1009388:	d8c00115 	stw	r3,4(sp)
 100938c:	d8800015 	stw	r2,0(sp)
 1009390:	dfc00715 	stw	ra,28(sp)
 1009394:	1009c1c0 	call	1009c1c <__unpack_d>
 1009398:	d8c00217 	ldw	r3,8(sp)
 100939c:	00800084 	movi	r2,2
 10093a0:	1880051e 	bne	r3,r2,10093b8 <__fixdfsi+0x44>
 10093a4:	0007883a 	mov	r3,zero
 10093a8:	1805883a 	mov	r2,r3
 10093ac:	dfc00717 	ldw	ra,28(sp)
 10093b0:	dec00804 	addi	sp,sp,32
 10093b4:	f800283a 	ret
 10093b8:	00800044 	movi	r2,1
 10093bc:	10fff92e 	bgeu	r2,r3,10093a4 <__fixdfsi+0x30>
 10093c0:	00800104 	movi	r2,4
 10093c4:	18800426 	beq	r3,r2,10093d8 <__fixdfsi+0x64>
 10093c8:	d8c00417 	ldw	r3,16(sp)
 10093cc:	183ff516 	blt	r3,zero,10093a4 <__fixdfsi+0x30>
 10093d0:	00800784 	movi	r2,30
 10093d4:	10c0080e 	bge	r2,r3,10093f8 <__fixdfsi+0x84>
 10093d8:	d8800317 	ldw	r2,12(sp)
 10093dc:	1000121e 	bne	r2,zero,1009428 <__fixdfsi+0xb4>
 10093e0:	00e00034 	movhi	r3,32768
 10093e4:	18ffffc4 	addi	r3,r3,-1
 10093e8:	1805883a 	mov	r2,r3
 10093ec:	dfc00717 	ldw	ra,28(sp)
 10093f0:	dec00804 	addi	sp,sp,32
 10093f4:	f800283a 	ret
 10093f8:	00800f04 	movi	r2,60
 10093fc:	10d1c83a 	sub	r8,r2,r3
 1009400:	40bff804 	addi	r2,r8,-32
 1009404:	d9800517 	ldw	r6,20(sp)
 1009408:	d9c00617 	ldw	r7,24(sp)
 100940c:	10000816 	blt	r2,zero,1009430 <__fixdfsi+0xbc>
 1009410:	3888d83a 	srl	r4,r7,r2
 1009414:	d8800317 	ldw	r2,12(sp)
 1009418:	2007883a 	mov	r3,r4
 100941c:	103fe226 	beq	r2,zero,10093a8 <__fixdfsi+0x34>
 1009420:	0107c83a 	sub	r3,zero,r4
 1009424:	003fe006 	br	10093a8 <__fixdfsi+0x34>
 1009428:	00e00034 	movhi	r3,32768
 100942c:	003fde06 	br	10093a8 <__fixdfsi+0x34>
 1009430:	39c7883a 	add	r3,r7,r7
 1009434:	008007c4 	movi	r2,31
 1009438:	1205c83a 	sub	r2,r2,r8
 100943c:	1886983a 	sll	r3,r3,r2
 1009440:	3208d83a 	srl	r4,r6,r8
 1009444:	1908b03a 	or	r4,r3,r4
 1009448:	003ff206 	br	1009414 <__fixdfsi+0xa0>

0100944c <__floatunsidf>:
 100944c:	defff204 	addi	sp,sp,-56
 1009450:	dfc00d15 	stw	ra,52(sp)
 1009454:	ddc00c15 	stw	r23,48(sp)
 1009458:	dd800b15 	stw	r22,44(sp)
 100945c:	dd400a15 	stw	r21,40(sp)
 1009460:	dd000915 	stw	r20,36(sp)
 1009464:	dcc00815 	stw	r19,32(sp)
 1009468:	dc800715 	stw	r18,28(sp)
 100946c:	dc400615 	stw	r17,24(sp)
 1009470:	dc000515 	stw	r16,20(sp)
 1009474:	d8000115 	stw	zero,4(sp)
 1009478:	20000f1e 	bne	r4,zero,10094b8 <__floatunsidf+0x6c>
 100947c:	00800084 	movi	r2,2
 1009480:	d8800015 	stw	r2,0(sp)
 1009484:	d809883a 	mov	r4,sp
 1009488:	10099080 	call	1009908 <__pack_d>
 100948c:	dfc00d17 	ldw	ra,52(sp)
 1009490:	ddc00c17 	ldw	r23,48(sp)
 1009494:	dd800b17 	ldw	r22,44(sp)
 1009498:	dd400a17 	ldw	r21,40(sp)
 100949c:	dd000917 	ldw	r20,36(sp)
 10094a0:	dcc00817 	ldw	r19,32(sp)
 10094a4:	dc800717 	ldw	r18,28(sp)
 10094a8:	dc400617 	ldw	r17,24(sp)
 10094ac:	dc000517 	ldw	r16,20(sp)
 10094b0:	dec00e04 	addi	sp,sp,56
 10094b4:	f800283a 	ret
 10094b8:	008000c4 	movi	r2,3
 10094bc:	00c00f04 	movi	r3,60
 10094c0:	002f883a 	mov	r23,zero
 10094c4:	202d883a 	mov	r22,r4
 10094c8:	d8800015 	stw	r2,0(sp)
 10094cc:	d8c00215 	stw	r3,8(sp)
 10094d0:	d9000315 	stw	r4,12(sp)
 10094d4:	ddc00415 	stw	r23,16(sp)
 10094d8:	10098880 	call	1009888 <__clzsi2>
 10094dc:	12400744 	addi	r9,r2,29
 10094e0:	48000b16 	blt	r9,zero,1009510 <__floatunsidf+0xc4>
 10094e4:	483fe726 	beq	r9,zero,1009484 <__floatunsidf+0x38>
 10094e8:	10bfff44 	addi	r2,r2,-3
 10094ec:	10002e16 	blt	r2,zero,10095a8 <__floatunsidf+0x15c>
 10094f0:	b0a2983a 	sll	r17,r22,r2
 10094f4:	0021883a 	mov	r16,zero
 10094f8:	d8800217 	ldw	r2,8(sp)
 10094fc:	dc400415 	stw	r17,16(sp)
 1009500:	dc000315 	stw	r16,12(sp)
 1009504:	1245c83a 	sub	r2,r2,r9
 1009508:	d8800215 	stw	r2,8(sp)
 100950c:	003fdd06 	br	1009484 <__floatunsidf+0x38>
 1009510:	0255c83a 	sub	r10,zero,r9
 1009514:	51bff804 	addi	r6,r10,-32
 1009518:	30001b16 	blt	r6,zero,1009588 <__floatunsidf+0x13c>
 100951c:	b9a8d83a 	srl	r20,r23,r6
 1009520:	002b883a 	mov	r21,zero
 1009524:	000f883a 	mov	r7,zero
 1009528:	01000044 	movi	r4,1
 100952c:	0011883a 	mov	r8,zero
 1009530:	30002516 	blt	r6,zero,10095c8 <__floatunsidf+0x17c>
 1009534:	21a6983a 	sll	r19,r4,r6
 1009538:	0025883a 	mov	r18,zero
 100953c:	00bfffc4 	movi	r2,-1
 1009540:	9089883a 	add	r4,r18,r2
 1009544:	988b883a 	add	r5,r19,r2
 1009548:	248d803a 	cmpltu	r6,r4,r18
 100954c:	314b883a 	add	r5,r6,r5
 1009550:	b104703a 	and	r2,r22,r4
 1009554:	b946703a 	and	r3,r23,r5
 1009558:	10c4b03a 	or	r2,r2,r3
 100955c:	10000226 	beq	r2,zero,1009568 <__floatunsidf+0x11c>
 1009560:	01c00044 	movi	r7,1
 1009564:	0011883a 	mov	r8,zero
 1009568:	d9000217 	ldw	r4,8(sp)
 100956c:	a1c4b03a 	or	r2,r20,r7
 1009570:	aa06b03a 	or	r3,r21,r8
 1009574:	2249c83a 	sub	r4,r4,r9
 1009578:	d8c00415 	stw	r3,16(sp)
 100957c:	d9000215 	stw	r4,8(sp)
 1009580:	d8800315 	stw	r2,12(sp)
 1009584:	003fbf06 	br	1009484 <__floatunsidf+0x38>
 1009588:	bdc7883a 	add	r3,r23,r23
 100958c:	008007c4 	movi	r2,31
 1009590:	1285c83a 	sub	r2,r2,r10
 1009594:	1886983a 	sll	r3,r3,r2
 1009598:	b2a8d83a 	srl	r20,r22,r10
 100959c:	baaad83a 	srl	r21,r23,r10
 10095a0:	1d28b03a 	or	r20,r3,r20
 10095a4:	003fdf06 	br	1009524 <__floatunsidf+0xd8>
 10095a8:	b006d07a 	srli	r3,r22,1
 10095ac:	008007c4 	movi	r2,31
 10095b0:	1245c83a 	sub	r2,r2,r9
 10095b4:	1886d83a 	srl	r3,r3,r2
 10095b8:	ba62983a 	sll	r17,r23,r9
 10095bc:	b260983a 	sll	r16,r22,r9
 10095c0:	1c62b03a 	or	r17,r3,r17
 10095c4:	003fcc06 	br	10094f8 <__floatunsidf+0xac>
 10095c8:	2006d07a 	srli	r3,r4,1
 10095cc:	008007c4 	movi	r2,31
 10095d0:	1285c83a 	sub	r2,r2,r10
 10095d4:	18a6d83a 	srl	r19,r3,r2
 10095d8:	22a4983a 	sll	r18,r4,r10
 10095dc:	003fd706 	br	100953c <__floatunsidf+0xf0>

010095e0 <udivmodsi4>:
 10095e0:	29001b2e 	bgeu	r5,r4,1009650 <udivmodsi4+0x70>
 10095e4:	28001a16 	blt	r5,zero,1009650 <udivmodsi4+0x70>
 10095e8:	00800044 	movi	r2,1
 10095ec:	0007883a 	mov	r3,zero
 10095f0:	01c007c4 	movi	r7,31
 10095f4:	00000306 	br	1009604 <udivmodsi4+0x24>
 10095f8:	19c01326 	beq	r3,r7,1009648 <udivmodsi4+0x68>
 10095fc:	18c00044 	addi	r3,r3,1
 1009600:	28000416 	blt	r5,zero,1009614 <udivmodsi4+0x34>
 1009604:	294b883a 	add	r5,r5,r5
 1009608:	1085883a 	add	r2,r2,r2
 100960c:	293ffa36 	bltu	r5,r4,10095f8 <udivmodsi4+0x18>
 1009610:	10000d26 	beq	r2,zero,1009648 <udivmodsi4+0x68>
 1009614:	0007883a 	mov	r3,zero
 1009618:	21400236 	bltu	r4,r5,1009624 <udivmodsi4+0x44>
 100961c:	2149c83a 	sub	r4,r4,r5
 1009620:	1886b03a 	or	r3,r3,r2
 1009624:	1004d07a 	srli	r2,r2,1
 1009628:	280ad07a 	srli	r5,r5,1
 100962c:	103ffa1e 	bne	r2,zero,1009618 <udivmodsi4+0x38>
 1009630:	30000226 	beq	r6,zero,100963c <udivmodsi4+0x5c>
 1009634:	2005883a 	mov	r2,r4
 1009638:	f800283a 	ret
 100963c:	1809883a 	mov	r4,r3
 1009640:	2005883a 	mov	r2,r4
 1009644:	f800283a 	ret
 1009648:	0007883a 	mov	r3,zero
 100964c:	003ff806 	br	1009630 <udivmodsi4+0x50>
 1009650:	00800044 	movi	r2,1
 1009654:	0007883a 	mov	r3,zero
 1009658:	003fef06 	br	1009618 <udivmodsi4+0x38>

0100965c <__divsi3>:
 100965c:	defffe04 	addi	sp,sp,-8
 1009660:	dc000015 	stw	r16,0(sp)
 1009664:	dfc00115 	stw	ra,4(sp)
 1009668:	0021883a 	mov	r16,zero
 100966c:	20000c16 	blt	r4,zero,10096a0 <__divsi3+0x44>
 1009670:	000d883a 	mov	r6,zero
 1009674:	28000e16 	blt	r5,zero,10096b0 <__divsi3+0x54>
 1009678:	10095e00 	call	10095e0 <udivmodsi4>
 100967c:	1007883a 	mov	r3,r2
 1009680:	8005003a 	cmpeq	r2,r16,zero
 1009684:	1000011e 	bne	r2,zero,100968c <__divsi3+0x30>
 1009688:	00c7c83a 	sub	r3,zero,r3
 100968c:	1805883a 	mov	r2,r3
 1009690:	dfc00117 	ldw	ra,4(sp)
 1009694:	dc000017 	ldw	r16,0(sp)
 1009698:	dec00204 	addi	sp,sp,8
 100969c:	f800283a 	ret
 10096a0:	0109c83a 	sub	r4,zero,r4
 10096a4:	04000044 	movi	r16,1
 10096a8:	000d883a 	mov	r6,zero
 10096ac:	283ff20e 	bge	r5,zero,1009678 <__divsi3+0x1c>
 10096b0:	014bc83a 	sub	r5,zero,r5
 10096b4:	8021003a 	cmpeq	r16,r16,zero
 10096b8:	003fef06 	br	1009678 <__divsi3+0x1c>

010096bc <__modsi3>:
 10096bc:	deffff04 	addi	sp,sp,-4
 10096c0:	dfc00015 	stw	ra,0(sp)
 10096c4:	01800044 	movi	r6,1
 10096c8:	2807883a 	mov	r3,r5
 10096cc:	20000416 	blt	r4,zero,10096e0 <__modsi3+0x24>
 10096d0:	28000c16 	blt	r5,zero,1009704 <__modsi3+0x48>
 10096d4:	dfc00017 	ldw	ra,0(sp)
 10096d8:	dec00104 	addi	sp,sp,4
 10096dc:	10095e01 	jmpi	10095e0 <udivmodsi4>
 10096e0:	0109c83a 	sub	r4,zero,r4
 10096e4:	28000b16 	blt	r5,zero,1009714 <__modsi3+0x58>
 10096e8:	180b883a 	mov	r5,r3
 10096ec:	01800044 	movi	r6,1
 10096f0:	10095e00 	call	10095e0 <udivmodsi4>
 10096f4:	0085c83a 	sub	r2,zero,r2
 10096f8:	dfc00017 	ldw	ra,0(sp)
 10096fc:	dec00104 	addi	sp,sp,4
 1009700:	f800283a 	ret
 1009704:	014bc83a 	sub	r5,zero,r5
 1009708:	dfc00017 	ldw	ra,0(sp)
 100970c:	dec00104 	addi	sp,sp,4
 1009710:	10095e01 	jmpi	10095e0 <udivmodsi4>
 1009714:	0147c83a 	sub	r3,zero,r5
 1009718:	003ff306 	br	10096e8 <__modsi3+0x2c>

0100971c <__udivsi3>:
 100971c:	000d883a 	mov	r6,zero
 1009720:	10095e01 	jmpi	10095e0 <udivmodsi4>

01009724 <__umodsi3>:
 1009724:	01800044 	movi	r6,1
 1009728:	10095e01 	jmpi	10095e0 <udivmodsi4>

0100972c <__mulsi3>:
 100972c:	20000a26 	beq	r4,zero,1009758 <__mulsi3+0x2c>
 1009730:	0007883a 	mov	r3,zero
 1009734:	2080004c 	andi	r2,r4,1
 1009738:	1005003a 	cmpeq	r2,r2,zero
 100973c:	2008d07a 	srli	r4,r4,1
 1009740:	1000011e 	bne	r2,zero,1009748 <__mulsi3+0x1c>
 1009744:	1947883a 	add	r3,r3,r5
 1009748:	294b883a 	add	r5,r5,r5
 100974c:	203ff91e 	bne	r4,zero,1009734 <__mulsi3+0x8>
 1009750:	1805883a 	mov	r2,r3
 1009754:	f800283a 	ret
 1009758:	0007883a 	mov	r3,zero
 100975c:	1805883a 	mov	r2,r3
 1009760:	f800283a 	ret

01009764 <__muldi3>:
 1009764:	defff204 	addi	sp,sp,-56
 1009768:	df000c15 	stw	fp,48(sp)
 100976c:	3038d43a 	srli	fp,r6,16
 1009770:	dd000815 	stw	r20,32(sp)
 1009774:	dc400515 	stw	r17,20(sp)
 1009778:	2028d43a 	srli	r20,r4,16
 100977c:	247fffcc 	andi	r17,r4,65535
 1009780:	dc000415 	stw	r16,16(sp)
 1009784:	343fffcc 	andi	r16,r6,65535
 1009788:	dcc00715 	stw	r19,28(sp)
 100978c:	d9000015 	stw	r4,0(sp)
 1009790:	2827883a 	mov	r19,r5
 1009794:	8809883a 	mov	r4,r17
 1009798:	d9400115 	stw	r5,4(sp)
 100979c:	800b883a 	mov	r5,r16
 10097a0:	d9800215 	stw	r6,8(sp)
 10097a4:	dfc00d15 	stw	ra,52(sp)
 10097a8:	d9c00315 	stw	r7,12(sp)
 10097ac:	dd800a15 	stw	r22,40(sp)
 10097b0:	dd400915 	stw	r21,36(sp)
 10097b4:	302d883a 	mov	r22,r6
 10097b8:	ddc00b15 	stw	r23,44(sp)
 10097bc:	dc800615 	stw	r18,24(sp)
 10097c0:	100972c0 	call	100972c <__mulsi3>
 10097c4:	8809883a 	mov	r4,r17
 10097c8:	e00b883a 	mov	r5,fp
 10097cc:	102b883a 	mov	r21,r2
 10097d0:	100972c0 	call	100972c <__mulsi3>
 10097d4:	800b883a 	mov	r5,r16
 10097d8:	a009883a 	mov	r4,r20
 10097dc:	1023883a 	mov	r17,r2
 10097e0:	100972c0 	call	100972c <__mulsi3>
 10097e4:	a009883a 	mov	r4,r20
 10097e8:	e00b883a 	mov	r5,fp
 10097ec:	1021883a 	mov	r16,r2
 10097f0:	100972c0 	call	100972c <__mulsi3>
 10097f4:	a8ffffcc 	andi	r3,r21,65535
 10097f8:	a82ad43a 	srli	r21,r21,16
 10097fc:	8c23883a 	add	r17,r17,r16
 1009800:	1011883a 	mov	r8,r2
 1009804:	ac6b883a 	add	r21,r21,r17
 1009808:	a804943a 	slli	r2,r21,16
 100980c:	b009883a 	mov	r4,r22
 1009810:	980b883a 	mov	r5,r19
 1009814:	10c7883a 	add	r3,r2,r3
 1009818:	a812d43a 	srli	r9,r21,16
 100981c:	180d883a 	mov	r6,r3
 1009820:	ac00022e 	bgeu	r21,r16,100982c <__muldi3+0xc8>
 1009824:	00800074 	movhi	r2,1
 1009828:	4091883a 	add	r8,r8,r2
 100982c:	4267883a 	add	r19,r8,r9
 1009830:	302d883a 	mov	r22,r6
 1009834:	100972c0 	call	100972c <__mulsi3>
 1009838:	d9400317 	ldw	r5,12(sp)
 100983c:	d9000017 	ldw	r4,0(sp)
 1009840:	1023883a 	mov	r17,r2
 1009844:	100972c0 	call	100972c <__mulsi3>
 1009848:	14cb883a 	add	r5,r2,r19
 100984c:	894b883a 	add	r5,r17,r5
 1009850:	b005883a 	mov	r2,r22
 1009854:	2807883a 	mov	r3,r5
 1009858:	dfc00d17 	ldw	ra,52(sp)
 100985c:	df000c17 	ldw	fp,48(sp)
 1009860:	ddc00b17 	ldw	r23,44(sp)
 1009864:	dd800a17 	ldw	r22,40(sp)
 1009868:	dd400917 	ldw	r21,36(sp)
 100986c:	dd000817 	ldw	r20,32(sp)
 1009870:	dcc00717 	ldw	r19,28(sp)
 1009874:	dc800617 	ldw	r18,24(sp)
 1009878:	dc400517 	ldw	r17,20(sp)
 100987c:	dc000417 	ldw	r16,16(sp)
 1009880:	dec00e04 	addi	sp,sp,56
 1009884:	f800283a 	ret

01009888 <__clzsi2>:
 1009888:	00bfffd4 	movui	r2,65535
 100988c:	11000e36 	bltu	r2,r4,10098c8 <__clzsi2+0x40>
 1009890:	00803fc4 	movi	r2,255
 1009894:	01400204 	movi	r5,8
 1009898:	0007883a 	mov	r3,zero
 100989c:	11001036 	bltu	r2,r4,10098e0 <__clzsi2+0x58>
 10098a0:	000b883a 	mov	r5,zero
 10098a4:	20c6d83a 	srl	r3,r4,r3
 10098a8:	00804074 	movhi	r2,257
 10098ac:	10b59204 	addi	r2,r2,-10680
 10098b0:	1887883a 	add	r3,r3,r2
 10098b4:	18800003 	ldbu	r2,0(r3)
 10098b8:	00c00804 	movi	r3,32
 10098bc:	2885883a 	add	r2,r5,r2
 10098c0:	1885c83a 	sub	r2,r3,r2
 10098c4:	f800283a 	ret
 10098c8:	01400404 	movi	r5,16
 10098cc:	00804034 	movhi	r2,256
 10098d0:	10bfffc4 	addi	r2,r2,-1
 10098d4:	2807883a 	mov	r3,r5
 10098d8:	113ff22e 	bgeu	r2,r4,10098a4 <__clzsi2+0x1c>
 10098dc:	01400604 	movi	r5,24
 10098e0:	2807883a 	mov	r3,r5
 10098e4:	20c6d83a 	srl	r3,r4,r3
 10098e8:	00804074 	movhi	r2,257
 10098ec:	10b59204 	addi	r2,r2,-10680
 10098f0:	1887883a 	add	r3,r3,r2
 10098f4:	18800003 	ldbu	r2,0(r3)
 10098f8:	00c00804 	movi	r3,32
 10098fc:	2885883a 	add	r2,r5,r2
 1009900:	1885c83a 	sub	r2,r3,r2
 1009904:	f800283a 	ret

01009908 <__pack_d>:
 1009908:	20c00017 	ldw	r3,0(r4)
 100990c:	defffd04 	addi	sp,sp,-12
 1009910:	dc000015 	stw	r16,0(sp)
 1009914:	dc800215 	stw	r18,8(sp)
 1009918:	dc400115 	stw	r17,4(sp)
 100991c:	00800044 	movi	r2,1
 1009920:	22000317 	ldw	r8,12(r4)
 1009924:	001f883a 	mov	r15,zero
 1009928:	22400417 	ldw	r9,16(r4)
 100992c:	24000117 	ldw	r16,4(r4)
 1009930:	10c0552e 	bgeu	r2,r3,1009a88 <__pack_d+0x180>
 1009934:	00800104 	movi	r2,4
 1009938:	18804f26 	beq	r3,r2,1009a78 <__pack_d+0x170>
 100993c:	00800084 	movi	r2,2
 1009940:	18800226 	beq	r3,r2,100994c <__pack_d+0x44>
 1009944:	4244b03a 	or	r2,r8,r9
 1009948:	10001a1e 	bne	r2,zero,10099b4 <__pack_d+0xac>
 100994c:	000d883a 	mov	r6,zero
 1009950:	000f883a 	mov	r7,zero
 1009954:	0011883a 	mov	r8,zero
 1009958:	00800434 	movhi	r2,16
 100995c:	10bfffc4 	addi	r2,r2,-1
 1009960:	301d883a 	mov	r14,r6
 1009964:	3884703a 	and	r2,r7,r2
 1009968:	400a953a 	slli	r5,r8,20
 100996c:	79bffc2c 	andhi	r6,r15,65520
 1009970:	308cb03a 	or	r6,r6,r2
 1009974:	00e00434 	movhi	r3,32784
 1009978:	18ffffc4 	addi	r3,r3,-1
 100997c:	800497fa 	slli	r2,r16,31
 1009980:	30c6703a 	and	r3,r6,r3
 1009984:	1946b03a 	or	r3,r3,r5
 1009988:	01600034 	movhi	r5,32768
 100998c:	297fffc4 	addi	r5,r5,-1
 1009990:	194a703a 	and	r5,r3,r5
 1009994:	288ab03a 	or	r5,r5,r2
 1009998:	2807883a 	mov	r3,r5
 100999c:	7005883a 	mov	r2,r14
 10099a0:	dc800217 	ldw	r18,8(sp)
 10099a4:	dc400117 	ldw	r17,4(sp)
 10099a8:	dc000017 	ldw	r16,0(sp)
 10099ac:	dec00304 	addi	sp,sp,12
 10099b0:	f800283a 	ret
 10099b4:	21000217 	ldw	r4,8(r4)
 10099b8:	00bf0084 	movi	r2,-1022
 10099bc:	20803f16 	blt	r4,r2,1009abc <__pack_d+0x1b4>
 10099c0:	0080ffc4 	movi	r2,1023
 10099c4:	11002c16 	blt	r2,r4,1009a78 <__pack_d+0x170>
 10099c8:	00803fc4 	movi	r2,255
 10099cc:	408c703a 	and	r6,r8,r2
 10099d0:	00802004 	movi	r2,128
 10099d4:	0007883a 	mov	r3,zero
 10099d8:	000f883a 	mov	r7,zero
 10099dc:	2280ffc4 	addi	r10,r4,1023
 10099e0:	30801e26 	beq	r6,r2,1009a5c <__pack_d+0x154>
 10099e4:	00801fc4 	movi	r2,127
 10099e8:	4089883a 	add	r4,r8,r2
 10099ec:	220d803a 	cmpltu	r6,r4,r8
 10099f0:	324d883a 	add	r6,r6,r9
 10099f4:	2011883a 	mov	r8,r4
 10099f8:	3013883a 	mov	r9,r6
 10099fc:	00880034 	movhi	r2,8192
 1009a00:	10bfffc4 	addi	r2,r2,-1
 1009a04:	12400d36 	bltu	r2,r9,1009a3c <__pack_d+0x134>
 1009a08:	4804963a 	slli	r2,r9,24
 1009a0c:	400cd23a 	srli	r6,r8,8
 1009a10:	480ed23a 	srli	r7,r9,8
 1009a14:	013fffc4 	movi	r4,-1
 1009a18:	118cb03a 	or	r6,r2,r6
 1009a1c:	01400434 	movhi	r5,16
 1009a20:	297fffc4 	addi	r5,r5,-1
 1009a24:	3104703a 	and	r2,r6,r4
 1009a28:	3946703a 	and	r3,r7,r5
 1009a2c:	5201ffcc 	andi	r8,r10,2047
 1009a30:	100d883a 	mov	r6,r2
 1009a34:	180f883a 	mov	r7,r3
 1009a38:	003fc706 	br	1009958 <__pack_d+0x50>
 1009a3c:	480897fa 	slli	r4,r9,31
 1009a40:	4004d07a 	srli	r2,r8,1
 1009a44:	4806d07a 	srli	r3,r9,1
 1009a48:	52800044 	addi	r10,r10,1
 1009a4c:	2084b03a 	or	r2,r4,r2
 1009a50:	1011883a 	mov	r8,r2
 1009a54:	1813883a 	mov	r9,r3
 1009a58:	003feb06 	br	1009a08 <__pack_d+0x100>
 1009a5c:	383fe11e 	bne	r7,zero,10099e4 <__pack_d+0xdc>
 1009a60:	01004004 	movi	r4,256
 1009a64:	4104703a 	and	r2,r8,r4
 1009a68:	10c4b03a 	or	r2,r2,r3
 1009a6c:	103fe326 	beq	r2,zero,10099fc <__pack_d+0xf4>
 1009a70:	3005883a 	mov	r2,r6
 1009a74:	003fdc06 	br	10099e8 <__pack_d+0xe0>
 1009a78:	000d883a 	mov	r6,zero
 1009a7c:	000f883a 	mov	r7,zero
 1009a80:	0201ffc4 	movi	r8,2047
 1009a84:	003fb406 	br	1009958 <__pack_d+0x50>
 1009a88:	0005883a 	mov	r2,zero
 1009a8c:	00c00234 	movhi	r3,8
 1009a90:	408cb03a 	or	r6,r8,r2
 1009a94:	48ceb03a 	or	r7,r9,r3
 1009a98:	013fffc4 	movi	r4,-1
 1009a9c:	01400434 	movhi	r5,16
 1009aa0:	297fffc4 	addi	r5,r5,-1
 1009aa4:	3104703a 	and	r2,r6,r4
 1009aa8:	3946703a 	and	r3,r7,r5
 1009aac:	100d883a 	mov	r6,r2
 1009ab0:	180f883a 	mov	r7,r3
 1009ab4:	0201ffc4 	movi	r8,2047
 1009ab8:	003fa706 	br	1009958 <__pack_d+0x50>
 1009abc:	1109c83a 	sub	r4,r2,r4
 1009ac0:	00800e04 	movi	r2,56
 1009ac4:	11004316 	blt	r2,r4,1009bd4 <__pack_d+0x2cc>
 1009ac8:	21fff804 	addi	r7,r4,-32
 1009acc:	38004516 	blt	r7,zero,1009be4 <__pack_d+0x2dc>
 1009ad0:	49d8d83a 	srl	r12,r9,r7
 1009ad4:	001b883a 	mov	r13,zero
 1009ad8:	0023883a 	mov	r17,zero
 1009adc:	01400044 	movi	r5,1
 1009ae0:	0025883a 	mov	r18,zero
 1009ae4:	38004716 	blt	r7,zero,1009c04 <__pack_d+0x2fc>
 1009ae8:	29d6983a 	sll	r11,r5,r7
 1009aec:	0015883a 	mov	r10,zero
 1009af0:	00bfffc4 	movi	r2,-1
 1009af4:	5089883a 	add	r4,r10,r2
 1009af8:	588b883a 	add	r5,r11,r2
 1009afc:	228d803a 	cmpltu	r6,r4,r10
 1009b00:	314b883a 	add	r5,r6,r5
 1009b04:	4104703a 	and	r2,r8,r4
 1009b08:	4946703a 	and	r3,r9,r5
 1009b0c:	10c4b03a 	or	r2,r2,r3
 1009b10:	10000226 	beq	r2,zero,1009b1c <__pack_d+0x214>
 1009b14:	04400044 	movi	r17,1
 1009b18:	0025883a 	mov	r18,zero
 1009b1c:	00803fc4 	movi	r2,255
 1009b20:	644eb03a 	or	r7,r12,r17
 1009b24:	3892703a 	and	r9,r7,r2
 1009b28:	00802004 	movi	r2,128
 1009b2c:	6c90b03a 	or	r8,r13,r18
 1009b30:	0015883a 	mov	r10,zero
 1009b34:	48801626 	beq	r9,r2,1009b90 <__pack_d+0x288>
 1009b38:	01001fc4 	movi	r4,127
 1009b3c:	3905883a 	add	r2,r7,r4
 1009b40:	11cd803a 	cmpltu	r6,r2,r7
 1009b44:	320d883a 	add	r6,r6,r8
 1009b48:	100f883a 	mov	r7,r2
 1009b4c:	00840034 	movhi	r2,4096
 1009b50:	10bfffc4 	addi	r2,r2,-1
 1009b54:	3011883a 	mov	r8,r6
 1009b58:	0007883a 	mov	r3,zero
 1009b5c:	11801b36 	bltu	r2,r6,1009bcc <__pack_d+0x2c4>
 1009b60:	4004963a 	slli	r2,r8,24
 1009b64:	3808d23a 	srli	r4,r7,8
 1009b68:	400ad23a 	srli	r5,r8,8
 1009b6c:	1813883a 	mov	r9,r3
 1009b70:	1108b03a 	or	r4,r2,r4
 1009b74:	00bfffc4 	movi	r2,-1
 1009b78:	00c00434 	movhi	r3,16
 1009b7c:	18ffffc4 	addi	r3,r3,-1
 1009b80:	208c703a 	and	r6,r4,r2
 1009b84:	28ce703a 	and	r7,r5,r3
 1009b88:	4a01ffcc 	andi	r8,r9,2047
 1009b8c:	003f7206 	br	1009958 <__pack_d+0x50>
 1009b90:	503fe91e 	bne	r10,zero,1009b38 <__pack_d+0x230>
 1009b94:	01004004 	movi	r4,256
 1009b98:	3904703a 	and	r2,r7,r4
 1009b9c:	0007883a 	mov	r3,zero
 1009ba0:	10c4b03a 	or	r2,r2,r3
 1009ba4:	10000626 	beq	r2,zero,1009bc0 <__pack_d+0x2b8>
 1009ba8:	3a45883a 	add	r2,r7,r9
 1009bac:	11cd803a 	cmpltu	r6,r2,r7
 1009bb0:	320d883a 	add	r6,r6,r8
 1009bb4:	100f883a 	mov	r7,r2
 1009bb8:	3011883a 	mov	r8,r6
 1009bbc:	0007883a 	mov	r3,zero
 1009bc0:	00840034 	movhi	r2,4096
 1009bc4:	10bfffc4 	addi	r2,r2,-1
 1009bc8:	123fe52e 	bgeu	r2,r8,1009b60 <__pack_d+0x258>
 1009bcc:	00c00044 	movi	r3,1
 1009bd0:	003fe306 	br	1009b60 <__pack_d+0x258>
 1009bd4:	0009883a 	mov	r4,zero
 1009bd8:	0013883a 	mov	r9,zero
 1009bdc:	000b883a 	mov	r5,zero
 1009be0:	003fe406 	br	1009b74 <__pack_d+0x26c>
 1009be4:	4a47883a 	add	r3,r9,r9
 1009be8:	008007c4 	movi	r2,31
 1009bec:	1105c83a 	sub	r2,r2,r4
 1009bf0:	1886983a 	sll	r3,r3,r2
 1009bf4:	4118d83a 	srl	r12,r8,r4
 1009bf8:	491ad83a 	srl	r13,r9,r4
 1009bfc:	1b18b03a 	or	r12,r3,r12
 1009c00:	003fb506 	br	1009ad8 <__pack_d+0x1d0>
 1009c04:	2806d07a 	srli	r3,r5,1
 1009c08:	008007c4 	movi	r2,31
 1009c0c:	1105c83a 	sub	r2,r2,r4
 1009c10:	1896d83a 	srl	r11,r3,r2
 1009c14:	2914983a 	sll	r10,r5,r4
 1009c18:	003fb506 	br	1009af0 <__pack_d+0x1e8>

01009c1c <__unpack_d>:
 1009c1c:	20c00117 	ldw	r3,4(r4)
 1009c20:	22400017 	ldw	r9,0(r4)
 1009c24:	00800434 	movhi	r2,16
 1009c28:	10bfffc4 	addi	r2,r2,-1
 1009c2c:	1808d53a 	srli	r4,r3,20
 1009c30:	180cd7fa 	srli	r6,r3,31
 1009c34:	1894703a 	and	r10,r3,r2
 1009c38:	2201ffcc 	andi	r8,r4,2047
 1009c3c:	281b883a 	mov	r13,r5
 1009c40:	4817883a 	mov	r11,r9
 1009c44:	29800115 	stw	r6,4(r5)
 1009c48:	5019883a 	mov	r12,r10
 1009c4c:	40001e1e 	bne	r8,zero,1009cc8 <__unpack_d+0xac>
 1009c50:	4a84b03a 	or	r2,r9,r10
 1009c54:	10001926 	beq	r2,zero,1009cbc <__unpack_d+0xa0>
 1009c58:	4804d63a 	srli	r2,r9,24
 1009c5c:	500c923a 	slli	r6,r10,8
 1009c60:	013f0084 	movi	r4,-1022
 1009c64:	00c40034 	movhi	r3,4096
 1009c68:	18ffffc4 	addi	r3,r3,-1
 1009c6c:	118cb03a 	or	r6,r2,r6
 1009c70:	008000c4 	movi	r2,3
 1009c74:	480a923a 	slli	r5,r9,8
 1009c78:	68800015 	stw	r2,0(r13)
 1009c7c:	69000215 	stw	r4,8(r13)
 1009c80:	19800b36 	bltu	r3,r6,1009cb0 <__unpack_d+0x94>
 1009c84:	200f883a 	mov	r7,r4
 1009c88:	1811883a 	mov	r8,r3
 1009c8c:	2945883a 	add	r2,r5,r5
 1009c90:	1149803a 	cmpltu	r4,r2,r5
 1009c94:	3187883a 	add	r3,r6,r6
 1009c98:	20c9883a 	add	r4,r4,r3
 1009c9c:	100b883a 	mov	r5,r2
 1009ca0:	200d883a 	mov	r6,r4
 1009ca4:	39ffffc4 	addi	r7,r7,-1
 1009ca8:	413ff82e 	bgeu	r8,r4,1009c8c <__unpack_d+0x70>
 1009cac:	69c00215 	stw	r7,8(r13)
 1009cb0:	69800415 	stw	r6,16(r13)
 1009cb4:	69400315 	stw	r5,12(r13)
 1009cb8:	f800283a 	ret
 1009cbc:	00800084 	movi	r2,2
 1009cc0:	28800015 	stw	r2,0(r5)
 1009cc4:	f800283a 	ret
 1009cc8:	0081ffc4 	movi	r2,2047
 1009ccc:	40800f26 	beq	r8,r2,1009d0c <__unpack_d+0xf0>
 1009cd0:	480cd63a 	srli	r6,r9,24
 1009cd4:	5006923a 	slli	r3,r10,8
 1009cd8:	4804923a 	slli	r2,r9,8
 1009cdc:	0009883a 	mov	r4,zero
 1009ce0:	30c6b03a 	or	r3,r6,r3
 1009ce4:	01440034 	movhi	r5,4096
 1009ce8:	110cb03a 	or	r6,r2,r4
 1009cec:	423f0044 	addi	r8,r8,-1023
 1009cf0:	194eb03a 	or	r7,r3,r5
 1009cf4:	008000c4 	movi	r2,3
 1009cf8:	69c00415 	stw	r7,16(r13)
 1009cfc:	6a000215 	stw	r8,8(r13)
 1009d00:	68800015 	stw	r2,0(r13)
 1009d04:	69800315 	stw	r6,12(r13)
 1009d08:	f800283a 	ret
 1009d0c:	4a84b03a 	or	r2,r9,r10
 1009d10:	1000031e 	bne	r2,zero,1009d20 <__unpack_d+0x104>
 1009d14:	00800104 	movi	r2,4
 1009d18:	28800015 	stw	r2,0(r5)
 1009d1c:	f800283a 	ret
 1009d20:	0009883a 	mov	r4,zero
 1009d24:	01400234 	movhi	r5,8
 1009d28:	4904703a 	and	r2,r9,r4
 1009d2c:	5146703a 	and	r3,r10,r5
 1009d30:	10c4b03a 	or	r2,r2,r3
 1009d34:	10000526 	beq	r2,zero,1009d4c <__unpack_d+0x130>
 1009d38:	00800044 	movi	r2,1
 1009d3c:	68800015 	stw	r2,0(r13)
 1009d40:	6b000415 	stw	r12,16(r13)
 1009d44:	6ac00315 	stw	r11,12(r13)
 1009d48:	f800283a 	ret
 1009d4c:	68000015 	stw	zero,0(r13)
 1009d50:	003ffb06 	br	1009d40 <__unpack_d+0x124>

01009d54 <__fpcmp_parts_d>:
 1009d54:	21800017 	ldw	r6,0(r4)
 1009d58:	00c00044 	movi	r3,1
 1009d5c:	19800a2e 	bgeu	r3,r6,1009d88 <__fpcmp_parts_d+0x34>
 1009d60:	28800017 	ldw	r2,0(r5)
 1009d64:	1880082e 	bgeu	r3,r2,1009d88 <__fpcmp_parts_d+0x34>
 1009d68:	00c00104 	movi	r3,4
 1009d6c:	30c02626 	beq	r6,r3,1009e08 <__fpcmp_parts_d+0xb4>
 1009d70:	10c02226 	beq	r2,r3,1009dfc <__fpcmp_parts_d+0xa8>
 1009d74:	00c00084 	movi	r3,2
 1009d78:	30c00526 	beq	r6,r3,1009d90 <__fpcmp_parts_d+0x3c>
 1009d7c:	10c0071e 	bne	r2,r3,1009d9c <__fpcmp_parts_d+0x48>
 1009d80:	20800117 	ldw	r2,4(r4)
 1009d84:	1000091e 	bne	r2,zero,1009dac <__fpcmp_parts_d+0x58>
 1009d88:	00800044 	movi	r2,1
 1009d8c:	f800283a 	ret
 1009d90:	10c01a1e 	bne	r2,r3,1009dfc <__fpcmp_parts_d+0xa8>
 1009d94:	0005883a 	mov	r2,zero
 1009d98:	f800283a 	ret
 1009d9c:	22000117 	ldw	r8,4(r4)
 1009da0:	28800117 	ldw	r2,4(r5)
 1009da4:	40800326 	beq	r8,r2,1009db4 <__fpcmp_parts_d+0x60>
 1009da8:	403ff726 	beq	r8,zero,1009d88 <__fpcmp_parts_d+0x34>
 1009dac:	00bfffc4 	movi	r2,-1
 1009db0:	f800283a 	ret
 1009db4:	20c00217 	ldw	r3,8(r4)
 1009db8:	28800217 	ldw	r2,8(r5)
 1009dbc:	10fffa16 	blt	r2,r3,1009da8 <__fpcmp_parts_d+0x54>
 1009dc0:	18800916 	blt	r3,r2,1009de8 <__fpcmp_parts_d+0x94>
 1009dc4:	21c00417 	ldw	r7,16(r4)
 1009dc8:	28c00417 	ldw	r3,16(r5)
 1009dcc:	21800317 	ldw	r6,12(r4)
 1009dd0:	28800317 	ldw	r2,12(r5)
 1009dd4:	19fff436 	bltu	r3,r7,1009da8 <__fpcmp_parts_d+0x54>
 1009dd8:	38c00526 	beq	r7,r3,1009df0 <__fpcmp_parts_d+0x9c>
 1009ddc:	38c00236 	bltu	r7,r3,1009de8 <__fpcmp_parts_d+0x94>
 1009de0:	19ffec1e 	bne	r3,r7,1009d94 <__fpcmp_parts_d+0x40>
 1009de4:	30bfeb2e 	bgeu	r6,r2,1009d94 <__fpcmp_parts_d+0x40>
 1009de8:	403fe71e 	bne	r8,zero,1009d88 <__fpcmp_parts_d+0x34>
 1009dec:	003fef06 	br	1009dac <__fpcmp_parts_d+0x58>
 1009df0:	11bffa2e 	bgeu	r2,r6,1009ddc <__fpcmp_parts_d+0x88>
 1009df4:	403fe426 	beq	r8,zero,1009d88 <__fpcmp_parts_d+0x34>
 1009df8:	003fec06 	br	1009dac <__fpcmp_parts_d+0x58>
 1009dfc:	28800117 	ldw	r2,4(r5)
 1009e00:	103fe11e 	bne	r2,zero,1009d88 <__fpcmp_parts_d+0x34>
 1009e04:	003fe906 	br	1009dac <__fpcmp_parts_d+0x58>
 1009e08:	11bfdd1e 	bne	r2,r6,1009d80 <__fpcmp_parts_d+0x2c>
 1009e0c:	28c00117 	ldw	r3,4(r5)
 1009e10:	20800117 	ldw	r2,4(r4)
 1009e14:	1885c83a 	sub	r2,r3,r2
 1009e18:	f800283a 	ret

01009e1c <close>:
 *
 * ALT_CLOSE is mapped onto the close() system call in alt_syscall.h
 */
 
int ALT_CLOSE (int fildes)
{
 1009e1c:	defff804 	addi	sp,sp,-32
 1009e20:	dfc00715 	stw	ra,28(sp)
 1009e24:	df000615 	stw	fp,24(sp)
 1009e28:	df000604 	addi	fp,sp,24
 1009e2c:	e13ffc15 	stw	r4,-16(fp)
   * A common error case is that when the file descriptor was created, the call
   * to open() failed resulting in a negative file descriptor. This is trapped
   * below so that we don't try and process an invalid file descriptor.
   */

  fd = (fildes < 0) ? NULL : &alt_fd_list[fildes];
 1009e30:	e0bffc17 	ldw	r2,-16(fp)
 1009e34:	1004803a 	cmplt	r2,r2,zero
 1009e38:	1000091e 	bne	r2,zero,1009e60 <close+0x44>
 1009e3c:	e13ffc17 	ldw	r4,-16(fp)
 1009e40:	01400304 	movi	r5,12
 1009e44:	100972c0 	call	100972c <__mulsi3>
 1009e48:	1007883a 	mov	r3,r2
 1009e4c:	00804074 	movhi	r2,257
 1009e50:	10b7fa04 	addi	r2,r2,-8216
 1009e54:	1887883a 	add	r3,r3,r2
 1009e58:	e0ffff15 	stw	r3,-4(fp)
 1009e5c:	00000106 	br	1009e64 <close+0x48>
 1009e60:	e03fff15 	stw	zero,-4(fp)
 1009e64:	e0bfff17 	ldw	r2,-4(fp)
 1009e68:	e0bffb15 	stw	r2,-20(fp)

  if (fd)
 1009e6c:	e0bffb17 	ldw	r2,-20(fp)
 1009e70:	1005003a 	cmpeq	r2,r2,zero
 1009e74:	10001d1e 	bne	r2,zero,1009eec <close+0xd0>
    /*
     * If the associated file system/device has a close function, call it so 
     * that any necessary cleanup code can run.
     */

    rval = (fd->dev->close) ? fd->dev->close(fd) : 0;
 1009e78:	e0bffb17 	ldw	r2,-20(fp)
 1009e7c:	10800017 	ldw	r2,0(r2)
 1009e80:	10800417 	ldw	r2,16(r2)
 1009e84:	1005003a 	cmpeq	r2,r2,zero
 1009e88:	1000071e 	bne	r2,zero,1009ea8 <close+0x8c>
 1009e8c:	e0bffb17 	ldw	r2,-20(fp)
 1009e90:	10800017 	ldw	r2,0(r2)
 1009e94:	10800417 	ldw	r2,16(r2)
 1009e98:	e13ffb17 	ldw	r4,-20(fp)
 1009e9c:	103ee83a 	callr	r2
 1009ea0:	e0bffe15 	stw	r2,-8(fp)
 1009ea4:	00000106 	br	1009eac <close+0x90>
 1009ea8:	e03ffe15 	stw	zero,-8(fp)
 1009eac:	e0bffe17 	ldw	r2,-8(fp)
 1009eb0:	e0bffa15 	stw	r2,-24(fp)

    /* Free the file descriptor structure and return. */

    alt_release_fd (fildes);
 1009eb4:	e13ffc17 	ldw	r4,-16(fp)
 1009eb8:	100a90c0 	call	100a90c <alt_release_fd>
    if (rval < 0)
 1009ebc:	e0bffa17 	ldw	r2,-24(fp)
 1009ec0:	1004403a 	cmpge	r2,r2,zero
 1009ec4:	1000071e 	bne	r2,zero,1009ee4 <close+0xc8>
    {
      ALT_ERRNO = -rval;
 1009ec8:	1009f1c0 	call	1009f1c <alt_get_errno>
 1009ecc:	e0fffa17 	ldw	r3,-24(fp)
 1009ed0:	00c7c83a 	sub	r3,zero,r3
 1009ed4:	10c00015 	stw	r3,0(r2)
      return -1;
 1009ed8:	00bfffc4 	movi	r2,-1
 1009edc:	e0bffd15 	stw	r2,-12(fp)
 1009ee0:	00000806 	br	1009f04 <close+0xe8>
    }
    return 0;
 1009ee4:	e03ffd15 	stw	zero,-12(fp)
 1009ee8:	00000606 	br	1009f04 <close+0xe8>
  }
  else
  {
    ALT_ERRNO = EBADFD;
 1009eec:	1009f1c0 	call	1009f1c <alt_get_errno>
 1009ef0:	1007883a 	mov	r3,r2
 1009ef4:	00801444 	movi	r2,81
 1009ef8:	18800015 	stw	r2,0(r3)
    return -1;
 1009efc:	00bfffc4 	movi	r2,-1
 1009f00:	e0bffd15 	stw	r2,-12(fp)
 1009f04:	e0bffd17 	ldw	r2,-12(fp)
  }
}
 1009f08:	e037883a 	mov	sp,fp
 1009f0c:	dfc00117 	ldw	ra,4(sp)
 1009f10:	df000017 	ldw	fp,0(sp)
 1009f14:	dec00204 	addi	sp,sp,8
 1009f18:	f800283a 	ret

01009f1c <alt_get_errno>:
#undef errno

extern int errno;

static ALT_INLINE int* alt_get_errno(void)
{
 1009f1c:	defffd04 	addi	sp,sp,-12
 1009f20:	dfc00215 	stw	ra,8(sp)
 1009f24:	df000115 	stw	fp,4(sp)
 1009f28:	df000104 	addi	fp,sp,4
  return ((alt_errno) ? alt_errno() : &errno);
 1009f2c:	00804074 	movhi	r2,257
 1009f30:	10bc9304 	addi	r2,r2,-3508
 1009f34:	10800017 	ldw	r2,0(r2)
 1009f38:	1005003a 	cmpeq	r2,r2,zero
 1009f3c:	1000061e 	bne	r2,zero,1009f58 <alt_get_errno+0x3c>
 1009f40:	00804074 	movhi	r2,257
 1009f44:	10bc9304 	addi	r2,r2,-3508
 1009f48:	10800017 	ldw	r2,0(r2)
 1009f4c:	103ee83a 	callr	r2
 1009f50:	e0bfff15 	stw	r2,-4(fp)
 1009f54:	00000306 	br	1009f64 <alt_get_errno+0x48>
 1009f58:	00804074 	movhi	r2,257
 1009f5c:	10834b04 	addi	r2,r2,3372
 1009f60:	e0bfff15 	stw	r2,-4(fp)
 1009f64:	e0bfff17 	ldw	r2,-4(fp)
}
 1009f68:	e037883a 	mov	sp,fp
 1009f6c:	dfc00117 	ldw	ra,4(sp)
 1009f70:	df000017 	ldw	fp,0(sp)
 1009f74:	dec00204 	addi	sp,sp,8
 1009f78:	f800283a 	ret

01009f7c <alt_dev_null_write>:
 * by the alt_dev_null device. It simple discards all data passed to it, and
 * indicates that the data has been successfully transmitted.
 */

static int alt_dev_null_write (alt_fd* fd, const char* ptr, int len)
{
 1009f7c:	defffc04 	addi	sp,sp,-16
 1009f80:	df000315 	stw	fp,12(sp)
 1009f84:	df000304 	addi	fp,sp,12
 1009f88:	e13ffd15 	stw	r4,-12(fp)
 1009f8c:	e17ffe15 	stw	r5,-8(fp)
 1009f90:	e1bfff15 	stw	r6,-4(fp)
  return len;
 1009f94:	e0bfff17 	ldw	r2,-4(fp)
}
 1009f98:	e037883a 	mov	sp,fp
 1009f9c:	df000017 	ldw	fp,0(sp)
 1009fa0:	dec00104 	addi	sp,sp,4
 1009fa4:	f800283a 	ret

01009fa8 <fstat>:
}

#else /* !ALT_USE_DIRECT_DRIVERS */

int ALT_FSTAT (int file, struct stat *st)
{
 1009fa8:	defff904 	addi	sp,sp,-28
 1009fac:	dfc00615 	stw	ra,24(sp)
 1009fb0:	df000515 	stw	fp,20(sp)
 1009fb4:	df000504 	addi	fp,sp,20
 1009fb8:	e13ffc15 	stw	r4,-16(fp)
 1009fbc:	e17ffd15 	stw	r5,-12(fp)
   * A common error case is that when the file descriptor was created, the call
   * to open() failed resulting in a negative file descriptor. This is trapped
   * below so that we don't try and process an invalid file descriptor.
   */

  fd = (file < 0) ? NULL : &alt_fd_list[file];
 1009fc0:	e0bffc17 	ldw	r2,-16(fp)
 1009fc4:	1004803a 	cmplt	r2,r2,zero
 1009fc8:	1000091e 	bne	r2,zero,1009ff0 <fstat+0x48>
 1009fcc:	e13ffc17 	ldw	r4,-16(fp)
 1009fd0:	01400304 	movi	r5,12
 1009fd4:	100972c0 	call	100972c <__mulsi3>
 1009fd8:	1007883a 	mov	r3,r2
 1009fdc:	00804074 	movhi	r2,257
 1009fe0:	10b7fa04 	addi	r2,r2,-8216
 1009fe4:	1887883a 	add	r3,r3,r2
 1009fe8:	e0ffff15 	stw	r3,-4(fp)
 1009fec:	00000106 	br	1009ff4 <fstat+0x4c>
 1009ff0:	e03fff15 	stw	zero,-4(fp)
 1009ff4:	e0bfff17 	ldw	r2,-4(fp)
 1009ff8:	e0bffb15 	stw	r2,-20(fp)
  
  if (fd)
 1009ffc:	e0bffb17 	ldw	r2,-20(fp)
 100a000:	1005003a 	cmpeq	r2,r2,zero
 100a004:	1000121e 	bne	r2,zero,100a050 <fstat+0xa8>
  {
    /* Call the drivers fstat() function to fill out the "st" structure. */

    if (fd->dev->fstat)
 100a008:	e0bffb17 	ldw	r2,-20(fp)
 100a00c:	10800017 	ldw	r2,0(r2)
 100a010:	10800817 	ldw	r2,32(r2)
 100a014:	1005003a 	cmpeq	r2,r2,zero
 100a018:	1000081e 	bne	r2,zero,100a03c <fstat+0x94>
    {
      return fd->dev->fstat(fd, st);
 100a01c:	e0bffb17 	ldw	r2,-20(fp)
 100a020:	10800017 	ldw	r2,0(r2)
 100a024:	10800817 	ldw	r2,32(r2)
 100a028:	e13ffb17 	ldw	r4,-20(fp)
 100a02c:	e17ffd17 	ldw	r5,-12(fp)
 100a030:	103ee83a 	callr	r2
 100a034:	e0bffe15 	stw	r2,-8(fp)
 100a038:	00000b06 	br	100a068 <fstat+0xc0>
     * device.
     */
 
    else
    {
      st->st_mode = _IFCHR;
 100a03c:	e0fffd17 	ldw	r3,-12(fp)
 100a040:	00880004 	movi	r2,8192
 100a044:	18800115 	stw	r2,4(r3)
      return 0;
 100a048:	e03ffe15 	stw	zero,-8(fp)
 100a04c:	00000606 	br	100a068 <fstat+0xc0>
    }
  }
  else
  {
    ALT_ERRNO = EBADFD;
 100a050:	100a0800 	call	100a080 <alt_get_errno>
 100a054:	1007883a 	mov	r3,r2
 100a058:	00801444 	movi	r2,81
 100a05c:	18800015 	stw	r2,0(r3)
    return -1;
 100a060:	00bfffc4 	movi	r2,-1
 100a064:	e0bffe15 	stw	r2,-8(fp)
 100a068:	e0bffe17 	ldw	r2,-8(fp)
  }
}
 100a06c:	e037883a 	mov	sp,fp
 100a070:	dfc00117 	ldw	ra,4(sp)
 100a074:	df000017 	ldw	fp,0(sp)
 100a078:	dec00204 	addi	sp,sp,8
 100a07c:	f800283a 	ret

0100a080 <alt_get_errno>:
#undef errno

extern int errno;

static ALT_INLINE int* alt_get_errno(void)
{
 100a080:	defffd04 	addi	sp,sp,-12
 100a084:	dfc00215 	stw	ra,8(sp)
 100a088:	df000115 	stw	fp,4(sp)
 100a08c:	df000104 	addi	fp,sp,4
  return ((alt_errno) ? alt_errno() : &errno);
 100a090:	00804074 	movhi	r2,257
 100a094:	10bc9304 	addi	r2,r2,-3508
 100a098:	10800017 	ldw	r2,0(r2)
 100a09c:	1005003a 	cmpeq	r2,r2,zero
 100a0a0:	1000061e 	bne	r2,zero,100a0bc <alt_get_errno+0x3c>
 100a0a4:	00804074 	movhi	r2,257
 100a0a8:	10bc9304 	addi	r2,r2,-3508
 100a0ac:	10800017 	ldw	r2,0(r2)
 100a0b0:	103ee83a 	callr	r2
 100a0b4:	e0bfff15 	stw	r2,-4(fp)
 100a0b8:	00000306 	br	100a0c8 <alt_get_errno+0x48>
 100a0bc:	00804074 	movhi	r2,257
 100a0c0:	10834b04 	addi	r2,r2,3372
 100a0c4:	e0bfff15 	stw	r2,-4(fp)
 100a0c8:	e0bfff17 	ldw	r2,-4(fp)
}
 100a0cc:	e037883a 	mov	sp,fp
 100a0d0:	dfc00117 	ldw	ra,4(sp)
 100a0d4:	df000017 	ldw	fp,0(sp)
 100a0d8:	dec00204 	addi	sp,sp,8
 100a0dc:	f800283a 	ret

0100a0e0 <isatty>:
 *
 * ALT_ISATTY is mapped onto the isatty() system call in alt_syscall.h
 */
 
int ALT_ISATTY (int file)
{
 100a0e0:	deffeb04 	addi	sp,sp,-84
 100a0e4:	dfc01415 	stw	ra,80(sp)
 100a0e8:	df001315 	stw	fp,76(sp)
 100a0ec:	df001304 	addi	fp,sp,76
 100a0f0:	e13ffd15 	stw	r4,-12(fp)
   * A common error case is that when the file descriptor was created, the call
   * to open() failed resulting in a negative file descriptor. This is trapped
   * below so that we don't try and process an invalid file descriptor.
   */

  fd = (file < 0) ? NULL : &alt_fd_list[file];
 100a0f4:	e0bffd17 	ldw	r2,-12(fp)
 100a0f8:	1004803a 	cmplt	r2,r2,zero
 100a0fc:	1000091e 	bne	r2,zero,100a124 <isatty+0x44>
 100a100:	e13ffd17 	ldw	r4,-12(fp)
 100a104:	01400304 	movi	r5,12
 100a108:	100972c0 	call	100972c <__mulsi3>
 100a10c:	1007883a 	mov	r3,r2
 100a110:	00804074 	movhi	r2,257
 100a114:	10b7fa04 	addi	r2,r2,-8216
 100a118:	1887883a 	add	r3,r3,r2
 100a11c:	e0ffff15 	stw	r3,-4(fp)
 100a120:	00000106 	br	100a128 <isatty+0x48>
 100a124:	e03fff15 	stw	zero,-4(fp)
 100a128:	e0bfff17 	ldw	r2,-4(fp)
 100a12c:	e0bfed15 	stw	r2,-76(fp)
  
  if (fd)
 100a130:	e0bfed17 	ldw	r2,-76(fp)
 100a134:	1005003a 	cmpeq	r2,r2,zero
 100a138:	10000f1e 	bne	r2,zero,100a178 <isatty+0x98>
    /*
     * If a device driver does not provide an fstat() function, then it is 
     * treated as a terminal device by default.
     */

    if (!fd->dev->fstat)
 100a13c:	e0bfed17 	ldw	r2,-76(fp)
 100a140:	10800017 	ldw	r2,0(r2)
 100a144:	10800817 	ldw	r2,32(r2)
 100a148:	1004c03a 	cmpne	r2,r2,zero
 100a14c:	1000031e 	bne	r2,zero,100a15c <isatty+0x7c>
    {
      return 1;
 100a150:	00800044 	movi	r2,1
 100a154:	e0bffe15 	stw	r2,-8(fp)
 100a158:	00000c06 	br	100a18c <isatty+0xac>
     * this is called so that the device can identify itself.
     */ 

    else
    {
      fstat (file, &stat);
 100a15c:	e17fee04 	addi	r5,fp,-72
 100a160:	e13ffd17 	ldw	r4,-12(fp)
 100a164:	1009fa80 	call	1009fa8 <fstat>
      return (stat.st_mode == _IFCHR) ? 1 : 0;
 100a168:	e0bfef17 	ldw	r2,-68(fp)
 100a16c:	10880020 	cmpeqi	r2,r2,8192
 100a170:	e0bffe15 	stw	r2,-8(fp)
 100a174:	00000506 	br	100a18c <isatty+0xac>
    }
  }
  else
  {
    ALT_ERRNO = EBADFD;
 100a178:	100a1a40 	call	100a1a4 <alt_get_errno>
 100a17c:	1007883a 	mov	r3,r2
 100a180:	00801444 	movi	r2,81
 100a184:	18800015 	stw	r2,0(r3)
    return 0;
 100a188:	e03ffe15 	stw	zero,-8(fp)
 100a18c:	e0bffe17 	ldw	r2,-8(fp)
  }
}
 100a190:	e037883a 	mov	sp,fp
 100a194:	dfc00117 	ldw	ra,4(sp)
 100a198:	df000017 	ldw	fp,0(sp)
 100a19c:	dec00204 	addi	sp,sp,8
 100a1a0:	f800283a 	ret

0100a1a4 <alt_get_errno>:
#undef errno

extern int errno;

static ALT_INLINE int* alt_get_errno(void)
{
 100a1a4:	defffd04 	addi	sp,sp,-12
 100a1a8:	dfc00215 	stw	ra,8(sp)
 100a1ac:	df000115 	stw	fp,4(sp)
 100a1b0:	df000104 	addi	fp,sp,4
  return ((alt_errno) ? alt_errno() : &errno);
 100a1b4:	00804074 	movhi	r2,257
 100a1b8:	10bc9304 	addi	r2,r2,-3508
 100a1bc:	10800017 	ldw	r2,0(r2)
 100a1c0:	1005003a 	cmpeq	r2,r2,zero
 100a1c4:	1000061e 	bne	r2,zero,100a1e0 <alt_get_errno+0x3c>
 100a1c8:	00804074 	movhi	r2,257
 100a1cc:	10bc9304 	addi	r2,r2,-3508
 100a1d0:	10800017 	ldw	r2,0(r2)
 100a1d4:	103ee83a 	callr	r2
 100a1d8:	e0bfff15 	stw	r2,-4(fp)
 100a1dc:	00000306 	br	100a1ec <alt_get_errno+0x48>
 100a1e0:	00804074 	movhi	r2,257
 100a1e4:	10834b04 	addi	r2,r2,3372
 100a1e8:	e0bfff15 	stw	r2,-4(fp)
 100a1ec:	e0bfff17 	ldw	r2,-4(fp)
}
 100a1f0:	e037883a 	mov	sp,fp
 100a1f4:	dfc00117 	ldw	ra,4(sp)
 100a1f8:	df000017 	ldw	fp,0(sp)
 100a1fc:	dec00204 	addi	sp,sp,8
 100a200:	f800283a 	ret

0100a204 <alt_load>:
 * there is no bootloader, so this application is responsible for loading to
 * RAM any sections that are required.
 */  

void alt_load (void)
{
 100a204:	defffe04 	addi	sp,sp,-8
 100a208:	dfc00115 	stw	ra,4(sp)
 100a20c:	df000015 	stw	fp,0(sp)
 100a210:	d839883a 	mov	fp,sp
  /* 
   * Copy the .rwdata section. 
   */

  alt_load_section (&__flash_rwdata_start, 
 100a214:	01004074 	movhi	r4,257
 100a218:	213c9804 	addi	r4,r4,-3488
 100a21c:	01404074 	movhi	r5,257
 100a220:	2975eb04 	addi	r5,r5,-10324
 100a224:	01804074 	movhi	r6,257
 100a228:	31bc9804 	addi	r6,r6,-3488
 100a22c:	100a2840 	call	100a284 <alt_load_section>

  /*
   * Copy the exception handler.
   */

  alt_load_section (&__flash_exceptions_start, 
 100a230:	01004034 	movhi	r4,256
 100a234:	21000804 	addi	r4,r4,32
 100a238:	01404034 	movhi	r5,256
 100a23c:	29400804 	addi	r5,r5,32
 100a240:	01804034 	movhi	r6,256
 100a244:	31806d04 	addi	r6,r6,436
 100a248:	100a2840 	call	100a284 <alt_load_section>

  /*
   * Copy the .rodata section.
   */

  alt_load_section (&__flash_rodata_start, 
 100a24c:	01004074 	movhi	r4,257
 100a250:	2134aa04 	addi	r4,r4,-11608
 100a254:	01404074 	movhi	r5,257
 100a258:	2974aa04 	addi	r5,r5,-11608
 100a25c:	01804074 	movhi	r6,257
 100a260:	31b5eb04 	addi	r6,r6,-10324
 100a264:	100a2840 	call	100a284 <alt_load_section>
  
  /*
   * Now ensure that the caches are in synch.
   */
  
  alt_dcache_flush_all();
 100a268:	100be080 	call	100be08 <alt_dcache_flush_all>
  alt_icache_flush_all();
 100a26c:	100c0940 	call	100c094 <alt_icache_flush_all>
}
 100a270:	e037883a 	mov	sp,fp
 100a274:	dfc00117 	ldw	ra,4(sp)
 100a278:	df000017 	ldw	fp,0(sp)
 100a27c:	dec00204 	addi	sp,sp,8
 100a280:	f800283a 	ret

0100a284 <alt_load_section>:
 */

static void ALT_INLINE alt_load_section (alt_u32* from, 
                                         alt_u32* to, 
                                         alt_u32* end)
{
 100a284:	defffc04 	addi	sp,sp,-16
 100a288:	df000315 	stw	fp,12(sp)
 100a28c:	df000304 	addi	fp,sp,12
 100a290:	e13ffd15 	stw	r4,-12(fp)
 100a294:	e17ffe15 	stw	r5,-8(fp)
 100a298:	e1bfff15 	stw	r6,-4(fp)
  if (to != from)
 100a29c:	e0fffe17 	ldw	r3,-8(fp)
 100a2a0:	e0bffd17 	ldw	r2,-12(fp)
 100a2a4:	18800e26 	beq	r3,r2,100a2e0 <alt_load_section+0x5c>
  {
    while( to != end )
 100a2a8:	00000a06 	br	100a2d4 <alt_load_section+0x50>
    {
      *to++ = *from++;
 100a2ac:	e0bffd17 	ldw	r2,-12(fp)
 100a2b0:	10c00017 	ldw	r3,0(r2)
 100a2b4:	e0bffe17 	ldw	r2,-8(fp)
 100a2b8:	10c00015 	stw	r3,0(r2)
 100a2bc:	e0bffe17 	ldw	r2,-8(fp)
 100a2c0:	10800104 	addi	r2,r2,4
 100a2c4:	e0bffe15 	stw	r2,-8(fp)
 100a2c8:	e0bffd17 	ldw	r2,-12(fp)
 100a2cc:	10800104 	addi	r2,r2,4
 100a2d0:	e0bffd15 	stw	r2,-12(fp)
                                         alt_u32* to, 
                                         alt_u32* end)
{
  if (to != from)
  {
    while( to != end )
 100a2d4:	e0fffe17 	ldw	r3,-8(fp)
 100a2d8:	e0bfff17 	ldw	r2,-4(fp)
 100a2dc:	18bff31e 	bne	r3,r2,100a2ac <alt_load_section+0x28>
    {
      *to++ = *from++;
    }
  }
}
 100a2e0:	e037883a 	mov	sp,fp
 100a2e4:	df000017 	ldw	fp,0(sp)
 100a2e8:	dec00104 	addi	sp,sp,4
 100a2ec:	f800283a 	ret

0100a2f0 <lseek>:
 * ALT_LSEEK is mapped onto the lseek() system call in alt_syscall.h
 *
 */

off_t ALT_LSEEK (int file, off_t ptr, int dir)
{
 100a2f0:	defff804 	addi	sp,sp,-32
 100a2f4:	dfc00715 	stw	ra,28(sp)
 100a2f8:	df000615 	stw	fp,24(sp)
 100a2fc:	df000604 	addi	fp,sp,24
 100a300:	e13ffc15 	stw	r4,-16(fp)
 100a304:	e17ffd15 	stw	r5,-12(fp)
 100a308:	e1bffe15 	stw	r6,-8(fp)
  alt_fd* fd;
  off_t   rc = 0; 
 100a30c:	e03ffa15 	stw	zero,-24(fp)
   * A common error case is that when the file descriptor was created, the call
   * to open() failed resulting in a negative file descriptor. This is trapped
   * below so that we don't try and process an invalid file descriptor.
   */

  fd = (file < 0) ? NULL : &alt_fd_list[file];
 100a310:	e0bffc17 	ldw	r2,-16(fp)
 100a314:	1004803a 	cmplt	r2,r2,zero
 100a318:	1000091e 	bne	r2,zero,100a340 <lseek+0x50>
 100a31c:	e13ffc17 	ldw	r4,-16(fp)
 100a320:	01400304 	movi	r5,12
 100a324:	100972c0 	call	100972c <__mulsi3>
 100a328:	1007883a 	mov	r3,r2
 100a32c:	00804074 	movhi	r2,257
 100a330:	10b7fa04 	addi	r2,r2,-8216
 100a334:	1887883a 	add	r3,r3,r2
 100a338:	e0ffff15 	stw	r3,-4(fp)
 100a33c:	00000106 	br	100a344 <lseek+0x54>
 100a340:	e03fff15 	stw	zero,-4(fp)
 100a344:	e0bfff17 	ldw	r2,-4(fp)
 100a348:	e0bffb15 	stw	r2,-20(fp)
  
  if (fd) 
 100a34c:	e0bffb17 	ldw	r2,-20(fp)
 100a350:	1005003a 	cmpeq	r2,r2,zero
 100a354:	1000111e 	bne	r2,zero,100a39c <lseek+0xac>
    /*
     * If the device driver provides an implementation of the lseek() function,
     * then call that to process the request.
     */
 
    if (fd->dev->lseek)
 100a358:	e0bffb17 	ldw	r2,-20(fp)
 100a35c:	10800017 	ldw	r2,0(r2)
 100a360:	10800717 	ldw	r2,28(r2)
 100a364:	1005003a 	cmpeq	r2,r2,zero
 100a368:	1000091e 	bne	r2,zero,100a390 <lseek+0xa0>
    {
      rc = fd->dev->lseek(fd, ptr, dir);
 100a36c:	e0bffb17 	ldw	r2,-20(fp)
 100a370:	10800017 	ldw	r2,0(r2)
 100a374:	10800717 	ldw	r2,28(r2)
 100a378:	e13ffb17 	ldw	r4,-20(fp)
 100a37c:	e17ffd17 	ldw	r5,-12(fp)
 100a380:	e1bffe17 	ldw	r6,-8(fp)
 100a384:	103ee83a 	callr	r2
 100a388:	e0bffa15 	stw	r2,-24(fp)
 100a38c:	00000506 	br	100a3a4 <lseek+0xb4>
     * Otherwise return an error.
     */

    else
    {
      rc = -ENOTSUP;
 100a390:	00bfde84 	movi	r2,-134
 100a394:	e0bffa15 	stw	r2,-24(fp)
 100a398:	00000206 	br	100a3a4 <lseek+0xb4>
    }
  }
  else  
  {
    rc = -EBADFD;
 100a39c:	00bfebc4 	movi	r2,-81
 100a3a0:	e0bffa15 	stw	r2,-24(fp)
  }

  if (rc < 0)
 100a3a4:	e0bffa17 	ldw	r2,-24(fp)
 100a3a8:	1004403a 	cmpge	r2,r2,zero
 100a3ac:	1000071e 	bne	r2,zero,100a3cc <lseek+0xdc>
  {
    ALT_ERRNO = -rc;
 100a3b0:	100a3e40 	call	100a3e4 <alt_get_errno>
 100a3b4:	1007883a 	mov	r3,r2
 100a3b8:	e0bffa17 	ldw	r2,-24(fp)
 100a3bc:	0085c83a 	sub	r2,zero,r2
 100a3c0:	18800015 	stw	r2,0(r3)
    rc = -1;
 100a3c4:	00bfffc4 	movi	r2,-1
 100a3c8:	e0bffa15 	stw	r2,-24(fp)
  }

  return rc;
 100a3cc:	e0bffa17 	ldw	r2,-24(fp)
}
 100a3d0:	e037883a 	mov	sp,fp
 100a3d4:	dfc00117 	ldw	ra,4(sp)
 100a3d8:	df000017 	ldw	fp,0(sp)
 100a3dc:	dec00204 	addi	sp,sp,8
 100a3e0:	f800283a 	ret

0100a3e4 <alt_get_errno>:
#undef errno

extern int errno;

static ALT_INLINE int* alt_get_errno(void)
{
 100a3e4:	defffd04 	addi	sp,sp,-12
 100a3e8:	dfc00215 	stw	ra,8(sp)
 100a3ec:	df000115 	stw	fp,4(sp)
 100a3f0:	df000104 	addi	fp,sp,4
  return ((alt_errno) ? alt_errno() : &errno);
 100a3f4:	00804074 	movhi	r2,257
 100a3f8:	10bc9304 	addi	r2,r2,-3508
 100a3fc:	10800017 	ldw	r2,0(r2)
 100a400:	1005003a 	cmpeq	r2,r2,zero
 100a404:	1000061e 	bne	r2,zero,100a420 <alt_get_errno+0x3c>
 100a408:	00804074 	movhi	r2,257
 100a40c:	10bc9304 	addi	r2,r2,-3508
 100a410:	10800017 	ldw	r2,0(r2)
 100a414:	103ee83a 	callr	r2
 100a418:	e0bfff15 	stw	r2,-4(fp)
 100a41c:	00000306 	br	100a42c <alt_get_errno+0x48>
 100a420:	00804074 	movhi	r2,257
 100a424:	10834b04 	addi	r2,r2,3372
 100a428:	e0bfff15 	stw	r2,-4(fp)
 100a42c:	e0bfff17 	ldw	r2,-4(fp)
}
 100a430:	e037883a 	mov	sp,fp
 100a434:	dfc00117 	ldw	ra,4(sp)
 100a438:	df000017 	ldw	fp,0(sp)
 100a43c:	dec00204 	addi	sp,sp,8
 100a440:	f800283a 	ret

0100a444 <alt_main>:
 * devices/filesystems/components in the system; and call the entry point for
 * the users application, i.e. main().
 */

void alt_main (void)
{
 100a444:	defffd04 	addi	sp,sp,-12
 100a448:	dfc00215 	stw	ra,8(sp)
 100a44c:	df000115 	stw	fp,4(sp)
 100a450:	df000104 	addi	fp,sp,4
#endif

  /* ALT LOG - please see HAL/sys/alt_log_printf.h for details */
  ALT_LOG_PRINT_BOOT("[alt_main.c] Entering alt_main, calling alt_irq_init.\r\n");
  /* Initialize the interrupt controller. */
  alt_irq_init (NULL);
 100a454:	0009883a 	mov	r4,zero
 100a458:	100abc40 	call	100abc4 <alt_irq_init>
  ALT_LOG_PRINT_BOOT("[alt_main.c] Done OS Init, calling alt_sem_create.\r\n");
  ALT_SEM_CREATE (&alt_fd_list_lock, 1);

  /* Initialize the device drivers/software components. */
  ALT_LOG_PRINT_BOOT("[alt_main.c] Calling alt_sys_init.\r\n");
  alt_sys_init();
 100a45c:	100abf80 	call	100abf8 <alt_sys_init>
   * devices be present (not equal to /dev/null) and if direct drivers
   * aren't being used.
   */

    ALT_LOG_PRINT_BOOT("[alt_main.c] Redirecting IO.\r\n");
    alt_io_redirect(ALT_STDOUT, ALT_STDIN, ALT_STDERR);
 100a460:	01004074 	movhi	r4,257
 100a464:	2135d504 	addi	r4,r4,-10412
 100a468:	01404074 	movhi	r5,257
 100a46c:	2975d504 	addi	r5,r5,-10412
 100a470:	01804074 	movhi	r6,257
 100a474:	31b5d504 	addi	r6,r6,-10412
 100a478:	100c4540 	call	100c454 <alt_io_redirect>
  /* 
   * Call the C++ constructors 
   */

  ALT_LOG_PRINT_BOOT("[alt_main.c] Calling C++ constructors.\r\n");
  _do_ctors ();
 100a47c:	100bf380 	call	100bf38 <_do_ctors>
   * redefined as _exit()). This is in the interest of reducing code footprint,
   * in that the atexit() overhead is removed when it's not needed.
   */

  ALT_LOG_PRINT_BOOT("[alt_main.c] Calling atexit.\r\n");
  atexit (_do_dtors);
 100a480:	01004074 	movhi	r4,257
 100a484:	212fe704 	addi	r4,r4,-16484
 100a488:	100cb640 	call	100cb64 <atexit>
  ALT_LOG_PRINT_BOOT("[alt_main.c] Calling main.\r\n");

#ifdef ALT_NO_EXIT
  main (alt_argc, alt_argv, alt_envp);
#else
  result = main (alt_argc, alt_argv, alt_envp);
 100a48c:	d126c417 	ldw	r4,-25840(gp)
 100a490:	d166c517 	ldw	r5,-25836(gp)
 100a494:	d1a6c617 	ldw	r6,-25832(gp)
 100a498:	10001f00 	call	10001f0 <main>
 100a49c:	e0bfff15 	stw	r2,-4(fp)
  close(STDOUT_FILENO);
 100a4a0:	01000044 	movi	r4,1
 100a4a4:	1009e1c0 	call	1009e1c <close>
  exit (result);
 100a4a8:	e13fff17 	ldw	r4,-4(fp)
 100a4ac:	100cb780 	call	100cb78 <exit>

0100a4b0 <__malloc_lock>:
 * configuration is single threaded, so there is nothing to do here. Note that 
 * this requires that malloc is never called by an interrupt service routine.
 */

void __malloc_lock ( struct _reent *_r )
{
 100a4b0:	defffe04 	addi	sp,sp,-8
 100a4b4:	df000115 	stw	fp,4(sp)
 100a4b8:	df000104 	addi	fp,sp,4
 100a4bc:	e13fff15 	stw	r4,-4(fp)
}
 100a4c0:	e037883a 	mov	sp,fp
 100a4c4:	df000017 	ldw	fp,0(sp)
 100a4c8:	dec00104 	addi	sp,sp,4
 100a4cc:	f800283a 	ret

0100a4d0 <__malloc_unlock>:
/*
 *
 */

void __malloc_unlock ( struct _reent *_r )
{
 100a4d0:	defffe04 	addi	sp,sp,-8
 100a4d4:	df000115 	stw	fp,4(sp)
 100a4d8:	df000104 	addi	fp,sp,4
 100a4dc:	e13fff15 	stw	r4,-4(fp)
}
 100a4e0:	e037883a 	mov	sp,fp
 100a4e4:	df000017 	ldw	fp,0(sp)
 100a4e8:	dec00104 	addi	sp,sp,4
 100a4ec:	f800283a 	ret

0100a4f0 <alt_printf>:
/* 
 * ALT printf function 
 */
void 
alt_printf(const char* fmt, ... )
{
 100a4f0:	defff204 	addi	sp,sp,-56
 100a4f4:	dfc00a15 	stw	ra,40(sp)
 100a4f8:	df000915 	stw	fp,36(sp)
 100a4fc:	df000904 	addi	fp,sp,36
 100a500:	e1400215 	stw	r5,8(fp)
 100a504:	e1800315 	stw	r6,12(fp)
 100a508:	e1c00415 	stw	r7,16(fp)
 100a50c:	e13fff15 	stw	r4,-4(fp)
	va_list args;
	va_start(args, fmt);
 100a510:	e0800204 	addi	r2,fp,8
 100a514:	e0bffe15 	stw	r2,-8(fp)
    const char *w;
    char c;

    /* Process format string. */
    w = fmt;
 100a518:	e0bfff17 	ldw	r2,-4(fp)
 100a51c:	e0bffd15 	stw	r2,-12(fp)
    while ((c = *w++) != 0)
 100a520:	00007806 	br	100a704 <alt_printf+0x214>
    {
        /* If not a format escape character, just print  */
        /* character.  Otherwise, process format string. */
        if (c != '%')
 100a524:	e0bffc07 	ldb	r2,-16(fp)
 100a528:	10800960 	cmpeqi	r2,r2,37
 100a52c:	1000031e 	bne	r2,zero,100a53c <alt_printf+0x4c>
        {
            alt_putchar(c);
 100a530:	e13ffc07 	ldb	r4,-16(fp)
 100a534:	100a7480 	call	100a748 <alt_putchar>
 100a538:	00007206 	br	100a704 <alt_printf+0x214>
        }
        else
        {
            /* Get format character.  If none     */
            /* available, processing is complete. */
            if ((c = *w++) != 0)
 100a53c:	e0bffd17 	ldw	r2,-12(fp)
 100a540:	10800003 	ldbu	r2,0(r2)
 100a544:	e0bffc05 	stb	r2,-16(fp)
 100a548:	e0bffc07 	ldb	r2,-16(fp)
 100a54c:	1004c03a 	cmpne	r2,r2,zero
 100a550:	1007883a 	mov	r3,r2
 100a554:	e0bffd17 	ldw	r2,-12(fp)
 100a558:	10800044 	addi	r2,r2,1
 100a55c:	e0bffd15 	stw	r2,-12(fp)
 100a560:	18803fcc 	andi	r2,r3,255
 100a564:	1005003a 	cmpeq	r2,r2,zero
 100a568:	1000721e 	bne	r2,zero,100a734 <alt_printf+0x244>
            {
                if (c == '%')
 100a56c:	e0bffc07 	ldb	r2,-16(fp)
 100a570:	10800958 	cmpnei	r2,r2,37
 100a574:	1000031e 	bne	r2,zero,100a584 <alt_printf+0x94>
                {
                    /* Process "%" escape sequence. */
                    alt_putchar(c);
 100a578:	e13ffc07 	ldb	r4,-16(fp)
 100a57c:	100a7480 	call	100a748 <alt_putchar>
 100a580:	00006006 	br	100a704 <alt_printf+0x214>
                } 
                else if (c == 'c')
 100a584:	e0bffc07 	ldb	r2,-16(fp)
 100a588:	108018d8 	cmpnei	r2,r2,99
 100a58c:	1000091e 	bne	r2,zero,100a5b4 <alt_printf+0xc4>
                {
                    int v = va_arg(args, int);
 100a590:	e0fffe17 	ldw	r3,-8(fp)
 100a594:	18800104 	addi	r2,r3,4
 100a598:	e0bffe15 	stw	r2,-8(fp)
 100a59c:	1805883a 	mov	r2,r3
 100a5a0:	10800017 	ldw	r2,0(r2)
 100a5a4:	e0bffb15 	stw	r2,-20(fp)
                    alt_putchar(v);
 100a5a8:	e13ffb17 	ldw	r4,-20(fp)
 100a5ac:	100a7480 	call	100a748 <alt_putchar>
 100a5b0:	00005406 	br	100a704 <alt_printf+0x214>
                }
                else if (c == 'x')
 100a5b4:	e0bffc07 	ldb	r2,-16(fp)
 100a5b8:	10801e18 	cmpnei	r2,r2,120
 100a5bc:	1000371e 	bne	r2,zero,100a69c <alt_printf+0x1ac>
                {
                    /* Process hexadecimal number format. */
                    unsigned long v = va_arg(args, unsigned long);
 100a5c0:	e0fffe17 	ldw	r3,-8(fp)
 100a5c4:	18800104 	addi	r2,r3,4
 100a5c8:	e0bffe15 	stw	r2,-8(fp)
 100a5cc:	1805883a 	mov	r2,r3
 100a5d0:	10800017 	ldw	r2,0(r2)
 100a5d4:	e0bffa15 	stw	r2,-24(fp)
                    unsigned long digit;
                    int digit_shift;

                    /* If the number value is zero, just print and continue. */
                    if (v == 0)
 100a5d8:	e0bffa17 	ldw	r2,-24(fp)
 100a5dc:	1004c03a 	cmpne	r2,r2,zero
 100a5e0:	1000031e 	bne	r2,zero,100a5f0 <alt_printf+0x100>
                    {
                        alt_putchar('0');
 100a5e4:	01000c04 	movi	r4,48
 100a5e8:	100a7480 	call	100a748 <alt_putchar>
                        continue;
 100a5ec:	00004506 	br	100a704 <alt_printf+0x214>
                    }

                    /* Find first non-zero digit. */
                    digit_shift = 28;
 100a5f0:	00800704 	movi	r2,28
 100a5f4:	e0bff815 	stw	r2,-32(fp)
                    while (!(v & (0xF << digit_shift)))
 100a5f8:	00000306 	br	100a608 <alt_printf+0x118>
                        digit_shift -= 4;
 100a5fc:	e0bff817 	ldw	r2,-32(fp)
 100a600:	10bfff04 	addi	r2,r2,-4
 100a604:	e0bff815 	stw	r2,-32(fp)
                        continue;
                    }

                    /* Find first non-zero digit. */
                    digit_shift = 28;
                    while (!(v & (0xF << digit_shift)))
 100a608:	00c003c4 	movi	r3,15
 100a60c:	e0bff817 	ldw	r2,-32(fp)
 100a610:	1884983a 	sll	r2,r3,r2
 100a614:	1007883a 	mov	r3,r2
 100a618:	e0bffa17 	ldw	r2,-24(fp)
 100a61c:	1884703a 	and	r2,r3,r2
 100a620:	1005003a 	cmpeq	r2,r2,zero
 100a624:	103ff51e 	bne	r2,zero,100a5fc <alt_printf+0x10c>
                        digit_shift -= 4;

                    /* Print digits. */
                    for (; digit_shift >= 0; digit_shift -= 4)
 100a628:	00001806 	br	100a68c <alt_printf+0x19c>
                    {
                        digit = (v & (0xF << digit_shift)) >> digit_shift;
 100a62c:	00c003c4 	movi	r3,15
 100a630:	e0bff817 	ldw	r2,-32(fp)
 100a634:	1884983a 	sll	r2,r3,r2
 100a638:	1007883a 	mov	r3,r2
 100a63c:	e0bffa17 	ldw	r2,-24(fp)
 100a640:	1886703a 	and	r3,r3,r2
 100a644:	e0bff817 	ldw	r2,-32(fp)
 100a648:	1884d83a 	srl	r2,r3,r2
 100a64c:	e0bff915 	stw	r2,-28(fp)
                        if (digit <= 9)
 100a650:	e0bff917 	ldw	r2,-28(fp)
 100a654:	108002a8 	cmpgeui	r2,r2,10
 100a658:	1000041e 	bne	r2,zero,100a66c <alt_printf+0x17c>
                            c = '0' + digit;
 100a65c:	e0bff917 	ldw	r2,-28(fp)
 100a660:	10800c04 	addi	r2,r2,48
 100a664:	e0bffc05 	stb	r2,-16(fp)
 100a668:	00000306 	br	100a678 <alt_printf+0x188>
                        else
                            c = 'a' + digit - 10;
 100a66c:	e0bff917 	ldw	r2,-28(fp)
 100a670:	108015c4 	addi	r2,r2,87
 100a674:	e0bffc05 	stb	r2,-16(fp)
                        alt_putchar(c);
 100a678:	e13ffc07 	ldb	r4,-16(fp)
 100a67c:	100a7480 	call	100a748 <alt_putchar>
                    digit_shift = 28;
                    while (!(v & (0xF << digit_shift)))
                        digit_shift -= 4;

                    /* Print digits. */
                    for (; digit_shift >= 0; digit_shift -= 4)
 100a680:	e0bff817 	ldw	r2,-32(fp)
 100a684:	10bfff04 	addi	r2,r2,-4
 100a688:	e0bff815 	stw	r2,-32(fp)
 100a68c:	e0bff817 	ldw	r2,-32(fp)
 100a690:	1004403a 	cmpge	r2,r2,zero
 100a694:	103fe51e 	bne	r2,zero,100a62c <alt_printf+0x13c>
 100a698:	00001a06 	br	100a704 <alt_printf+0x214>
                        else
                            c = 'a' + digit - 10;
                        alt_putchar(c);
                    }
                }
                else if (c == 's')
 100a69c:	e0bffc07 	ldb	r2,-16(fp)
 100a6a0:	10801cd8 	cmpnei	r2,r2,115
 100a6a4:	1000171e 	bne	r2,zero,100a704 <alt_printf+0x214>
                {
                    /* Process string format. */
                    char *s = va_arg(args, char *);
 100a6a8:	e0fffe17 	ldw	r3,-8(fp)
 100a6ac:	18800104 	addi	r2,r3,4
 100a6b0:	e0bffe15 	stw	r2,-8(fp)
 100a6b4:	1805883a 	mov	r2,r3
 100a6b8:	10800017 	ldw	r2,0(r2)
 100a6bc:	e0bff715 	stw	r2,-36(fp)

                    while(*s)
 100a6c0:	00000906 	br	100a6e8 <alt_printf+0x1f8>
                      alt_putchar(*s++);
 100a6c4:	e0bff717 	ldw	r2,-36(fp)
 100a6c8:	10800003 	ldbu	r2,0(r2)
 100a6cc:	11003fcc 	andi	r4,r2,255
 100a6d0:	2100201c 	xori	r4,r4,128
 100a6d4:	213fe004 	addi	r4,r4,-128
 100a6d8:	e0bff717 	ldw	r2,-36(fp)
 100a6dc:	10800044 	addi	r2,r2,1
 100a6e0:	e0bff715 	stw	r2,-36(fp)
 100a6e4:	100a7480 	call	100a748 <alt_putchar>
                else if (c == 's')
                {
                    /* Process string format. */
                    char *s = va_arg(args, char *);

                    while(*s)
 100a6e8:	e0bff717 	ldw	r2,-36(fp)
 100a6ec:	10800003 	ldbu	r2,0(r2)
 100a6f0:	10803fcc 	andi	r2,r2,255
 100a6f4:	1080201c 	xori	r2,r2,128
 100a6f8:	10bfe004 	addi	r2,r2,-128
 100a6fc:	1004c03a 	cmpne	r2,r2,zero
 100a700:	103ff01e 	bne	r2,zero,100a6c4 <alt_printf+0x1d4>
    const char *w;
    char c;

    /* Process format string. */
    w = fmt;
    while ((c = *w++) != 0)
 100a704:	e0bffd17 	ldw	r2,-12(fp)
 100a708:	10800003 	ldbu	r2,0(r2)
 100a70c:	e0bffc05 	stb	r2,-16(fp)
 100a710:	e0bffc07 	ldb	r2,-16(fp)
 100a714:	1004c03a 	cmpne	r2,r2,zero
 100a718:	1007883a 	mov	r3,r2
 100a71c:	e0bffd17 	ldw	r2,-12(fp)
 100a720:	10800044 	addi	r2,r2,1
 100a724:	e0bffd15 	stw	r2,-12(fp)
 100a728:	18803fcc 	andi	r2,r3,255
 100a72c:	1004c03a 	cmpne	r2,r2,zero
 100a730:	103f7c1e 	bne	r2,zero,100a524 <alt_printf+0x34>
            {
                break;
            }
        }
    }
}
 100a734:	e037883a 	mov	sp,fp
 100a738:	dfc00117 	ldw	ra,4(sp)
 100a73c:	df000017 	ldw	fp,0(sp)
 100a740:	dec00504 	addi	sp,sp,20
 100a744:	f800283a 	ret

0100a748 <alt_putchar>:
 * Uses the ALT_DRIVER_WRITE() macro to call directly to driver if available.
 * Otherwise, uses newlib provided putchar() routine.
 */
int 
alt_putchar(int c)
{
 100a748:	defffd04 	addi	sp,sp,-12
 100a74c:	dfc00215 	stw	ra,8(sp)
 100a750:	df000115 	stw	fp,4(sp)
 100a754:	df000104 	addi	fp,sp,4
 100a758:	e13fff15 	stw	r4,-4(fp)
    if (ALT_DRIVER_WRITE(ALT_STDOUT_DEV, &c1, 1, 0) == -1) {
        return -1;
    }
    return c;
#else
    return putchar(c);
 100a75c:	00804074 	movhi	r2,257
 100a760:	10bc8804 	addi	r2,r2,-3552
 100a764:	10800017 	ldw	r2,0(r2)
 100a768:	11400217 	ldw	r5,8(r2)
 100a76c:	e13fff17 	ldw	r4,-4(fp)
 100a770:	100cc240 	call	100cc24 <putc>
#endif
}
 100a774:	e037883a 	mov	sp,fp
 100a778:	dfc00117 	ldw	ra,4(sp)
 100a77c:	df000017 	ldw	fp,0(sp)
 100a780:	dec00204 	addi	sp,sp,8
 100a784:	f800283a 	ret

0100a788 <read>:
}

#else /* !ALT_USE_DIRECT_DRIVERS */

int ALT_READ (int file, void *ptr, size_t len)
{
 100a788:	defff704 	addi	sp,sp,-36
 100a78c:	dfc00815 	stw	ra,32(sp)
 100a790:	df000715 	stw	fp,28(sp)
 100a794:	df000704 	addi	fp,sp,28
 100a798:	e13ffb15 	stw	r4,-20(fp)
 100a79c:	e17ffc15 	stw	r5,-16(fp)
 100a7a0:	e1bffd15 	stw	r6,-12(fp)
   * A common error case is that when the file descriptor was created, the call
   * to open() failed resulting in a negative file descriptor. This is trapped
   * below so that we don't try and process an invalid file descriptor.
   */

  fd = (file < 0) ? NULL : &alt_fd_list[file];
 100a7a4:	e0bffb17 	ldw	r2,-20(fp)
 100a7a8:	1004803a 	cmplt	r2,r2,zero
 100a7ac:	1000091e 	bne	r2,zero,100a7d4 <read+0x4c>
 100a7b0:	e13ffb17 	ldw	r4,-20(fp)
 100a7b4:	01400304 	movi	r5,12
 100a7b8:	100972c0 	call	100972c <__mulsi3>
 100a7bc:	1007883a 	mov	r3,r2
 100a7c0:	00804074 	movhi	r2,257
 100a7c4:	10b7fa04 	addi	r2,r2,-8216
 100a7c8:	1887883a 	add	r3,r3,r2
 100a7cc:	e0ffff15 	stw	r3,-4(fp)
 100a7d0:	00000106 	br	100a7d8 <read+0x50>
 100a7d4:	e03fff15 	stw	zero,-4(fp)
 100a7d8:	e0bfff17 	ldw	r2,-4(fp)
 100a7dc:	e0bffa15 	stw	r2,-24(fp)
  
  if (fd)
 100a7e0:	e0bffa17 	ldw	r2,-24(fp)
 100a7e4:	1005003a 	cmpeq	r2,r2,zero
 100a7e8:	1000241e 	bne	r2,zero,100a87c <read+0xf4>
     * If the file has not been opened with read access, or if the driver does
     * not provide an implementation of read(), generate an error. Otherwise
     * call the drivers read() function to process the request.
     */

    if (((fd->fd_flags & O_ACCMODE) != O_WRONLY) && 
 100a7ec:	e0bffa17 	ldw	r2,-24(fp)
 100a7f0:	10800217 	ldw	r2,8(r2)
 100a7f4:	108000cc 	andi	r2,r2,3
 100a7f8:	10800060 	cmpeqi	r2,r2,1
 100a7fc:	10001a1e 	bne	r2,zero,100a868 <read+0xe0>
 100a800:	e0bffa17 	ldw	r2,-24(fp)
 100a804:	10800017 	ldw	r2,0(r2)
 100a808:	10800517 	ldw	r2,20(r2)
 100a80c:	1005003a 	cmpeq	r2,r2,zero
 100a810:	1000151e 	bne	r2,zero,100a868 <read+0xe0>
        (fd->dev->read))
      {
        if ((rval = fd->dev->read(fd, ptr, len)) < 0)
 100a814:	e0bffa17 	ldw	r2,-24(fp)
 100a818:	10800017 	ldw	r2,0(r2)
 100a81c:	10800517 	ldw	r2,20(r2)
 100a820:	e17ffc17 	ldw	r5,-16(fp)
 100a824:	e1bffd17 	ldw	r6,-12(fp)
 100a828:	e13ffa17 	ldw	r4,-24(fp)
 100a82c:	103ee83a 	callr	r2
 100a830:	e0bff915 	stw	r2,-28(fp)
 100a834:	e0bff917 	ldw	r2,-28(fp)
 100a838:	1004403a 	cmpge	r2,r2,zero
 100a83c:	1000071e 	bne	r2,zero,100a85c <read+0xd4>
        {
          ALT_ERRNO = -rval;
 100a840:	100a8ac0 	call	100a8ac <alt_get_errno>
 100a844:	e0fff917 	ldw	r3,-28(fp)
 100a848:	00c7c83a 	sub	r3,zero,r3
 100a84c:	10c00015 	stw	r3,0(r2)
          return -1;
 100a850:	00bfffc4 	movi	r2,-1
 100a854:	e0bffe15 	stw	r2,-8(fp)
 100a858:	00000e06 	br	100a894 <read+0x10c>
        }
        return rval;
 100a85c:	e0bff917 	ldw	r2,-28(fp)
 100a860:	e0bffe15 	stw	r2,-8(fp)
 100a864:	00000b06 	br	100a894 <read+0x10c>
      }
      else
      {
        ALT_ERRNO = EACCES;
 100a868:	100a8ac0 	call	100a8ac <alt_get_errno>
 100a86c:	1007883a 	mov	r3,r2
 100a870:	00800344 	movi	r2,13
 100a874:	18800015 	stw	r2,0(r3)
 100a878:	00000406 	br	100a88c <read+0x104>
      }
    }
  else
  {
    ALT_ERRNO = EBADFD;
 100a87c:	100a8ac0 	call	100a8ac <alt_get_errno>
 100a880:	1007883a 	mov	r3,r2
 100a884:	00801444 	movi	r2,81
 100a888:	18800015 	stw	r2,0(r3)
  }
  return -1;
 100a88c:	00bfffc4 	movi	r2,-1
 100a890:	e0bffe15 	stw	r2,-8(fp)
 100a894:	e0bffe17 	ldw	r2,-8(fp)
}
 100a898:	e037883a 	mov	sp,fp
 100a89c:	dfc00117 	ldw	ra,4(sp)
 100a8a0:	df000017 	ldw	fp,0(sp)
 100a8a4:	dec00204 	addi	sp,sp,8
 100a8a8:	f800283a 	ret

0100a8ac <alt_get_errno>:
#undef errno

extern int errno;

static ALT_INLINE int* alt_get_errno(void)
{
 100a8ac:	defffd04 	addi	sp,sp,-12
 100a8b0:	dfc00215 	stw	ra,8(sp)
 100a8b4:	df000115 	stw	fp,4(sp)
 100a8b8:	df000104 	addi	fp,sp,4
  return ((alt_errno) ? alt_errno() : &errno);
 100a8bc:	00804074 	movhi	r2,257
 100a8c0:	10bc9304 	addi	r2,r2,-3508
 100a8c4:	10800017 	ldw	r2,0(r2)
 100a8c8:	1005003a 	cmpeq	r2,r2,zero
 100a8cc:	1000061e 	bne	r2,zero,100a8e8 <alt_get_errno+0x3c>
 100a8d0:	00804074 	movhi	r2,257
 100a8d4:	10bc9304 	addi	r2,r2,-3508
 100a8d8:	10800017 	ldw	r2,0(r2)
 100a8dc:	103ee83a 	callr	r2
 100a8e0:	e0bfff15 	stw	r2,-4(fp)
 100a8e4:	00000306 	br	100a8f4 <alt_get_errno+0x48>
 100a8e8:	00804074 	movhi	r2,257
 100a8ec:	10834b04 	addi	r2,r2,3372
 100a8f0:	e0bfff15 	stw	r2,-4(fp)
 100a8f4:	e0bfff17 	ldw	r2,-4(fp)
}
 100a8f8:	e037883a 	mov	sp,fp
 100a8fc:	dfc00117 	ldw	ra,4(sp)
 100a900:	df000017 	ldw	fp,0(sp)
 100a904:	dec00204 	addi	sp,sp,8
 100a908:	f800283a 	ret

0100a90c <alt_release_fd>:
 * File descriptors correcponding to standard in, standard out and standard 
 * error cannont be released backed to the pool. They are always reserved.
 */

void alt_release_fd (int fd)
{
 100a90c:	defffc04 	addi	sp,sp,-16
 100a910:	dfc00315 	stw	ra,12(sp)
 100a914:	df000215 	stw	fp,8(sp)
 100a918:	dc000115 	stw	r16,4(sp)
 100a91c:	df000104 	addi	fp,sp,4
 100a920:	e13fff15 	stw	r4,-4(fp)
  if (fd > 2)
 100a924:	e0bfff17 	ldw	r2,-4(fp)
 100a928:	108000d0 	cmplti	r2,r2,3
 100a92c:	10000f1e 	bne	r2,zero,100a96c <alt_release_fd+0x60>
  {
    alt_fd_list[fd].fd_flags = 0;
 100a930:	e13fff17 	ldw	r4,-4(fp)
 100a934:	04004074 	movhi	r16,257
 100a938:	8437fa04 	addi	r16,r16,-8216
 100a93c:	01400304 	movi	r5,12
 100a940:	100972c0 	call	100972c <__mulsi3>
 100a944:	1405883a 	add	r2,r2,r16
 100a948:	10800204 	addi	r2,r2,8
 100a94c:	10000015 	stw	zero,0(r2)
    alt_fd_list[fd].dev      = 0;
 100a950:	e13fff17 	ldw	r4,-4(fp)
 100a954:	04004074 	movhi	r16,257
 100a958:	8437fa04 	addi	r16,r16,-8216
 100a95c:	01400304 	movi	r5,12
 100a960:	100972c0 	call	100972c <__mulsi3>
 100a964:	1405883a 	add	r2,r2,r16
 100a968:	10000015 	stw	zero,0(r2)
  }
}
 100a96c:	e037883a 	mov	sp,fp
 100a970:	dfc00217 	ldw	ra,8(sp)
 100a974:	df000117 	ldw	fp,4(sp)
 100a978:	dc000017 	ldw	r16,0(sp)
 100a97c:	dec00304 	addi	sp,sp,12
 100a980:	f800283a 	ret

0100a984 <sbrk>:
#endif
 
caddr_t ALT_SBRK (int incr) __attribute__ ((no_instrument_function ));

caddr_t ALT_SBRK (int incr)
{ 
 100a984:	defff804 	addi	sp,sp,-32
 100a988:	df000715 	stw	fp,28(sp)
 100a98c:	df000704 	addi	fp,sp,28
 100a990:	e13ffe15 	stw	r4,-8(fp)
static ALT_INLINE alt_irq_context ALT_ALWAYS_INLINE 
       alt_irq_disable_all (void)
{
  alt_irq_context context;

  NIOS2_READ_STATUS (context);
 100a994:	0005303a 	rdctl	r2,status
 100a998:	e0bffb15 	stw	r2,-20(fp)

  NIOS2_WRITE_STATUS (context & ~NIOS2_STATUS_PIE_MSK);
 100a99c:	e0fffb17 	ldw	r3,-20(fp)
 100a9a0:	00bfff84 	movi	r2,-2
 100a9a4:	1884703a 	and	r2,r3,r2
 100a9a8:	1001703a 	wrctl	status,r2
  
  return context;
 100a9ac:	e0bffb17 	ldw	r2,-20(fp)
  alt_irq_context context;
  char *prev_heap_end; 

  context = alt_irq_disable_all();
 100a9b0:	e0bffd15 	stw	r2,-12(fp)

  /* Always return data aligned on a word boundary */
  heap_end = (char *)(((unsigned int)heap_end + 3) & ~3);
 100a9b4:	d0a00c17 	ldw	r2,-32720(gp)
 100a9b8:	10c000c4 	addi	r3,r2,3
 100a9bc:	00bfff04 	movi	r2,-4
 100a9c0:	1884703a 	and	r2,r3,r2
 100a9c4:	d0a00c15 	stw	r2,-32720(gp)
  if (((heap_end + incr) - __alt_heap_start) > ALT_MAX_HEAP_BYTES) {
    alt_irq_enable_all(context);
    return (caddr_t)-1;
  }
#else
  if ((heap_end + incr) > __alt_heap_limit) {
 100a9c8:	d0e00c17 	ldw	r3,-32720(gp)
 100a9cc:	e0bffe17 	ldw	r2,-8(fp)
 100a9d0:	1887883a 	add	r3,r3,r2
 100a9d4:	00806034 	movhi	r2,384
 100a9d8:	10800004 	addi	r2,r2,0
 100a9dc:	10c0072e 	bgeu	r2,r3,100a9fc <sbrk+0x78>
 100a9e0:	e0bffd17 	ldw	r2,-12(fp)
 100a9e4:	e0bffa15 	stw	r2,-24(fp)
  status &= ~NIOS2_STATUS_PIE_MSK;
  status |= (context & NIOS2_STATUS_PIE_MSK);
  
  NIOS2_WRITE_STATUS (status);
#else
  NIOS2_WRITE_STATUS (context);
 100a9e8:	e0bffa17 	ldw	r2,-24(fp)
 100a9ec:	1001703a 	wrctl	status,r2
    alt_irq_enable_all(context);
    return (caddr_t)-1;
 100a9f0:	00bfffc4 	movi	r2,-1
 100a9f4:	e0bfff15 	stw	r2,-4(fp)
 100a9f8:	00000c06 	br	100aa2c <sbrk+0xa8>
  }
#endif

  prev_heap_end = heap_end; 
 100a9fc:	d0a00c17 	ldw	r2,-32720(gp)
 100aa00:	e0bffc15 	stw	r2,-16(fp)
  heap_end += incr; 
 100aa04:	d0e00c17 	ldw	r3,-32720(gp)
 100aa08:	e0bffe17 	ldw	r2,-8(fp)
 100aa0c:	1885883a 	add	r2,r3,r2
 100aa10:	d0a00c15 	stw	r2,-32720(gp)
 100aa14:	e0bffd17 	ldw	r2,-12(fp)
 100aa18:	e0bff915 	stw	r2,-28(fp)
 100aa1c:	e0bff917 	ldw	r2,-28(fp)
 100aa20:	1001703a 	wrctl	status,r2

#endif

  alt_irq_enable_all(context);

  return (caddr_t) prev_heap_end; 
 100aa24:	e0bffc17 	ldw	r2,-16(fp)
 100aa28:	e0bfff15 	stw	r2,-4(fp)
 100aa2c:	e0bfff17 	ldw	r2,-4(fp)
} 
 100aa30:	e037883a 	mov	sp,fp
 100aa34:	df000017 	ldw	fp,0(sp)
 100aa38:	dec00104 	addi	sp,sp,4
 100aa3c:	f800283a 	ret

0100aa40 <write>:
}

#else /* !ALT_USE_DIRECT_DRIVERS */

int ALT_WRITE (int file, const void *ptr, size_t len)
{
 100aa40:	defff704 	addi	sp,sp,-36
 100aa44:	dfc00815 	stw	ra,32(sp)
 100aa48:	df000715 	stw	fp,28(sp)
 100aa4c:	df000704 	addi	fp,sp,28
 100aa50:	e13ffb15 	stw	r4,-20(fp)
 100aa54:	e17ffc15 	stw	r5,-16(fp)
 100aa58:	e1bffd15 	stw	r6,-12(fp)
   * A common error case is that when the file descriptor was created, the call
   * to open() failed resulting in a negative file descriptor. This is trapped
   * below so that we don't try and process an invalid file descriptor.
   */

  fd = (file < 0) ? NULL : &alt_fd_list[file];
 100aa5c:	e0bffb17 	ldw	r2,-20(fp)
 100aa60:	1004803a 	cmplt	r2,r2,zero
 100aa64:	1000091e 	bne	r2,zero,100aa8c <write+0x4c>
 100aa68:	e13ffb17 	ldw	r4,-20(fp)
 100aa6c:	01400304 	movi	r5,12
 100aa70:	100972c0 	call	100972c <__mulsi3>
 100aa74:	1007883a 	mov	r3,r2
 100aa78:	00804074 	movhi	r2,257
 100aa7c:	10b7fa04 	addi	r2,r2,-8216
 100aa80:	1887883a 	add	r3,r3,r2
 100aa84:	e0ffff15 	stw	r3,-4(fp)
 100aa88:	00000106 	br	100aa90 <write+0x50>
 100aa8c:	e03fff15 	stw	zero,-4(fp)
 100aa90:	e0bfff17 	ldw	r2,-4(fp)
 100aa94:	e0bffa15 	stw	r2,-24(fp)
  
  if (fd)
 100aa98:	e0bffa17 	ldw	r2,-24(fp)
 100aa9c:	1005003a 	cmpeq	r2,r2,zero
 100aaa0:	1000241e 	bne	r2,zero,100ab34 <write+0xf4>
     * If the file has not been opened with write access, or if the driver does
     * not provide an implementation of write(), generate an error. Otherwise
     * call the drivers write() function to process the request.
     */

    if (((fd->fd_flags & O_ACCMODE) != O_RDONLY) && fd->dev->write)
 100aaa4:	e0bffa17 	ldw	r2,-24(fp)
 100aaa8:	10800217 	ldw	r2,8(r2)
 100aaac:	108000cc 	andi	r2,r2,3
 100aab0:	1005003a 	cmpeq	r2,r2,zero
 100aab4:	10001a1e 	bne	r2,zero,100ab20 <write+0xe0>
 100aab8:	e0bffa17 	ldw	r2,-24(fp)
 100aabc:	10800017 	ldw	r2,0(r2)
 100aac0:	10800617 	ldw	r2,24(r2)
 100aac4:	1005003a 	cmpeq	r2,r2,zero
 100aac8:	1000151e 	bne	r2,zero,100ab20 <write+0xe0>
    {
      
      /* ALT_LOG - see altera_hal/HAL/inc/sys/alt_log_printf.h */
      ALT_LOG_WRITE_FUNCTION(ptr,len);

      if ((rval = fd->dev->write(fd, ptr, len)) < 0)
 100aacc:	e0bffa17 	ldw	r2,-24(fp)
 100aad0:	10800017 	ldw	r2,0(r2)
 100aad4:	10800617 	ldw	r2,24(r2)
 100aad8:	e17ffc17 	ldw	r5,-16(fp)
 100aadc:	e1bffd17 	ldw	r6,-12(fp)
 100aae0:	e13ffa17 	ldw	r4,-24(fp)
 100aae4:	103ee83a 	callr	r2
 100aae8:	e0bff915 	stw	r2,-28(fp)
 100aaec:	e0bff917 	ldw	r2,-28(fp)
 100aaf0:	1004403a 	cmpge	r2,r2,zero
 100aaf4:	1000071e 	bne	r2,zero,100ab14 <write+0xd4>
      {
        ALT_ERRNO = -rval;
 100aaf8:	100ab640 	call	100ab64 <alt_get_errno>
 100aafc:	e0fff917 	ldw	r3,-28(fp)
 100ab00:	00c7c83a 	sub	r3,zero,r3
 100ab04:	10c00015 	stw	r3,0(r2)
        return -1;
 100ab08:	00bfffc4 	movi	r2,-1
 100ab0c:	e0bffe15 	stw	r2,-8(fp)
 100ab10:	00000e06 	br	100ab4c <write+0x10c>
      }
      return rval;
 100ab14:	e0bff917 	ldw	r2,-28(fp)
 100ab18:	e0bffe15 	stw	r2,-8(fp)
 100ab1c:	00000b06 	br	100ab4c <write+0x10c>
    }
    else
    {
      ALT_ERRNO = EACCES;
 100ab20:	100ab640 	call	100ab64 <alt_get_errno>
 100ab24:	1007883a 	mov	r3,r2
 100ab28:	00800344 	movi	r2,13
 100ab2c:	18800015 	stw	r2,0(r3)
 100ab30:	00000406 	br	100ab44 <write+0x104>
    }
  }
  else  
  {
    ALT_ERRNO = EBADFD;
 100ab34:	100ab640 	call	100ab64 <alt_get_errno>
 100ab38:	1007883a 	mov	r3,r2
 100ab3c:	00801444 	movi	r2,81
 100ab40:	18800015 	stw	r2,0(r3)
  }
  return -1;
 100ab44:	00bfffc4 	movi	r2,-1
 100ab48:	e0bffe15 	stw	r2,-8(fp)
 100ab4c:	e0bffe17 	ldw	r2,-8(fp)
}
 100ab50:	e037883a 	mov	sp,fp
 100ab54:	dfc00117 	ldw	ra,4(sp)
 100ab58:	df000017 	ldw	fp,0(sp)
 100ab5c:	dec00204 	addi	sp,sp,8
 100ab60:	f800283a 	ret

0100ab64 <alt_get_errno>:
#undef errno

extern int errno;

static ALT_INLINE int* alt_get_errno(void)
{
 100ab64:	defffd04 	addi	sp,sp,-12
 100ab68:	dfc00215 	stw	ra,8(sp)
 100ab6c:	df000115 	stw	fp,4(sp)
 100ab70:	df000104 	addi	fp,sp,4
  return ((alt_errno) ? alt_errno() : &errno);
 100ab74:	00804074 	movhi	r2,257
 100ab78:	10bc9304 	addi	r2,r2,-3508
 100ab7c:	10800017 	ldw	r2,0(r2)
 100ab80:	1005003a 	cmpeq	r2,r2,zero
 100ab84:	1000061e 	bne	r2,zero,100aba0 <alt_get_errno+0x3c>
 100ab88:	00804074 	movhi	r2,257
 100ab8c:	10bc9304 	addi	r2,r2,-3508
 100ab90:	10800017 	ldw	r2,0(r2)
 100ab94:	103ee83a 	callr	r2
 100ab98:	e0bfff15 	stw	r2,-4(fp)
 100ab9c:	00000306 	br	100abac <alt_get_errno+0x48>
 100aba0:	00804074 	movhi	r2,257
 100aba4:	10834b04 	addi	r2,r2,3372
 100aba8:	e0bfff15 	stw	r2,-4(fp)
 100abac:	e0bfff17 	ldw	r2,-4(fp)
}
 100abb0:	e037883a 	mov	sp,fp
 100abb4:	dfc00117 	ldw	ra,4(sp)
 100abb8:	df000017 	ldw	fp,0(sp)
 100abbc:	dec00204 	addi	sp,sp,8
 100abc0:	f800283a 	ret

0100abc4 <alt_irq_init>:
 * The "base" parameter is ignored and only
 * present for backwards-compatibility.
 */

void alt_irq_init ( const void* base )
{
 100abc4:	defffd04 	addi	sp,sp,-12
 100abc8:	dfc00215 	stw	ra,8(sp)
 100abcc:	df000115 	stw	fp,4(sp)
 100abd0:	df000104 	addi	fp,sp,4
 100abd4:	e13fff15 	stw	r4,-4(fp)
    ALTERA_NIOS2_QSYS_IRQ_INIT ( NIOS2_QSYS_0, nios2_qsys_0);
 100abd8:	100c9540 	call	100c954 <altera_nios2_qsys_irq_init>
 * alt_irq_cpu_enable_interrupts() enables the CPU to start taking interrupts.
 */
static ALT_INLINE void ALT_ALWAYS_INLINE 
       alt_irq_cpu_enable_interrupts ()
{
    NIOS2_WRITE_STATUS(NIOS2_STATUS_PIE_MSK
 100abdc:	00800044 	movi	r2,1
 100abe0:	1001703a 	wrctl	status,r2
    alt_irq_cpu_enable_interrupts();
}
 100abe4:	e037883a 	mov	sp,fp
 100abe8:	dfc00117 	ldw	ra,4(sp)
 100abec:	df000017 	ldw	fp,0(sp)
 100abf0:	dec00204 	addi	sp,sp,8
 100abf4:	f800283a 	ret

0100abf8 <alt_sys_init>:
 * Initialize the non-interrupt controller devices.
 * Called after alt_irq_init().
 */

void alt_sys_init( void )
{
 100abf8:	defffe04 	addi	sp,sp,-8
 100abfc:	dfc00115 	stw	ra,4(sp)
 100ac00:	df000015 	stw	fp,0(sp)
 100ac04:	d839883a 	mov	fp,sp
    ALTERA_AVALON_JTAG_UART_INIT ( JTAG_UART_0, jtag_uart_0);
 100ac08:	01004074 	movhi	r4,257
 100ac0c:	21386404 	addi	r4,r4,-7792
 100ac10:	000b883a 	mov	r5,zero
 100ac14:	000d883a 	mov	r6,zero
 100ac18:	100ade00 	call	100ade0 <altera_avalon_jtag_uart_init>
 100ac1c:	01004074 	movhi	r4,257
 100ac20:	21385a04 	addi	r4,r4,-7832
 100ac24:	100ac600 	call	100ac60 <alt_dev_reg>
    ALTERA_UP_AVALON_CHARACTER_LCD_INIT ( CHARACTER_LCD_0, character_lcd_0);
 100ac28:	01004074 	movhi	r4,257
 100ac2c:	213c7204 	addi	r4,r4,-3640
 100ac30:	100b7f40 	call	100b7f4 <alt_up_character_lcd_init>
 100ac34:	01004074 	movhi	r4,257
 100ac38:	213c7204 	addi	r4,r4,-3640
 100ac3c:	100ac600 	call	100ac60 <alt_dev_reg>
    ALTERA_UP_AVALON_PARALLEL_PORT_INIT ( PARALLEL_PORT_0, parallel_port_0);
 100ac40:	01004074 	movhi	r4,257
 100ac44:	213c7d04 	addi	r4,r4,-3596
 100ac48:	100ac600 	call	100ac60 <alt_dev_reg>
}
 100ac4c:	e037883a 	mov	sp,fp
 100ac50:	dfc00117 	ldw	ra,4(sp)
 100ac54:	df000017 	ldw	fp,0(sp)
 100ac58:	dec00204 	addi	sp,sp,8
 100ac5c:	f800283a 	ret

0100ac60 <alt_dev_reg>:
 */

extern int alt_fs_reg  (alt_dev* dev); 

static ALT_INLINE int alt_dev_reg (alt_dev* dev)
{
 100ac60:	defffd04 	addi	sp,sp,-12
 100ac64:	dfc00215 	stw	ra,8(sp)
 100ac68:	df000115 	stw	fp,4(sp)
 100ac6c:	df000104 	addi	fp,sp,4
 100ac70:	e13fff15 	stw	r4,-4(fp)
  extern alt_llist alt_dev_list;

  return alt_dev_llist_insert ((alt_dev_llist*) dev, &alt_dev_list);
 100ac74:	e13fff17 	ldw	r4,-4(fp)
 100ac78:	01404074 	movhi	r5,257
 100ac7c:	297c9004 	addi	r5,r5,-3520
 100ac80:	100be240 	call	100be24 <alt_dev_llist_insert>
}
 100ac84:	e037883a 	mov	sp,fp
 100ac88:	dfc00117 	ldw	ra,4(sp)
 100ac8c:	df000017 	ldw	fp,0(sp)
 100ac90:	dec00204 	addi	sp,sp,8
 100ac94:	f800283a 	ret

0100ac98 <altera_avalon_jtag_uart_read_fd>:
 *
 */

int 
altera_avalon_jtag_uart_read_fd(alt_fd* fd, char* buffer, int space)
{
 100ac98:	defffa04 	addi	sp,sp,-24
 100ac9c:	dfc00515 	stw	ra,20(sp)
 100aca0:	df000415 	stw	fp,16(sp)
 100aca4:	df000404 	addi	fp,sp,16
 100aca8:	e13ffd15 	stw	r4,-12(fp)
 100acac:	e17ffe15 	stw	r5,-8(fp)
 100acb0:	e1bfff15 	stw	r6,-4(fp)
    altera_avalon_jtag_uart_dev* dev = (altera_avalon_jtag_uart_dev*) fd->dev; 
 100acb4:	e0bffd17 	ldw	r2,-12(fp)
 100acb8:	10800017 	ldw	r2,0(r2)
 100acbc:	e0bffc15 	stw	r2,-16(fp)

    return altera_avalon_jtag_uart_read(&dev->state, buffer, space,
 100acc0:	e0bffc17 	ldw	r2,-16(fp)
 100acc4:	11000a04 	addi	r4,r2,40
 100acc8:	e0bffd17 	ldw	r2,-12(fp)
 100accc:	11c00217 	ldw	r7,8(r2)
 100acd0:	e17ffe17 	ldw	r5,-8(fp)
 100acd4:	e1bfff17 	ldw	r6,-4(fp)
 100acd8:	100b2e00 	call	100b2e0 <altera_avalon_jtag_uart_read>
      fd->fd_flags);
}
 100acdc:	e037883a 	mov	sp,fp
 100ace0:	dfc00117 	ldw	ra,4(sp)
 100ace4:	df000017 	ldw	fp,0(sp)
 100ace8:	dec00204 	addi	sp,sp,8
 100acec:	f800283a 	ret

0100acf0 <altera_avalon_jtag_uart_write_fd>:

int 
altera_avalon_jtag_uart_write_fd(alt_fd* fd, const char* buffer, int space)
{
 100acf0:	defffa04 	addi	sp,sp,-24
 100acf4:	dfc00515 	stw	ra,20(sp)
 100acf8:	df000415 	stw	fp,16(sp)
 100acfc:	df000404 	addi	fp,sp,16
 100ad00:	e13ffd15 	stw	r4,-12(fp)
 100ad04:	e17ffe15 	stw	r5,-8(fp)
 100ad08:	e1bfff15 	stw	r6,-4(fp)
    altera_avalon_jtag_uart_dev* dev = (altera_avalon_jtag_uart_dev*) fd->dev; 
 100ad0c:	e0bffd17 	ldw	r2,-12(fp)
 100ad10:	10800017 	ldw	r2,0(r2)
 100ad14:	e0bffc15 	stw	r2,-16(fp)

    return altera_avalon_jtag_uart_write(&dev->state, buffer, space,
 100ad18:	e0bffc17 	ldw	r2,-16(fp)
 100ad1c:	11000a04 	addi	r4,r2,40
 100ad20:	e0bffd17 	ldw	r2,-12(fp)
 100ad24:	11c00217 	ldw	r7,8(r2)
 100ad28:	e17ffe17 	ldw	r5,-8(fp)
 100ad2c:	e1bfff17 	ldw	r6,-4(fp)
 100ad30:	100b5040 	call	100b504 <altera_avalon_jtag_uart_write>
      fd->fd_flags);
}
 100ad34:	e037883a 	mov	sp,fp
 100ad38:	dfc00117 	ldw	ra,4(sp)
 100ad3c:	df000017 	ldw	fp,0(sp)
 100ad40:	dec00204 	addi	sp,sp,8
 100ad44:	f800283a 	ret

0100ad48 <altera_avalon_jtag_uart_close_fd>:

#ifndef ALTERA_AVALON_JTAG_UART_SMALL

int 
altera_avalon_jtag_uart_close_fd(alt_fd* fd)
{
 100ad48:	defffc04 	addi	sp,sp,-16
 100ad4c:	dfc00315 	stw	ra,12(sp)
 100ad50:	df000215 	stw	fp,8(sp)
 100ad54:	df000204 	addi	fp,sp,8
 100ad58:	e13fff15 	stw	r4,-4(fp)
    altera_avalon_jtag_uart_dev* dev = (altera_avalon_jtag_uart_dev*) fd->dev; 
 100ad5c:	e0bfff17 	ldw	r2,-4(fp)
 100ad60:	10800017 	ldw	r2,0(r2)
 100ad64:	e0bffe15 	stw	r2,-8(fp)

    return altera_avalon_jtag_uart_close(&dev->state, fd->fd_flags);
 100ad68:	e0bffe17 	ldw	r2,-8(fp)
 100ad6c:	11000a04 	addi	r4,r2,40
 100ad70:	e0bfff17 	ldw	r2,-4(fp)
 100ad74:	11400217 	ldw	r5,8(r2)
 100ad78:	100b1780 	call	100b178 <altera_avalon_jtag_uart_close>
}
 100ad7c:	e037883a 	mov	sp,fp
 100ad80:	dfc00117 	ldw	ra,4(sp)
 100ad84:	df000017 	ldw	fp,0(sp)
 100ad88:	dec00204 	addi	sp,sp,8
 100ad8c:	f800283a 	ret

0100ad90 <altera_avalon_jtag_uart_ioctl_fd>:

int 
altera_avalon_jtag_uart_ioctl_fd(alt_fd* fd, int req, void* arg)
{
 100ad90:	defffa04 	addi	sp,sp,-24
 100ad94:	dfc00515 	stw	ra,20(sp)
 100ad98:	df000415 	stw	fp,16(sp)
 100ad9c:	df000404 	addi	fp,sp,16
 100ada0:	e13ffd15 	stw	r4,-12(fp)
 100ada4:	e17ffe15 	stw	r5,-8(fp)
 100ada8:	e1bfff15 	stw	r6,-4(fp)
    altera_avalon_jtag_uart_dev* dev = (altera_avalon_jtag_uart_dev*) fd->dev;
 100adac:	e0bffd17 	ldw	r2,-12(fp)
 100adb0:	10800017 	ldw	r2,0(r2)
 100adb4:	e0bffc15 	stw	r2,-16(fp)

    return altera_avalon_jtag_uart_ioctl(&dev->state, req, arg);
 100adb8:	e0bffc17 	ldw	r2,-16(fp)
 100adbc:	11000a04 	addi	r4,r2,40
 100adc0:	e17ffe17 	ldw	r5,-8(fp)
 100adc4:	e1bfff17 	ldw	r6,-4(fp)
 100adc8:	100b1ec0 	call	100b1ec <altera_avalon_jtag_uart_ioctl>
}
 100adcc:	e037883a 	mov	sp,fp
 100add0:	dfc00117 	ldw	ra,4(sp)
 100add4:	df000017 	ldw	fp,0(sp)
 100add8:	dec00204 	addi	sp,sp,8
 100addc:	f800283a 	ret

0100ade0 <altera_avalon_jtag_uart_init>:
 * Return 1 on sucessful IRQ register and 0 on failure.
 */

void altera_avalon_jtag_uart_init(altera_avalon_jtag_uart_state* sp, 
                                  int irq_controller_id, int irq)
{
 100ade0:	defffa04 	addi	sp,sp,-24
 100ade4:	dfc00515 	stw	ra,20(sp)
 100ade8:	df000415 	stw	fp,16(sp)
 100adec:	df000404 	addi	fp,sp,16
 100adf0:	e13ffd15 	stw	r4,-12(fp)
 100adf4:	e17ffe15 	stw	r5,-8(fp)
 100adf8:	e1bfff15 	stw	r6,-4(fp)
  ALT_FLAG_CREATE(&sp->events, 0);
  ALT_SEM_CREATE(&sp->read_lock, 1);
  ALT_SEM_CREATE(&sp->write_lock, 1);

  /* enable read interrupts at the device */
  sp->irq_enable = ALTERA_AVALON_JTAG_UART_CONTROL_RE_MSK;
 100adfc:	e0fffd17 	ldw	r3,-12(fp)
 100ae00:	00800044 	movi	r2,1
 100ae04:	18800815 	stw	r2,32(r3)

  IOWR_ALTERA_AVALON_JTAG_UART_CONTROL(sp->base, sp->irq_enable); 
 100ae08:	e0bffd17 	ldw	r2,-12(fp)
 100ae0c:	10800017 	ldw	r2,0(r2)
 100ae10:	11000104 	addi	r4,r2,4
 100ae14:	e0bffd17 	ldw	r2,-12(fp)
 100ae18:	10800817 	ldw	r2,32(r2)
 100ae1c:	1007883a 	mov	r3,r2
 100ae20:	2005883a 	mov	r2,r4
 100ae24:	10c00035 	stwio	r3,0(r2)
  
  /* register the interrupt handler */
#ifdef ALT_ENHANCED_INTERRUPT_API_PRESENT
  alt_ic_isr_register(irq_controller_id, irq, altera_avalon_jtag_uart_irq, 
 100ae28:	e13ffe17 	ldw	r4,-8(fp)
 100ae2c:	e17fff17 	ldw	r5,-4(fp)
 100ae30:	d8000015 	stw	zero,0(sp)
 100ae34:	01804074 	movhi	r6,257
 100ae38:	31aba804 	addi	r6,r6,-20832
 100ae3c:	e1fffd17 	ldw	r7,-12(fp)
 100ae40:	100c0b00 	call	100c0b0 <alt_ic_isr_register>
#else
  alt_irq_register(irq, sp, altera_avalon_jtag_uart_irq);
#endif  

  /* Register an alarm to go off every second to check for presence of host */
  sp->host_inactive = 0;
 100ae44:	e0bffd17 	ldw	r2,-12(fp)
 100ae48:	10000915 	stw	zero,36(r2)

  if (alt_alarm_start(&sp->alarm, alt_ticks_per_second(), 
 100ae4c:	e0bffd17 	ldw	r2,-12(fp)
 100ae50:	11000204 	addi	r4,r2,8
 * Obtain the system clock rate in ticks/s. 
 */

static ALT_INLINE alt_u32 ALT_ALWAYS_INLINE alt_ticks_per_second (void)
{
  return _alt_tick_rate;
 100ae54:	00804074 	movhi	r2,257
 100ae58:	10835004 	addi	r2,r2,3392
 100ae5c:	10800017 	ldw	r2,0(r2)
 100ae60:	100b883a 	mov	r5,r2
 100ae64:	01804074 	movhi	r6,257
 100ae68:	31ac3204 	addi	r6,r6,-20280
 100ae6c:	e1fffd17 	ldw	r7,-12(fp)
 100ae70:	100bcb40 	call	100bcb4 <alt_alarm_start>
 100ae74:	1004403a 	cmpge	r2,r2,zero
 100ae78:	1000041e 	bne	r2,zero,100ae8c <altera_avalon_jtag_uart_init+0xac>
    &altera_avalon_jtag_uart_timeout, sp) < 0)
  {
    /* If we can't set the alarm then record "don't know if host present" 
     * and behave as though the host is present.
     */
    sp->timeout = INT_MAX;
 100ae7c:	e0fffd17 	ldw	r3,-12(fp)
 100ae80:	00a00034 	movhi	r2,32768
 100ae84:	10bfffc4 	addi	r2,r2,-1
 100ae88:	18800115 	stw	r2,4(r3)
  }

  /* ALT_LOG - see altera_hal/HAL/inc/sys/alt_log_printf.h */ 
  ALT_LOG_JTAG_UART_ALARM_REGISTER(sp, sp->base);
}
 100ae8c:	e037883a 	mov	sp,fp
 100ae90:	dfc00117 	ldw	ra,4(sp)
 100ae94:	df000017 	ldw	fp,0(sp)
 100ae98:	dec00204 	addi	sp,sp,8
 100ae9c:	f800283a 	ret

0100aea0 <altera_avalon_jtag_uart_irq>:
#ifdef ALT_ENHANCED_INTERRUPT_API_PRESENT
static void altera_avalon_jtag_uart_irq(void* context)
#else
static void altera_avalon_jtag_uart_irq(void* context, alt_u32 id)
#endif
{
 100aea0:	defff804 	addi	sp,sp,-32
 100aea4:	df000715 	stw	fp,28(sp)
 100aea8:	df000704 	addi	fp,sp,28
 100aeac:	e13fff15 	stw	r4,-4(fp)
  altera_avalon_jtag_uart_state* sp = (altera_avalon_jtag_uart_state*) context;
 100aeb0:	e0bfff17 	ldw	r2,-4(fp)
 100aeb4:	e0bffe15 	stw	r2,-8(fp)
  unsigned int base = sp->base;
 100aeb8:	e0bffe17 	ldw	r2,-8(fp)
 100aebc:	10800017 	ldw	r2,0(r2)
 100aec0:	e0bffd15 	stw	r2,-12(fp)
 100aec4:	00000006 	br	100aec8 <altera_avalon_jtag_uart_irq+0x28>
  /* ALT_LOG - see altera_hal/HAL/inc/sys/alt_log_printf.h */ 
  ALT_LOG_JTAG_UART_ISR_FUNCTION(base, sp);

  for ( ; ; )
  {
    unsigned int control = IORD_ALTERA_AVALON_JTAG_UART_CONTROL(base);
 100aec8:	e0bffd17 	ldw	r2,-12(fp)
 100aecc:	10800104 	addi	r2,r2,4
 100aed0:	10800037 	ldwio	r2,0(r2)
 100aed4:	e0bffc15 	stw	r2,-16(fp)

    /* Return once nothing more to do */
    if ((control & (ALTERA_AVALON_JTAG_UART_CONTROL_RI_MSK | ALTERA_AVALON_JTAG_UART_CONTROL_WI_MSK)) == 0)
 100aed8:	e0bffc17 	ldw	r2,-16(fp)
 100aedc:	1080c00c 	andi	r2,r2,768
 100aee0:	1005003a 	cmpeq	r2,r2,zero
 100aee4:	1000741e 	bne	r2,zero,100b0b8 <altera_avalon_jtag_uart_irq+0x218>
      break;

    if (control & ALTERA_AVALON_JTAG_UART_CONTROL_RI_MSK)
 100aee8:	e0bffc17 	ldw	r2,-16(fp)
 100aeec:	1080400c 	andi	r2,r2,256
 100aef0:	1005003a 	cmpeq	r2,r2,zero
 100aef4:	1000351e 	bne	r2,zero,100afcc <altera_avalon_jtag_uart_irq+0x12c>
    {
      /* process a read irq.  Start by assuming that there is data in the
       * receive FIFO (otherwise why would we have been interrupted?)
       */
      unsigned int data = 1 << ALTERA_AVALON_JTAG_UART_DATA_RAVAIL_OFST;
 100aef8:	00800074 	movhi	r2,1
 100aefc:	e0bffb15 	stw	r2,-20(fp)
      for ( ; ; )
      {
        /* Check whether there is space in the buffer.  If not then we must not
         * read any characters from the buffer as they will be lost.
         */
        unsigned int next = (sp->rx_in + 1) % ALTERA_AVALON_JTAG_UART_BUF_LEN;
 100af00:	e0bffe17 	ldw	r2,-8(fp)
 100af04:	10800a17 	ldw	r2,40(r2)
 100af08:	10800044 	addi	r2,r2,1
 100af0c:	1081ffcc 	andi	r2,r2,2047
 100af10:	e0bffa15 	stw	r2,-24(fp)
        if (next == sp->rx_out)
 100af14:	e0bffe17 	ldw	r2,-8(fp)
 100af18:	10c00b17 	ldw	r3,44(r2)
 100af1c:	e0bffa17 	ldw	r2,-24(fp)
 100af20:	18801626 	beq	r3,r2,100af7c <altera_avalon_jtag_uart_irq+0xdc>
          break;

        /* Try to remove a character from the FIFO and find out whether there
         * are any more characters remaining.
         */
        data = IORD_ALTERA_AVALON_JTAG_UART_DATA(base);
 100af24:	e0bffd17 	ldw	r2,-12(fp)
 100af28:	10800037 	ldwio	r2,0(r2)
 100af2c:	e0bffb15 	stw	r2,-20(fp)
        
        if ((data & ALTERA_AVALON_JTAG_UART_DATA_RVALID_MSK) == 0)
 100af30:	e0bffb17 	ldw	r2,-20(fp)
 100af34:	10a0000c 	andi	r2,r2,32768
 100af38:	1005003a 	cmpeq	r2,r2,zero
 100af3c:	10000f1e 	bne	r2,zero,100af7c <altera_avalon_jtag_uart_irq+0xdc>
          break;

        sp->rx_buf[sp->rx_in] = (data & ALTERA_AVALON_JTAG_UART_DATA_DATA_MSK) >> ALTERA_AVALON_JTAG_UART_DATA_DATA_OFST;
 100af40:	e0bffe17 	ldw	r2,-8(fp)
 100af44:	10c00a17 	ldw	r3,40(r2)
 100af48:	e0bffb17 	ldw	r2,-20(fp)
 100af4c:	1009883a 	mov	r4,r2
 100af50:	e0bffe17 	ldw	r2,-8(fp)
 100af54:	1885883a 	add	r2,r3,r2
 100af58:	10800e04 	addi	r2,r2,56
 100af5c:	11000005 	stb	r4,0(r2)
        sp->rx_in = (sp->rx_in + 1) % ALTERA_AVALON_JTAG_UART_BUF_LEN;
 100af60:	e0bffe17 	ldw	r2,-8(fp)
 100af64:	10800a17 	ldw	r2,40(r2)
 100af68:	10800044 	addi	r2,r2,1
 100af6c:	10c1ffcc 	andi	r3,r2,2047
 100af70:	e0bffe17 	ldw	r2,-8(fp)
 100af74:	10c00a15 	stw	r3,40(r2)

        /* Post an event to notify jtag_uart_read that a character has been read */
        ALT_FLAG_POST (sp->events, ALT_JTAG_UART_READ_RDY, OS_FLAG_SET);
      }
 100af78:	003fe106 	br	100af00 <altera_avalon_jtag_uart_irq+0x60>

      if (data & ALTERA_AVALON_JTAG_UART_DATA_RAVAIL_MSK)
 100af7c:	e0bffb17 	ldw	r2,-20(fp)
 100af80:	10bfffec 	andhi	r2,r2,65535
 100af84:	1005003a 	cmpeq	r2,r2,zero
 100af88:	1000101e 	bne	r2,zero,100afcc <altera_avalon_jtag_uart_irq+0x12c>
      {
        /* If there is still data available here then the buffer is full 
         * so turn off receive interrupts until some space becomes available.
         */
        sp->irq_enable &= ~ALTERA_AVALON_JTAG_UART_CONTROL_RE_MSK;
 100af8c:	e0bffe17 	ldw	r2,-8(fp)
 100af90:	10c00817 	ldw	r3,32(r2)
 100af94:	00bfff84 	movi	r2,-2
 100af98:	1886703a 	and	r3,r3,r2
 100af9c:	e0bffe17 	ldw	r2,-8(fp)
 100afa0:	10c00815 	stw	r3,32(r2)
        IOWR_ALTERA_AVALON_JTAG_UART_CONTROL(base, sp->irq_enable);
 100afa4:	e0bffd17 	ldw	r2,-12(fp)
 100afa8:	11000104 	addi	r4,r2,4
 100afac:	e0bffe17 	ldw	r2,-8(fp)
 100afb0:	10800817 	ldw	r2,32(r2)
 100afb4:	1007883a 	mov	r3,r2
 100afb8:	2005883a 	mov	r2,r4
 100afbc:	10c00035 	stwio	r3,0(r2)
        
        /* Dummy read to ensure IRQ is cleared prior to ISR completion */
        IORD_ALTERA_AVALON_JTAG_UART_CONTROL(base);
 100afc0:	e0bffd17 	ldw	r2,-12(fp)
 100afc4:	10800104 	addi	r2,r2,4
 100afc8:	10800037 	ldwio	r2,0(r2)
      }
    }

    if (control & ALTERA_AVALON_JTAG_UART_CONTROL_WI_MSK)
 100afcc:	e0bffc17 	ldw	r2,-16(fp)
 100afd0:	1080800c 	andi	r2,r2,512
 100afd4:	1005003a 	cmpeq	r2,r2,zero
 100afd8:	103fbb1e 	bne	r2,zero,100aec8 <altera_avalon_jtag_uart_irq+0x28>
    {
      /* process a write irq */
      unsigned int space = (control & ALTERA_AVALON_JTAG_UART_CONTROL_WSPACE_MSK) >> ALTERA_AVALON_JTAG_UART_CONTROL_WSPACE_OFST;
 100afdc:	e0bffc17 	ldw	r2,-16(fp)
 100afe0:	10bfffec 	andhi	r2,r2,65535
 100afe4:	1004d43a 	srli	r2,r2,16
 100afe8:	e0bff915 	stw	r2,-28(fp)

      while (space > 0 && sp->tx_out != sp->tx_in)
 100afec:	00001506 	br	100b044 <altera_avalon_jtag_uart_irq+0x1a4>
      {
        IOWR_ALTERA_AVALON_JTAG_UART_DATA(base, sp->tx_buf[sp->tx_out]);
 100aff0:	e13ffd17 	ldw	r4,-12(fp)
 100aff4:	e0bffe17 	ldw	r2,-8(fp)
 100aff8:	10c00d17 	ldw	r3,52(r2)
 100affc:	e0bffe17 	ldw	r2,-8(fp)
 100b000:	1885883a 	add	r2,r3,r2
 100b004:	10820e04 	addi	r2,r2,2104
 100b008:	10800003 	ldbu	r2,0(r2)
 100b00c:	10c03fcc 	andi	r3,r2,255
 100b010:	18c0201c 	xori	r3,r3,128
 100b014:	18ffe004 	addi	r3,r3,-128
 100b018:	2005883a 	mov	r2,r4
 100b01c:	10c00035 	stwio	r3,0(r2)

        sp->tx_out = (sp->tx_out + 1) % ALTERA_AVALON_JTAG_UART_BUF_LEN;
 100b020:	e0bffe17 	ldw	r2,-8(fp)
 100b024:	10800d17 	ldw	r2,52(r2)
 100b028:	10800044 	addi	r2,r2,1
 100b02c:	10c1ffcc 	andi	r3,r2,2047
 100b030:	e0bffe17 	ldw	r2,-8(fp)
 100b034:	10c00d15 	stw	r3,52(r2)

        /* Post an event to notify jtag_uart_write that a character has been written */
        ALT_FLAG_POST (sp->events, ALT_JTAG_UART_WRITE_RDY, OS_FLAG_SET);

        space--;
 100b038:	e0bff917 	ldw	r2,-28(fp)
 100b03c:	10bfffc4 	addi	r2,r2,-1
 100b040:	e0bff915 	stw	r2,-28(fp)
    if (control & ALTERA_AVALON_JTAG_UART_CONTROL_WI_MSK)
    {
      /* process a write irq */
      unsigned int space = (control & ALTERA_AVALON_JTAG_UART_CONTROL_WSPACE_MSK) >> ALTERA_AVALON_JTAG_UART_CONTROL_WSPACE_OFST;

      while (space > 0 && sp->tx_out != sp->tx_in)
 100b044:	e0bff917 	ldw	r2,-28(fp)
 100b048:	1005003a 	cmpeq	r2,r2,zero
 100b04c:	1000051e 	bne	r2,zero,100b064 <altera_avalon_jtag_uart_irq+0x1c4>
 100b050:	e0bffe17 	ldw	r2,-8(fp)
 100b054:	10c00d17 	ldw	r3,52(r2)
 100b058:	e0bffe17 	ldw	r2,-8(fp)
 100b05c:	10800c17 	ldw	r2,48(r2)
 100b060:	18bfe31e 	bne	r3,r2,100aff0 <altera_avalon_jtag_uart_irq+0x150>
        ALT_FLAG_POST (sp->events, ALT_JTAG_UART_WRITE_RDY, OS_FLAG_SET);

        space--;
      }

      if (space > 0)
 100b064:	e0bff917 	ldw	r2,-28(fp)
 100b068:	1005003a 	cmpeq	r2,r2,zero
 100b06c:	103f961e 	bne	r2,zero,100aec8 <altera_avalon_jtag_uart_irq+0x28>
      {
        /* If we don't have any more data available then turn off the TX interrupt */
        sp->irq_enable &= ~ALTERA_AVALON_JTAG_UART_CONTROL_WE_MSK;
 100b070:	e0bffe17 	ldw	r2,-8(fp)
 100b074:	10c00817 	ldw	r3,32(r2)
 100b078:	00bfff44 	movi	r2,-3
 100b07c:	1886703a 	and	r3,r3,r2
 100b080:	e0bffe17 	ldw	r2,-8(fp)
 100b084:	10c00815 	stw	r3,32(r2)
        IOWR_ALTERA_AVALON_JTAG_UART_CONTROL(sp->base, sp->irq_enable);
 100b088:	e0bffe17 	ldw	r2,-8(fp)
 100b08c:	10800017 	ldw	r2,0(r2)
 100b090:	11000104 	addi	r4,r2,4
 100b094:	e0bffe17 	ldw	r2,-8(fp)
 100b098:	10800817 	ldw	r2,32(r2)
 100b09c:	1007883a 	mov	r3,r2
 100b0a0:	2005883a 	mov	r2,r4
 100b0a4:	10c00035 	stwio	r3,0(r2)
        
        /* Dummy read to ensure IRQ is cleared prior to ISR completion */
        IORD_ALTERA_AVALON_JTAG_UART_CONTROL(base);
 100b0a8:	e0bffd17 	ldw	r2,-12(fp)
 100b0ac:	10800104 	addi	r2,r2,4
 100b0b0:	10800037 	ldwio	r2,0(r2)
      }
    }
  }
 100b0b4:	003f8406 	br	100aec8 <altera_avalon_jtag_uart_irq+0x28>
}
 100b0b8:	e037883a 	mov	sp,fp
 100b0bc:	df000017 	ldw	fp,0(sp)
 100b0c0:	dec00104 	addi	sp,sp,4
 100b0c4:	f800283a 	ret

0100b0c8 <altera_avalon_jtag_uart_timeout>:
 * Timeout routine is called every second
 */

static alt_u32 
altera_avalon_jtag_uart_timeout(void* context) 
{
 100b0c8:	defffc04 	addi	sp,sp,-16
 100b0cc:	df000315 	stw	fp,12(sp)
 100b0d0:	df000304 	addi	fp,sp,12
 100b0d4:	e13fff15 	stw	r4,-4(fp)
  altera_avalon_jtag_uart_state* sp = (altera_avalon_jtag_uart_state *) context;
 100b0d8:	e0bfff17 	ldw	r2,-4(fp)
 100b0dc:	e0bffe15 	stw	r2,-8(fp)

  unsigned int control = IORD_ALTERA_AVALON_JTAG_UART_CONTROL(sp->base);
 100b0e0:	e0bffe17 	ldw	r2,-8(fp)
 100b0e4:	10800017 	ldw	r2,0(r2)
 100b0e8:	10800104 	addi	r2,r2,4
 100b0ec:	10800037 	ldwio	r2,0(r2)
 100b0f0:	e0bffd15 	stw	r2,-12(fp)

  if (control & ALTERA_AVALON_JTAG_UART_CONTROL_AC_MSK)
 100b0f4:	e0bffd17 	ldw	r2,-12(fp)
 100b0f8:	1081000c 	andi	r2,r2,1024
 100b0fc:	1005003a 	cmpeq	r2,r2,zero
 100b100:	10000c1e 	bne	r2,zero,100b134 <altera_avalon_jtag_uart_timeout+0x6c>
  {
    IOWR_ALTERA_AVALON_JTAG_UART_CONTROL(sp->base, sp->irq_enable | ALTERA_AVALON_JTAG_UART_CONTROL_AC_MSK);
 100b104:	e0bffe17 	ldw	r2,-8(fp)
 100b108:	10800017 	ldw	r2,0(r2)
 100b10c:	11000104 	addi	r4,r2,4
 100b110:	e0bffe17 	ldw	r2,-8(fp)
 100b114:	10800817 	ldw	r2,32(r2)
 100b118:	10810014 	ori	r2,r2,1024
 100b11c:	1007883a 	mov	r3,r2
 100b120:	2005883a 	mov	r2,r4
 100b124:	10c00035 	stwio	r3,0(r2)
    sp->host_inactive = 0;
 100b128:	e0bffe17 	ldw	r2,-8(fp)
 100b12c:	10000915 	stw	zero,36(r2)
 100b130:	00000a06 	br	100b15c <altera_avalon_jtag_uart_timeout+0x94>
  }
  else if (sp->host_inactive < INT_MAX - 2) {
 100b134:	e0bffe17 	ldw	r2,-8(fp)
 100b138:	10c00917 	ldw	r3,36(r2)
 100b13c:	00a00034 	movhi	r2,32768
 100b140:	10bfff04 	addi	r2,r2,-4
 100b144:	10c00536 	bltu	r2,r3,100b15c <altera_avalon_jtag_uart_timeout+0x94>
    sp->host_inactive++;
 100b148:	e0bffe17 	ldw	r2,-8(fp)
 100b14c:	10800917 	ldw	r2,36(r2)
 100b150:	10c00044 	addi	r3,r2,1
 100b154:	e0bffe17 	ldw	r2,-8(fp)
 100b158:	10c00915 	stw	r3,36(r2)
 100b15c:	00804074 	movhi	r2,257
 100b160:	10835004 	addi	r2,r2,3392
 100b164:	10800017 	ldw	r2,0(r2)
      ALT_FLAG_POST (sp->events, ALT_JTAG_UART_TIMEOUT, OS_FLAG_SET);
    }
  }

  return alt_ticks_per_second();
}
 100b168:	e037883a 	mov	sp,fp
 100b16c:	df000017 	ldw	fp,0(sp)
 100b170:	dec00104 	addi	sp,sp,4
 100b174:	f800283a 	ret

0100b178 <altera_avalon_jtag_uart_close>:
 * The close routine is not implemented for the small driver; instead it will
 * map to null. This is because the small driver simply waits while characters
 * are transmitted; there is no interrupt-serviced buffer to empty 
 */
int altera_avalon_jtag_uart_close(altera_avalon_jtag_uart_state* sp, int flags)
{
 100b178:	defffc04 	addi	sp,sp,-16
 100b17c:	df000315 	stw	fp,12(sp)
 100b180:	df000304 	addi	fp,sp,12
 100b184:	e13ffd15 	stw	r4,-12(fp)
 100b188:	e17ffe15 	stw	r5,-8(fp)
  /* 
   * Wait for all transmit data to be emptied by the JTAG UART ISR, or
   * for a host-inactivity timeout, in which case transmit data will be lost
   */
  while ( (sp->tx_out != sp->tx_in) && (sp->host_inactive < sp->timeout) ) {
 100b18c:	00000706 	br	100b1ac <altera_avalon_jtag_uart_close+0x34>
    if (flags & O_NONBLOCK) {
 100b190:	e0bffe17 	ldw	r2,-8(fp)
 100b194:	1090000c 	andi	r2,r2,16384
 100b198:	1005003a 	cmpeq	r2,r2,zero
 100b19c:	1000031e 	bne	r2,zero,100b1ac <altera_avalon_jtag_uart_close+0x34>
      return -EWOULDBLOCK; 
 100b1a0:	00bffd44 	movi	r2,-11
 100b1a4:	e0bfff15 	stw	r2,-4(fp)
 100b1a8:	00000b06 	br	100b1d8 <altera_avalon_jtag_uart_close+0x60>
{
  /* 
   * Wait for all transmit data to be emptied by the JTAG UART ISR, or
   * for a host-inactivity timeout, in which case transmit data will be lost
   */
  while ( (sp->tx_out != sp->tx_in) && (sp->host_inactive < sp->timeout) ) {
 100b1ac:	e0bffd17 	ldw	r2,-12(fp)
 100b1b0:	10c00d17 	ldw	r3,52(r2)
 100b1b4:	e0bffd17 	ldw	r2,-12(fp)
 100b1b8:	10800c17 	ldw	r2,48(r2)
 100b1bc:	18800526 	beq	r3,r2,100b1d4 <altera_avalon_jtag_uart_close+0x5c>
 100b1c0:	e0bffd17 	ldw	r2,-12(fp)
 100b1c4:	10c00917 	ldw	r3,36(r2)
 100b1c8:	e0bffd17 	ldw	r2,-12(fp)
 100b1cc:	10800117 	ldw	r2,4(r2)
 100b1d0:	18bfef36 	bltu	r3,r2,100b190 <altera_avalon_jtag_uart_close+0x18>
    if (flags & O_NONBLOCK) {
      return -EWOULDBLOCK; 
    }
  }

  return 0;
 100b1d4:	e03fff15 	stw	zero,-4(fp)
 100b1d8:	e0bfff17 	ldw	r2,-4(fp)
}
 100b1dc:	e037883a 	mov	sp,fp
 100b1e0:	df000017 	ldw	fp,0(sp)
 100b1e4:	dec00104 	addi	sp,sp,4
 100b1e8:	f800283a 	ret

0100b1ec <altera_avalon_jtag_uart_ioctl>:
/* ----------------------------------------------------------- */

int 
altera_avalon_jtag_uart_ioctl(altera_avalon_jtag_uart_state* sp, int req,
  void* arg)
{
 100b1ec:	defff804 	addi	sp,sp,-32
 100b1f0:	df000715 	stw	fp,28(sp)
 100b1f4:	df000704 	addi	fp,sp,28
 100b1f8:	e13ffb15 	stw	r4,-20(fp)
 100b1fc:	e17ffc15 	stw	r5,-16(fp)
 100b200:	e1bffd15 	stw	r6,-12(fp)
  int rc = -ENOTTY;
 100b204:	00bff9c4 	movi	r2,-25
 100b208:	e0bffa15 	stw	r2,-24(fp)

  switch (req)
 100b20c:	e0bffc17 	ldw	r2,-16(fp)
 100b210:	e0bfff15 	stw	r2,-4(fp)
 100b214:	e0ffff17 	ldw	r3,-4(fp)
 100b218:	189a8060 	cmpeqi	r2,r3,27137
 100b21c:	1000041e 	bne	r2,zero,100b230 <altera_avalon_jtag_uart_ioctl+0x44>
 100b220:	e0ffff17 	ldw	r3,-4(fp)
 100b224:	189a80a0 	cmpeqi	r2,r3,27138
 100b228:	10001b1e 	bne	r2,zero,100b298 <altera_avalon_jtag_uart_ioctl+0xac>
 100b22c:	00002706 	br	100b2cc <altera_avalon_jtag_uart_ioctl+0xe0>
  {
  case TIOCSTIMEOUT:
    /* Set the time to wait until assuming host is not connected */
    if (sp->timeout != INT_MAX)
 100b230:	e0bffb17 	ldw	r2,-20(fp)
 100b234:	10c00117 	ldw	r3,4(r2)
 100b238:	00a00034 	movhi	r2,32768
 100b23c:	10bfffc4 	addi	r2,r2,-1
 100b240:	18802226 	beq	r3,r2,100b2cc <altera_avalon_jtag_uart_ioctl+0xe0>
    {
      int timeout = *((int *)arg);
 100b244:	e0bffd17 	ldw	r2,-12(fp)
 100b248:	10800017 	ldw	r2,0(r2)
 100b24c:	e0bff915 	stw	r2,-28(fp)
      sp->timeout = (timeout >= 2 && timeout < INT_MAX) ? timeout : INT_MAX - 1;
 100b250:	e0bff917 	ldw	r2,-28(fp)
 100b254:	10800090 	cmplti	r2,r2,2
 100b258:	1000071e 	bne	r2,zero,100b278 <altera_avalon_jtag_uart_ioctl+0x8c>
 100b25c:	e0fff917 	ldw	r3,-28(fp)
 100b260:	00a00034 	movhi	r2,32768
 100b264:	10bfffc4 	addi	r2,r2,-1
 100b268:	18800326 	beq	r3,r2,100b278 <altera_avalon_jtag_uart_ioctl+0x8c>
 100b26c:	e0bff917 	ldw	r2,-28(fp)
 100b270:	e0bffe15 	stw	r2,-8(fp)
 100b274:	00000306 	br	100b284 <altera_avalon_jtag_uart_ioctl+0x98>
 100b278:	00e00034 	movhi	r3,32768
 100b27c:	18ffff84 	addi	r3,r3,-2
 100b280:	e0fffe15 	stw	r3,-8(fp)
 100b284:	e0bffb17 	ldw	r2,-20(fp)
 100b288:	e0fffe17 	ldw	r3,-8(fp)
 100b28c:	10c00115 	stw	r3,4(r2)
      rc = 0;
 100b290:	e03ffa15 	stw	zero,-24(fp)
    }
    break;
 100b294:	00000d06 	br	100b2cc <altera_avalon_jtag_uart_ioctl+0xe0>

  case TIOCGCONNECTED:
    /* Find out whether host is connected */
    if (sp->timeout != INT_MAX)
 100b298:	e0bffb17 	ldw	r2,-20(fp)
 100b29c:	10c00117 	ldw	r3,4(r2)
 100b2a0:	00a00034 	movhi	r2,32768
 100b2a4:	10bfffc4 	addi	r2,r2,-1
 100b2a8:	18800826 	beq	r3,r2,100b2cc <altera_avalon_jtag_uart_ioctl+0xe0>
    {
      *((int *)arg) = (sp->host_inactive < sp->timeout) ? 1 : 0;
 100b2ac:	e13ffd17 	ldw	r4,-12(fp)
 100b2b0:	e0bffb17 	ldw	r2,-20(fp)
 100b2b4:	10c00917 	ldw	r3,36(r2)
 100b2b8:	e0bffb17 	ldw	r2,-20(fp)
 100b2bc:	10800117 	ldw	r2,4(r2)
 100b2c0:	1885803a 	cmpltu	r2,r3,r2
 100b2c4:	20800015 	stw	r2,0(r4)
      rc = 0;
 100b2c8:	e03ffa15 	stw	zero,-24(fp)

  default:
    break;
  }

  return rc;
 100b2cc:	e0bffa17 	ldw	r2,-24(fp)
}
 100b2d0:	e037883a 	mov	sp,fp
 100b2d4:	df000017 	ldw	fp,0(sp)
 100b2d8:	dec00104 	addi	sp,sp,4
 100b2dc:	f800283a 	ret

0100b2e0 <altera_avalon_jtag_uart_read>:
/* ----------------------------------------------------------- */

int 
altera_avalon_jtag_uart_read(altera_avalon_jtag_uart_state* sp, 
  char * buffer, int space, int flags)
{
 100b2e0:	defff204 	addi	sp,sp,-56
 100b2e4:	dfc00d15 	stw	ra,52(sp)
 100b2e8:	df000c15 	stw	fp,48(sp)
 100b2ec:	df000c04 	addi	fp,sp,48
 100b2f0:	e13ffb15 	stw	r4,-20(fp)
 100b2f4:	e17ffc15 	stw	r5,-16(fp)
 100b2f8:	e1bffd15 	stw	r6,-12(fp)
 100b2fc:	e1fffe15 	stw	r7,-8(fp)
  char * ptr = buffer;
 100b300:	e0bffc17 	ldw	r2,-16(fp)
 100b304:	e0bffa15 	stw	r2,-24(fp)
   * When running in a multi threaded environment, obtain the "read_lock"
   * semaphore. This ensures that reading from the device is thread-safe.
   */
  ALT_SEM_PEND (sp->read_lock, 0);

  while (space > 0)
 100b308:	00004806 	br	100b42c <altera_avalon_jtag_uart_read+0x14c>
    unsigned int in, out;

    /* Read as much data as possible */
    do
    {
      in  = sp->rx_in;
 100b30c:	e0bffb17 	ldw	r2,-20(fp)
 100b310:	10800a17 	ldw	r2,40(r2)
 100b314:	e0bff715 	stw	r2,-36(fp)
      out = sp->rx_out;
 100b318:	e0bffb17 	ldw	r2,-20(fp)
 100b31c:	10800b17 	ldw	r2,44(r2)
 100b320:	e0bff615 	stw	r2,-40(fp)

      if (in >= out)
 100b324:	e0fff717 	ldw	r3,-36(fp)
 100b328:	e0bff617 	ldw	r2,-40(fp)
 100b32c:	18800536 	bltu	r3,r2,100b344 <altera_avalon_jtag_uart_read+0x64>
        n = in - out;
 100b330:	e0bff717 	ldw	r2,-36(fp)
 100b334:	e0fff617 	ldw	r3,-40(fp)
 100b338:	10c5c83a 	sub	r2,r2,r3
 100b33c:	e0bff815 	stw	r2,-32(fp)
 100b340:	00000406 	br	100b354 <altera_avalon_jtag_uart_read+0x74>
      else
        n = ALTERA_AVALON_JTAG_UART_BUF_LEN - out;
 100b344:	00820004 	movi	r2,2048
 100b348:	e0fff617 	ldw	r3,-40(fp)
 100b34c:	10c5c83a 	sub	r2,r2,r3
 100b350:	e0bff815 	stw	r2,-32(fp)

      if (n == 0)
 100b354:	e0bff817 	ldw	r2,-32(fp)
 100b358:	1005003a 	cmpeq	r2,r2,zero
 100b35c:	10001f1e 	bne	r2,zero,100b3dc <altera_avalon_jtag_uart_read+0xfc>
        break; /* No more data available */

      if (n > space)
 100b360:	e0fffd17 	ldw	r3,-12(fp)
 100b364:	e0bff817 	ldw	r2,-32(fp)
 100b368:	1880022e 	bgeu	r3,r2,100b374 <altera_avalon_jtag_uart_read+0x94>
        n = space;
 100b36c:	e0bffd17 	ldw	r2,-12(fp)
 100b370:	e0bff815 	stw	r2,-32(fp)

      memcpy(ptr, sp->rx_buf + out, n);
 100b374:	e0bffb17 	ldw	r2,-20(fp)
 100b378:	10c00e04 	addi	r3,r2,56
 100b37c:	e0bff617 	ldw	r2,-40(fp)
 100b380:	1887883a 	add	r3,r3,r2
 100b384:	e0bffa17 	ldw	r2,-24(fp)
 100b388:	1009883a 	mov	r4,r2
 100b38c:	180b883a 	mov	r5,r3
 100b390:	e1bff817 	ldw	r6,-32(fp)
 100b394:	100574c0 	call	100574c <memcpy>
      ptr   += n;
 100b398:	e0fff817 	ldw	r3,-32(fp)
 100b39c:	e0bffa17 	ldw	r2,-24(fp)
 100b3a0:	10c5883a 	add	r2,r2,r3
 100b3a4:	e0bffa15 	stw	r2,-24(fp)
      space -= n;
 100b3a8:	e0fffd17 	ldw	r3,-12(fp)
 100b3ac:	e0bff817 	ldw	r2,-32(fp)
 100b3b0:	1885c83a 	sub	r2,r3,r2
 100b3b4:	e0bffd15 	stw	r2,-12(fp)

      sp->rx_out = (out + n) % ALTERA_AVALON_JTAG_UART_BUF_LEN;
 100b3b8:	e0fff617 	ldw	r3,-40(fp)
 100b3bc:	e0bff817 	ldw	r2,-32(fp)
 100b3c0:	1885883a 	add	r2,r3,r2
 100b3c4:	10c1ffcc 	andi	r3,r2,2047
 100b3c8:	e0bffb17 	ldw	r2,-20(fp)
 100b3cc:	10c00b15 	stw	r3,44(r2)
    }
    while (space > 0);
 100b3d0:	e0bffd17 	ldw	r2,-12(fp)
 100b3d4:	10800048 	cmpgei	r2,r2,1
 100b3d8:	103fcc1e 	bne	r2,zero,100b30c <altera_avalon_jtag_uart_read+0x2c>

    /* If we read any data then return it */
    if (ptr != buffer)
 100b3dc:	e0fffa17 	ldw	r3,-24(fp)
 100b3e0:	e0bffc17 	ldw	r2,-16(fp)
 100b3e4:	1880141e 	bne	r3,r2,100b438 <altera_avalon_jtag_uart_read+0x158>
      break;

    /* If in non-blocking mode then return error */
    if (flags & O_NONBLOCK)
 100b3e8:	e0bffe17 	ldw	r2,-8(fp)
 100b3ec:	1090000c 	andi	r2,r2,16384
 100b3f0:	1004c03a 	cmpne	r2,r2,zero
 100b3f4:	1000101e 	bne	r2,zero,100b438 <altera_avalon_jtag_uart_read+0x158>
      while (in == sp->rx_in && sp->host_inactive < sp->timeout)
        ;
    }
#else
    /* No OS: Always spin */
    while (in == sp->rx_in && sp->host_inactive < sp->timeout)
 100b3f8:	e0bffb17 	ldw	r2,-20(fp)
 100b3fc:	10c00a17 	ldw	r3,40(r2)
 100b400:	e0bff717 	ldw	r2,-36(fp)
 100b404:	1880051e 	bne	r3,r2,100b41c <altera_avalon_jtag_uart_read+0x13c>
 100b408:	e0bffb17 	ldw	r2,-20(fp)
 100b40c:	10c00917 	ldw	r3,36(r2)
 100b410:	e0bffb17 	ldw	r2,-20(fp)
 100b414:	10800117 	ldw	r2,4(r2)
 100b418:	18bff736 	bltu	r3,r2,100b3f8 <altera_avalon_jtag_uart_read+0x118>
      ;
#endif /* __ucosii__ */

    if (in == sp->rx_in)
 100b41c:	e0bffb17 	ldw	r2,-20(fp)
 100b420:	10c00a17 	ldw	r3,40(r2)
 100b424:	e0bff717 	ldw	r2,-36(fp)
 100b428:	18800326 	beq	r3,r2,100b438 <altera_avalon_jtag_uart_read+0x158>
   * When running in a multi threaded environment, obtain the "read_lock"
   * semaphore. This ensures that reading from the device is thread-safe.
   */
  ALT_SEM_PEND (sp->read_lock, 0);

  while (space > 0)
 100b42c:	e0bffd17 	ldw	r2,-12(fp)
 100b430:	10800048 	cmpgei	r2,r2,1
 100b434:	103fb51e 	bne	r2,zero,100b30c <altera_avalon_jtag_uart_read+0x2c>
   * semaphore so that other threads can access the buffer.
   */

  ALT_SEM_POST (sp->read_lock);

  if (ptr != buffer)
 100b438:	e0fffa17 	ldw	r3,-24(fp)
 100b43c:	e0bffc17 	ldw	r2,-16(fp)
 100b440:	18801926 	beq	r3,r2,100b4a8 <altera_avalon_jtag_uart_read+0x1c8>
static ALT_INLINE alt_irq_context ALT_ALWAYS_INLINE 
       alt_irq_disable_all (void)
{
  alt_irq_context context;

  NIOS2_READ_STATUS (context);
 100b444:	0005303a 	rdctl	r2,status
 100b448:	e0bff515 	stw	r2,-44(fp)

  NIOS2_WRITE_STATUS (context & ~NIOS2_STATUS_PIE_MSK);
 100b44c:	e0fff517 	ldw	r3,-44(fp)
 100b450:	00bfff84 	movi	r2,-2
 100b454:	1884703a 	and	r2,r3,r2
 100b458:	1001703a 	wrctl	status,r2
  
  return context;
 100b45c:	e0bff517 	ldw	r2,-44(fp)
  {
    /* If we read any data then there is space in the buffer so enable interrupts */
    context = alt_irq_disable_all();
 100b460:	e0bff915 	stw	r2,-28(fp)
    sp->irq_enable |= ALTERA_AVALON_JTAG_UART_CONTROL_RE_MSK;
 100b464:	e0bffb17 	ldw	r2,-20(fp)
 100b468:	10800817 	ldw	r2,32(r2)
 100b46c:	10c00054 	ori	r3,r2,1
 100b470:	e0bffb17 	ldw	r2,-20(fp)
 100b474:	10c00815 	stw	r3,32(r2)
    IOWR_ALTERA_AVALON_JTAG_UART_CONTROL(sp->base, sp->irq_enable);
 100b478:	e0bffb17 	ldw	r2,-20(fp)
 100b47c:	10800017 	ldw	r2,0(r2)
 100b480:	11000104 	addi	r4,r2,4
 100b484:	e0bffb17 	ldw	r2,-20(fp)
 100b488:	10800817 	ldw	r2,32(r2)
 100b48c:	1007883a 	mov	r3,r2
 100b490:	2005883a 	mov	r2,r4
 100b494:	10c00035 	stwio	r3,0(r2)
 100b498:	e0bff917 	ldw	r2,-28(fp)
 100b49c:	e0bff415 	stw	r2,-48(fp)
  status &= ~NIOS2_STATUS_PIE_MSK;
  status |= (context & NIOS2_STATUS_PIE_MSK);
  
  NIOS2_WRITE_STATUS (status);
#else
  NIOS2_WRITE_STATUS (context);
 100b4a0:	e0bff417 	ldw	r2,-48(fp)
 100b4a4:	1001703a 	wrctl	status,r2
    alt_irq_enable_all(context);
  }

  if (ptr != buffer)
 100b4a8:	e0fffa17 	ldw	r3,-24(fp)
 100b4ac:	e0bffc17 	ldw	r2,-16(fp)
 100b4b0:	18800526 	beq	r3,r2,100b4c8 <altera_avalon_jtag_uart_read+0x1e8>
    return ptr - buffer;
 100b4b4:	e0fffa17 	ldw	r3,-24(fp)
 100b4b8:	e0bffc17 	ldw	r2,-16(fp)
 100b4bc:	1887c83a 	sub	r3,r3,r2
 100b4c0:	e0ffff15 	stw	r3,-4(fp)
 100b4c4:	00000906 	br	100b4ec <altera_avalon_jtag_uart_read+0x20c>
  else if (flags & O_NONBLOCK)
 100b4c8:	e0bffe17 	ldw	r2,-8(fp)
 100b4cc:	1090000c 	andi	r2,r2,16384
 100b4d0:	1005003a 	cmpeq	r2,r2,zero
 100b4d4:	1000031e 	bne	r2,zero,100b4e4 <altera_avalon_jtag_uart_read+0x204>
    return -EWOULDBLOCK;
 100b4d8:	00bffd44 	movi	r2,-11
 100b4dc:	e0bfff15 	stw	r2,-4(fp)
 100b4e0:	00000206 	br	100b4ec <altera_avalon_jtag_uart_read+0x20c>
  else
    return -EIO;
 100b4e4:	00bffec4 	movi	r2,-5
 100b4e8:	e0bfff15 	stw	r2,-4(fp)
 100b4ec:	e0bfff17 	ldw	r2,-4(fp)
}
 100b4f0:	e037883a 	mov	sp,fp
 100b4f4:	dfc00117 	ldw	ra,4(sp)
 100b4f8:	df000017 	ldw	fp,0(sp)
 100b4fc:	dec00204 	addi	sp,sp,8
 100b500:	f800283a 	ret

0100b504 <altera_avalon_jtag_uart_write>:
/* ----------------------------------------------------------- */

int 
altera_avalon_jtag_uart_write(altera_avalon_jtag_uart_state* sp, 
  const char * ptr, int count, int flags)
{
 100b504:	defff204 	addi	sp,sp,-56
 100b508:	dfc00d15 	stw	ra,52(sp)
 100b50c:	df000c15 	stw	fp,48(sp)
 100b510:	df000c04 	addi	fp,sp,48
 100b514:	e13ffb15 	stw	r4,-20(fp)
 100b518:	e17ffc15 	stw	r5,-16(fp)
 100b51c:	e1bffd15 	stw	r6,-12(fp)
 100b520:	e1fffe15 	stw	r7,-8(fp)
  /* Remove warning at optimisation level 03 by seting out to 0 */
  unsigned int in, out=0;
 100b524:	e03ff915 	stw	zero,-28(fp)
  unsigned int n;
  alt_irq_context context;

  const char * start = ptr;
 100b528:	e0bffc17 	ldw	r2,-16(fp)
 100b52c:	e0bff615 	stw	r2,-40(fp)
  ALT_SEM_PEND (sp->write_lock, 0);

  do
  {
    /* Copy as much as we can into the transmit buffer */
    while (count > 0)
 100b530:	00003a06 	br	100b61c <altera_avalon_jtag_uart_write+0x118>
    {
      /* We need a stable value of the out pointer to calculate the space available */
      in  = sp->tx_in;
 100b534:	e0bffb17 	ldw	r2,-20(fp)
 100b538:	10800c17 	ldw	r2,48(r2)
 100b53c:	e0bffa15 	stw	r2,-24(fp)
      out = sp->tx_out;
 100b540:	e0bffb17 	ldw	r2,-20(fp)
 100b544:	10800d17 	ldw	r2,52(r2)
 100b548:	e0bff915 	stw	r2,-28(fp)

      if (in < out)
 100b54c:	e0fffa17 	ldw	r3,-24(fp)
 100b550:	e0bff917 	ldw	r2,-28(fp)
 100b554:	1880062e 	bgeu	r3,r2,100b570 <altera_avalon_jtag_uart_write+0x6c>
        n = out - 1 - in;
 100b558:	e0fff917 	ldw	r3,-28(fp)
 100b55c:	e0bffa17 	ldw	r2,-24(fp)
 100b560:	1885c83a 	sub	r2,r3,r2
 100b564:	10bfffc4 	addi	r2,r2,-1
 100b568:	e0bff815 	stw	r2,-32(fp)
 100b56c:	00000c06 	br	100b5a0 <altera_avalon_jtag_uart_write+0x9c>
      else if (out > 0)
 100b570:	e0bff917 	ldw	r2,-28(fp)
 100b574:	1005003a 	cmpeq	r2,r2,zero
 100b578:	1000051e 	bne	r2,zero,100b590 <altera_avalon_jtag_uart_write+0x8c>
        n = ALTERA_AVALON_JTAG_UART_BUF_LEN - in;
 100b57c:	00820004 	movi	r2,2048
 100b580:	e0fffa17 	ldw	r3,-24(fp)
 100b584:	10c5c83a 	sub	r2,r2,r3
 100b588:	e0bff815 	stw	r2,-32(fp)
 100b58c:	00000406 	br	100b5a0 <altera_avalon_jtag_uart_write+0x9c>
      else
        n = ALTERA_AVALON_JTAG_UART_BUF_LEN - 1 - in;
 100b590:	0081ffc4 	movi	r2,2047
 100b594:	e0fffa17 	ldw	r3,-24(fp)
 100b598:	10c5c83a 	sub	r2,r2,r3
 100b59c:	e0bff815 	stw	r2,-32(fp)

      if (n == 0)
 100b5a0:	e0bff817 	ldw	r2,-32(fp)
 100b5a4:	1005003a 	cmpeq	r2,r2,zero
 100b5a8:	10001f1e 	bne	r2,zero,100b628 <altera_avalon_jtag_uart_write+0x124>
        break;

      if (n > count)
 100b5ac:	e0fffd17 	ldw	r3,-12(fp)
 100b5b0:	e0bff817 	ldw	r2,-32(fp)
 100b5b4:	1880022e 	bgeu	r3,r2,100b5c0 <altera_avalon_jtag_uart_write+0xbc>
        n = count;
 100b5b8:	e0bffd17 	ldw	r2,-12(fp)
 100b5bc:	e0bff815 	stw	r2,-32(fp)

      memcpy(sp->tx_buf + in, ptr, n);
 100b5c0:	e0bffb17 	ldw	r2,-20(fp)
 100b5c4:	10c20e04 	addi	r3,r2,2104
 100b5c8:	e0bffa17 	ldw	r2,-24(fp)
 100b5cc:	1885883a 	add	r2,r3,r2
 100b5d0:	e0fffc17 	ldw	r3,-16(fp)
 100b5d4:	1009883a 	mov	r4,r2
 100b5d8:	180b883a 	mov	r5,r3
 100b5dc:	e1bff817 	ldw	r6,-32(fp)
 100b5e0:	100574c0 	call	100574c <memcpy>
      ptr   += n;
 100b5e4:	e0fff817 	ldw	r3,-32(fp)
 100b5e8:	e0bffc17 	ldw	r2,-16(fp)
 100b5ec:	10c5883a 	add	r2,r2,r3
 100b5f0:	e0bffc15 	stw	r2,-16(fp)
      count -= n;
 100b5f4:	e0fffd17 	ldw	r3,-12(fp)
 100b5f8:	e0bff817 	ldw	r2,-32(fp)
 100b5fc:	1885c83a 	sub	r2,r3,r2
 100b600:	e0bffd15 	stw	r2,-12(fp)

      sp->tx_in = (in + n) % ALTERA_AVALON_JTAG_UART_BUF_LEN;
 100b604:	e0fffa17 	ldw	r3,-24(fp)
 100b608:	e0bff817 	ldw	r2,-32(fp)
 100b60c:	1885883a 	add	r2,r3,r2
 100b610:	10c1ffcc 	andi	r3,r2,2047
 100b614:	e0bffb17 	ldw	r2,-20(fp)
 100b618:	10c00c15 	stw	r3,48(r2)
  ALT_SEM_PEND (sp->write_lock, 0);

  do
  {
    /* Copy as much as we can into the transmit buffer */
    while (count > 0)
 100b61c:	e0bffd17 	ldw	r2,-12(fp)
 100b620:	10800048 	cmpgei	r2,r2,1
 100b624:	103fc31e 	bne	r2,zero,100b534 <altera_avalon_jtag_uart_write+0x30>
static ALT_INLINE alt_irq_context ALT_ALWAYS_INLINE 
       alt_irq_disable_all (void)
{
  alt_irq_context context;

  NIOS2_READ_STATUS (context);
 100b628:	0005303a 	rdctl	r2,status
 100b62c:	e0bff515 	stw	r2,-44(fp)

  NIOS2_WRITE_STATUS (context & ~NIOS2_STATUS_PIE_MSK);
 100b630:	e0fff517 	ldw	r3,-44(fp)
 100b634:	00bfff84 	movi	r2,-2
 100b638:	1884703a 	and	r2,r3,r2
 100b63c:	1001703a 	wrctl	status,r2
  
  return context;
 100b640:	e0bff517 	ldw	r2,-44(fp)
     * to enable interrupts if there is no space left in the FIFO
     *
     * For now kick the interrupt routine every time to make it transmit 
     * the data 
     */
    context = alt_irq_disable_all();
 100b644:	e0bff715 	stw	r2,-36(fp)
    sp->irq_enable |= ALTERA_AVALON_JTAG_UART_CONTROL_WE_MSK;
 100b648:	e0bffb17 	ldw	r2,-20(fp)
 100b64c:	10800817 	ldw	r2,32(r2)
 100b650:	10c00094 	ori	r3,r2,2
 100b654:	e0bffb17 	ldw	r2,-20(fp)
 100b658:	10c00815 	stw	r3,32(r2)
    IOWR_ALTERA_AVALON_JTAG_UART_CONTROL(sp->base, sp->irq_enable);
 100b65c:	e0bffb17 	ldw	r2,-20(fp)
 100b660:	10800017 	ldw	r2,0(r2)
 100b664:	11000104 	addi	r4,r2,4
 100b668:	e0bffb17 	ldw	r2,-20(fp)
 100b66c:	10800817 	ldw	r2,32(r2)
 100b670:	1007883a 	mov	r3,r2
 100b674:	2005883a 	mov	r2,r4
 100b678:	10c00035 	stwio	r3,0(r2)
 100b67c:	e0bff717 	ldw	r2,-36(fp)
 100b680:	e0bff415 	stw	r2,-48(fp)
  status &= ~NIOS2_STATUS_PIE_MSK;
  status |= (context & NIOS2_STATUS_PIE_MSK);
  
  NIOS2_WRITE_STATUS (status);
#else
  NIOS2_WRITE_STATUS (context);
 100b684:	e0bff417 	ldw	r2,-48(fp)
 100b688:	1001703a 	wrctl	status,r2
    /* 
     * If there is any data left then either return now or block until 
     * some has been sent 
     */
    /* consider: test whether there is anything there while doing this and delay for at most 2s. */
    if (count > 0)
 100b68c:	e0bffd17 	ldw	r2,-12(fp)
 100b690:	10800050 	cmplti	r2,r2,1
 100b694:	1000111e 	bne	r2,zero,100b6dc <altera_avalon_jtag_uart_write+0x1d8>
    {
      if (flags & O_NONBLOCK)
 100b698:	e0bffe17 	ldw	r2,-8(fp)
 100b69c:	1090000c 	andi	r2,r2,16384
 100b6a0:	1004c03a 	cmpne	r2,r2,zero
 100b6a4:	1000101e 	bne	r2,zero,100b6e8 <altera_avalon_jtag_uart_write+0x1e4>
      /*
       * No OS present: Always wait for data to be removed from buffer.  Once
       * the interrupt routine has removed some data then we will be able to
       * insert some more.
       */
      while (out == sp->tx_out && sp->host_inactive < sp->timeout)
 100b6a8:	e0bffb17 	ldw	r2,-20(fp)
 100b6ac:	10c00d17 	ldw	r3,52(r2)
 100b6b0:	e0bff917 	ldw	r2,-28(fp)
 100b6b4:	1880051e 	bne	r3,r2,100b6cc <altera_avalon_jtag_uart_write+0x1c8>
 100b6b8:	e0bffb17 	ldw	r2,-20(fp)
 100b6bc:	10c00917 	ldw	r3,36(r2)
 100b6c0:	e0bffb17 	ldw	r2,-20(fp)
 100b6c4:	10800117 	ldw	r2,4(r2)
 100b6c8:	18bff736 	bltu	r3,r2,100b6a8 <altera_avalon_jtag_uart_write+0x1a4>
        ;
#endif /* __ucosii__ */

      if (out == sp->tx_out)
 100b6cc:	e0bffb17 	ldw	r2,-20(fp)
 100b6d0:	10c00d17 	ldw	r3,52(r2)
 100b6d4:	e0bff917 	ldw	r2,-28(fp)
 100b6d8:	18800326 	beq	r3,r2,100b6e8 <altera_avalon_jtag_uart_write+0x1e4>
         break;
    }
  }
  while (count > 0);
 100b6dc:	e0bffd17 	ldw	r2,-12(fp)
 100b6e0:	10800048 	cmpgei	r2,r2,1
 100b6e4:	103fcd1e 	bne	r2,zero,100b61c <altera_avalon_jtag_uart_write+0x118>
   * Now that access to the circular buffer is complete, release the write
   * semaphore so that other threads can access the buffer.
   */
  ALT_SEM_POST (sp->write_lock);

  if (ptr != start)
 100b6e8:	e0fffc17 	ldw	r3,-16(fp)
 100b6ec:	e0bff617 	ldw	r2,-40(fp)
 100b6f0:	18800526 	beq	r3,r2,100b708 <altera_avalon_jtag_uart_write+0x204>
    return ptr - start;
 100b6f4:	e0fffc17 	ldw	r3,-16(fp)
 100b6f8:	e0bff617 	ldw	r2,-40(fp)
 100b6fc:	1887c83a 	sub	r3,r3,r2
 100b700:	e0ffff15 	stw	r3,-4(fp)
 100b704:	00000906 	br	100b72c <altera_avalon_jtag_uart_write+0x228>
  else if (flags & O_NONBLOCK)
 100b708:	e0bffe17 	ldw	r2,-8(fp)
 100b70c:	1090000c 	andi	r2,r2,16384
 100b710:	1005003a 	cmpeq	r2,r2,zero
 100b714:	1000031e 	bne	r2,zero,100b724 <altera_avalon_jtag_uart_write+0x220>
    return -EWOULDBLOCK;
 100b718:	00bffd44 	movi	r2,-11
 100b71c:	e0bfff15 	stw	r2,-4(fp)
 100b720:	00000206 	br	100b72c <altera_avalon_jtag_uart_write+0x228>
    sp->tx_out = sp->tx_in = 0;
    return ptr - start + count;
  }
#endif
  else
    return -EIO; /* Host not connected */
 100b724:	00bffec4 	movi	r2,-5
 100b728:	e0bfff15 	stw	r2,-4(fp)
 100b72c:	e0bfff17 	ldw	r2,-4(fp)
}
 100b730:	e037883a 	mov	sp,fp
 100b734:	dfc00117 	ldw	ra,4(sp)
 100b738:	df000017 	ldw	fp,0(sp)
 100b73c:	dec00204 	addi	sp,sp,8
 100b740:	f800283a 	ret

0100b744 <get_DDRAM_addr>:
 * @sa the datasheet for the LCD Display Controller on the DE2 Board
 * @note the function requires that the input are in the valid range
 *
 **/
unsigned char get_DDRAM_addr(unsigned x_pos, unsigned y_pos)
{
 100b744:	defffc04 	addi	sp,sp,-16
 100b748:	df000315 	stw	fp,12(sp)
 100b74c:	df000304 	addi	fp,sp,12
 100b750:	e13ffe15 	stw	r4,-8(fp)
 100b754:	e17fff15 	stw	r5,-4(fp)
	//assume valid inputs
	unsigned char addr = 0x00000000;
 100b758:	e03ffd05 	stb	zero,-12(fp)
	if (y_pos == 0)
 100b75c:	e0bfff17 	ldw	r2,-4(fp)
 100b760:	1004c03a 	cmpne	r2,r2,zero
 100b764:	1000061e 	bne	r2,zero,100b780 <get_DDRAM_addr+0x3c>
	{
		addr |= x_pos;
 100b768:	e0bffe17 	ldw	r2,-8(fp)
 100b76c:	1007883a 	mov	r3,r2
 100b770:	e0bffd03 	ldbu	r2,-12(fp)
 100b774:	10c4b03a 	or	r2,r2,r3
 100b778:	e0bffd05 	stb	r2,-12(fp)
 100b77c:	00000806 	br	100b7a0 <get_DDRAM_addr+0x5c>
	}
	else
	{
		addr |= x_pos;
 100b780:	e0bffe17 	ldw	r2,-8(fp)
 100b784:	1007883a 	mov	r3,r2
 100b788:	e0bffd03 	ldbu	r2,-12(fp)
 100b78c:	10c4b03a 	or	r2,r2,r3
 100b790:	e0bffd05 	stb	r2,-12(fp)
		addr |= 0x00000040;
 100b794:	e0bffd03 	ldbu	r2,-12(fp)
 100b798:	10801014 	ori	r2,r2,64
 100b79c:	e0bffd05 	stb	r2,-12(fp)
	}
	// b_7 is always 1 for DDRAM address, see datasheet
	return (addr | 0x00000080);
 100b7a0:	e0fffd03 	ldbu	r3,-12(fp)
 100b7a4:	00bfe004 	movi	r2,-128
 100b7a8:	1884b03a 	or	r2,r3,r2
 100b7ac:	10803fcc 	andi	r2,r2,255
}
 100b7b0:	e037883a 	mov	sp,fp
 100b7b4:	df000017 	ldw	fp,0(sp)
 100b7b8:	dec00104 	addi	sp,sp,4
 100b7bc:	f800283a 	ret

0100b7c0 <alt_up_character_lcd_send_cmd>:
 * @param cmd -- the command bits 
 *
 * @return nothing
 **/
void alt_up_character_lcd_send_cmd(alt_up_character_lcd_dev *lcd, unsigned char cmd)
{
 100b7c0:	defffd04 	addi	sp,sp,-12
 100b7c4:	df000215 	stw	fp,8(sp)
 100b7c8:	df000204 	addi	fp,sp,8
 100b7cc:	e13ffe15 	stw	r4,-8(fp)
 100b7d0:	e17fff05 	stb	r5,-4(fp)
 	// NOTE: We use the term Instruction Register and Control Register interchangeably
	IOWR_ALT_UP_CHARACTER_LCD_COMMAND(lcd->base, cmd);
 100b7d4:	e0bffe17 	ldw	r2,-8(fp)
 100b7d8:	10800a17 	ldw	r2,40(r2)
 100b7dc:	e0ffff03 	ldbu	r3,-4(fp)
 100b7e0:	10c00025 	stbio	r3,0(r2)
}
 100b7e4:	e037883a 	mov	sp,fp
 100b7e8:	df000017 	ldw	fp,0(sp)
 100b7ec:	dec00104 	addi	sp,sp,4
 100b7f0:	f800283a 	ret

0100b7f4 <alt_up_character_lcd_init>:
 * file for a detailed description of each function
 */
////////////////////////////////////////////////////////////////////////////

void alt_up_character_lcd_init(alt_up_character_lcd_dev *lcd)
{
 100b7f4:	defffe04 	addi	sp,sp,-8
 100b7f8:	df000115 	stw	fp,4(sp)
 100b7fc:	df000104 	addi	fp,sp,4
 100b800:	e13fff15 	stw	r4,-4(fp)
	IOWR_ALT_UP_CHARACTER_LCD_COMMAND(lcd->base, ALT_UP_CHARACTER_LCD_COMM_CLEAR_DISPLAY);
 100b804:	e0bfff17 	ldw	r2,-4(fp)
 100b808:	10800a17 	ldw	r2,40(r2)
 100b80c:	1007883a 	mov	r3,r2
 100b810:	00800044 	movi	r2,1
 100b814:	18800025 	stbio	r2,0(r3)
	// register the device 
	// see "Developing Device Drivers for the HAL" in "Nios II Software Developer's Handbook"
}
 100b818:	e037883a 	mov	sp,fp
 100b81c:	df000017 	ldw	fp,0(sp)
 100b820:	dec00104 	addi	sp,sp,4
 100b824:	f800283a 	ret

0100b828 <alt_up_character_lcd_open_dev>:

alt_up_character_lcd_dev* alt_up_character_lcd_open_dev(const char* name)
{
 100b828:	defffc04 	addi	sp,sp,-16
 100b82c:	dfc00315 	stw	ra,12(sp)
 100b830:	df000215 	stw	fp,8(sp)
 100b834:	df000204 	addi	fp,sp,8
 100b838:	e13fff15 	stw	r4,-4(fp)
  // find the device from the device list 
  // (see altera_hal/HAL/inc/priv/alt_file.h 
  // and altera_hal/HAL/src/alt_find_dev.c 
  // for details)
  alt_up_character_lcd_dev *dev = (alt_up_character_lcd_dev*)alt_find_dev(name, &alt_dev_list);
 100b83c:	e13fff17 	ldw	r4,-4(fp)
 100b840:	01404074 	movhi	r5,257
 100b844:	297c9004 	addi	r5,r5,-3520
 100b848:	100c0000 	call	100c000 <alt_find_dev>
 100b84c:	e0bffe15 	stw	r2,-8(fp)

  return dev;
 100b850:	e0bffe17 	ldw	r2,-8(fp)
}
 100b854:	e037883a 	mov	sp,fp
 100b858:	dfc00117 	ldw	ra,4(sp)
 100b85c:	df000017 	ldw	fp,0(sp)
 100b860:	dec00204 	addi	sp,sp,8
 100b864:	f800283a 	ret

0100b868 <alt_up_character_lcd_write>:

void alt_up_character_lcd_write(alt_up_character_lcd_dev *dev, const char *ptr, unsigned int len)
{
 100b868:	defffb04 	addi	sp,sp,-20
 100b86c:	df000415 	stw	fp,16(sp)
 100b870:	df000404 	addi	fp,sp,16
 100b874:	e13ffd15 	stw	r4,-12(fp)
 100b878:	e17ffe15 	stw	r5,-8(fp)
 100b87c:	e1bfff15 	stw	r6,-4(fp)
	unsigned int i;
	for (i = 0; i < len; i++)
 100b880:	e03ffc15 	stw	zero,-16(fp)
 100b884:	00000f06 	br	100b8c4 <alt_up_character_lcd_write+0x5c>
	{
		IOWR_ALT_UP_CHARACTER_LCD_DATA(dev->base, *(ptr+i));
 100b888:	e0bffd17 	ldw	r2,-12(fp)
 100b88c:	10800a17 	ldw	r2,40(r2)
 100b890:	11000044 	addi	r4,r2,1
 100b894:	e0fffc17 	ldw	r3,-16(fp)
 100b898:	e0bffe17 	ldw	r2,-8(fp)
 100b89c:	1885883a 	add	r2,r3,r2
 100b8a0:	10800003 	ldbu	r2,0(r2)
 100b8a4:	10c03fcc 	andi	r3,r2,255
 100b8a8:	18c0201c 	xori	r3,r3,128
 100b8ac:	18ffe004 	addi	r3,r3,-128
 100b8b0:	2005883a 	mov	r2,r4
 100b8b4:	10c00025 	stbio	r3,0(r2)
}

void alt_up_character_lcd_write(alt_up_character_lcd_dev *dev, const char *ptr, unsigned int len)
{
	unsigned int i;
	for (i = 0; i < len; i++)
 100b8b8:	e0bffc17 	ldw	r2,-16(fp)
 100b8bc:	10800044 	addi	r2,r2,1
 100b8c0:	e0bffc15 	stw	r2,-16(fp)
 100b8c4:	e0fffc17 	ldw	r3,-16(fp)
 100b8c8:	e0bfff17 	ldw	r2,-4(fp)
 100b8cc:	18bfee36 	bltu	r3,r2,100b888 <alt_up_character_lcd_write+0x20>
	{
		IOWR_ALT_UP_CHARACTER_LCD_DATA(dev->base, *(ptr+i));
	}
}
 100b8d0:	e037883a 	mov	sp,fp
 100b8d4:	df000017 	ldw	fp,0(sp)
 100b8d8:	dec00104 	addi	sp,sp,4
 100b8dc:	f800283a 	ret

0100b8e0 <alt_up_character_lcd_string>:

void alt_up_character_lcd_string(alt_up_character_lcd_dev *dev, const char *ptr)
{
 100b8e0:	defffd04 	addi	sp,sp,-12
 100b8e4:	df000215 	stw	fp,8(sp)
 100b8e8:	df000204 	addi	fp,sp,8
 100b8ec:	e13ffe15 	stw	r4,-8(fp)
 100b8f0:	e17fff15 	stw	r5,-4(fp)
	while ( *ptr )
 100b8f4:	00000d06 	br	100b92c <alt_up_character_lcd_string+0x4c>
	{
		IOWR_ALT_UP_CHARACTER_LCD_DATA(dev->base, *(ptr));
 100b8f8:	e0bffe17 	ldw	r2,-8(fp)
 100b8fc:	10800a17 	ldw	r2,40(r2)
 100b900:	11000044 	addi	r4,r2,1
 100b904:	e0bfff17 	ldw	r2,-4(fp)
 100b908:	10800003 	ldbu	r2,0(r2)
 100b90c:	10c03fcc 	andi	r3,r2,255
 100b910:	18c0201c 	xori	r3,r3,128
 100b914:	18ffe004 	addi	r3,r3,-128
 100b918:	2005883a 	mov	r2,r4
 100b91c:	10c00025 	stbio	r3,0(r2)
		++ptr;
 100b920:	e0bfff17 	ldw	r2,-4(fp)
 100b924:	10800044 	addi	r2,r2,1
 100b928:	e0bfff15 	stw	r2,-4(fp)
	}
}

void alt_up_character_lcd_string(alt_up_character_lcd_dev *dev, const char *ptr)
{
	while ( *ptr )
 100b92c:	e0bfff17 	ldw	r2,-4(fp)
 100b930:	10800003 	ldbu	r2,0(r2)
 100b934:	10803fcc 	andi	r2,r2,255
 100b938:	1080201c 	xori	r2,r2,128
 100b93c:	10bfe004 	addi	r2,r2,-128
 100b940:	1004c03a 	cmpne	r2,r2,zero
 100b944:	103fec1e 	bne	r2,zero,100b8f8 <alt_up_character_lcd_string+0x18>
	{
		IOWR_ALT_UP_CHARACTER_LCD_DATA(dev->base, *(ptr));
		++ptr;
	}
}
 100b948:	e037883a 	mov	sp,fp
 100b94c:	df000017 	ldw	fp,0(sp)
 100b950:	dec00104 	addi	sp,sp,4
 100b954:	f800283a 	ret

0100b958 <alt_up_character_lcd_write_fd>:

// this function isn't used, and is included for future upgrades
int alt_up_character_lcd_write_fd(alt_fd *fd, const char *ptr, int len)
{
 100b958:	defffb04 	addi	sp,sp,-20
 100b95c:	dfc00415 	stw	ra,16(sp)
 100b960:	df000315 	stw	fp,12(sp)
 100b964:	df000304 	addi	fp,sp,12
 100b968:	e13ffd15 	stw	r4,-12(fp)
 100b96c:	e17ffe15 	stw	r5,-8(fp)
 100b970:	e1bfff15 	stw	r6,-4(fp)
	alt_up_character_lcd_write( (alt_up_character_lcd_dev *) fd->dev, ptr, (unsigned int) len);
 100b974:	e0bffd17 	ldw	r2,-12(fp)
 100b978:	10800017 	ldw	r2,0(r2)
 100b97c:	1009883a 	mov	r4,r2
 100b980:	e1bfff17 	ldw	r6,-4(fp)
 100b984:	e17ffe17 	ldw	r5,-8(fp)
 100b988:	100b8680 	call	100b868 <alt_up_character_lcd_write>
	return 0;
 100b98c:	0005883a 	mov	r2,zero
}
 100b990:	e037883a 	mov	sp,fp
 100b994:	dfc00117 	ldw	ra,4(sp)
 100b998:	df000017 	ldw	fp,0(sp)
 100b99c:	dec00204 	addi	sp,sp,8
 100b9a0:	f800283a 	ret

0100b9a4 <alt_up_character_lcd_set_cursor_pos>:

int alt_up_character_lcd_set_cursor_pos(alt_up_character_lcd_dev *lcd, unsigned x_pos, 
	 unsigned y_pos)
{
 100b9a4:	defff904 	addi	sp,sp,-28
 100b9a8:	dfc00615 	stw	ra,24(sp)
 100b9ac:	df000515 	stw	fp,20(sp)
 100b9b0:	df000504 	addi	fp,sp,20
 100b9b4:	e13ffc15 	stw	r4,-16(fp)
 100b9b8:	e17ffd15 	stw	r5,-12(fp)
 100b9bc:	e1bffe15 	stw	r6,-8(fp)
	//boundary check
	if (x_pos > 39 || y_pos > 1 )
 100b9c0:	e0bffd17 	ldw	r2,-12(fp)
 100b9c4:	10800a28 	cmpgeui	r2,r2,40
 100b9c8:	1000031e 	bne	r2,zero,100b9d8 <alt_up_character_lcd_set_cursor_pos+0x34>
 100b9cc:	e0bffe17 	ldw	r2,-8(fp)
 100b9d0:	108000b0 	cmpltui	r2,r2,2
 100b9d4:	1000031e 	bne	r2,zero,100b9e4 <alt_up_character_lcd_set_cursor_pos+0x40>
		// invalid argument
		return -1;
 100b9d8:	00bfffc4 	movi	r2,-1
 100b9dc:	e0bfff15 	stw	r2,-4(fp)
 100b9e0:	00000806 	br	100ba04 <alt_up_character_lcd_set_cursor_pos+0x60>
	// calculate address
	unsigned char addr = get_DDRAM_addr(x_pos, y_pos);
 100b9e4:	e13ffd17 	ldw	r4,-12(fp)
 100b9e8:	e17ffe17 	ldw	r5,-8(fp)
 100b9ec:	100b7440 	call	100b744 <get_DDRAM_addr>
 100b9f0:	e0bffb05 	stb	r2,-20(fp)
	// set the cursor
	alt_up_character_lcd_send_cmd(lcd, addr);
 100b9f4:	e17ffb03 	ldbu	r5,-20(fp)
 100b9f8:	e13ffc17 	ldw	r4,-16(fp)
 100b9fc:	100b7c00 	call	100b7c0 <alt_up_character_lcd_send_cmd>
	return 0;
 100ba00:	e03fff15 	stw	zero,-4(fp)
 100ba04:	e0bfff17 	ldw	r2,-4(fp)
}
 100ba08:	e037883a 	mov	sp,fp
 100ba0c:	dfc00117 	ldw	ra,4(sp)
 100ba10:	df000017 	ldw	fp,0(sp)
 100ba14:	dec00204 	addi	sp,sp,8
 100ba18:	f800283a 	ret

0100ba1c <alt_up_character_lcd_shift_cursor>:

void alt_up_character_lcd_shift_cursor(alt_up_character_lcd_dev *lcd, int x_right_shift_offset)
{
 100ba1c:	defff904 	addi	sp,sp,-28
 100ba20:	dfc00615 	stw	ra,24(sp)
 100ba24:	df000515 	stw	fp,20(sp)
 100ba28:	df000504 	addi	fp,sp,20
 100ba2c:	e13ffc15 	stw	r4,-16(fp)
 100ba30:	e17ffd15 	stw	r5,-12(fp)
	if (x_right_shift_offset == 0) 
 100ba34:	e0bffd17 	ldw	r2,-12(fp)
 100ba38:	1005003a 	cmpeq	r2,r2,zero
 100ba3c:	10001e1e 	bne	r2,zero,100bab8 <alt_up_character_lcd_shift_cursor+0x9c>
		// don't ask me to do nothing 
		return;

	// see shift right or left
	unsigned char shift_cmd = (x_right_shift_offset > 0) ? 
		ALT_UP_CHARACTER_LCD_COMM_CURSOR_SHIFT_RIGHT : ALT_UP_CHARACTER_LCD_COMM_CURSOR_SHIFT_LEFT;
 100ba40:	e0bffd17 	ldw	r2,-12(fp)
 100ba44:	10800050 	cmplti	r2,r2,1
 100ba48:	1000031e 	bne	r2,zero,100ba58 <alt_up_character_lcd_shift_cursor+0x3c>
 100ba4c:	00800504 	movi	r2,20
 100ba50:	e0bfff05 	stb	r2,-4(fp)
 100ba54:	00000206 	br	100ba60 <alt_up_character_lcd_shift_cursor+0x44>
 100ba58:	00c00404 	movi	r3,16
 100ba5c:	e0ffff05 	stb	r3,-4(fp)
 100ba60:	e0bfff03 	ldbu	r2,-4(fp)
 100ba64:	e0bffb45 	stb	r2,-19(fp)
	// see how many to shift
	unsigned char num_offset = (x_right_shift_offset > 0) ? x_right_shift_offset : 
		-x_right_shift_offset;
 100ba68:	e0fffd17 	ldw	r3,-12(fp)
 100ba6c:	e0fffe15 	stw	r3,-8(fp)
 100ba70:	e0fffe17 	ldw	r3,-8(fp)
 100ba74:	1804403a 	cmpge	r2,r3,zero
 100ba78:	1000031e 	bne	r2,zero,100ba88 <alt_up_character_lcd_shift_cursor+0x6c>
 100ba7c:	e0bffe17 	ldw	r2,-8(fp)
 100ba80:	0085c83a 	sub	r2,zero,r2
 100ba84:	e0bffe15 	stw	r2,-8(fp)
 100ba88:	e0fffe17 	ldw	r3,-8(fp)
 100ba8c:	e0fffb05 	stb	r3,-20(fp)
	// do the shift
	while (num_offset-- > 0)
 100ba90:	00000306 	br	100baa0 <alt_up_character_lcd_shift_cursor+0x84>
		alt_up_character_lcd_send_cmd(lcd, shift_cmd);
 100ba94:	e17ffb43 	ldbu	r5,-19(fp)
 100ba98:	e13ffc17 	ldw	r4,-16(fp)
 100ba9c:	100b7c00 	call	100b7c0 <alt_up_character_lcd_send_cmd>
		ALT_UP_CHARACTER_LCD_COMM_CURSOR_SHIFT_RIGHT : ALT_UP_CHARACTER_LCD_COMM_CURSOR_SHIFT_LEFT;
	// see how many to shift
	unsigned char num_offset = (x_right_shift_offset > 0) ? x_right_shift_offset : 
		-x_right_shift_offset;
	// do the shift
	while (num_offset-- > 0)
 100baa0:	e0bffb03 	ldbu	r2,-20(fp)
 100baa4:	10bfffc4 	addi	r2,r2,-1
 100baa8:	e0bffb05 	stb	r2,-20(fp)
 100baac:	e0bffb03 	ldbu	r2,-20(fp)
 100bab0:	10803fd8 	cmpnei	r2,r2,255
 100bab4:	103ff71e 	bne	r2,zero,100ba94 <alt_up_character_lcd_shift_cursor+0x78>
		alt_up_character_lcd_send_cmd(lcd, shift_cmd);
}
 100bab8:	e037883a 	mov	sp,fp
 100babc:	dfc00117 	ldw	ra,4(sp)
 100bac0:	df000017 	ldw	fp,0(sp)
 100bac4:	dec00204 	addi	sp,sp,8
 100bac8:	f800283a 	ret

0100bacc <alt_up_character_lcd_shift_display>:

void alt_up_character_lcd_shift_display(alt_up_character_lcd_dev *lcd, int x_right_shift_offset)
{
 100bacc:	defff904 	addi	sp,sp,-28
 100bad0:	dfc00615 	stw	ra,24(sp)
 100bad4:	df000515 	stw	fp,20(sp)
 100bad8:	df000504 	addi	fp,sp,20
 100badc:	e13ffc15 	stw	r4,-16(fp)
 100bae0:	e17ffd15 	stw	r5,-12(fp)
	if (x_right_shift_offset == 0) 
 100bae4:	e0bffd17 	ldw	r2,-12(fp)
 100bae8:	1005003a 	cmpeq	r2,r2,zero
 100baec:	10001e1e 	bne	r2,zero,100bb68 <alt_up_character_lcd_shift_display+0x9c>
		// don't ask me to do nothing 
		return;

	// see shift right or left
	unsigned char shift_cmd = (x_right_shift_offset > 0) ? 
		ALT_UP_CHARACTER_LCD_COMM_DISPLAY_SHIFT_RIGHT : ALT_UP_CHARACTER_LCD_COMM_DISPLAY_SHIFT_LEFT;
 100baf0:	e0bffd17 	ldw	r2,-12(fp)
 100baf4:	10800050 	cmplti	r2,r2,1
 100baf8:	1000031e 	bne	r2,zero,100bb08 <alt_up_character_lcd_shift_display+0x3c>
 100bafc:	00800704 	movi	r2,28
 100bb00:	e0bfff05 	stb	r2,-4(fp)
 100bb04:	00000206 	br	100bb10 <alt_up_character_lcd_shift_display+0x44>
 100bb08:	00c00604 	movi	r3,24
 100bb0c:	e0ffff05 	stb	r3,-4(fp)
 100bb10:	e0bfff03 	ldbu	r2,-4(fp)
 100bb14:	e0bffb45 	stb	r2,-19(fp)
	// see how many to shift
	unsigned char num_offset = (x_right_shift_offset > 0) ? x_right_shift_offset : 
		-x_right_shift_offset;
 100bb18:	e0fffd17 	ldw	r3,-12(fp)
 100bb1c:	e0fffe15 	stw	r3,-8(fp)
 100bb20:	e0fffe17 	ldw	r3,-8(fp)
 100bb24:	1804403a 	cmpge	r2,r3,zero
 100bb28:	1000031e 	bne	r2,zero,100bb38 <alt_up_character_lcd_shift_display+0x6c>
 100bb2c:	e0bffe17 	ldw	r2,-8(fp)
 100bb30:	0085c83a 	sub	r2,zero,r2
 100bb34:	e0bffe15 	stw	r2,-8(fp)
 100bb38:	e0fffe17 	ldw	r3,-8(fp)
 100bb3c:	e0fffb05 	stb	r3,-20(fp)
	// do the shift
	while (num_offset-- > 0)
 100bb40:	00000306 	br	100bb50 <alt_up_character_lcd_shift_display+0x84>
		alt_up_character_lcd_send_cmd(lcd, shift_cmd);
 100bb44:	e17ffb43 	ldbu	r5,-19(fp)
 100bb48:	e13ffc17 	ldw	r4,-16(fp)
 100bb4c:	100b7c00 	call	100b7c0 <alt_up_character_lcd_send_cmd>
		ALT_UP_CHARACTER_LCD_COMM_DISPLAY_SHIFT_RIGHT : ALT_UP_CHARACTER_LCD_COMM_DISPLAY_SHIFT_LEFT;
	// see how many to shift
	unsigned char num_offset = (x_right_shift_offset > 0) ? x_right_shift_offset : 
		-x_right_shift_offset;
	// do the shift
	while (num_offset-- > 0)
 100bb50:	e0bffb03 	ldbu	r2,-20(fp)
 100bb54:	10bfffc4 	addi	r2,r2,-1
 100bb58:	e0bffb05 	stb	r2,-20(fp)
 100bb5c:	e0bffb03 	ldbu	r2,-20(fp)
 100bb60:	10803fd8 	cmpnei	r2,r2,255
 100bb64:	103ff71e 	bne	r2,zero,100bb44 <alt_up_character_lcd_shift_display+0x78>
		alt_up_character_lcd_send_cmd(lcd, shift_cmd);
}
 100bb68:	e037883a 	mov	sp,fp
 100bb6c:	dfc00117 	ldw	ra,4(sp)
 100bb70:	df000017 	ldw	fp,0(sp)
 100bb74:	dec00204 	addi	sp,sp,8
 100bb78:	f800283a 	ret

0100bb7c <alt_up_character_lcd_erase_pos>:

int alt_up_character_lcd_erase_pos(alt_up_character_lcd_dev *lcd, unsigned x_pos, unsigned y_pos)
{
 100bb7c:	defff904 	addi	sp,sp,-28
 100bb80:	dfc00615 	stw	ra,24(sp)
 100bb84:	df000515 	stw	fp,20(sp)
 100bb88:	df000504 	addi	fp,sp,20
 100bb8c:	e13ffc15 	stw	r4,-16(fp)
 100bb90:	e17ffd15 	stw	r5,-12(fp)
 100bb94:	e1bffe15 	stw	r6,-8(fp)
	// boundary check
	if (x_pos > 39 || y_pos > 1 )
 100bb98:	e0bffd17 	ldw	r2,-12(fp)
 100bb9c:	10800a28 	cmpgeui	r2,r2,40
 100bba0:	1000031e 	bne	r2,zero,100bbb0 <alt_up_character_lcd_erase_pos+0x34>
 100bba4:	e0bffe17 	ldw	r2,-8(fp)
 100bba8:	108000b0 	cmpltui	r2,r2,2
 100bbac:	1000031e 	bne	r2,zero,100bbbc <alt_up_character_lcd_erase_pos+0x40>
		return -1;
 100bbb0:	00bfffc4 	movi	r2,-1
 100bbb4:	e0bfff15 	stw	r2,-4(fp)
 100bbb8:	00000e06 	br	100bbf4 <alt_up_character_lcd_erase_pos+0x78>

	// get address
	unsigned char addr = get_DDRAM_addr(x_pos, y_pos);
 100bbbc:	e13ffd17 	ldw	r4,-12(fp)
 100bbc0:	e17ffe17 	ldw	r5,-8(fp)
 100bbc4:	100b7440 	call	100b744 <get_DDRAM_addr>
 100bbc8:	e0bffb05 	stb	r2,-20(fp)
	// set cursor to dest point
	alt_up_character_lcd_send_cmd(lcd, addr);
 100bbcc:	e17ffb03 	ldbu	r5,-20(fp)
 100bbd0:	e13ffc17 	ldw	r4,-16(fp)
 100bbd4:	100b7c00 	call	100b7c0 <alt_up_character_lcd_send_cmd>
	//send an empty char as erase (refer to the Character Generator ROM part of the Datasheet)
	IOWR_ALT_UP_CHARACTER_LCD_DATA(lcd->base, (0x00000002) );
 100bbd8:	e0bffc17 	ldw	r2,-16(fp)
 100bbdc:	10800a17 	ldw	r2,40(r2)
 100bbe0:	10800044 	addi	r2,r2,1
 100bbe4:	1007883a 	mov	r3,r2
 100bbe8:	00800084 	movi	r2,2
 100bbec:	18800025 	stbio	r2,0(r3)
	return 0;
 100bbf0:	e03fff15 	stw	zero,-4(fp)
 100bbf4:	e0bfff17 	ldw	r2,-4(fp)
}
 100bbf8:	e037883a 	mov	sp,fp
 100bbfc:	dfc00117 	ldw	ra,4(sp)
 100bc00:	df000017 	ldw	fp,0(sp)
 100bc04:	dec00204 	addi	sp,sp,8
 100bc08:	f800283a 	ret

0100bc0c <alt_up_character_lcd_cursor_off>:

void alt_up_character_lcd_cursor_off(alt_up_character_lcd_dev *lcd)
{
 100bc0c:	defffd04 	addi	sp,sp,-12
 100bc10:	dfc00215 	stw	ra,8(sp)
 100bc14:	df000115 	stw	fp,4(sp)
 100bc18:	df000104 	addi	fp,sp,4
 100bc1c:	e13fff15 	stw	r4,-4(fp)
	alt_up_character_lcd_send_cmd(lcd, ALT_UP_CHARACTER_LCD_COMM_CURSOR_OFF);
 100bc20:	e13fff17 	ldw	r4,-4(fp)
 100bc24:	01400304 	movi	r5,12
 100bc28:	100b7c00 	call	100b7c0 <alt_up_character_lcd_send_cmd>
}
 100bc2c:	e037883a 	mov	sp,fp
 100bc30:	dfc00117 	ldw	ra,4(sp)
 100bc34:	df000017 	ldw	fp,0(sp)
 100bc38:	dec00204 	addi	sp,sp,8
 100bc3c:	f800283a 	ret

0100bc40 <alt_up_character_lcd_cursor_blink_on>:

void alt_up_character_lcd_cursor_blink_on(alt_up_character_lcd_dev *lcd)
{
 100bc40:	defffd04 	addi	sp,sp,-12
 100bc44:	dfc00215 	stw	ra,8(sp)
 100bc48:	df000115 	stw	fp,4(sp)
 100bc4c:	df000104 	addi	fp,sp,4
 100bc50:	e13fff15 	stw	r4,-4(fp)
	alt_up_character_lcd_send_cmd(lcd, ALT_UP_CHARACTER_LCD_COMM_CURSOR_BLINK_ON);
 100bc54:	e13fff17 	ldw	r4,-4(fp)
 100bc58:	014003c4 	movi	r5,15
 100bc5c:	100b7c00 	call	100b7c0 <alt_up_character_lcd_send_cmd>
}
 100bc60:	e037883a 	mov	sp,fp
 100bc64:	dfc00117 	ldw	ra,4(sp)
 100bc68:	df000017 	ldw	fp,0(sp)
 100bc6c:	dec00204 	addi	sp,sp,8
 100bc70:	f800283a 	ret

0100bc74 <alt_up_parallel_port_open_dev>:

#include "altera_up_avalon_parallel_port.h"
#include "altera_up_avalon_parallel_port_regs.h"

alt_up_parallel_port_dev* alt_up_parallel_port_open_dev(const char* name)
{
 100bc74:	defffc04 	addi	sp,sp,-16
 100bc78:	dfc00315 	stw	ra,12(sp)
 100bc7c:	df000215 	stw	fp,8(sp)
 100bc80:	df000204 	addi	fp,sp,8
 100bc84:	e13fff15 	stw	r4,-4(fp)
  // find the device from the device list 
  // (see altera_hal/HAL/inc/priv/alt_file.h 
  // and altera_hal/HAL/src/alt_find_dev.c 
  // for details)
  alt_up_parallel_port_dev *dev = (alt_up_parallel_port_dev*)alt_find_dev(name, &alt_dev_list);
 100bc88:	e13fff17 	ldw	r4,-4(fp)
 100bc8c:	01404074 	movhi	r5,257
 100bc90:	297c9004 	addi	r5,r5,-3520
 100bc94:	100c0000 	call	100c000 <alt_find_dev>
 100bc98:	e0bffe15 	stw	r2,-8(fp)

  return dev;
 100bc9c:	e0bffe17 	ldw	r2,-8(fp)
}
 100bca0:	e037883a 	mov	sp,fp
 100bca4:	dfc00117 	ldw	ra,4(sp)
 100bca8:	df000017 	ldw	fp,0(sp)
 100bcac:	dec00204 	addi	sp,sp,8
 100bcb0:	f800283a 	ret

0100bcb4 <alt_alarm_start>:
 */ 

int alt_alarm_start (alt_alarm* alarm, alt_u32 nticks,
                     alt_u32 (*callback) (void* context),
                     void* context)
{
 100bcb4:	defff404 	addi	sp,sp,-48
 100bcb8:	df000b15 	stw	fp,44(sp)
 100bcbc:	df000b04 	addi	fp,sp,44
 100bcc0:	e13ffb15 	stw	r4,-20(fp)
 100bcc4:	e17ffc15 	stw	r5,-16(fp)
 100bcc8:	e1bffd15 	stw	r6,-12(fp)
 100bccc:	e1fffe15 	stw	r7,-8(fp)
  alt_irq_context irq_context;
  alt_u32 current_nticks = 0;
 100bcd0:	e03ff915 	stw	zero,-28(fp)
 100bcd4:	00804074 	movhi	r2,257
 100bcd8:	10835004 	addi	r2,r2,3392
 100bcdc:	10800017 	ldw	r2,0(r2)
  
  if (alt_ticks_per_second ())
 100bce0:	1005003a 	cmpeq	r2,r2,zero
 100bce4:	1000411e 	bne	r2,zero,100bdec <alt_alarm_start+0x138>
  {
    if (alarm)
 100bce8:	e0bffb17 	ldw	r2,-20(fp)
 100bcec:	1005003a 	cmpeq	r2,r2,zero
 100bcf0:	10003b1e 	bne	r2,zero,100bde0 <alt_alarm_start+0x12c>
    {
      alarm->callback = callback;
 100bcf4:	e0fffb17 	ldw	r3,-20(fp)
 100bcf8:	e0bffd17 	ldw	r2,-12(fp)
 100bcfc:	18800315 	stw	r2,12(r3)
      alarm->context  = context;
 100bd00:	e0fffb17 	ldw	r3,-20(fp)
 100bd04:	e0bffe17 	ldw	r2,-8(fp)
 100bd08:	18800515 	stw	r2,20(r3)
static ALT_INLINE alt_irq_context ALT_ALWAYS_INLINE 
       alt_irq_disable_all (void)
{
  alt_irq_context context;

  NIOS2_READ_STATUS (context);
 100bd0c:	0005303a 	rdctl	r2,status
 100bd10:	e0bff815 	stw	r2,-32(fp)

  NIOS2_WRITE_STATUS (context & ~NIOS2_STATUS_PIE_MSK);
 100bd14:	e0fff817 	ldw	r3,-32(fp)
 100bd18:	00bfff84 	movi	r2,-2
 100bd1c:	1884703a 	and	r2,r3,r2
 100bd20:	1001703a 	wrctl	status,r2
  
  return context;
 100bd24:	e0bff817 	ldw	r2,-32(fp)
 
      irq_context = alt_irq_disable_all ();
 100bd28:	e0bffa15 	stw	r2,-24(fp)
 * alt_nticks() returns the elapsed number of system clock ticks since reset.
 */

static ALT_INLINE alt_u32 ALT_ALWAYS_INLINE alt_nticks (void)
{
  return _alt_nticks;
 100bd2c:	00804074 	movhi	r2,257
 100bd30:	10835104 	addi	r2,r2,3396
 100bd34:	10800017 	ldw	r2,0(r2)
      
      current_nticks = alt_nticks();
 100bd38:	e0bff915 	stw	r2,-28(fp)
      
      alarm->time = nticks + current_nticks + 1; 
 100bd3c:	e0fffc17 	ldw	r3,-16(fp)
 100bd40:	e0bff917 	ldw	r2,-28(fp)
 100bd44:	1885883a 	add	r2,r3,r2
 100bd48:	10c00044 	addi	r3,r2,1
 100bd4c:	e0bffb17 	ldw	r2,-20(fp)
 100bd50:	10c00215 	stw	r3,8(r2)
      /* 
       * If the desired alarm time causes a roll-over, set the rollover
       * flag. This will prevent the subsequent tick event from causing
       * an alarm too early.
       */
      if(alarm->time < current_nticks)
 100bd54:	e0bffb17 	ldw	r2,-20(fp)
 100bd58:	10c00217 	ldw	r3,8(r2)
 100bd5c:	e0bff917 	ldw	r2,-28(fp)
 100bd60:	1880042e 	bgeu	r3,r2,100bd74 <alt_alarm_start+0xc0>
      {
        alarm->rollover = 1;
 100bd64:	e0fffb17 	ldw	r3,-20(fp)
 100bd68:	00800044 	movi	r2,1
 100bd6c:	18800405 	stb	r2,16(r3)
 100bd70:	00000206 	br	100bd7c <alt_alarm_start+0xc8>
      }
      else
      {
        alarm->rollover = 0;
 100bd74:	e0bffb17 	ldw	r2,-20(fp)
 100bd78:	10000405 	stb	zero,16(r2)
      }
    
      alt_llist_insert (&alt_alarm_list, &alarm->llist);
 100bd7c:	e0fffb17 	ldw	r3,-20(fp)
 100bd80:	00804074 	movhi	r2,257
 100bd84:	10bc9604 	addi	r2,r2,-3496
 100bd88:	e0bff615 	stw	r2,-40(fp)
 100bd8c:	e0fff715 	stw	r3,-36(fp)
 */

static ALT_INLINE void ALT_ALWAYS_INLINE alt_llist_insert(alt_llist* list, 
                alt_llist* entry)
{
  entry->previous = list;
 100bd90:	e0fff717 	ldw	r3,-36(fp)
 100bd94:	e0bff617 	ldw	r2,-40(fp)
 100bd98:	18800115 	stw	r2,4(r3)
  entry->next     = list->next;
 100bd9c:	e0bff617 	ldw	r2,-40(fp)
 100bda0:	10c00017 	ldw	r3,0(r2)
 100bda4:	e0bff717 	ldw	r2,-36(fp)
 100bda8:	10c00015 	stw	r3,0(r2)

  list->next->previous = entry;
 100bdac:	e0bff617 	ldw	r2,-40(fp)
 100bdb0:	10c00017 	ldw	r3,0(r2)
 100bdb4:	e0bff717 	ldw	r2,-36(fp)
 100bdb8:	18800115 	stw	r2,4(r3)
  list->next           = entry;
 100bdbc:	e0fff617 	ldw	r3,-40(fp)
 100bdc0:	e0bff717 	ldw	r2,-36(fp)
 100bdc4:	18800015 	stw	r2,0(r3)
 100bdc8:	e0bffa17 	ldw	r2,-24(fp)
 100bdcc:	e0bff515 	stw	r2,-44(fp)
  status &= ~NIOS2_STATUS_PIE_MSK;
  status |= (context & NIOS2_STATUS_PIE_MSK);
  
  NIOS2_WRITE_STATUS (status);
#else
  NIOS2_WRITE_STATUS (context);
 100bdd0:	e0bff517 	ldw	r2,-44(fp)
 100bdd4:	1001703a 	wrctl	status,r2
      alt_irq_enable_all (irq_context);

      return 0;
 100bdd8:	e03fff15 	stw	zero,-4(fp)
 100bddc:	00000506 	br	100bdf4 <alt_alarm_start+0x140>
    }
    else
    {
      return -EINVAL;
 100bde0:	00bffa84 	movi	r2,-22
 100bde4:	e0bfff15 	stw	r2,-4(fp)
 100bde8:	00000206 	br	100bdf4 <alt_alarm_start+0x140>
    }
  }
  else
  {
    return -ENOTSUP;
 100bdec:	00bfde84 	movi	r2,-134
 100bdf0:	e0bfff15 	stw	r2,-4(fp)
 100bdf4:	e0bfff17 	ldw	r2,-4(fp)
  }
}
 100bdf8:	e037883a 	mov	sp,fp
 100bdfc:	df000017 	ldw	fp,0(sp)
 100be00:	dec00104 	addi	sp,sp,4
 100be04:	f800283a 	ret

0100be08 <alt_dcache_flush_all>:
/*
 * alt_dcache_flush_all() is called to flush the entire data cache.
 */

void alt_dcache_flush_all (void)
{
 100be08:	deffff04 	addi	sp,sp,-4
 100be0c:	df000015 	stw	fp,0(sp)
 100be10:	d839883a 	mov	fp,sp
  for (i = (char*) 0; i < (char*) NIOS2_DCACHE_SIZE; i+= NIOS2_DCACHE_LINE_SIZE)
  { 
    __asm__ volatile ("flushd (%0)" :: "r" (i));
  }
#endif /* NIOS2_DCACHE_SIZE > 0 */
}
 100be14:	e037883a 	mov	sp,fp
 100be18:	df000017 	ldw	fp,0(sp)
 100be1c:	dec00104 	addi	sp,sp,4
 100be20:	f800283a 	ret

0100be24 <alt_dev_llist_insert>:
/*
 *
 */

int alt_dev_llist_insert (alt_dev_llist* dev, alt_llist* list)
{
 100be24:	defff904 	addi	sp,sp,-28
 100be28:	dfc00615 	stw	ra,24(sp)
 100be2c:	df000515 	stw	fp,20(sp)
 100be30:	df000504 	addi	fp,sp,20
 100be34:	e13ffd15 	stw	r4,-12(fp)
 100be38:	e17ffe15 	stw	r5,-8(fp)
  /*
   * check that the device exists, and that it has a valid name.
   */

  if (!dev || !dev->name)
 100be3c:	e0bffd17 	ldw	r2,-12(fp)
 100be40:	1005003a 	cmpeq	r2,r2,zero
 100be44:	1000041e 	bne	r2,zero,100be58 <alt_dev_llist_insert+0x34>
 100be48:	e0bffd17 	ldw	r2,-12(fp)
 100be4c:	10800217 	ldw	r2,8(r2)
 100be50:	1004c03a 	cmpne	r2,r2,zero
 100be54:	1000071e 	bne	r2,zero,100be74 <alt_dev_llist_insert+0x50>
  {
    ALT_ERRNO = EINVAL;
 100be58:	100bed80 	call	100bed8 <alt_get_errno>
 100be5c:	1007883a 	mov	r3,r2
 100be60:	00800584 	movi	r2,22
 100be64:	18800015 	stw	r2,0(r3)
    return -EINVAL;
 100be68:	00bffa84 	movi	r2,-22
 100be6c:	e0bfff15 	stw	r2,-4(fp)
 100be70:	00001306 	br	100bec0 <alt_dev_llist_insert+0x9c>
  
  /*
   * register the device.
   */
  
  alt_llist_insert(list, &dev->llist);
 100be74:	e0fffd17 	ldw	r3,-12(fp)
 100be78:	e0bffe17 	ldw	r2,-8(fp)
 100be7c:	e0bffb15 	stw	r2,-20(fp)
 100be80:	e0fffc15 	stw	r3,-16(fp)
 */

static ALT_INLINE void ALT_ALWAYS_INLINE alt_llist_insert(alt_llist* list, 
                alt_llist* entry)
{
  entry->previous = list;
 100be84:	e0fffc17 	ldw	r3,-16(fp)
 100be88:	e0bffb17 	ldw	r2,-20(fp)
 100be8c:	18800115 	stw	r2,4(r3)
  entry->next     = list->next;
 100be90:	e0bffb17 	ldw	r2,-20(fp)
 100be94:	10c00017 	ldw	r3,0(r2)
 100be98:	e0bffc17 	ldw	r2,-16(fp)
 100be9c:	10c00015 	stw	r3,0(r2)

  list->next->previous = entry;
 100bea0:	e0bffb17 	ldw	r2,-20(fp)
 100bea4:	10c00017 	ldw	r3,0(r2)
 100bea8:	e0bffc17 	ldw	r2,-16(fp)
 100beac:	18800115 	stw	r2,4(r3)
  list->next           = entry;
 100beb0:	e0fffb17 	ldw	r3,-20(fp)
 100beb4:	e0bffc17 	ldw	r2,-16(fp)
 100beb8:	18800015 	stw	r2,0(r3)

  return 0;  
 100bebc:	e03fff15 	stw	zero,-4(fp)
 100bec0:	e0bfff17 	ldw	r2,-4(fp)
}
 100bec4:	e037883a 	mov	sp,fp
 100bec8:	dfc00117 	ldw	ra,4(sp)
 100becc:	df000017 	ldw	fp,0(sp)
 100bed0:	dec00204 	addi	sp,sp,8
 100bed4:	f800283a 	ret

0100bed8 <alt_get_errno>:
#undef errno

extern int errno;

static ALT_INLINE int* alt_get_errno(void)
{
 100bed8:	defffd04 	addi	sp,sp,-12
 100bedc:	dfc00215 	stw	ra,8(sp)
 100bee0:	df000115 	stw	fp,4(sp)
 100bee4:	df000104 	addi	fp,sp,4
  return ((alt_errno) ? alt_errno() : &errno);
 100bee8:	00804074 	movhi	r2,257
 100beec:	10bc9304 	addi	r2,r2,-3508
 100bef0:	10800017 	ldw	r2,0(r2)
 100bef4:	1005003a 	cmpeq	r2,r2,zero
 100bef8:	1000061e 	bne	r2,zero,100bf14 <alt_get_errno+0x3c>
 100befc:	00804074 	movhi	r2,257
 100bf00:	10bc9304 	addi	r2,r2,-3508
 100bf04:	10800017 	ldw	r2,0(r2)
 100bf08:	103ee83a 	callr	r2
 100bf0c:	e0bfff15 	stw	r2,-4(fp)
 100bf10:	00000306 	br	100bf20 <alt_get_errno+0x48>
 100bf14:	00804074 	movhi	r2,257
 100bf18:	10834b04 	addi	r2,r2,3372
 100bf1c:	e0bfff15 	stw	r2,-4(fp)
 100bf20:	e0bfff17 	ldw	r2,-4(fp)
}
 100bf24:	e037883a 	mov	sp,fp
 100bf28:	dfc00117 	ldw	ra,4(sp)
 100bf2c:	df000017 	ldw	fp,0(sp)
 100bf30:	dec00204 	addi	sp,sp,8
 100bf34:	f800283a 	ret

0100bf38 <_do_ctors>:
/*
 * Run the C++ static constructors.
 */

void _do_ctors(void)
{
 100bf38:	defffd04 	addi	sp,sp,-12
 100bf3c:	dfc00215 	stw	ra,8(sp)
 100bf40:	df000115 	stw	fp,4(sp)
 100bf44:	df000104 	addi	fp,sp,4
  constructor* ctor;

  for (ctor = &__CTOR_END__[-1]; ctor >= __CTOR_LIST__; ctor--)
 100bf48:	00bfff04 	movi	r2,-4
 100bf4c:	00c04074 	movhi	r3,257
 100bf50:	18f4aa04 	addi	r3,r3,-11608
 100bf54:	1885883a 	add	r2,r3,r2
 100bf58:	e0bfff15 	stw	r2,-4(fp)
 100bf5c:	00000606 	br	100bf78 <_do_ctors+0x40>
        (*ctor) (); 
 100bf60:	e0bfff17 	ldw	r2,-4(fp)
 100bf64:	10800017 	ldw	r2,0(r2)
 100bf68:	103ee83a 	callr	r2

void _do_ctors(void)
{
  constructor* ctor;

  for (ctor = &__CTOR_END__[-1]; ctor >= __CTOR_LIST__; ctor--)
 100bf6c:	e0bfff17 	ldw	r2,-4(fp)
 100bf70:	10bfff04 	addi	r2,r2,-4
 100bf74:	e0bfff15 	stw	r2,-4(fp)
 100bf78:	e0ffff17 	ldw	r3,-4(fp)
 100bf7c:	00804074 	movhi	r2,257
 100bf80:	10b4a904 	addi	r2,r2,-11612
 100bf84:	18bff62e 	bgeu	r3,r2,100bf60 <_do_ctors+0x28>
        (*ctor) (); 
}
 100bf88:	e037883a 	mov	sp,fp
 100bf8c:	dfc00117 	ldw	ra,4(sp)
 100bf90:	df000017 	ldw	fp,0(sp)
 100bf94:	dec00204 	addi	sp,sp,8
 100bf98:	f800283a 	ret

0100bf9c <_do_dtors>:
/*
 * Run the C++ static destructors.
 */

void _do_dtors(void)
{
 100bf9c:	defffd04 	addi	sp,sp,-12
 100bfa0:	dfc00215 	stw	ra,8(sp)
 100bfa4:	df000115 	stw	fp,4(sp)
 100bfa8:	df000104 	addi	fp,sp,4
  destructor* dtor;

  for (dtor = &__DTOR_END__[-1]; dtor >= __DTOR_LIST__; dtor--)
 100bfac:	00bfff04 	movi	r2,-4
 100bfb0:	00c04074 	movhi	r3,257
 100bfb4:	18f4aa04 	addi	r3,r3,-11608
 100bfb8:	1885883a 	add	r2,r3,r2
 100bfbc:	e0bfff15 	stw	r2,-4(fp)
 100bfc0:	00000606 	br	100bfdc <_do_dtors+0x40>
        (*dtor) (); 
 100bfc4:	e0bfff17 	ldw	r2,-4(fp)
 100bfc8:	10800017 	ldw	r2,0(r2)
 100bfcc:	103ee83a 	callr	r2

void _do_dtors(void)
{
  destructor* dtor;

  for (dtor = &__DTOR_END__[-1]; dtor >= __DTOR_LIST__; dtor--)
 100bfd0:	e0bfff17 	ldw	r2,-4(fp)
 100bfd4:	10bfff04 	addi	r2,r2,-4
 100bfd8:	e0bfff15 	stw	r2,-4(fp)
 100bfdc:	e0ffff17 	ldw	r3,-4(fp)
 100bfe0:	00804074 	movhi	r2,257
 100bfe4:	10b4aa04 	addi	r2,r2,-11608
 100bfe8:	18bff62e 	bgeu	r3,r2,100bfc4 <_do_dtors+0x28>
        (*dtor) (); 
}
 100bfec:	e037883a 	mov	sp,fp
 100bff0:	dfc00117 	ldw	ra,4(sp)
 100bff4:	df000017 	ldw	fp,0(sp)
 100bff8:	dec00204 	addi	sp,sp,8
 100bffc:	f800283a 	ret

0100c000 <alt_find_dev>:
 * "name" must be an exact match for the devices registered name for a match to
 * be found.
 */
 
alt_dev* alt_find_dev(const char* name, alt_llist* llist)
{
 100c000:	defff904 	addi	sp,sp,-28
 100c004:	dfc00615 	stw	ra,24(sp)
 100c008:	df000515 	stw	fp,20(sp)
 100c00c:	df000504 	addi	fp,sp,20
 100c010:	e13ffd15 	stw	r4,-12(fp)
 100c014:	e17ffe15 	stw	r5,-8(fp)
  alt_dev* next = (alt_dev*) llist->next;
 100c018:	e0bffe17 	ldw	r2,-8(fp)
 100c01c:	10800017 	ldw	r2,0(r2)
 100c020:	e0bffc15 	stw	r2,-16(fp)
  alt_32 len;

  len  = strlen(name) + 1;
 100c024:	e13ffd17 	ldw	r4,-12(fp)
 100c028:	10072cc0 	call	10072cc <strlen>
 100c02c:	10800044 	addi	r2,r2,1
 100c030:	e0bffb15 	stw	r2,-20(fp)
  /*
   * Check each list entry in turn, until a match is found, or we reach the
   * end of the list (i.e. next winds up pointing back to the list head).
   */ 

  while (next != (alt_dev*) llist)
 100c034:	00000d06 	br	100c06c <alt_find_dev+0x6c>
    /* 
     * memcmp() is used here rather than strcmp() in order to reduce the size
     * of the executable.
     */

    if (!memcmp (next->name, name, len))
 100c038:	e0bffc17 	ldw	r2,-16(fp)
 100c03c:	11000217 	ldw	r4,8(r2)
 100c040:	e1bffb17 	ldw	r6,-20(fp)
 100c044:	e17ffd17 	ldw	r5,-12(fp)
 100c048:	100cbb00 	call	100cbb0 <memcmp>
 100c04c:	1004c03a 	cmpne	r2,r2,zero
 100c050:	1000031e 	bne	r2,zero,100c060 <alt_find_dev+0x60>
    {
      /* match found */

      return next;
 100c054:	e0bffc17 	ldw	r2,-16(fp)
 100c058:	e0bfff15 	stw	r2,-4(fp)
 100c05c:	00000706 	br	100c07c <alt_find_dev+0x7c>
    }
    next = (alt_dev*) next->llist.next;
 100c060:	e0bffc17 	ldw	r2,-16(fp)
 100c064:	10800017 	ldw	r2,0(r2)
 100c068:	e0bffc15 	stw	r2,-16(fp)
  /*
   * Check each list entry in turn, until a match is found, or we reach the
   * end of the list (i.e. next winds up pointing back to the list head).
   */ 

  while (next != (alt_dev*) llist)
 100c06c:	e0fffe17 	ldw	r3,-8(fp)
 100c070:	e0bffc17 	ldw	r2,-16(fp)
 100c074:	10fff01e 	bne	r2,r3,100c038 <alt_find_dev+0x38>
    next = (alt_dev*) next->llist.next;
  }
  
  /* No match found */
  
  return NULL;
 100c078:	e03fff15 	stw	zero,-4(fp)
 100c07c:	e0bfff17 	ldw	r2,-4(fp)
}
 100c080:	e037883a 	mov	sp,fp
 100c084:	dfc00117 	ldw	ra,4(sp)
 100c088:	df000017 	ldw	fp,0(sp)
 100c08c:	dec00204 	addi	sp,sp,8
 100c090:	f800283a 	ret

0100c094 <alt_icache_flush_all>:
/*
 * alt_icache_flush_all() is called to flush the entire instruction cache.
 */

void alt_icache_flush_all (void)
{
 100c094:	deffff04 	addi	sp,sp,-4
 100c098:	df000015 	stw	fp,0(sp)
 100c09c:	d839883a 	mov	fp,sp
#if NIOS2_ICACHE_SIZE > 0
  alt_icache_flush (0, NIOS2_ICACHE_SIZE);
#endif
}
 100c0a0:	e037883a 	mov	sp,fp
 100c0a4:	df000017 	ldw	fp,0(sp)
 100c0a8:	dec00104 	addi	sp,sp,4
 100c0ac:	f800283a 	ret

0100c0b0 <alt_ic_isr_register>:
  * @param irq              IRQ number
  * @return                 0 if successful, else error (-1)
  */
int alt_ic_isr_register(alt_u32 ic_id, alt_u32 irq, alt_isr_func isr, 
  void *isr_context, void *flags)
{
 100c0b0:	defff904 	addi	sp,sp,-28
 100c0b4:	dfc00615 	stw	ra,24(sp)
 100c0b8:	df000515 	stw	fp,20(sp)
 100c0bc:	df000504 	addi	fp,sp,20
 100c0c0:	e13ffc15 	stw	r4,-16(fp)
 100c0c4:	e17ffd15 	stw	r5,-12(fp)
 100c0c8:	e1bffe15 	stw	r6,-8(fp)
 100c0cc:	e1ffff15 	stw	r7,-4(fp)
    return alt_iic_isr_register(ic_id, irq, isr, isr_context, flags);
 100c0d0:	e0800217 	ldw	r2,8(fp)
 100c0d4:	d8800015 	stw	r2,0(sp)
 100c0d8:	e13ffc17 	ldw	r4,-16(fp)
 100c0dc:	e17ffd17 	ldw	r5,-12(fp)
 100c0e0:	e1bffe17 	ldw	r6,-8(fp)
 100c0e4:	e1ffff17 	ldw	r7,-4(fp)
 100c0e8:	100c2840 	call	100c284 <alt_iic_isr_register>
}  
 100c0ec:	e037883a 	mov	sp,fp
 100c0f0:	dfc00117 	ldw	ra,4(sp)
 100c0f4:	df000017 	ldw	fp,0(sp)
 100c0f8:	dec00204 	addi	sp,sp,8
 100c0fc:	f800283a 	ret

0100c100 <alt_ic_irq_enable>:
  * @param ic_id            Ignored.
  * @param irq              IRQ number
  * @return                 0 if successful, else error (-1)
  */
int alt_ic_irq_enable (alt_u32 ic_id, alt_u32 irq)
{
 100c100:	defff904 	addi	sp,sp,-28
 100c104:	df000615 	stw	fp,24(sp)
 100c108:	df000604 	addi	fp,sp,24
 100c10c:	e13ffe15 	stw	r4,-8(fp)
 100c110:	e17fff15 	stw	r5,-4(fp)
 100c114:	e0bfff17 	ldw	r2,-4(fp)
 100c118:	e0bffc15 	stw	r2,-16(fp)
static ALT_INLINE alt_irq_context ALT_ALWAYS_INLINE 
       alt_irq_disable_all (void)
{
  alt_irq_context context;

  NIOS2_READ_STATUS (context);
 100c11c:	0005303a 	rdctl	r2,status
 100c120:	e0bffb15 	stw	r2,-20(fp)

  NIOS2_WRITE_STATUS (context & ~NIOS2_STATUS_PIE_MSK);
 100c124:	e0fffb17 	ldw	r3,-20(fp)
 100c128:	00bfff84 	movi	r2,-2
 100c12c:	1884703a 	and	r2,r3,r2
 100c130:	1001703a 	wrctl	status,r2
  
  return context;
 100c134:	e0bffb17 	ldw	r2,-20(fp)
static ALT_INLINE int ALT_ALWAYS_INLINE alt_irq_enable (alt_u32 id)
{
  alt_irq_context  status;
  extern volatile alt_u32 alt_irq_active;

  status = alt_irq_disable_all ();
 100c138:	e0bffd15 	stw	r2,-12(fp)

  alt_irq_active |= (1 << id);
 100c13c:	e0fffc17 	ldw	r3,-16(fp)
 100c140:	00800044 	movi	r2,1
 100c144:	10c4983a 	sll	r2,r2,r3
 100c148:	1007883a 	mov	r3,r2
 100c14c:	00804074 	movhi	r2,257
 100c150:	10834f04 	addi	r2,r2,3388
 100c154:	10800017 	ldw	r2,0(r2)
 100c158:	1886b03a 	or	r3,r3,r2
 100c15c:	00804074 	movhi	r2,257
 100c160:	10834f04 	addi	r2,r2,3388
 100c164:	10c00015 	stw	r3,0(r2)
  NIOS2_WRITE_IENABLE (alt_irq_active);
 100c168:	00804074 	movhi	r2,257
 100c16c:	10834f04 	addi	r2,r2,3388
 100c170:	10800017 	ldw	r2,0(r2)
 100c174:	100170fa 	wrctl	ienable,r2
 100c178:	e0bffd17 	ldw	r2,-12(fp)
 100c17c:	e0bffa15 	stw	r2,-24(fp)
  status &= ~NIOS2_STATUS_PIE_MSK;
  status |= (context & NIOS2_STATUS_PIE_MSK);
  
  NIOS2_WRITE_STATUS (status);
#else
  NIOS2_WRITE_STATUS (context);
 100c180:	e0bffa17 	ldw	r2,-24(fp)
 100c184:	1001703a 	wrctl	status,r2

  alt_irq_enable_all(status);

  return 0;
 100c188:	0005883a 	mov	r2,zero
    return alt_irq_enable(irq);
}
 100c18c:	e037883a 	mov	sp,fp
 100c190:	df000017 	ldw	fp,0(sp)
 100c194:	dec00104 	addi	sp,sp,4
 100c198:	f800283a 	ret

0100c19c <alt_ic_irq_disable>:
  * @param ic_id            Ignored.
  * @param irq              IRQ number
  * @return                 0 if successful, else error (-1)
  */
int alt_ic_irq_disable(alt_u32 ic_id, alt_u32 irq)
{
 100c19c:	defff904 	addi	sp,sp,-28
 100c1a0:	df000615 	stw	fp,24(sp)
 100c1a4:	df000604 	addi	fp,sp,24
 100c1a8:	e13ffe15 	stw	r4,-8(fp)
 100c1ac:	e17fff15 	stw	r5,-4(fp)
 100c1b0:	e0bfff17 	ldw	r2,-4(fp)
 100c1b4:	e0bffc15 	stw	r2,-16(fp)
static ALT_INLINE alt_irq_context ALT_ALWAYS_INLINE 
       alt_irq_disable_all (void)
{
  alt_irq_context context;

  NIOS2_READ_STATUS (context);
 100c1b8:	0005303a 	rdctl	r2,status
 100c1bc:	e0bffb15 	stw	r2,-20(fp)

  NIOS2_WRITE_STATUS (context & ~NIOS2_STATUS_PIE_MSK);
 100c1c0:	e0fffb17 	ldw	r3,-20(fp)
 100c1c4:	00bfff84 	movi	r2,-2
 100c1c8:	1884703a 	and	r2,r3,r2
 100c1cc:	1001703a 	wrctl	status,r2
  
  return context;
 100c1d0:	e0bffb17 	ldw	r2,-20(fp)
static ALT_INLINE int ALT_ALWAYS_INLINE alt_irq_disable (alt_u32 id)
{
  alt_irq_context  status;
  extern volatile alt_u32 alt_irq_active;

  status = alt_irq_disable_all ();
 100c1d4:	e0bffd15 	stw	r2,-12(fp)

  alt_irq_active &= ~(1 << id);
 100c1d8:	e0fffc17 	ldw	r3,-16(fp)
 100c1dc:	00800044 	movi	r2,1
 100c1e0:	10c4983a 	sll	r2,r2,r3
 100c1e4:	0084303a 	nor	r2,zero,r2
 100c1e8:	1007883a 	mov	r3,r2
 100c1ec:	00804074 	movhi	r2,257
 100c1f0:	10834f04 	addi	r2,r2,3388
 100c1f4:	10800017 	ldw	r2,0(r2)
 100c1f8:	1886703a 	and	r3,r3,r2
 100c1fc:	00804074 	movhi	r2,257
 100c200:	10834f04 	addi	r2,r2,3388
 100c204:	10c00015 	stw	r3,0(r2)
  NIOS2_WRITE_IENABLE (alt_irq_active);
 100c208:	00804074 	movhi	r2,257
 100c20c:	10834f04 	addi	r2,r2,3388
 100c210:	10800017 	ldw	r2,0(r2)
 100c214:	100170fa 	wrctl	ienable,r2
 100c218:	e0bffd17 	ldw	r2,-12(fp)
 100c21c:	e0bffa15 	stw	r2,-24(fp)
  status &= ~NIOS2_STATUS_PIE_MSK;
  status |= (context & NIOS2_STATUS_PIE_MSK);
  
  NIOS2_WRITE_STATUS (status);
#else
  NIOS2_WRITE_STATUS (context);
 100c220:	e0bffa17 	ldw	r2,-24(fp)
 100c224:	1001703a 	wrctl	status,r2

  alt_irq_enable_all(status);

  return 0;
 100c228:	0005883a 	mov	r2,zero
    return alt_irq_disable(irq);
}
 100c22c:	e037883a 	mov	sp,fp
 100c230:	df000017 	ldw	fp,0(sp)
 100c234:	dec00104 	addi	sp,sp,4
 100c238:	f800283a 	ret

0100c23c <alt_ic_irq_enabled>:
  * @param irq              IRQ number
  * @return                 Zero if corresponding interrupt is disabled and
  *                         non-zero otherwise.
  */
alt_u32 alt_ic_irq_enabled(alt_u32 ic_id, alt_u32 irq)
{
 100c23c:	defffc04 	addi	sp,sp,-16
 100c240:	df000315 	stw	fp,12(sp)
 100c244:	df000304 	addi	fp,sp,12
 100c248:	e13ffe15 	stw	r4,-8(fp)
 100c24c:	e17fff15 	stw	r5,-4(fp)
    alt_u32 irq_enabled;

    NIOS2_READ_IENABLE(irq_enabled);
 100c250:	000530fa 	rdctl	r2,ienable
 100c254:	e0bffd15 	stw	r2,-12(fp)

    return (irq_enabled & (1 << irq)) ? 1: 0;
 100c258:	e0ffff17 	ldw	r3,-4(fp)
 100c25c:	00800044 	movi	r2,1
 100c260:	10c4983a 	sll	r2,r2,r3
 100c264:	1007883a 	mov	r3,r2
 100c268:	e0bffd17 	ldw	r2,-12(fp)
 100c26c:	1884703a 	and	r2,r3,r2
 100c270:	1004c03a 	cmpne	r2,r2,zero
}
 100c274:	e037883a 	mov	sp,fp
 100c278:	df000017 	ldw	fp,0(sp)
 100c27c:	dec00104 	addi	sp,sp,4
 100c280:	f800283a 	ret

0100c284 <alt_iic_isr_register>:
  * @param flags            
  * @return                 0 if successful, else error (-1)
  */
int alt_iic_isr_register(alt_u32 ic_id, alt_u32 irq, alt_isr_func isr, 
  void *isr_context, void *flags)
{
 100c284:	defff404 	addi	sp,sp,-48
 100c288:	dfc00b15 	stw	ra,44(sp)
 100c28c:	df000a15 	stw	fp,40(sp)
 100c290:	df000a04 	addi	fp,sp,40
 100c294:	e13ffb15 	stw	r4,-20(fp)
 100c298:	e17ffc15 	stw	r5,-16(fp)
 100c29c:	e1bffd15 	stw	r6,-12(fp)
 100c2a0:	e1fffe15 	stw	r7,-8(fp)
  int rc = -EINVAL;  
 100c2a4:	00bffa84 	movi	r2,-22
 100c2a8:	e0bffa15 	stw	r2,-24(fp)
  int id = irq;             /* IRQ interpreted as the interrupt ID. */
 100c2ac:	e0bffc17 	ldw	r2,-16(fp)
 100c2b0:	e0bff915 	stw	r2,-28(fp)
  alt_irq_context status;

  if (id < ALT_NIRQ)
 100c2b4:	e0bff917 	ldw	r2,-28(fp)
 100c2b8:	10800808 	cmpgei	r2,r2,32
 100c2bc:	1000291e 	bne	r2,zero,100c364 <alt_iic_isr_register+0xe0>
static ALT_INLINE alt_irq_context ALT_ALWAYS_INLINE 
       alt_irq_disable_all (void)
{
  alt_irq_context context;

  NIOS2_READ_STATUS (context);
 100c2c0:	0005303a 	rdctl	r2,status
 100c2c4:	e0bff715 	stw	r2,-36(fp)

  NIOS2_WRITE_STATUS (context & ~NIOS2_STATUS_PIE_MSK);
 100c2c8:	e0fff717 	ldw	r3,-36(fp)
 100c2cc:	00bfff84 	movi	r2,-2
 100c2d0:	1884703a 	and	r2,r3,r2
 100c2d4:	1001703a 	wrctl	status,r2
  
  return context;
 100c2d8:	e0bff717 	ldw	r2,-36(fp)
     * interrupts are disabled while the handler tables are updated to ensure
     * that an interrupt doesn't occur while the tables are in an inconsistant
     * state.
     */

    status = alt_irq_disable_all();
 100c2dc:	e0bff815 	stw	r2,-32(fp)

    alt_irq[id].handler = isr;
 100c2e0:	e0bff917 	ldw	r2,-28(fp)
 100c2e4:	00c04074 	movhi	r3,257
 100c2e8:	18c35c04 	addi	r3,r3,3440
 100c2ec:	100490fa 	slli	r2,r2,3
 100c2f0:	10c7883a 	add	r3,r2,r3
 100c2f4:	e0bffd17 	ldw	r2,-12(fp)
 100c2f8:	18800015 	stw	r2,0(r3)
    alt_irq[id].context = isr_context;
 100c2fc:	e0bff917 	ldw	r2,-28(fp)
 100c300:	00c04074 	movhi	r3,257
 100c304:	18c35c04 	addi	r3,r3,3440
 100c308:	100490fa 	slli	r2,r2,3
 100c30c:	10c5883a 	add	r2,r2,r3
 100c310:	10c00104 	addi	r3,r2,4
 100c314:	e0bffe17 	ldw	r2,-8(fp)
 100c318:	18800015 	stw	r2,0(r3)

    rc = (isr) ? alt_ic_irq_enable(ic_id, id) : alt_ic_irq_disable(ic_id, id);
 100c31c:	e0bffd17 	ldw	r2,-12(fp)
 100c320:	1005003a 	cmpeq	r2,r2,zero
 100c324:	1000051e 	bne	r2,zero,100c33c <alt_iic_isr_register+0xb8>
 100c328:	e17ff917 	ldw	r5,-28(fp)
 100c32c:	e13ffb17 	ldw	r4,-20(fp)
 100c330:	100c1000 	call	100c100 <alt_ic_irq_enable>
 100c334:	e0bfff15 	stw	r2,-4(fp)
 100c338:	00000406 	br	100c34c <alt_iic_isr_register+0xc8>
 100c33c:	e17ff917 	ldw	r5,-28(fp)
 100c340:	e13ffb17 	ldw	r4,-20(fp)
 100c344:	100c19c0 	call	100c19c <alt_ic_irq_disable>
 100c348:	e0bfff15 	stw	r2,-4(fp)
 100c34c:	e0bfff17 	ldw	r2,-4(fp)
 100c350:	e0bffa15 	stw	r2,-24(fp)
 100c354:	e0bff817 	ldw	r2,-32(fp)
 100c358:	e0bff615 	stw	r2,-40(fp)
  status &= ~NIOS2_STATUS_PIE_MSK;
  status |= (context & NIOS2_STATUS_PIE_MSK);
  
  NIOS2_WRITE_STATUS (status);
#else
  NIOS2_WRITE_STATUS (context);
 100c35c:	e0bff617 	ldw	r2,-40(fp)
 100c360:	1001703a 	wrctl	status,r2

    alt_irq_enable_all(status);
  }

  return rc; 
 100c364:	e0bffa17 	ldw	r2,-24(fp)
}
 100c368:	e037883a 	mov	sp,fp
 100c36c:	dfc00117 	ldw	ra,4(sp)
 100c370:	df000017 	ldw	fp,0(sp)
 100c374:	dec00204 	addi	sp,sp,8
 100c378:	f800283a 	ret

0100c37c <alt_open_fd>:
 * If the device can not be succesfully opened, then the input file descriptor
 * remains unchanged.
 */

static void alt_open_fd(alt_fd* fd, const char* name, int flags, int mode)
{
 100c37c:	defff804 	addi	sp,sp,-32
 100c380:	dfc00715 	stw	ra,28(sp)
 100c384:	df000615 	stw	fp,24(sp)
 100c388:	dc000515 	stw	r16,20(sp)
 100c38c:	df000504 	addi	fp,sp,20
 100c390:	e13ffc15 	stw	r4,-16(fp)
 100c394:	e17ffd15 	stw	r5,-12(fp)
 100c398:	e1bffe15 	stw	r6,-8(fp)
 100c39c:	e1ffff15 	stw	r7,-4(fp)
  int old;

  old = open (name, flags, mode);
 100c3a0:	e13ffd17 	ldw	r4,-12(fp)
 100c3a4:	e17ffe17 	ldw	r5,-8(fp)
 100c3a8:	e1bfff17 	ldw	r6,-4(fp)
 100c3ac:	100c5c40 	call	100c5c4 <open>
 100c3b0:	e0bffb15 	stw	r2,-20(fp)

  if (old >= 0)
 100c3b4:	e0bffb17 	ldw	r2,-20(fp)
 100c3b8:	1004803a 	cmplt	r2,r2,zero
 100c3bc:	10001f1e 	bne	r2,zero,100c43c <alt_open_fd+0xc0>
  {
    fd->dev      = alt_fd_list[old].dev;
 100c3c0:	e13ffb17 	ldw	r4,-20(fp)
 100c3c4:	04004074 	movhi	r16,257
 100c3c8:	8437fa04 	addi	r16,r16,-8216
 100c3cc:	01400304 	movi	r5,12
 100c3d0:	100972c0 	call	100972c <__mulsi3>
 100c3d4:	1405883a 	add	r2,r2,r16
 100c3d8:	10c00017 	ldw	r3,0(r2)
 100c3dc:	e0bffc17 	ldw	r2,-16(fp)
 100c3e0:	10c00015 	stw	r3,0(r2)
    fd->priv     = alt_fd_list[old].priv;
 100c3e4:	e13ffb17 	ldw	r4,-20(fp)
 100c3e8:	04004074 	movhi	r16,257
 100c3ec:	8437fa04 	addi	r16,r16,-8216
 100c3f0:	01400304 	movi	r5,12
 100c3f4:	100972c0 	call	100972c <__mulsi3>
 100c3f8:	1405883a 	add	r2,r2,r16
 100c3fc:	10800104 	addi	r2,r2,4
 100c400:	10c00017 	ldw	r3,0(r2)
 100c404:	e0bffc17 	ldw	r2,-16(fp)
 100c408:	10c00115 	stw	r3,4(r2)
    fd->fd_flags = alt_fd_list[old].fd_flags;
 100c40c:	e13ffb17 	ldw	r4,-20(fp)
 100c410:	04004074 	movhi	r16,257
 100c414:	8437fa04 	addi	r16,r16,-8216
 100c418:	01400304 	movi	r5,12
 100c41c:	100972c0 	call	100972c <__mulsi3>
 100c420:	1405883a 	add	r2,r2,r16
 100c424:	10800204 	addi	r2,r2,8
 100c428:	10c00017 	ldw	r3,0(r2)
 100c42c:	e0bffc17 	ldw	r2,-16(fp)
 100c430:	10c00215 	stw	r3,8(r2)

    alt_release_fd (old);
 100c434:	e13ffb17 	ldw	r4,-20(fp)
 100c438:	100a90c0 	call	100a90c <alt_release_fd>
  }
} 
 100c43c:	e037883a 	mov	sp,fp
 100c440:	dfc00217 	ldw	ra,8(sp)
 100c444:	df000117 	ldw	fp,4(sp)
 100c448:	dc000017 	ldw	r16,0(sp)
 100c44c:	dec00304 	addi	sp,sp,12
 100c450:	f800283a 	ret

0100c454 <alt_io_redirect>:
 */
 
void alt_io_redirect(const char* stdout_dev, 
                     const char* stdin_dev, 
                     const char* stderr_dev)
{
 100c454:	defffb04 	addi	sp,sp,-20
 100c458:	dfc00415 	stw	ra,16(sp)
 100c45c:	df000315 	stw	fp,12(sp)
 100c460:	df000304 	addi	fp,sp,12
 100c464:	e13ffd15 	stw	r4,-12(fp)
 100c468:	e17ffe15 	stw	r5,-8(fp)
 100c46c:	e1bfff15 	stw	r6,-4(fp)
  /* Redirect the channels */

  alt_open_fd (&alt_fd_list[STDOUT_FILENO], stdout_dev, O_WRONLY, 0777);
 100c470:	01004074 	movhi	r4,257
 100c474:	2137fd04 	addi	r4,r4,-8204
 100c478:	e17ffd17 	ldw	r5,-12(fp)
 100c47c:	01800044 	movi	r6,1
 100c480:	01c07fc4 	movi	r7,511
 100c484:	100c37c0 	call	100c37c <alt_open_fd>
  alt_open_fd (&alt_fd_list[STDIN_FILENO], stdin_dev, O_RDONLY, 0777);
 100c488:	01004074 	movhi	r4,257
 100c48c:	2137fa04 	addi	r4,r4,-8216
 100c490:	e17ffe17 	ldw	r5,-8(fp)
 100c494:	000d883a 	mov	r6,zero
 100c498:	01c07fc4 	movi	r7,511
 100c49c:	100c37c0 	call	100c37c <alt_open_fd>
  alt_open_fd (&alt_fd_list[STDERR_FILENO], stderr_dev, O_WRONLY, 0777);
 100c4a0:	01004074 	movhi	r4,257
 100c4a4:	21380004 	addi	r4,r4,-8192
 100c4a8:	e17fff17 	ldw	r5,-4(fp)
 100c4ac:	01800044 	movi	r6,1
 100c4b0:	01c07fc4 	movi	r7,511
 100c4b4:	100c37c0 	call	100c37c <alt_open_fd>
}  
 100c4b8:	e037883a 	mov	sp,fp
 100c4bc:	dfc00117 	ldw	ra,4(sp)
 100c4c0:	df000017 	ldw	fp,0(sp)
 100c4c4:	dec00204 	addi	sp,sp,8
 100c4c8:	f800283a 	ret

0100c4cc <alt_file_locked>:
 * performed for devices. Filesystems are required to handle the ioctl() call
 * themselves, and report the error from the filesystems open() function. 
 */ 

static int alt_file_locked (alt_fd* fd)
{
 100c4cc:	defffa04 	addi	sp,sp,-24
 100c4d0:	dfc00515 	stw	ra,20(sp)
 100c4d4:	df000415 	stw	fp,16(sp)
 100c4d8:	dc000315 	stw	r16,12(sp)
 100c4dc:	df000304 	addi	fp,sp,12
 100c4e0:	e13ffe15 	stw	r4,-8(fp)

  /*
   * Mark the file descriptor as belonging to a device.
   */

  fd->fd_flags |= ALT_FD_DEV;
 100c4e4:	e0bffe17 	ldw	r2,-8(fp)
 100c4e8:	10800217 	ldw	r2,8(r2)
 100c4ec:	10d00034 	orhi	r3,r2,16384
 100c4f0:	e0bffe17 	ldw	r2,-8(fp)
 100c4f4:	10c00215 	stw	r3,8(r2)
  /*
   * Loop through all current file descriptors searching for one that's locked
   * for exclusive access. If a match is found, generate an error.
   */

  for (i = 0; i <= alt_max_fd; i++)
 100c4f8:	e03ffd15 	stw	zero,-12(fp)
 100c4fc:	00002306 	br	100c58c <alt_file_locked+0xc0>
  {
    if ((alt_fd_list[i].dev == fd->dev) &&
 100c500:	e13ffd17 	ldw	r4,-12(fp)
 100c504:	04004074 	movhi	r16,257
 100c508:	8437fa04 	addi	r16,r16,-8216
 100c50c:	01400304 	movi	r5,12
 100c510:	100972c0 	call	100972c <__mulsi3>
 100c514:	1405883a 	add	r2,r2,r16
 100c518:	10c00017 	ldw	r3,0(r2)
 100c51c:	e0bffe17 	ldw	r2,-8(fp)
 100c520:	10800017 	ldw	r2,0(r2)
 100c524:	1880161e 	bne	r3,r2,100c580 <alt_file_locked+0xb4>
 100c528:	e13ffd17 	ldw	r4,-12(fp)
 100c52c:	04004074 	movhi	r16,257
 100c530:	8437fa04 	addi	r16,r16,-8216
 100c534:	01400304 	movi	r5,12
 100c538:	100972c0 	call	100972c <__mulsi3>
 100c53c:	1405883a 	add	r2,r2,r16
 100c540:	10800204 	addi	r2,r2,8
 100c544:	10800017 	ldw	r2,0(r2)
 100c548:	1004403a 	cmpge	r2,r2,zero
 100c54c:	10000c1e 	bne	r2,zero,100c580 <alt_file_locked+0xb4>
 100c550:	e13ffd17 	ldw	r4,-12(fp)
 100c554:	01400304 	movi	r5,12
 100c558:	100972c0 	call	100972c <__mulsi3>
 100c55c:	1007883a 	mov	r3,r2
 100c560:	00804074 	movhi	r2,257
 100c564:	10b7fa04 	addi	r2,r2,-8216
 100c568:	1887883a 	add	r3,r3,r2
 100c56c:	e0bffe17 	ldw	r2,-8(fp)
 100c570:	18800326 	beq	r3,r2,100c580 <alt_file_locked+0xb4>
        (alt_fd_list[i].fd_flags & ALT_FD_EXCL) &&
        (&alt_fd_list[i] != fd))
    {
      return -EACCES;
 100c574:	00bffcc4 	movi	r2,-13
 100c578:	e0bfff15 	stw	r2,-4(fp)
 100c57c:	00000a06 	br	100c5a8 <alt_file_locked+0xdc>
  /*
   * Loop through all current file descriptors searching for one that's locked
   * for exclusive access. If a match is found, generate an error.
   */

  for (i = 0; i <= alt_max_fd; i++)
 100c580:	e0bffd17 	ldw	r2,-12(fp)
 100c584:	10800044 	addi	r2,r2,1
 100c588:	e0bffd15 	stw	r2,-12(fp)
 100c58c:	00804074 	movhi	r2,257
 100c590:	10bc9204 	addi	r2,r2,-3512
 100c594:	10800017 	ldw	r2,0(r2)
 100c598:	1007883a 	mov	r3,r2
 100c59c:	e0bffd17 	ldw	r2,-12(fp)
 100c5a0:	18bfd72e 	bgeu	r3,r2,100c500 <alt_file_locked+0x34>
    }
  }
  
  /* The device is not locked */
 
  return 0;
 100c5a4:	e03fff15 	stw	zero,-4(fp)
 100c5a8:	e0bfff17 	ldw	r2,-4(fp)
}
 100c5ac:	e037883a 	mov	sp,fp
 100c5b0:	dfc00217 	ldw	ra,8(sp)
 100c5b4:	df000117 	ldw	fp,4(sp)
 100c5b8:	dc000017 	ldw	r16,0(sp)
 100c5bc:	dec00304 	addi	sp,sp,12
 100c5c0:	f800283a 	ret

0100c5c4 <open>:
 *
 * ALT_OPEN is mapped onto the open() system call in alt_syscall.h
 */
 
int ALT_OPEN (const char* file, int flags, int mode)
{ 
 100c5c4:	defff404 	addi	sp,sp,-48
 100c5c8:	dfc00b15 	stw	ra,44(sp)
 100c5cc:	df000a15 	stw	fp,40(sp)
 100c5d0:	df000a04 	addi	fp,sp,40
 100c5d4:	e13ffb15 	stw	r4,-20(fp)
 100c5d8:	e17ffc15 	stw	r5,-16(fp)
 100c5dc:	e1bffd15 	stw	r6,-12(fp)
  alt_dev* dev;
  alt_fd*  fd;
  int index  = -1;
 100c5e0:	00bfffc4 	movi	r2,-1
 100c5e4:	e0bff815 	stw	r2,-32(fp)
  int status = -ENODEV;
 100c5e8:	00bffb44 	movi	r2,-19
 100c5ec:	e0bff715 	stw	r2,-36(fp)
  int isafs = 0;
 100c5f0:	e03ff615 	stw	zero,-40(fp)
  /* 
   * Check the device list, to see if a device with a matching name is 
   * registered.
   */
  
  if (!(dev = alt_find_dev (file, &alt_dev_list)))
 100c5f4:	e13ffb17 	ldw	r4,-20(fp)
 100c5f8:	01404074 	movhi	r5,257
 100c5fc:	297c9004 	addi	r5,r5,-3520
 100c600:	100c0000 	call	100c000 <alt_find_dev>
 100c604:	e0bffa15 	stw	r2,-24(fp)
 100c608:	e0bffa17 	ldw	r2,-24(fp)
 100c60c:	1004c03a 	cmpne	r2,r2,zero
 100c610:	1000051e 	bne	r2,zero,100c628 <open+0x64>
  {
    /* No matching device, so try the filesystem list */

    dev   = alt_find_file (file);
 100c614:	e13ffb17 	ldw	r4,-20(fp)
 100c618:	100c9740 	call	100c974 <alt_find_file>
 100c61c:	e0bffa15 	stw	r2,-24(fp)
    isafs = 1;
 100c620:	00800044 	movi	r2,1
 100c624:	e0bff615 	stw	r2,-40(fp)

  /* 
   * If a matching device or filesystem is found, allocate a file descriptor. 
   */

  if (dev)
 100c628:	e0bffa17 	ldw	r2,-24(fp)
 100c62c:	1005003a 	cmpeq	r2,r2,zero
 100c630:	1000311e 	bne	r2,zero,100c6f8 <open+0x134>
  {
    if ((index = alt_get_fd (dev)) < 0)
 100c634:	e13ffa17 	ldw	r4,-24(fp)
 100c638:	100ca940 	call	100ca94 <alt_get_fd>
 100c63c:	e0bff815 	stw	r2,-32(fp)
 100c640:	e0bff817 	ldw	r2,-32(fp)
 100c644:	1004403a 	cmpge	r2,r2,zero
 100c648:	1000031e 	bne	r2,zero,100c658 <open+0x94>
    {
      status = index;
 100c64c:	e0bff817 	ldw	r2,-32(fp)
 100c650:	e0bff715 	stw	r2,-36(fp)
 100c654:	00002a06 	br	100c700 <open+0x13c>
    }
    else
    {
      fd = &alt_fd_list[index];
 100c658:	e13ff817 	ldw	r4,-32(fp)
 100c65c:	01400304 	movi	r5,12
 100c660:	100972c0 	call	100972c <__mulsi3>
 100c664:	1007883a 	mov	r3,r2
 100c668:	00804074 	movhi	r2,257
 100c66c:	10b7fa04 	addi	r2,r2,-8216
 100c670:	1885883a 	add	r2,r3,r2
 100c674:	e0bff915 	stw	r2,-28(fp)
      fd->fd_flags = (flags & ~ALT_FD_FLAGS_MASK);
 100c678:	e0fffc17 	ldw	r3,-16(fp)
 100c67c:	00900034 	movhi	r2,16384
 100c680:	10bfffc4 	addi	r2,r2,-1
 100c684:	1886703a 	and	r3,r3,r2
 100c688:	e0bff917 	ldw	r2,-28(fp)
 100c68c:	10c00215 	stw	r3,8(r2)
      
      /* If this is a device, ensure it isn't already locked */

      if (isafs || ((status = alt_file_locked (fd)) >= 0))
 100c690:	e0bff617 	ldw	r2,-40(fp)
 100c694:	1004c03a 	cmpne	r2,r2,zero
 100c698:	1000061e 	bne	r2,zero,100c6b4 <open+0xf0>
 100c69c:	e13ff917 	ldw	r4,-28(fp)
 100c6a0:	100c4cc0 	call	100c4cc <alt_file_locked>
 100c6a4:	e0bff715 	stw	r2,-36(fp)
 100c6a8:	e0bff717 	ldw	r2,-36(fp)
 100c6ac:	1004803a 	cmplt	r2,r2,zero
 100c6b0:	1000131e 	bne	r2,zero,100c700 <open+0x13c>
        /* 
         * If the device or filesystem provides an open() callback function,
         * call it now to perform any device/filesystem specific operations.
         */
    
        status = (dev->open) ? dev->open(fd, file, flags, mode): 0;
 100c6b4:	e0bffa17 	ldw	r2,-24(fp)
 100c6b8:	10800317 	ldw	r2,12(r2)
 100c6bc:	1005003a 	cmpeq	r2,r2,zero
 100c6c0:	1000091e 	bne	r2,zero,100c6e8 <open+0x124>
 100c6c4:	e0bffa17 	ldw	r2,-24(fp)
 100c6c8:	10800317 	ldw	r2,12(r2)
 100c6cc:	e13ff917 	ldw	r4,-28(fp)
 100c6d0:	e17ffb17 	ldw	r5,-20(fp)
 100c6d4:	e1bffc17 	ldw	r6,-16(fp)
 100c6d8:	e1fffd17 	ldw	r7,-12(fp)
 100c6dc:	103ee83a 	callr	r2
 100c6e0:	e0bfff15 	stw	r2,-4(fp)
 100c6e4:	00000106 	br	100c6ec <open+0x128>
 100c6e8:	e03fff15 	stw	zero,-4(fp)
 100c6ec:	e0bfff17 	ldw	r2,-4(fp)
 100c6f0:	e0bff715 	stw	r2,-36(fp)
 100c6f4:	00000206 	br	100c700 <open+0x13c>
      }
    }
  }
  else
  {
    status = -ENODEV;
 100c6f8:	00bffb44 	movi	r2,-19
 100c6fc:	e0bff715 	stw	r2,-36(fp)
  }

  /* Allocation failed, so clean up and return an error */ 

  if (status < 0)
 100c700:	e0bff717 	ldw	r2,-36(fp)
 100c704:	1004403a 	cmpge	r2,r2,zero
 100c708:	1000091e 	bne	r2,zero,100c730 <open+0x16c>
  {
    alt_release_fd (index);  
 100c70c:	e13ff817 	ldw	r4,-32(fp)
 100c710:	100a90c0 	call	100a90c <alt_release_fd>
    ALT_ERRNO = -status;
 100c714:	100c7500 	call	100c750 <alt_get_errno>
 100c718:	e0fff717 	ldw	r3,-36(fp)
 100c71c:	00c7c83a 	sub	r3,zero,r3
 100c720:	10c00015 	stw	r3,0(r2)
    return -1;
 100c724:	00bfffc4 	movi	r2,-1
 100c728:	e0bffe15 	stw	r2,-8(fp)
 100c72c:	00000206 	br	100c738 <open+0x174>
  }
  
  /* return the reference upon success */

  return index;
 100c730:	e0bff817 	ldw	r2,-32(fp)
 100c734:	e0bffe15 	stw	r2,-8(fp)
 100c738:	e0bffe17 	ldw	r2,-8(fp)
}
 100c73c:	e037883a 	mov	sp,fp
 100c740:	dfc00117 	ldw	ra,4(sp)
 100c744:	df000017 	ldw	fp,0(sp)
 100c748:	dec00204 	addi	sp,sp,8
 100c74c:	f800283a 	ret

0100c750 <alt_get_errno>:
#undef errno

extern int errno;

static ALT_INLINE int* alt_get_errno(void)
{
 100c750:	defffd04 	addi	sp,sp,-12
 100c754:	dfc00215 	stw	ra,8(sp)
 100c758:	df000115 	stw	fp,4(sp)
 100c75c:	df000104 	addi	fp,sp,4
  return ((alt_errno) ? alt_errno() : &errno);
 100c760:	00804074 	movhi	r2,257
 100c764:	10bc9304 	addi	r2,r2,-3508
 100c768:	10800017 	ldw	r2,0(r2)
 100c76c:	1005003a 	cmpeq	r2,r2,zero
 100c770:	1000061e 	bne	r2,zero,100c78c <alt_get_errno+0x3c>
 100c774:	00804074 	movhi	r2,257
 100c778:	10bc9304 	addi	r2,r2,-3508
 100c77c:	10800017 	ldw	r2,0(r2)
 100c780:	103ee83a 	callr	r2
 100c784:	e0bfff15 	stw	r2,-4(fp)
 100c788:	00000306 	br	100c798 <alt_get_errno+0x48>
 100c78c:	00804074 	movhi	r2,257
 100c790:	10834b04 	addi	r2,r2,3372
 100c794:	e0bfff15 	stw	r2,-4(fp)
 100c798:	e0bfff17 	ldw	r2,-4(fp)
}
 100c79c:	e037883a 	mov	sp,fp
 100c7a0:	dfc00117 	ldw	ra,4(sp)
 100c7a4:	df000017 	ldw	fp,0(sp)
 100c7a8:	dec00204 	addi	sp,sp,8
 100c7ac:	f800283a 	ret

0100c7b0 <alt_alarm_stop>:
 * alarms. Alternatively an alarm can unregister itself by returning zero when 
 * the alarm executes.
 */

void alt_alarm_stop (alt_alarm* alarm)
{
 100c7b0:	defffa04 	addi	sp,sp,-24
 100c7b4:	df000515 	stw	fp,20(sp)
 100c7b8:	df000504 	addi	fp,sp,20
 100c7bc:	e13fff15 	stw	r4,-4(fp)
static ALT_INLINE alt_irq_context ALT_ALWAYS_INLINE 
       alt_irq_disable_all (void)
{
  alt_irq_context context;

  NIOS2_READ_STATUS (context);
 100c7c0:	0005303a 	rdctl	r2,status
 100c7c4:	e0bffd15 	stw	r2,-12(fp)

  NIOS2_WRITE_STATUS (context & ~NIOS2_STATUS_PIE_MSK);
 100c7c8:	e0fffd17 	ldw	r3,-12(fp)
 100c7cc:	00bfff84 	movi	r2,-2
 100c7d0:	1884703a 	and	r2,r3,r2
 100c7d4:	1001703a 	wrctl	status,r2
  
  return context;
 100c7d8:	e0bffd17 	ldw	r2,-12(fp)
  alt_irq_context irq_context;

  irq_context = alt_irq_disable_all();
 100c7dc:	e0bffe15 	stw	r2,-8(fp)
  alt_llist_remove (&alarm->llist);
 100c7e0:	e0bfff17 	ldw	r2,-4(fp)
 100c7e4:	e0bffc15 	stw	r2,-16(fp)
 * input argument is the element to remove.
 */
     
static ALT_INLINE void ALT_ALWAYS_INLINE alt_llist_remove(alt_llist* entry)
{
  entry->next->previous = entry->previous;
 100c7e8:	e0bffc17 	ldw	r2,-16(fp)
 100c7ec:	10c00017 	ldw	r3,0(r2)
 100c7f0:	e0bffc17 	ldw	r2,-16(fp)
 100c7f4:	10800117 	ldw	r2,4(r2)
 100c7f8:	18800115 	stw	r2,4(r3)
  entry->previous->next = entry->next;
 100c7fc:	e0bffc17 	ldw	r2,-16(fp)
 100c800:	10c00117 	ldw	r3,4(r2)
 100c804:	e0bffc17 	ldw	r2,-16(fp)
 100c808:	10800017 	ldw	r2,0(r2)
 100c80c:	18800015 	stw	r2,0(r3)
  /* 
   * Set the entry to point to itself, so that any further calls to
   * alt_llist_remove() are harmless.
   */

  entry->previous = entry;
 100c810:	e0fffc17 	ldw	r3,-16(fp)
 100c814:	e0bffc17 	ldw	r2,-16(fp)
 100c818:	18800115 	stw	r2,4(r3)
  entry->next     = entry;
 100c81c:	e0fffc17 	ldw	r3,-16(fp)
 100c820:	e0bffc17 	ldw	r2,-16(fp)
 100c824:	18800015 	stw	r2,0(r3)
 100c828:	e0bffe17 	ldw	r2,-8(fp)
 100c82c:	e0bffb15 	stw	r2,-20(fp)
  status &= ~NIOS2_STATUS_PIE_MSK;
  status |= (context & NIOS2_STATUS_PIE_MSK);
  
  NIOS2_WRITE_STATUS (status);
#else
  NIOS2_WRITE_STATUS (context);
 100c830:	e0bffb17 	ldw	r2,-20(fp)
 100c834:	1001703a 	wrctl	status,r2
  alt_irq_enable_all (irq_context);
}
 100c838:	e037883a 	mov	sp,fp
 100c83c:	df000017 	ldw	fp,0(sp)
 100c840:	dec00104 	addi	sp,sp,4
 100c844:	f800283a 	ret

0100c848 <alt_tick>:
 * 
 * alt_tick() is expected to run at interrupt level.
 */

void alt_tick (void)
{
 100c848:	defffb04 	addi	sp,sp,-20
 100c84c:	dfc00415 	stw	ra,16(sp)
 100c850:	df000315 	stw	fp,12(sp)
 100c854:	df000304 	addi	fp,sp,12
  alt_alarm* next;
  alt_alarm* alarm = (alt_alarm*) alt_alarm_list.next;
 100c858:	d0a00e17 	ldw	r2,-32712(gp)
 100c85c:	e0bffe15 	stw	r2,-8(fp)

  alt_u32    next_callback;

  /* update the tick counter */

  _alt_nticks++;
 100c860:	d0a6c917 	ldw	r2,-25820(gp)
 100c864:	10800044 	addi	r2,r2,1
 100c868:	d0a6c915 	stw	r2,-25820(gp)

  /* process the registered callbacks */

  while (alarm != (alt_alarm*) &alt_alarm_list)
 100c86c:	00003106 	br	100c934 <alt_tick+0xec>
  {
    next = (alt_alarm*) alarm->llist.next;
 100c870:	e0bffe17 	ldw	r2,-8(fp)
 100c874:	10800017 	ldw	r2,0(r2)
 100c878:	e0bfff15 	stw	r2,-4(fp)
    /* 
     * Upon the tick-counter rolling over it is safe to clear the 
     * roll-over flag; once the flag is cleared this (or subsequnt)
     * tick events are enabled to generate an alarm event. 
     */
    if ((alarm->rollover) && (_alt_nticks == 0))
 100c87c:	e0bffe17 	ldw	r2,-8(fp)
 100c880:	10800403 	ldbu	r2,16(r2)
 100c884:	10803fcc 	andi	r2,r2,255
 100c888:	1005003a 	cmpeq	r2,r2,zero
 100c88c:	1000051e 	bne	r2,zero,100c8a4 <alt_tick+0x5c>
 100c890:	d0a6c917 	ldw	r2,-25820(gp)
 100c894:	1004c03a 	cmpne	r2,r2,zero
 100c898:	1000021e 	bne	r2,zero,100c8a4 <alt_tick+0x5c>
    {
      alarm->rollover = 0;
 100c89c:	e0bffe17 	ldw	r2,-8(fp)
 100c8a0:	10000405 	stb	zero,16(r2)
    }
    
    /* if the alarm period has expired, make the callback */    
    if ((alarm->time <= _alt_nticks) && (alarm->rollover == 0))
 100c8a4:	e0bffe17 	ldw	r2,-8(fp)
 100c8a8:	10c00217 	ldw	r3,8(r2)
 100c8ac:	d0a6c917 	ldw	r2,-25820(gp)
 100c8b0:	10c01e36 	bltu	r2,r3,100c92c <alt_tick+0xe4>
 100c8b4:	e0bffe17 	ldw	r2,-8(fp)
 100c8b8:	10800403 	ldbu	r2,16(r2)
 100c8bc:	10803fcc 	andi	r2,r2,255
 100c8c0:	1004c03a 	cmpne	r2,r2,zero
 100c8c4:	1000191e 	bne	r2,zero,100c92c <alt_tick+0xe4>
    {
      next_callback = alarm->callback (alarm->context);
 100c8c8:	e0bffe17 	ldw	r2,-8(fp)
 100c8cc:	10c00317 	ldw	r3,12(r2)
 100c8d0:	e0bffe17 	ldw	r2,-8(fp)
 100c8d4:	11000517 	ldw	r4,20(r2)
 100c8d8:	183ee83a 	callr	r3
 100c8dc:	e0bffd15 	stw	r2,-12(fp)

      /* deactivate the alarm if the return value is zero */

      if (next_callback == 0)
 100c8e0:	e0bffd17 	ldw	r2,-12(fp)
 100c8e4:	1004c03a 	cmpne	r2,r2,zero
 100c8e8:	1000031e 	bne	r2,zero,100c8f8 <alt_tick+0xb0>
      {
        alt_alarm_stop (alarm);
 100c8ec:	e13ffe17 	ldw	r4,-8(fp)
 100c8f0:	100c7b00 	call	100c7b0 <alt_alarm_stop>
 100c8f4:	00000d06 	br	100c92c <alt_tick+0xe4>
      }
      else
      {
        alarm->time += next_callback;
 100c8f8:	e0bffe17 	ldw	r2,-8(fp)
 100c8fc:	10c00217 	ldw	r3,8(r2)
 100c900:	e0bffd17 	ldw	r2,-12(fp)
 100c904:	1887883a 	add	r3,r3,r2
 100c908:	e0bffe17 	ldw	r2,-8(fp)
 100c90c:	10c00215 	stw	r3,8(r2)
        /* 
         * If the desired alarm time causes a roll-over, set the rollover
         * flag. This will prevent the subsequent tick event from causing
         * an alarm too early.
         */
        if(alarm->time < _alt_nticks)
 100c910:	e0bffe17 	ldw	r2,-8(fp)
 100c914:	10c00217 	ldw	r3,8(r2)
 100c918:	d0a6c917 	ldw	r2,-25820(gp)
 100c91c:	1880032e 	bgeu	r3,r2,100c92c <alt_tick+0xe4>
        {
          alarm->rollover = 1;
 100c920:	e0fffe17 	ldw	r3,-8(fp)
 100c924:	00800044 	movi	r2,1
 100c928:	18800405 	stb	r2,16(r3)
        }
      }
    }
    alarm = next;
 100c92c:	e0bfff17 	ldw	r2,-4(fp)
 100c930:	e0bffe15 	stw	r2,-8(fp)

  _alt_nticks++;

  /* process the registered callbacks */

  while (alarm != (alt_alarm*) &alt_alarm_list)
 100c934:	d0e00e04 	addi	r3,gp,-32712
 100c938:	e0bffe17 	ldw	r2,-8(fp)
 100c93c:	10ffcc1e 	bne	r2,r3,100c870 <alt_tick+0x28>
  /* 
   * Update the operating system specific timer facilities.
   */

  ALT_OS_TIME_TICK();
}
 100c940:	e037883a 	mov	sp,fp
 100c944:	dfc00117 	ldw	ra,4(sp)
 100c948:	df000017 	ldw	fp,0(sp)
 100c94c:	dec00204 	addi	sp,sp,8
 100c950:	f800283a 	ret

0100c954 <altera_nios2_qsys_irq_init>:
/*
 * To initialize the internal interrupt controller, just clear the IENABLE
 * register so that all possible IRQs are disabled.
 */
void altera_nios2_qsys_irq_init(void) 
{
 100c954:	deffff04 	addi	sp,sp,-4
 100c958:	df000015 	stw	fp,0(sp)
 100c95c:	d839883a 	mov	fp,sp
    NIOS2_WRITE_IENABLE(0);
 100c960:	000170fa 	wrctl	ienable,zero
}
 100c964:	e037883a 	mov	sp,fp
 100c968:	df000017 	ldw	fp,0(sp)
 100c96c:	dec00104 	addi	sp,sp,4
 100c970:	f800283a 	ret

0100c974 <alt_find_file>:
 * either '/' or '\0' is the prefix of the filename. For example the filename:
 * "/myfilesystem/junk.txt" would match: "/myfilesystem", but not: "/myfile". 
 */
 
alt_dev* alt_find_file (const char* name)
{
 100c974:	defffa04 	addi	sp,sp,-24
 100c978:	dfc00515 	stw	ra,20(sp)
 100c97c:	df000415 	stw	fp,16(sp)
 100c980:	df000404 	addi	fp,sp,16
 100c984:	e13ffe15 	stw	r4,-8(fp)
  alt_dev* next = (alt_dev*) alt_fs_list.next;   
 100c988:	00804074 	movhi	r2,257
 100c98c:	10bc8e04 	addi	r2,r2,-3528
 100c990:	10800017 	ldw	r2,0(r2)
 100c994:	e0bffd15 	stw	r2,-12(fp)
  /*
   * Check each list entry in turn, until a match is found, or we reach the
   * end of the list (i.e. next winds up pointing back to the list head).
   */ 
 
  while (next != (alt_dev*) &alt_fs_list)
 100c998:	00003306 	br	100ca68 <alt_find_file+0xf4>
  {
    len = strlen(next->name);
 100c99c:	e0bffd17 	ldw	r2,-12(fp)
 100c9a0:	11000217 	ldw	r4,8(r2)
 100c9a4:	10072cc0 	call	10072cc <strlen>
 100c9a8:	e0bffc15 	stw	r2,-16(fp)
    
    if (next->name[len-1] == '/')
 100c9ac:	e0bffd17 	ldw	r2,-12(fp)
 100c9b0:	10c00217 	ldw	r3,8(r2)
 100c9b4:	e0bffc17 	ldw	r2,-16(fp)
 100c9b8:	1885883a 	add	r2,r3,r2
 100c9bc:	10bfffc4 	addi	r2,r2,-1
 100c9c0:	10800003 	ldbu	r2,0(r2)
 100c9c4:	10803fcc 	andi	r2,r2,255
 100c9c8:	1080201c 	xori	r2,r2,128
 100c9cc:	10bfe004 	addi	r2,r2,-128
 100c9d0:	10800bd8 	cmpnei	r2,r2,47
 100c9d4:	1000031e 	bne	r2,zero,100c9e4 <alt_find_file+0x70>
    {
      len -= 1;
 100c9d8:	e0bffc17 	ldw	r2,-16(fp)
 100c9dc:	10bfffc4 	addi	r2,r2,-1
 100c9e0:	e0bffc15 	stw	r2,-16(fp)
    }

    if (((name[len] == '/') || (name[len] == '\0')) && 
 100c9e4:	e0bffc17 	ldw	r2,-16(fp)
 100c9e8:	1007883a 	mov	r3,r2
 100c9ec:	e0bffe17 	ldw	r2,-8(fp)
 100c9f0:	1885883a 	add	r2,r3,r2
 100c9f4:	10800003 	ldbu	r2,0(r2)
 100c9f8:	10803fcc 	andi	r2,r2,255
 100c9fc:	1080201c 	xori	r2,r2,128
 100ca00:	10bfe004 	addi	r2,r2,-128
 100ca04:	10800be0 	cmpeqi	r2,r2,47
 100ca08:	10000a1e 	bne	r2,zero,100ca34 <alt_find_file+0xc0>
 100ca0c:	e0bffc17 	ldw	r2,-16(fp)
 100ca10:	1007883a 	mov	r3,r2
 100ca14:	e0bffe17 	ldw	r2,-8(fp)
 100ca18:	1885883a 	add	r2,r3,r2
 100ca1c:	10800003 	ldbu	r2,0(r2)
 100ca20:	10803fcc 	andi	r2,r2,255
 100ca24:	1080201c 	xori	r2,r2,128
 100ca28:	10bfe004 	addi	r2,r2,-128
 100ca2c:	1004c03a 	cmpne	r2,r2,zero
 100ca30:	10000a1e 	bne	r2,zero,100ca5c <alt_find_file+0xe8>
 100ca34:	e0bffd17 	ldw	r2,-12(fp)
 100ca38:	11000217 	ldw	r4,8(r2)
 100ca3c:	e1bffc17 	ldw	r6,-16(fp)
 100ca40:	e17ffe17 	ldw	r5,-8(fp)
 100ca44:	100cbb00 	call	100cbb0 <memcmp>
 100ca48:	1004c03a 	cmpne	r2,r2,zero
 100ca4c:	1000031e 	bne	r2,zero,100ca5c <alt_find_file+0xe8>
        !memcmp (next->name, name, len))
    {
      /* match found */

      return next;
 100ca50:	e0bffd17 	ldw	r2,-12(fp)
 100ca54:	e0bfff15 	stw	r2,-4(fp)
 100ca58:	00000806 	br	100ca7c <alt_find_file+0x108>
    }
    next = (alt_dev*) next->llist.next;
 100ca5c:	e0bffd17 	ldw	r2,-12(fp)
 100ca60:	10800017 	ldw	r2,0(r2)
 100ca64:	e0bffd15 	stw	r2,-12(fp)
  /*
   * Check each list entry in turn, until a match is found, or we reach the
   * end of the list (i.e. next winds up pointing back to the list head).
   */ 
 
  while (next != (alt_dev*) &alt_fs_list)
 100ca68:	00c04074 	movhi	r3,257
 100ca6c:	18fc8e04 	addi	r3,r3,-3528
 100ca70:	e0bffd17 	ldw	r2,-12(fp)
 100ca74:	10ffc91e 	bne	r2,r3,100c99c <alt_find_file+0x28>
    next = (alt_dev*) next->llist.next;
  }
  
  /* No match found */
  
  return NULL;     
 100ca78:	e03fff15 	stw	zero,-4(fp)
 100ca7c:	e0bfff17 	ldw	r2,-4(fp)
}
 100ca80:	e037883a 	mov	sp,fp
 100ca84:	dfc00117 	ldw	ra,4(sp)
 100ca88:	df000017 	ldw	fp,0(sp)
 100ca8c:	dec00204 	addi	sp,sp,8
 100ca90:	f800283a 	ret

0100ca94 <alt_get_fd>:
 * the offset of the file descriptor within the file descriptor array). A
 * negative value indicates failure.
 */

int alt_get_fd (alt_dev* dev)
{
 100ca94:	defffa04 	addi	sp,sp,-24
 100ca98:	dfc00515 	stw	ra,20(sp)
 100ca9c:	df000415 	stw	fp,16(sp)
 100caa0:	dc000315 	stw	r16,12(sp)
 100caa4:	df000304 	addi	fp,sp,12
 100caa8:	e13fff15 	stw	r4,-4(fp)
  alt_32 i;
  int rc = -EMFILE;
 100caac:	00bffa04 	movi	r2,-24
 100cab0:	e0bffd15 	stw	r2,-12(fp)
   * indicates the highest file descriptor ever allocated. This is used to
   * improve efficency when searching the file descriptor list, and 
   * therefore reduce contention on the alt_fd_list_lock semaphore. 
   */

  for (i = 0; i < ALT_MAX_FD; i++)
 100cab4:	e03ffe15 	stw	zero,-8(fp)
 100cab8:	00002006 	br	100cb3c <alt_get_fd+0xa8>
  {
    if (!alt_fd_list[i].dev)
 100cabc:	e13ffe17 	ldw	r4,-8(fp)
 100cac0:	04004074 	movhi	r16,257
 100cac4:	8437fa04 	addi	r16,r16,-8216
 100cac8:	01400304 	movi	r5,12
 100cacc:	100972c0 	call	100972c <__mulsi3>
 100cad0:	1405883a 	add	r2,r2,r16
 100cad4:	10800017 	ldw	r2,0(r2)
 100cad8:	1004c03a 	cmpne	r2,r2,zero
 100cadc:	1000141e 	bne	r2,zero,100cb30 <alt_get_fd+0x9c>
    {
      alt_fd_list[i].dev = dev;
 100cae0:	e13ffe17 	ldw	r4,-8(fp)
 100cae4:	04004074 	movhi	r16,257
 100cae8:	8437fa04 	addi	r16,r16,-8216
 100caec:	01400304 	movi	r5,12
 100caf0:	100972c0 	call	100972c <__mulsi3>
 100caf4:	1407883a 	add	r3,r2,r16
 100caf8:	e0bfff17 	ldw	r2,-4(fp)
 100cafc:	18800015 	stw	r2,0(r3)
      if (i > alt_max_fd)
 100cb00:	00804074 	movhi	r2,257
 100cb04:	10bc9204 	addi	r2,r2,-3512
 100cb08:	10c00017 	ldw	r3,0(r2)
 100cb0c:	e0bffe17 	ldw	r2,-8(fp)
 100cb10:	1880040e 	bge	r3,r2,100cb24 <alt_get_fd+0x90>
      {
        alt_max_fd = i;
 100cb14:	00c04074 	movhi	r3,257
 100cb18:	18fc9204 	addi	r3,r3,-3512
 100cb1c:	e0bffe17 	ldw	r2,-8(fp)
 100cb20:	18800015 	stw	r2,0(r3)
      }
      rc = i;
 100cb24:	e0bffe17 	ldw	r2,-8(fp)
 100cb28:	e0bffd15 	stw	r2,-12(fp)
      goto alt_get_fd_exit;
 100cb2c:	00000606 	br	100cb48 <alt_get_fd+0xb4>
   * indicates the highest file descriptor ever allocated. This is used to
   * improve efficency when searching the file descriptor list, and 
   * therefore reduce contention on the alt_fd_list_lock semaphore. 
   */

  for (i = 0; i < ALT_MAX_FD; i++)
 100cb30:	e0bffe17 	ldw	r2,-8(fp)
 100cb34:	10800044 	addi	r2,r2,1
 100cb38:	e0bffe15 	stw	r2,-8(fp)
 100cb3c:	e0bffe17 	ldw	r2,-8(fp)
 100cb40:	10800810 	cmplti	r2,r2,32
 100cb44:	103fdd1e 	bne	r2,zero,100cabc <alt_get_fd+0x28>
   * file descriptor pool.
   */

  ALT_SEM_POST(alt_fd_list_lock);

  return rc;
 100cb48:	e0bffd17 	ldw	r2,-12(fp)
}
 100cb4c:	e037883a 	mov	sp,fp
 100cb50:	dfc00217 	ldw	ra,8(sp)
 100cb54:	df000117 	ldw	fp,4(sp)
 100cb58:	dc000017 	ldw	r16,0(sp)
 100cb5c:	dec00304 	addi	sp,sp,12
 100cb60:	f800283a 	ret

0100cb64 <atexit>:
 100cb64:	200b883a 	mov	r5,r4
 100cb68:	000d883a 	mov	r6,zero
 100cb6c:	0009883a 	mov	r4,zero
 100cb70:	000f883a 	mov	r7,zero
 100cb74:	100cf5c1 	jmpi	100cf5c <__register_exitproc>

0100cb78 <exit>:
 100cb78:	defffe04 	addi	sp,sp,-8
 100cb7c:	000b883a 	mov	r5,zero
 100cb80:	dc000015 	stw	r16,0(sp)
 100cb84:	dfc00115 	stw	ra,4(sp)
 100cb88:	2021883a 	mov	r16,r4
 100cb8c:	100d0940 	call	100d094 <__call_exitprocs>
 100cb90:	00804074 	movhi	r2,257
 100cb94:	10bc8904 	addi	r2,r2,-3548
 100cb98:	11000017 	ldw	r4,0(r2)
 100cb9c:	20800f17 	ldw	r2,60(r4)
 100cba0:	10000126 	beq	r2,zero,100cba8 <exit+0x30>
 100cba4:	103ee83a 	callr	r2
 100cba8:	8009883a 	mov	r4,r16
 100cbac:	100d2840 	call	100d284 <_exit>

0100cbb0 <memcmp>:
 100cbb0:	00c000c4 	movi	r3,3
 100cbb4:	1980032e 	bgeu	r3,r6,100cbc4 <memcmp+0x14>
 100cbb8:	2144b03a 	or	r2,r4,r5
 100cbbc:	10c4703a 	and	r2,r2,r3
 100cbc0:	10000f26 	beq	r2,zero,100cc00 <memcmp+0x50>
 100cbc4:	31ffffc4 	addi	r7,r6,-1
 100cbc8:	3000061e 	bne	r6,zero,100cbe4 <memcmp+0x34>
 100cbcc:	00000a06 	br	100cbf8 <memcmp+0x48>
 100cbd0:	39ffffc4 	addi	r7,r7,-1
 100cbd4:	00bfffc4 	movi	r2,-1
 100cbd8:	21000044 	addi	r4,r4,1
 100cbdc:	29400044 	addi	r5,r5,1
 100cbe0:	38800526 	beq	r7,r2,100cbf8 <memcmp+0x48>
 100cbe4:	20c00003 	ldbu	r3,0(r4)
 100cbe8:	28800003 	ldbu	r2,0(r5)
 100cbec:	18bff826 	beq	r3,r2,100cbd0 <memcmp+0x20>
 100cbf0:	1885c83a 	sub	r2,r3,r2
 100cbf4:	f800283a 	ret
 100cbf8:	0005883a 	mov	r2,zero
 100cbfc:	f800283a 	ret
 100cc00:	180f883a 	mov	r7,r3
 100cc04:	20c00017 	ldw	r3,0(r4)
 100cc08:	28800017 	ldw	r2,0(r5)
 100cc0c:	18bfed1e 	bne	r3,r2,100cbc4 <memcmp+0x14>
 100cc10:	31bfff04 	addi	r6,r6,-4
 100cc14:	21000104 	addi	r4,r4,4
 100cc18:	29400104 	addi	r5,r5,4
 100cc1c:	39bff936 	bltu	r7,r6,100cc04 <memcmp+0x54>
 100cc20:	003fe806 	br	100cbc4 <memcmp+0x14>

0100cc24 <putc>:
 100cc24:	defffc04 	addi	sp,sp,-16
 100cc28:	dc800215 	stw	r18,8(sp)
 100cc2c:	04804074 	movhi	r18,257
 100cc30:	94bc8804 	addi	r18,r18,-3552
 100cc34:	90c00017 	ldw	r3,0(r18)
 100cc38:	dc400115 	stw	r17,4(sp)
 100cc3c:	dc000015 	stw	r16,0(sp)
 100cc40:	dfc00315 	stw	ra,12(sp)
 100cc44:	2023883a 	mov	r17,r4
 100cc48:	2821883a 	mov	r16,r5
 100cc4c:	18000226 	beq	r3,zero,100cc58 <putc+0x34>
 100cc50:	18800e17 	ldw	r2,56(r3)
 100cc54:	10001126 	beq	r2,zero,100cc9c <putc+0x78>
 100cc58:	80800217 	ldw	r2,8(r16)
 100cc5c:	10ffffc4 	addi	r3,r2,-1
 100cc60:	80c00215 	stw	r3,8(r16)
 100cc64:	18001316 	blt	r3,zero,100ccb4 <putc+0x90>
 100cc68:	80800017 	ldw	r2,0(r16)
 100cc6c:	14400005 	stb	r17,0(r2)
 100cc70:	80c00017 	ldw	r3,0(r16)
 100cc74:	18800044 	addi	r2,r3,1
 100cc78:	18c00003 	ldbu	r3,0(r3)
 100cc7c:	80800015 	stw	r2,0(r16)
 100cc80:	1805883a 	mov	r2,r3
 100cc84:	dfc00317 	ldw	ra,12(sp)
 100cc88:	dc800217 	ldw	r18,8(sp)
 100cc8c:	dc400117 	ldw	r17,4(sp)
 100cc90:	dc000017 	ldw	r16,0(sp)
 100cc94:	dec00404 	addi	sp,sp,16
 100cc98:	f800283a 	ret
 100cc9c:	1809883a 	mov	r4,r3
 100cca0:	1003fe80 	call	1003fe8 <__sinit>
 100cca4:	80800217 	ldw	r2,8(r16)
 100cca8:	10ffffc4 	addi	r3,r2,-1
 100ccac:	80c00215 	stw	r3,8(r16)
 100ccb0:	183fed0e 	bge	r3,zero,100cc68 <putc+0x44>
 100ccb4:	80800617 	ldw	r2,24(r16)
 100ccb8:	18800f16 	blt	r3,r2,100ccf8 <putc+0xd4>
 100ccbc:	80800017 	ldw	r2,0(r16)
 100ccc0:	14400005 	stb	r17,0(r2)
 100ccc4:	81000017 	ldw	r4,0(r16)
 100ccc8:	00800284 	movi	r2,10
 100cccc:	20c00003 	ldbu	r3,0(r4)
 100ccd0:	18801226 	beq	r3,r2,100cd1c <putc+0xf8>
 100ccd4:	20800044 	addi	r2,r4,1
 100ccd8:	80800015 	stw	r2,0(r16)
 100ccdc:	1805883a 	mov	r2,r3
 100cce0:	dfc00317 	ldw	ra,12(sp)
 100cce4:	dc800217 	ldw	r18,8(sp)
 100cce8:	dc400117 	ldw	r17,4(sp)
 100ccec:	dc000017 	ldw	r16,0(sp)
 100ccf0:	dec00404 	addi	sp,sp,16
 100ccf4:	f800283a 	ret
 100ccf8:	91000017 	ldw	r4,0(r18)
 100ccfc:	880b883a 	mov	r5,r17
 100cd00:	800d883a 	mov	r6,r16
 100cd04:	dfc00317 	ldw	ra,12(sp)
 100cd08:	dc800217 	ldw	r18,8(sp)
 100cd0c:	dc400117 	ldw	r17,4(sp)
 100cd10:	dc000017 	ldw	r16,0(sp)
 100cd14:	dec00404 	addi	sp,sp,16
 100cd18:	100ce101 	jmpi	100ce10 <__swbuf_r>
 100cd1c:	91000017 	ldw	r4,0(r18)
 100cd20:	180b883a 	mov	r5,r3
 100cd24:	003ff606 	br	100cd00 <putc+0xdc>

0100cd28 <_putc_r>:
 100cd28:	defffc04 	addi	sp,sp,-16
 100cd2c:	dc400215 	stw	r17,8(sp)
 100cd30:	dc000115 	stw	r16,4(sp)
 100cd34:	dfc00315 	stw	ra,12(sp)
 100cd38:	2021883a 	mov	r16,r4
 100cd3c:	2823883a 	mov	r17,r5
 100cd40:	20000226 	beq	r4,zero,100cd4c <_putc_r+0x24>
 100cd44:	20800e17 	ldw	r2,56(r4)
 100cd48:	10001026 	beq	r2,zero,100cd8c <_putc_r+0x64>
 100cd4c:	30800217 	ldw	r2,8(r6)
 100cd50:	10ffffc4 	addi	r3,r2,-1
 100cd54:	30c00215 	stw	r3,8(r6)
 100cd58:	18001316 	blt	r3,zero,100cda8 <_putc_r+0x80>
 100cd5c:	30800017 	ldw	r2,0(r6)
 100cd60:	14400005 	stb	r17,0(r2)
 100cd64:	30c00017 	ldw	r3,0(r6)
 100cd68:	18800044 	addi	r2,r3,1
 100cd6c:	18c00003 	ldbu	r3,0(r3)
 100cd70:	30800015 	stw	r2,0(r6)
 100cd74:	1805883a 	mov	r2,r3
 100cd78:	dfc00317 	ldw	ra,12(sp)
 100cd7c:	dc400217 	ldw	r17,8(sp)
 100cd80:	dc000117 	ldw	r16,4(sp)
 100cd84:	dec00404 	addi	sp,sp,16
 100cd88:	f800283a 	ret
 100cd8c:	d9800015 	stw	r6,0(sp)
 100cd90:	1003fe80 	call	1003fe8 <__sinit>
 100cd94:	d9800017 	ldw	r6,0(sp)
 100cd98:	30800217 	ldw	r2,8(r6)
 100cd9c:	10ffffc4 	addi	r3,r2,-1
 100cda0:	30c00215 	stw	r3,8(r6)
 100cda4:	183fed0e 	bge	r3,zero,100cd5c <_putc_r+0x34>
 100cda8:	30800617 	ldw	r2,24(r6)
 100cdac:	18800e16 	blt	r3,r2,100cde8 <_putc_r+0xc0>
 100cdb0:	30800017 	ldw	r2,0(r6)
 100cdb4:	14400005 	stb	r17,0(r2)
 100cdb8:	31000017 	ldw	r4,0(r6)
 100cdbc:	00800284 	movi	r2,10
 100cdc0:	20c00003 	ldbu	r3,0(r4)
 100cdc4:	18800f26 	beq	r3,r2,100ce04 <_putc_r+0xdc>
 100cdc8:	20800044 	addi	r2,r4,1
 100cdcc:	30800015 	stw	r2,0(r6)
 100cdd0:	1805883a 	mov	r2,r3
 100cdd4:	dfc00317 	ldw	ra,12(sp)
 100cdd8:	dc400217 	ldw	r17,8(sp)
 100cddc:	dc000117 	ldw	r16,4(sp)
 100cde0:	dec00404 	addi	sp,sp,16
 100cde4:	f800283a 	ret
 100cde8:	8009883a 	mov	r4,r16
 100cdec:	880b883a 	mov	r5,r17
 100cdf0:	dfc00317 	ldw	ra,12(sp)
 100cdf4:	dc400217 	ldw	r17,8(sp)
 100cdf8:	dc000117 	ldw	r16,4(sp)
 100cdfc:	dec00404 	addi	sp,sp,16
 100ce00:	100ce101 	jmpi	100ce10 <__swbuf_r>
 100ce04:	8009883a 	mov	r4,r16
 100ce08:	180b883a 	mov	r5,r3
 100ce0c:	003ff806 	br	100cdf0 <_putc_r+0xc8>

0100ce10 <__swbuf_r>:
 100ce10:	defffc04 	addi	sp,sp,-16
 100ce14:	dc400215 	stw	r17,8(sp)
 100ce18:	dc000115 	stw	r16,4(sp)
 100ce1c:	dfc00315 	stw	ra,12(sp)
 100ce20:	2023883a 	mov	r17,r4
 100ce24:	2821883a 	mov	r16,r5
 100ce28:	20000226 	beq	r4,zero,100ce34 <__swbuf_r+0x24>
 100ce2c:	20800e17 	ldw	r2,56(r4)
 100ce30:	10002f26 	beq	r2,zero,100cef0 <__swbuf_r+0xe0>
 100ce34:	3080030b 	ldhu	r2,12(r6)
 100ce38:	30c00617 	ldw	r3,24(r6)
 100ce3c:	1080020c 	andi	r2,r2,8
 100ce40:	30c00215 	stw	r3,8(r6)
 100ce44:	10002226 	beq	r2,zero,100ced0 <__swbuf_r+0xc0>
 100ce48:	30c00417 	ldw	r3,16(r6)
 100ce4c:	18002026 	beq	r3,zero,100ced0 <__swbuf_r+0xc0>
 100ce50:	31000017 	ldw	r4,0(r6)
 100ce54:	30800517 	ldw	r2,20(r6)
 100ce58:	20c7c83a 	sub	r3,r4,r3
 100ce5c:	18802f0e 	bge	r3,r2,100cf1c <__swbuf_r+0x10c>
 100ce60:	19400044 	addi	r5,r3,1
 100ce64:	30800217 	ldw	r2,8(r6)
 100ce68:	84003fcc 	andi	r16,r16,255
 100ce6c:	20c00044 	addi	r3,r4,1
 100ce70:	10bfffc4 	addi	r2,r2,-1
 100ce74:	30800215 	stw	r2,8(r6)
 100ce78:	24000005 	stb	r16,0(r4)
 100ce7c:	30800517 	ldw	r2,20(r6)
 100ce80:	30c00015 	stw	r3,0(r6)
 100ce84:	11400c26 	beq	r2,r5,100ceb8 <__swbuf_r+0xa8>
 100ce88:	3080030b 	ldhu	r2,12(r6)
 100ce8c:	1080004c 	andi	r2,r2,1
 100ce90:	1005003a 	cmpeq	r2,r2,zero
 100ce94:	10000626 	beq	r2,zero,100ceb0 <__swbuf_r+0xa0>
 100ce98:	8005883a 	mov	r2,r16
 100ce9c:	dfc00317 	ldw	ra,12(sp)
 100cea0:	dc400217 	ldw	r17,8(sp)
 100cea4:	dc000117 	ldw	r16,4(sp)
 100cea8:	dec00404 	addi	sp,sp,16
 100ceac:	f800283a 	ret
 100ceb0:	00800284 	movi	r2,10
 100ceb4:	80bff81e 	bne	r16,r2,100ce98 <__swbuf_r+0x88>
 100ceb8:	8809883a 	mov	r4,r17
 100cebc:	300b883a 	mov	r5,r6
 100cec0:	1003d500 	call	1003d50 <_fflush_r>
 100cec4:	103ff426 	beq	r2,zero,100ce98 <__swbuf_r+0x88>
 100cec8:	043fffc4 	movi	r16,-1
 100cecc:	003ff206 	br	100ce98 <__swbuf_r+0x88>
 100ced0:	300b883a 	mov	r5,r6
 100ced4:	8809883a 	mov	r4,r17
 100ced8:	d9800015 	stw	r6,0(sp)
 100cedc:	100241c0 	call	100241c <__swsetup_r>
 100cee0:	d9800017 	ldw	r6,0(sp)
 100cee4:	1000061e 	bne	r2,zero,100cf00 <__swbuf_r+0xf0>
 100cee8:	30c00417 	ldw	r3,16(r6)
 100ceec:	003fd806 	br	100ce50 <__swbuf_r+0x40>
 100cef0:	d9800015 	stw	r6,0(sp)
 100cef4:	1003fe80 	call	1003fe8 <__sinit>
 100cef8:	d9800017 	ldw	r6,0(sp)
 100cefc:	003fcd06 	br	100ce34 <__swbuf_r+0x24>
 100cf00:	3080030b 	ldhu	r2,12(r6)
 100cf04:	00c00244 	movi	r3,9
 100cf08:	043fffc4 	movi	r16,-1
 100cf0c:	10801014 	ori	r2,r2,64
 100cf10:	3080030d 	sth	r2,12(r6)
 100cf14:	88c00015 	stw	r3,0(r17)
 100cf18:	003fdf06 	br	100ce98 <__swbuf_r+0x88>
 100cf1c:	300b883a 	mov	r5,r6
 100cf20:	8809883a 	mov	r4,r17
 100cf24:	d9800015 	stw	r6,0(sp)
 100cf28:	1003d500 	call	1003d50 <_fflush_r>
 100cf2c:	d9800017 	ldw	r6,0(sp)
 100cf30:	103fe51e 	bne	r2,zero,100cec8 <__swbuf_r+0xb8>
 100cf34:	31000017 	ldw	r4,0(r6)
 100cf38:	01400044 	movi	r5,1
 100cf3c:	003fc906 	br	100ce64 <__swbuf_r+0x54>

0100cf40 <__swbuf>:
 100cf40:	01804074 	movhi	r6,257
 100cf44:	31bc8804 	addi	r6,r6,-3552
 100cf48:	2007883a 	mov	r3,r4
 100cf4c:	31000017 	ldw	r4,0(r6)
 100cf50:	280d883a 	mov	r6,r5
 100cf54:	180b883a 	mov	r5,r3
 100cf58:	100ce101 	jmpi	100ce10 <__swbuf_r>

0100cf5c <__register_exitproc>:
 100cf5c:	defffa04 	addi	sp,sp,-24
 100cf60:	00804074 	movhi	r2,257
 100cf64:	10bc8904 	addi	r2,r2,-3548
 100cf68:	dc000015 	stw	r16,0(sp)
 100cf6c:	14000017 	ldw	r16,0(r2)
 100cf70:	dd000415 	stw	r20,16(sp)
 100cf74:	2829883a 	mov	r20,r5
 100cf78:	81405217 	ldw	r5,328(r16)
 100cf7c:	dcc00315 	stw	r19,12(sp)
 100cf80:	dc800215 	stw	r18,8(sp)
 100cf84:	dc400115 	stw	r17,4(sp)
 100cf88:	dfc00515 	stw	ra,20(sp)
 100cf8c:	2023883a 	mov	r17,r4
 100cf90:	3027883a 	mov	r19,r6
 100cf94:	3825883a 	mov	r18,r7
 100cf98:	28002526 	beq	r5,zero,100d030 <__register_exitproc+0xd4>
 100cf9c:	29000117 	ldw	r4,4(r5)
 100cfa0:	008007c4 	movi	r2,31
 100cfa4:	11002716 	blt	r2,r4,100d044 <__register_exitproc+0xe8>
 100cfa8:	8800101e 	bne	r17,zero,100cfec <__register_exitproc+0x90>
 100cfac:	2105883a 	add	r2,r4,r4
 100cfb0:	1085883a 	add	r2,r2,r2
 100cfb4:	20c00044 	addi	r3,r4,1
 100cfb8:	1145883a 	add	r2,r2,r5
 100cfbc:	0009883a 	mov	r4,zero
 100cfc0:	15000215 	stw	r20,8(r2)
 100cfc4:	28c00115 	stw	r3,4(r5)
 100cfc8:	2005883a 	mov	r2,r4
 100cfcc:	dfc00517 	ldw	ra,20(sp)
 100cfd0:	dd000417 	ldw	r20,16(sp)
 100cfd4:	dcc00317 	ldw	r19,12(sp)
 100cfd8:	dc800217 	ldw	r18,8(sp)
 100cfdc:	dc400117 	ldw	r17,4(sp)
 100cfe0:	dc000017 	ldw	r16,0(sp)
 100cfe4:	dec00604 	addi	sp,sp,24
 100cfe8:	f800283a 	ret
 100cfec:	29802204 	addi	r6,r5,136
 100cff0:	00800044 	movi	r2,1
 100cff4:	110e983a 	sll	r7,r2,r4
 100cff8:	30c04017 	ldw	r3,256(r6)
 100cffc:	2105883a 	add	r2,r4,r4
 100d000:	1085883a 	add	r2,r2,r2
 100d004:	1185883a 	add	r2,r2,r6
 100d008:	19c6b03a 	or	r3,r3,r7
 100d00c:	14802015 	stw	r18,128(r2)
 100d010:	14c00015 	stw	r19,0(r2)
 100d014:	00800084 	movi	r2,2
 100d018:	30c04015 	stw	r3,256(r6)
 100d01c:	88bfe31e 	bne	r17,r2,100cfac <__register_exitproc+0x50>
 100d020:	30804117 	ldw	r2,260(r6)
 100d024:	11c4b03a 	or	r2,r2,r7
 100d028:	30804115 	stw	r2,260(r6)
 100d02c:	003fdf06 	br	100cfac <__register_exitproc+0x50>
 100d030:	00804074 	movhi	r2,257
 100d034:	10839c04 	addi	r2,r2,3696
 100d038:	100b883a 	mov	r5,r2
 100d03c:	80805215 	stw	r2,328(r16)
 100d040:	003fd606 	br	100cf9c <__register_exitproc+0x40>
 100d044:	00800034 	movhi	r2,0
 100d048:	10800004 	addi	r2,r2,0
 100d04c:	1000021e 	bne	r2,zero,100d058 <__register_exitproc+0xfc>
 100d050:	013fffc4 	movi	r4,-1
 100d054:	003fdc06 	br	100cfc8 <__register_exitproc+0x6c>
 100d058:	01006404 	movi	r4,400
 100d05c:	103ee83a 	callr	r2
 100d060:	1007883a 	mov	r3,r2
 100d064:	103ffa26 	beq	r2,zero,100d050 <__register_exitproc+0xf4>
 100d068:	80805217 	ldw	r2,328(r16)
 100d06c:	180b883a 	mov	r5,r3
 100d070:	18000115 	stw	zero,4(r3)
 100d074:	18800015 	stw	r2,0(r3)
 100d078:	80c05215 	stw	r3,328(r16)
 100d07c:	18006215 	stw	zero,392(r3)
 100d080:	18006315 	stw	zero,396(r3)
 100d084:	0009883a 	mov	r4,zero
 100d088:	883fc826 	beq	r17,zero,100cfac <__register_exitproc+0x50>
 100d08c:	003fd706 	br	100cfec <__register_exitproc+0x90>

0100d090 <register_fini>:
 100d090:	f800283a 	ret

0100d094 <__call_exitprocs>:
 100d094:	00804074 	movhi	r2,257
 100d098:	10bc8904 	addi	r2,r2,-3548
 100d09c:	10800017 	ldw	r2,0(r2)
 100d0a0:	defff304 	addi	sp,sp,-52
 100d0a4:	df000b15 	stw	fp,44(sp)
 100d0a8:	d8800115 	stw	r2,4(sp)
 100d0ac:	00800034 	movhi	r2,0
 100d0b0:	10800004 	addi	r2,r2,0
 100d0b4:	1005003a 	cmpeq	r2,r2,zero
 100d0b8:	d8800215 	stw	r2,8(sp)
 100d0bc:	d8800117 	ldw	r2,4(sp)
 100d0c0:	dd400815 	stw	r21,32(sp)
 100d0c4:	dd000715 	stw	r20,28(sp)
 100d0c8:	10805204 	addi	r2,r2,328
 100d0cc:	dfc00c15 	stw	ra,48(sp)
 100d0d0:	ddc00a15 	stw	r23,40(sp)
 100d0d4:	dd800915 	stw	r22,36(sp)
 100d0d8:	dcc00615 	stw	r19,24(sp)
 100d0dc:	dc800515 	stw	r18,20(sp)
 100d0e0:	dc400415 	stw	r17,16(sp)
 100d0e4:	dc000315 	stw	r16,12(sp)
 100d0e8:	282b883a 	mov	r21,r5
 100d0ec:	2039883a 	mov	fp,r4
 100d0f0:	d8800015 	stw	r2,0(sp)
 100d0f4:	2829003a 	cmpeq	r20,r5,zero
 100d0f8:	d8800117 	ldw	r2,4(sp)
 100d0fc:	14405217 	ldw	r17,328(r2)
 100d100:	88001026 	beq	r17,zero,100d144 <__call_exitprocs+0xb0>
 100d104:	ddc00017 	ldw	r23,0(sp)
 100d108:	88800117 	ldw	r2,4(r17)
 100d10c:	8c802204 	addi	r18,r17,136
 100d110:	143fffc4 	addi	r16,r2,-1
 100d114:	80000916 	blt	r16,zero,100d13c <__call_exitprocs+0xa8>
 100d118:	05bfffc4 	movi	r22,-1
 100d11c:	a000151e 	bne	r20,zero,100d174 <__call_exitprocs+0xe0>
 100d120:	8409883a 	add	r4,r16,r16
 100d124:	2105883a 	add	r2,r4,r4
 100d128:	1485883a 	add	r2,r2,r18
 100d12c:	10c02017 	ldw	r3,128(r2)
 100d130:	a8c01126 	beq	r21,r3,100d178 <__call_exitprocs+0xe4>
 100d134:	843fffc4 	addi	r16,r16,-1
 100d138:	85bff81e 	bne	r16,r22,100d11c <__call_exitprocs+0x88>
 100d13c:	d8800217 	ldw	r2,8(sp)
 100d140:	10003126 	beq	r2,zero,100d208 <__call_exitprocs+0x174>
 100d144:	dfc00c17 	ldw	ra,48(sp)
 100d148:	df000b17 	ldw	fp,44(sp)
 100d14c:	ddc00a17 	ldw	r23,40(sp)
 100d150:	dd800917 	ldw	r22,36(sp)
 100d154:	dd400817 	ldw	r21,32(sp)
 100d158:	dd000717 	ldw	r20,28(sp)
 100d15c:	dcc00617 	ldw	r19,24(sp)
 100d160:	dc800517 	ldw	r18,20(sp)
 100d164:	dc400417 	ldw	r17,16(sp)
 100d168:	dc000317 	ldw	r16,12(sp)
 100d16c:	dec00d04 	addi	sp,sp,52
 100d170:	f800283a 	ret
 100d174:	8409883a 	add	r4,r16,r16
 100d178:	88c00117 	ldw	r3,4(r17)
 100d17c:	2105883a 	add	r2,r4,r4
 100d180:	1445883a 	add	r2,r2,r17
 100d184:	18ffffc4 	addi	r3,r3,-1
 100d188:	11800217 	ldw	r6,8(r2)
 100d18c:	1c001526 	beq	r3,r16,100d1e4 <__call_exitprocs+0x150>
 100d190:	10000215 	stw	zero,8(r2)
 100d194:	303fe726 	beq	r6,zero,100d134 <__call_exitprocs+0xa0>
 100d198:	00c00044 	movi	r3,1
 100d19c:	1c06983a 	sll	r3,r3,r16
 100d1a0:	90804017 	ldw	r2,256(r18)
 100d1a4:	8cc00117 	ldw	r19,4(r17)
 100d1a8:	1884703a 	and	r2,r3,r2
 100d1ac:	10001426 	beq	r2,zero,100d200 <__call_exitprocs+0x16c>
 100d1b0:	90804117 	ldw	r2,260(r18)
 100d1b4:	1884703a 	and	r2,r3,r2
 100d1b8:	10000c1e 	bne	r2,zero,100d1ec <__call_exitprocs+0x158>
 100d1bc:	2105883a 	add	r2,r4,r4
 100d1c0:	1485883a 	add	r2,r2,r18
 100d1c4:	11400017 	ldw	r5,0(r2)
 100d1c8:	e009883a 	mov	r4,fp
 100d1cc:	303ee83a 	callr	r6
 100d1d0:	88800117 	ldw	r2,4(r17)
 100d1d4:	98bfc81e 	bne	r19,r2,100d0f8 <__call_exitprocs+0x64>
 100d1d8:	b8800017 	ldw	r2,0(r23)
 100d1dc:	147fd526 	beq	r2,r17,100d134 <__call_exitprocs+0xa0>
 100d1e0:	003fc506 	br	100d0f8 <__call_exitprocs+0x64>
 100d1e4:	8c000115 	stw	r16,4(r17)
 100d1e8:	003fea06 	br	100d194 <__call_exitprocs+0x100>
 100d1ec:	2105883a 	add	r2,r4,r4
 100d1f0:	1485883a 	add	r2,r2,r18
 100d1f4:	11000017 	ldw	r4,0(r2)
 100d1f8:	303ee83a 	callr	r6
 100d1fc:	003ff406 	br	100d1d0 <__call_exitprocs+0x13c>
 100d200:	303ee83a 	callr	r6
 100d204:	003ff206 	br	100d1d0 <__call_exitprocs+0x13c>
 100d208:	88800117 	ldw	r2,4(r17)
 100d20c:	1000081e 	bne	r2,zero,100d230 <__call_exitprocs+0x19c>
 100d210:	89000017 	ldw	r4,0(r17)
 100d214:	20000726 	beq	r4,zero,100d234 <__call_exitprocs+0x1a0>
 100d218:	b9000015 	stw	r4,0(r23)
 100d21c:	8809883a 	mov	r4,r17
 100d220:	00000000 	call	0 <__alt_mem_onchip_memory2_0>
 100d224:	bc400017 	ldw	r17,0(r23)
 100d228:	883fb71e 	bne	r17,zero,100d108 <__call_exitprocs+0x74>
 100d22c:	003fc506 	br	100d144 <__call_exitprocs+0xb0>
 100d230:	89000017 	ldw	r4,0(r17)
 100d234:	882f883a 	mov	r23,r17
 100d238:	2023883a 	mov	r17,r4
 100d23c:	883fb21e 	bne	r17,zero,100d108 <__call_exitprocs+0x74>
 100d240:	003fc006 	br	100d144 <__call_exitprocs+0xb0>

0100d244 <alt_sim_halt>:

/*
 * Routine called on exit.
 */
static ALT_ALWAYS_INLINE void alt_sim_halt(int exit_code)
{
 100d244:	defffd04 	addi	sp,sp,-12
 100d248:	df000215 	stw	fp,8(sp)
 100d24c:	df000204 	addi	fp,sp,8
 100d250:	e13fff15 	stw	r4,-4(fp)
  int r2 = exit_code;
 100d254:	e0bfff17 	ldw	r2,-4(fp)
 100d258:	e0bffe15 	stw	r2,-8(fp)
  __asm__ volatile ("\n0:\n\taddi %0,%0, -1\n\tbgt %0,zero,0b" : : "r" (ALT_CPU_FREQ/100) ); /* Delay for >30ms */

  __asm__ volatile ("break 2" : : "D02"(r2), "D03"(r3) ALT_GMON_DATA );

#else /* !DEBUG_STUB */
  if (r2) {
 100d25c:	e0bffe17 	ldw	r2,-8(fp)
 100d260:	1005003a 	cmpeq	r2,r2,zero
 100d264:	1000021e 	bne	r2,zero,100d270 <alt_sim_halt+0x2c>
    ALT_SIM_FAIL();
 100d268:	002af070 	cmpltui	zero,zero,43969
 100d26c:	00000106 	br	100d274 <alt_sim_halt+0x30>
  } else {
    ALT_SIM_PASS();
 100d270:	002af0b0 	cmpltui	zero,zero,43970
  }
#endif /* DEBUG_STUB */
}
 100d274:	e037883a 	mov	sp,fp
 100d278:	df000017 	ldw	fp,0(sp)
 100d27c:	dec00104 	addi	sp,sp,4
 100d280:	f800283a 	ret

0100d284 <_exit>:
 *
 * ALT_EXIT is mapped onto the _exit() system call in alt_syscall.h
 */

void ALT_EXIT (int exit_code)
{
 100d284:	defffd04 	addi	sp,sp,-12
 100d288:	dfc00215 	stw	ra,8(sp)
 100d28c:	df000115 	stw	fp,4(sp)
 100d290:	df000104 	addi	fp,sp,4
 100d294:	e13fff15 	stw	r4,-4(fp)
  ALT_OS_STOP();

  /* Provide notification to the simulator that we've stopped */

  ALT_LOG_PRINT_BOOT("[alt_exit.c] Calling ALT_SIM_HALT().\r\n");
  ALT_SIM_HALT(exit_code);
 100d298:	e13fff17 	ldw	r4,-4(fp)
 100d29c:	100d2440 	call	100d244 <alt_sim_halt>

  /* spin forever, since there's no where to go back to */

  ALT_LOG_PRINT_BOOT("[alt_exit.c] Spinning forever.\r\n");
  while (1);
 100d2a0:	003fff06 	br	100d2a0 <_exit+0x1c>
 100d2a4:	0100d090 	cmplti	r4,zero,834
