
parallel_ports_2.elf:     file format elf32-littlenios2
parallel_ports_2.elf
architecture: nios2, flags 0x00000112:
EXEC_P, HAS_SYMS, D_PAGED
start address 0x010001b4

Program Header:
    LOAD off    0x00001000 vaddr 0x01000000 paddr 0x01000000 align 2**12
         filesz 0x00000020 memsz 0x00000020 flags r-x
    LOAD off    0x00001020 vaddr 0x01000020 paddr 0x01000020 align 2**12
         filesz 0x0000d78c memsz 0x0000d78c flags r-x
    LOAD off    0x0000e7ac vaddr 0x0100d7ac paddr 0x0100f260 align 2**12
         filesz 0x00001ab4 memsz 0x00001ab4 flags rw-
    LOAD off    0x00010d14 vaddr 0x01010d14 paddr 0x01010d14 align 2**12
         filesz 0x00000000 memsz 0x000002ec flags rw-

Sections:
Idx Name          Size      VMA       LMA       File off  Algn
  0 .entry        00000020  01000000  01000000  00001000  2**5
                  CONTENTS, ALLOC, LOAD, READONLY, CODE
  1 .exceptions   00000194  01000020  01000020  00001020  2**2
                  CONTENTS, ALLOC, LOAD, READONLY, CODE
  2 .text         0000d0f4  010001b4  010001b4  000011b4  2**2
                  CONTENTS, ALLOC, LOAD, READONLY, CODE
  3 .rodata       00000504  0100d2a8  0100d2a8  0000e2a8  2**2
                  CONTENTS, ALLOC, LOAD, READONLY, DATA
  4 .rwdata       00001ab4  0100d7ac  0100f260  0000e7ac  2**2
                  CONTENTS, ALLOC, LOAD, DATA, SMALL_DATA
  5 .bss          000002ec  01010d14  01010d14  00010d14  2**2
                  ALLOC, SMALL_DATA
  6 .comment      00000026  00000000  00000000  00010260  2**0
                  CONTENTS, READONLY
  7 .debug_aranges 00000cf8  00000000  00000000  00010288  2**3
                  CONTENTS, READONLY, DEBUGGING
  8 .debug_pubnames 00001564  00000000  00000000  00010f80  2**0
                  CONTENTS, READONLY, DEBUGGING
  9 .debug_info   00024e05  00000000  00000000  000124e4  2**0
                  CONTENTS, READONLY, DEBUGGING
 10 .debug_abbrev 00007dc5  00000000  00000000  000372e9  2**0
                  CONTENTS, READONLY, DEBUGGING
 11 .debug_line   0001411b  00000000  00000000  0003f0ae  2**0
                  CONTENTS, READONLY, DEBUGGING
 12 .debug_frame  00001a38  00000000  00000000  000531cc  2**2
                  CONTENTS, READONLY, DEBUGGING
 13 .debug_str    0000235a  00000000  00000000  00054c04  2**0
                  CONTENTS, READONLY, DEBUGGING
 14 .debug_loc    0000c28d  00000000  00000000  00056f5e  2**0
                  CONTENTS, READONLY, DEBUGGING
 15 .debug_alt_sim_info 00000010  00000000  00000000  000631ec  2**2
                  CONTENTS, READONLY, DEBUGGING
 16 .debug_ranges 000009e0  00000000  00000000  00063200  2**3
                  CONTENTS, READONLY, DEBUGGING
 17 .thread_model 00000003  00000000  00000000  00066d4c  2**0
                  CONTENTS, READONLY
 18 .cpu          0000000c  00000000  00000000  00066d4f  2**0
                  CONTENTS, READONLY
 19 .qsys         00000001  00000000  00000000  00066d5b  2**0
                  CONTENTS, READONLY
 20 .simulation_enabled 00000001  00000000  00000000  00066d5c  2**0
                  CONTENTS, READONLY
 21 .stderr_dev   0000000b  00000000  00000000  00066d5d  2**0
                  CONTENTS, READONLY
 22 .stdin_dev    0000000b  00000000  00000000  00066d68  2**0
                  CONTENTS, READONLY
 23 .stdout_dev   0000000b  00000000  00000000  00066d73  2**0
                  CONTENTS, READONLY
 24 .sopc_system_name 0000000b  00000000  00000000  00066d7e  2**0
                  CONTENTS, READONLY
 25 .quartus_project_dir 00000021  00000000  00000000  00066d89  2**0
                  CONTENTS, READONLY
 26 .sopcinfo     0004b663  00000000  00000000  00066daa  2**0
                  CONTENTS, READONLY
SYMBOL TABLE:
01000000 l    d  .entry	00000000 .entry
01000020 l    d  .exceptions	00000000 .exceptions
010001b4 l    d  .text	00000000 .text
0100d2a8 l    d  .rodata	00000000 .rodata
0100d7ac l    d  .rwdata	00000000 .rwdata
01010d14 l    d  .bss	00000000 .bss
00000000 l    d  .comment	00000000 .comment
00000000 l    d  .debug_aranges	00000000 .debug_aranges
00000000 l    d  .debug_pubnames	00000000 .debug_pubnames
00000000 l    d  .debug_info	00000000 .debug_info
00000000 l    d  .debug_abbrev	00000000 .debug_abbrev
00000000 l    d  .debug_line	00000000 .debug_line
00000000 l    d  .debug_frame	00000000 .debug_frame
00000000 l    d  .debug_str	00000000 .debug_str
00000000 l    d  .debug_loc	00000000 .debug_loc
00000000 l    d  .debug_alt_sim_info	00000000 .debug_alt_sim_info
00000000 l    d  .debug_ranges	00000000 .debug_ranges
010001ec l       .text	00000000 alt_after_alt_main
00000000 l    df *ABS*	00000000 alt_irq_handler.c
00000000 l    df *ABS*	00000000 hello_world.c
00000000 l    df *ABS*	00000000 printf.c
00000000 l    df *ABS*	00000000 vfprintf.c
010004dc l     F .text	00000058 __sprint_r
0100d4aa l     O .rodata	00000010 blanks.3452
0100d49a l     O .rodata	00000010 zeroes.3453
00000000 l    df *ABS*	00000000 wsetup.c
00000000 l    df *ABS*	00000000 dtoa.c
01002558 l     F .text	00000244 quorem
00000000 l    df *ABS*	00000000 fflush.c
00000000 l    df *ABS*	00000000 findfp.c
01003f80 l     F .text	00000058 std
0100408c l     F .text	00000008 __fp_lock
01004094 l     F .text	00000008 __fp_unlock
00000000 l    df *ABS*	00000000 mallocr.c
00000000 l    df *ABS*	00000000 fvwrite.c
00000000 l    df *ABS*	00000000 fwalk.c
00000000 l    df *ABS*	00000000 impure.c
0100d7ac l     O .rwdata	00000400 impure_data
00000000 l    df *ABS*	00000000 locale.c
0100f22c l     O .rwdata	00000004 charset
0100d4e0 l     O .rodata	00000030 lconv
00000000 l    df *ABS*	00000000 makebuf.c
00000000 l    df *ABS*	00000000 mallocr.c
00000000 l    df *ABS*	00000000 memchr.c
00000000 l    df *ABS*	00000000 memcpy.c
00000000 l    df *ABS*	00000000 memmove.c
00000000 l    df *ABS*	00000000 memset.c
00000000 l    df *ABS*	00000000 mprec.c
0100d628 l     O .rodata	0000000c p05.2458
00000000 l    df *ABS*	00000000 mallocr.c
00000000 l    df *ABS*	00000000 s_isinfd.c
00000000 l    df *ABS*	00000000 s_isnand.c
00000000 l    df *ABS*	00000000 sbrkr.c
00000000 l    df *ABS*	00000000 stdio.c
00000000 l    df *ABS*	00000000 strcmp.c
00000000 l    df *ABS*	00000000 strlen.c
00000000 l    df *ABS*	00000000 writer.c
00000000 l    df *ABS*	00000000 mallocr.c
00000000 l    df *ABS*	00000000 closer.c
00000000 l    df *ABS*	00000000 fclose.c
00000000 l    df *ABS*	00000000 fstatr.c
00000000 l    df *ABS*	00000000 int_errno.c
00000000 l    df *ABS*	00000000 isattyr.c
00000000 l    df *ABS*	00000000 lseekr.c
00000000 l    df *ABS*	00000000 readr.c
00000000 l    df *ABS*	00000000 libgcc2.c
00000000 l    df *ABS*	00000000 libgcc2.c
00000000 l    df *ABS*	00000000 dp-bit.c
010084b4 l     F .text	00000410 _fpadd_parts
00000000 l    df *ABS*	00000000 dp-bit.c
00000000 l    df *ABS*	00000000 dp-bit.c
00000000 l    df *ABS*	00000000 dp-bit.c
00000000 l    df *ABS*	00000000 dp-bit.c
00000000 l    df *ABS*	00000000 dp-bit.c
00000000 l    df *ABS*	00000000 dp-bit.c
00000000 l    df *ABS*	00000000 dp-bit.c
00000000 l    df *ABS*	00000000 dp-bit.c
00000000 l    df *ABS*	00000000 dp-bit.c
00000000 l    df *ABS*	00000000 dp-bit.c
00000000 l    df *ABS*	00000000 dp-bit.c
00000000 l    df *ABS*	00000000 lib2-divmod.c
010095e0 l     F .text	0000007c udivmodsi4
00000000 l    df *ABS*	00000000 lib2-mul.c
00000000 l    df *ABS*	00000000 libgcc2.c
00000000 l    df *ABS*	00000000 libgcc2.c
00000000 l    df *ABS*	00000000 libgcc2.c
00000000 l    df *ABS*	00000000 dp-bit.c
00000000 l    df *ABS*	00000000 dp-bit.c
00000000 l    df *ABS*	00000000 dp-bit.c
00000000 l    df *ABS*	00000000 alt_close.c
01009f1c l     F .text	00000060 alt_get_errno
00000000 l    df *ABS*	00000000 alt_dev.c
01009f7c l     F .text	0000002c alt_dev_null_write
00000000 l    df *ABS*	00000000 alt_errno.c
00000000 l    df *ABS*	00000000 alt_fstat.c
0100a080 l     F .text	00000060 alt_get_errno
00000000 l    df *ABS*	00000000 alt_isatty.c
0100a1a4 l     F .text	00000060 alt_get_errno
00000000 l    df *ABS*	00000000 alt_load.c
0100a284 l     F .text	0000006c alt_load_section
00000000 l    df *ABS*	00000000 alt_lseek.c
0100a3e4 l     F .text	00000060 alt_get_errno
00000000 l    df *ABS*	00000000 alt_main.c
00000000 l    df *ABS*	00000000 alt_malloc_lock.c
00000000 l    df *ABS*	00000000 alt_printf.c
00000000 l    df *ABS*	00000000 alt_putchar.c
00000000 l    df *ABS*	00000000 alt_read.c
0100a8ac l     F .text	00000060 alt_get_errno
00000000 l    df *ABS*	00000000 alt_release_fd.c
00000000 l    df *ABS*	00000000 alt_sbrk.c
0100f250 l     O .rwdata	00000004 heap_end
00000000 l    df *ABS*	00000000 alt_write.c
0100ab64 l     F .text	00000060 alt_get_errno
00000000 l    df *ABS*	00000000 alt_sys_init.c
0100e168 l     O .rwdata	00001060 jtag_uart_0
0100f1c8 l     O .rwdata	0000002c character_lcd_0
0100f1f4 l     O .rwdata	0000002c parallel_port_0
0100ac60 l     F .text	00000038 alt_dev_reg
00000000 l    df *ABS*	00000000 altera_avalon_jtag_uart_fd.c
00000000 l    df *ABS*	00000000 altera_avalon_jtag_uart_init.c
0100aea0 l     F .text	00000228 altera_avalon_jtag_uart_irq
0100b0c8 l     F .text	000000b0 altera_avalon_jtag_uart_timeout
00000000 l    df *ABS*	00000000 altera_avalon_jtag_uart_ioctl.c
00000000 l    df *ABS*	00000000 altera_avalon_jtag_uart_read.c
00000000 l    df *ABS*	00000000 altera_avalon_jtag_uart_write.c
00000000 l    df *ABS*	00000000 altera_up_avalon_character_lcd.c
00000000 l    df *ABS*	00000000 altera_up_avalon_parallel_port.c
00000000 l    df *ABS*	00000000 alt_alarm_start.c
00000000 l    df *ABS*	00000000 alt_dcache_flush_all.c
00000000 l    df *ABS*	00000000 alt_dev_llist_insert.c
0100bed8 l     F .text	00000060 alt_get_errno
00000000 l    df *ABS*	00000000 alt_do_ctors.c
00000000 l    df *ABS*	00000000 alt_do_dtors.c
00000000 l    df *ABS*	00000000 alt_find_dev.c
00000000 l    df *ABS*	00000000 alt_icache_flush_all.c
00000000 l    df *ABS*	00000000 alt_iic.c
00000000 l    df *ABS*	00000000 alt_iic_isr_register.c
00000000 l    df *ABS*	00000000 alt_io_redirect.c
0100c37c l     F .text	000000d8 alt_open_fd
00000000 l    df *ABS*	00000000 alt_irq_vars.c
00000000 l    df *ABS*	00000000 alt_open.c
0100c4cc l     F .text	000000f8 alt_file_locked
0100c750 l     F .text	00000060 alt_get_errno
00000000 l    df *ABS*	00000000 alt_tick.c
00000000 l    df *ABS*	00000000 altera_nios2_qsys_irq.c
00000000 l    df *ABS*	00000000 alt_find_file.c
00000000 l    df *ABS*	00000000 alt_get_fd.c
00000000 l    df *ABS*	00000000 atexit.c
00000000 l    df *ABS*	00000000 exit.c
00000000 l    df *ABS*	00000000 memcmp.c
00000000 l    df *ABS*	00000000 putc.c
00000000 l    df *ABS*	00000000 wbuf.c
00000000 l    df *ABS*	00000000 __atexit.c
00000000 l    df *ABS*	00000000 __call_atexit.c
0100d090 l     F .text	00000004 register_fini
00000000 l    df *ABS*	00000000 alt_exit.c
0100d244 l     F .text	00000040 alt_sim_halt
01005d70 g     F .text	00000094 _mprec_log10
01005e5c g     F .text	00000088 __any_on
01007688 g     F .text	00000070 _isatty_r
0100d600 g     O .rodata	00000028 __mprec_tinytens
0100a444 g     F .text	0000006c alt_main
01010d70 g     O .bss	00000100 alt_irq
010076f8 g     F .text	00000078 _lseek_r
0100f260 g       *ABS*	00000000 __flash_rwdata_start
0100b7c0 g     F .text	00000034 alt_up_character_lcd_send_cmd
01008fd4 g     F .text	00000088 __eqdf2
01011000 g       *ABS*	00000000 __alt_heap_start
01000464 g     F .text	00000044 printf
010070cc g     F .text	00000068 __sseek
01003fe8 g     F .text	000000a4 __sinit
0100ce10 g     F .text	00000130 __swbuf_r
01004cf4 g     F .text	00000084 _setlocale_r
010040e8 g     F .text	0000009c __sfmoreglue
0100a4d0 g     F .text	00000020 __malloc_unlock
010057ec g     F .text	000000e0 memmove
010040d8 g     F .text	00000010 _cleanup
01005ee4 g     F .text	000000bc _Balloc
010090e4 g     F .text	00000088 __gtdf2
00000000  w      *UND*	00000000 __errno
0100b744 g     F .text	0000007c get_DDRAM_addr
01000000 g     F .entry	0000000c __reset
01000020 g       *ABS*	00000000 __flash_exceptions_start
01007614 g     F .text	00000074 _fstat_r
01010d2c g     O .bss	00000004 errno
01010d34 g     O .bss	00000004 alt_argv
01017220 g       *ABS*	00000000 _gp
0100dfe8 g     O .rwdata	00000180 alt_fd_list
0100c000 g     F .text	00000094 alt_find_dev
0100574c g     F .text	000000a0 memcpy
0100b958 g     F .text	0000004c alt_up_character_lcd_write_fd
010040cc g     F .text	0000000c _cleanup_r
0100927c g     F .text	000000f8 __floatsidf
0100c454 g     F .text	00000078 alt_io_redirect
010091f4 g     F .text	00000088 __ltdf2
0100d2a8 g       *ABS*	00000000 __DTOR_END__
01005cc0 g     F .text	000000b0 __ratio
0100b2e0 g     F .text	00000224 altera_avalon_jtag_uart_read
00000000  w      *UND*	00000000 malloc
010004a8 g     F .text	00000034 _printf_r
00000000 g       *ABS*	00000000 __alt_mem_onchip_memory2_0
0100971c g     F .text	00000008 __udivsi3
0100a0e0 g     F .text	000000c4 isatty
0100d510 g     O .rodata	000000c8 __mprec_tens
01004cd0 g     F .text	00000008 __locale_charset
01010d20 g     O .bss	00000004 __malloc_top_pad
0100f228 g     O .rwdata	00000004 __mb_cur_max
01004cd8 g     F .text	0000000c _localeconv_r
01006648 g     F .text	0000003c __i2b
010046b4 g     F .text	0000049c __sfvwrite_r
01007054 g     F .text	00000070 _sbrk_r
01007770 g     F .text	00000078 _read_r
0100dbac g     O .rwdata	0000000c __lc_ctype
0100f248 g     O .rwdata	00000004 alt_max_fd
01009c1c g     F .text	00000138 __unpack_d
010074f0 g     F .text	00000110 _fclose_r
01003f4c g     F .text	00000034 fflush
01010d24 g     O .bss	00000004 __malloc_max_sbrked_mem
01008944 g     F .text	00000074 __adddf3
01005ba0 g     F .text	00000120 __b2d
01007e54 g     F .text	00000660 __umoddi3
0100a2f0 g     F .text	000000f4 lseek
0100f224 g     O .rwdata	00000004 _global_impure_ptr
010069f0 g     F .text	000005f4 _realloc_r
01011000 g       *ABS*	00000000 __bss_end
0100c284 g     F .text	000000f8 alt_iic_isr_register
0100c848 g     F .text	0000010c alt_tick
010077e8 g     F .text	0000066c __udivdi3
0100d5d8 g     O .rodata	00000028 __mprec_bigtens
010068d0 g     F .text	00000120 __s2b
0100944c g     F .text	00000194 __floatunsidf
01005ac0 g     F .text	00000060 __mcmp
010040b4 g     F .text	00000018 __fp_lock_all
0100c23c g     F .text	00000048 alt_ic_irq_enabled
0100c7b0 g     F .text	00000098 alt_alarm_stop
01010d3c g     O .bss	00000004 alt_irq_active
010000ec g     F .exceptions	000000c8 alt_irq_handler
0100dfc0 g     O .rwdata	00000028 alt_dev_null
0100bc40 g     F .text	00000034 alt_up_character_lcd_cursor_blink_on
0100bc74 g     F .text	00000040 alt_up_parallel_port_open_dev
0100be08 g     F .text	0000001c alt_dcache_flush_all
0100598c g     F .text	00000070 __hi0bits
01009374 g     F .text	000000d8 __fixdfsi
0100f260 g       *ABS*	00000000 __ram_rwdata_end
0100f240 g     O .rwdata	00000008 alt_dev_list
0100aa40 g     F .text	00000124 write
0100cd28 g     F .text	000000e8 _putc_r
0100d7ac g       *ABS*	00000000 __ram_rodata_end
01009fa8 g     F .text	000000d8 fstat
010067b0 g     F .text	00000120 __pow5mult
01010d14 g     O .bss	00000004 __nlocale_changed
01009724 g     F .text	00000008 __umodsi3
01011000 g       *ABS*	00000000 end
0100ade0 g     F .text	000000c0 altera_avalon_jtag_uart_init
0100d2a4 g       *ABS*	00000000 __CTOR_LIST__
01800000 g       *ABS*	00000000 __alt_stack_pointer
01009888 g     F .text	00000080 __clzsi2
0100b504 g     F .text	00000240 altera_avalon_jtag_uart_write
01003fd8 g     F .text	00000004 __sfp_lock_acquire
01005668 g     F .text	000000e4 memchr
0100b868 g     F .text	00000078 alt_up_character_lcd_write
01000534 g     F .text	00001ec4 ___vfprintf_internal_r
010043a0 g     F .text	00000314 _free_r
0100a4f0 g     F .text	00000258 alt_printf
0100d094 g     F .text	000001b0 __call_exitprocs
01010d18 g     O .bss	00000004 __mlocale_changed
0100f234 g     O .rwdata	00000004 __malloc_sbrk_base
010001b4 g     F .text	0000003c _start
01010d40 g     O .bss	00000004 _alt_tick_rate
010062a8 g     F .text	0000014c __lshift
01010d44 g     O .bss	00000004 _alt_nticks
0100a788 g     F .text	00000124 read
0100abf8 g     F .text	00000068 alt_sys_init
0100bacc g     F .text	000000b0 alt_up_character_lcd_shift_display
0100cf5c g     F .text	00000134 __register_exitproc
010063f4 g     F .text	00000254 __multiply
0100bb7c g     F .text	00000090 alt_up_character_lcd_erase_pos
0100b178 g     F .text	00000074 altera_avalon_jtag_uart_close
0100972c g     F .text	00000038 __mulsi3
0100d7ac g       *ABS*	00000000 __ram_rwdata_start
0100d2a8 g       *ABS*	00000000 __ram_rodata_start
01010d48 g     O .bss	00000028 __malloc_current_mallinfo
01005fa0 g     F .text	0000017c __d2b
0100ac98 g     F .text	00000058 altera_avalon_jtag_uart_read_fd
0100ca94 g     F .text	000000d0 alt_get_fd
01009d54 g     F .text	000000c8 __fpcmp_parts_d
01007480 g     F .text	00000070 _close_r
0100cbb0 g     F .text	00000074 memcmp
0100ad48 g     F .text	00000048 altera_avalon_jtag_uart_close_fd
01011000 g       *ABS*	00000000 __alt_stack_base
0100ad90 g     F .text	00000050 altera_avalon_jtag_uart_ioctl_fd
0100241c g     F .text	0000013c __swsetup_r
01008d7c g     F .text	00000258 __divdf3
01004184 g     F .text	000000f0 __sfp
01005e04 g     F .text	00000058 __copybits
0100dbb8 g     O .rwdata	00000408 __malloc_av_
01003fe4 g     F .text	00000004 __sinit_lock_release
010089b8 g     F .text	000003c4 __muldf3
010071b0 g     F .text	00000060 __sread
0100c974 g     F .text	00000120 alt_find_file
0100be24 g     F .text	000000b4 alt_dev_llist_insert
0100a4b0 g     F .text	00000020 __malloc_lock
0100a984 g     F .text	000000bc sbrk
01003d50 g     F .text	000001fc _fflush_r
010073b8 g     F .text	000000c8 _calloc_r
01010d14 g       *ABS*	00000000 __bss_start
010058cc g     F .text	00000098 memset
010001f0 g     F .text	00000274 main
01010d38 g     O .bss	00000004 alt_envp
01010d28 g     O .bss	00000004 __malloc_max_total_mem
0100acf0 g     F .text	00000058 altera_avalon_jtag_uart_write_fd
0100cf40 g     F .text	0000001c __swbuf
0100ba1c g     F .text	000000b0 alt_up_character_lcd_shift_cursor
010070c4 g     F .text	00000008 __sclose
01800000 g       *ABS*	00000000 __alt_heap_limit
01007600 g     F .text	00000014 fclose
01010e70 g     O .bss	00000190 _atexit0
0100279c g     F .text	000015b4 _dtoa_r
01004f28 g     F .text	00000740 _malloc_r
0100f24c g     O .rwdata	00000004 alt_errno
01004c18 g     F .text	000000b8 _fwalk
0100cc24 g     F .text	00000104 putc
0100965c g     F .text	00000060 __divsi3
0100d634 g     O .rodata	00000014 __thenan_df
0100b828 g     F .text	00000040 alt_up_character_lcd_open_dev
01004274 g     F .text	0000012c _malloc_trim_r
0100d2a8 g       *ABS*	00000000 __CTOR_END__
0100b7f4 g     F .text	00000034 alt_up_character_lcd_init
01007210 g     F .text	000000bc strcmp
0100d2a8 g       *ABS*	00000000 __flash_rodata_start
0100d2a8 g       *ABS*	00000000 __DTOR_LIST__
0100905c g     F .text	00000088 __nedf2
0100abc4 g     F .text	00000034 alt_irq_init
0100a90c g     F .text	00000078 alt_release_fd
0100bc0c g     F .text	00000034 alt_up_character_lcd_cursor_off
0100d648 g     O .rodata	00000100 __clz_tab
01010d1c g     O .bss	00000004 _PathLocale
0100cb64 g     F .text	00000014 atexit
01007340 g     F .text	00000078 _write_r
01004d78 g     F .text	0000001c setlocale
0100f220 g     O .rwdata	00000004 _impure_ptr
01010d30 g     O .bss	00000004 alt_argc
0100bf9c g     F .text	00000064 _do_dtors
01000020 g       .exceptions	00000000 alt_irq_entry
01005b20 g     F .text	00000080 __ulp
01006fe4 g     F .text	00000040 __isinfd
0100409c g     F .text	00000018 __fp_unlock_all
0100f238 g     O .rwdata	00000008 alt_fs_list
01000020 g       *ABS*	00000000 __ram_exceptions_start
01004ce4 g     F .text	00000010 localeconv
0100c0b0 g     F .text	00000050 alt_ic_isr_register
0100f260 g       *ABS*	00000000 _edata
01011000 g       *ABS*	00000000 _end
010001b4 g       *ABS*	00000000 __ram_exceptions_end
0100b1ec g     F .text	000000f4 altera_avalon_jtag_uart_ioctl
0100c19c g     F .text	000000a0 alt_ic_irq_disable
01007134 g     F .text	0000007c __swrite
0100f230 g     O .rwdata	00000004 __malloc_trim_threshold
0100c954 g     F .text	00000020 altera_nios2_qsys_irq_init
0100cb78 g     F .text	00000038 exit
01004b50 g     F .text	000000c8 _fwalk_reent
0100611c g     F .text	0000018c __mdiff
010096bc g     F .text	00000060 __modsi3
01800000 g       *ABS*	00000000 __alt_data_end
01000020 g     F .exceptions	00000000 alt_exception
01003fdc g     F .text	00000004 __sfp_lock_release
01000000 g       *ABS*	00000000 __alt_mem_sdram
0100b8e0 g     F .text	00000078 alt_up_character_lcd_string
0100d284 g     F .text	00000020 _exit
01007024 g     F .text	00000030 __isnand
0100bcb4 g     F .text	00000154 alt_alarm_start
01009764 g     F .text	00000124 __muldi3
01004d94 g     F .text	00000194 __smakebuf_r
010072cc g     F .text	00000074 strlen
0100c5c4 g     F .text	0000018c open
0100916c g     F .text	00000088 __gedf2
0100a748 g     F .text	00000040 alt_putchar
0100c094 g     F .text	0000001c alt_icache_flush_all
0100b9a4 g     F .text	00000078 alt_up_character_lcd_set_cursor_pos
0100f254 g     O .rwdata	00000004 alt_priority_mask
0100c100 g     F .text	0000009c alt_ic_irq_enable
010023f8 g     F .text	00000024 __vfprintf_internal
010088c4 g     F .text	00000080 __subdf3
010059fc g     F .text	000000c4 __lo0bits
0100f258 g     O .rwdata	00000008 alt_alarm_list
0100bf38 g     F .text	00000064 _do_ctors
01009e1c g     F .text	00000100 close
0100a204 g     F .text	00000080 alt_load
01009908 g     F .text	00000314 __pack_d
00000000  w      *UND*	00000000 free
01003fe0 g     F .text	00000004 __sinit_lock_acquire
01006684 g     F .text	0000012c __multadd
01005964 g     F .text	00000028 _Bfree



Disassembly of section .entry:

01000000 <__reset>:
 * Jump to the _start entry point in the .text section if reset code
 * is allowed or if optimizing for RTL simulation.
 */
#if defined(ALT_ALLOW_CODE_AT_RESET) || defined(ALT_SIM_OPTIMIZE)
    /* Jump to the _start entry point in the .text section. */
    movhi r1, %hi(_start)
 1000000:	00404034 	movhi	at,256
    ori r1, r1, %lo(_start)
 1000004:	08406d14 	ori	at,at,436
    jmp r1
 1000008:	0800683a 	jmp	at
	...

Disassembly of section .exceptions:

01000020 <alt_exception>:
         * Process an exception.  For all exceptions we must preserve all
         * caller saved registers on the stack (See the Nios2 ABI
         * documentation for details).
         */

        addi  sp, sp, -76
 1000020:	deffed04 	addi	sp,sp,-76

#endif

#endif

        stw   ra,  0(sp)
 1000024:	dfc00015 	stw	ra,0(sp)
        /*
         * Leave a gap in the stack frame at 4(sp) for the muldiv handler to
         * store zero into.
         */

        stw   r1,   8(sp)
 1000028:	d8400215 	stw	at,8(sp)
        stw   r2,  12(sp)
 100002c:	d8800315 	stw	r2,12(sp)
        stw   r3,  16(sp)
 1000030:	d8c00415 	stw	r3,16(sp)
        stw   r4,  20(sp)
 1000034:	d9000515 	stw	r4,20(sp)
        stw   r5,  24(sp)
 1000038:	d9400615 	stw	r5,24(sp)
        stw   r6,  28(sp)
 100003c:	d9800715 	stw	r6,28(sp)
        stw   r7,  32(sp)
 1000040:	d9c00815 	stw	r7,32(sp)

        rdctl r5, estatus
 1000044:	000b307a 	rdctl	r5,estatus

        stw   r8,  36(sp)
 1000048:	da000915 	stw	r8,36(sp)
        stw   r9,  40(sp)
 100004c:	da400a15 	stw	r9,40(sp)
        stw   r10, 44(sp)
 1000050:	da800b15 	stw	r10,44(sp)
        stw   r11, 48(sp)
 1000054:	dac00c15 	stw	r11,48(sp)
        stw   r12, 52(sp)
 1000058:	db000d15 	stw	r12,52(sp)
        stw   r13, 56(sp)
 100005c:	db400e15 	stw	r13,56(sp)
        stw   r14, 60(sp)
 1000060:	db800f15 	stw	r14,60(sp)
        stw   r15, 64(sp)
 1000064:	dbc01015 	stw	r15,64(sp)
        /*
         * ea-4 contains the address of the instruction being executed
         * when the exception occured. For interrupt exceptions, we will
         * will be re-issue the isntruction. Store it in 72(sp)
         */
        stw   r5,  68(sp)  /* estatus */
 1000068:	d9401115 	stw	r5,68(sp)
        addi  r15, ea, -4  /* instruction that caused exception */
 100006c:	ebffff04 	addi	r15,ea,-4
        stw   r15,  72(sp)
 1000070:	dbc01215 	stw	r15,72(sp)
#else
        /*
         * Test to see if the exception was a software exception or caused 
         * by an external interrupt, and vector accordingly.
         */
        rdctl r4, ipending
 1000074:	0009313a 	rdctl	r4,ipending
        andi  r2, r5, 1
 1000078:	2880004c 	andi	r2,r5,1
        beq   r2, zero, .Lnot_irq
 100007c:	10000326 	beq	r2,zero,100008c <alt_exception+0x6c>
        beq   r4, zero, .Lnot_irq
 1000080:	20000226 	beq	r4,zero,100008c <alt_exception+0x6c>
        /*
         * Now that all necessary registers have been preserved, call 
         * alt_irq_handler() to process the interrupts.
         */

        call alt_irq_handler
 1000084:	10000ec0 	call	10000ec <alt_irq_handler>

        .section .exceptions.irqreturn, "xa"

        br    .Lexception_exit
 1000088:	00000306 	br	1000098 <alt_exception+0x78>
         * upon completion, so we write ea (address of instruction *after*
         * the one where the exception occured) into 72(sp). The actual
         * instruction that caused the exception is written in r2, which these
         * handlers will utilize.
         */
        stw   ea,  72(sp)  /* Don't re-issue */
 100008c:	df401215 	stw	ea,72(sp)
        ldw   r2, -4(ea)   /* Instruction that caused exception */
 1000090:	e8bfff17 	ldw	r2,-4(ea)
#ifdef NIOS2_HAS_DEBUG_STUB
       /*
        *  Either tell the user now (if there is a debugger attached) or go into
        *  the debug monitor which will loop until a debugger is attached.
        */
        break
 1000094:	003da03a 	break	0
        /* 
         * Restore the saved registers, so that all general purpose registers 
         * have been restored to their state at the time the interrupt occured.
         */

        ldw   r5,  68(sp)
 1000098:	d9401117 	ldw	r5,68(sp)
        ldw   ea,  72(sp)  /* This becomes the PC once eret is executed */
 100009c:	df401217 	ldw	ea,72(sp)
        ldw   ra,   0(sp)
 10000a0:	dfc00017 	ldw	ra,0(sp)

        wrctl estatus, r5
 10000a4:	2801707a 	wrctl	estatus,r5

        ldw   r1,   8(sp)
 10000a8:	d8400217 	ldw	at,8(sp)
        ldw   r2,  12(sp)
 10000ac:	d8800317 	ldw	r2,12(sp)
        ldw   r3,  16(sp)
 10000b0:	d8c00417 	ldw	r3,16(sp)
        ldw   r4,  20(sp)
 10000b4:	d9000517 	ldw	r4,20(sp)
        ldw   r5,  24(sp)
 10000b8:	d9400617 	ldw	r5,24(sp)
        ldw   r6,  28(sp)
 10000bc:	d9800717 	ldw	r6,28(sp)
        ldw   r7,  32(sp)
 10000c0:	d9c00817 	ldw	r7,32(sp)
#ifdef ALT_STACK_CHECK
        ldw   et, %gprel(alt_exception_old_stack_limit)(gp)
#endif
#endif

        ldw   r8,  36(sp)
 10000c4:	da000917 	ldw	r8,36(sp)
        ldw   r9,  40(sp)
 10000c8:	da400a17 	ldw	r9,40(sp)
        ldw   r10, 44(sp)
 10000cc:	da800b17 	ldw	r10,44(sp)
        ldw   r11, 48(sp)
 10000d0:	dac00c17 	ldw	r11,48(sp)
        ldw   r12, 52(sp)
 10000d4:	db000d17 	ldw	r12,52(sp)
        ldw   r13, 56(sp)
 10000d8:	db400e17 	ldw	r13,56(sp)
        ldw   r14, 60(sp)
 10000dc:	db800f17 	ldw	r14,60(sp)
        ldw   r15, 64(sp)
 10000e0:	dbc01017 	ldw	r15,64(sp)
#endif

        ldw   sp,  76(sp)

#else
        addi  sp, sp, 76
 10000e4:	dec01304 	addi	sp,sp,76

        /*
         * Return to the interrupted instruction.
         */

        eret
 10000e8:	ef80083a 	eret

010000ec <alt_irq_handler>:
 * instruction is present if the macro ALT_CI_INTERRUPT_VECTOR defined.
 */

void alt_irq_handler (void) __attribute__ ((section (".exceptions")));
void alt_irq_handler (void)
{
 10000ec:	defff904 	addi	sp,sp,-28
 10000f0:	dfc00615 	stw	ra,24(sp)
 10000f4:	df000515 	stw	fp,20(sp)
 10000f8:	df000504 	addi	fp,sp,20
#ifndef NIOS2_EIC_PRESENT
static ALT_INLINE alt_u32 ALT_ALWAYS_INLINE alt_irq_pending (void)
{
  alt_u32 active;

  NIOS2_READ_IPENDING (active);
 10000fc:	0005313a 	rdctl	r2,ipending
 1000100:	e0bffc15 	stw	r2,-16(fp)

  return active;
 1000104:	e0bffc17 	ldw	r2,-16(fp)
   * Consider the case where the high priority interupt is asserted during
   * the interrupt entry sequence for a lower priority interrupt to see why
   * this is the case.
   */

  active = alt_irq_pending ();
 1000108:	e0bfff15 	stw	r2,-4(fp)

  do
  {
    i = 0;
 100010c:	e03ffd15 	stw	zero,-12(fp)
    mask = 1;
 1000110:	00800044 	movi	r2,1
 1000114:	e0bffe15 	stw	r2,-8(fp)
     * called to clear the interrupt condition.
     */

    do
    {
      if (active & mask)
 1000118:	e0ffff17 	ldw	r3,-4(fp)
 100011c:	e0bffe17 	ldw	r2,-8(fp)
 1000120:	1884703a 	and	r2,r3,r2
 1000124:	1005003a 	cmpeq	r2,r2,zero
 1000128:	1000161e 	bne	r2,zero,1000184 <alt_irq_handler+0x98>
      { 
#ifdef ALT_ENHANCED_INTERRUPT_API_PRESENT
        alt_irq[i].handler(alt_irq[i].context); 
 100012c:	e0bffd17 	ldw	r2,-12(fp)
 1000130:	00c04074 	movhi	r3,257
 1000134:	18c35c04 	addi	r3,r3,3440
 1000138:	100490fa 	slli	r2,r2,3
 100013c:	10c5883a 	add	r2,r2,r3
 1000140:	11400017 	ldw	r5,0(r2)
 1000144:	e0bffd17 	ldw	r2,-12(fp)
 1000148:	00c04074 	movhi	r3,257
 100014c:	18c35c04 	addi	r3,r3,3440
 1000150:	100490fa 	slli	r2,r2,3
 1000154:	10c5883a 	add	r2,r2,r3
 1000158:	10800104 	addi	r2,r2,4
 100015c:	11000017 	ldw	r4,0(r2)
 1000160:	283ee83a 	callr	r5
#ifndef NIOS2_EIC_PRESENT
static ALT_INLINE alt_u32 ALT_ALWAYS_INLINE alt_irq_pending (void)
{
  alt_u32 active;

  NIOS2_READ_IPENDING (active);
 1000164:	0005313a 	rdctl	r2,ipending
 1000168:	e0bffb15 	stw	r2,-20(fp)

  return active;
 100016c:	e0bffb17 	ldw	r2,-20(fp)
      mask <<= 1;
      i++;

    } while (1);

    active = alt_irq_pending ();
 1000170:	e0bfff15 	stw	r2,-4(fp)
    
  } while (active);
 1000174:	e0bfff17 	ldw	r2,-4(fp)
 1000178:	1004c03a 	cmpne	r2,r2,zero
 100017c:	103fe31e 	bne	r2,zero,100010c <alt_irq_handler+0x20>
 1000180:	00000706 	br	10001a0 <alt_irq_handler+0xb4>
#else
        alt_irq[i].handler(alt_irq[i].context, i); 
#endif
        break;
      }
      mask <<= 1;
 1000184:	e0bffe17 	ldw	r2,-8(fp)
 1000188:	1085883a 	add	r2,r2,r2
 100018c:	e0bffe15 	stw	r2,-8(fp)
      i++;
 1000190:	e0bffd17 	ldw	r2,-12(fp)
 1000194:	10800044 	addi	r2,r2,1
 1000198:	e0bffd15 	stw	r2,-12(fp)

    } while (1);
 100019c:	003fde06 	br	1000118 <alt_irq_handler+0x2c>
  /*
   * Notify the operating system that interrupt processing is complete.
   */ 

  ALT_OS_INT_EXIT();
}
 10001a0:	e037883a 	mov	sp,fp
 10001a4:	dfc00117 	ldw	ra,4(sp)
 10001a8:	df000017 	ldw	fp,0(sp)
 10001ac:	dec00204 	addi	sp,sp,8
 10001b0:	f800283a 	ret

Disassembly of section .text:

010001b4 <_start>:
#if (NIOS2_NUM_OF_SHADOW_REG_SETS == 0)    
    /*
     * Now that the caches are initialized, set up the stack pointer.
     * The value provided by the linker is assumed to be correctly aligned.
     */
    movhi sp, %hi(__alt_stack_pointer)
 10001b4:	06c06034 	movhi	sp,384
    ori sp, sp, %lo(__alt_stack_pointer)
 10001b8:	dec00014 	ori	sp,sp,0

    /* Set up the global pointer. */
    movhi gp, %hi(_gp)
 10001bc:	06804074 	movhi	gp,257
    ori gp, gp, %lo(_gp)
 10001c0:	d69c8814 	ori	gp,gp,29216
 */
#ifndef ALT_SIM_OPTIMIZE
    /* Log that the BSS is about to be cleared. */
    ALT_LOG_PUTS(alt_log_msg_bss)

    movhi r2, %hi(__bss_start)
 10001c4:	00804074 	movhi	r2,257
    ori r2, r2, %lo(__bss_start)
 10001c8:	10834514 	ori	r2,r2,3348

    movhi r3, %hi(__bss_end)
 10001cc:	00c04074 	movhi	r3,257
    ori r3, r3, %lo(__bss_end)
 10001d0:	18c40014 	ori	r3,r3,4096

    beq r2, r3, 1f
 10001d4:	10c00326 	beq	r2,r3,10001e4 <_start+0x30>

0:
    stw zero, (r2)
 10001d8:	10000015 	stw	zero,0(r2)
    addi r2, r2, 4
 10001dc:	10800104 	addi	r2,r2,4
    bltu r2, r3, 0b
 10001e0:	10fffd36 	bltu	r2,r3,10001d8 <_start+0x24>
     * section aren't defined until alt_load() has been called).
     */
    mov   et, zero
#endif

    call alt_load
 10001e4:	100a2040 	call	100a204 <alt_load>

    /* Log that alt_main is about to be called. */
    ALT_LOG_PUTS(alt_log_msg_alt_main)

    /* Call the C entry point. It should never return. */
    call alt_main
 10001e8:	100a4440 	call	100a444 <alt_main>

010001ec <alt_after_alt_main>:

    /* Wait in infinite loop in case alt_main does return. */
alt_after_alt_main:
    br alt_after_alt_main
 10001ec:	003fff06 	br	10001ec <alt_after_alt_main>

010001f0 <main>:


// Do something for the sum!!!!

int main(void)
{
 10001f0:	defff904 	addi	sp,sp,-28
 10001f4:	dfc00615 	stw	ra,24(sp)
 10001f8:	df000515 	stw	fp,20(sp)
 10001fc:	df000504 	addi	fp,sp,20
	alt_up_character_lcd_dev * char_lcd_dev;
	alt_up_parallel_port_dev* parallel_port_dev;
	unsigned int key;
	char *key_str;
	// open the Character LCD port
	char_lcd_dev = alt_up_character_lcd_open_dev ("/dev/character_lcd_0");
 1000200:	01004074 	movhi	r4,257
 1000204:	2134aa04 	addi	r4,r4,-11608
 1000208:	100b8280 	call	100b828 <alt_up_character_lcd_open_dev>
 100020c:	e0bfff15 	stw	r2,-4(fp)
	parallel_port_dev = alt_up_parallel_port_open_dev("/dev/parallel_port_0");
 1000210:	01004074 	movhi	r4,257
 1000214:	2134b004 	addi	r4,r4,-11584
 1000218:	100bc740 	call	100bc74 <alt_up_parallel_port_open_dev>
 100021c:	e0bffe15 	stw	r2,-8(fp)

	if ( char_lcd_dev == NULL)
 1000220:	e0bfff17 	ldw	r2,-4(fp)
 1000224:	1004c03a 	cmpne	r2,r2,zero
 1000228:	1000041e 	bne	r2,zero,100023c <main+0x4c>
		alt_printf ("Error: could not open character LCD device\n");
 100022c:	01004074 	movhi	r4,257
 1000230:	2134b604 	addi	r4,r4,-11560
 1000234:	100a4f00 	call	100a4f0 <alt_printf>
 1000238:	00000306 	br	1000248 <main+0x58>
	else
		alt_printf ("Opened character LCD device\n");
 100023c:	01004074 	movhi	r4,257
 1000240:	2134c104 	addi	r4,r4,-11516
 1000244:	100a4f00 	call	100a4f0 <alt_printf>

	if (parallel_port_dev == NULL)
 1000248:	e0bffe17 	ldw	r2,-8(fp)
 100024c:	1004c03a 	cmpne	r2,r2,zero
 1000250:	1000041e 	bne	r2,zero,1000264 <main+0x74>
		alt_printf ("Error: could not open Parallel Port device\n");
 1000254:	01004074 	movhi	r4,257
 1000258:	2134c904 	addi	r4,r4,-11484
 100025c:	100a4f00 	call	100a4f0 <alt_printf>
 1000260:	00000306 	br	1000270 <main+0x80>
	else
		alt_printf ("Opened Parallel Port device\n");
 1000264:	01004074 	movhi	r4,257
 1000268:	2134d404 	addi	r4,r4,-11440
 100026c:	100a4f00 	call	100a4f0 <alt_printf>

	/* Initialize the character display */
	alt_up_character_lcd_init (char_lcd_dev);
 1000270:	e13fff17 	ldw	r4,-4(fp)
 1000274:	100b7f40 	call	100b7f4 <alt_up_character_lcd_init>

	/* Write in the first row */
	alt_up_character_lcd_string(char_lcd_dev, "Keys pressed:");
 1000278:	e13fff17 	ldw	r4,-4(fp)
 100027c:	01404074 	movhi	r5,257
 1000280:	2974dc04 	addi	r5,r5,-11408
 1000284:	100b8e00 	call	100b8e0 <alt_up_character_lcd_string>
 1000288:	00000006 	br	100028c <main+0x9c>

	while(1){
		key = alt_up_parallel_port_read_data(parallel_port_dev);
 100028c:	e0bffe17 	ldw	r2,-8(fp)
 1000290:	10800a17 	ldw	r2,40(r2)
 1000294:	10800037 	ldwio	r2,0(r2)
 1000298:	e0bffd15 	stw	r2,-12(fp)

		if (key != 0){
 100029c:	e0bffd17 	ldw	r2,-12(fp)
 10002a0:	1005003a 	cmpeq	r2,r2,zero
 10002a4:	1000641e 	bne	r2,zero,1000438 <main+0x248>
			unsigned int mask = 8;
 10002a8:	00800204 	movi	r2,8
 10002ac:	e0bffb15 	stw	r2,-20(fp)
			printf("%d\n", key);/* Write in the second row */
 10002b0:	01004074 	movhi	r4,257
 10002b4:	2134e004 	addi	r4,r4,-11392
 10002b8:	e17ffd17 	ldw	r5,-12(fp)
 10002bc:	10004640 	call	1000464 <printf>

			switch(key){
 10002c0:	e0bffd17 	ldw	r2,-12(fp)
 10002c4:	10800428 	cmpgeui	r2,r2,16
 10002c8:	1000531e 	bne	r2,zero,1000418 <main+0x228>
 10002cc:	e0bffd17 	ldw	r2,-12(fp)
 10002d0:	1085883a 	add	r2,r2,r2
 10002d4:	1087883a 	add	r3,r2,r2
 10002d8:	00804034 	movhi	r2,256
 10002dc:	1080bb04 	addi	r2,r2,748
 10002e0:	1885883a 	add	r2,r3,r2
 10002e4:	10800017 	ldw	r2,0(r2)
 10002e8:	1000683a 	jmp	r2
 10002ec:	01000418 	cmpnei	r4,zero,16
 10002f0:	0100032c 	andhi	r4,zero,12
 10002f4:	0100033c 	xorhi	r4,zero,12
 10002f8:	0100034c 	andi	r4,zero,13
 10002fc:	0100035c 	xori	r4,zero,13
 1000300:	0100036c 	andhi	r4,zero,13
 1000304:	0100037c 	xorhi	r4,zero,13
 1000308:	0100038c 	andi	r4,zero,14
 100030c:	0100039c 	xori	r4,zero,14
 1000310:	010003ac 	andhi	r4,zero,14
 1000314:	010003bc 	xorhi	r4,zero,14
 1000318:	010003cc 	andi	r4,zero,15
 100031c:	010003dc 	xori	r4,zero,15
 1000320:	010003ec 	andhi	r4,zero,15
 1000324:	010003fc 	xorhi	r4,zero,15
 1000328:	0100040c 	andi	r4,zero,16
				case 1:
					key_str = "0      ";
 100032c:	00804074 	movhi	r2,257
 1000330:	10b4e104 	addi	r2,r2,-11388
 1000334:	e0bffc15 	stw	r2,-16(fp)
					break;
 1000338:	00003706 	br	1000418 <main+0x228>
				case 2:
					key_str = "1      ";
 100033c:	00804074 	movhi	r2,257
 1000340:	10b4e304 	addi	r2,r2,-11380
 1000344:	e0bffc15 	stw	r2,-16(fp)
					break;
 1000348:	00003306 	br	1000418 <main+0x228>
				case 3:
					key_str = "0 1      ";
 100034c:	00804074 	movhi	r2,257
 1000350:	10b4e504 	addi	r2,r2,-11372
 1000354:	e0bffc15 	stw	r2,-16(fp)
					break;
 1000358:	00002f06 	br	1000418 <main+0x228>
				case 4:
					key_str = "2      ";
 100035c:	00804074 	movhi	r2,257
 1000360:	10b4e804 	addi	r2,r2,-11360
 1000364:	e0bffc15 	stw	r2,-16(fp)
					break;
 1000368:	00002b06 	br	1000418 <main+0x228>
				case 5:
					key_str = "0 2      ";
 100036c:	00804074 	movhi	r2,257
 1000370:	10b4ea04 	addi	r2,r2,-11352
 1000374:	e0bffc15 	stw	r2,-16(fp)
					break;
 1000378:	00002706 	br	1000418 <main+0x228>
				case 6:
					key_str = "1 2      ";
 100037c:	00804074 	movhi	r2,257
 1000380:	10b4ed04 	addi	r2,r2,-11340
 1000384:	e0bffc15 	stw	r2,-16(fp)
					break;
 1000388:	00002306 	br	1000418 <main+0x228>
				case 7:
					key_str = "0 1 2    ";
 100038c:	00804074 	movhi	r2,257
 1000390:	10b4f004 	addi	r2,r2,-11328
 1000394:	e0bffc15 	stw	r2,-16(fp)
					break;
 1000398:	00001f06 	br	1000418 <main+0x228>
				case 8:
					key_str = "3        ";
 100039c:	00804074 	movhi	r2,257
 10003a0:	10b4f304 	addi	r2,r2,-11316
 10003a4:	e0bffc15 	stw	r2,-16(fp)
					break;
 10003a8:	00001b06 	br	1000418 <main+0x228>
				case 9:
					key_str = "0 3      ";
 10003ac:	00804074 	movhi	r2,257
 10003b0:	10b4f604 	addi	r2,r2,-11304
 10003b4:	e0bffc15 	stw	r2,-16(fp)
					break;
 10003b8:	00001706 	br	1000418 <main+0x228>
				case 10:
					key_str = "1 3      ";
 10003bc:	00804074 	movhi	r2,257
 10003c0:	10b4f904 	addi	r2,r2,-11292
 10003c4:	e0bffc15 	stw	r2,-16(fp)
					break;
 10003c8:	00001306 	br	1000418 <main+0x228>
				case 11:
					key_str = "0 1 3    ";
 10003cc:	00804074 	movhi	r2,257
 10003d0:	10b4fc04 	addi	r2,r2,-11280
 10003d4:	e0bffc15 	stw	r2,-16(fp)
					break;
 10003d8:	00000f06 	br	1000418 <main+0x228>
				case 12:
					key_str = "2 3      ";
 10003dc:	00804074 	movhi	r2,257
 10003e0:	10b4ff04 	addi	r2,r2,-11268
 10003e4:	e0bffc15 	stw	r2,-16(fp)
					break;
 10003e8:	00000b06 	br	1000418 <main+0x228>
				case 13:
					key_str = "0 2 3    ";
 10003ec:	00804074 	movhi	r2,257
 10003f0:	10b50204 	addi	r2,r2,-11256
 10003f4:	e0bffc15 	stw	r2,-16(fp)
					break;
 10003f8:	00000706 	br	1000418 <main+0x228>
				case 14:
					key_str = "1 2 3    ";
 10003fc:	00804074 	movhi	r2,257
 1000400:	10b50504 	addi	r2,r2,-11244
 1000404:	e0bffc15 	stw	r2,-16(fp)
					break;
 1000408:	00000306 	br	1000418 <main+0x228>
				case 15:
					key_str = "0 1 2 3  ";
 100040c:	00804074 	movhi	r2,257
 1000410:	10b50804 	addi	r2,r2,-11232
 1000414:	e0bffc15 	stw	r2,-16(fp)
					break;
			}

			alt_up_character_lcd_set_cursor_pos(char_lcd_dev, 0, 1);
 1000418:	e13fff17 	ldw	r4,-4(fp)
 100041c:	000b883a 	mov	r5,zero
 1000420:	01800044 	movi	r6,1
 1000424:	100b9a40 	call	100b9a4 <alt_up_character_lcd_set_cursor_pos>
			alt_up_character_lcd_string(char_lcd_dev, key_str);
 1000428:	e13fff17 	ldw	r4,-4(fp)
 100042c:	e17ffc17 	ldw	r5,-16(fp)
 1000430:	100b8e00 	call	100b8e0 <alt_up_character_lcd_string>
 1000434:	003f9506 	br	100028c <main+0x9c>
		}
		else{
			key_str = "             \0";
 1000438:	00804074 	movhi	r2,257
 100043c:	10b50b04 	addi	r2,r2,-11220
 1000440:	e0bffc15 	stw	r2,-16(fp)
			alt_up_character_lcd_set_cursor_pos(char_lcd_dev, 0, 1);
 1000444:	e13fff17 	ldw	r4,-4(fp)
 1000448:	000b883a 	mov	r5,zero
 100044c:	01800044 	movi	r6,1
 1000450:	100b9a40 	call	100b9a4 <alt_up_character_lcd_set_cursor_pos>
			alt_up_character_lcd_string(char_lcd_dev, key_str);
 1000454:	e13fff17 	ldw	r4,-4(fp)
 1000458:	e17ffc17 	ldw	r5,-16(fp)
 100045c:	100b8e00 	call	100b8e0 <alt_up_character_lcd_string>
		}
	}
 1000460:	003f8a06 	br	100028c <main+0x9c>

01000464 <printf>:
 1000464:	defffb04 	addi	sp,sp,-20
 1000468:	dfc00115 	stw	ra,4(sp)
 100046c:	d9400215 	stw	r5,8(sp)
 1000470:	d9800315 	stw	r6,12(sp)
 1000474:	d9c00415 	stw	r7,16(sp)
 1000478:	00804074 	movhi	r2,257
 100047c:	10bc8804 	addi	r2,r2,-3552
 1000480:	10c00017 	ldw	r3,0(r2)
 1000484:	200b883a 	mov	r5,r4
 1000488:	d8800204 	addi	r2,sp,8
 100048c:	19000217 	ldw	r4,8(r3)
 1000490:	100d883a 	mov	r6,r2
 1000494:	d8800015 	stw	r2,0(sp)
 1000498:	10023f80 	call	10023f8 <__vfprintf_internal>
 100049c:	dfc00117 	ldw	ra,4(sp)
 10004a0:	dec00504 	addi	sp,sp,20
 10004a4:	f800283a 	ret

010004a8 <_printf_r>:
 10004a8:	defffc04 	addi	sp,sp,-16
 10004ac:	dfc00115 	stw	ra,4(sp)
 10004b0:	d9800215 	stw	r6,8(sp)
 10004b4:	d9c00315 	stw	r7,12(sp)
 10004b8:	280d883a 	mov	r6,r5
 10004bc:	21400217 	ldw	r5,8(r4)
 10004c0:	d8c00204 	addi	r3,sp,8
 10004c4:	180f883a 	mov	r7,r3
 10004c8:	d8c00015 	stw	r3,0(sp)
 10004cc:	10005340 	call	1000534 <___vfprintf_internal_r>
 10004d0:	dfc00117 	ldw	ra,4(sp)
 10004d4:	dec00404 	addi	sp,sp,16
 10004d8:	f800283a 	ret

010004dc <__sprint_r>:
 10004dc:	30800217 	ldw	r2,8(r6)
 10004e0:	defffe04 	addi	sp,sp,-8
 10004e4:	dc000015 	stw	r16,0(sp)
 10004e8:	dfc00115 	stw	ra,4(sp)
 10004ec:	3021883a 	mov	r16,r6
 10004f0:	0007883a 	mov	r3,zero
 10004f4:	1000061e 	bne	r2,zero,1000510 <__sprint_r+0x34>
 10004f8:	1805883a 	mov	r2,r3
 10004fc:	30000115 	stw	zero,4(r6)
 1000500:	dfc00117 	ldw	ra,4(sp)
 1000504:	dc000017 	ldw	r16,0(sp)
 1000508:	dec00204 	addi	sp,sp,8
 100050c:	f800283a 	ret
 1000510:	10046b40 	call	10046b4 <__sfvwrite_r>
 1000514:	1007883a 	mov	r3,r2
 1000518:	1805883a 	mov	r2,r3
 100051c:	80000115 	stw	zero,4(r16)
 1000520:	80000215 	stw	zero,8(r16)
 1000524:	dfc00117 	ldw	ra,4(sp)
 1000528:	dc000017 	ldw	r16,0(sp)
 100052c:	dec00204 	addi	sp,sp,8
 1000530:	f800283a 	ret

01000534 <___vfprintf_internal_r>:
 1000534:	defea404 	addi	sp,sp,-1392
 1000538:	dd815815 	stw	r22,1376(sp)
 100053c:	dc015215 	stw	r16,1352(sp)
 1000540:	d9c15115 	stw	r7,1348(sp)
 1000544:	dfc15b15 	stw	ra,1388(sp)
 1000548:	df015a15 	stw	fp,1384(sp)
 100054c:	ddc15915 	stw	r23,1380(sp)
 1000550:	dd415715 	stw	r21,1372(sp)
 1000554:	dd015615 	stw	r20,1368(sp)
 1000558:	dcc15515 	stw	r19,1364(sp)
 100055c:	dc815415 	stw	r18,1360(sp)
 1000560:	dc415315 	stw	r17,1356(sp)
 1000564:	282d883a 	mov	r22,r5
 1000568:	3021883a 	mov	r16,r6
 100056c:	d9014f15 	stw	r4,1340(sp)
 1000570:	1004cd80 	call	1004cd8 <_localeconv_r>
 1000574:	10800017 	ldw	r2,0(r2)
 1000578:	d9c15117 	ldw	r7,1348(sp)
 100057c:	d8814915 	stw	r2,1316(sp)
 1000580:	d8814f17 	ldw	r2,1340(sp)
 1000584:	10000226 	beq	r2,zero,1000590 <___vfprintf_internal_r+0x5c>
 1000588:	10800e17 	ldw	r2,56(r2)
 100058c:	10020d26 	beq	r2,zero,1000dc4 <___vfprintf_internal_r+0x890>
 1000590:	b080030b 	ldhu	r2,12(r22)
 1000594:	1080020c 	andi	r2,r2,8
 1000598:	10020e26 	beq	r2,zero,1000dd4 <___vfprintf_internal_r+0x8a0>
 100059c:	b0800417 	ldw	r2,16(r22)
 10005a0:	10020c26 	beq	r2,zero,1000dd4 <___vfprintf_internal_r+0x8a0>
 10005a4:	b200030b 	ldhu	r8,12(r22)
 10005a8:	00800284 	movi	r2,10
 10005ac:	40c0068c 	andi	r3,r8,26
 10005b0:	18802f1e 	bne	r3,r2,1000670 <___vfprintf_internal_r+0x13c>
 10005b4:	b080038f 	ldh	r2,14(r22)
 10005b8:	10002d16 	blt	r2,zero,1000670 <___vfprintf_internal_r+0x13c>
 10005bc:	b240038b 	ldhu	r9,14(r22)
 10005c0:	b2800717 	ldw	r10,28(r22)
 10005c4:	b2c00917 	ldw	r11,36(r22)
 10005c8:	d9014f17 	ldw	r4,1340(sp)
 10005cc:	dc402904 	addi	r17,sp,164
 10005d0:	d8804004 	addi	r2,sp,256
 10005d4:	00c10004 	movi	r3,1024
 10005d8:	423fff4c 	andi	r8,r8,65533
 10005dc:	800d883a 	mov	r6,r16
 10005e0:	880b883a 	mov	r5,r17
 10005e4:	da002c0d 	sth	r8,176(sp)
 10005e8:	da402c8d 	sth	r9,178(sp)
 10005ec:	da803015 	stw	r10,192(sp)
 10005f0:	dac03215 	stw	r11,200(sp)
 10005f4:	d8802d15 	stw	r2,180(sp)
 10005f8:	d8c02e15 	stw	r3,184(sp)
 10005fc:	d8802915 	stw	r2,164(sp)
 1000600:	d8c02b15 	stw	r3,172(sp)
 1000604:	d8002f15 	stw	zero,188(sp)
 1000608:	10005340 	call	1000534 <___vfprintf_internal_r>
 100060c:	d8814b15 	stw	r2,1324(sp)
 1000610:	10000416 	blt	r2,zero,1000624 <___vfprintf_internal_r+0xf0>
 1000614:	d9014f17 	ldw	r4,1340(sp)
 1000618:	880b883a 	mov	r5,r17
 100061c:	1003d500 	call	1003d50 <_fflush_r>
 1000620:	1002321e 	bne	r2,zero,1000eec <___vfprintf_internal_r+0x9b8>
 1000624:	d8802c0b 	ldhu	r2,176(sp)
 1000628:	1080100c 	andi	r2,r2,64
 100062c:	10000326 	beq	r2,zero,100063c <___vfprintf_internal_r+0x108>
 1000630:	b080030b 	ldhu	r2,12(r22)
 1000634:	10801014 	ori	r2,r2,64
 1000638:	b080030d 	sth	r2,12(r22)
 100063c:	d8814b17 	ldw	r2,1324(sp)
 1000640:	dfc15b17 	ldw	ra,1388(sp)
 1000644:	df015a17 	ldw	fp,1384(sp)
 1000648:	ddc15917 	ldw	r23,1380(sp)
 100064c:	dd815817 	ldw	r22,1376(sp)
 1000650:	dd415717 	ldw	r21,1372(sp)
 1000654:	dd015617 	ldw	r20,1368(sp)
 1000658:	dcc15517 	ldw	r19,1364(sp)
 100065c:	dc815417 	ldw	r18,1360(sp)
 1000660:	dc415317 	ldw	r17,1356(sp)
 1000664:	dc015217 	ldw	r16,1352(sp)
 1000668:	dec15c04 	addi	sp,sp,1392
 100066c:	f800283a 	ret
 1000670:	0005883a 	mov	r2,zero
 1000674:	0007883a 	mov	r3,zero
 1000678:	dd401904 	addi	r21,sp,100
 100067c:	d8814215 	stw	r2,1288(sp)
 1000680:	802f883a 	mov	r23,r16
 1000684:	d8c14315 	stw	r3,1292(sp)
 1000688:	d8014b15 	stw	zero,1324(sp)
 100068c:	d8014815 	stw	zero,1312(sp)
 1000690:	d8014415 	stw	zero,1296(sp)
 1000694:	d8014715 	stw	zero,1308(sp)
 1000698:	dd400c15 	stw	r21,48(sp)
 100069c:	d8000e15 	stw	zero,56(sp)
 10006a0:	d8000d15 	stw	zero,52(sp)
 10006a4:	b8800007 	ldb	r2,0(r23)
 10006a8:	10001926 	beq	r2,zero,1000710 <___vfprintf_internal_r+0x1dc>
 10006ac:	00c00944 	movi	r3,37
 10006b0:	10c01726 	beq	r2,r3,1000710 <___vfprintf_internal_r+0x1dc>
 10006b4:	b821883a 	mov	r16,r23
 10006b8:	00000106 	br	10006c0 <___vfprintf_internal_r+0x18c>
 10006bc:	10c00326 	beq	r2,r3,10006cc <___vfprintf_internal_r+0x198>
 10006c0:	84000044 	addi	r16,r16,1
 10006c4:	80800007 	ldb	r2,0(r16)
 10006c8:	103ffc1e 	bne	r2,zero,10006bc <___vfprintf_internal_r+0x188>
 10006cc:	85e7c83a 	sub	r19,r16,r23
 10006d0:	98000e26 	beq	r19,zero,100070c <___vfprintf_internal_r+0x1d8>
 10006d4:	dc800e17 	ldw	r18,56(sp)
 10006d8:	dc400d17 	ldw	r17,52(sp)
 10006dc:	008001c4 	movi	r2,7
 10006e0:	94e5883a 	add	r18,r18,r19
 10006e4:	8c400044 	addi	r17,r17,1
 10006e8:	adc00015 	stw	r23,0(r21)
 10006ec:	dc800e15 	stw	r18,56(sp)
 10006f0:	acc00115 	stw	r19,4(r21)
 10006f4:	dc400d15 	stw	r17,52(sp)
 10006f8:	14428b16 	blt	r2,r17,1001128 <___vfprintf_internal_r+0xbf4>
 10006fc:	ad400204 	addi	r21,r21,8
 1000700:	d9014b17 	ldw	r4,1324(sp)
 1000704:	24c9883a 	add	r4,r4,r19
 1000708:	d9014b15 	stw	r4,1324(sp)
 100070c:	802f883a 	mov	r23,r16
 1000710:	b8800007 	ldb	r2,0(r23)
 1000714:	10013c26 	beq	r2,zero,1000c08 <___vfprintf_internal_r+0x6d4>
 1000718:	bdc00044 	addi	r23,r23,1
 100071c:	d8000405 	stb	zero,16(sp)
 1000720:	b8c00007 	ldb	r3,0(r23)
 1000724:	04ffffc4 	movi	r19,-1
 1000728:	d8014c15 	stw	zero,1328(sp)
 100072c:	d8014a15 	stw	zero,1320(sp)
 1000730:	d8c14d15 	stw	r3,1332(sp)
 1000734:	bdc00044 	addi	r23,r23,1
 1000738:	d9414d17 	ldw	r5,1332(sp)
 100073c:	00801604 	movi	r2,88
 1000740:	28fff804 	addi	r3,r5,-32
 1000744:	10c06036 	bltu	r2,r3,10008c8 <___vfprintf_internal_r+0x394>
 1000748:	18c5883a 	add	r2,r3,r3
 100074c:	1085883a 	add	r2,r2,r2
 1000750:	00c04034 	movhi	r3,256
 1000754:	18c1d904 	addi	r3,r3,1892
 1000758:	10c5883a 	add	r2,r2,r3
 100075c:	11000017 	ldw	r4,0(r2)
 1000760:	2000683a 	jmp	r4
 1000764:	010016d8 	cmpnei	r4,zero,91
 1000768:	010008c8 	cmpgei	r4,zero,35
 100076c:	010008c8 	cmpgei	r4,zero,35
 1000770:	010016c4 	movi	r4,91
 1000774:	010008c8 	cmpgei	r4,zero,35
 1000778:	010008c8 	cmpgei	r4,zero,35
 100077c:	010008c8 	cmpgei	r4,zero,35
 1000780:	010008c8 	cmpgei	r4,zero,35
 1000784:	010008c8 	cmpgei	r4,zero,35
 1000788:	010008c8 	cmpgei	r4,zero,35
 100078c:	010014a4 	muli	r4,zero,82
 1000790:	010016b4 	movhi	r4,90
 1000794:	010008c8 	cmpgei	r4,zero,35
 1000798:	010014bc 	xorhi	r4,zero,82
 100079c:	0100175c 	xori	r4,zero,93
 10007a0:	010008c8 	cmpgei	r4,zero,35
 10007a4:	01001748 	cmpgei	r4,zero,93
 10007a8:	01001704 	movi	r4,92
 10007ac:	01001704 	movi	r4,92
 10007b0:	01001704 	movi	r4,92
 10007b4:	01001704 	movi	r4,92
 10007b8:	01001704 	movi	r4,92
 10007bc:	01001704 	movi	r4,92
 10007c0:	01001704 	movi	r4,92
 10007c4:	01001704 	movi	r4,92
 10007c8:	01001704 	movi	r4,92
 10007cc:	010008c8 	cmpgei	r4,zero,35
 10007d0:	010008c8 	cmpgei	r4,zero,35
 10007d4:	010008c8 	cmpgei	r4,zero,35
 10007d8:	010008c8 	cmpgei	r4,zero,35
 10007dc:	010008c8 	cmpgei	r4,zero,35
 10007e0:	010008c8 	cmpgei	r4,zero,35
 10007e4:	010008c8 	cmpgei	r4,zero,35
 10007e8:	010008c8 	cmpgei	r4,zero,35
 10007ec:	010008c8 	cmpgei	r4,zero,35
 10007f0:	010008c8 	cmpgei	r4,zero,35
 10007f4:	01000f20 	cmpeqi	r4,zero,60
 10007f8:	0100158c 	andi	r4,zero,86
 10007fc:	010008c8 	cmpgei	r4,zero,35
 1000800:	0100158c 	andi	r4,zero,86
 1000804:	010008c8 	cmpgei	r4,zero,35
 1000808:	010008c8 	cmpgei	r4,zero,35
 100080c:	010008c8 	cmpgei	r4,zero,35
 1000810:	010008c8 	cmpgei	r4,zero,35
 1000814:	010016f0 	cmpltui	r4,zero,91
 1000818:	010008c8 	cmpgei	r4,zero,35
 100081c:	010008c8 	cmpgei	r4,zero,35
 1000820:	01000fd4 	movui	r4,63
 1000824:	010008c8 	cmpgei	r4,zero,35
 1000828:	010008c8 	cmpgei	r4,zero,35
 100082c:	010008c8 	cmpgei	r4,zero,35
 1000830:	010008c8 	cmpgei	r4,zero,35
 1000834:	010008c8 	cmpgei	r4,zero,35
 1000838:	01001020 	cmpeqi	r4,zero,64
 100083c:	010008c8 	cmpgei	r4,zero,35
 1000840:	010008c8 	cmpgei	r4,zero,35
 1000844:	01001640 	call	100164 <__alt_mem_onchip_memory2_0+0x100164>
 1000848:	010008c8 	cmpgei	r4,zero,35
 100084c:	010008c8 	cmpgei	r4,zero,35
 1000850:	010008c8 	cmpgei	r4,zero,35
 1000854:	010008c8 	cmpgei	r4,zero,35
 1000858:	010008c8 	cmpgei	r4,zero,35
 100085c:	010008c8 	cmpgei	r4,zero,35
 1000860:	010008c8 	cmpgei	r4,zero,35
 1000864:	010008c8 	cmpgei	r4,zero,35
 1000868:	010008c8 	cmpgei	r4,zero,35
 100086c:	010008c8 	cmpgei	r4,zero,35
 1000870:	01001614 	movui	r4,88
 1000874:	01000f2c 	andhi	r4,zero,60
 1000878:	0100158c 	andi	r4,zero,86
 100087c:	0100158c 	andi	r4,zero,86
 1000880:	0100158c 	andi	r4,zero,86
 1000884:	01001578 	rdprs	r4,zero,85
 1000888:	01000f2c 	andhi	r4,zero,60
 100088c:	010008c8 	cmpgei	r4,zero,35
 1000890:	010008c8 	cmpgei	r4,zero,35
 1000894:	01001500 	call	100150 <__alt_mem_onchip_memory2_0+0x100150>
 1000898:	010008c8 	cmpgei	r4,zero,35
 100089c:	010014d0 	cmplti	r4,zero,83
 10008a0:	01000fe0 	cmpeqi	r4,zero,63
 10008a4:	01001530 	cmpltui	r4,zero,84
 10008a8:	0100151c 	xori	r4,zero,84
 10008ac:	010008c8 	cmpgei	r4,zero,35
 10008b0:	010017c4 	movi	r4,95
 10008b4:	010008c8 	cmpgei	r4,zero,35
 10008b8:	0100102c 	andhi	r4,zero,64
 10008bc:	010008c8 	cmpgei	r4,zero,35
 10008c0:	010008c8 	cmpgei	r4,zero,35
 10008c4:	010016a4 	muli	r4,zero,90
 10008c8:	d9014d17 	ldw	r4,1332(sp)
 10008cc:	2000ce26 	beq	r4,zero,1000c08 <___vfprintf_internal_r+0x6d4>
 10008d0:	01400044 	movi	r5,1
 10008d4:	d9800f04 	addi	r6,sp,60
 10008d8:	d9c14015 	stw	r7,1280(sp)
 10008dc:	d9414515 	stw	r5,1300(sp)
 10008e0:	d9814115 	stw	r6,1284(sp)
 10008e4:	280f883a 	mov	r7,r5
 10008e8:	d9000f05 	stb	r4,60(sp)
 10008ec:	d8000405 	stb	zero,16(sp)
 10008f0:	d8014615 	stw	zero,1304(sp)
 10008f4:	d8c14c17 	ldw	r3,1328(sp)
 10008f8:	1880008c 	andi	r2,r3,2
 10008fc:	1005003a 	cmpeq	r2,r2,zero
 1000900:	d8815015 	stw	r2,1344(sp)
 1000904:	1000031e 	bne	r2,zero,1000914 <___vfprintf_internal_r+0x3e0>
 1000908:	d9014517 	ldw	r4,1300(sp)
 100090c:	21000084 	addi	r4,r4,2
 1000910:	d9014515 	stw	r4,1300(sp)
 1000914:	d9414c17 	ldw	r5,1328(sp)
 1000918:	2940210c 	andi	r5,r5,132
 100091c:	d9414e15 	stw	r5,1336(sp)
 1000920:	28002d1e 	bne	r5,zero,10009d8 <___vfprintf_internal_r+0x4a4>
 1000924:	d9814a17 	ldw	r6,1320(sp)
 1000928:	d8814517 	ldw	r2,1300(sp)
 100092c:	30a1c83a 	sub	r16,r6,r2
 1000930:	0400290e 	bge	zero,r16,10009d8 <___vfprintf_internal_r+0x4a4>
 1000934:	00800404 	movi	r2,16
 1000938:	14045e0e 	bge	r2,r16,1001ab4 <___vfprintf_internal_r+0x1580>
 100093c:	dc800e17 	ldw	r18,56(sp)
 1000940:	dc400d17 	ldw	r17,52(sp)
 1000944:	1027883a 	mov	r19,r2
 1000948:	07004074 	movhi	fp,257
 100094c:	e7352a84 	addi	fp,fp,-11094
 1000950:	050001c4 	movi	r20,7
 1000954:	00000306 	br	1000964 <___vfprintf_internal_r+0x430>
 1000958:	843ffc04 	addi	r16,r16,-16
 100095c:	ad400204 	addi	r21,r21,8
 1000960:	9c00130e 	bge	r19,r16,10009b0 <___vfprintf_internal_r+0x47c>
 1000964:	94800404 	addi	r18,r18,16
 1000968:	8c400044 	addi	r17,r17,1
 100096c:	af000015 	stw	fp,0(r21)
 1000970:	acc00115 	stw	r19,4(r21)
 1000974:	dc800e15 	stw	r18,56(sp)
 1000978:	dc400d15 	stw	r17,52(sp)
 100097c:	a47ff60e 	bge	r20,r17,1000958 <___vfprintf_internal_r+0x424>
 1000980:	d9014f17 	ldw	r4,1340(sp)
 1000984:	b00b883a 	mov	r5,r22
 1000988:	d9800c04 	addi	r6,sp,48
 100098c:	d9c15115 	stw	r7,1348(sp)
 1000990:	10004dc0 	call	10004dc <__sprint_r>
 1000994:	d9c15117 	ldw	r7,1348(sp)
 1000998:	10009e1e 	bne	r2,zero,1000c14 <___vfprintf_internal_r+0x6e0>
 100099c:	843ffc04 	addi	r16,r16,-16
 10009a0:	dc800e17 	ldw	r18,56(sp)
 10009a4:	dc400d17 	ldw	r17,52(sp)
 10009a8:	dd401904 	addi	r21,sp,100
 10009ac:	9c3fed16 	blt	r19,r16,1000964 <___vfprintf_internal_r+0x430>
 10009b0:	9425883a 	add	r18,r18,r16
 10009b4:	8c400044 	addi	r17,r17,1
 10009b8:	008001c4 	movi	r2,7
 10009bc:	af000015 	stw	fp,0(r21)
 10009c0:	ac000115 	stw	r16,4(r21)
 10009c4:	dc800e15 	stw	r18,56(sp)
 10009c8:	dc400d15 	stw	r17,52(sp)
 10009cc:	1441f516 	blt	r2,r17,10011a4 <___vfprintf_internal_r+0xc70>
 10009d0:	ad400204 	addi	r21,r21,8
 10009d4:	00000206 	br	10009e0 <___vfprintf_internal_r+0x4ac>
 10009d8:	dc800e17 	ldw	r18,56(sp)
 10009dc:	dc400d17 	ldw	r17,52(sp)
 10009e0:	d8800407 	ldb	r2,16(sp)
 10009e4:	10000b26 	beq	r2,zero,1000a14 <___vfprintf_internal_r+0x4e0>
 10009e8:	00800044 	movi	r2,1
 10009ec:	94800044 	addi	r18,r18,1
 10009f0:	8c400044 	addi	r17,r17,1
 10009f4:	a8800115 	stw	r2,4(r21)
 10009f8:	d8c00404 	addi	r3,sp,16
 10009fc:	008001c4 	movi	r2,7
 1000a00:	a8c00015 	stw	r3,0(r21)
 1000a04:	dc800e15 	stw	r18,56(sp)
 1000a08:	dc400d15 	stw	r17,52(sp)
 1000a0c:	1441da16 	blt	r2,r17,1001178 <___vfprintf_internal_r+0xc44>
 1000a10:	ad400204 	addi	r21,r21,8
 1000a14:	d9015017 	ldw	r4,1344(sp)
 1000a18:	20000b1e 	bne	r4,zero,1000a48 <___vfprintf_internal_r+0x514>
 1000a1c:	d8800444 	addi	r2,sp,17
 1000a20:	94800084 	addi	r18,r18,2
 1000a24:	8c400044 	addi	r17,r17,1
 1000a28:	a8800015 	stw	r2,0(r21)
 1000a2c:	00c00084 	movi	r3,2
 1000a30:	008001c4 	movi	r2,7
 1000a34:	a8c00115 	stw	r3,4(r21)
 1000a38:	dc800e15 	stw	r18,56(sp)
 1000a3c:	dc400d15 	stw	r17,52(sp)
 1000a40:	1441c216 	blt	r2,r17,100114c <___vfprintf_internal_r+0xc18>
 1000a44:	ad400204 	addi	r21,r21,8
 1000a48:	d9414e17 	ldw	r5,1336(sp)
 1000a4c:	00802004 	movi	r2,128
 1000a50:	2880b126 	beq	r5,r2,1000d18 <___vfprintf_internal_r+0x7e4>
 1000a54:	d8c14617 	ldw	r3,1304(sp)
 1000a58:	19e1c83a 	sub	r16,r3,r7
 1000a5c:	0400260e 	bge	zero,r16,1000af8 <___vfprintf_internal_r+0x5c4>
 1000a60:	00800404 	movi	r2,16
 1000a64:	1403cf0e 	bge	r2,r16,10019a4 <___vfprintf_internal_r+0x1470>
 1000a68:	1027883a 	mov	r19,r2
 1000a6c:	07004074 	movhi	fp,257
 1000a70:	e7352684 	addi	fp,fp,-11110
 1000a74:	050001c4 	movi	r20,7
 1000a78:	00000306 	br	1000a88 <___vfprintf_internal_r+0x554>
 1000a7c:	843ffc04 	addi	r16,r16,-16
 1000a80:	ad400204 	addi	r21,r21,8
 1000a84:	9c00130e 	bge	r19,r16,1000ad4 <___vfprintf_internal_r+0x5a0>
 1000a88:	94800404 	addi	r18,r18,16
 1000a8c:	8c400044 	addi	r17,r17,1
 1000a90:	af000015 	stw	fp,0(r21)
 1000a94:	acc00115 	stw	r19,4(r21)
 1000a98:	dc800e15 	stw	r18,56(sp)
 1000a9c:	dc400d15 	stw	r17,52(sp)
 1000aa0:	a47ff60e 	bge	r20,r17,1000a7c <___vfprintf_internal_r+0x548>
 1000aa4:	d9014f17 	ldw	r4,1340(sp)
 1000aa8:	b00b883a 	mov	r5,r22
 1000aac:	d9800c04 	addi	r6,sp,48
 1000ab0:	d9c15115 	stw	r7,1348(sp)
 1000ab4:	10004dc0 	call	10004dc <__sprint_r>
 1000ab8:	d9c15117 	ldw	r7,1348(sp)
 1000abc:	1000551e 	bne	r2,zero,1000c14 <___vfprintf_internal_r+0x6e0>
 1000ac0:	843ffc04 	addi	r16,r16,-16
 1000ac4:	dc800e17 	ldw	r18,56(sp)
 1000ac8:	dc400d17 	ldw	r17,52(sp)
 1000acc:	dd401904 	addi	r21,sp,100
 1000ad0:	9c3fed16 	blt	r19,r16,1000a88 <___vfprintf_internal_r+0x554>
 1000ad4:	9425883a 	add	r18,r18,r16
 1000ad8:	8c400044 	addi	r17,r17,1
 1000adc:	008001c4 	movi	r2,7
 1000ae0:	af000015 	stw	fp,0(r21)
 1000ae4:	ac000115 	stw	r16,4(r21)
 1000ae8:	dc800e15 	stw	r18,56(sp)
 1000aec:	dc400d15 	stw	r17,52(sp)
 1000af0:	14418216 	blt	r2,r17,10010fc <___vfprintf_internal_r+0xbc8>
 1000af4:	ad400204 	addi	r21,r21,8
 1000af8:	d9014c17 	ldw	r4,1328(sp)
 1000afc:	2080400c 	andi	r2,r4,256
 1000b00:	10004a1e 	bne	r2,zero,1000c2c <___vfprintf_internal_r+0x6f8>
 1000b04:	d9414117 	ldw	r5,1284(sp)
 1000b08:	91e5883a 	add	r18,r18,r7
 1000b0c:	8c400044 	addi	r17,r17,1
 1000b10:	008001c4 	movi	r2,7
 1000b14:	a9400015 	stw	r5,0(r21)
 1000b18:	a9c00115 	stw	r7,4(r21)
 1000b1c:	dc800e15 	stw	r18,56(sp)
 1000b20:	dc400d15 	stw	r17,52(sp)
 1000b24:	14416716 	blt	r2,r17,10010c4 <___vfprintf_internal_r+0xb90>
 1000b28:	a8c00204 	addi	r3,r21,8
 1000b2c:	d9814c17 	ldw	r6,1328(sp)
 1000b30:	3080010c 	andi	r2,r6,4
 1000b34:	10002826 	beq	r2,zero,1000bd8 <___vfprintf_internal_r+0x6a4>
 1000b38:	d8814a17 	ldw	r2,1320(sp)
 1000b3c:	d9014517 	ldw	r4,1300(sp)
 1000b40:	1121c83a 	sub	r16,r2,r4
 1000b44:	0400240e 	bge	zero,r16,1000bd8 <___vfprintf_internal_r+0x6a4>
 1000b48:	00800404 	movi	r2,16
 1000b4c:	1404550e 	bge	r2,r16,1001ca4 <___vfprintf_internal_r+0x1770>
 1000b50:	dc400d17 	ldw	r17,52(sp)
 1000b54:	1027883a 	mov	r19,r2
 1000b58:	07004074 	movhi	fp,257
 1000b5c:	e7352a84 	addi	fp,fp,-11094
 1000b60:	050001c4 	movi	r20,7
 1000b64:	00000306 	br	1000b74 <___vfprintf_internal_r+0x640>
 1000b68:	843ffc04 	addi	r16,r16,-16
 1000b6c:	18c00204 	addi	r3,r3,8
 1000b70:	9c00110e 	bge	r19,r16,1000bb8 <___vfprintf_internal_r+0x684>
 1000b74:	94800404 	addi	r18,r18,16
 1000b78:	8c400044 	addi	r17,r17,1
 1000b7c:	1f000015 	stw	fp,0(r3)
 1000b80:	1cc00115 	stw	r19,4(r3)
 1000b84:	dc800e15 	stw	r18,56(sp)
 1000b88:	dc400d15 	stw	r17,52(sp)
 1000b8c:	a47ff60e 	bge	r20,r17,1000b68 <___vfprintf_internal_r+0x634>
 1000b90:	d9014f17 	ldw	r4,1340(sp)
 1000b94:	b00b883a 	mov	r5,r22
 1000b98:	d9800c04 	addi	r6,sp,48
 1000b9c:	10004dc0 	call	10004dc <__sprint_r>
 1000ba0:	10001c1e 	bne	r2,zero,1000c14 <___vfprintf_internal_r+0x6e0>
 1000ba4:	843ffc04 	addi	r16,r16,-16
 1000ba8:	dc800e17 	ldw	r18,56(sp)
 1000bac:	dc400d17 	ldw	r17,52(sp)
 1000bb0:	d8c01904 	addi	r3,sp,100
 1000bb4:	9c3fef16 	blt	r19,r16,1000b74 <___vfprintf_internal_r+0x640>
 1000bb8:	9425883a 	add	r18,r18,r16
 1000bbc:	8c400044 	addi	r17,r17,1
 1000bc0:	008001c4 	movi	r2,7
 1000bc4:	1f000015 	stw	fp,0(r3)
 1000bc8:	1c000115 	stw	r16,4(r3)
 1000bcc:	dc800e15 	stw	r18,56(sp)
 1000bd0:	dc400d15 	stw	r17,52(sp)
 1000bd4:	1440cb16 	blt	r2,r17,1000f04 <___vfprintf_internal_r+0x9d0>
 1000bd8:	d8814a17 	ldw	r2,1320(sp)
 1000bdc:	d9414517 	ldw	r5,1300(sp)
 1000be0:	1140010e 	bge	r2,r5,1000be8 <___vfprintf_internal_r+0x6b4>
 1000be4:	2805883a 	mov	r2,r5
 1000be8:	d9814b17 	ldw	r6,1324(sp)
 1000bec:	308d883a 	add	r6,r6,r2
 1000bf0:	d9814b15 	stw	r6,1324(sp)
 1000bf4:	90013b1e 	bne	r18,zero,10010e4 <___vfprintf_internal_r+0xbb0>
 1000bf8:	d9c14017 	ldw	r7,1280(sp)
 1000bfc:	dd401904 	addi	r21,sp,100
 1000c00:	d8000d15 	stw	zero,52(sp)
 1000c04:	003ea706 	br	10006a4 <___vfprintf_internal_r+0x170>
 1000c08:	d8800e17 	ldw	r2,56(sp)
 1000c0c:	1005451e 	bne	r2,zero,1002124 <___vfprintf_internal_r+0x1bf0>
 1000c10:	d8000d15 	stw	zero,52(sp)
 1000c14:	b080030b 	ldhu	r2,12(r22)
 1000c18:	1080100c 	andi	r2,r2,64
 1000c1c:	103e8726 	beq	r2,zero,100063c <___vfprintf_internal_r+0x108>
 1000c20:	00bfffc4 	movi	r2,-1
 1000c24:	d8814b15 	stw	r2,1324(sp)
 1000c28:	003e8406 	br	100063c <___vfprintf_internal_r+0x108>
 1000c2c:	d9814d17 	ldw	r6,1332(sp)
 1000c30:	00801944 	movi	r2,101
 1000c34:	11806e16 	blt	r2,r6,1000df0 <___vfprintf_internal_r+0x8bc>
 1000c38:	d9414717 	ldw	r5,1308(sp)
 1000c3c:	00c00044 	movi	r3,1
 1000c40:	1943490e 	bge	r3,r5,1001968 <___vfprintf_internal_r+0x1434>
 1000c44:	d8814117 	ldw	r2,1284(sp)
 1000c48:	94800044 	addi	r18,r18,1
 1000c4c:	8c400044 	addi	r17,r17,1
 1000c50:	a8800015 	stw	r2,0(r21)
 1000c54:	008001c4 	movi	r2,7
 1000c58:	a8c00115 	stw	r3,4(r21)
 1000c5c:	dc800e15 	stw	r18,56(sp)
 1000c60:	dc400d15 	stw	r17,52(sp)
 1000c64:	1441ca16 	blt	r2,r17,1001390 <___vfprintf_internal_r+0xe5c>
 1000c68:	a8c00204 	addi	r3,r21,8
 1000c6c:	d9014917 	ldw	r4,1316(sp)
 1000c70:	00800044 	movi	r2,1
 1000c74:	94800044 	addi	r18,r18,1
 1000c78:	8c400044 	addi	r17,r17,1
 1000c7c:	18800115 	stw	r2,4(r3)
 1000c80:	008001c4 	movi	r2,7
 1000c84:	19000015 	stw	r4,0(r3)
 1000c88:	dc800e15 	stw	r18,56(sp)
 1000c8c:	dc400d15 	stw	r17,52(sp)
 1000c90:	1441b616 	blt	r2,r17,100136c <___vfprintf_internal_r+0xe38>
 1000c94:	1cc00204 	addi	r19,r3,8
 1000c98:	d9014217 	ldw	r4,1288(sp)
 1000c9c:	d9414317 	ldw	r5,1292(sp)
 1000ca0:	000d883a 	mov	r6,zero
 1000ca4:	000f883a 	mov	r7,zero
 1000ca8:	100905c0 	call	100905c <__nedf2>
 1000cac:	10017426 	beq	r2,zero,1001280 <___vfprintf_internal_r+0xd4c>
 1000cb0:	d9414717 	ldw	r5,1308(sp)
 1000cb4:	d9814117 	ldw	r6,1284(sp)
 1000cb8:	8c400044 	addi	r17,r17,1
 1000cbc:	2c85883a 	add	r2,r5,r18
 1000cc0:	14bfffc4 	addi	r18,r2,-1
 1000cc4:	28bfffc4 	addi	r2,r5,-1
 1000cc8:	30c00044 	addi	r3,r6,1
 1000ccc:	98800115 	stw	r2,4(r19)
 1000cd0:	008001c4 	movi	r2,7
 1000cd4:	98c00015 	stw	r3,0(r19)
 1000cd8:	dc800e15 	stw	r18,56(sp)
 1000cdc:	dc400d15 	stw	r17,52(sp)
 1000ce0:	14418e16 	blt	r2,r17,100131c <___vfprintf_internal_r+0xde8>
 1000ce4:	9cc00204 	addi	r19,r19,8
 1000ce8:	d9414817 	ldw	r5,1312(sp)
 1000cec:	d8800804 	addi	r2,sp,32
 1000cf0:	8c400044 	addi	r17,r17,1
 1000cf4:	9165883a 	add	r18,r18,r5
 1000cf8:	98800015 	stw	r2,0(r19)
 1000cfc:	008001c4 	movi	r2,7
 1000d00:	99400115 	stw	r5,4(r19)
 1000d04:	dc800e15 	stw	r18,56(sp)
 1000d08:	dc400d15 	stw	r17,52(sp)
 1000d0c:	1440ed16 	blt	r2,r17,10010c4 <___vfprintf_internal_r+0xb90>
 1000d10:	98c00204 	addi	r3,r19,8
 1000d14:	003f8506 	br	1000b2c <___vfprintf_internal_r+0x5f8>
 1000d18:	d9814a17 	ldw	r6,1320(sp)
 1000d1c:	d8814517 	ldw	r2,1300(sp)
 1000d20:	30a1c83a 	sub	r16,r6,r2
 1000d24:	043f4b0e 	bge	zero,r16,1000a54 <___vfprintf_internal_r+0x520>
 1000d28:	00800404 	movi	r2,16
 1000d2c:	14043a0e 	bge	r2,r16,1001e18 <___vfprintf_internal_r+0x18e4>
 1000d30:	1027883a 	mov	r19,r2
 1000d34:	07004074 	movhi	fp,257
 1000d38:	e7352684 	addi	fp,fp,-11110
 1000d3c:	050001c4 	movi	r20,7
 1000d40:	00000306 	br	1000d50 <___vfprintf_internal_r+0x81c>
 1000d44:	843ffc04 	addi	r16,r16,-16
 1000d48:	ad400204 	addi	r21,r21,8
 1000d4c:	9c00130e 	bge	r19,r16,1000d9c <___vfprintf_internal_r+0x868>
 1000d50:	94800404 	addi	r18,r18,16
 1000d54:	8c400044 	addi	r17,r17,1
 1000d58:	af000015 	stw	fp,0(r21)
 1000d5c:	acc00115 	stw	r19,4(r21)
 1000d60:	dc800e15 	stw	r18,56(sp)
 1000d64:	dc400d15 	stw	r17,52(sp)
 1000d68:	a47ff60e 	bge	r20,r17,1000d44 <___vfprintf_internal_r+0x810>
 1000d6c:	d9014f17 	ldw	r4,1340(sp)
 1000d70:	b00b883a 	mov	r5,r22
 1000d74:	d9800c04 	addi	r6,sp,48
 1000d78:	d9c15115 	stw	r7,1348(sp)
 1000d7c:	10004dc0 	call	10004dc <__sprint_r>
 1000d80:	d9c15117 	ldw	r7,1348(sp)
 1000d84:	103fa31e 	bne	r2,zero,1000c14 <___vfprintf_internal_r+0x6e0>
 1000d88:	843ffc04 	addi	r16,r16,-16
 1000d8c:	dc800e17 	ldw	r18,56(sp)
 1000d90:	dc400d17 	ldw	r17,52(sp)
 1000d94:	dd401904 	addi	r21,sp,100
 1000d98:	9c3fed16 	blt	r19,r16,1000d50 <___vfprintf_internal_r+0x81c>
 1000d9c:	9425883a 	add	r18,r18,r16
 1000da0:	8c400044 	addi	r17,r17,1
 1000da4:	008001c4 	movi	r2,7
 1000da8:	af000015 	stw	fp,0(r21)
 1000dac:	ac000115 	stw	r16,4(r21)
 1000db0:	dc800e15 	stw	r18,56(sp)
 1000db4:	dc400d15 	stw	r17,52(sp)
 1000db8:	14416116 	blt	r2,r17,1001340 <___vfprintf_internal_r+0xe0c>
 1000dbc:	ad400204 	addi	r21,r21,8
 1000dc0:	003f2406 	br	1000a54 <___vfprintf_internal_r+0x520>
 1000dc4:	d9014f17 	ldw	r4,1340(sp)
 1000dc8:	1003fe80 	call	1003fe8 <__sinit>
 1000dcc:	d9c15117 	ldw	r7,1348(sp)
 1000dd0:	003def06 	br	1000590 <___vfprintf_internal_r+0x5c>
 1000dd4:	d9014f17 	ldw	r4,1340(sp)
 1000dd8:	b00b883a 	mov	r5,r22
 1000ddc:	d9c15115 	stw	r7,1348(sp)
 1000de0:	100241c0 	call	100241c <__swsetup_r>
 1000de4:	d9c15117 	ldw	r7,1348(sp)
 1000de8:	103dee26 	beq	r2,zero,10005a4 <___vfprintf_internal_r+0x70>
 1000dec:	003f8c06 	br	1000c20 <___vfprintf_internal_r+0x6ec>
 1000df0:	d9014217 	ldw	r4,1288(sp)
 1000df4:	d9414317 	ldw	r5,1292(sp)
 1000df8:	000d883a 	mov	r6,zero
 1000dfc:	000f883a 	mov	r7,zero
 1000e00:	1008fd40 	call	1008fd4 <__eqdf2>
 1000e04:	1000f21e 	bne	r2,zero,10011d0 <___vfprintf_internal_r+0xc9c>
 1000e08:	00804074 	movhi	r2,257
 1000e0c:	10b52604 	addi	r2,r2,-11112
 1000e10:	94800044 	addi	r18,r18,1
 1000e14:	8c400044 	addi	r17,r17,1
 1000e18:	a8800015 	stw	r2,0(r21)
 1000e1c:	00c00044 	movi	r3,1
 1000e20:	008001c4 	movi	r2,7
 1000e24:	a8c00115 	stw	r3,4(r21)
 1000e28:	dc800e15 	stw	r18,56(sp)
 1000e2c:	dc400d15 	stw	r17,52(sp)
 1000e30:	14430016 	blt	r2,r17,1001a34 <___vfprintf_internal_r+0x1500>
 1000e34:	a8c00204 	addi	r3,r21,8
 1000e38:	d8800517 	ldw	r2,20(sp)
 1000e3c:	d9014717 	ldw	r4,1308(sp)
 1000e40:	11015c0e 	bge	r2,r4,10013b4 <___vfprintf_internal_r+0xe80>
 1000e44:	dc400d17 	ldw	r17,52(sp)
 1000e48:	d9814917 	ldw	r6,1316(sp)
 1000e4c:	00800044 	movi	r2,1
 1000e50:	94800044 	addi	r18,r18,1
 1000e54:	8c400044 	addi	r17,r17,1
 1000e58:	18800115 	stw	r2,4(r3)
 1000e5c:	008001c4 	movi	r2,7
 1000e60:	19800015 	stw	r6,0(r3)
 1000e64:	dc800e15 	stw	r18,56(sp)
 1000e68:	dc400d15 	stw	r17,52(sp)
 1000e6c:	14431616 	blt	r2,r17,1001ac8 <___vfprintf_internal_r+0x1594>
 1000e70:	18c00204 	addi	r3,r3,8
 1000e74:	d8814717 	ldw	r2,1308(sp)
 1000e78:	143fffc4 	addi	r16,r2,-1
 1000e7c:	043f2b0e 	bge	zero,r16,1000b2c <___vfprintf_internal_r+0x5f8>
 1000e80:	00800404 	movi	r2,16
 1000e84:	1402a80e 	bge	r2,r16,1001928 <___vfprintf_internal_r+0x13f4>
 1000e88:	dc400d17 	ldw	r17,52(sp)
 1000e8c:	1027883a 	mov	r19,r2
 1000e90:	07004074 	movhi	fp,257
 1000e94:	e7352684 	addi	fp,fp,-11110
 1000e98:	050001c4 	movi	r20,7
 1000e9c:	00000306 	br	1000eac <___vfprintf_internal_r+0x978>
 1000ea0:	18c00204 	addi	r3,r3,8
 1000ea4:	843ffc04 	addi	r16,r16,-16
 1000ea8:	9c02a20e 	bge	r19,r16,1001934 <___vfprintf_internal_r+0x1400>
 1000eac:	94800404 	addi	r18,r18,16
 1000eb0:	8c400044 	addi	r17,r17,1
 1000eb4:	1f000015 	stw	fp,0(r3)
 1000eb8:	1cc00115 	stw	r19,4(r3)
 1000ebc:	dc800e15 	stw	r18,56(sp)
 1000ec0:	dc400d15 	stw	r17,52(sp)
 1000ec4:	a47ff60e 	bge	r20,r17,1000ea0 <___vfprintf_internal_r+0x96c>
 1000ec8:	d9014f17 	ldw	r4,1340(sp)
 1000ecc:	b00b883a 	mov	r5,r22
 1000ed0:	d9800c04 	addi	r6,sp,48
 1000ed4:	10004dc0 	call	10004dc <__sprint_r>
 1000ed8:	103f4e1e 	bne	r2,zero,1000c14 <___vfprintf_internal_r+0x6e0>
 1000edc:	dc800e17 	ldw	r18,56(sp)
 1000ee0:	dc400d17 	ldw	r17,52(sp)
 1000ee4:	d8c01904 	addi	r3,sp,100
 1000ee8:	003fee06 	br	1000ea4 <___vfprintf_internal_r+0x970>
 1000eec:	d8802c0b 	ldhu	r2,176(sp)
 1000ef0:	00ffffc4 	movi	r3,-1
 1000ef4:	d8c14b15 	stw	r3,1324(sp)
 1000ef8:	1080100c 	andi	r2,r2,64
 1000efc:	103dcc1e 	bne	r2,zero,1000630 <___vfprintf_internal_r+0xfc>
 1000f00:	003dce06 	br	100063c <___vfprintf_internal_r+0x108>
 1000f04:	d9014f17 	ldw	r4,1340(sp)
 1000f08:	b00b883a 	mov	r5,r22
 1000f0c:	d9800c04 	addi	r6,sp,48
 1000f10:	10004dc0 	call	10004dc <__sprint_r>
 1000f14:	103f3f1e 	bne	r2,zero,1000c14 <___vfprintf_internal_r+0x6e0>
 1000f18:	dc800e17 	ldw	r18,56(sp)
 1000f1c:	003f2e06 	br	1000bd8 <___vfprintf_internal_r+0x6a4>
 1000f20:	d9414c17 	ldw	r5,1328(sp)
 1000f24:	29400414 	ori	r5,r5,16
 1000f28:	d9414c15 	stw	r5,1328(sp)
 1000f2c:	d9814c17 	ldw	r6,1328(sp)
 1000f30:	3080080c 	andi	r2,r6,32
 1000f34:	10014f1e 	bne	r2,zero,1001474 <___vfprintf_internal_r+0xf40>
 1000f38:	d8c14c17 	ldw	r3,1328(sp)
 1000f3c:	1880040c 	andi	r2,r3,16
 1000f40:	1002f01e 	bne	r2,zero,1001b04 <___vfprintf_internal_r+0x15d0>
 1000f44:	d9014c17 	ldw	r4,1328(sp)
 1000f48:	2080100c 	andi	r2,r4,64
 1000f4c:	1002ed26 	beq	r2,zero,1001b04 <___vfprintf_internal_r+0x15d0>
 1000f50:	3880000f 	ldh	r2,0(r7)
 1000f54:	39c00104 	addi	r7,r7,4
 1000f58:	d9c14015 	stw	r7,1280(sp)
 1000f5c:	1023d7fa 	srai	r17,r2,31
 1000f60:	1021883a 	mov	r16,r2
 1000f64:	88037816 	blt	r17,zero,1001d48 <___vfprintf_internal_r+0x1814>
 1000f68:	01000044 	movi	r4,1
 1000f6c:	98000416 	blt	r19,zero,1000f80 <___vfprintf_internal_r+0xa4c>
 1000f70:	d8c14c17 	ldw	r3,1328(sp)
 1000f74:	00bfdfc4 	movi	r2,-129
 1000f78:	1886703a 	and	r3,r3,r2
 1000f7c:	d8c14c15 	stw	r3,1328(sp)
 1000f80:	8444b03a 	or	r2,r16,r17
 1000f84:	10022c1e 	bne	r2,zero,1001838 <___vfprintf_internal_r+0x1304>
 1000f88:	98022b1e 	bne	r19,zero,1001838 <___vfprintf_internal_r+0x1304>
 1000f8c:	20803fcc 	andi	r2,r4,255
 1000f90:	1002a126 	beq	r2,zero,1001a18 <___vfprintf_internal_r+0x14e4>
 1000f94:	d8c01904 	addi	r3,sp,100
 1000f98:	dd000f04 	addi	r20,sp,60
 1000f9c:	d8c14115 	stw	r3,1284(sp)
 1000fa0:	d8c14117 	ldw	r3,1284(sp)
 1000fa4:	dcc14515 	stw	r19,1300(sp)
 1000fa8:	a0c5c83a 	sub	r2,r20,r3
 1000fac:	11c00a04 	addi	r7,r2,40
 1000fb0:	99c0010e 	bge	r19,r7,1000fb8 <___vfprintf_internal_r+0xa84>
 1000fb4:	d9c14515 	stw	r7,1300(sp)
 1000fb8:	dcc14615 	stw	r19,1304(sp)
 1000fbc:	d8800407 	ldb	r2,16(sp)
 1000fc0:	103e4c26 	beq	r2,zero,10008f4 <___vfprintf_internal_r+0x3c0>
 1000fc4:	d8814517 	ldw	r2,1300(sp)
 1000fc8:	10800044 	addi	r2,r2,1
 1000fcc:	d8814515 	stw	r2,1300(sp)
 1000fd0:	003e4806 	br	10008f4 <___vfprintf_internal_r+0x3c0>
 1000fd4:	d9814c17 	ldw	r6,1328(sp)
 1000fd8:	31800414 	ori	r6,r6,16
 1000fdc:	d9814c15 	stw	r6,1328(sp)
 1000fe0:	d8c14c17 	ldw	r3,1328(sp)
 1000fe4:	1880080c 	andi	r2,r3,32
 1000fe8:	1001271e 	bne	r2,zero,1001488 <___vfprintf_internal_r+0xf54>
 1000fec:	d9414c17 	ldw	r5,1328(sp)
 1000ff0:	2880040c 	andi	r2,r5,16
 1000ff4:	1002bc1e 	bne	r2,zero,1001ae8 <___vfprintf_internal_r+0x15b4>
 1000ff8:	d9814c17 	ldw	r6,1328(sp)
 1000ffc:	3080100c 	andi	r2,r6,64
 1001000:	1002b926 	beq	r2,zero,1001ae8 <___vfprintf_internal_r+0x15b4>
 1001004:	3c00000b 	ldhu	r16,0(r7)
 1001008:	0009883a 	mov	r4,zero
 100100c:	39c00104 	addi	r7,r7,4
 1001010:	0023883a 	mov	r17,zero
 1001014:	d9c14015 	stw	r7,1280(sp)
 1001018:	d8000405 	stb	zero,16(sp)
 100101c:	003fd306 	br	1000f6c <___vfprintf_internal_r+0xa38>
 1001020:	d9014c17 	ldw	r4,1328(sp)
 1001024:	21000414 	ori	r4,r4,16
 1001028:	d9014c15 	stw	r4,1328(sp)
 100102c:	d9414c17 	ldw	r5,1328(sp)
 1001030:	2880080c 	andi	r2,r5,32
 1001034:	1001081e 	bne	r2,zero,1001458 <___vfprintf_internal_r+0xf24>
 1001038:	d8c14c17 	ldw	r3,1328(sp)
 100103c:	1880040c 	andi	r2,r3,16
 1001040:	1002b61e 	bne	r2,zero,1001b1c <___vfprintf_internal_r+0x15e8>
 1001044:	d9014c17 	ldw	r4,1328(sp)
 1001048:	2080100c 	andi	r2,r4,64
 100104c:	1002b326 	beq	r2,zero,1001b1c <___vfprintf_internal_r+0x15e8>
 1001050:	3c00000b 	ldhu	r16,0(r7)
 1001054:	01000044 	movi	r4,1
 1001058:	39c00104 	addi	r7,r7,4
 100105c:	0023883a 	mov	r17,zero
 1001060:	d9c14015 	stw	r7,1280(sp)
 1001064:	d8000405 	stb	zero,16(sp)
 1001068:	003fc006 	br	1000f6c <___vfprintf_internal_r+0xa38>
 100106c:	d9014f17 	ldw	r4,1340(sp)
 1001070:	b00b883a 	mov	r5,r22
 1001074:	d9800c04 	addi	r6,sp,48
 1001078:	10004dc0 	call	10004dc <__sprint_r>
 100107c:	103ee51e 	bne	r2,zero,1000c14 <___vfprintf_internal_r+0x6e0>
 1001080:	dc800e17 	ldw	r18,56(sp)
 1001084:	d8c01904 	addi	r3,sp,100
 1001088:	d9814c17 	ldw	r6,1328(sp)
 100108c:	3080004c 	andi	r2,r6,1
 1001090:	1005003a 	cmpeq	r2,r2,zero
 1001094:	103ea51e 	bne	r2,zero,1000b2c <___vfprintf_internal_r+0x5f8>
 1001098:	00800044 	movi	r2,1
 100109c:	dc400d17 	ldw	r17,52(sp)
 10010a0:	18800115 	stw	r2,4(r3)
 10010a4:	d8814917 	ldw	r2,1316(sp)
 10010a8:	94800044 	addi	r18,r18,1
 10010ac:	8c400044 	addi	r17,r17,1
 10010b0:	18800015 	stw	r2,0(r3)
 10010b4:	008001c4 	movi	r2,7
 10010b8:	dc800e15 	stw	r18,56(sp)
 10010bc:	dc400d15 	stw	r17,52(sp)
 10010c0:	1442240e 	bge	r2,r17,1001954 <___vfprintf_internal_r+0x1420>
 10010c4:	d9014f17 	ldw	r4,1340(sp)
 10010c8:	b00b883a 	mov	r5,r22
 10010cc:	d9800c04 	addi	r6,sp,48
 10010d0:	10004dc0 	call	10004dc <__sprint_r>
 10010d4:	103ecf1e 	bne	r2,zero,1000c14 <___vfprintf_internal_r+0x6e0>
 10010d8:	dc800e17 	ldw	r18,56(sp)
 10010dc:	d8c01904 	addi	r3,sp,100
 10010e0:	003e9206 	br	1000b2c <___vfprintf_internal_r+0x5f8>
 10010e4:	d9014f17 	ldw	r4,1340(sp)
 10010e8:	b00b883a 	mov	r5,r22
 10010ec:	d9800c04 	addi	r6,sp,48
 10010f0:	10004dc0 	call	10004dc <__sprint_r>
 10010f4:	103ec026 	beq	r2,zero,1000bf8 <___vfprintf_internal_r+0x6c4>
 10010f8:	003ec606 	br	1000c14 <___vfprintf_internal_r+0x6e0>
 10010fc:	d9014f17 	ldw	r4,1340(sp)
 1001100:	b00b883a 	mov	r5,r22
 1001104:	d9800c04 	addi	r6,sp,48
 1001108:	d9c15115 	stw	r7,1348(sp)
 100110c:	10004dc0 	call	10004dc <__sprint_r>
 1001110:	d9c15117 	ldw	r7,1348(sp)
 1001114:	103ebf1e 	bne	r2,zero,1000c14 <___vfprintf_internal_r+0x6e0>
 1001118:	dc800e17 	ldw	r18,56(sp)
 100111c:	dc400d17 	ldw	r17,52(sp)
 1001120:	dd401904 	addi	r21,sp,100
 1001124:	003e7406 	br	1000af8 <___vfprintf_internal_r+0x5c4>
 1001128:	d9014f17 	ldw	r4,1340(sp)
 100112c:	b00b883a 	mov	r5,r22
 1001130:	d9800c04 	addi	r6,sp,48
 1001134:	d9c15115 	stw	r7,1348(sp)
 1001138:	10004dc0 	call	10004dc <__sprint_r>
 100113c:	d9c15117 	ldw	r7,1348(sp)
 1001140:	103eb41e 	bne	r2,zero,1000c14 <___vfprintf_internal_r+0x6e0>
 1001144:	dd401904 	addi	r21,sp,100
 1001148:	003d6d06 	br	1000700 <___vfprintf_internal_r+0x1cc>
 100114c:	d9014f17 	ldw	r4,1340(sp)
 1001150:	b00b883a 	mov	r5,r22
 1001154:	d9800c04 	addi	r6,sp,48
 1001158:	d9c15115 	stw	r7,1348(sp)
 100115c:	10004dc0 	call	10004dc <__sprint_r>
 1001160:	d9c15117 	ldw	r7,1348(sp)
 1001164:	103eab1e 	bne	r2,zero,1000c14 <___vfprintf_internal_r+0x6e0>
 1001168:	dc800e17 	ldw	r18,56(sp)
 100116c:	dc400d17 	ldw	r17,52(sp)
 1001170:	dd401904 	addi	r21,sp,100
 1001174:	003e3406 	br	1000a48 <___vfprintf_internal_r+0x514>
 1001178:	d9014f17 	ldw	r4,1340(sp)
 100117c:	b00b883a 	mov	r5,r22
 1001180:	d9800c04 	addi	r6,sp,48
 1001184:	d9c15115 	stw	r7,1348(sp)
 1001188:	10004dc0 	call	10004dc <__sprint_r>
 100118c:	d9c15117 	ldw	r7,1348(sp)
 1001190:	103ea01e 	bne	r2,zero,1000c14 <___vfprintf_internal_r+0x6e0>
 1001194:	dc800e17 	ldw	r18,56(sp)
 1001198:	dc400d17 	ldw	r17,52(sp)
 100119c:	dd401904 	addi	r21,sp,100
 10011a0:	003e1c06 	br	1000a14 <___vfprintf_internal_r+0x4e0>
 10011a4:	d9014f17 	ldw	r4,1340(sp)
 10011a8:	b00b883a 	mov	r5,r22
 10011ac:	d9800c04 	addi	r6,sp,48
 10011b0:	d9c15115 	stw	r7,1348(sp)
 10011b4:	10004dc0 	call	10004dc <__sprint_r>
 10011b8:	d9c15117 	ldw	r7,1348(sp)
 10011bc:	103e951e 	bne	r2,zero,1000c14 <___vfprintf_internal_r+0x6e0>
 10011c0:	dc800e17 	ldw	r18,56(sp)
 10011c4:	dc400d17 	ldw	r17,52(sp)
 10011c8:	dd401904 	addi	r21,sp,100
 10011cc:	003e0406 	br	10009e0 <___vfprintf_internal_r+0x4ac>
 10011d0:	d9000517 	ldw	r4,20(sp)
 10011d4:	0102580e 	bge	zero,r4,1001b38 <___vfprintf_internal_r+0x1604>
 10011d8:	d9814717 	ldw	r6,1308(sp)
 10011dc:	21807a16 	blt	r4,r6,10013c8 <___vfprintf_internal_r+0xe94>
 10011e0:	d8814117 	ldw	r2,1284(sp)
 10011e4:	91a5883a 	add	r18,r18,r6
 10011e8:	8c400044 	addi	r17,r17,1
 10011ec:	a8800015 	stw	r2,0(r21)
 10011f0:	008001c4 	movi	r2,7
 10011f4:	a9800115 	stw	r6,4(r21)
 10011f8:	dc800e15 	stw	r18,56(sp)
 10011fc:	dc400d15 	stw	r17,52(sp)
 1001200:	1442fc16 	blt	r2,r17,1001df4 <___vfprintf_internal_r+0x18c0>
 1001204:	a8c00204 	addi	r3,r21,8
 1001208:	d9414717 	ldw	r5,1308(sp)
 100120c:	2161c83a 	sub	r16,r4,r5
 1001210:	043f9d0e 	bge	zero,r16,1001088 <___vfprintf_internal_r+0xb54>
 1001214:	00800404 	movi	r2,16
 1001218:	1402190e 	bge	r2,r16,1001a80 <___vfprintf_internal_r+0x154c>
 100121c:	dc400d17 	ldw	r17,52(sp)
 1001220:	1027883a 	mov	r19,r2
 1001224:	07004074 	movhi	fp,257
 1001228:	e7352684 	addi	fp,fp,-11110
 100122c:	050001c4 	movi	r20,7
 1001230:	00000306 	br	1001240 <___vfprintf_internal_r+0xd0c>
 1001234:	18c00204 	addi	r3,r3,8
 1001238:	843ffc04 	addi	r16,r16,-16
 100123c:	9c02130e 	bge	r19,r16,1001a8c <___vfprintf_internal_r+0x1558>
 1001240:	94800404 	addi	r18,r18,16
 1001244:	8c400044 	addi	r17,r17,1
 1001248:	1f000015 	stw	fp,0(r3)
 100124c:	1cc00115 	stw	r19,4(r3)
 1001250:	dc800e15 	stw	r18,56(sp)
 1001254:	dc400d15 	stw	r17,52(sp)
 1001258:	a47ff60e 	bge	r20,r17,1001234 <___vfprintf_internal_r+0xd00>
 100125c:	d9014f17 	ldw	r4,1340(sp)
 1001260:	b00b883a 	mov	r5,r22
 1001264:	d9800c04 	addi	r6,sp,48
 1001268:	10004dc0 	call	10004dc <__sprint_r>
 100126c:	103e691e 	bne	r2,zero,1000c14 <___vfprintf_internal_r+0x6e0>
 1001270:	dc800e17 	ldw	r18,56(sp)
 1001274:	dc400d17 	ldw	r17,52(sp)
 1001278:	d8c01904 	addi	r3,sp,100
 100127c:	003fee06 	br	1001238 <___vfprintf_internal_r+0xd04>
 1001280:	d8814717 	ldw	r2,1308(sp)
 1001284:	143fffc4 	addi	r16,r2,-1
 1001288:	043e970e 	bge	zero,r16,1000ce8 <___vfprintf_internal_r+0x7b4>
 100128c:	00800404 	movi	r2,16
 1001290:	1400180e 	bge	r2,r16,10012f4 <___vfprintf_internal_r+0xdc0>
 1001294:	1029883a 	mov	r20,r2
 1001298:	07004074 	movhi	fp,257
 100129c:	e7352684 	addi	fp,fp,-11110
 10012a0:	054001c4 	movi	r21,7
 10012a4:	00000306 	br	10012b4 <___vfprintf_internal_r+0xd80>
 10012a8:	9cc00204 	addi	r19,r19,8
 10012ac:	843ffc04 	addi	r16,r16,-16
 10012b0:	a400120e 	bge	r20,r16,10012fc <___vfprintf_internal_r+0xdc8>
 10012b4:	94800404 	addi	r18,r18,16
 10012b8:	8c400044 	addi	r17,r17,1
 10012bc:	9f000015 	stw	fp,0(r19)
 10012c0:	9d000115 	stw	r20,4(r19)
 10012c4:	dc800e15 	stw	r18,56(sp)
 10012c8:	dc400d15 	stw	r17,52(sp)
 10012cc:	ac7ff60e 	bge	r21,r17,10012a8 <___vfprintf_internal_r+0xd74>
 10012d0:	d9014f17 	ldw	r4,1340(sp)
 10012d4:	b00b883a 	mov	r5,r22
 10012d8:	d9800c04 	addi	r6,sp,48
 10012dc:	10004dc0 	call	10004dc <__sprint_r>
 10012e0:	103e4c1e 	bne	r2,zero,1000c14 <___vfprintf_internal_r+0x6e0>
 10012e4:	dc800e17 	ldw	r18,56(sp)
 10012e8:	dc400d17 	ldw	r17,52(sp)
 10012ec:	dcc01904 	addi	r19,sp,100
 10012f0:	003fee06 	br	10012ac <___vfprintf_internal_r+0xd78>
 10012f4:	07004074 	movhi	fp,257
 10012f8:	e7352684 	addi	fp,fp,-11110
 10012fc:	9425883a 	add	r18,r18,r16
 1001300:	8c400044 	addi	r17,r17,1
 1001304:	008001c4 	movi	r2,7
 1001308:	9f000015 	stw	fp,0(r19)
 100130c:	9c000115 	stw	r16,4(r19)
 1001310:	dc800e15 	stw	r18,56(sp)
 1001314:	dc400d15 	stw	r17,52(sp)
 1001318:	147e720e 	bge	r2,r17,1000ce4 <___vfprintf_internal_r+0x7b0>
 100131c:	d9014f17 	ldw	r4,1340(sp)
 1001320:	b00b883a 	mov	r5,r22
 1001324:	d9800c04 	addi	r6,sp,48
 1001328:	10004dc0 	call	10004dc <__sprint_r>
 100132c:	103e391e 	bne	r2,zero,1000c14 <___vfprintf_internal_r+0x6e0>
 1001330:	dc800e17 	ldw	r18,56(sp)
 1001334:	dc400d17 	ldw	r17,52(sp)
 1001338:	dcc01904 	addi	r19,sp,100
 100133c:	003e6a06 	br	1000ce8 <___vfprintf_internal_r+0x7b4>
 1001340:	d9014f17 	ldw	r4,1340(sp)
 1001344:	b00b883a 	mov	r5,r22
 1001348:	d9800c04 	addi	r6,sp,48
 100134c:	d9c15115 	stw	r7,1348(sp)
 1001350:	10004dc0 	call	10004dc <__sprint_r>
 1001354:	d9c15117 	ldw	r7,1348(sp)
 1001358:	103e2e1e 	bne	r2,zero,1000c14 <___vfprintf_internal_r+0x6e0>
 100135c:	dc800e17 	ldw	r18,56(sp)
 1001360:	dc400d17 	ldw	r17,52(sp)
 1001364:	dd401904 	addi	r21,sp,100
 1001368:	003dba06 	br	1000a54 <___vfprintf_internal_r+0x520>
 100136c:	d9014f17 	ldw	r4,1340(sp)
 1001370:	b00b883a 	mov	r5,r22
 1001374:	d9800c04 	addi	r6,sp,48
 1001378:	10004dc0 	call	10004dc <__sprint_r>
 100137c:	103e251e 	bne	r2,zero,1000c14 <___vfprintf_internal_r+0x6e0>
 1001380:	dc800e17 	ldw	r18,56(sp)
 1001384:	dc400d17 	ldw	r17,52(sp)
 1001388:	dcc01904 	addi	r19,sp,100
 100138c:	003e4206 	br	1000c98 <___vfprintf_internal_r+0x764>
 1001390:	d9014f17 	ldw	r4,1340(sp)
 1001394:	b00b883a 	mov	r5,r22
 1001398:	d9800c04 	addi	r6,sp,48
 100139c:	10004dc0 	call	10004dc <__sprint_r>
 10013a0:	103e1c1e 	bne	r2,zero,1000c14 <___vfprintf_internal_r+0x6e0>
 10013a4:	dc800e17 	ldw	r18,56(sp)
 10013a8:	dc400d17 	ldw	r17,52(sp)
 10013ac:	d8c01904 	addi	r3,sp,100
 10013b0:	003e2e06 	br	1000c6c <___vfprintf_internal_r+0x738>
 10013b4:	d9414c17 	ldw	r5,1328(sp)
 10013b8:	2880004c 	andi	r2,r5,1
 10013bc:	1005003a 	cmpeq	r2,r2,zero
 10013c0:	103dda1e 	bne	r2,zero,1000b2c <___vfprintf_internal_r+0x5f8>
 10013c4:	003e9f06 	br	1000e44 <___vfprintf_internal_r+0x910>
 10013c8:	d8c14117 	ldw	r3,1284(sp)
 10013cc:	9125883a 	add	r18,r18,r4
 10013d0:	8c400044 	addi	r17,r17,1
 10013d4:	008001c4 	movi	r2,7
 10013d8:	a8c00015 	stw	r3,0(r21)
 10013dc:	a9000115 	stw	r4,4(r21)
 10013e0:	dc800e15 	stw	r18,56(sp)
 10013e4:	dc400d15 	stw	r17,52(sp)
 10013e8:	14426c16 	blt	r2,r17,1001d9c <___vfprintf_internal_r+0x1868>
 10013ec:	a8c00204 	addi	r3,r21,8
 10013f0:	d9414917 	ldw	r5,1316(sp)
 10013f4:	00800044 	movi	r2,1
 10013f8:	94800044 	addi	r18,r18,1
 10013fc:	8c400044 	addi	r17,r17,1
 1001400:	18800115 	stw	r2,4(r3)
 1001404:	008001c4 	movi	r2,7
 1001408:	19400015 	stw	r5,0(r3)
 100140c:	dc800e15 	stw	r18,56(sp)
 1001410:	dc400d15 	stw	r17,52(sp)
 1001414:	2021883a 	mov	r16,r4
 1001418:	14425616 	blt	r2,r17,1001d74 <___vfprintf_internal_r+0x1840>
 100141c:	19400204 	addi	r5,r3,8
 1001420:	d9814717 	ldw	r6,1308(sp)
 1001424:	8c400044 	addi	r17,r17,1
 1001428:	dc400d15 	stw	r17,52(sp)
 100142c:	3107c83a 	sub	r3,r6,r4
 1001430:	d9014117 	ldw	r4,1284(sp)
 1001434:	90e5883a 	add	r18,r18,r3
 1001438:	28c00115 	stw	r3,4(r5)
 100143c:	8105883a 	add	r2,r16,r4
 1001440:	28800015 	stw	r2,0(r5)
 1001444:	008001c4 	movi	r2,7
 1001448:	dc800e15 	stw	r18,56(sp)
 100144c:	147f1d16 	blt	r2,r17,10010c4 <___vfprintf_internal_r+0xb90>
 1001450:	28c00204 	addi	r3,r5,8
 1001454:	003db506 	br	1000b2c <___vfprintf_internal_r+0x5f8>
 1001458:	3c000017 	ldw	r16,0(r7)
 100145c:	3c400117 	ldw	r17,4(r7)
 1001460:	39800204 	addi	r6,r7,8
 1001464:	01000044 	movi	r4,1
 1001468:	d9814015 	stw	r6,1280(sp)
 100146c:	d8000405 	stb	zero,16(sp)
 1001470:	003ebe06 	br	1000f6c <___vfprintf_internal_r+0xa38>
 1001474:	3c000017 	ldw	r16,0(r7)
 1001478:	3c400117 	ldw	r17,4(r7)
 100147c:	38800204 	addi	r2,r7,8
 1001480:	d8814015 	stw	r2,1280(sp)
 1001484:	003eb706 	br	1000f64 <___vfprintf_internal_r+0xa30>
 1001488:	3c000017 	ldw	r16,0(r7)
 100148c:	3c400117 	ldw	r17,4(r7)
 1001490:	39000204 	addi	r4,r7,8
 1001494:	d9014015 	stw	r4,1280(sp)
 1001498:	0009883a 	mov	r4,zero
 100149c:	d8000405 	stb	zero,16(sp)
 10014a0:	003eb206 	br	1000f6c <___vfprintf_internal_r+0xa38>
 10014a4:	38c00017 	ldw	r3,0(r7)
 10014a8:	39c00104 	addi	r7,r7,4
 10014ac:	d8c14a15 	stw	r3,1320(sp)
 10014b0:	1800d70e 	bge	r3,zero,1001810 <___vfprintf_internal_r+0x12dc>
 10014b4:	00c7c83a 	sub	r3,zero,r3
 10014b8:	d8c14a15 	stw	r3,1320(sp)
 10014bc:	d9014c17 	ldw	r4,1328(sp)
 10014c0:	b8c00007 	ldb	r3,0(r23)
 10014c4:	21000114 	ori	r4,r4,4
 10014c8:	d9014c15 	stw	r4,1328(sp)
 10014cc:	003c9806 	br	1000730 <___vfprintf_internal_r+0x1fc>
 10014d0:	d9814c17 	ldw	r6,1328(sp)
 10014d4:	3080080c 	andi	r2,r6,32
 10014d8:	1001f626 	beq	r2,zero,1001cb4 <___vfprintf_internal_r+0x1780>
 10014dc:	d9014b17 	ldw	r4,1324(sp)
 10014e0:	38800017 	ldw	r2,0(r7)
 10014e4:	39c00104 	addi	r7,r7,4
 10014e8:	d9c14015 	stw	r7,1280(sp)
 10014ec:	2007d7fa 	srai	r3,r4,31
 10014f0:	d9c14017 	ldw	r7,1280(sp)
 10014f4:	11000015 	stw	r4,0(r2)
 10014f8:	10c00115 	stw	r3,4(r2)
 10014fc:	003c6906 	br	10006a4 <___vfprintf_internal_r+0x170>
 1001500:	b8c00007 	ldb	r3,0(r23)
 1001504:	00801b04 	movi	r2,108
 1001508:	18825526 	beq	r3,r2,1001e60 <___vfprintf_internal_r+0x192c>
 100150c:	d9414c17 	ldw	r5,1328(sp)
 1001510:	29400414 	ori	r5,r5,16
 1001514:	d9414c15 	stw	r5,1328(sp)
 1001518:	003c8506 	br	1000730 <___vfprintf_internal_r+0x1fc>
 100151c:	d9814c17 	ldw	r6,1328(sp)
 1001520:	b8c00007 	ldb	r3,0(r23)
 1001524:	31800814 	ori	r6,r6,32
 1001528:	d9814c15 	stw	r6,1328(sp)
 100152c:	003c8006 	br	1000730 <___vfprintf_internal_r+0x1fc>
 1001530:	d8814c17 	ldw	r2,1328(sp)
 1001534:	3c000017 	ldw	r16,0(r7)
 1001538:	00c01e04 	movi	r3,120
 100153c:	10800094 	ori	r2,r2,2
 1001540:	d8814c15 	stw	r2,1328(sp)
 1001544:	39c00104 	addi	r7,r7,4
 1001548:	01404074 	movhi	r5,257
 100154c:	29750f04 	addi	r5,r5,-11204
 1001550:	00800c04 	movi	r2,48
 1001554:	0023883a 	mov	r17,zero
 1001558:	01000084 	movi	r4,2
 100155c:	d9c14015 	stw	r7,1280(sp)
 1001560:	d8c14d15 	stw	r3,1332(sp)
 1001564:	d9414415 	stw	r5,1296(sp)
 1001568:	d8800445 	stb	r2,17(sp)
 100156c:	d8c00485 	stb	r3,18(sp)
 1001570:	d8000405 	stb	zero,16(sp)
 1001574:	003e7d06 	br	1000f6c <___vfprintf_internal_r+0xa38>
 1001578:	d8814c17 	ldw	r2,1328(sp)
 100157c:	b8c00007 	ldb	r3,0(r23)
 1001580:	10801014 	ori	r2,r2,64
 1001584:	d8814c15 	stw	r2,1328(sp)
 1001588:	003c6906 	br	1000730 <___vfprintf_internal_r+0x1fc>
 100158c:	d9414c17 	ldw	r5,1328(sp)
 1001590:	2880020c 	andi	r2,r5,8
 1001594:	1001e526 	beq	r2,zero,1001d2c <___vfprintf_internal_r+0x17f8>
 1001598:	39800017 	ldw	r6,0(r7)
 100159c:	38800204 	addi	r2,r7,8
 10015a0:	d8814015 	stw	r2,1280(sp)
 10015a4:	d9814215 	stw	r6,1288(sp)
 10015a8:	39c00117 	ldw	r7,4(r7)
 10015ac:	d9c14315 	stw	r7,1292(sp)
 10015b0:	d9014217 	ldw	r4,1288(sp)
 10015b4:	d9414317 	ldw	r5,1292(sp)
 10015b8:	1006fe40 	call	1006fe4 <__isinfd>
 10015bc:	10021d26 	beq	r2,zero,1001e34 <___vfprintf_internal_r+0x1900>
 10015c0:	d9014217 	ldw	r4,1288(sp)
 10015c4:	d9414317 	ldw	r5,1292(sp)
 10015c8:	000d883a 	mov	r6,zero
 10015cc:	000f883a 	mov	r7,zero
 10015d0:	10091f40 	call	10091f4 <__ltdf2>
 10015d4:	1002d016 	blt	r2,zero,1002118 <___vfprintf_internal_r+0x1be4>
 10015d8:	d9414d17 	ldw	r5,1332(sp)
 10015dc:	008011c4 	movi	r2,71
 10015e0:	11421016 	blt	r2,r5,1001e24 <___vfprintf_internal_r+0x18f0>
 10015e4:	01804074 	movhi	r6,257
 10015e8:	31b51404 	addi	r6,r6,-11184
 10015ec:	d9814115 	stw	r6,1284(sp)
 10015f0:	d9014c17 	ldw	r4,1328(sp)
 10015f4:	00c000c4 	movi	r3,3
 10015f8:	00bfdfc4 	movi	r2,-129
 10015fc:	2088703a 	and	r4,r4,r2
 1001600:	180f883a 	mov	r7,r3
 1001604:	d8c14515 	stw	r3,1300(sp)
 1001608:	d9014c15 	stw	r4,1328(sp)
 100160c:	d8014615 	stw	zero,1304(sp)
 1001610:	003e6a06 	br	1000fbc <___vfprintf_internal_r+0xa88>
 1001614:	38800017 	ldw	r2,0(r7)
 1001618:	00c00044 	movi	r3,1
 100161c:	39c00104 	addi	r7,r7,4
 1001620:	d9c14015 	stw	r7,1280(sp)
 1001624:	d9000f04 	addi	r4,sp,60
 1001628:	180f883a 	mov	r7,r3
 100162c:	d8c14515 	stw	r3,1300(sp)
 1001630:	d9014115 	stw	r4,1284(sp)
 1001634:	d8800f05 	stb	r2,60(sp)
 1001638:	d8000405 	stb	zero,16(sp)
 100163c:	003cac06 	br	10008f0 <___vfprintf_internal_r+0x3bc>
 1001640:	01404074 	movhi	r5,257
 1001644:	29751a04 	addi	r5,r5,-11160
 1001648:	d9414415 	stw	r5,1296(sp)
 100164c:	d9814c17 	ldw	r6,1328(sp)
 1001650:	3080080c 	andi	r2,r6,32
 1001654:	1000ff26 	beq	r2,zero,1001a54 <___vfprintf_internal_r+0x1520>
 1001658:	3c000017 	ldw	r16,0(r7)
 100165c:	3c400117 	ldw	r17,4(r7)
 1001660:	38800204 	addi	r2,r7,8
 1001664:	d8814015 	stw	r2,1280(sp)
 1001668:	d9414c17 	ldw	r5,1328(sp)
 100166c:	2880004c 	andi	r2,r5,1
 1001670:	1005003a 	cmpeq	r2,r2,zero
 1001674:	1000b91e 	bne	r2,zero,100195c <___vfprintf_internal_r+0x1428>
 1001678:	8444b03a 	or	r2,r16,r17
 100167c:	1000b726 	beq	r2,zero,100195c <___vfprintf_internal_r+0x1428>
 1001680:	d9814d17 	ldw	r6,1332(sp)
 1001684:	29400094 	ori	r5,r5,2
 1001688:	00800c04 	movi	r2,48
 100168c:	01000084 	movi	r4,2
 1001690:	d9414c15 	stw	r5,1328(sp)
 1001694:	d8800445 	stb	r2,17(sp)
 1001698:	d9800485 	stb	r6,18(sp)
 100169c:	d8000405 	stb	zero,16(sp)
 10016a0:	003e3206 	br	1000f6c <___vfprintf_internal_r+0xa38>
 10016a4:	01804074 	movhi	r6,257
 10016a8:	31b50f04 	addi	r6,r6,-11204
 10016ac:	d9814415 	stw	r6,1296(sp)
 10016b0:	003fe606 	br	100164c <___vfprintf_internal_r+0x1118>
 10016b4:	00800ac4 	movi	r2,43
 10016b8:	d8800405 	stb	r2,16(sp)
 10016bc:	b8c00007 	ldb	r3,0(r23)
 10016c0:	003c1b06 	br	1000730 <___vfprintf_internal_r+0x1fc>
 10016c4:	d8814c17 	ldw	r2,1328(sp)
 10016c8:	b8c00007 	ldb	r3,0(r23)
 10016cc:	10800054 	ori	r2,r2,1
 10016d0:	d8814c15 	stw	r2,1328(sp)
 10016d4:	003c1606 	br	1000730 <___vfprintf_internal_r+0x1fc>
 10016d8:	d8800407 	ldb	r2,16(sp)
 10016dc:	10004c1e 	bne	r2,zero,1001810 <___vfprintf_internal_r+0x12dc>
 10016e0:	00800804 	movi	r2,32
 10016e4:	d8800405 	stb	r2,16(sp)
 10016e8:	b8c00007 	ldb	r3,0(r23)
 10016ec:	003c1006 	br	1000730 <___vfprintf_internal_r+0x1fc>
 10016f0:	d9814c17 	ldw	r6,1328(sp)
 10016f4:	b8c00007 	ldb	r3,0(r23)
 10016f8:	31800214 	ori	r6,r6,8
 10016fc:	d9814c15 	stw	r6,1328(sp)
 1001700:	003c0b06 	br	1000730 <___vfprintf_internal_r+0x1fc>
 1001704:	0009883a 	mov	r4,zero
 1001708:	04000244 	movi	r16,9
 100170c:	01400284 	movi	r5,10
 1001710:	d9c15115 	stw	r7,1348(sp)
 1001714:	100972c0 	call	100972c <__mulsi3>
 1001718:	b9000007 	ldb	r4,0(r23)
 100171c:	d8c14d17 	ldw	r3,1332(sp)
 1001720:	bdc00044 	addi	r23,r23,1
 1001724:	d9014d15 	stw	r4,1332(sp)
 1001728:	d9414d17 	ldw	r5,1332(sp)
 100172c:	1885883a 	add	r2,r3,r2
 1001730:	113ff404 	addi	r4,r2,-48
 1001734:	28bff404 	addi	r2,r5,-48
 1001738:	d9c15117 	ldw	r7,1348(sp)
 100173c:	80bff32e 	bgeu	r16,r2,100170c <___vfprintf_internal_r+0x11d8>
 1001740:	d9014a15 	stw	r4,1320(sp)
 1001744:	003bfc06 	br	1000738 <___vfprintf_internal_r+0x204>
 1001748:	d8814c17 	ldw	r2,1328(sp)
 100174c:	b8c00007 	ldb	r3,0(r23)
 1001750:	10802014 	ori	r2,r2,128
 1001754:	d8814c15 	stw	r2,1328(sp)
 1001758:	003bf506 	br	1000730 <___vfprintf_internal_r+0x1fc>
 100175c:	b8c00007 	ldb	r3,0(r23)
 1001760:	00800a84 	movi	r2,42
 1001764:	bdc00044 	addi	r23,r23,1
 1001768:	18831826 	beq	r3,r2,10023cc <___vfprintf_internal_r+0x1e98>
 100176c:	d8c14d15 	stw	r3,1332(sp)
 1001770:	18bff404 	addi	r2,r3,-48
 1001774:	00c00244 	movi	r3,9
 1001778:	18827b36 	bltu	r3,r2,1002168 <___vfprintf_internal_r+0x1c34>
 100177c:	1821883a 	mov	r16,r3
 1001780:	0009883a 	mov	r4,zero
 1001784:	01400284 	movi	r5,10
 1001788:	d9c15115 	stw	r7,1348(sp)
 100178c:	100972c0 	call	100972c <__mulsi3>
 1001790:	d9414d17 	ldw	r5,1332(sp)
 1001794:	b9800007 	ldb	r6,0(r23)
 1001798:	d9c15117 	ldw	r7,1348(sp)
 100179c:	1145883a 	add	r2,r2,r5
 10017a0:	113ff404 	addi	r4,r2,-48
 10017a4:	30bff404 	addi	r2,r6,-48
 10017a8:	d9814d15 	stw	r6,1332(sp)
 10017ac:	bdc00044 	addi	r23,r23,1
 10017b0:	80bff42e 	bgeu	r16,r2,1001784 <___vfprintf_internal_r+0x1250>
 10017b4:	2027883a 	mov	r19,r4
 10017b8:	203bdf0e 	bge	r4,zero,1000738 <___vfprintf_internal_r+0x204>
 10017bc:	04ffffc4 	movi	r19,-1
 10017c0:	003bdd06 	br	1000738 <___vfprintf_internal_r+0x204>
 10017c4:	d8000405 	stb	zero,16(sp)
 10017c8:	39800017 	ldw	r6,0(r7)
 10017cc:	39c00104 	addi	r7,r7,4
 10017d0:	d9c14015 	stw	r7,1280(sp)
 10017d4:	d9814115 	stw	r6,1284(sp)
 10017d8:	3001c926 	beq	r6,zero,1001f00 <___vfprintf_internal_r+0x19cc>
 10017dc:	98000e16 	blt	r19,zero,1001818 <___vfprintf_internal_r+0x12e4>
 10017e0:	d9014117 	ldw	r4,1284(sp)
 10017e4:	000b883a 	mov	r5,zero
 10017e8:	980d883a 	mov	r6,r19
 10017ec:	10056680 	call	1005668 <memchr>
 10017f0:	10025926 	beq	r2,zero,1002158 <___vfprintf_internal_r+0x1c24>
 10017f4:	d8c14117 	ldw	r3,1284(sp)
 10017f8:	10cfc83a 	sub	r7,r2,r3
 10017fc:	99c19e16 	blt	r19,r7,1001e78 <___vfprintf_internal_r+0x1944>
 1001800:	d9c14515 	stw	r7,1300(sp)
 1001804:	38000916 	blt	r7,zero,100182c <___vfprintf_internal_r+0x12f8>
 1001808:	d8014615 	stw	zero,1304(sp)
 100180c:	003deb06 	br	1000fbc <___vfprintf_internal_r+0xa88>
 1001810:	b8c00007 	ldb	r3,0(r23)
 1001814:	003bc606 	br	1000730 <___vfprintf_internal_r+0x1fc>
 1001818:	d9014117 	ldw	r4,1284(sp)
 100181c:	10072cc0 	call	10072cc <strlen>
 1001820:	d8814515 	stw	r2,1300(sp)
 1001824:	100f883a 	mov	r7,r2
 1001828:	103ff70e 	bge	r2,zero,1001808 <___vfprintf_internal_r+0x12d4>
 100182c:	d8014515 	stw	zero,1300(sp)
 1001830:	d8014615 	stw	zero,1304(sp)
 1001834:	003de106 	br	1000fbc <___vfprintf_internal_r+0xa88>
 1001838:	20c03fcc 	andi	r3,r4,255
 100183c:	00800044 	movi	r2,1
 1001840:	18802d26 	beq	r3,r2,10018f8 <___vfprintf_internal_r+0x13c4>
 1001844:	18800e36 	bltu	r3,r2,1001880 <___vfprintf_internal_r+0x134c>
 1001848:	00800084 	movi	r2,2
 100184c:	1880fa26 	beq	r3,r2,1001c38 <___vfprintf_internal_r+0x1704>
 1001850:	01004074 	movhi	r4,257
 1001854:	21351f04 	addi	r4,r4,-11140
 1001858:	10072cc0 	call	10072cc <strlen>
 100185c:	100f883a 	mov	r7,r2
 1001860:	dcc14515 	stw	r19,1300(sp)
 1001864:	9880010e 	bge	r19,r2,100186c <___vfprintf_internal_r+0x1338>
 1001868:	d8814515 	stw	r2,1300(sp)
 100186c:	00804074 	movhi	r2,257
 1001870:	10b51f04 	addi	r2,r2,-11140
 1001874:	dcc14615 	stw	r19,1304(sp)
 1001878:	d8814115 	stw	r2,1284(sp)
 100187c:	003dcf06 	br	1000fbc <___vfprintf_internal_r+0xa88>
 1001880:	d9401904 	addi	r5,sp,100
 1001884:	dd000f04 	addi	r20,sp,60
 1001888:	d9414115 	stw	r5,1284(sp)
 100188c:	880a977a 	slli	r5,r17,29
 1001890:	d9814117 	ldw	r6,1284(sp)
 1001894:	8004d0fa 	srli	r2,r16,3
 1001898:	8806d0fa 	srli	r3,r17,3
 100189c:	810001cc 	andi	r4,r16,7
 10018a0:	2884b03a 	or	r2,r5,r2
 10018a4:	31bfffc4 	addi	r6,r6,-1
 10018a8:	21000c04 	addi	r4,r4,48
 10018ac:	d9814115 	stw	r6,1284(sp)
 10018b0:	10cab03a 	or	r5,r2,r3
 10018b4:	31000005 	stb	r4,0(r6)
 10018b8:	1021883a 	mov	r16,r2
 10018bc:	1823883a 	mov	r17,r3
 10018c0:	283ff21e 	bne	r5,zero,100188c <___vfprintf_internal_r+0x1358>
 10018c4:	d8c14c17 	ldw	r3,1328(sp)
 10018c8:	1880004c 	andi	r2,r3,1
 10018cc:	1005003a 	cmpeq	r2,r2,zero
 10018d0:	103db31e 	bne	r2,zero,1000fa0 <___vfprintf_internal_r+0xa6c>
 10018d4:	20803fcc 	andi	r2,r4,255
 10018d8:	1080201c 	xori	r2,r2,128
 10018dc:	10bfe004 	addi	r2,r2,-128
 10018e0:	00c00c04 	movi	r3,48
 10018e4:	10fdae26 	beq	r2,r3,1000fa0 <___vfprintf_internal_r+0xa6c>
 10018e8:	31bfffc4 	addi	r6,r6,-1
 10018ec:	d9814115 	stw	r6,1284(sp)
 10018f0:	30c00005 	stb	r3,0(r6)
 10018f4:	003daa06 	br	1000fa0 <___vfprintf_internal_r+0xa6c>
 10018f8:	88800068 	cmpgeui	r2,r17,1
 10018fc:	10002c1e 	bne	r2,zero,10019b0 <___vfprintf_internal_r+0x147c>
 1001900:	8800021e 	bne	r17,zero,100190c <___vfprintf_internal_r+0x13d8>
 1001904:	00800244 	movi	r2,9
 1001908:	14002936 	bltu	r2,r16,10019b0 <___vfprintf_internal_r+0x147c>
 100190c:	d90018c4 	addi	r4,sp,99
 1001910:	dd000f04 	addi	r20,sp,60
 1001914:	d9014115 	stw	r4,1284(sp)
 1001918:	d9014117 	ldw	r4,1284(sp)
 100191c:	80800c04 	addi	r2,r16,48
 1001920:	20800005 	stb	r2,0(r4)
 1001924:	003d9e06 	br	1000fa0 <___vfprintf_internal_r+0xa6c>
 1001928:	dc400d17 	ldw	r17,52(sp)
 100192c:	07004074 	movhi	fp,257
 1001930:	e7352684 	addi	fp,fp,-11110
 1001934:	9425883a 	add	r18,r18,r16
 1001938:	8c400044 	addi	r17,r17,1
 100193c:	008001c4 	movi	r2,7
 1001940:	1f000015 	stw	fp,0(r3)
 1001944:	1c000115 	stw	r16,4(r3)
 1001948:	dc800e15 	stw	r18,56(sp)
 100194c:	dc400d15 	stw	r17,52(sp)
 1001950:	147ddc16 	blt	r2,r17,10010c4 <___vfprintf_internal_r+0xb90>
 1001954:	18c00204 	addi	r3,r3,8
 1001958:	003c7406 	br	1000b2c <___vfprintf_internal_r+0x5f8>
 100195c:	01000084 	movi	r4,2
 1001960:	d8000405 	stb	zero,16(sp)
 1001964:	003d8106 	br	1000f6c <___vfprintf_internal_r+0xa38>
 1001968:	d9814c17 	ldw	r6,1328(sp)
 100196c:	30c4703a 	and	r2,r6,r3
 1001970:	1005003a 	cmpeq	r2,r2,zero
 1001974:	103cb326 	beq	r2,zero,1000c44 <___vfprintf_internal_r+0x710>
 1001978:	d9014117 	ldw	r4,1284(sp)
 100197c:	94800044 	addi	r18,r18,1
 1001980:	8c400044 	addi	r17,r17,1
 1001984:	008001c4 	movi	r2,7
 1001988:	a9000015 	stw	r4,0(r21)
 100198c:	a8c00115 	stw	r3,4(r21)
 1001990:	dc800e15 	stw	r18,56(sp)
 1001994:	dc400d15 	stw	r17,52(sp)
 1001998:	147e6016 	blt	r2,r17,100131c <___vfprintf_internal_r+0xde8>
 100199c:	acc00204 	addi	r19,r21,8
 10019a0:	003cd106 	br	1000ce8 <___vfprintf_internal_r+0x7b4>
 10019a4:	07004074 	movhi	fp,257
 10019a8:	e7352684 	addi	fp,fp,-11110
 10019ac:	003c4906 	br	1000ad4 <___vfprintf_internal_r+0x5a0>
 10019b0:	dd000f04 	addi	r20,sp,60
 10019b4:	dc801904 	addi	r18,sp,100
 10019b8:	8009883a 	mov	r4,r16
 10019bc:	880b883a 	mov	r5,r17
 10019c0:	01800284 	movi	r6,10
 10019c4:	000f883a 	mov	r7,zero
 10019c8:	1007e540 	call	1007e54 <__umoddi3>
 10019cc:	12000c04 	addi	r8,r2,48
 10019d0:	94bfffc4 	addi	r18,r18,-1
 10019d4:	8009883a 	mov	r4,r16
 10019d8:	880b883a 	mov	r5,r17
 10019dc:	01800284 	movi	r6,10
 10019e0:	000f883a 	mov	r7,zero
 10019e4:	92000005 	stb	r8,0(r18)
 10019e8:	10077e80 	call	10077e8 <__udivdi3>
 10019ec:	1009883a 	mov	r4,r2
 10019f0:	1021883a 	mov	r16,r2
 10019f4:	18800068 	cmpgeui	r2,r3,1
 10019f8:	1823883a 	mov	r17,r3
 10019fc:	103fee1e 	bne	r2,zero,10019b8 <___vfprintf_internal_r+0x1484>
 1001a00:	1800021e 	bne	r3,zero,1001a0c <___vfprintf_internal_r+0x14d8>
 1001a04:	00800244 	movi	r2,9
 1001a08:	113feb36 	bltu	r2,r4,10019b8 <___vfprintf_internal_r+0x1484>
 1001a0c:	94bfffc4 	addi	r18,r18,-1
 1001a10:	dc814115 	stw	r18,1284(sp)
 1001a14:	003fc006 	br	1001918 <___vfprintf_internal_r+0x13e4>
 1001a18:	d9014c17 	ldw	r4,1328(sp)
 1001a1c:	2080004c 	andi	r2,r4,1
 1001a20:	10009a1e 	bne	r2,zero,1001c8c <___vfprintf_internal_r+0x1758>
 1001a24:	d9401904 	addi	r5,sp,100
 1001a28:	dd000f04 	addi	r20,sp,60
 1001a2c:	d9414115 	stw	r5,1284(sp)
 1001a30:	003d5b06 	br	1000fa0 <___vfprintf_internal_r+0xa6c>
 1001a34:	d9014f17 	ldw	r4,1340(sp)
 1001a38:	b00b883a 	mov	r5,r22
 1001a3c:	d9800c04 	addi	r6,sp,48
 1001a40:	10004dc0 	call	10004dc <__sprint_r>
 1001a44:	103c731e 	bne	r2,zero,1000c14 <___vfprintf_internal_r+0x6e0>
 1001a48:	dc800e17 	ldw	r18,56(sp)
 1001a4c:	d8c01904 	addi	r3,sp,100
 1001a50:	003cf906 	br	1000e38 <___vfprintf_internal_r+0x904>
 1001a54:	d8c14c17 	ldw	r3,1328(sp)
 1001a58:	1880040c 	andi	r2,r3,16
 1001a5c:	1000711e 	bne	r2,zero,1001c24 <___vfprintf_internal_r+0x16f0>
 1001a60:	d9014c17 	ldw	r4,1328(sp)
 1001a64:	2080100c 	andi	r2,r4,64
 1001a68:	10006e26 	beq	r2,zero,1001c24 <___vfprintf_internal_r+0x16f0>
 1001a6c:	3c00000b 	ldhu	r16,0(r7)
 1001a70:	0023883a 	mov	r17,zero
 1001a74:	39c00104 	addi	r7,r7,4
 1001a78:	d9c14015 	stw	r7,1280(sp)
 1001a7c:	003efa06 	br	1001668 <___vfprintf_internal_r+0x1134>
 1001a80:	dc400d17 	ldw	r17,52(sp)
 1001a84:	07004074 	movhi	fp,257
 1001a88:	e7352684 	addi	fp,fp,-11110
 1001a8c:	9425883a 	add	r18,r18,r16
 1001a90:	8c400044 	addi	r17,r17,1
 1001a94:	008001c4 	movi	r2,7
 1001a98:	1f000015 	stw	fp,0(r3)
 1001a9c:	1c000115 	stw	r16,4(r3)
 1001aa0:	dc800e15 	stw	r18,56(sp)
 1001aa4:	dc400d15 	stw	r17,52(sp)
 1001aa8:	147d7016 	blt	r2,r17,100106c <___vfprintf_internal_r+0xb38>
 1001aac:	18c00204 	addi	r3,r3,8
 1001ab0:	003d7506 	br	1001088 <___vfprintf_internal_r+0xb54>
 1001ab4:	dc800e17 	ldw	r18,56(sp)
 1001ab8:	dc400d17 	ldw	r17,52(sp)
 1001abc:	07004074 	movhi	fp,257
 1001ac0:	e7352a84 	addi	fp,fp,-11094
 1001ac4:	003bba06 	br	10009b0 <___vfprintf_internal_r+0x47c>
 1001ac8:	d9014f17 	ldw	r4,1340(sp)
 1001acc:	b00b883a 	mov	r5,r22
 1001ad0:	d9800c04 	addi	r6,sp,48
 1001ad4:	10004dc0 	call	10004dc <__sprint_r>
 1001ad8:	103c4e1e 	bne	r2,zero,1000c14 <___vfprintf_internal_r+0x6e0>
 1001adc:	dc800e17 	ldw	r18,56(sp)
 1001ae0:	d8c01904 	addi	r3,sp,100
 1001ae4:	003ce306 	br	1000e74 <___vfprintf_internal_r+0x940>
 1001ae8:	3c000017 	ldw	r16,0(r7)
 1001aec:	0009883a 	mov	r4,zero
 1001af0:	39c00104 	addi	r7,r7,4
 1001af4:	0023883a 	mov	r17,zero
 1001af8:	d9c14015 	stw	r7,1280(sp)
 1001afc:	d8000405 	stb	zero,16(sp)
 1001b00:	003d1a06 	br	1000f6c <___vfprintf_internal_r+0xa38>
 1001b04:	38800017 	ldw	r2,0(r7)
 1001b08:	39c00104 	addi	r7,r7,4
 1001b0c:	d9c14015 	stw	r7,1280(sp)
 1001b10:	1023d7fa 	srai	r17,r2,31
 1001b14:	1021883a 	mov	r16,r2
 1001b18:	003d1206 	br	1000f64 <___vfprintf_internal_r+0xa30>
 1001b1c:	3c000017 	ldw	r16,0(r7)
 1001b20:	01000044 	movi	r4,1
 1001b24:	39c00104 	addi	r7,r7,4
 1001b28:	0023883a 	mov	r17,zero
 1001b2c:	d9c14015 	stw	r7,1280(sp)
 1001b30:	d8000405 	stb	zero,16(sp)
 1001b34:	003d0d06 	br	1000f6c <___vfprintf_internal_r+0xa38>
 1001b38:	00804074 	movhi	r2,257
 1001b3c:	10b52604 	addi	r2,r2,-11112
 1001b40:	94800044 	addi	r18,r18,1
 1001b44:	8c400044 	addi	r17,r17,1
 1001b48:	a8800015 	stw	r2,0(r21)
 1001b4c:	00c00044 	movi	r3,1
 1001b50:	008001c4 	movi	r2,7
 1001b54:	a8c00115 	stw	r3,4(r21)
 1001b58:	dc800e15 	stw	r18,56(sp)
 1001b5c:	dc400d15 	stw	r17,52(sp)
 1001b60:	1440ca16 	blt	r2,r17,1001e8c <___vfprintf_internal_r+0x1958>
 1001b64:	a8c00204 	addi	r3,r21,8
 1001b68:	2000061e 	bne	r4,zero,1001b84 <___vfprintf_internal_r+0x1650>
 1001b6c:	d9414717 	ldw	r5,1308(sp)
 1001b70:	2800041e 	bne	r5,zero,1001b84 <___vfprintf_internal_r+0x1650>
 1001b74:	d9814c17 	ldw	r6,1328(sp)
 1001b78:	3080004c 	andi	r2,r6,1
 1001b7c:	1005003a 	cmpeq	r2,r2,zero
 1001b80:	103bea1e 	bne	r2,zero,1000b2c <___vfprintf_internal_r+0x5f8>
 1001b84:	00800044 	movi	r2,1
 1001b88:	dc400d17 	ldw	r17,52(sp)
 1001b8c:	18800115 	stw	r2,4(r3)
 1001b90:	d8814917 	ldw	r2,1316(sp)
 1001b94:	94800044 	addi	r18,r18,1
 1001b98:	8c400044 	addi	r17,r17,1
 1001b9c:	18800015 	stw	r2,0(r3)
 1001ba0:	008001c4 	movi	r2,7
 1001ba4:	dc800e15 	stw	r18,56(sp)
 1001ba8:	dc400d15 	stw	r17,52(sp)
 1001bac:	1440ca16 	blt	r2,r17,1001ed8 <___vfprintf_internal_r+0x19a4>
 1001bb0:	18c00204 	addi	r3,r3,8
 1001bb4:	0121c83a 	sub	r16,zero,r4
 1001bb8:	0400500e 	bge	zero,r16,1001cfc <___vfprintf_internal_r+0x17c8>
 1001bbc:	00800404 	movi	r2,16
 1001bc0:	1400800e 	bge	r2,r16,1001dc4 <___vfprintf_internal_r+0x1890>
 1001bc4:	1027883a 	mov	r19,r2
 1001bc8:	07004074 	movhi	fp,257
 1001bcc:	e7352684 	addi	fp,fp,-11110
 1001bd0:	050001c4 	movi	r20,7
 1001bd4:	00000306 	br	1001be4 <___vfprintf_internal_r+0x16b0>
 1001bd8:	18c00204 	addi	r3,r3,8
 1001bdc:	843ffc04 	addi	r16,r16,-16
 1001be0:	9c007a0e 	bge	r19,r16,1001dcc <___vfprintf_internal_r+0x1898>
 1001be4:	94800404 	addi	r18,r18,16
 1001be8:	8c400044 	addi	r17,r17,1
 1001bec:	1f000015 	stw	fp,0(r3)
 1001bf0:	1cc00115 	stw	r19,4(r3)
 1001bf4:	dc800e15 	stw	r18,56(sp)
 1001bf8:	dc400d15 	stw	r17,52(sp)
 1001bfc:	a47ff60e 	bge	r20,r17,1001bd8 <___vfprintf_internal_r+0x16a4>
 1001c00:	d9014f17 	ldw	r4,1340(sp)
 1001c04:	b00b883a 	mov	r5,r22
 1001c08:	d9800c04 	addi	r6,sp,48
 1001c0c:	10004dc0 	call	10004dc <__sprint_r>
 1001c10:	103c001e 	bne	r2,zero,1000c14 <___vfprintf_internal_r+0x6e0>
 1001c14:	dc800e17 	ldw	r18,56(sp)
 1001c18:	dc400d17 	ldw	r17,52(sp)
 1001c1c:	d8c01904 	addi	r3,sp,100
 1001c20:	003fee06 	br	1001bdc <___vfprintf_internal_r+0x16a8>
 1001c24:	3c000017 	ldw	r16,0(r7)
 1001c28:	0023883a 	mov	r17,zero
 1001c2c:	39c00104 	addi	r7,r7,4
 1001c30:	d9c14015 	stw	r7,1280(sp)
 1001c34:	003e8c06 	br	1001668 <___vfprintf_internal_r+0x1134>
 1001c38:	d9401904 	addi	r5,sp,100
 1001c3c:	dd000f04 	addi	r20,sp,60
 1001c40:	d9414115 	stw	r5,1284(sp)
 1001c44:	d9814417 	ldw	r6,1296(sp)
 1001c48:	880a973a 	slli	r5,r17,28
 1001c4c:	8004d13a 	srli	r2,r16,4
 1001c50:	810003cc 	andi	r4,r16,15
 1001c54:	3109883a 	add	r4,r6,r4
 1001c58:	2884b03a 	or	r2,r5,r2
 1001c5c:	21400003 	ldbu	r5,0(r4)
 1001c60:	d9014117 	ldw	r4,1284(sp)
 1001c64:	8806d13a 	srli	r3,r17,4
 1001c68:	1021883a 	mov	r16,r2
 1001c6c:	213fffc4 	addi	r4,r4,-1
 1001c70:	d9014115 	stw	r4,1284(sp)
 1001c74:	d9814117 	ldw	r6,1284(sp)
 1001c78:	10c8b03a 	or	r4,r2,r3
 1001c7c:	1823883a 	mov	r17,r3
 1001c80:	31400005 	stb	r5,0(r6)
 1001c84:	203fef1e 	bne	r4,zero,1001c44 <___vfprintf_internal_r+0x1710>
 1001c88:	003cc506 	br	1000fa0 <___vfprintf_internal_r+0xa6c>
 1001c8c:	00800c04 	movi	r2,48
 1001c90:	d98018c4 	addi	r6,sp,99
 1001c94:	dd000f04 	addi	r20,sp,60
 1001c98:	d88018c5 	stb	r2,99(sp)
 1001c9c:	d9814115 	stw	r6,1284(sp)
 1001ca0:	003cbf06 	br	1000fa0 <___vfprintf_internal_r+0xa6c>
 1001ca4:	dc400d17 	ldw	r17,52(sp)
 1001ca8:	07004074 	movhi	fp,257
 1001cac:	e7352a84 	addi	fp,fp,-11094
 1001cb0:	003bc106 	br	1000bb8 <___vfprintf_internal_r+0x684>
 1001cb4:	d9414c17 	ldw	r5,1328(sp)
 1001cb8:	2880040c 	andi	r2,r5,16
 1001cbc:	10007c26 	beq	r2,zero,1001eb0 <___vfprintf_internal_r+0x197c>
 1001cc0:	38800017 	ldw	r2,0(r7)
 1001cc4:	39c00104 	addi	r7,r7,4
 1001cc8:	d9c14015 	stw	r7,1280(sp)
 1001ccc:	d9814b17 	ldw	r6,1324(sp)
 1001cd0:	d9c14017 	ldw	r7,1280(sp)
 1001cd4:	11800015 	stw	r6,0(r2)
 1001cd8:	003a7206 	br	10006a4 <___vfprintf_internal_r+0x170>
 1001cdc:	d9014f17 	ldw	r4,1340(sp)
 1001ce0:	b00b883a 	mov	r5,r22
 1001ce4:	d9800c04 	addi	r6,sp,48
 1001ce8:	10004dc0 	call	10004dc <__sprint_r>
 1001cec:	103bc91e 	bne	r2,zero,1000c14 <___vfprintf_internal_r+0x6e0>
 1001cf0:	dc800e17 	ldw	r18,56(sp)
 1001cf4:	dc400d17 	ldw	r17,52(sp)
 1001cf8:	d8c01904 	addi	r3,sp,100
 1001cfc:	d9014717 	ldw	r4,1308(sp)
 1001d00:	d9414117 	ldw	r5,1284(sp)
 1001d04:	8c400044 	addi	r17,r17,1
 1001d08:	9125883a 	add	r18,r18,r4
 1001d0c:	008001c4 	movi	r2,7
 1001d10:	19400015 	stw	r5,0(r3)
 1001d14:	19000115 	stw	r4,4(r3)
 1001d18:	dc800e15 	stw	r18,56(sp)
 1001d1c:	dc400d15 	stw	r17,52(sp)
 1001d20:	147ce816 	blt	r2,r17,10010c4 <___vfprintf_internal_r+0xb90>
 1001d24:	18c00204 	addi	r3,r3,8
 1001d28:	003b8006 	br	1000b2c <___vfprintf_internal_r+0x5f8>
 1001d2c:	38c00017 	ldw	r3,0(r7)
 1001d30:	39000204 	addi	r4,r7,8
 1001d34:	d9014015 	stw	r4,1280(sp)
 1001d38:	d8c14215 	stw	r3,1288(sp)
 1001d3c:	39c00117 	ldw	r7,4(r7)
 1001d40:	d9c14315 	stw	r7,1292(sp)
 1001d44:	003e1a06 	br	10015b0 <___vfprintf_internal_r+0x107c>
 1001d48:	0005883a 	mov	r2,zero
 1001d4c:	1409c83a 	sub	r4,r2,r16
 1001d50:	1105803a 	cmpltu	r2,r2,r4
 1001d54:	044bc83a 	sub	r5,zero,r17
 1001d58:	2885c83a 	sub	r2,r5,r2
 1001d5c:	2021883a 	mov	r16,r4
 1001d60:	1023883a 	mov	r17,r2
 1001d64:	01000044 	movi	r4,1
 1001d68:	00800b44 	movi	r2,45
 1001d6c:	d8800405 	stb	r2,16(sp)
 1001d70:	003c7e06 	br	1000f6c <___vfprintf_internal_r+0xa38>
 1001d74:	d9014f17 	ldw	r4,1340(sp)
 1001d78:	b00b883a 	mov	r5,r22
 1001d7c:	d9800c04 	addi	r6,sp,48
 1001d80:	10004dc0 	call	10004dc <__sprint_r>
 1001d84:	103ba31e 	bne	r2,zero,1000c14 <___vfprintf_internal_r+0x6e0>
 1001d88:	dc800e17 	ldw	r18,56(sp)
 1001d8c:	dc400d17 	ldw	r17,52(sp)
 1001d90:	d9000517 	ldw	r4,20(sp)
 1001d94:	d9401904 	addi	r5,sp,100
 1001d98:	003da106 	br	1001420 <___vfprintf_internal_r+0xeec>
 1001d9c:	d9014f17 	ldw	r4,1340(sp)
 1001da0:	b00b883a 	mov	r5,r22
 1001da4:	d9800c04 	addi	r6,sp,48
 1001da8:	10004dc0 	call	10004dc <__sprint_r>
 1001dac:	103b991e 	bne	r2,zero,1000c14 <___vfprintf_internal_r+0x6e0>
 1001db0:	dc800e17 	ldw	r18,56(sp)
 1001db4:	dc400d17 	ldw	r17,52(sp)
 1001db8:	d9000517 	ldw	r4,20(sp)
 1001dbc:	d8c01904 	addi	r3,sp,100
 1001dc0:	003d8b06 	br	10013f0 <___vfprintf_internal_r+0xebc>
 1001dc4:	07004074 	movhi	fp,257
 1001dc8:	e7352684 	addi	fp,fp,-11110
 1001dcc:	9425883a 	add	r18,r18,r16
 1001dd0:	8c400044 	addi	r17,r17,1
 1001dd4:	008001c4 	movi	r2,7
 1001dd8:	1f000015 	stw	fp,0(r3)
 1001ddc:	1c000115 	stw	r16,4(r3)
 1001de0:	dc800e15 	stw	r18,56(sp)
 1001de4:	dc400d15 	stw	r17,52(sp)
 1001de8:	147fbc16 	blt	r2,r17,1001cdc <___vfprintf_internal_r+0x17a8>
 1001dec:	18c00204 	addi	r3,r3,8
 1001df0:	003fc206 	br	1001cfc <___vfprintf_internal_r+0x17c8>
 1001df4:	d9014f17 	ldw	r4,1340(sp)
 1001df8:	b00b883a 	mov	r5,r22
 1001dfc:	d9800c04 	addi	r6,sp,48
 1001e00:	10004dc0 	call	10004dc <__sprint_r>
 1001e04:	103b831e 	bne	r2,zero,1000c14 <___vfprintf_internal_r+0x6e0>
 1001e08:	dc800e17 	ldw	r18,56(sp)
 1001e0c:	d9000517 	ldw	r4,20(sp)
 1001e10:	d8c01904 	addi	r3,sp,100
 1001e14:	003cfc06 	br	1001208 <___vfprintf_internal_r+0xcd4>
 1001e18:	07004074 	movhi	fp,257
 1001e1c:	e7352684 	addi	fp,fp,-11110
 1001e20:	003bde06 	br	1000d9c <___vfprintf_internal_r+0x868>
 1001e24:	00804074 	movhi	r2,257
 1001e28:	10b51504 	addi	r2,r2,-11180
 1001e2c:	d8814115 	stw	r2,1284(sp)
 1001e30:	003def06 	br	10015f0 <___vfprintf_internal_r+0x10bc>
 1001e34:	d9014217 	ldw	r4,1288(sp)
 1001e38:	d9414317 	ldw	r5,1292(sp)
 1001e3c:	10070240 	call	1007024 <__isnand>
 1001e40:	10003926 	beq	r2,zero,1001f28 <___vfprintf_internal_r+0x19f4>
 1001e44:	d9414d17 	ldw	r5,1332(sp)
 1001e48:	008011c4 	movi	r2,71
 1001e4c:	1140ce16 	blt	r2,r5,1002188 <___vfprintf_internal_r+0x1c54>
 1001e50:	01804074 	movhi	r6,257
 1001e54:	31b51604 	addi	r6,r6,-11176
 1001e58:	d9814115 	stw	r6,1284(sp)
 1001e5c:	003de406 	br	10015f0 <___vfprintf_internal_r+0x10bc>
 1001e60:	d9014c17 	ldw	r4,1328(sp)
 1001e64:	bdc00044 	addi	r23,r23,1
 1001e68:	b8c00007 	ldb	r3,0(r23)
 1001e6c:	21000814 	ori	r4,r4,32
 1001e70:	d9014c15 	stw	r4,1328(sp)
 1001e74:	003a2e06 	br	1000730 <___vfprintf_internal_r+0x1fc>
 1001e78:	dcc14515 	stw	r19,1300(sp)
 1001e7c:	98011016 	blt	r19,zero,10022c0 <___vfprintf_internal_r+0x1d8c>
 1001e80:	980f883a 	mov	r7,r19
 1001e84:	d8014615 	stw	zero,1304(sp)
 1001e88:	003c4c06 	br	1000fbc <___vfprintf_internal_r+0xa88>
 1001e8c:	d9014f17 	ldw	r4,1340(sp)
 1001e90:	b00b883a 	mov	r5,r22
 1001e94:	d9800c04 	addi	r6,sp,48
 1001e98:	10004dc0 	call	10004dc <__sprint_r>
 1001e9c:	103b5d1e 	bne	r2,zero,1000c14 <___vfprintf_internal_r+0x6e0>
 1001ea0:	dc800e17 	ldw	r18,56(sp)
 1001ea4:	d9000517 	ldw	r4,20(sp)
 1001ea8:	d8c01904 	addi	r3,sp,100
 1001eac:	003f2e06 	br	1001b68 <___vfprintf_internal_r+0x1634>
 1001eb0:	d8c14c17 	ldw	r3,1328(sp)
 1001eb4:	1880100c 	andi	r2,r3,64
 1001eb8:	1000a026 	beq	r2,zero,100213c <___vfprintf_internal_r+0x1c08>
 1001ebc:	38800017 	ldw	r2,0(r7)
 1001ec0:	39c00104 	addi	r7,r7,4
 1001ec4:	d9c14015 	stw	r7,1280(sp)
 1001ec8:	d9014b17 	ldw	r4,1324(sp)
 1001ecc:	d9c14017 	ldw	r7,1280(sp)
 1001ed0:	1100000d 	sth	r4,0(r2)
 1001ed4:	0039f306 	br	10006a4 <___vfprintf_internal_r+0x170>
 1001ed8:	d9014f17 	ldw	r4,1340(sp)
 1001edc:	b00b883a 	mov	r5,r22
 1001ee0:	d9800c04 	addi	r6,sp,48
 1001ee4:	10004dc0 	call	10004dc <__sprint_r>
 1001ee8:	103b4a1e 	bne	r2,zero,1000c14 <___vfprintf_internal_r+0x6e0>
 1001eec:	dc800e17 	ldw	r18,56(sp)
 1001ef0:	dc400d17 	ldw	r17,52(sp)
 1001ef4:	d9000517 	ldw	r4,20(sp)
 1001ef8:	d8c01904 	addi	r3,sp,100
 1001efc:	003f2d06 	br	1001bb4 <___vfprintf_internal_r+0x1680>
 1001f00:	00800184 	movi	r2,6
 1001f04:	14c09a36 	bltu	r2,r19,1002170 <___vfprintf_internal_r+0x1c3c>
 1001f08:	dcc14515 	stw	r19,1300(sp)
 1001f0c:	9800010e 	bge	r19,zero,1001f14 <___vfprintf_internal_r+0x19e0>
 1001f10:	d8014515 	stw	zero,1300(sp)
 1001f14:	00804074 	movhi	r2,257
 1001f18:	10b51804 	addi	r2,r2,-11168
 1001f1c:	980f883a 	mov	r7,r19
 1001f20:	d8814115 	stw	r2,1284(sp)
 1001f24:	003a7206 	br	10008f0 <___vfprintf_internal_r+0x3bc>
 1001f28:	00bfffc4 	movi	r2,-1
 1001f2c:	9880e226 	beq	r19,r2,10022b8 <___vfprintf_internal_r+0x1d84>
 1001f30:	d9414d17 	ldw	r5,1332(sp)
 1001f34:	008019c4 	movi	r2,103
 1001f38:	2880dc26 	beq	r5,r2,10022ac <___vfprintf_internal_r+0x1d78>
 1001f3c:	008011c4 	movi	r2,71
 1001f40:	2880da26 	beq	r5,r2,10022ac <___vfprintf_internal_r+0x1d78>
 1001f44:	d9414c17 	ldw	r5,1328(sp)
 1001f48:	d9014317 	ldw	r4,1292(sp)
 1001f4c:	d9814217 	ldw	r6,1288(sp)
 1001f50:	29404014 	ori	r5,r5,256
 1001f54:	d9414c15 	stw	r5,1328(sp)
 1001f58:	2000cc16 	blt	r4,zero,100228c <___vfprintf_internal_r+0x1d58>
 1001f5c:	3021883a 	mov	r16,r6
 1001f60:	2023883a 	mov	r17,r4
 1001f64:	0039883a 	mov	fp,zero
 1001f68:	d9414d17 	ldw	r5,1332(sp)
 1001f6c:	00801984 	movi	r2,102
 1001f70:	2880b726 	beq	r5,r2,1002250 <___vfprintf_internal_r+0x1d1c>
 1001f74:	00801184 	movi	r2,70
 1001f78:	2880b526 	beq	r5,r2,1002250 <___vfprintf_internal_r+0x1d1c>
 1001f7c:	00801944 	movi	r2,101
 1001f80:	2880c826 	beq	r5,r2,10022a4 <___vfprintf_internal_r+0x1d70>
 1001f84:	00801144 	movi	r2,69
 1001f88:	2880c626 	beq	r5,r2,10022a4 <___vfprintf_internal_r+0x1d70>
 1001f8c:	9829883a 	mov	r20,r19
 1001f90:	d9014f17 	ldw	r4,1340(sp)
 1001f94:	d8800504 	addi	r2,sp,20
 1001f98:	880d883a 	mov	r6,r17
 1001f9c:	d8800115 	stw	r2,4(sp)
 1001fa0:	d8c00604 	addi	r3,sp,24
 1001fa4:	d8800704 	addi	r2,sp,28
 1001fa8:	800b883a 	mov	r5,r16
 1001fac:	01c00084 	movi	r7,2
 1001fb0:	d8c00215 	stw	r3,8(sp)
 1001fb4:	d8800315 	stw	r2,12(sp)
 1001fb8:	dd000015 	stw	r20,0(sp)
 1001fbc:	100279c0 	call	100279c <_dtoa_r>
 1001fc0:	d9814d17 	ldw	r6,1332(sp)
 1001fc4:	d8814115 	stw	r2,1284(sp)
 1001fc8:	008019c4 	movi	r2,103
 1001fcc:	30809526 	beq	r6,r2,1002224 <___vfprintf_internal_r+0x1cf0>
 1001fd0:	d8c14d17 	ldw	r3,1332(sp)
 1001fd4:	008011c4 	movi	r2,71
 1001fd8:	18809226 	beq	r3,r2,1002224 <___vfprintf_internal_r+0x1cf0>
 1001fdc:	d9414117 	ldw	r5,1284(sp)
 1001fe0:	d9814d17 	ldw	r6,1332(sp)
 1001fe4:	00801984 	movi	r2,102
 1001fe8:	2d25883a 	add	r18,r5,r20
 1001fec:	30808626 	beq	r6,r2,1002208 <___vfprintf_internal_r+0x1cd4>
 1001ff0:	00801184 	movi	r2,70
 1001ff4:	30808426 	beq	r6,r2,1002208 <___vfprintf_internal_r+0x1cd4>
 1001ff8:	000d883a 	mov	r6,zero
 1001ffc:	000f883a 	mov	r7,zero
 1002000:	880b883a 	mov	r5,r17
 1002004:	8009883a 	mov	r4,r16
 1002008:	1008fd40 	call	1008fd4 <__eqdf2>
 100200c:	1000751e 	bne	r2,zero,10021e4 <___vfprintf_internal_r+0x1cb0>
 1002010:	9005883a 	mov	r2,r18
 1002014:	dc800715 	stw	r18,28(sp)
 1002018:	d9014117 	ldw	r4,1284(sp)
 100201c:	d9414d17 	ldw	r5,1332(sp)
 1002020:	00c019c4 	movi	r3,103
 1002024:	1125c83a 	sub	r18,r2,r4
 1002028:	28c06826 	beq	r5,r3,10021cc <___vfprintf_internal_r+0x1c98>
 100202c:	008011c4 	movi	r2,71
 1002030:	28806626 	beq	r5,r2,10021cc <___vfprintf_internal_r+0x1c98>
 1002034:	d9000517 	ldw	r4,20(sp)
 1002038:	d8c14d17 	ldw	r3,1332(sp)
 100203c:	00801944 	movi	r2,101
 1002040:	10c05516 	blt	r2,r3,1002198 <___vfprintf_internal_r+0x1c64>
 1002044:	213fffc4 	addi	r4,r4,-1
 1002048:	d9000515 	stw	r4,20(sp)
 100204c:	d8c00805 	stb	r3,32(sp)
 1002050:	2021883a 	mov	r16,r4
 1002054:	2000c116 	blt	r4,zero,100235c <___vfprintf_internal_r+0x1e28>
 1002058:	00800ac4 	movi	r2,43
 100205c:	d8800845 	stb	r2,33(sp)
 1002060:	00800244 	movi	r2,9
 1002064:	1400af0e 	bge	r2,r16,1002324 <___vfprintf_internal_r+0x1df0>
 1002068:	1027883a 	mov	r19,r2
 100206c:	dc400b84 	addi	r17,sp,46
 1002070:	8009883a 	mov	r4,r16
 1002074:	01400284 	movi	r5,10
 1002078:	10096bc0 	call	10096bc <__modsi3>
 100207c:	10800c04 	addi	r2,r2,48
 1002080:	8c7fffc4 	addi	r17,r17,-1
 1002084:	8009883a 	mov	r4,r16
 1002088:	01400284 	movi	r5,10
 100208c:	88800005 	stb	r2,0(r17)
 1002090:	100965c0 	call	100965c <__divsi3>
 1002094:	1021883a 	mov	r16,r2
 1002098:	98bff516 	blt	r19,r2,1002070 <___vfprintf_internal_r+0x1b3c>
 100209c:	10c00c04 	addi	r3,r2,48
 10020a0:	d88009c4 	addi	r2,sp,39
 10020a4:	108001c4 	addi	r2,r2,7
 10020a8:	897fffc4 	addi	r5,r17,-1
 10020ac:	88ffffc5 	stb	r3,-1(r17)
 10020b0:	2880a72e 	bgeu	r5,r2,1002350 <___vfprintf_internal_r+0x1e1c>
 10020b4:	1009883a 	mov	r4,r2
 10020b8:	d9800804 	addi	r6,sp,32
 10020bc:	d8c00884 	addi	r3,sp,34
 10020c0:	28800003 	ldbu	r2,0(r5)
 10020c4:	29400044 	addi	r5,r5,1
 10020c8:	18800005 	stb	r2,0(r3)
 10020cc:	18c00044 	addi	r3,r3,1
 10020d0:	293ffb36 	bltu	r5,r4,10020c0 <___vfprintf_internal_r+0x1b8c>
 10020d4:	1987c83a 	sub	r3,r3,r6
 10020d8:	00800044 	movi	r2,1
 10020dc:	d8c14815 	stw	r3,1312(sp)
 10020e0:	90cf883a 	add	r7,r18,r3
 10020e4:	1480960e 	bge	r2,r18,1002340 <___vfprintf_internal_r+0x1e0c>
 10020e8:	39c00044 	addi	r7,r7,1
 10020ec:	d9c14515 	stw	r7,1300(sp)
 10020f0:	38003416 	blt	r7,zero,10021c4 <___vfprintf_internal_r+0x1c90>
 10020f4:	e0803fcc 	andi	r2,fp,255
 10020f8:	1080201c 	xori	r2,r2,128
 10020fc:	10bfe004 	addi	r2,r2,-128
 1002100:	10004e26 	beq	r2,zero,100223c <___vfprintf_internal_r+0x1d08>
 1002104:	00800b44 	movi	r2,45
 1002108:	dc814715 	stw	r18,1308(sp)
 100210c:	d8014615 	stw	zero,1304(sp)
 1002110:	d8800405 	stb	r2,16(sp)
 1002114:	003bab06 	br	1000fc4 <___vfprintf_internal_r+0xa90>
 1002118:	00800b44 	movi	r2,45
 100211c:	d8800405 	stb	r2,16(sp)
 1002120:	003d2d06 	br	10015d8 <___vfprintf_internal_r+0x10a4>
 1002124:	d9014f17 	ldw	r4,1340(sp)
 1002128:	b00b883a 	mov	r5,r22
 100212c:	d9800c04 	addi	r6,sp,48
 1002130:	10004dc0 	call	10004dc <__sprint_r>
 1002134:	103ab71e 	bne	r2,zero,1000c14 <___vfprintf_internal_r+0x6e0>
 1002138:	003ab506 	br	1000c10 <___vfprintf_internal_r+0x6dc>
 100213c:	38800017 	ldw	r2,0(r7)
 1002140:	39c00104 	addi	r7,r7,4
 1002144:	d9c14015 	stw	r7,1280(sp)
 1002148:	d9414b17 	ldw	r5,1324(sp)
 100214c:	d9c14017 	ldw	r7,1280(sp)
 1002150:	11400015 	stw	r5,0(r2)
 1002154:	00395306 	br	10006a4 <___vfprintf_internal_r+0x170>
 1002158:	980f883a 	mov	r7,r19
 100215c:	dcc14515 	stw	r19,1300(sp)
 1002160:	d8014615 	stw	zero,1304(sp)
 1002164:	003b9506 	br	1000fbc <___vfprintf_internal_r+0xa88>
 1002168:	0027883a 	mov	r19,zero
 100216c:	00397206 	br	1000738 <___vfprintf_internal_r+0x204>
 1002170:	00c04074 	movhi	r3,257
 1002174:	18f51804 	addi	r3,r3,-11168
 1002178:	100f883a 	mov	r7,r2
 100217c:	d8814515 	stw	r2,1300(sp)
 1002180:	d8c14115 	stw	r3,1284(sp)
 1002184:	0039da06 	br	10008f0 <___vfprintf_internal_r+0x3bc>
 1002188:	00804074 	movhi	r2,257
 100218c:	10b51704 	addi	r2,r2,-11172
 1002190:	d8814115 	stw	r2,1284(sp)
 1002194:	003d1606 	br	10015f0 <___vfprintf_internal_r+0x10bc>
 1002198:	d9414d17 	ldw	r5,1332(sp)
 100219c:	00801984 	movi	r2,102
 10021a0:	28804926 	beq	r5,r2,10022c8 <___vfprintf_internal_r+0x1d94>
 10021a4:	200f883a 	mov	r7,r4
 10021a8:	24805716 	blt	r4,r18,1002308 <___vfprintf_internal_r+0x1dd4>
 10021ac:	d9414c17 	ldw	r5,1328(sp)
 10021b0:	2880004c 	andi	r2,r5,1
 10021b4:	10000126 	beq	r2,zero,10021bc <___vfprintf_internal_r+0x1c88>
 10021b8:	21c00044 	addi	r7,r4,1
 10021bc:	d9c14515 	stw	r7,1300(sp)
 10021c0:	383fcc0e 	bge	r7,zero,10020f4 <___vfprintf_internal_r+0x1bc0>
 10021c4:	d8014515 	stw	zero,1300(sp)
 10021c8:	003fca06 	br	10020f4 <___vfprintf_internal_r+0x1bc0>
 10021cc:	d9000517 	ldw	r4,20(sp)
 10021d0:	00bfff04 	movi	r2,-4
 10021d4:	1100480e 	bge	r2,r4,10022f8 <___vfprintf_internal_r+0x1dc4>
 10021d8:	99004716 	blt	r19,r4,10022f8 <___vfprintf_internal_r+0x1dc4>
 10021dc:	d8c14d15 	stw	r3,1332(sp)
 10021e0:	003ff006 	br	10021a4 <___vfprintf_internal_r+0x1c70>
 10021e4:	d8800717 	ldw	r2,28(sp)
 10021e8:	14bf8b2e 	bgeu	r2,r18,1002018 <___vfprintf_internal_r+0x1ae4>
 10021ec:	9007883a 	mov	r3,r18
 10021f0:	01000c04 	movi	r4,48
 10021f4:	11000005 	stb	r4,0(r2)
 10021f8:	10800044 	addi	r2,r2,1
 10021fc:	d8800715 	stw	r2,28(sp)
 1002200:	18bffc1e 	bne	r3,r2,10021f4 <___vfprintf_internal_r+0x1cc0>
 1002204:	003f8406 	br	1002018 <___vfprintf_internal_r+0x1ae4>
 1002208:	d8814117 	ldw	r2,1284(sp)
 100220c:	10c00007 	ldb	r3,0(r2)
 1002210:	00800c04 	movi	r2,48
 1002214:	18805b26 	beq	r3,r2,1002384 <___vfprintf_internal_r+0x1e50>
 1002218:	d9000517 	ldw	r4,20(sp)
 100221c:	9125883a 	add	r18,r18,r4
 1002220:	003f7506 	br	1001ff8 <___vfprintf_internal_r+0x1ac4>
 1002224:	d9014c17 	ldw	r4,1328(sp)
 1002228:	2080004c 	andi	r2,r4,1
 100222c:	1005003a 	cmpeq	r2,r2,zero
 1002230:	103f6a26 	beq	r2,zero,1001fdc <___vfprintf_internal_r+0x1aa8>
 1002234:	d8800717 	ldw	r2,28(sp)
 1002238:	003f7706 	br	1002018 <___vfprintf_internal_r+0x1ae4>
 100223c:	d9c14515 	stw	r7,1300(sp)
 1002240:	38004d16 	blt	r7,zero,1002378 <___vfprintf_internal_r+0x1e44>
 1002244:	dc814715 	stw	r18,1308(sp)
 1002248:	d8014615 	stw	zero,1304(sp)
 100224c:	003b5b06 	br	1000fbc <___vfprintf_internal_r+0xa88>
 1002250:	d9014f17 	ldw	r4,1340(sp)
 1002254:	d8800504 	addi	r2,sp,20
 1002258:	d8800115 	stw	r2,4(sp)
 100225c:	d8c00604 	addi	r3,sp,24
 1002260:	d8800704 	addi	r2,sp,28
 1002264:	800b883a 	mov	r5,r16
 1002268:	880d883a 	mov	r6,r17
 100226c:	01c000c4 	movi	r7,3
 1002270:	d8c00215 	stw	r3,8(sp)
 1002274:	d8800315 	stw	r2,12(sp)
 1002278:	dcc00015 	stw	r19,0(sp)
 100227c:	9829883a 	mov	r20,r19
 1002280:	100279c0 	call	100279c <_dtoa_r>
 1002284:	d8814115 	stw	r2,1284(sp)
 1002288:	003f5106 	br	1001fd0 <___vfprintf_internal_r+0x1a9c>
 100228c:	d8c14217 	ldw	r3,1288(sp)
 1002290:	d9014317 	ldw	r4,1292(sp)
 1002294:	07000b44 	movi	fp,45
 1002298:	1821883a 	mov	r16,r3
 100229c:	2460003c 	xorhi	r17,r4,32768
 10022a0:	003f3106 	br	1001f68 <___vfprintf_internal_r+0x1a34>
 10022a4:	9d000044 	addi	r20,r19,1
 10022a8:	003f3906 	br	1001f90 <___vfprintf_internal_r+0x1a5c>
 10022ac:	983f251e 	bne	r19,zero,1001f44 <___vfprintf_internal_r+0x1a10>
 10022b0:	04c00044 	movi	r19,1
 10022b4:	003f2306 	br	1001f44 <___vfprintf_internal_r+0x1a10>
 10022b8:	04c00184 	movi	r19,6
 10022bc:	003f2106 	br	1001f44 <___vfprintf_internal_r+0x1a10>
 10022c0:	d8014515 	stw	zero,1300(sp)
 10022c4:	003eee06 	br	1001e80 <___vfprintf_internal_r+0x194c>
 10022c8:	200f883a 	mov	r7,r4
 10022cc:	0100370e 	bge	zero,r4,10023ac <___vfprintf_internal_r+0x1e78>
 10022d0:	9800031e 	bne	r19,zero,10022e0 <___vfprintf_internal_r+0x1dac>
 10022d4:	d9814c17 	ldw	r6,1328(sp)
 10022d8:	3080004c 	andi	r2,r6,1
 10022dc:	103fb726 	beq	r2,zero,10021bc <___vfprintf_internal_r+0x1c88>
 10022e0:	20800044 	addi	r2,r4,1
 10022e4:	98a7883a 	add	r19,r19,r2
 10022e8:	dcc14515 	stw	r19,1300(sp)
 10022ec:	980f883a 	mov	r7,r19
 10022f0:	983f800e 	bge	r19,zero,10020f4 <___vfprintf_internal_r+0x1bc0>
 10022f4:	003fb306 	br	10021c4 <___vfprintf_internal_r+0x1c90>
 10022f8:	d9814d17 	ldw	r6,1332(sp)
 10022fc:	31bfff84 	addi	r6,r6,-2
 1002300:	d9814d15 	stw	r6,1332(sp)
 1002304:	003f4c06 	br	1002038 <___vfprintf_internal_r+0x1b04>
 1002308:	0100180e 	bge	zero,r4,100236c <___vfprintf_internal_r+0x1e38>
 100230c:	00800044 	movi	r2,1
 1002310:	1485883a 	add	r2,r2,r18
 1002314:	d8814515 	stw	r2,1300(sp)
 1002318:	100f883a 	mov	r7,r2
 100231c:	103f750e 	bge	r2,zero,10020f4 <___vfprintf_internal_r+0x1bc0>
 1002320:	003fa806 	br	10021c4 <___vfprintf_internal_r+0x1c90>
 1002324:	80c00c04 	addi	r3,r16,48
 1002328:	00800c04 	movi	r2,48
 100232c:	d8c008c5 	stb	r3,35(sp)
 1002330:	d9800804 	addi	r6,sp,32
 1002334:	d8c00904 	addi	r3,sp,36
 1002338:	d8800885 	stb	r2,34(sp)
 100233c:	003f6506 	br	10020d4 <___vfprintf_internal_r+0x1ba0>
 1002340:	d9014c17 	ldw	r4,1328(sp)
 1002344:	2084703a 	and	r2,r4,r2
 1002348:	103f9c26 	beq	r2,zero,10021bc <___vfprintf_internal_r+0x1c88>
 100234c:	003f6606 	br	10020e8 <___vfprintf_internal_r+0x1bb4>
 1002350:	d9800804 	addi	r6,sp,32
 1002354:	d8c00884 	addi	r3,sp,34
 1002358:	003f5e06 	br	10020d4 <___vfprintf_internal_r+0x1ba0>
 100235c:	00800b44 	movi	r2,45
 1002360:	0121c83a 	sub	r16,zero,r4
 1002364:	d8800845 	stb	r2,33(sp)
 1002368:	003f3d06 	br	1002060 <___vfprintf_internal_r+0x1b2c>
 100236c:	00800084 	movi	r2,2
 1002370:	1105c83a 	sub	r2,r2,r4
 1002374:	003fe606 	br	1002310 <___vfprintf_internal_r+0x1ddc>
 1002378:	d8014515 	stw	zero,1300(sp)
 100237c:	dc814715 	stw	r18,1308(sp)
 1002380:	003fb106 	br	1002248 <___vfprintf_internal_r+0x1d14>
 1002384:	000d883a 	mov	r6,zero
 1002388:	000f883a 	mov	r7,zero
 100238c:	8009883a 	mov	r4,r16
 1002390:	880b883a 	mov	r5,r17
 1002394:	100905c0 	call	100905c <__nedf2>
 1002398:	103f9f26 	beq	r2,zero,1002218 <___vfprintf_internal_r+0x1ce4>
 100239c:	00800044 	movi	r2,1
 10023a0:	1509c83a 	sub	r4,r2,r20
 10023a4:	d9000515 	stw	r4,20(sp)
 10023a8:	003f9b06 	br	1002218 <___vfprintf_internal_r+0x1ce4>
 10023ac:	98000d1e 	bne	r19,zero,10023e4 <___vfprintf_internal_r+0x1eb0>
 10023b0:	d8c14c17 	ldw	r3,1328(sp)
 10023b4:	1880004c 	andi	r2,r3,1
 10023b8:	10000a1e 	bne	r2,zero,10023e4 <___vfprintf_internal_r+0x1eb0>
 10023bc:	01000044 	movi	r4,1
 10023c0:	200f883a 	mov	r7,r4
 10023c4:	d9014515 	stw	r4,1300(sp)
 10023c8:	003f4a06 	br	10020f4 <___vfprintf_internal_r+0x1bc0>
 10023cc:	3cc00017 	ldw	r19,0(r7)
 10023d0:	39c00104 	addi	r7,r7,4
 10023d4:	983d0e0e 	bge	r19,zero,1001810 <___vfprintf_internal_r+0x12dc>
 10023d8:	b8c00007 	ldb	r3,0(r23)
 10023dc:	04ffffc4 	movi	r19,-1
 10023e0:	0038d306 	br	1000730 <___vfprintf_internal_r+0x1fc>
 10023e4:	9cc00084 	addi	r19,r19,2
 10023e8:	dcc14515 	stw	r19,1300(sp)
 10023ec:	980f883a 	mov	r7,r19
 10023f0:	983f400e 	bge	r19,zero,10020f4 <___vfprintf_internal_r+0x1bc0>
 10023f4:	003f7306 	br	10021c4 <___vfprintf_internal_r+0x1c90>

010023f8 <__vfprintf_internal>:
 10023f8:	00804074 	movhi	r2,257
 10023fc:	10bc8804 	addi	r2,r2,-3552
 1002400:	2013883a 	mov	r9,r4
 1002404:	11000017 	ldw	r4,0(r2)
 1002408:	2805883a 	mov	r2,r5
 100240c:	300f883a 	mov	r7,r6
 1002410:	480b883a 	mov	r5,r9
 1002414:	100d883a 	mov	r6,r2
 1002418:	10005341 	jmpi	1000534 <___vfprintf_internal_r>

0100241c <__swsetup_r>:
 100241c:	00804074 	movhi	r2,257
 1002420:	10bc8804 	addi	r2,r2,-3552
 1002424:	10c00017 	ldw	r3,0(r2)
 1002428:	defffd04 	addi	sp,sp,-12
 100242c:	dc400115 	stw	r17,4(sp)
 1002430:	dc000015 	stw	r16,0(sp)
 1002434:	dfc00215 	stw	ra,8(sp)
 1002438:	2023883a 	mov	r17,r4
 100243c:	2821883a 	mov	r16,r5
 1002440:	18000226 	beq	r3,zero,100244c <__swsetup_r+0x30>
 1002444:	18800e17 	ldw	r2,56(r3)
 1002448:	10001f26 	beq	r2,zero,10024c8 <__swsetup_r+0xac>
 100244c:	8100030b 	ldhu	r4,12(r16)
 1002450:	2080020c 	andi	r2,r4,8
 1002454:	10002826 	beq	r2,zero,10024f8 <__swsetup_r+0xdc>
 1002458:	81400417 	ldw	r5,16(r16)
 100245c:	28001d26 	beq	r5,zero,10024d4 <__swsetup_r+0xb8>
 1002460:	2080004c 	andi	r2,r4,1
 1002464:	1005003a 	cmpeq	r2,r2,zero
 1002468:	10000b26 	beq	r2,zero,1002498 <__swsetup_r+0x7c>
 100246c:	2080008c 	andi	r2,r4,2
 1002470:	10001226 	beq	r2,zero,10024bc <__swsetup_r+0xa0>
 1002474:	0005883a 	mov	r2,zero
 1002478:	80800215 	stw	r2,8(r16)
 100247c:	28000b26 	beq	r5,zero,10024ac <__swsetup_r+0x90>
 1002480:	0005883a 	mov	r2,zero
 1002484:	dfc00217 	ldw	ra,8(sp)
 1002488:	dc400117 	ldw	r17,4(sp)
 100248c:	dc000017 	ldw	r16,0(sp)
 1002490:	dec00304 	addi	sp,sp,12
 1002494:	f800283a 	ret
 1002498:	80800517 	ldw	r2,20(r16)
 100249c:	80000215 	stw	zero,8(r16)
 10024a0:	0085c83a 	sub	r2,zero,r2
 10024a4:	80800615 	stw	r2,24(r16)
 10024a8:	283ff51e 	bne	r5,zero,1002480 <__swsetup_r+0x64>
 10024ac:	2080200c 	andi	r2,r4,128
 10024b0:	103ff326 	beq	r2,zero,1002480 <__swsetup_r+0x64>
 10024b4:	00bfffc4 	movi	r2,-1
 10024b8:	003ff206 	br	1002484 <__swsetup_r+0x68>
 10024bc:	80800517 	ldw	r2,20(r16)
 10024c0:	80800215 	stw	r2,8(r16)
 10024c4:	003fed06 	br	100247c <__swsetup_r+0x60>
 10024c8:	1809883a 	mov	r4,r3
 10024cc:	1003fe80 	call	1003fe8 <__sinit>
 10024d0:	003fde06 	br	100244c <__swsetup_r+0x30>
 10024d4:	20c0a00c 	andi	r3,r4,640
 10024d8:	00808004 	movi	r2,512
 10024dc:	18bfe026 	beq	r3,r2,1002460 <__swsetup_r+0x44>
 10024e0:	8809883a 	mov	r4,r17
 10024e4:	800b883a 	mov	r5,r16
 10024e8:	1004d940 	call	1004d94 <__smakebuf_r>
 10024ec:	8100030b 	ldhu	r4,12(r16)
 10024f0:	81400417 	ldw	r5,16(r16)
 10024f4:	003fda06 	br	1002460 <__swsetup_r+0x44>
 10024f8:	2080040c 	andi	r2,r4,16
 10024fc:	103fed26 	beq	r2,zero,10024b4 <__swsetup_r+0x98>
 1002500:	2080010c 	andi	r2,r4,4
 1002504:	10001226 	beq	r2,zero,1002550 <__swsetup_r+0x134>
 1002508:	81400c17 	ldw	r5,48(r16)
 100250c:	28000526 	beq	r5,zero,1002524 <__swsetup_r+0x108>
 1002510:	80801004 	addi	r2,r16,64
 1002514:	28800226 	beq	r5,r2,1002520 <__swsetup_r+0x104>
 1002518:	8809883a 	mov	r4,r17
 100251c:	10043a00 	call	10043a0 <_free_r>
 1002520:	80000c15 	stw	zero,48(r16)
 1002524:	8080030b 	ldhu	r2,12(r16)
 1002528:	81400417 	ldw	r5,16(r16)
 100252c:	80000115 	stw	zero,4(r16)
 1002530:	10bff6cc 	andi	r2,r2,65499
 1002534:	8080030d 	sth	r2,12(r16)
 1002538:	81400015 	stw	r5,0(r16)
 100253c:	8080030b 	ldhu	r2,12(r16)
 1002540:	10800214 	ori	r2,r2,8
 1002544:	113fffcc 	andi	r4,r2,65535
 1002548:	8080030d 	sth	r2,12(r16)
 100254c:	003fc306 	br	100245c <__swsetup_r+0x40>
 1002550:	81400417 	ldw	r5,16(r16)
 1002554:	003ff906 	br	100253c <__swsetup_r+0x120>

01002558 <quorem>:
 1002558:	28c00417 	ldw	r3,16(r5)
 100255c:	20800417 	ldw	r2,16(r4)
 1002560:	defff104 	addi	sp,sp,-60
 1002564:	dfc00e15 	stw	ra,56(sp)
 1002568:	df000d15 	stw	fp,52(sp)
 100256c:	ddc00c15 	stw	r23,48(sp)
 1002570:	dd800b15 	stw	r22,44(sp)
 1002574:	dd400a15 	stw	r21,40(sp)
 1002578:	dd000915 	stw	r20,36(sp)
 100257c:	dcc00815 	stw	r19,32(sp)
 1002580:	dc800715 	stw	r18,28(sp)
 1002584:	dc400615 	stw	r17,24(sp)
 1002588:	dc000515 	stw	r16,20(sp)
 100258c:	d9000315 	stw	r4,12(sp)
 1002590:	d9400415 	stw	r5,16(sp)
 1002594:	10c07f16 	blt	r2,r3,1002794 <quorem+0x23c>
 1002598:	1d3fffc4 	addi	r20,r3,-1
 100259c:	d8c00417 	ldw	r3,16(sp)
 10025a0:	d9000317 	ldw	r4,12(sp)
 10025a4:	a505883a 	add	r2,r20,r20
 10025a8:	1085883a 	add	r2,r2,r2
 10025ac:	1cc00504 	addi	r19,r3,20
 10025b0:	25c00504 	addi	r23,r4,20
 10025b4:	98ad883a 	add	r22,r19,r2
 10025b8:	15c7883a 	add	r3,r2,r23
 10025bc:	b1400017 	ldw	r5,0(r22)
 10025c0:	19000017 	ldw	r4,0(r3)
 10025c4:	d8c00015 	stw	r3,0(sp)
 10025c8:	29400044 	addi	r5,r5,1
 10025cc:	d9000215 	stw	r4,8(sp)
 10025d0:	100971c0 	call	100971c <__udivsi3>
 10025d4:	1039883a 	mov	fp,r2
 10025d8:	10003d1e 	bne	r2,zero,10026d0 <quorem+0x178>
 10025dc:	d9400417 	ldw	r5,16(sp)
 10025e0:	d9000317 	ldw	r4,12(sp)
 10025e4:	1005ac00 	call	1005ac0 <__mcmp>
 10025e8:	10002c16 	blt	r2,zero,100269c <quorem+0x144>
 10025ec:	e7000044 	addi	fp,fp,1
 10025f0:	b80f883a 	mov	r7,r23
 10025f4:	0011883a 	mov	r8,zero
 10025f8:	0009883a 	mov	r4,zero
 10025fc:	99400017 	ldw	r5,0(r19)
 1002600:	38c00017 	ldw	r3,0(r7)
 1002604:	9cc00104 	addi	r19,r19,4
 1002608:	28bfffcc 	andi	r2,r5,65535
 100260c:	2085883a 	add	r2,r4,r2
 1002610:	11bfffcc 	andi	r6,r2,65535
 1002614:	193fffcc 	andi	r4,r3,65535
 1002618:	1004d43a 	srli	r2,r2,16
 100261c:	280ad43a 	srli	r5,r5,16
 1002620:	2189c83a 	sub	r4,r4,r6
 1002624:	2209883a 	add	r4,r4,r8
 1002628:	1806d43a 	srli	r3,r3,16
 100262c:	288b883a 	add	r5,r5,r2
 1002630:	200dd43a 	srai	r6,r4,16
 1002634:	28bfffcc 	andi	r2,r5,65535
 1002638:	1887c83a 	sub	r3,r3,r2
 100263c:	1987883a 	add	r3,r3,r6
 1002640:	3900000d 	sth	r4,0(r7)
 1002644:	38c0008d 	sth	r3,2(r7)
 1002648:	2808d43a 	srli	r4,r5,16
 100264c:	39c00104 	addi	r7,r7,4
 1002650:	1811d43a 	srai	r8,r3,16
 1002654:	b4ffe92e 	bgeu	r22,r19,10025fc <quorem+0xa4>
 1002658:	a505883a 	add	r2,r20,r20
 100265c:	1085883a 	add	r2,r2,r2
 1002660:	b885883a 	add	r2,r23,r2
 1002664:	10c00017 	ldw	r3,0(r2)
 1002668:	18000c1e 	bne	r3,zero,100269c <quorem+0x144>
 100266c:	113fff04 	addi	r4,r2,-4
 1002670:	b900082e 	bgeu	r23,r4,1002694 <quorem+0x13c>
 1002674:	10bfff17 	ldw	r2,-4(r2)
 1002678:	10000326 	beq	r2,zero,1002688 <quorem+0x130>
 100267c:	00000506 	br	1002694 <quorem+0x13c>
 1002680:	20800017 	ldw	r2,0(r4)
 1002684:	1000031e 	bne	r2,zero,1002694 <quorem+0x13c>
 1002688:	213fff04 	addi	r4,r4,-4
 100268c:	a53fffc4 	addi	r20,r20,-1
 1002690:	b93ffb36 	bltu	r23,r4,1002680 <quorem+0x128>
 1002694:	d9000317 	ldw	r4,12(sp)
 1002698:	25000415 	stw	r20,16(r4)
 100269c:	e005883a 	mov	r2,fp
 10026a0:	dfc00e17 	ldw	ra,56(sp)
 10026a4:	df000d17 	ldw	fp,52(sp)
 10026a8:	ddc00c17 	ldw	r23,48(sp)
 10026ac:	dd800b17 	ldw	r22,44(sp)
 10026b0:	dd400a17 	ldw	r21,40(sp)
 10026b4:	dd000917 	ldw	r20,36(sp)
 10026b8:	dcc00817 	ldw	r19,32(sp)
 10026bc:	dc800717 	ldw	r18,28(sp)
 10026c0:	dc400617 	ldw	r17,24(sp)
 10026c4:	dc000517 	ldw	r16,20(sp)
 10026c8:	dec00f04 	addi	sp,sp,60
 10026cc:	f800283a 	ret
 10026d0:	b823883a 	mov	r17,r23
 10026d4:	9825883a 	mov	r18,r19
 10026d8:	d8000115 	stw	zero,4(sp)
 10026dc:	002b883a 	mov	r21,zero
 10026e0:	94000017 	ldw	r16,0(r18)
 10026e4:	e009883a 	mov	r4,fp
 10026e8:	94800104 	addi	r18,r18,4
 10026ec:	817fffcc 	andi	r5,r16,65535
 10026f0:	100972c0 	call	100972c <__mulsi3>
 10026f4:	800ad43a 	srli	r5,r16,16
 10026f8:	e009883a 	mov	r4,fp
 10026fc:	a8a1883a 	add	r16,r21,r2
 1002700:	100972c0 	call	100972c <__mulsi3>
 1002704:	89000017 	ldw	r4,0(r17)
 1002708:	80ffffcc 	andi	r3,r16,65535
 100270c:	8020d43a 	srli	r16,r16,16
 1002710:	217fffcc 	andi	r5,r4,65535
 1002714:	28cbc83a 	sub	r5,r5,r3
 1002718:	d8c00117 	ldw	r3,4(sp)
 100271c:	2008d43a 	srli	r4,r4,16
 1002720:	1405883a 	add	r2,r2,r16
 1002724:	28cb883a 	add	r5,r5,r3
 1002728:	280dd43a 	srai	r6,r5,16
 100272c:	10ffffcc 	andi	r3,r2,65535
 1002730:	20c9c83a 	sub	r4,r4,r3
 1002734:	2189883a 	add	r4,r4,r6
 1002738:	8900008d 	sth	r4,2(r17)
 100273c:	2009d43a 	srai	r4,r4,16
 1002740:	8940000d 	sth	r5,0(r17)
 1002744:	102ad43a 	srli	r21,r2,16
 1002748:	8c400104 	addi	r17,r17,4
 100274c:	d9000115 	stw	r4,4(sp)
 1002750:	b4bfe32e 	bgeu	r22,r18,10026e0 <quorem+0x188>
 1002754:	d9000217 	ldw	r4,8(sp)
 1002758:	203fa01e 	bne	r4,zero,10025dc <quorem+0x84>
 100275c:	d8800017 	ldw	r2,0(sp)
 1002760:	10ffff04 	addi	r3,r2,-4
 1002764:	b8c0082e 	bgeu	r23,r3,1002788 <quorem+0x230>
 1002768:	10bfff17 	ldw	r2,-4(r2)
 100276c:	10000326 	beq	r2,zero,100277c <quorem+0x224>
 1002770:	00000506 	br	1002788 <quorem+0x230>
 1002774:	18800017 	ldw	r2,0(r3)
 1002778:	1000031e 	bne	r2,zero,1002788 <quorem+0x230>
 100277c:	18ffff04 	addi	r3,r3,-4
 1002780:	a53fffc4 	addi	r20,r20,-1
 1002784:	b8fffb36 	bltu	r23,r3,1002774 <quorem+0x21c>
 1002788:	d8c00317 	ldw	r3,12(sp)
 100278c:	1d000415 	stw	r20,16(r3)
 1002790:	003f9206 	br	10025dc <quorem+0x84>
 1002794:	0005883a 	mov	r2,zero
 1002798:	003fc106 	br	10026a0 <quorem+0x148>

0100279c <_dtoa_r>:
 100279c:	22001017 	ldw	r8,64(r4)
 10027a0:	deffda04 	addi	sp,sp,-152
 10027a4:	dd402115 	stw	r21,132(sp)
 10027a8:	dd002015 	stw	r20,128(sp)
 10027ac:	dc801e15 	stw	r18,120(sp)
 10027b0:	dc401d15 	stw	r17,116(sp)
 10027b4:	dfc02515 	stw	ra,148(sp)
 10027b8:	df002415 	stw	fp,144(sp)
 10027bc:	ddc02315 	stw	r23,140(sp)
 10027c0:	dd802215 	stw	r22,136(sp)
 10027c4:	dcc01f15 	stw	r19,124(sp)
 10027c8:	dc001c15 	stw	r16,112(sp)
 10027cc:	d9001615 	stw	r4,88(sp)
 10027d0:	3023883a 	mov	r17,r6
 10027d4:	2829883a 	mov	r20,r5
 10027d8:	d9c01715 	stw	r7,92(sp)
 10027dc:	dc802817 	ldw	r18,160(sp)
 10027e0:	302b883a 	mov	r21,r6
 10027e4:	40000a26 	beq	r8,zero,1002810 <_dtoa_r+0x74>
 10027e8:	20801117 	ldw	r2,68(r4)
 10027ec:	400b883a 	mov	r5,r8
 10027f0:	40800115 	stw	r2,4(r8)
 10027f4:	20c01117 	ldw	r3,68(r4)
 10027f8:	00800044 	movi	r2,1
 10027fc:	10c4983a 	sll	r2,r2,r3
 1002800:	40800215 	stw	r2,8(r8)
 1002804:	10059640 	call	1005964 <_Bfree>
 1002808:	d8c01617 	ldw	r3,88(sp)
 100280c:	18001015 	stw	zero,64(r3)
 1002810:	8800a316 	blt	r17,zero,1002aa0 <_dtoa_r+0x304>
 1002814:	90000015 	stw	zero,0(r18)
 1002818:	a8dffc2c 	andhi	r3,r21,32752
 100281c:	009ffc34 	movhi	r2,32752
 1002820:	18809126 	beq	r3,r2,1002a68 <_dtoa_r+0x2cc>
 1002824:	000d883a 	mov	r6,zero
 1002828:	000f883a 	mov	r7,zero
 100282c:	a009883a 	mov	r4,r20
 1002830:	a80b883a 	mov	r5,r21
 1002834:	dd001215 	stw	r20,72(sp)
 1002838:	dd401315 	stw	r21,76(sp)
 100283c:	100905c0 	call	100905c <__nedf2>
 1002840:	1000171e 	bne	r2,zero,10028a0 <_dtoa_r+0x104>
 1002844:	d9802717 	ldw	r6,156(sp)
 1002848:	00800044 	movi	r2,1
 100284c:	30800015 	stw	r2,0(r6)
 1002850:	d8802917 	ldw	r2,164(sp)
 1002854:	10029b26 	beq	r2,zero,10032c4 <_dtoa_r+0xb28>
 1002858:	d9002917 	ldw	r4,164(sp)
 100285c:	00804074 	movhi	r2,257
 1002860:	10b52644 	addi	r2,r2,-11111
 1002864:	10ffffc4 	addi	r3,r2,-1
 1002868:	20800015 	stw	r2,0(r4)
 100286c:	1805883a 	mov	r2,r3
 1002870:	dfc02517 	ldw	ra,148(sp)
 1002874:	df002417 	ldw	fp,144(sp)
 1002878:	ddc02317 	ldw	r23,140(sp)
 100287c:	dd802217 	ldw	r22,136(sp)
 1002880:	dd402117 	ldw	r21,132(sp)
 1002884:	dd002017 	ldw	r20,128(sp)
 1002888:	dcc01f17 	ldw	r19,124(sp)
 100288c:	dc801e17 	ldw	r18,120(sp)
 1002890:	dc401d17 	ldw	r17,116(sp)
 1002894:	dc001c17 	ldw	r16,112(sp)
 1002898:	dec02604 	addi	sp,sp,152
 100289c:	f800283a 	ret
 10028a0:	d9001617 	ldw	r4,88(sp)
 10028a4:	d9401217 	ldw	r5,72(sp)
 10028a8:	d8800104 	addi	r2,sp,4
 10028ac:	a80d883a 	mov	r6,r21
 10028b0:	d9c00204 	addi	r7,sp,8
 10028b4:	d8800015 	stw	r2,0(sp)
 10028b8:	1005fa00 	call	1005fa0 <__d2b>
 10028bc:	d8800715 	stw	r2,28(sp)
 10028c0:	a804d53a 	srli	r2,r21,20
 10028c4:	1101ffcc 	andi	r4,r2,2047
 10028c8:	20008626 	beq	r4,zero,1002ae4 <_dtoa_r+0x348>
 10028cc:	d8c01217 	ldw	r3,72(sp)
 10028d0:	00800434 	movhi	r2,16
 10028d4:	10bfffc4 	addi	r2,r2,-1
 10028d8:	ddc00117 	ldw	r23,4(sp)
 10028dc:	a884703a 	and	r2,r21,r2
 10028e0:	1811883a 	mov	r8,r3
 10028e4:	124ffc34 	orhi	r9,r2,16368
 10028e8:	25bf0044 	addi	r22,r4,-1023
 10028ec:	d8000815 	stw	zero,32(sp)
 10028f0:	0005883a 	mov	r2,zero
 10028f4:	00cffe34 	movhi	r3,16376
 10028f8:	480b883a 	mov	r5,r9
 10028fc:	4009883a 	mov	r4,r8
 1002900:	180f883a 	mov	r7,r3
 1002904:	100d883a 	mov	r6,r2
 1002908:	10088c40 	call	10088c4 <__subdf3>
 100290c:	0218dbf4 	movhi	r8,25455
 1002910:	4210d844 	addi	r8,r8,17249
 1002914:	024ff4f4 	movhi	r9,16339
 1002918:	4a61e9c4 	addi	r9,r9,-30809
 100291c:	480f883a 	mov	r7,r9
 1002920:	400d883a 	mov	r6,r8
 1002924:	180b883a 	mov	r5,r3
 1002928:	1009883a 	mov	r4,r2
 100292c:	10089b80 	call	10089b8 <__muldf3>
 1002930:	0222d874 	movhi	r8,35681
 1002934:	42322cc4 	addi	r8,r8,-14157
 1002938:	024ff1f4 	movhi	r9,16327
 100293c:	4a628a04 	addi	r9,r9,-30168
 1002940:	480f883a 	mov	r7,r9
 1002944:	400d883a 	mov	r6,r8
 1002948:	180b883a 	mov	r5,r3
 100294c:	1009883a 	mov	r4,r2
 1002950:	10089440 	call	1008944 <__adddf3>
 1002954:	b009883a 	mov	r4,r22
 1002958:	1021883a 	mov	r16,r2
 100295c:	1823883a 	mov	r17,r3
 1002960:	100927c0 	call	100927c <__floatsidf>
 1002964:	021427f4 	movhi	r8,20639
 1002968:	421e7ec4 	addi	r8,r8,31227
 100296c:	024ff4f4 	movhi	r9,16339
 1002970:	4a5104c4 	addi	r9,r9,17427
 1002974:	480f883a 	mov	r7,r9
 1002978:	400d883a 	mov	r6,r8
 100297c:	180b883a 	mov	r5,r3
 1002980:	1009883a 	mov	r4,r2
 1002984:	10089b80 	call	10089b8 <__muldf3>
 1002988:	180f883a 	mov	r7,r3
 100298c:	880b883a 	mov	r5,r17
 1002990:	100d883a 	mov	r6,r2
 1002994:	8009883a 	mov	r4,r16
 1002998:	10089440 	call	1008944 <__adddf3>
 100299c:	1009883a 	mov	r4,r2
 10029a0:	180b883a 	mov	r5,r3
 10029a4:	1021883a 	mov	r16,r2
 10029a8:	1823883a 	mov	r17,r3
 10029ac:	10093740 	call	1009374 <__fixdfsi>
 10029b0:	000d883a 	mov	r6,zero
 10029b4:	000f883a 	mov	r7,zero
 10029b8:	8009883a 	mov	r4,r16
 10029bc:	880b883a 	mov	r5,r17
 10029c0:	d8800d15 	stw	r2,52(sp)
 10029c4:	10091f40 	call	10091f4 <__ltdf2>
 10029c8:	10031716 	blt	r2,zero,1003628 <_dtoa_r+0xe8c>
 10029cc:	d8c00d17 	ldw	r3,52(sp)
 10029d0:	00800584 	movi	r2,22
 10029d4:	10c1482e 	bgeu	r2,r3,1002ef8 <_dtoa_r+0x75c>
 10029d8:	01000044 	movi	r4,1
 10029dc:	d9000c15 	stw	r4,48(sp)
 10029e0:	bd85c83a 	sub	r2,r23,r22
 10029e4:	11bfffc4 	addi	r6,r2,-1
 10029e8:	30030b16 	blt	r6,zero,1003618 <_dtoa_r+0xe7c>
 10029ec:	d9800a15 	stw	r6,40(sp)
 10029f0:	d8001115 	stw	zero,68(sp)
 10029f4:	d8c00d17 	ldw	r3,52(sp)
 10029f8:	1802ff16 	blt	r3,zero,10035f8 <_dtoa_r+0xe5c>
 10029fc:	d9000a17 	ldw	r4,40(sp)
 1002a00:	d8c00915 	stw	r3,36(sp)
 1002a04:	d8001015 	stw	zero,64(sp)
 1002a08:	20c9883a 	add	r4,r4,r3
 1002a0c:	d9000a15 	stw	r4,40(sp)
 1002a10:	d9001717 	ldw	r4,92(sp)
 1002a14:	00800244 	movi	r2,9
 1002a18:	11004636 	bltu	r2,r4,1002b34 <_dtoa_r+0x398>
 1002a1c:	00800144 	movi	r2,5
 1002a20:	11020416 	blt	r2,r4,1003234 <_dtoa_r+0xa98>
 1002a24:	04400044 	movi	r17,1
 1002a28:	d8c01717 	ldw	r3,92(sp)
 1002a2c:	00800144 	movi	r2,5
 1002a30:	10c1ed36 	bltu	r2,r3,10031e8 <_dtoa_r+0xa4c>
 1002a34:	18c5883a 	add	r2,r3,r3
 1002a38:	1085883a 	add	r2,r2,r2
 1002a3c:	00c04034 	movhi	r3,256
 1002a40:	18ca9404 	addi	r3,r3,10832
 1002a44:	10c5883a 	add	r2,r2,r3
 1002a48:	11000017 	ldw	r4,0(r2)
 1002a4c:	2000683a 	jmp	r4
 1002a50:	01002b3c 	xorhi	r4,zero,172
 1002a54:	01002b3c 	xorhi	r4,zero,172
 1002a58:	0100353c 	xorhi	r4,zero,212
 1002a5c:	01003514 	movui	r4,212
 1002a60:	01003558 	cmpnei	r4,zero,213
 1002a64:	01003564 	muli	r4,zero,213
 1002a68:	d9002717 	ldw	r4,156(sp)
 1002a6c:	0089c3c4 	movi	r2,9999
 1002a70:	20800015 	stw	r2,0(r4)
 1002a74:	a0001026 	beq	r20,zero,1002ab8 <_dtoa_r+0x31c>
 1002a78:	00c04074 	movhi	r3,257
 1002a7c:	18f53204 	addi	r3,r3,-11064
 1002a80:	d9802917 	ldw	r6,164(sp)
 1002a84:	303f7926 	beq	r6,zero,100286c <_dtoa_r+0xd0>
 1002a88:	188000c7 	ldb	r2,3(r3)
 1002a8c:	190000c4 	addi	r4,r3,3
 1002a90:	1000101e 	bne	r2,zero,1002ad4 <_dtoa_r+0x338>
 1002a94:	d8802917 	ldw	r2,164(sp)
 1002a98:	11000015 	stw	r4,0(r2)
 1002a9c:	003f7306 	br	100286c <_dtoa_r+0xd0>
 1002aa0:	00a00034 	movhi	r2,32768
 1002aa4:	10bfffc4 	addi	r2,r2,-1
 1002aa8:	00c00044 	movi	r3,1
 1002aac:	88aa703a 	and	r21,r17,r2
 1002ab0:	90c00015 	stw	r3,0(r18)
 1002ab4:	003f5806 	br	1002818 <_dtoa_r+0x7c>
 1002ab8:	00800434 	movhi	r2,16
 1002abc:	10bfffc4 	addi	r2,r2,-1
 1002ac0:	a884703a 	and	r2,r21,r2
 1002ac4:	103fec1e 	bne	r2,zero,1002a78 <_dtoa_r+0x2dc>
 1002ac8:	00c04074 	movhi	r3,257
 1002acc:	18f52f04 	addi	r3,r3,-11076
 1002ad0:	003feb06 	br	1002a80 <_dtoa_r+0x2e4>
 1002ad4:	d8802917 	ldw	r2,164(sp)
 1002ad8:	19000204 	addi	r4,r3,8
 1002adc:	11000015 	stw	r4,0(r2)
 1002ae0:	003f6206 	br	100286c <_dtoa_r+0xd0>
 1002ae4:	ddc00117 	ldw	r23,4(sp)
 1002ae8:	d8800217 	ldw	r2,8(sp)
 1002aec:	01000804 	movi	r4,32
 1002af0:	b8c10c84 	addi	r3,r23,1074
 1002af4:	18a3883a 	add	r17,r3,r2
 1002af8:	2441b80e 	bge	r4,r17,10031dc <_dtoa_r+0xa40>
 1002afc:	00c01004 	movi	r3,64
 1002b00:	1c47c83a 	sub	r3,r3,r17
 1002b04:	88bff804 	addi	r2,r17,-32
 1002b08:	a8c6983a 	sll	r3,r21,r3
 1002b0c:	a084d83a 	srl	r2,r20,r2
 1002b10:	1888b03a 	or	r4,r3,r2
 1002b14:	100944c0 	call	100944c <__floatunsidf>
 1002b18:	1011883a 	mov	r8,r2
 1002b1c:	00bf8434 	movhi	r2,65040
 1002b20:	01000044 	movi	r4,1
 1002b24:	10d3883a 	add	r9,r2,r3
 1002b28:	8dbef344 	addi	r22,r17,-1075
 1002b2c:	d9000815 	stw	r4,32(sp)
 1002b30:	003f6f06 	br	10028f0 <_dtoa_r+0x154>
 1002b34:	d8001715 	stw	zero,92(sp)
 1002b38:	04400044 	movi	r17,1
 1002b3c:	00bfffc4 	movi	r2,-1
 1002b40:	00c00044 	movi	r3,1
 1002b44:	d8800e15 	stw	r2,56(sp)
 1002b48:	d8002615 	stw	zero,152(sp)
 1002b4c:	d8800f15 	stw	r2,60(sp)
 1002b50:	d8c00b15 	stw	r3,44(sp)
 1002b54:	1021883a 	mov	r16,r2
 1002b58:	d8801617 	ldw	r2,88(sp)
 1002b5c:	10001115 	stw	zero,68(r2)
 1002b60:	d8801617 	ldw	r2,88(sp)
 1002b64:	11401117 	ldw	r5,68(r2)
 1002b68:	1009883a 	mov	r4,r2
 1002b6c:	1005ee40 	call	1005ee4 <_Balloc>
 1002b70:	d8c01617 	ldw	r3,88(sp)
 1002b74:	d8800515 	stw	r2,20(sp)
 1002b78:	18801015 	stw	r2,64(r3)
 1002b7c:	00800384 	movi	r2,14
 1002b80:	14006836 	bltu	r2,r16,1002d24 <_dtoa_r+0x588>
 1002b84:	8805003a 	cmpeq	r2,r17,zero
 1002b88:	1000661e 	bne	r2,zero,1002d24 <_dtoa_r+0x588>
 1002b8c:	d9000d17 	ldw	r4,52(sp)
 1002b90:	0102300e 	bge	zero,r4,1003454 <_dtoa_r+0xcb8>
 1002b94:	208003cc 	andi	r2,r4,15
 1002b98:	100490fa 	slli	r2,r2,3
 1002b9c:	2025d13a 	srai	r18,r4,4
 1002ba0:	00c04074 	movhi	r3,257
 1002ba4:	18f54404 	addi	r3,r3,-10992
 1002ba8:	10c5883a 	add	r2,r2,r3
 1002bac:	90c0040c 	andi	r3,r18,16
 1002bb0:	14000017 	ldw	r16,0(r2)
 1002bb4:	14400117 	ldw	r17,4(r2)
 1002bb8:	18036a1e 	bne	r3,zero,1003964 <_dtoa_r+0x11c8>
 1002bbc:	05800084 	movi	r22,2
 1002bc0:	90001026 	beq	r18,zero,1002c04 <_dtoa_r+0x468>
 1002bc4:	04c04074 	movhi	r19,257
 1002bc8:	9cf57604 	addi	r19,r19,-10792
 1002bcc:	9080004c 	andi	r2,r18,1
 1002bd0:	1005003a 	cmpeq	r2,r2,zero
 1002bd4:	1000081e 	bne	r2,zero,1002bf8 <_dtoa_r+0x45c>
 1002bd8:	99800017 	ldw	r6,0(r19)
 1002bdc:	99c00117 	ldw	r7,4(r19)
 1002be0:	880b883a 	mov	r5,r17
 1002be4:	8009883a 	mov	r4,r16
 1002be8:	10089b80 	call	10089b8 <__muldf3>
 1002bec:	1021883a 	mov	r16,r2
 1002bf0:	b5800044 	addi	r22,r22,1
 1002bf4:	1823883a 	mov	r17,r3
 1002bf8:	9025d07a 	srai	r18,r18,1
 1002bfc:	9cc00204 	addi	r19,r19,8
 1002c00:	903ff21e 	bne	r18,zero,1002bcc <_dtoa_r+0x430>
 1002c04:	a80b883a 	mov	r5,r21
 1002c08:	a009883a 	mov	r4,r20
 1002c0c:	880f883a 	mov	r7,r17
 1002c10:	800d883a 	mov	r6,r16
 1002c14:	1008d7c0 	call	1008d7c <__divdf3>
 1002c18:	1029883a 	mov	r20,r2
 1002c1c:	182b883a 	mov	r21,r3
 1002c20:	d8c00c17 	ldw	r3,48(sp)
 1002c24:	1805003a 	cmpeq	r2,r3,zero
 1002c28:	1000081e 	bne	r2,zero,1002c4c <_dtoa_r+0x4b0>
 1002c2c:	0005883a 	mov	r2,zero
 1002c30:	00cffc34 	movhi	r3,16368
 1002c34:	180f883a 	mov	r7,r3
 1002c38:	a009883a 	mov	r4,r20
 1002c3c:	a80b883a 	mov	r5,r21
 1002c40:	100d883a 	mov	r6,r2
 1002c44:	10091f40 	call	10091f4 <__ltdf2>
 1002c48:	1003fe16 	blt	r2,zero,1003c44 <_dtoa_r+0x14a8>
 1002c4c:	b009883a 	mov	r4,r22
 1002c50:	100927c0 	call	100927c <__floatsidf>
 1002c54:	180b883a 	mov	r5,r3
 1002c58:	1009883a 	mov	r4,r2
 1002c5c:	a00d883a 	mov	r6,r20
 1002c60:	a80f883a 	mov	r7,r21
 1002c64:	10089b80 	call	10089b8 <__muldf3>
 1002c68:	0011883a 	mov	r8,zero
 1002c6c:	02500734 	movhi	r9,16412
 1002c70:	1009883a 	mov	r4,r2
 1002c74:	180b883a 	mov	r5,r3
 1002c78:	480f883a 	mov	r7,r9
 1002c7c:	400d883a 	mov	r6,r8
 1002c80:	10089440 	call	1008944 <__adddf3>
 1002c84:	d9000f17 	ldw	r4,60(sp)
 1002c88:	102d883a 	mov	r22,r2
 1002c8c:	00bf3034 	movhi	r2,64704
 1002c90:	18b9883a 	add	fp,r3,r2
 1002c94:	e02f883a 	mov	r23,fp
 1002c98:	20028f1e 	bne	r4,zero,10036d8 <_dtoa_r+0xf3c>
 1002c9c:	0005883a 	mov	r2,zero
 1002ca0:	00d00534 	movhi	r3,16404
 1002ca4:	a009883a 	mov	r4,r20
 1002ca8:	a80b883a 	mov	r5,r21
 1002cac:	180f883a 	mov	r7,r3
 1002cb0:	100d883a 	mov	r6,r2
 1002cb4:	10088c40 	call	10088c4 <__subdf3>
 1002cb8:	1009883a 	mov	r4,r2
 1002cbc:	e00f883a 	mov	r7,fp
 1002cc0:	180b883a 	mov	r5,r3
 1002cc4:	b00d883a 	mov	r6,r22
 1002cc8:	1025883a 	mov	r18,r2
 1002ccc:	1827883a 	mov	r19,r3
 1002cd0:	10090e40 	call	10090e4 <__gtdf2>
 1002cd4:	00834f16 	blt	zero,r2,1003a14 <_dtoa_r+0x1278>
 1002cd8:	e0e0003c 	xorhi	r3,fp,32768
 1002cdc:	9009883a 	mov	r4,r18
 1002ce0:	980b883a 	mov	r5,r19
 1002ce4:	180f883a 	mov	r7,r3
 1002ce8:	b00d883a 	mov	r6,r22
 1002cec:	10091f40 	call	10091f4 <__ltdf2>
 1002cf0:	1000080e 	bge	r2,zero,1002d14 <_dtoa_r+0x578>
 1002cf4:	0027883a 	mov	r19,zero
 1002cf8:	0025883a 	mov	r18,zero
 1002cfc:	d8802617 	ldw	r2,152(sp)
 1002d00:	df000517 	ldw	fp,20(sp)
 1002d04:	d8000615 	stw	zero,24(sp)
 1002d08:	0084303a 	nor	r2,zero,r2
 1002d0c:	d8800d15 	stw	r2,52(sp)
 1002d10:	00019b06 	br	1003380 <_dtoa_r+0xbe4>
 1002d14:	d9801217 	ldw	r6,72(sp)
 1002d18:	d8801317 	ldw	r2,76(sp)
 1002d1c:	3029883a 	mov	r20,r6
 1002d20:	102b883a 	mov	r21,r2
 1002d24:	d8c00217 	ldw	r3,8(sp)
 1002d28:	18008516 	blt	r3,zero,1002f40 <_dtoa_r+0x7a4>
 1002d2c:	d9000d17 	ldw	r4,52(sp)
 1002d30:	00800384 	movi	r2,14
 1002d34:	11008216 	blt	r2,r4,1002f40 <_dtoa_r+0x7a4>
 1002d38:	200490fa 	slli	r2,r4,3
 1002d3c:	d9802617 	ldw	r6,152(sp)
 1002d40:	00c04074 	movhi	r3,257
 1002d44:	18f54404 	addi	r3,r3,-10992
 1002d48:	10c5883a 	add	r2,r2,r3
 1002d4c:	14800017 	ldw	r18,0(r2)
 1002d50:	14c00117 	ldw	r19,4(r2)
 1002d54:	30031e16 	blt	r6,zero,10039d0 <_dtoa_r+0x1234>
 1002d58:	d9000517 	ldw	r4,20(sp)
 1002d5c:	d8c00f17 	ldw	r3,60(sp)
 1002d60:	a823883a 	mov	r17,r21
 1002d64:	a021883a 	mov	r16,r20
 1002d68:	192b883a 	add	r21,r3,r4
 1002d6c:	2039883a 	mov	fp,r4
 1002d70:	00000f06 	br	1002db0 <_dtoa_r+0x614>
 1002d74:	0005883a 	mov	r2,zero
 1002d78:	00d00934 	movhi	r3,16420
 1002d7c:	5009883a 	mov	r4,r10
 1002d80:	580b883a 	mov	r5,r11
 1002d84:	180f883a 	mov	r7,r3
 1002d88:	100d883a 	mov	r6,r2
 1002d8c:	10089b80 	call	10089b8 <__muldf3>
 1002d90:	180b883a 	mov	r5,r3
 1002d94:	000d883a 	mov	r6,zero
 1002d98:	000f883a 	mov	r7,zero
 1002d9c:	1009883a 	mov	r4,r2
 1002da0:	1021883a 	mov	r16,r2
 1002da4:	1823883a 	mov	r17,r3
 1002da8:	100905c0 	call	100905c <__nedf2>
 1002dac:	10004526 	beq	r2,zero,1002ec4 <_dtoa_r+0x728>
 1002db0:	900d883a 	mov	r6,r18
 1002db4:	980f883a 	mov	r7,r19
 1002db8:	8009883a 	mov	r4,r16
 1002dbc:	880b883a 	mov	r5,r17
 1002dc0:	1008d7c0 	call	1008d7c <__divdf3>
 1002dc4:	180b883a 	mov	r5,r3
 1002dc8:	1009883a 	mov	r4,r2
 1002dcc:	10093740 	call	1009374 <__fixdfsi>
 1002dd0:	1009883a 	mov	r4,r2
 1002dd4:	1029883a 	mov	r20,r2
 1002dd8:	100927c0 	call	100927c <__floatsidf>
 1002ddc:	180f883a 	mov	r7,r3
 1002de0:	9009883a 	mov	r4,r18
 1002de4:	980b883a 	mov	r5,r19
 1002de8:	100d883a 	mov	r6,r2
 1002dec:	10089b80 	call	10089b8 <__muldf3>
 1002df0:	180f883a 	mov	r7,r3
 1002df4:	880b883a 	mov	r5,r17
 1002df8:	8009883a 	mov	r4,r16
 1002dfc:	100d883a 	mov	r6,r2
 1002e00:	10088c40 	call	10088c4 <__subdf3>
 1002e04:	1015883a 	mov	r10,r2
 1002e08:	a0800c04 	addi	r2,r20,48
 1002e0c:	e0800005 	stb	r2,0(fp)
 1002e10:	e7000044 	addi	fp,fp,1
 1002e14:	1817883a 	mov	r11,r3
 1002e18:	e57fd61e 	bne	fp,r21,1002d74 <_dtoa_r+0x5d8>
 1002e1c:	500d883a 	mov	r6,r10
 1002e20:	180f883a 	mov	r7,r3
 1002e24:	5009883a 	mov	r4,r10
 1002e28:	180b883a 	mov	r5,r3
 1002e2c:	10089440 	call	1008944 <__adddf3>
 1002e30:	100d883a 	mov	r6,r2
 1002e34:	9009883a 	mov	r4,r18
 1002e38:	980b883a 	mov	r5,r19
 1002e3c:	180f883a 	mov	r7,r3
 1002e40:	1021883a 	mov	r16,r2
 1002e44:	1823883a 	mov	r17,r3
 1002e48:	10091f40 	call	10091f4 <__ltdf2>
 1002e4c:	10000816 	blt	r2,zero,1002e70 <_dtoa_r+0x6d4>
 1002e50:	980b883a 	mov	r5,r19
 1002e54:	800d883a 	mov	r6,r16
 1002e58:	880f883a 	mov	r7,r17
 1002e5c:	9009883a 	mov	r4,r18
 1002e60:	1008fd40 	call	1008fd4 <__eqdf2>
 1002e64:	1000171e 	bne	r2,zero,1002ec4 <_dtoa_r+0x728>
 1002e68:	a080004c 	andi	r2,r20,1
 1002e6c:	10001526 	beq	r2,zero,1002ec4 <_dtoa_r+0x728>
 1002e70:	d8800d17 	ldw	r2,52(sp)
 1002e74:	d8800415 	stw	r2,16(sp)
 1002e78:	e009883a 	mov	r4,fp
 1002e7c:	213fffc4 	addi	r4,r4,-1
 1002e80:	20c00007 	ldb	r3,0(r4)
 1002e84:	00800e44 	movi	r2,57
 1002e88:	1880081e 	bne	r3,r2,1002eac <_dtoa_r+0x710>
 1002e8c:	d8800517 	ldw	r2,20(sp)
 1002e90:	113ffa1e 	bne	r2,r4,1002e7c <_dtoa_r+0x6e0>
 1002e94:	d8c00417 	ldw	r3,16(sp)
 1002e98:	d9800517 	ldw	r6,20(sp)
 1002e9c:	00800c04 	movi	r2,48
 1002ea0:	18c00044 	addi	r3,r3,1
 1002ea4:	d8c00415 	stw	r3,16(sp)
 1002ea8:	30800005 	stb	r2,0(r6)
 1002eac:	20800003 	ldbu	r2,0(r4)
 1002eb0:	d8c00417 	ldw	r3,16(sp)
 1002eb4:	27000044 	addi	fp,r4,1
 1002eb8:	10800044 	addi	r2,r2,1
 1002ebc:	d8c00d15 	stw	r3,52(sp)
 1002ec0:	20800005 	stb	r2,0(r4)
 1002ec4:	d9001617 	ldw	r4,88(sp)
 1002ec8:	d9400717 	ldw	r5,28(sp)
 1002ecc:	10059640 	call	1005964 <_Bfree>
 1002ed0:	e0000005 	stb	zero,0(fp)
 1002ed4:	d9800d17 	ldw	r6,52(sp)
 1002ed8:	d8c02717 	ldw	r3,156(sp)
 1002edc:	d9002917 	ldw	r4,164(sp)
 1002ee0:	30800044 	addi	r2,r6,1
 1002ee4:	18800015 	stw	r2,0(r3)
 1002ee8:	20029c26 	beq	r4,zero,100395c <_dtoa_r+0x11c0>
 1002eec:	d8c00517 	ldw	r3,20(sp)
 1002ef0:	27000015 	stw	fp,0(r4)
 1002ef4:	003e5d06 	br	100286c <_dtoa_r+0xd0>
 1002ef8:	d9800d17 	ldw	r6,52(sp)
 1002efc:	00c04074 	movhi	r3,257
 1002f00:	18f54404 	addi	r3,r3,-10992
 1002f04:	d9001217 	ldw	r4,72(sp)
 1002f08:	300490fa 	slli	r2,r6,3
 1002f0c:	d9401317 	ldw	r5,76(sp)
 1002f10:	10c5883a 	add	r2,r2,r3
 1002f14:	12000017 	ldw	r8,0(r2)
 1002f18:	12400117 	ldw	r9,4(r2)
 1002f1c:	400d883a 	mov	r6,r8
 1002f20:	480f883a 	mov	r7,r9
 1002f24:	10091f40 	call	10091f4 <__ltdf2>
 1002f28:	1000030e 	bge	r2,zero,1002f38 <_dtoa_r+0x79c>
 1002f2c:	d8800d17 	ldw	r2,52(sp)
 1002f30:	10bfffc4 	addi	r2,r2,-1
 1002f34:	d8800d15 	stw	r2,52(sp)
 1002f38:	d8000c15 	stw	zero,48(sp)
 1002f3c:	003ea806 	br	10029e0 <_dtoa_r+0x244>
 1002f40:	d9000b17 	ldw	r4,44(sp)
 1002f44:	202cc03a 	cmpne	r22,r4,zero
 1002f48:	b000c71e 	bne	r22,zero,1003268 <_dtoa_r+0xacc>
 1002f4c:	dc001117 	ldw	r16,68(sp)
 1002f50:	dc801017 	ldw	r18,64(sp)
 1002f54:	0027883a 	mov	r19,zero
 1002f58:	04000b0e 	bge	zero,r16,1002f88 <_dtoa_r+0x7ec>
 1002f5c:	d8c00a17 	ldw	r3,40(sp)
 1002f60:	00c0090e 	bge	zero,r3,1002f88 <_dtoa_r+0x7ec>
 1002f64:	8005883a 	mov	r2,r16
 1002f68:	1c011316 	blt	r3,r16,10033b8 <_dtoa_r+0xc1c>
 1002f6c:	d9000a17 	ldw	r4,40(sp)
 1002f70:	d9801117 	ldw	r6,68(sp)
 1002f74:	80a1c83a 	sub	r16,r16,r2
 1002f78:	2089c83a 	sub	r4,r4,r2
 1002f7c:	308dc83a 	sub	r6,r6,r2
 1002f80:	d9000a15 	stw	r4,40(sp)
 1002f84:	d9801115 	stw	r6,68(sp)
 1002f88:	d8801017 	ldw	r2,64(sp)
 1002f8c:	0080150e 	bge	zero,r2,1002fe4 <_dtoa_r+0x848>
 1002f90:	d8c00b17 	ldw	r3,44(sp)
 1002f94:	1805003a 	cmpeq	r2,r3,zero
 1002f98:	1001c91e 	bne	r2,zero,10036c0 <_dtoa_r+0xf24>
 1002f9c:	04800e0e 	bge	zero,r18,1002fd8 <_dtoa_r+0x83c>
 1002fa0:	d9001617 	ldw	r4,88(sp)
 1002fa4:	980b883a 	mov	r5,r19
 1002fa8:	900d883a 	mov	r6,r18
 1002fac:	10067b00 	call	10067b0 <__pow5mult>
 1002fb0:	d9001617 	ldw	r4,88(sp)
 1002fb4:	d9800717 	ldw	r6,28(sp)
 1002fb8:	100b883a 	mov	r5,r2
 1002fbc:	1027883a 	mov	r19,r2
 1002fc0:	10063f40 	call	10063f4 <__multiply>
 1002fc4:	d9001617 	ldw	r4,88(sp)
 1002fc8:	d9400717 	ldw	r5,28(sp)
 1002fcc:	1023883a 	mov	r17,r2
 1002fd0:	10059640 	call	1005964 <_Bfree>
 1002fd4:	dc400715 	stw	r17,28(sp)
 1002fd8:	d9001017 	ldw	r4,64(sp)
 1002fdc:	248dc83a 	sub	r6,r4,r18
 1002fe0:	30010e1e 	bne	r6,zero,100341c <_dtoa_r+0xc80>
 1002fe4:	d9001617 	ldw	r4,88(sp)
 1002fe8:	04400044 	movi	r17,1
 1002fec:	880b883a 	mov	r5,r17
 1002ff0:	10066480 	call	1006648 <__i2b>
 1002ff4:	d9800917 	ldw	r6,36(sp)
 1002ff8:	1025883a 	mov	r18,r2
 1002ffc:	0180040e 	bge	zero,r6,1003010 <_dtoa_r+0x874>
 1003000:	d9001617 	ldw	r4,88(sp)
 1003004:	100b883a 	mov	r5,r2
 1003008:	10067b00 	call	10067b0 <__pow5mult>
 100300c:	1025883a 	mov	r18,r2
 1003010:	d8801717 	ldw	r2,92(sp)
 1003014:	8880f30e 	bge	r17,r2,10033e4 <_dtoa_r+0xc48>
 1003018:	0023883a 	mov	r17,zero
 100301c:	d9800917 	ldw	r6,36(sp)
 1003020:	30019e1e 	bne	r6,zero,100369c <_dtoa_r+0xf00>
 1003024:	00c00044 	movi	r3,1
 1003028:	d9000a17 	ldw	r4,40(sp)
 100302c:	20c5883a 	add	r2,r4,r3
 1003030:	10c007cc 	andi	r3,r2,31
 1003034:	1800841e 	bne	r3,zero,1003248 <_dtoa_r+0xaac>
 1003038:	00800704 	movi	r2,28
 100303c:	d9000a17 	ldw	r4,40(sp)
 1003040:	d9801117 	ldw	r6,68(sp)
 1003044:	80a1883a 	add	r16,r16,r2
 1003048:	2089883a 	add	r4,r4,r2
 100304c:	308d883a 	add	r6,r6,r2
 1003050:	d9000a15 	stw	r4,40(sp)
 1003054:	d9801115 	stw	r6,68(sp)
 1003058:	d8801117 	ldw	r2,68(sp)
 100305c:	0080050e 	bge	zero,r2,1003074 <_dtoa_r+0x8d8>
 1003060:	d9400717 	ldw	r5,28(sp)
 1003064:	d9001617 	ldw	r4,88(sp)
 1003068:	100d883a 	mov	r6,r2
 100306c:	10062a80 	call	10062a8 <__lshift>
 1003070:	d8800715 	stw	r2,28(sp)
 1003074:	d8c00a17 	ldw	r3,40(sp)
 1003078:	00c0050e 	bge	zero,r3,1003090 <_dtoa_r+0x8f4>
 100307c:	d9001617 	ldw	r4,88(sp)
 1003080:	900b883a 	mov	r5,r18
 1003084:	180d883a 	mov	r6,r3
 1003088:	10062a80 	call	10062a8 <__lshift>
 100308c:	1025883a 	mov	r18,r2
 1003090:	d9000c17 	ldw	r4,48(sp)
 1003094:	2005003a 	cmpeq	r2,r4,zero
 1003098:	10016f26 	beq	r2,zero,1003658 <_dtoa_r+0xebc>
 100309c:	d9000f17 	ldw	r4,60(sp)
 10030a0:	0102170e 	bge	zero,r4,1003900 <_dtoa_r+0x1164>
 10030a4:	d9800b17 	ldw	r6,44(sp)
 10030a8:	3005003a 	cmpeq	r2,r6,zero
 10030ac:	1000881e 	bne	r2,zero,10032d0 <_dtoa_r+0xb34>
 10030b0:	0400050e 	bge	zero,r16,10030c8 <_dtoa_r+0x92c>
 10030b4:	d9001617 	ldw	r4,88(sp)
 10030b8:	980b883a 	mov	r5,r19
 10030bc:	800d883a 	mov	r6,r16
 10030c0:	10062a80 	call	10062a8 <__lshift>
 10030c4:	1027883a 	mov	r19,r2
 10030c8:	8804c03a 	cmpne	r2,r17,zero
 10030cc:	1002541e 	bne	r2,zero,1003a20 <_dtoa_r+0x1284>
 10030d0:	980b883a 	mov	r5,r19
 10030d4:	dd800517 	ldw	r22,20(sp)
 10030d8:	dcc00615 	stw	r19,24(sp)
 10030dc:	a700004c 	andi	fp,r20,1
 10030e0:	2827883a 	mov	r19,r5
 10030e4:	d9000717 	ldw	r4,28(sp)
 10030e8:	900b883a 	mov	r5,r18
 10030ec:	10025580 	call	1002558 <quorem>
 10030f0:	d9000717 	ldw	r4,28(sp)
 10030f4:	d9400617 	ldw	r5,24(sp)
 10030f8:	1023883a 	mov	r17,r2
 10030fc:	8dc00c04 	addi	r23,r17,48
 1003100:	1005ac00 	call	1005ac0 <__mcmp>
 1003104:	d9001617 	ldw	r4,88(sp)
 1003108:	900b883a 	mov	r5,r18
 100310c:	980d883a 	mov	r6,r19
 1003110:	1029883a 	mov	r20,r2
 1003114:	100611c0 	call	100611c <__mdiff>
 1003118:	102b883a 	mov	r21,r2
 100311c:	10800317 	ldw	r2,12(r2)
 1003120:	1001281e 	bne	r2,zero,10035c4 <_dtoa_r+0xe28>
 1003124:	d9000717 	ldw	r4,28(sp)
 1003128:	a80b883a 	mov	r5,r21
 100312c:	1005ac00 	call	1005ac0 <__mcmp>
 1003130:	d9001617 	ldw	r4,88(sp)
 1003134:	1021883a 	mov	r16,r2
 1003138:	a80b883a 	mov	r5,r21
 100313c:	10059640 	call	1005964 <_Bfree>
 1003140:	8000041e 	bne	r16,zero,1003154 <_dtoa_r+0x9b8>
 1003144:	d8801717 	ldw	r2,92(sp)
 1003148:	1000021e 	bne	r2,zero,1003154 <_dtoa_r+0x9b8>
 100314c:	e004c03a 	cmpne	r2,fp,zero
 1003150:	10011726 	beq	r2,zero,10035b0 <_dtoa_r+0xe14>
 1003154:	a0010616 	blt	r20,zero,1003570 <_dtoa_r+0xdd4>
 1003158:	a000041e 	bne	r20,zero,100316c <_dtoa_r+0x9d0>
 100315c:	d8c01717 	ldw	r3,92(sp)
 1003160:	1800021e 	bne	r3,zero,100316c <_dtoa_r+0x9d0>
 1003164:	e004c03a 	cmpne	r2,fp,zero
 1003168:	10010126 	beq	r2,zero,1003570 <_dtoa_r+0xdd4>
 100316c:	04023d16 	blt	zero,r16,1003a64 <_dtoa_r+0x12c8>
 1003170:	b5c00005 	stb	r23,0(r22)
 1003174:	d9800517 	ldw	r6,20(sp)
 1003178:	d9000f17 	ldw	r4,60(sp)
 100317c:	b5800044 	addi	r22,r22,1
 1003180:	3105883a 	add	r2,r6,r4
 1003184:	b0806526 	beq	r22,r2,100331c <_dtoa_r+0xb80>
 1003188:	d9400717 	ldw	r5,28(sp)
 100318c:	d9001617 	ldw	r4,88(sp)
 1003190:	01800284 	movi	r6,10
 1003194:	000f883a 	mov	r7,zero
 1003198:	10066840 	call	1006684 <__multadd>
 100319c:	d8800715 	stw	r2,28(sp)
 10031a0:	d8800617 	ldw	r2,24(sp)
 10031a4:	14c10c26 	beq	r2,r19,10035d8 <_dtoa_r+0xe3c>
 10031a8:	d9400617 	ldw	r5,24(sp)
 10031ac:	d9001617 	ldw	r4,88(sp)
 10031b0:	01800284 	movi	r6,10
 10031b4:	000f883a 	mov	r7,zero
 10031b8:	10066840 	call	1006684 <__multadd>
 10031bc:	d9001617 	ldw	r4,88(sp)
 10031c0:	980b883a 	mov	r5,r19
 10031c4:	01800284 	movi	r6,10
 10031c8:	000f883a 	mov	r7,zero
 10031cc:	d8800615 	stw	r2,24(sp)
 10031d0:	10066840 	call	1006684 <__multadd>
 10031d4:	1027883a 	mov	r19,r2
 10031d8:	003fc206 	br	10030e4 <_dtoa_r+0x948>
 10031dc:	2445c83a 	sub	r2,r4,r17
 10031e0:	a088983a 	sll	r4,r20,r2
 10031e4:	003e4b06 	br	1002b14 <_dtoa_r+0x378>
 10031e8:	01bfffc4 	movi	r6,-1
 10031ec:	00800044 	movi	r2,1
 10031f0:	d9800e15 	stw	r6,56(sp)
 10031f4:	d9800f15 	stw	r6,60(sp)
 10031f8:	d8800b15 	stw	r2,44(sp)
 10031fc:	d8c01617 	ldw	r3,88(sp)
 1003200:	008005c4 	movi	r2,23
 1003204:	18001115 	stw	zero,68(r3)
 1003208:	1580082e 	bgeu	r2,r22,100322c <_dtoa_r+0xa90>
 100320c:	00c00104 	movi	r3,4
 1003210:	0009883a 	mov	r4,zero
 1003214:	18c7883a 	add	r3,r3,r3
 1003218:	18800504 	addi	r2,r3,20
 100321c:	21000044 	addi	r4,r4,1
 1003220:	b0bffc2e 	bgeu	r22,r2,1003214 <_dtoa_r+0xa78>
 1003224:	d9801617 	ldw	r6,88(sp)
 1003228:	31001115 	stw	r4,68(r6)
 100322c:	dc000f17 	ldw	r16,60(sp)
 1003230:	003e4b06 	br	1002b60 <_dtoa_r+0x3c4>
 1003234:	d9801717 	ldw	r6,92(sp)
 1003238:	0023883a 	mov	r17,zero
 100323c:	31bfff04 	addi	r6,r6,-4
 1003240:	d9801715 	stw	r6,92(sp)
 1003244:	003df806 	br	1002a28 <_dtoa_r+0x28c>
 1003248:	00800804 	movi	r2,32
 100324c:	10c9c83a 	sub	r4,r2,r3
 1003250:	00c00104 	movi	r3,4
 1003254:	19005a16 	blt	r3,r4,10033c0 <_dtoa_r+0xc24>
 1003258:	008000c4 	movi	r2,3
 100325c:	113f7e16 	blt	r2,r4,1003058 <_dtoa_r+0x8bc>
 1003260:	20800704 	addi	r2,r4,28
 1003264:	003f7506 	br	100303c <_dtoa_r+0x8a0>
 1003268:	d9801717 	ldw	r6,92(sp)
 100326c:	00800044 	movi	r2,1
 1003270:	1180a10e 	bge	r2,r6,10034f8 <_dtoa_r+0xd5c>
 1003274:	d9800f17 	ldw	r6,60(sp)
 1003278:	d8c01017 	ldw	r3,64(sp)
 100327c:	30bfffc4 	addi	r2,r6,-1
 1003280:	1881c616 	blt	r3,r2,100399c <_dtoa_r+0x1200>
 1003284:	18a5c83a 	sub	r18,r3,r2
 1003288:	d8800f17 	ldw	r2,60(sp)
 100328c:	10026216 	blt	r2,zero,1003c18 <_dtoa_r+0x147c>
 1003290:	dc001117 	ldw	r16,68(sp)
 1003294:	1007883a 	mov	r3,r2
 1003298:	d9800a17 	ldw	r6,40(sp)
 100329c:	d8801117 	ldw	r2,68(sp)
 10032a0:	d9001617 	ldw	r4,88(sp)
 10032a4:	30cd883a 	add	r6,r6,r3
 10032a8:	10c5883a 	add	r2,r2,r3
 10032ac:	01400044 	movi	r5,1
 10032b0:	d9800a15 	stw	r6,40(sp)
 10032b4:	d8801115 	stw	r2,68(sp)
 10032b8:	10066480 	call	1006648 <__i2b>
 10032bc:	1027883a 	mov	r19,r2
 10032c0:	003f2506 	br	1002f58 <_dtoa_r+0x7bc>
 10032c4:	00c04074 	movhi	r3,257
 10032c8:	18f52604 	addi	r3,r3,-11112
 10032cc:	003d6706 	br	100286c <_dtoa_r+0xd0>
 10032d0:	dd800517 	ldw	r22,20(sp)
 10032d4:	04000044 	movi	r16,1
 10032d8:	00000706 	br	10032f8 <_dtoa_r+0xb5c>
 10032dc:	d9400717 	ldw	r5,28(sp)
 10032e0:	d9001617 	ldw	r4,88(sp)
 10032e4:	01800284 	movi	r6,10
 10032e8:	000f883a 	mov	r7,zero
 10032ec:	10066840 	call	1006684 <__multadd>
 10032f0:	d8800715 	stw	r2,28(sp)
 10032f4:	84000044 	addi	r16,r16,1
 10032f8:	d9000717 	ldw	r4,28(sp)
 10032fc:	900b883a 	mov	r5,r18
 1003300:	10025580 	call	1002558 <quorem>
 1003304:	15c00c04 	addi	r23,r2,48
 1003308:	b5c00005 	stb	r23,0(r22)
 100330c:	d8c00f17 	ldw	r3,60(sp)
 1003310:	b5800044 	addi	r22,r22,1
 1003314:	80fff116 	blt	r16,r3,10032dc <_dtoa_r+0xb40>
 1003318:	d8000615 	stw	zero,24(sp)
 100331c:	d9400717 	ldw	r5,28(sp)
 1003320:	d9001617 	ldw	r4,88(sp)
 1003324:	01800044 	movi	r6,1
 1003328:	10062a80 	call	10062a8 <__lshift>
 100332c:	1009883a 	mov	r4,r2
 1003330:	900b883a 	mov	r5,r18
 1003334:	d8800715 	stw	r2,28(sp)
 1003338:	1005ac00 	call	1005ac0 <__mcmp>
 100333c:	00803c0e 	bge	zero,r2,1003430 <_dtoa_r+0xc94>
 1003340:	b009883a 	mov	r4,r22
 1003344:	213fffc4 	addi	r4,r4,-1
 1003348:	21400003 	ldbu	r5,0(r4)
 100334c:	00800e44 	movi	r2,57
 1003350:	28c03fcc 	andi	r3,r5,255
 1003354:	18c0201c 	xori	r3,r3,128
 1003358:	18ffe004 	addi	r3,r3,-128
 100335c:	1881981e 	bne	r3,r2,10039c0 <_dtoa_r+0x1224>
 1003360:	d9800517 	ldw	r6,20(sp)
 1003364:	21bff71e 	bne	r4,r6,1003344 <_dtoa_r+0xba8>
 1003368:	d8800d17 	ldw	r2,52(sp)
 100336c:	37000044 	addi	fp,r6,1
 1003370:	10800044 	addi	r2,r2,1
 1003374:	d8800d15 	stw	r2,52(sp)
 1003378:	00800c44 	movi	r2,49
 100337c:	30800005 	stb	r2,0(r6)
 1003380:	d9001617 	ldw	r4,88(sp)
 1003384:	900b883a 	mov	r5,r18
 1003388:	10059640 	call	1005964 <_Bfree>
 100338c:	983ecd26 	beq	r19,zero,1002ec4 <_dtoa_r+0x728>
 1003390:	d8c00617 	ldw	r3,24(sp)
 1003394:	18000426 	beq	r3,zero,10033a8 <_dtoa_r+0xc0c>
 1003398:	1cc00326 	beq	r3,r19,10033a8 <_dtoa_r+0xc0c>
 100339c:	d9001617 	ldw	r4,88(sp)
 10033a0:	180b883a 	mov	r5,r3
 10033a4:	10059640 	call	1005964 <_Bfree>
 10033a8:	d9001617 	ldw	r4,88(sp)
 10033ac:	980b883a 	mov	r5,r19
 10033b0:	10059640 	call	1005964 <_Bfree>
 10033b4:	003ec306 	br	1002ec4 <_dtoa_r+0x728>
 10033b8:	1805883a 	mov	r2,r3
 10033bc:	003eeb06 	br	1002f6c <_dtoa_r+0x7d0>
 10033c0:	d9800a17 	ldw	r6,40(sp)
 10033c4:	d8c01117 	ldw	r3,68(sp)
 10033c8:	20bfff04 	addi	r2,r4,-4
 10033cc:	308d883a 	add	r6,r6,r2
 10033d0:	1887883a 	add	r3,r3,r2
 10033d4:	80a1883a 	add	r16,r16,r2
 10033d8:	d9800a15 	stw	r6,40(sp)
 10033dc:	d8c01115 	stw	r3,68(sp)
 10033e0:	003f1d06 	br	1003058 <_dtoa_r+0x8bc>
 10033e4:	a03f0c1e 	bne	r20,zero,1003018 <_dtoa_r+0x87c>
 10033e8:	00800434 	movhi	r2,16
 10033ec:	10bfffc4 	addi	r2,r2,-1
 10033f0:	a884703a 	and	r2,r21,r2
 10033f4:	103f081e 	bne	r2,zero,1003018 <_dtoa_r+0x87c>
 10033f8:	a89ffc2c 	andhi	r2,r21,32752
 10033fc:	103f0626 	beq	r2,zero,1003018 <_dtoa_r+0x87c>
 1003400:	d8c01117 	ldw	r3,68(sp)
 1003404:	d9000a17 	ldw	r4,40(sp)
 1003408:	18c00044 	addi	r3,r3,1
 100340c:	21000044 	addi	r4,r4,1
 1003410:	d8c01115 	stw	r3,68(sp)
 1003414:	d9000a15 	stw	r4,40(sp)
 1003418:	003f0006 	br	100301c <_dtoa_r+0x880>
 100341c:	d9400717 	ldw	r5,28(sp)
 1003420:	d9001617 	ldw	r4,88(sp)
 1003424:	10067b00 	call	10067b0 <__pow5mult>
 1003428:	d8800715 	stw	r2,28(sp)
 100342c:	003eed06 	br	1002fe4 <_dtoa_r+0x848>
 1003430:	1000021e 	bne	r2,zero,100343c <_dtoa_r+0xca0>
 1003434:	b880004c 	andi	r2,r23,1
 1003438:	103fc11e 	bne	r2,zero,1003340 <_dtoa_r+0xba4>
 100343c:	b5bfffc4 	addi	r22,r22,-1
 1003440:	b0c00007 	ldb	r3,0(r22)
 1003444:	00800c04 	movi	r2,48
 1003448:	18bffc26 	beq	r3,r2,100343c <_dtoa_r+0xca0>
 100344c:	b7000044 	addi	fp,r22,1
 1003450:	003fcb06 	br	1003380 <_dtoa_r+0xbe4>
 1003454:	d9800d17 	ldw	r6,52(sp)
 1003458:	018fc83a 	sub	r7,zero,r6
 100345c:	3801f726 	beq	r7,zero,1003c3c <_dtoa_r+0x14a0>
 1003460:	398003cc 	andi	r6,r7,15
 1003464:	300c90fa 	slli	r6,r6,3
 1003468:	01404074 	movhi	r5,257
 100346c:	29754404 	addi	r5,r5,-10992
 1003470:	d9001217 	ldw	r4,72(sp)
 1003474:	314d883a 	add	r6,r6,r5
 1003478:	30c00117 	ldw	r3,4(r6)
 100347c:	30800017 	ldw	r2,0(r6)
 1003480:	d9401317 	ldw	r5,76(sp)
 1003484:	3821d13a 	srai	r16,r7,4
 1003488:	100d883a 	mov	r6,r2
 100348c:	180f883a 	mov	r7,r3
 1003490:	10089b80 	call	10089b8 <__muldf3>
 1003494:	1011883a 	mov	r8,r2
 1003498:	1813883a 	mov	r9,r3
 100349c:	1029883a 	mov	r20,r2
 10034a0:	182b883a 	mov	r21,r3
 10034a4:	8001e526 	beq	r16,zero,1003c3c <_dtoa_r+0x14a0>
 10034a8:	05800084 	movi	r22,2
 10034ac:	04404074 	movhi	r17,257
 10034b0:	8c757604 	addi	r17,r17,-10792
 10034b4:	8080004c 	andi	r2,r16,1
 10034b8:	1005003a 	cmpeq	r2,r2,zero
 10034bc:	1000081e 	bne	r2,zero,10034e0 <_dtoa_r+0xd44>
 10034c0:	89800017 	ldw	r6,0(r17)
 10034c4:	89c00117 	ldw	r7,4(r17)
 10034c8:	480b883a 	mov	r5,r9
 10034cc:	4009883a 	mov	r4,r8
 10034d0:	10089b80 	call	10089b8 <__muldf3>
 10034d4:	1011883a 	mov	r8,r2
 10034d8:	b5800044 	addi	r22,r22,1
 10034dc:	1813883a 	mov	r9,r3
 10034e0:	8021d07a 	srai	r16,r16,1
 10034e4:	8c400204 	addi	r17,r17,8
 10034e8:	803ff21e 	bne	r16,zero,10034b4 <_dtoa_r+0xd18>
 10034ec:	4029883a 	mov	r20,r8
 10034f0:	482b883a 	mov	r21,r9
 10034f4:	003dca06 	br	1002c20 <_dtoa_r+0x484>
 10034f8:	d9000817 	ldw	r4,32(sp)
 10034fc:	2005003a 	cmpeq	r2,r4,zero
 1003500:	1001f61e 	bne	r2,zero,1003cdc <_dtoa_r+0x1540>
 1003504:	dc001117 	ldw	r16,68(sp)
 1003508:	dc801017 	ldw	r18,64(sp)
 100350c:	18c10cc4 	addi	r3,r3,1075
 1003510:	003f6106 	br	1003298 <_dtoa_r+0xafc>
 1003514:	d8000b15 	stw	zero,44(sp)
 1003518:	d9802617 	ldw	r6,152(sp)
 100351c:	d8c00d17 	ldw	r3,52(sp)
 1003520:	30800044 	addi	r2,r6,1
 1003524:	18ad883a 	add	r22,r3,r2
 1003528:	b13fffc4 	addi	r4,r22,-1
 100352c:	d9000e15 	stw	r4,56(sp)
 1003530:	0581f60e 	bge	zero,r22,1003d0c <_dtoa_r+0x1570>
 1003534:	dd800f15 	stw	r22,60(sp)
 1003538:	003f3006 	br	10031fc <_dtoa_r+0xa60>
 100353c:	d8000b15 	stw	zero,44(sp)
 1003540:	d9002617 	ldw	r4,152(sp)
 1003544:	0101eb0e 	bge	zero,r4,1003cf4 <_dtoa_r+0x1558>
 1003548:	202d883a 	mov	r22,r4
 100354c:	d9000e15 	stw	r4,56(sp)
 1003550:	d9000f15 	stw	r4,60(sp)
 1003554:	003f2906 	br	10031fc <_dtoa_r+0xa60>
 1003558:	01800044 	movi	r6,1
 100355c:	d9800b15 	stw	r6,44(sp)
 1003560:	003ff706 	br	1003540 <_dtoa_r+0xda4>
 1003564:	01000044 	movi	r4,1
 1003568:	d9000b15 	stw	r4,44(sp)
 100356c:	003fea06 	br	1003518 <_dtoa_r+0xd7c>
 1003570:	04000c0e 	bge	zero,r16,10035a4 <_dtoa_r+0xe08>
 1003574:	d9400717 	ldw	r5,28(sp)
 1003578:	d9001617 	ldw	r4,88(sp)
 100357c:	01800044 	movi	r6,1
 1003580:	10062a80 	call	10062a8 <__lshift>
 1003584:	1009883a 	mov	r4,r2
 1003588:	900b883a 	mov	r5,r18
 100358c:	d8800715 	stw	r2,28(sp)
 1003590:	1005ac00 	call	1005ac0 <__mcmp>
 1003594:	0081e00e 	bge	zero,r2,1003d18 <_dtoa_r+0x157c>
 1003598:	bdc00044 	addi	r23,r23,1
 100359c:	00800e84 	movi	r2,58
 10035a0:	b881a226 	beq	r23,r2,1003c2c <_dtoa_r+0x1490>
 10035a4:	b7000044 	addi	fp,r22,1
 10035a8:	b5c00005 	stb	r23,0(r22)
 10035ac:	003f7406 	br	1003380 <_dtoa_r+0xbe4>
 10035b0:	00800e44 	movi	r2,57
 10035b4:	b8819d26 	beq	r23,r2,1003c2c <_dtoa_r+0x1490>
 10035b8:	053ffa0e 	bge	zero,r20,10035a4 <_dtoa_r+0xe08>
 10035bc:	8dc00c44 	addi	r23,r17,49
 10035c0:	003ff806 	br	10035a4 <_dtoa_r+0xe08>
 10035c4:	d9001617 	ldw	r4,88(sp)
 10035c8:	a80b883a 	mov	r5,r21
 10035cc:	04000044 	movi	r16,1
 10035d0:	10059640 	call	1005964 <_Bfree>
 10035d4:	003edf06 	br	1003154 <_dtoa_r+0x9b8>
 10035d8:	d9001617 	ldw	r4,88(sp)
 10035dc:	980b883a 	mov	r5,r19
 10035e0:	01800284 	movi	r6,10
 10035e4:	000f883a 	mov	r7,zero
 10035e8:	10066840 	call	1006684 <__multadd>
 10035ec:	1027883a 	mov	r19,r2
 10035f0:	d8800615 	stw	r2,24(sp)
 10035f4:	003ebb06 	br	10030e4 <_dtoa_r+0x948>
 10035f8:	d9801117 	ldw	r6,68(sp)
 10035fc:	d8800d17 	ldw	r2,52(sp)
 1003600:	d8000915 	stw	zero,36(sp)
 1003604:	308dc83a 	sub	r6,r6,r2
 1003608:	0087c83a 	sub	r3,zero,r2
 100360c:	d9801115 	stw	r6,68(sp)
 1003610:	d8c01015 	stw	r3,64(sp)
 1003614:	003cfe06 	br	1002a10 <_dtoa_r+0x274>
 1003618:	018dc83a 	sub	r6,zero,r6
 100361c:	d9801115 	stw	r6,68(sp)
 1003620:	d8000a15 	stw	zero,40(sp)
 1003624:	003cf306 	br	10029f4 <_dtoa_r+0x258>
 1003628:	d9000d17 	ldw	r4,52(sp)
 100362c:	100927c0 	call	100927c <__floatsidf>
 1003630:	880b883a 	mov	r5,r17
 1003634:	8009883a 	mov	r4,r16
 1003638:	180f883a 	mov	r7,r3
 100363c:	100d883a 	mov	r6,r2
 1003640:	100905c0 	call	100905c <__nedf2>
 1003644:	103ce126 	beq	r2,zero,10029cc <_dtoa_r+0x230>
 1003648:	d9800d17 	ldw	r6,52(sp)
 100364c:	31bfffc4 	addi	r6,r6,-1
 1003650:	d9800d15 	stw	r6,52(sp)
 1003654:	003cdd06 	br	10029cc <_dtoa_r+0x230>
 1003658:	d9000717 	ldw	r4,28(sp)
 100365c:	900b883a 	mov	r5,r18
 1003660:	1005ac00 	call	1005ac0 <__mcmp>
 1003664:	103e8d0e 	bge	r2,zero,100309c <_dtoa_r+0x900>
 1003668:	d9400717 	ldw	r5,28(sp)
 100366c:	d9001617 	ldw	r4,88(sp)
 1003670:	01800284 	movi	r6,10
 1003674:	000f883a 	mov	r7,zero
 1003678:	10066840 	call	1006684 <__multadd>
 100367c:	d9800d17 	ldw	r6,52(sp)
 1003680:	d8800715 	stw	r2,28(sp)
 1003684:	31bfffc4 	addi	r6,r6,-1
 1003688:	d9800d15 	stw	r6,52(sp)
 100368c:	b001a71e 	bne	r22,zero,1003d2c <_dtoa_r+0x1590>
 1003690:	d8800e17 	ldw	r2,56(sp)
 1003694:	d8800f15 	stw	r2,60(sp)
 1003698:	003e8006 	br	100309c <_dtoa_r+0x900>
 100369c:	90800417 	ldw	r2,16(r18)
 10036a0:	1085883a 	add	r2,r2,r2
 10036a4:	1085883a 	add	r2,r2,r2
 10036a8:	1485883a 	add	r2,r2,r18
 10036ac:	11000417 	ldw	r4,16(r2)
 10036b0:	100598c0 	call	100598c <__hi0bits>
 10036b4:	00c00804 	movi	r3,32
 10036b8:	1887c83a 	sub	r3,r3,r2
 10036bc:	003e5a06 	br	1003028 <_dtoa_r+0x88c>
 10036c0:	d9400717 	ldw	r5,28(sp)
 10036c4:	d9801017 	ldw	r6,64(sp)
 10036c8:	d9001617 	ldw	r4,88(sp)
 10036cc:	10067b00 	call	10067b0 <__pow5mult>
 10036d0:	d8800715 	stw	r2,28(sp)
 10036d4:	003e4306 	br	1002fe4 <_dtoa_r+0x848>
 10036d8:	d9800f17 	ldw	r6,60(sp)
 10036dc:	d8800d17 	ldw	r2,52(sp)
 10036e0:	d9800315 	stw	r6,12(sp)
 10036e4:	d8800415 	stw	r2,16(sp)
 10036e8:	d8c00b17 	ldw	r3,44(sp)
 10036ec:	1805003a 	cmpeq	r2,r3,zero
 10036f0:	1000e21e 	bne	r2,zero,1003a7c <_dtoa_r+0x12e0>
 10036f4:	d9000317 	ldw	r4,12(sp)
 10036f8:	0005883a 	mov	r2,zero
 10036fc:	00cff834 	movhi	r3,16352
 1003700:	200c90fa 	slli	r6,r4,3
 1003704:	01004074 	movhi	r4,257
 1003708:	21354404 	addi	r4,r4,-10992
 100370c:	180b883a 	mov	r5,r3
 1003710:	310d883a 	add	r6,r6,r4
 1003714:	327fff17 	ldw	r9,-4(r6)
 1003718:	323ffe17 	ldw	r8,-8(r6)
 100371c:	1009883a 	mov	r4,r2
 1003720:	480f883a 	mov	r7,r9
 1003724:	400d883a 	mov	r6,r8
 1003728:	1008d7c0 	call	1008d7c <__divdf3>
 100372c:	180b883a 	mov	r5,r3
 1003730:	b00d883a 	mov	r6,r22
 1003734:	b80f883a 	mov	r7,r23
 1003738:	1009883a 	mov	r4,r2
 100373c:	10088c40 	call	10088c4 <__subdf3>
 1003740:	a80b883a 	mov	r5,r21
 1003744:	a009883a 	mov	r4,r20
 1003748:	d8c01915 	stw	r3,100(sp)
 100374c:	d8801815 	stw	r2,96(sp)
 1003750:	10093740 	call	1009374 <__fixdfsi>
 1003754:	1009883a 	mov	r4,r2
 1003758:	1027883a 	mov	r19,r2
 100375c:	100927c0 	call	100927c <__floatsidf>
 1003760:	a80b883a 	mov	r5,r21
 1003764:	a009883a 	mov	r4,r20
 1003768:	180f883a 	mov	r7,r3
 100376c:	100d883a 	mov	r6,r2
 1003770:	10088c40 	call	10088c4 <__subdf3>
 1003774:	d9801817 	ldw	r6,96(sp)
 1003778:	1823883a 	mov	r17,r3
 100377c:	d8801415 	stw	r2,80(sp)
 1003780:	302d883a 	mov	r22,r6
 1003784:	d9800517 	ldw	r6,20(sp)
 1003788:	9cc00c04 	addi	r19,r19,48
 100378c:	dc401515 	stw	r17,84(sp)
 1003790:	d8c01917 	ldw	r3,100(sp)
 1003794:	34c00005 	stb	r19,0(r6)
 1003798:	d8800517 	ldw	r2,20(sp)
 100379c:	d9401917 	ldw	r5,100(sp)
 10037a0:	d9801417 	ldw	r6,80(sp)
 10037a4:	b009883a 	mov	r4,r22
 10037a8:	880f883a 	mov	r7,r17
 10037ac:	182f883a 	mov	r23,r3
 10037b0:	17000044 	addi	fp,r2,1
 10037b4:	10090e40 	call	10090e4 <__gtdf2>
 10037b8:	00804e16 	blt	zero,r2,10038f4 <_dtoa_r+0x1158>
 10037bc:	d9801417 	ldw	r6,80(sp)
 10037c0:	0005883a 	mov	r2,zero
 10037c4:	00cffc34 	movhi	r3,16368
 10037c8:	180b883a 	mov	r5,r3
 10037cc:	880f883a 	mov	r7,r17
 10037d0:	1009883a 	mov	r4,r2
 10037d4:	10088c40 	call	10088c4 <__subdf3>
 10037d8:	d9401917 	ldw	r5,100(sp)
 10037dc:	180f883a 	mov	r7,r3
 10037e0:	b009883a 	mov	r4,r22
 10037e4:	100d883a 	mov	r6,r2
 10037e8:	10090e40 	call	10090e4 <__gtdf2>
 10037ec:	00bda216 	blt	zero,r2,1002e78 <_dtoa_r+0x6dc>
 10037f0:	d8c00317 	ldw	r3,12(sp)
 10037f4:	00800044 	movi	r2,1
 10037f8:	10c01216 	blt	r2,r3,1003844 <_dtoa_r+0x10a8>
 10037fc:	003d4506 	br	1002d14 <_dtoa_r+0x578>
 1003800:	d9801417 	ldw	r6,80(sp)
 1003804:	0005883a 	mov	r2,zero
 1003808:	00cffc34 	movhi	r3,16368
 100380c:	180b883a 	mov	r5,r3
 1003810:	880f883a 	mov	r7,r17
 1003814:	1009883a 	mov	r4,r2
 1003818:	10088c40 	call	10088c4 <__subdf3>
 100381c:	d9c01b17 	ldw	r7,108(sp)
 1003820:	180b883a 	mov	r5,r3
 1003824:	1009883a 	mov	r4,r2
 1003828:	b00d883a 	mov	r6,r22
 100382c:	10091f40 	call	10091f4 <__ltdf2>
 1003830:	103d9116 	blt	r2,zero,1002e78 <_dtoa_r+0x6dc>
 1003834:	d9800517 	ldw	r6,20(sp)
 1003838:	d9000317 	ldw	r4,12(sp)
 100383c:	3105883a 	add	r2,r6,r4
 1003840:	e0bd3426 	beq	fp,r2,1002d14 <_dtoa_r+0x578>
 1003844:	04500934 	movhi	r17,16420
 1003848:	0021883a 	mov	r16,zero
 100384c:	b80b883a 	mov	r5,r23
 1003850:	b009883a 	mov	r4,r22
 1003854:	800d883a 	mov	r6,r16
 1003858:	880f883a 	mov	r7,r17
 100385c:	10089b80 	call	10089b8 <__muldf3>
 1003860:	d9401517 	ldw	r5,84(sp)
 1003864:	d9001417 	ldw	r4,80(sp)
 1003868:	880f883a 	mov	r7,r17
 100386c:	000d883a 	mov	r6,zero
 1003870:	d8801a15 	stw	r2,104(sp)
 1003874:	d8c01b15 	stw	r3,108(sp)
 1003878:	10089b80 	call	10089b8 <__muldf3>
 100387c:	180b883a 	mov	r5,r3
 1003880:	1009883a 	mov	r4,r2
 1003884:	1823883a 	mov	r17,r3
 1003888:	1021883a 	mov	r16,r2
 100388c:	10093740 	call	1009374 <__fixdfsi>
 1003890:	1009883a 	mov	r4,r2
 1003894:	102b883a 	mov	r21,r2
 1003898:	100927c0 	call	100927c <__floatsidf>
 100389c:	880b883a 	mov	r5,r17
 10038a0:	8009883a 	mov	r4,r16
 10038a4:	180f883a 	mov	r7,r3
 10038a8:	100d883a 	mov	r6,r2
 10038ac:	10088c40 	call	10088c4 <__subdf3>
 10038b0:	1021883a 	mov	r16,r2
 10038b4:	d9001b17 	ldw	r4,108(sp)
 10038b8:	1823883a 	mov	r17,r3
 10038bc:	dc001415 	stw	r16,80(sp)
 10038c0:	ad400c04 	addi	r21,r21,48
 10038c4:	dc401515 	stw	r17,84(sp)
 10038c8:	d8801a17 	ldw	r2,104(sp)
 10038cc:	e5400005 	stb	r21,0(fp)
 10038d0:	202f883a 	mov	r23,r4
 10038d4:	d9c01b17 	ldw	r7,108(sp)
 10038d8:	d9001417 	ldw	r4,80(sp)
 10038dc:	880b883a 	mov	r5,r17
 10038e0:	100d883a 	mov	r6,r2
 10038e4:	102d883a 	mov	r22,r2
 10038e8:	e7000044 	addi	fp,fp,1
 10038ec:	10091f40 	call	10091f4 <__ltdf2>
 10038f0:	103fc30e 	bge	r2,zero,1003800 <_dtoa_r+0x1064>
 10038f4:	d9000417 	ldw	r4,16(sp)
 10038f8:	d9000d15 	stw	r4,52(sp)
 10038fc:	003d7106 	br	1002ec4 <_dtoa_r+0x728>
 1003900:	d9801717 	ldw	r6,92(sp)
 1003904:	00800084 	movi	r2,2
 1003908:	11bde60e 	bge	r2,r6,10030a4 <_dtoa_r+0x908>
 100390c:	203cfb1e 	bne	r4,zero,1002cfc <_dtoa_r+0x560>
 1003910:	d9001617 	ldw	r4,88(sp)
 1003914:	900b883a 	mov	r5,r18
 1003918:	01800144 	movi	r6,5
 100391c:	000f883a 	mov	r7,zero
 1003920:	10066840 	call	1006684 <__multadd>
 1003924:	d9000717 	ldw	r4,28(sp)
 1003928:	100b883a 	mov	r5,r2
 100392c:	1025883a 	mov	r18,r2
 1003930:	1005ac00 	call	1005ac0 <__mcmp>
 1003934:	00bcf10e 	bge	zero,r2,1002cfc <_dtoa_r+0x560>
 1003938:	d8c00d17 	ldw	r3,52(sp)
 100393c:	d9000517 	ldw	r4,20(sp)
 1003940:	d8000615 	stw	zero,24(sp)
 1003944:	18c00044 	addi	r3,r3,1
 1003948:	d8c00d15 	stw	r3,52(sp)
 100394c:	00800c44 	movi	r2,49
 1003950:	27000044 	addi	fp,r4,1
 1003954:	20800005 	stb	r2,0(r4)
 1003958:	003e8906 	br	1003380 <_dtoa_r+0xbe4>
 100395c:	d8c00517 	ldw	r3,20(sp)
 1003960:	003bc206 	br	100286c <_dtoa_r+0xd0>
 1003964:	01804074 	movhi	r6,257
 1003968:	31b57604 	addi	r6,r6,-10792
 100396c:	30c00917 	ldw	r3,36(r6)
 1003970:	30800817 	ldw	r2,32(r6)
 1003974:	d9001217 	ldw	r4,72(sp)
 1003978:	d9401317 	ldw	r5,76(sp)
 100397c:	180f883a 	mov	r7,r3
 1003980:	100d883a 	mov	r6,r2
 1003984:	1008d7c0 	call	1008d7c <__divdf3>
 1003988:	948003cc 	andi	r18,r18,15
 100398c:	058000c4 	movi	r22,3
 1003990:	1029883a 	mov	r20,r2
 1003994:	182b883a 	mov	r21,r3
 1003998:	003c8906 	br	1002bc0 <_dtoa_r+0x424>
 100399c:	d9001017 	ldw	r4,64(sp)
 10039a0:	d9800917 	ldw	r6,36(sp)
 10039a4:	0025883a 	mov	r18,zero
 10039a8:	1105c83a 	sub	r2,r2,r4
 10039ac:	2089883a 	add	r4,r4,r2
 10039b0:	308d883a 	add	r6,r6,r2
 10039b4:	d9001015 	stw	r4,64(sp)
 10039b8:	d9800915 	stw	r6,36(sp)
 10039bc:	003e3206 	br	1003288 <_dtoa_r+0xaec>
 10039c0:	28800044 	addi	r2,r5,1
 10039c4:	27000044 	addi	fp,r4,1
 10039c8:	20800005 	stb	r2,0(r4)
 10039cc:	003e6c06 	br	1003380 <_dtoa_r+0xbe4>
 10039d0:	d8800f17 	ldw	r2,60(sp)
 10039d4:	00bce016 	blt	zero,r2,1002d58 <_dtoa_r+0x5bc>
 10039d8:	d9800f17 	ldw	r6,60(sp)
 10039dc:	303cc51e 	bne	r6,zero,1002cf4 <_dtoa_r+0x558>
 10039e0:	0005883a 	mov	r2,zero
 10039e4:	00d00534 	movhi	r3,16404
 10039e8:	980b883a 	mov	r5,r19
 10039ec:	180f883a 	mov	r7,r3
 10039f0:	9009883a 	mov	r4,r18
 10039f4:	100d883a 	mov	r6,r2
 10039f8:	10089b80 	call	10089b8 <__muldf3>
 10039fc:	180b883a 	mov	r5,r3
 1003a00:	a80f883a 	mov	r7,r21
 1003a04:	1009883a 	mov	r4,r2
 1003a08:	a00d883a 	mov	r6,r20
 1003a0c:	100916c0 	call	100916c <__gedf2>
 1003a10:	103cb80e 	bge	r2,zero,1002cf4 <_dtoa_r+0x558>
 1003a14:	0027883a 	mov	r19,zero
 1003a18:	0025883a 	mov	r18,zero
 1003a1c:	003fc606 	br	1003938 <_dtoa_r+0x119c>
 1003a20:	99400117 	ldw	r5,4(r19)
 1003a24:	d9001617 	ldw	r4,88(sp)
 1003a28:	1005ee40 	call	1005ee4 <_Balloc>
 1003a2c:	99800417 	ldw	r6,16(r19)
 1003a30:	11000304 	addi	r4,r2,12
 1003a34:	99400304 	addi	r5,r19,12
 1003a38:	318d883a 	add	r6,r6,r6
 1003a3c:	318d883a 	add	r6,r6,r6
 1003a40:	31800204 	addi	r6,r6,8
 1003a44:	1023883a 	mov	r17,r2
 1003a48:	100574c0 	call	100574c <memcpy>
 1003a4c:	d9001617 	ldw	r4,88(sp)
 1003a50:	880b883a 	mov	r5,r17
 1003a54:	01800044 	movi	r6,1
 1003a58:	10062a80 	call	10062a8 <__lshift>
 1003a5c:	100b883a 	mov	r5,r2
 1003a60:	003d9c06 	br	10030d4 <_dtoa_r+0x938>
 1003a64:	00800e44 	movi	r2,57
 1003a68:	b8807026 	beq	r23,r2,1003c2c <_dtoa_r+0x1490>
 1003a6c:	b8800044 	addi	r2,r23,1
 1003a70:	b7000044 	addi	fp,r22,1
 1003a74:	b0800005 	stb	r2,0(r22)
 1003a78:	003e4106 	br	1003380 <_dtoa_r+0xbe4>
 1003a7c:	d8800317 	ldw	r2,12(sp)
 1003a80:	01804074 	movhi	r6,257
 1003a84:	31b54404 	addi	r6,r6,-10992
 1003a88:	b009883a 	mov	r4,r22
 1003a8c:	100e90fa 	slli	r7,r2,3
 1003a90:	b80b883a 	mov	r5,r23
 1003a94:	398f883a 	add	r7,r7,r6
 1003a98:	38bffe17 	ldw	r2,-8(r7)
 1003a9c:	d9800517 	ldw	r6,20(sp)
 1003aa0:	38ffff17 	ldw	r3,-4(r7)
 1003aa4:	37000044 	addi	fp,r6,1
 1003aa8:	180f883a 	mov	r7,r3
 1003aac:	100d883a 	mov	r6,r2
 1003ab0:	10089b80 	call	10089b8 <__muldf3>
 1003ab4:	a80b883a 	mov	r5,r21
 1003ab8:	a009883a 	mov	r4,r20
 1003abc:	182f883a 	mov	r23,r3
 1003ac0:	102d883a 	mov	r22,r2
 1003ac4:	10093740 	call	1009374 <__fixdfsi>
 1003ac8:	1009883a 	mov	r4,r2
 1003acc:	1027883a 	mov	r19,r2
 1003ad0:	100927c0 	call	100927c <__floatsidf>
 1003ad4:	a80b883a 	mov	r5,r21
 1003ad8:	a009883a 	mov	r4,r20
 1003adc:	180f883a 	mov	r7,r3
 1003ae0:	100d883a 	mov	r6,r2
 1003ae4:	10088c40 	call	10088c4 <__subdf3>
 1003ae8:	180b883a 	mov	r5,r3
 1003aec:	d8c00517 	ldw	r3,20(sp)
 1003af0:	9cc00c04 	addi	r19,r19,48
 1003af4:	1009883a 	mov	r4,r2
 1003af8:	1cc00005 	stb	r19,0(r3)
 1003afc:	2021883a 	mov	r16,r4
 1003b00:	d9000317 	ldw	r4,12(sp)
 1003b04:	00800044 	movi	r2,1
 1003b08:	2823883a 	mov	r17,r5
 1003b0c:	20802226 	beq	r4,r2,1003b98 <_dtoa_r+0x13fc>
 1003b10:	1029883a 	mov	r20,r2
 1003b14:	0005883a 	mov	r2,zero
 1003b18:	00d00934 	movhi	r3,16420
 1003b1c:	180f883a 	mov	r7,r3
 1003b20:	100d883a 	mov	r6,r2
 1003b24:	880b883a 	mov	r5,r17
 1003b28:	8009883a 	mov	r4,r16
 1003b2c:	10089b80 	call	10089b8 <__muldf3>
 1003b30:	180b883a 	mov	r5,r3
 1003b34:	1009883a 	mov	r4,r2
 1003b38:	1823883a 	mov	r17,r3
 1003b3c:	1021883a 	mov	r16,r2
 1003b40:	10093740 	call	1009374 <__fixdfsi>
 1003b44:	1009883a 	mov	r4,r2
 1003b48:	102b883a 	mov	r21,r2
 1003b4c:	100927c0 	call	100927c <__floatsidf>
 1003b50:	880b883a 	mov	r5,r17
 1003b54:	8009883a 	mov	r4,r16
 1003b58:	180f883a 	mov	r7,r3
 1003b5c:	100d883a 	mov	r6,r2
 1003b60:	10088c40 	call	10088c4 <__subdf3>
 1003b64:	180b883a 	mov	r5,r3
 1003b68:	d8c00517 	ldw	r3,20(sp)
 1003b6c:	1009883a 	mov	r4,r2
 1003b70:	ad400c04 	addi	r21,r21,48
 1003b74:	1d05883a 	add	r2,r3,r20
 1003b78:	15400005 	stb	r21,0(r2)
 1003b7c:	2021883a 	mov	r16,r4
 1003b80:	d9000317 	ldw	r4,12(sp)
 1003b84:	a5000044 	addi	r20,r20,1
 1003b88:	2823883a 	mov	r17,r5
 1003b8c:	a13fe11e 	bne	r20,r4,1003b14 <_dtoa_r+0x1378>
 1003b90:	e505883a 	add	r2,fp,r20
 1003b94:	173fffc4 	addi	fp,r2,-1
 1003b98:	0025883a 	mov	r18,zero
 1003b9c:	04cff834 	movhi	r19,16352
 1003ba0:	b009883a 	mov	r4,r22
 1003ba4:	b80b883a 	mov	r5,r23
 1003ba8:	900d883a 	mov	r6,r18
 1003bac:	980f883a 	mov	r7,r19
 1003bb0:	10089440 	call	1008944 <__adddf3>
 1003bb4:	180b883a 	mov	r5,r3
 1003bb8:	1009883a 	mov	r4,r2
 1003bbc:	800d883a 	mov	r6,r16
 1003bc0:	880f883a 	mov	r7,r17
 1003bc4:	10091f40 	call	10091f4 <__ltdf2>
 1003bc8:	103cab16 	blt	r2,zero,1002e78 <_dtoa_r+0x6dc>
 1003bcc:	0009883a 	mov	r4,zero
 1003bd0:	980b883a 	mov	r5,r19
 1003bd4:	b80f883a 	mov	r7,r23
 1003bd8:	b00d883a 	mov	r6,r22
 1003bdc:	10088c40 	call	10088c4 <__subdf3>
 1003be0:	180b883a 	mov	r5,r3
 1003be4:	880f883a 	mov	r7,r17
 1003be8:	1009883a 	mov	r4,r2
 1003bec:	800d883a 	mov	r6,r16
 1003bf0:	10090e40 	call	10090e4 <__gtdf2>
 1003bf4:	00bc470e 	bge	zero,r2,1002d14 <_dtoa_r+0x578>
 1003bf8:	00c00c04 	movi	r3,48
 1003bfc:	e73fffc4 	addi	fp,fp,-1
 1003c00:	e0800007 	ldb	r2,0(fp)
 1003c04:	10fffd26 	beq	r2,r3,1003bfc <_dtoa_r+0x1460>
 1003c08:	d9800417 	ldw	r6,16(sp)
 1003c0c:	e7000044 	addi	fp,fp,1
 1003c10:	d9800d15 	stw	r6,52(sp)
 1003c14:	003cab06 	br	1002ec4 <_dtoa_r+0x728>
 1003c18:	d8c00f17 	ldw	r3,60(sp)
 1003c1c:	d9001117 	ldw	r4,68(sp)
 1003c20:	20e1c83a 	sub	r16,r4,r3
 1003c24:	0007883a 	mov	r3,zero
 1003c28:	003d9b06 	br	1003298 <_dtoa_r+0xafc>
 1003c2c:	00800e44 	movi	r2,57
 1003c30:	b0800005 	stb	r2,0(r22)
 1003c34:	b5800044 	addi	r22,r22,1
 1003c38:	003dc106 	br	1003340 <_dtoa_r+0xba4>
 1003c3c:	05800084 	movi	r22,2
 1003c40:	003bf706 	br	1002c20 <_dtoa_r+0x484>
 1003c44:	d9000f17 	ldw	r4,60(sp)
 1003c48:	013c000e 	bge	zero,r4,1002c4c <_dtoa_r+0x4b0>
 1003c4c:	d9800e17 	ldw	r6,56(sp)
 1003c50:	01bc300e 	bge	zero,r6,1002d14 <_dtoa_r+0x578>
 1003c54:	0005883a 	mov	r2,zero
 1003c58:	00d00934 	movhi	r3,16420
 1003c5c:	a80b883a 	mov	r5,r21
 1003c60:	180f883a 	mov	r7,r3
 1003c64:	a009883a 	mov	r4,r20
 1003c68:	100d883a 	mov	r6,r2
 1003c6c:	10089b80 	call	10089b8 <__muldf3>
 1003c70:	b1000044 	addi	r4,r22,1
 1003c74:	1021883a 	mov	r16,r2
 1003c78:	1823883a 	mov	r17,r3
 1003c7c:	100927c0 	call	100927c <__floatsidf>
 1003c80:	880b883a 	mov	r5,r17
 1003c84:	8009883a 	mov	r4,r16
 1003c88:	180f883a 	mov	r7,r3
 1003c8c:	100d883a 	mov	r6,r2
 1003c90:	10089b80 	call	10089b8 <__muldf3>
 1003c94:	0011883a 	mov	r8,zero
 1003c98:	02500734 	movhi	r9,16412
 1003c9c:	180b883a 	mov	r5,r3
 1003ca0:	480f883a 	mov	r7,r9
 1003ca4:	1009883a 	mov	r4,r2
 1003ca8:	400d883a 	mov	r6,r8
 1003cac:	10089440 	call	1008944 <__adddf3>
 1003cb0:	102d883a 	mov	r22,r2
 1003cb4:	00bf3034 	movhi	r2,64704
 1003cb8:	10ef883a 	add	r23,r2,r3
 1003cbc:	d8800d17 	ldw	r2,52(sp)
 1003cc0:	d8c00e17 	ldw	r3,56(sp)
 1003cc4:	8029883a 	mov	r20,r16
 1003cc8:	10bfffc4 	addi	r2,r2,-1
 1003ccc:	882b883a 	mov	r21,r17
 1003cd0:	d8800415 	stw	r2,16(sp)
 1003cd4:	d8c00315 	stw	r3,12(sp)
 1003cd8:	003e8306 	br	10036e8 <_dtoa_r+0xf4c>
 1003cdc:	d8800117 	ldw	r2,4(sp)
 1003ce0:	dc001117 	ldw	r16,68(sp)
 1003ce4:	dc801017 	ldw	r18,64(sp)
 1003ce8:	00c00d84 	movi	r3,54
 1003cec:	1887c83a 	sub	r3,r3,r2
 1003cf0:	003d6906 	br	1003298 <_dtoa_r+0xafc>
 1003cf4:	01800044 	movi	r6,1
 1003cf8:	3021883a 	mov	r16,r6
 1003cfc:	d9800f15 	stw	r6,60(sp)
 1003d00:	d9802615 	stw	r6,152(sp)
 1003d04:	d9800e15 	stw	r6,56(sp)
 1003d08:	003b9306 	br	1002b58 <_dtoa_r+0x3bc>
 1003d0c:	b021883a 	mov	r16,r22
 1003d10:	dd800f15 	stw	r22,60(sp)
 1003d14:	003b9006 	br	1002b58 <_dtoa_r+0x3bc>
 1003d18:	103e221e 	bne	r2,zero,10035a4 <_dtoa_r+0xe08>
 1003d1c:	b880004c 	andi	r2,r23,1
 1003d20:	1005003a 	cmpeq	r2,r2,zero
 1003d24:	103e1f1e 	bne	r2,zero,10035a4 <_dtoa_r+0xe08>
 1003d28:	003e1b06 	br	1003598 <_dtoa_r+0xdfc>
 1003d2c:	d9001617 	ldw	r4,88(sp)
 1003d30:	980b883a 	mov	r5,r19
 1003d34:	01800284 	movi	r6,10
 1003d38:	000f883a 	mov	r7,zero
 1003d3c:	10066840 	call	1006684 <__multadd>
 1003d40:	d8c00e17 	ldw	r3,56(sp)
 1003d44:	1027883a 	mov	r19,r2
 1003d48:	d8c00f15 	stw	r3,60(sp)
 1003d4c:	003cd306 	br	100309c <_dtoa_r+0x900>

01003d50 <_fflush_r>:
 1003d50:	defffb04 	addi	sp,sp,-20
 1003d54:	dcc00315 	stw	r19,12(sp)
 1003d58:	dc800215 	stw	r18,8(sp)
 1003d5c:	dfc00415 	stw	ra,16(sp)
 1003d60:	dc400115 	stw	r17,4(sp)
 1003d64:	dc000015 	stw	r16,0(sp)
 1003d68:	2027883a 	mov	r19,r4
 1003d6c:	2825883a 	mov	r18,r5
 1003d70:	20000226 	beq	r4,zero,1003d7c <_fflush_r+0x2c>
 1003d74:	20800e17 	ldw	r2,56(r4)
 1003d78:	10005626 	beq	r2,zero,1003ed4 <_fflush_r+0x184>
 1003d7c:	9100030b 	ldhu	r4,12(r18)
 1003d80:	20ffffcc 	andi	r3,r4,65535
 1003d84:	18e0001c 	xori	r3,r3,32768
 1003d88:	18e00004 	addi	r3,r3,-32768
 1003d8c:	1880020c 	andi	r2,r3,8
 1003d90:	1000261e 	bne	r2,zero,1003e2c <_fflush_r+0xdc>
 1003d94:	90c00117 	ldw	r3,4(r18)
 1003d98:	20820014 	ori	r2,r4,2048
 1003d9c:	9080030d 	sth	r2,12(r18)
 1003da0:	1009883a 	mov	r4,r2
 1003da4:	00c0400e 	bge	zero,r3,1003ea8 <_fflush_r+0x158>
 1003da8:	92000a17 	ldw	r8,40(r18)
 1003dac:	40004026 	beq	r8,zero,1003eb0 <_fflush_r+0x160>
 1003db0:	2084000c 	andi	r2,r4,4096
 1003db4:	10005326 	beq	r2,zero,1003f04 <_fflush_r+0x1b4>
 1003db8:	94001417 	ldw	r16,80(r18)
 1003dbc:	9080030b 	ldhu	r2,12(r18)
 1003dc0:	1080010c 	andi	r2,r2,4
 1003dc4:	1000481e 	bne	r2,zero,1003ee8 <_fflush_r+0x198>
 1003dc8:	91400717 	ldw	r5,28(r18)
 1003dcc:	9809883a 	mov	r4,r19
 1003dd0:	800d883a 	mov	r6,r16
 1003dd4:	000f883a 	mov	r7,zero
 1003dd8:	403ee83a 	callr	r8
 1003ddc:	8080261e 	bne	r16,r2,1003e78 <_fflush_r+0x128>
 1003de0:	9080030b 	ldhu	r2,12(r18)
 1003de4:	91000417 	ldw	r4,16(r18)
 1003de8:	90000115 	stw	zero,4(r18)
 1003dec:	10bdffcc 	andi	r2,r2,63487
 1003df0:	10ffffcc 	andi	r3,r2,65535
 1003df4:	18c4000c 	andi	r3,r3,4096
 1003df8:	9080030d 	sth	r2,12(r18)
 1003dfc:	91000015 	stw	r4,0(r18)
 1003e00:	18002b26 	beq	r3,zero,1003eb0 <_fflush_r+0x160>
 1003e04:	0007883a 	mov	r3,zero
 1003e08:	1805883a 	mov	r2,r3
 1003e0c:	94001415 	stw	r16,80(r18)
 1003e10:	dfc00417 	ldw	ra,16(sp)
 1003e14:	dcc00317 	ldw	r19,12(sp)
 1003e18:	dc800217 	ldw	r18,8(sp)
 1003e1c:	dc400117 	ldw	r17,4(sp)
 1003e20:	dc000017 	ldw	r16,0(sp)
 1003e24:	dec00504 	addi	sp,sp,20
 1003e28:	f800283a 	ret
 1003e2c:	94400417 	ldw	r17,16(r18)
 1003e30:	88001f26 	beq	r17,zero,1003eb0 <_fflush_r+0x160>
 1003e34:	90800017 	ldw	r2,0(r18)
 1003e38:	18c000cc 	andi	r3,r3,3
 1003e3c:	94400015 	stw	r17,0(r18)
 1003e40:	1461c83a 	sub	r16,r2,r17
 1003e44:	18002526 	beq	r3,zero,1003edc <_fflush_r+0x18c>
 1003e48:	0005883a 	mov	r2,zero
 1003e4c:	90800215 	stw	r2,8(r18)
 1003e50:	0400170e 	bge	zero,r16,1003eb0 <_fflush_r+0x160>
 1003e54:	90c00917 	ldw	r3,36(r18)
 1003e58:	91400717 	ldw	r5,28(r18)
 1003e5c:	880d883a 	mov	r6,r17
 1003e60:	800f883a 	mov	r7,r16
 1003e64:	9809883a 	mov	r4,r19
 1003e68:	183ee83a 	callr	r3
 1003e6c:	88a3883a 	add	r17,r17,r2
 1003e70:	80a1c83a 	sub	r16,r16,r2
 1003e74:	00bff616 	blt	zero,r2,1003e50 <_fflush_r+0x100>
 1003e78:	9080030b 	ldhu	r2,12(r18)
 1003e7c:	00ffffc4 	movi	r3,-1
 1003e80:	10801014 	ori	r2,r2,64
 1003e84:	9080030d 	sth	r2,12(r18)
 1003e88:	1805883a 	mov	r2,r3
 1003e8c:	dfc00417 	ldw	ra,16(sp)
 1003e90:	dcc00317 	ldw	r19,12(sp)
 1003e94:	dc800217 	ldw	r18,8(sp)
 1003e98:	dc400117 	ldw	r17,4(sp)
 1003e9c:	dc000017 	ldw	r16,0(sp)
 1003ea0:	dec00504 	addi	sp,sp,20
 1003ea4:	f800283a 	ret
 1003ea8:	90800f17 	ldw	r2,60(r18)
 1003eac:	00bfbe16 	blt	zero,r2,1003da8 <_fflush_r+0x58>
 1003eb0:	0007883a 	mov	r3,zero
 1003eb4:	1805883a 	mov	r2,r3
 1003eb8:	dfc00417 	ldw	ra,16(sp)
 1003ebc:	dcc00317 	ldw	r19,12(sp)
 1003ec0:	dc800217 	ldw	r18,8(sp)
 1003ec4:	dc400117 	ldw	r17,4(sp)
 1003ec8:	dc000017 	ldw	r16,0(sp)
 1003ecc:	dec00504 	addi	sp,sp,20
 1003ed0:	f800283a 	ret
 1003ed4:	1003fe80 	call	1003fe8 <__sinit>
 1003ed8:	003fa806 	br	1003d7c <_fflush_r+0x2c>
 1003edc:	90800517 	ldw	r2,20(r18)
 1003ee0:	90800215 	stw	r2,8(r18)
 1003ee4:	003fda06 	br	1003e50 <_fflush_r+0x100>
 1003ee8:	90800117 	ldw	r2,4(r18)
 1003eec:	90c00c17 	ldw	r3,48(r18)
 1003ef0:	80a1c83a 	sub	r16,r16,r2
 1003ef4:	183fb426 	beq	r3,zero,1003dc8 <_fflush_r+0x78>
 1003ef8:	90800f17 	ldw	r2,60(r18)
 1003efc:	80a1c83a 	sub	r16,r16,r2
 1003f00:	003fb106 	br	1003dc8 <_fflush_r+0x78>
 1003f04:	91400717 	ldw	r5,28(r18)
 1003f08:	9809883a 	mov	r4,r19
 1003f0c:	000d883a 	mov	r6,zero
 1003f10:	01c00044 	movi	r7,1
 1003f14:	403ee83a 	callr	r8
 1003f18:	1021883a 	mov	r16,r2
 1003f1c:	00bfffc4 	movi	r2,-1
 1003f20:	80800226 	beq	r16,r2,1003f2c <_fflush_r+0x1dc>
 1003f24:	92000a17 	ldw	r8,40(r18)
 1003f28:	003fa406 	br	1003dbc <_fflush_r+0x6c>
 1003f2c:	98c00017 	ldw	r3,0(r19)
 1003f30:	00800744 	movi	r2,29
 1003f34:	18bfde26 	beq	r3,r2,1003eb0 <_fflush_r+0x160>
 1003f38:	9080030b 	ldhu	r2,12(r18)
 1003f3c:	8007883a 	mov	r3,r16
 1003f40:	10801014 	ori	r2,r2,64
 1003f44:	9080030d 	sth	r2,12(r18)
 1003f48:	003fcf06 	br	1003e88 <_fflush_r+0x138>

01003f4c <fflush>:
 1003f4c:	01404034 	movhi	r5,256
 1003f50:	294f5404 	addi	r5,r5,15696
 1003f54:	2007883a 	mov	r3,r4
 1003f58:	20000526 	beq	r4,zero,1003f70 <fflush+0x24>
 1003f5c:	00804074 	movhi	r2,257
 1003f60:	10bc8804 	addi	r2,r2,-3552
 1003f64:	11000017 	ldw	r4,0(r2)
 1003f68:	180b883a 	mov	r5,r3
 1003f6c:	1003d501 	jmpi	1003d50 <_fflush_r>
 1003f70:	00804074 	movhi	r2,257
 1003f74:	10bc8904 	addi	r2,r2,-3548
 1003f78:	11000017 	ldw	r4,0(r2)
 1003f7c:	1004b501 	jmpi	1004b50 <_fwalk_reent>

01003f80 <std>:
 1003f80:	00804034 	movhi	r2,256
 1003f84:	109c3104 	addi	r2,r2,28868
 1003f88:	20800b15 	stw	r2,44(r4)
 1003f8c:	00804034 	movhi	r2,256
 1003f90:	109c6c04 	addi	r2,r2,29104
 1003f94:	20800815 	stw	r2,32(r4)
 1003f98:	00c04034 	movhi	r3,256
 1003f9c:	18dc4d04 	addi	r3,r3,28980
 1003fa0:	00804034 	movhi	r2,256
 1003fa4:	109c3304 	addi	r2,r2,28876
 1003fa8:	2140030d 	sth	r5,12(r4)
 1003fac:	2180038d 	sth	r6,14(r4)
 1003fb0:	20c00915 	stw	r3,36(r4)
 1003fb4:	20800a15 	stw	r2,40(r4)
 1003fb8:	20000015 	stw	zero,0(r4)
 1003fbc:	20000115 	stw	zero,4(r4)
 1003fc0:	20000215 	stw	zero,8(r4)
 1003fc4:	20000415 	stw	zero,16(r4)
 1003fc8:	20000515 	stw	zero,20(r4)
 1003fcc:	20000615 	stw	zero,24(r4)
 1003fd0:	21000715 	stw	r4,28(r4)
 1003fd4:	f800283a 	ret

01003fd8 <__sfp_lock_acquire>:
 1003fd8:	f800283a 	ret

01003fdc <__sfp_lock_release>:
 1003fdc:	f800283a 	ret

01003fe0 <__sinit_lock_acquire>:
 1003fe0:	f800283a 	ret

01003fe4 <__sinit_lock_release>:
 1003fe4:	f800283a 	ret

01003fe8 <__sinit>:
 1003fe8:	20800e17 	ldw	r2,56(r4)
 1003fec:	defffd04 	addi	sp,sp,-12
 1003ff0:	dc400115 	stw	r17,4(sp)
 1003ff4:	dc000015 	stw	r16,0(sp)
 1003ff8:	dfc00215 	stw	ra,8(sp)
 1003ffc:	04400044 	movi	r17,1
 1004000:	01400104 	movi	r5,4
 1004004:	000d883a 	mov	r6,zero
 1004008:	2021883a 	mov	r16,r4
 100400c:	2200bb04 	addi	r8,r4,748
 1004010:	200f883a 	mov	r7,r4
 1004014:	10000526 	beq	r2,zero,100402c <__sinit+0x44>
 1004018:	dfc00217 	ldw	ra,8(sp)
 100401c:	dc400117 	ldw	r17,4(sp)
 1004020:	dc000017 	ldw	r16,0(sp)
 1004024:	dec00304 	addi	sp,sp,12
 1004028:	f800283a 	ret
 100402c:	21000117 	ldw	r4,4(r4)
 1004030:	00804034 	movhi	r2,256
 1004034:	10903304 	addi	r2,r2,16588
 1004038:	00c000c4 	movi	r3,3
 100403c:	80800f15 	stw	r2,60(r16)
 1004040:	80c0b915 	stw	r3,740(r16)
 1004044:	8200ba15 	stw	r8,744(r16)
 1004048:	84400e15 	stw	r17,56(r16)
 100404c:	8000b815 	stw	zero,736(r16)
 1004050:	1003f800 	call	1003f80 <std>
 1004054:	81000217 	ldw	r4,8(r16)
 1004058:	880d883a 	mov	r6,r17
 100405c:	800f883a 	mov	r7,r16
 1004060:	01400284 	movi	r5,10
 1004064:	1003f800 	call	1003f80 <std>
 1004068:	81000317 	ldw	r4,12(r16)
 100406c:	800f883a 	mov	r7,r16
 1004070:	01400484 	movi	r5,18
 1004074:	01800084 	movi	r6,2
 1004078:	dfc00217 	ldw	ra,8(sp)
 100407c:	dc400117 	ldw	r17,4(sp)
 1004080:	dc000017 	ldw	r16,0(sp)
 1004084:	dec00304 	addi	sp,sp,12
 1004088:	1003f801 	jmpi	1003f80 <std>

0100408c <__fp_lock>:
 100408c:	0005883a 	mov	r2,zero
 1004090:	f800283a 	ret

01004094 <__fp_unlock>:
 1004094:	0005883a 	mov	r2,zero
 1004098:	f800283a 	ret

0100409c <__fp_unlock_all>:
 100409c:	00804074 	movhi	r2,257
 10040a0:	10bc8804 	addi	r2,r2,-3552
 10040a4:	11000017 	ldw	r4,0(r2)
 10040a8:	01404034 	movhi	r5,256
 10040ac:	29502504 	addi	r5,r5,16532
 10040b0:	1004c181 	jmpi	1004c18 <_fwalk>

010040b4 <__fp_lock_all>:
 10040b4:	00804074 	movhi	r2,257
 10040b8:	10bc8804 	addi	r2,r2,-3552
 10040bc:	11000017 	ldw	r4,0(r2)
 10040c0:	01404034 	movhi	r5,256
 10040c4:	29502304 	addi	r5,r5,16524
 10040c8:	1004c181 	jmpi	1004c18 <_fwalk>

010040cc <_cleanup_r>:
 10040cc:	01404034 	movhi	r5,256
 10040d0:	295d8004 	addi	r5,r5,30208
 10040d4:	1004c181 	jmpi	1004c18 <_fwalk>

010040d8 <_cleanup>:
 10040d8:	00804074 	movhi	r2,257
 10040dc:	10bc8904 	addi	r2,r2,-3548
 10040e0:	11000017 	ldw	r4,0(r2)
 10040e4:	10040cc1 	jmpi	10040cc <_cleanup_r>

010040e8 <__sfmoreglue>:
 10040e8:	defffc04 	addi	sp,sp,-16
 10040ec:	dc000015 	stw	r16,0(sp)
 10040f0:	2821883a 	mov	r16,r5
 10040f4:	dc400115 	stw	r17,4(sp)
 10040f8:	01401704 	movi	r5,92
 10040fc:	2023883a 	mov	r17,r4
 1004100:	8009883a 	mov	r4,r16
 1004104:	dfc00315 	stw	ra,12(sp)
 1004108:	dcc00215 	stw	r19,8(sp)
 100410c:	100972c0 	call	100972c <__mulsi3>
 1004110:	11400304 	addi	r5,r2,12
 1004114:	8809883a 	mov	r4,r17
 1004118:	1027883a 	mov	r19,r2
 100411c:	1004f280 	call	1004f28 <_malloc_r>
 1004120:	10c00304 	addi	r3,r2,12
 1004124:	1023883a 	mov	r17,r2
 1004128:	1809883a 	mov	r4,r3
 100412c:	980d883a 	mov	r6,r19
 1004130:	000b883a 	mov	r5,zero
 1004134:	10000b26 	beq	r2,zero,1004164 <__sfmoreglue+0x7c>
 1004138:	14000115 	stw	r16,4(r2)
 100413c:	10c00215 	stw	r3,8(r2)
 1004140:	10000015 	stw	zero,0(r2)
 1004144:	10058cc0 	call	10058cc <memset>
 1004148:	8805883a 	mov	r2,r17
 100414c:	dfc00317 	ldw	ra,12(sp)
 1004150:	dcc00217 	ldw	r19,8(sp)
 1004154:	dc400117 	ldw	r17,4(sp)
 1004158:	dc000017 	ldw	r16,0(sp)
 100415c:	dec00404 	addi	sp,sp,16
 1004160:	f800283a 	ret
 1004164:	0023883a 	mov	r17,zero
 1004168:	8805883a 	mov	r2,r17
 100416c:	dfc00317 	ldw	ra,12(sp)
 1004170:	dcc00217 	ldw	r19,8(sp)
 1004174:	dc400117 	ldw	r17,4(sp)
 1004178:	dc000017 	ldw	r16,0(sp)
 100417c:	dec00404 	addi	sp,sp,16
 1004180:	f800283a 	ret

01004184 <__sfp>:
 1004184:	defffd04 	addi	sp,sp,-12
 1004188:	00804074 	movhi	r2,257
 100418c:	10bc8904 	addi	r2,r2,-3548
 1004190:	dc000015 	stw	r16,0(sp)
 1004194:	14000017 	ldw	r16,0(r2)
 1004198:	dc400115 	stw	r17,4(sp)
 100419c:	dfc00215 	stw	ra,8(sp)
 10041a0:	80800e17 	ldw	r2,56(r16)
 10041a4:	2023883a 	mov	r17,r4
 10041a8:	10002626 	beq	r2,zero,1004244 <__sfp+0xc0>
 10041ac:	8400b804 	addi	r16,r16,736
 10041b0:	80800117 	ldw	r2,4(r16)
 10041b4:	81000217 	ldw	r4,8(r16)
 10041b8:	10ffffc4 	addi	r3,r2,-1
 10041bc:	18000916 	blt	r3,zero,10041e4 <__sfp+0x60>
 10041c0:	2080030f 	ldh	r2,12(r4)
 10041c4:	10000b26 	beq	r2,zero,10041f4 <__sfp+0x70>
 10041c8:	017fffc4 	movi	r5,-1
 10041cc:	00000206 	br	10041d8 <__sfp+0x54>
 10041d0:	2080030f 	ldh	r2,12(r4)
 10041d4:	10000726 	beq	r2,zero,10041f4 <__sfp+0x70>
 10041d8:	18ffffc4 	addi	r3,r3,-1
 10041dc:	21001704 	addi	r4,r4,92
 10041e0:	197ffb1e 	bne	r3,r5,10041d0 <__sfp+0x4c>
 10041e4:	80800017 	ldw	r2,0(r16)
 10041e8:	10001926 	beq	r2,zero,1004250 <__sfp+0xcc>
 10041ec:	1021883a 	mov	r16,r2
 10041f0:	003fef06 	br	10041b0 <__sfp+0x2c>
 10041f4:	00bfffc4 	movi	r2,-1
 10041f8:	00c00044 	movi	r3,1
 10041fc:	2080038d 	sth	r2,14(r4)
 1004200:	20c0030d 	sth	r3,12(r4)
 1004204:	20000015 	stw	zero,0(r4)
 1004208:	20000215 	stw	zero,8(r4)
 100420c:	20000115 	stw	zero,4(r4)
 1004210:	20000415 	stw	zero,16(r4)
 1004214:	20000515 	stw	zero,20(r4)
 1004218:	20000615 	stw	zero,24(r4)
 100421c:	20000c15 	stw	zero,48(r4)
 1004220:	20000d15 	stw	zero,52(r4)
 1004224:	20001115 	stw	zero,68(r4)
 1004228:	20001215 	stw	zero,72(r4)
 100422c:	2005883a 	mov	r2,r4
 1004230:	dfc00217 	ldw	ra,8(sp)
 1004234:	dc400117 	ldw	r17,4(sp)
 1004238:	dc000017 	ldw	r16,0(sp)
 100423c:	dec00304 	addi	sp,sp,12
 1004240:	f800283a 	ret
 1004244:	8009883a 	mov	r4,r16
 1004248:	1003fe80 	call	1003fe8 <__sinit>
 100424c:	003fd706 	br	10041ac <__sfp+0x28>
 1004250:	8809883a 	mov	r4,r17
 1004254:	01400104 	movi	r5,4
 1004258:	10040e80 	call	10040e8 <__sfmoreglue>
 100425c:	80800015 	stw	r2,0(r16)
 1004260:	103fe21e 	bne	r2,zero,10041ec <__sfp+0x68>
 1004264:	00800304 	movi	r2,12
 1004268:	0009883a 	mov	r4,zero
 100426c:	88800015 	stw	r2,0(r17)
 1004270:	003fee06 	br	100422c <__sfp+0xa8>

01004274 <_malloc_trim_r>:
 1004274:	defffb04 	addi	sp,sp,-20
 1004278:	dcc00315 	stw	r19,12(sp)
 100427c:	04c04074 	movhi	r19,257
 1004280:	9cf6ee04 	addi	r19,r19,-9288
 1004284:	dc800215 	stw	r18,8(sp)
 1004288:	dc400115 	stw	r17,4(sp)
 100428c:	dc000015 	stw	r16,0(sp)
 1004290:	2823883a 	mov	r17,r5
 1004294:	2025883a 	mov	r18,r4
 1004298:	dfc00415 	stw	ra,16(sp)
 100429c:	100a4b00 	call	100a4b0 <__malloc_lock>
 10042a0:	98800217 	ldw	r2,8(r19)
 10042a4:	9009883a 	mov	r4,r18
 10042a8:	000b883a 	mov	r5,zero
 10042ac:	10c00117 	ldw	r3,4(r2)
 10042b0:	00bfff04 	movi	r2,-4
 10042b4:	18a0703a 	and	r16,r3,r2
 10042b8:	8463c83a 	sub	r17,r16,r17
 10042bc:	8c43fbc4 	addi	r17,r17,4079
 10042c0:	8822d33a 	srli	r17,r17,12
 10042c4:	0083ffc4 	movi	r2,4095
 10042c8:	8c7fffc4 	addi	r17,r17,-1
 10042cc:	8822933a 	slli	r17,r17,12
 10042d0:	1440060e 	bge	r2,r17,10042ec <_malloc_trim_r+0x78>
 10042d4:	10070540 	call	1007054 <_sbrk_r>
 10042d8:	98c00217 	ldw	r3,8(r19)
 10042dc:	9009883a 	mov	r4,r18
 10042e0:	044bc83a 	sub	r5,zero,r17
 10042e4:	80c7883a 	add	r3,r16,r3
 10042e8:	10c00926 	beq	r2,r3,1004310 <_malloc_trim_r+0x9c>
 10042ec:	100a4d00 	call	100a4d0 <__malloc_unlock>
 10042f0:	0005883a 	mov	r2,zero
 10042f4:	dfc00417 	ldw	ra,16(sp)
 10042f8:	dcc00317 	ldw	r19,12(sp)
 10042fc:	dc800217 	ldw	r18,8(sp)
 1004300:	dc400117 	ldw	r17,4(sp)
 1004304:	dc000017 	ldw	r16,0(sp)
 1004308:	dec00504 	addi	sp,sp,20
 100430c:	f800283a 	ret
 1004310:	9009883a 	mov	r4,r18
 1004314:	10070540 	call	1007054 <_sbrk_r>
 1004318:	844dc83a 	sub	r6,r16,r17
 100431c:	00ffffc4 	movi	r3,-1
 1004320:	9009883a 	mov	r4,r18
 1004324:	000b883a 	mov	r5,zero
 1004328:	01c04074 	movhi	r7,257
 100432c:	39c35204 	addi	r7,r7,3400
 1004330:	31800054 	ori	r6,r6,1
 1004334:	10c00926 	beq	r2,r3,100435c <_malloc_trim_r+0xe8>
 1004338:	38800017 	ldw	r2,0(r7)
 100433c:	98c00217 	ldw	r3,8(r19)
 1004340:	9009883a 	mov	r4,r18
 1004344:	1445c83a 	sub	r2,r2,r17
 1004348:	38800015 	stw	r2,0(r7)
 100434c:	19800115 	stw	r6,4(r3)
 1004350:	100a4d00 	call	100a4d0 <__malloc_unlock>
 1004354:	00800044 	movi	r2,1
 1004358:	003fe606 	br	10042f4 <_malloc_trim_r+0x80>
 100435c:	10070540 	call	1007054 <_sbrk_r>
 1004360:	99800217 	ldw	r6,8(r19)
 1004364:	100f883a 	mov	r7,r2
 1004368:	9009883a 	mov	r4,r18
 100436c:	1187c83a 	sub	r3,r2,r6
 1004370:	008003c4 	movi	r2,15
 1004374:	19400054 	ori	r5,r3,1
 1004378:	10ffdc0e 	bge	r2,r3,10042ec <_malloc_trim_r+0x78>
 100437c:	00804074 	movhi	r2,257
 1004380:	10bc8d04 	addi	r2,r2,-3532
 1004384:	10c00017 	ldw	r3,0(r2)
 1004388:	00804074 	movhi	r2,257
 100438c:	10835204 	addi	r2,r2,3400
 1004390:	31400115 	stw	r5,4(r6)
 1004394:	38c7c83a 	sub	r3,r7,r3
 1004398:	10c00015 	stw	r3,0(r2)
 100439c:	003fd306 	br	10042ec <_malloc_trim_r+0x78>

010043a0 <_free_r>:
 10043a0:	defffd04 	addi	sp,sp,-12
 10043a4:	dc400115 	stw	r17,4(sp)
 10043a8:	dc000015 	stw	r16,0(sp)
 10043ac:	dfc00215 	stw	ra,8(sp)
 10043b0:	2821883a 	mov	r16,r5
 10043b4:	2023883a 	mov	r17,r4
 10043b8:	28005a26 	beq	r5,zero,1004524 <_free_r+0x184>
 10043bc:	100a4b00 	call	100a4b0 <__malloc_lock>
 10043c0:	823ffe04 	addi	r8,r16,-8
 10043c4:	41400117 	ldw	r5,4(r8)
 10043c8:	00bfff84 	movi	r2,-2
 10043cc:	02804074 	movhi	r10,257
 10043d0:	52b6ee04 	addi	r10,r10,-9288
 10043d4:	288e703a 	and	r7,r5,r2
 10043d8:	41cd883a 	add	r6,r8,r7
 10043dc:	30c00117 	ldw	r3,4(r6)
 10043e0:	51000217 	ldw	r4,8(r10)
 10043e4:	00bfff04 	movi	r2,-4
 10043e8:	1892703a 	and	r9,r3,r2
 10043ec:	5017883a 	mov	r11,r10
 10043f0:	31006726 	beq	r6,r4,1004590 <_free_r+0x1f0>
 10043f4:	2880004c 	andi	r2,r5,1
 10043f8:	1005003a 	cmpeq	r2,r2,zero
 10043fc:	32400115 	stw	r9,4(r6)
 1004400:	10001a1e 	bne	r2,zero,100446c <_free_r+0xcc>
 1004404:	000b883a 	mov	r5,zero
 1004408:	3247883a 	add	r3,r6,r9
 100440c:	18800117 	ldw	r2,4(r3)
 1004410:	1080004c 	andi	r2,r2,1
 1004414:	1000231e 	bne	r2,zero,10044a4 <_free_r+0x104>
 1004418:	280ac03a 	cmpne	r5,r5,zero
 100441c:	3a4f883a 	add	r7,r7,r9
 1004420:	2800451e 	bne	r5,zero,1004538 <_free_r+0x198>
 1004424:	31000217 	ldw	r4,8(r6)
 1004428:	00804074 	movhi	r2,257
 100442c:	10b6f004 	addi	r2,r2,-9280
 1004430:	20807b26 	beq	r4,r2,1004620 <_free_r+0x280>
 1004434:	30800317 	ldw	r2,12(r6)
 1004438:	3a07883a 	add	r3,r7,r8
 100443c:	19c00015 	stw	r7,0(r3)
 1004440:	11000215 	stw	r4,8(r2)
 1004444:	20800315 	stw	r2,12(r4)
 1004448:	38800054 	ori	r2,r7,1
 100444c:	40800115 	stw	r2,4(r8)
 1004450:	28001a26 	beq	r5,zero,10044bc <_free_r+0x11c>
 1004454:	8809883a 	mov	r4,r17
 1004458:	dfc00217 	ldw	ra,8(sp)
 100445c:	dc400117 	ldw	r17,4(sp)
 1004460:	dc000017 	ldw	r16,0(sp)
 1004464:	dec00304 	addi	sp,sp,12
 1004468:	100a4d01 	jmpi	100a4d0 <__malloc_unlock>
 100446c:	80bffe17 	ldw	r2,-8(r16)
 1004470:	50c00204 	addi	r3,r10,8
 1004474:	4091c83a 	sub	r8,r8,r2
 1004478:	41000217 	ldw	r4,8(r8)
 100447c:	388f883a 	add	r7,r7,r2
 1004480:	20c06126 	beq	r4,r3,1004608 <_free_r+0x268>
 1004484:	40800317 	ldw	r2,12(r8)
 1004488:	3247883a 	add	r3,r6,r9
 100448c:	000b883a 	mov	r5,zero
 1004490:	11000215 	stw	r4,8(r2)
 1004494:	20800315 	stw	r2,12(r4)
 1004498:	18800117 	ldw	r2,4(r3)
 100449c:	1080004c 	andi	r2,r2,1
 10044a0:	103fdd26 	beq	r2,zero,1004418 <_free_r+0x78>
 10044a4:	38800054 	ori	r2,r7,1
 10044a8:	3a07883a 	add	r3,r7,r8
 10044ac:	280ac03a 	cmpne	r5,r5,zero
 10044b0:	40800115 	stw	r2,4(r8)
 10044b4:	19c00015 	stw	r7,0(r3)
 10044b8:	283fe61e 	bne	r5,zero,1004454 <_free_r+0xb4>
 10044bc:	00807fc4 	movi	r2,511
 10044c0:	11c01f2e 	bgeu	r2,r7,1004540 <_free_r+0x1a0>
 10044c4:	3806d27a 	srli	r3,r7,9
 10044c8:	1800481e 	bne	r3,zero,10045ec <_free_r+0x24c>
 10044cc:	3804d0fa 	srli	r2,r7,3
 10044d0:	100690fa 	slli	r3,r2,3
 10044d4:	1acd883a 	add	r6,r3,r11
 10044d8:	31400217 	ldw	r5,8(r6)
 10044dc:	31405926 	beq	r6,r5,1004644 <_free_r+0x2a4>
 10044e0:	28800117 	ldw	r2,4(r5)
 10044e4:	00ffff04 	movi	r3,-4
 10044e8:	10c4703a 	and	r2,r2,r3
 10044ec:	3880022e 	bgeu	r7,r2,10044f8 <_free_r+0x158>
 10044f0:	29400217 	ldw	r5,8(r5)
 10044f4:	317ffa1e 	bne	r6,r5,10044e0 <_free_r+0x140>
 10044f8:	29800317 	ldw	r6,12(r5)
 10044fc:	41800315 	stw	r6,12(r8)
 1004500:	41400215 	stw	r5,8(r8)
 1004504:	8809883a 	mov	r4,r17
 1004508:	2a000315 	stw	r8,12(r5)
 100450c:	32000215 	stw	r8,8(r6)
 1004510:	dfc00217 	ldw	ra,8(sp)
 1004514:	dc400117 	ldw	r17,4(sp)
 1004518:	dc000017 	ldw	r16,0(sp)
 100451c:	dec00304 	addi	sp,sp,12
 1004520:	100a4d01 	jmpi	100a4d0 <__malloc_unlock>
 1004524:	dfc00217 	ldw	ra,8(sp)
 1004528:	dc400117 	ldw	r17,4(sp)
 100452c:	dc000017 	ldw	r16,0(sp)
 1004530:	dec00304 	addi	sp,sp,12
 1004534:	f800283a 	ret
 1004538:	31000217 	ldw	r4,8(r6)
 100453c:	003fbd06 	br	1004434 <_free_r+0x94>
 1004540:	3806d0fa 	srli	r3,r7,3
 1004544:	00800044 	movi	r2,1
 1004548:	51400117 	ldw	r5,4(r10)
 100454c:	180890fa 	slli	r4,r3,3
 1004550:	1807d0ba 	srai	r3,r3,2
 1004554:	22c9883a 	add	r4,r4,r11
 1004558:	21800217 	ldw	r6,8(r4)
 100455c:	10c4983a 	sll	r2,r2,r3
 1004560:	41000315 	stw	r4,12(r8)
 1004564:	41800215 	stw	r6,8(r8)
 1004568:	288ab03a 	or	r5,r5,r2
 100456c:	22000215 	stw	r8,8(r4)
 1004570:	8809883a 	mov	r4,r17
 1004574:	51400115 	stw	r5,4(r10)
 1004578:	32000315 	stw	r8,12(r6)
 100457c:	dfc00217 	ldw	ra,8(sp)
 1004580:	dc400117 	ldw	r17,4(sp)
 1004584:	dc000017 	ldw	r16,0(sp)
 1004588:	dec00304 	addi	sp,sp,12
 100458c:	100a4d01 	jmpi	100a4d0 <__malloc_unlock>
 1004590:	2880004c 	andi	r2,r5,1
 1004594:	3a4d883a 	add	r6,r7,r9
 1004598:	1000071e 	bne	r2,zero,10045b8 <_free_r+0x218>
 100459c:	80bffe17 	ldw	r2,-8(r16)
 10045a0:	4091c83a 	sub	r8,r8,r2
 10045a4:	41000317 	ldw	r4,12(r8)
 10045a8:	40c00217 	ldw	r3,8(r8)
 10045ac:	308d883a 	add	r6,r6,r2
 10045b0:	20c00215 	stw	r3,8(r4)
 10045b4:	19000315 	stw	r4,12(r3)
 10045b8:	00804074 	movhi	r2,257
 10045bc:	10bc8c04 	addi	r2,r2,-3536
 10045c0:	11000017 	ldw	r4,0(r2)
 10045c4:	30c00054 	ori	r3,r6,1
 10045c8:	52000215 	stw	r8,8(r10)
 10045cc:	40c00115 	stw	r3,4(r8)
 10045d0:	313fa036 	bltu	r6,r4,1004454 <_free_r+0xb4>
 10045d4:	00804074 	movhi	r2,257
 10045d8:	10834804 	addi	r2,r2,3360
 10045dc:	11400017 	ldw	r5,0(r2)
 10045e0:	8809883a 	mov	r4,r17
 10045e4:	10042740 	call	1004274 <_malloc_trim_r>
 10045e8:	003f9a06 	br	1004454 <_free_r+0xb4>
 10045ec:	00800104 	movi	r2,4
 10045f0:	10c0072e 	bgeu	r2,r3,1004610 <_free_r+0x270>
 10045f4:	00800504 	movi	r2,20
 10045f8:	10c01936 	bltu	r2,r3,1004660 <_free_r+0x2c0>
 10045fc:	188016c4 	addi	r2,r3,91
 1004600:	100690fa 	slli	r3,r2,3
 1004604:	003fb306 	br	10044d4 <_free_r+0x134>
 1004608:	01400044 	movi	r5,1
 100460c:	003f7e06 	br	1004408 <_free_r+0x68>
 1004610:	3804d1ba 	srli	r2,r7,6
 1004614:	10800e04 	addi	r2,r2,56
 1004618:	100690fa 	slli	r3,r2,3
 100461c:	003fad06 	br	10044d4 <_free_r+0x134>
 1004620:	22000315 	stw	r8,12(r4)
 1004624:	22000215 	stw	r8,8(r4)
 1004628:	3a05883a 	add	r2,r7,r8
 100462c:	38c00054 	ori	r3,r7,1
 1004630:	11c00015 	stw	r7,0(r2)
 1004634:	41000215 	stw	r4,8(r8)
 1004638:	40c00115 	stw	r3,4(r8)
 100463c:	41000315 	stw	r4,12(r8)
 1004640:	003f8406 	br	1004454 <_free_r+0xb4>
 1004644:	1005d0ba 	srai	r2,r2,2
 1004648:	00c00044 	movi	r3,1
 100464c:	51000117 	ldw	r4,4(r10)
 1004650:	1886983a 	sll	r3,r3,r2
 1004654:	20c8b03a 	or	r4,r4,r3
 1004658:	51000115 	stw	r4,4(r10)
 100465c:	003fa706 	br	10044fc <_free_r+0x15c>
 1004660:	00801504 	movi	r2,84
 1004664:	10c00436 	bltu	r2,r3,1004678 <_free_r+0x2d8>
 1004668:	3804d33a 	srli	r2,r7,12
 100466c:	10801b84 	addi	r2,r2,110
 1004670:	100690fa 	slli	r3,r2,3
 1004674:	003f9706 	br	10044d4 <_free_r+0x134>
 1004678:	00805504 	movi	r2,340
 100467c:	10c00436 	bltu	r2,r3,1004690 <_free_r+0x2f0>
 1004680:	3804d3fa 	srli	r2,r7,15
 1004684:	10801dc4 	addi	r2,r2,119
 1004688:	100690fa 	slli	r3,r2,3
 100468c:	003f9106 	br	10044d4 <_free_r+0x134>
 1004690:	00815504 	movi	r2,1364
 1004694:	10c0032e 	bgeu	r2,r3,10046a4 <_free_r+0x304>
 1004698:	00801f84 	movi	r2,126
 100469c:	00c0fc04 	movi	r3,1008
 10046a0:	003f8c06 	br	10044d4 <_free_r+0x134>
 10046a4:	3804d4ba 	srli	r2,r7,18
 10046a8:	10801f04 	addi	r2,r2,124
 10046ac:	100690fa 	slli	r3,r2,3
 10046b0:	003f8806 	br	10044d4 <_free_r+0x134>

010046b4 <__sfvwrite_r>:
 10046b4:	30800217 	ldw	r2,8(r6)
 10046b8:	defff504 	addi	sp,sp,-44
 10046bc:	df000915 	stw	fp,36(sp)
 10046c0:	dd800715 	stw	r22,28(sp)
 10046c4:	dc800315 	stw	r18,12(sp)
 10046c8:	dfc00a15 	stw	ra,40(sp)
 10046cc:	ddc00815 	stw	r23,32(sp)
 10046d0:	dd400615 	stw	r21,24(sp)
 10046d4:	dd000515 	stw	r20,20(sp)
 10046d8:	dcc00415 	stw	r19,16(sp)
 10046dc:	dc400215 	stw	r17,8(sp)
 10046e0:	dc000115 	stw	r16,4(sp)
 10046e4:	302d883a 	mov	r22,r6
 10046e8:	2039883a 	mov	fp,r4
 10046ec:	2825883a 	mov	r18,r5
 10046f0:	10001c26 	beq	r2,zero,1004764 <__sfvwrite_r+0xb0>
 10046f4:	29c0030b 	ldhu	r7,12(r5)
 10046f8:	3880020c 	andi	r2,r7,8
 10046fc:	10002726 	beq	r2,zero,100479c <__sfvwrite_r+0xe8>
 1004700:	28800417 	ldw	r2,16(r5)
 1004704:	10002526 	beq	r2,zero,100479c <__sfvwrite_r+0xe8>
 1004708:	3880008c 	andi	r2,r7,2
 100470c:	b5400017 	ldw	r21,0(r22)
 1004710:	10002826 	beq	r2,zero,10047b4 <__sfvwrite_r+0x100>
 1004714:	0021883a 	mov	r16,zero
 1004718:	0023883a 	mov	r17,zero
 100471c:	880d883a 	mov	r6,r17
 1004720:	e009883a 	mov	r4,fp
 1004724:	00810004 	movi	r2,1024
 1004728:	80006e26 	beq	r16,zero,10048e4 <__sfvwrite_r+0x230>
 100472c:	800f883a 	mov	r7,r16
 1004730:	91400717 	ldw	r5,28(r18)
 1004734:	1400012e 	bgeu	r2,r16,100473c <__sfvwrite_r+0x88>
 1004738:	100f883a 	mov	r7,r2
 100473c:	90c00917 	ldw	r3,36(r18)
 1004740:	183ee83a 	callr	r3
 1004744:	1007883a 	mov	r3,r2
 1004748:	80a1c83a 	sub	r16,r16,r2
 100474c:	88a3883a 	add	r17,r17,r2
 1004750:	00806d0e 	bge	zero,r2,1004908 <__sfvwrite_r+0x254>
 1004754:	b0800217 	ldw	r2,8(r22)
 1004758:	10c5c83a 	sub	r2,r2,r3
 100475c:	b0800215 	stw	r2,8(r22)
 1004760:	103fee1e 	bne	r2,zero,100471c <__sfvwrite_r+0x68>
 1004764:	0009883a 	mov	r4,zero
 1004768:	2005883a 	mov	r2,r4
 100476c:	dfc00a17 	ldw	ra,40(sp)
 1004770:	df000917 	ldw	fp,36(sp)
 1004774:	ddc00817 	ldw	r23,32(sp)
 1004778:	dd800717 	ldw	r22,28(sp)
 100477c:	dd400617 	ldw	r21,24(sp)
 1004780:	dd000517 	ldw	r20,20(sp)
 1004784:	dcc00417 	ldw	r19,16(sp)
 1004788:	dc800317 	ldw	r18,12(sp)
 100478c:	dc400217 	ldw	r17,8(sp)
 1004790:	dc000117 	ldw	r16,4(sp)
 1004794:	dec00b04 	addi	sp,sp,44
 1004798:	f800283a 	ret
 100479c:	100241c0 	call	100241c <__swsetup_r>
 10047a0:	1000e41e 	bne	r2,zero,1004b34 <__sfvwrite_r+0x480>
 10047a4:	91c0030b 	ldhu	r7,12(r18)
 10047a8:	b5400017 	ldw	r21,0(r22)
 10047ac:	3880008c 	andi	r2,r7,2
 10047b0:	103fd81e 	bne	r2,zero,1004714 <__sfvwrite_r+0x60>
 10047b4:	3880004c 	andi	r2,r7,1
 10047b8:	1005003a 	cmpeq	r2,r2,zero
 10047bc:	10005726 	beq	r2,zero,100491c <__sfvwrite_r+0x268>
 10047c0:	0029883a 	mov	r20,zero
 10047c4:	002f883a 	mov	r23,zero
 10047c8:	a0004226 	beq	r20,zero,10048d4 <__sfvwrite_r+0x220>
 10047cc:	3880800c 	andi	r2,r7,512
 10047d0:	94000217 	ldw	r16,8(r18)
 10047d4:	10008b26 	beq	r2,zero,1004a04 <__sfvwrite_r+0x350>
 10047d8:	800d883a 	mov	r6,r16
 10047dc:	a400a536 	bltu	r20,r16,1004a74 <__sfvwrite_r+0x3c0>
 10047e0:	3881200c 	andi	r2,r7,1152
 10047e4:	10002726 	beq	r2,zero,1004884 <__sfvwrite_r+0x1d0>
 10047e8:	90800517 	ldw	r2,20(r18)
 10047ec:	92000417 	ldw	r8,16(r18)
 10047f0:	91400017 	ldw	r5,0(r18)
 10047f4:	1087883a 	add	r3,r2,r2
 10047f8:	1887883a 	add	r3,r3,r2
 10047fc:	1808d7fa 	srli	r4,r3,31
 1004800:	2a21c83a 	sub	r16,r5,r8
 1004804:	80800044 	addi	r2,r16,1
 1004808:	20c9883a 	add	r4,r4,r3
 100480c:	2027d07a 	srai	r19,r4,1
 1004810:	a085883a 	add	r2,r20,r2
 1004814:	980d883a 	mov	r6,r19
 1004818:	9880022e 	bgeu	r19,r2,1004824 <__sfvwrite_r+0x170>
 100481c:	1027883a 	mov	r19,r2
 1004820:	100d883a 	mov	r6,r2
 1004824:	3881000c 	andi	r2,r7,1024
 1004828:	1000b826 	beq	r2,zero,1004b0c <__sfvwrite_r+0x458>
 100482c:	300b883a 	mov	r5,r6
 1004830:	e009883a 	mov	r4,fp
 1004834:	1004f280 	call	1004f28 <_malloc_r>
 1004838:	10003126 	beq	r2,zero,1004900 <__sfvwrite_r+0x24c>
 100483c:	91400417 	ldw	r5,16(r18)
 1004840:	1009883a 	mov	r4,r2
 1004844:	800d883a 	mov	r6,r16
 1004848:	1023883a 	mov	r17,r2
 100484c:	100574c0 	call	100574c <memcpy>
 1004850:	90c0030b 	ldhu	r3,12(r18)
 1004854:	00beffc4 	movi	r2,-1025
 1004858:	1886703a 	and	r3,r3,r2
 100485c:	18c02014 	ori	r3,r3,128
 1004860:	90c0030d 	sth	r3,12(r18)
 1004864:	9c07c83a 	sub	r3,r19,r16
 1004868:	8c05883a 	add	r2,r17,r16
 100486c:	a00d883a 	mov	r6,r20
 1004870:	a021883a 	mov	r16,r20
 1004874:	90800015 	stw	r2,0(r18)
 1004878:	90c00215 	stw	r3,8(r18)
 100487c:	94400415 	stw	r17,16(r18)
 1004880:	94c00515 	stw	r19,20(r18)
 1004884:	91000017 	ldw	r4,0(r18)
 1004888:	b80b883a 	mov	r5,r23
 100488c:	a023883a 	mov	r17,r20
 1004890:	10057ec0 	call	10057ec <memmove>
 1004894:	90c00217 	ldw	r3,8(r18)
 1004898:	90800017 	ldw	r2,0(r18)
 100489c:	a027883a 	mov	r19,r20
 10048a0:	1c07c83a 	sub	r3,r3,r16
 10048a4:	1405883a 	add	r2,r2,r16
 10048a8:	90c00215 	stw	r3,8(r18)
 10048ac:	a021883a 	mov	r16,r20
 10048b0:	90800015 	stw	r2,0(r18)
 10048b4:	b0800217 	ldw	r2,8(r22)
 10048b8:	1405c83a 	sub	r2,r2,r16
 10048bc:	b0800215 	stw	r2,8(r22)
 10048c0:	103fa826 	beq	r2,zero,1004764 <__sfvwrite_r+0xb0>
 10048c4:	a469c83a 	sub	r20,r20,r17
 10048c8:	91c0030b 	ldhu	r7,12(r18)
 10048cc:	bcef883a 	add	r23,r23,r19
 10048d0:	a03fbe1e 	bne	r20,zero,10047cc <__sfvwrite_r+0x118>
 10048d4:	adc00017 	ldw	r23,0(r21)
 10048d8:	ad000117 	ldw	r20,4(r21)
 10048dc:	ad400204 	addi	r21,r21,8
 10048e0:	003fb906 	br	10047c8 <__sfvwrite_r+0x114>
 10048e4:	ac400017 	ldw	r17,0(r21)
 10048e8:	ac000117 	ldw	r16,4(r21)
 10048ec:	ad400204 	addi	r21,r21,8
 10048f0:	003f8a06 	br	100471c <__sfvwrite_r+0x68>
 10048f4:	91400417 	ldw	r5,16(r18)
 10048f8:	e009883a 	mov	r4,fp
 10048fc:	10043a00 	call	10043a0 <_free_r>
 1004900:	00800304 	movi	r2,12
 1004904:	e0800015 	stw	r2,0(fp)
 1004908:	9080030b 	ldhu	r2,12(r18)
 100490c:	013fffc4 	movi	r4,-1
 1004910:	10801014 	ori	r2,r2,64
 1004914:	9080030d 	sth	r2,12(r18)
 1004918:	003f9306 	br	1004768 <__sfvwrite_r+0xb4>
 100491c:	0027883a 	mov	r19,zero
 1004920:	002f883a 	mov	r23,zero
 1004924:	d8000015 	stw	zero,0(sp)
 1004928:	0029883a 	mov	r20,zero
 100492c:	98001e26 	beq	r19,zero,10049a8 <__sfvwrite_r+0x2f4>
 1004930:	d8c00017 	ldw	r3,0(sp)
 1004934:	1804c03a 	cmpne	r2,r3,zero
 1004938:	10005e26 	beq	r2,zero,1004ab4 <__sfvwrite_r+0x400>
 100493c:	9821883a 	mov	r16,r19
 1004940:	a4c0012e 	bgeu	r20,r19,1004948 <__sfvwrite_r+0x294>
 1004944:	a021883a 	mov	r16,r20
 1004948:	91000017 	ldw	r4,0(r18)
 100494c:	90800417 	ldw	r2,16(r18)
 1004950:	91800217 	ldw	r6,8(r18)
 1004954:	91c00517 	ldw	r7,20(r18)
 1004958:	1100022e 	bgeu	r2,r4,1004964 <__sfvwrite_r+0x2b0>
 100495c:	31e3883a 	add	r17,r6,r7
 1004960:	8c001616 	blt	r17,r16,10049bc <__sfvwrite_r+0x308>
 1004964:	81c03816 	blt	r16,r7,1004a48 <__sfvwrite_r+0x394>
 1004968:	90c00917 	ldw	r3,36(r18)
 100496c:	91400717 	ldw	r5,28(r18)
 1004970:	e009883a 	mov	r4,fp
 1004974:	b80d883a 	mov	r6,r23
 1004978:	183ee83a 	callr	r3
 100497c:	1023883a 	mov	r17,r2
 1004980:	00bfe10e 	bge	zero,r2,1004908 <__sfvwrite_r+0x254>
 1004984:	a469c83a 	sub	r20,r20,r17
 1004988:	a0001826 	beq	r20,zero,10049ec <__sfvwrite_r+0x338>
 100498c:	b0800217 	ldw	r2,8(r22)
 1004990:	1445c83a 	sub	r2,r2,r17
 1004994:	b0800215 	stw	r2,8(r22)
 1004998:	103f7226 	beq	r2,zero,1004764 <__sfvwrite_r+0xb0>
 100499c:	9c67c83a 	sub	r19,r19,r17
 10049a0:	bc6f883a 	add	r23,r23,r17
 10049a4:	983fe21e 	bne	r19,zero,1004930 <__sfvwrite_r+0x27c>
 10049a8:	adc00017 	ldw	r23,0(r21)
 10049ac:	acc00117 	ldw	r19,4(r21)
 10049b0:	ad400204 	addi	r21,r21,8
 10049b4:	d8000015 	stw	zero,0(sp)
 10049b8:	003fdc06 	br	100492c <__sfvwrite_r+0x278>
 10049bc:	b80b883a 	mov	r5,r23
 10049c0:	880d883a 	mov	r6,r17
 10049c4:	10057ec0 	call	10057ec <memmove>
 10049c8:	90c00017 	ldw	r3,0(r18)
 10049cc:	e009883a 	mov	r4,fp
 10049d0:	900b883a 	mov	r5,r18
 10049d4:	1c47883a 	add	r3,r3,r17
 10049d8:	90c00015 	stw	r3,0(r18)
 10049dc:	1003d500 	call	1003d50 <_fflush_r>
 10049e0:	103fc91e 	bne	r2,zero,1004908 <__sfvwrite_r+0x254>
 10049e4:	a469c83a 	sub	r20,r20,r17
 10049e8:	a03fe81e 	bne	r20,zero,100498c <__sfvwrite_r+0x2d8>
 10049ec:	e009883a 	mov	r4,fp
 10049f0:	900b883a 	mov	r5,r18
 10049f4:	1003d500 	call	1003d50 <_fflush_r>
 10049f8:	103fc31e 	bne	r2,zero,1004908 <__sfvwrite_r+0x254>
 10049fc:	d8000015 	stw	zero,0(sp)
 1004a00:	003fe206 	br	100498c <__sfvwrite_r+0x2d8>
 1004a04:	91000017 	ldw	r4,0(r18)
 1004a08:	90800417 	ldw	r2,16(r18)
 1004a0c:	1100022e 	bgeu	r2,r4,1004a18 <__sfvwrite_r+0x364>
 1004a10:	8023883a 	mov	r17,r16
 1004a14:	85003136 	bltu	r16,r20,1004adc <__sfvwrite_r+0x428>
 1004a18:	91c00517 	ldw	r7,20(r18)
 1004a1c:	a1c01836 	bltu	r20,r7,1004a80 <__sfvwrite_r+0x3cc>
 1004a20:	90c00917 	ldw	r3,36(r18)
 1004a24:	91400717 	ldw	r5,28(r18)
 1004a28:	e009883a 	mov	r4,fp
 1004a2c:	b80d883a 	mov	r6,r23
 1004a30:	183ee83a 	callr	r3
 1004a34:	1021883a 	mov	r16,r2
 1004a38:	00bfb30e 	bge	zero,r2,1004908 <__sfvwrite_r+0x254>
 1004a3c:	1023883a 	mov	r17,r2
 1004a40:	1027883a 	mov	r19,r2
 1004a44:	003f9b06 	br	10048b4 <__sfvwrite_r+0x200>
 1004a48:	b80b883a 	mov	r5,r23
 1004a4c:	800d883a 	mov	r6,r16
 1004a50:	10057ec0 	call	10057ec <memmove>
 1004a54:	90c00217 	ldw	r3,8(r18)
 1004a58:	90800017 	ldw	r2,0(r18)
 1004a5c:	8023883a 	mov	r17,r16
 1004a60:	1c07c83a 	sub	r3,r3,r16
 1004a64:	1405883a 	add	r2,r2,r16
 1004a68:	90c00215 	stw	r3,8(r18)
 1004a6c:	90800015 	stw	r2,0(r18)
 1004a70:	003fc406 	br	1004984 <__sfvwrite_r+0x2d0>
 1004a74:	a00d883a 	mov	r6,r20
 1004a78:	a021883a 	mov	r16,r20
 1004a7c:	003f8106 	br	1004884 <__sfvwrite_r+0x1d0>
 1004a80:	b80b883a 	mov	r5,r23
 1004a84:	a00d883a 	mov	r6,r20
 1004a88:	10057ec0 	call	10057ec <memmove>
 1004a8c:	90c00217 	ldw	r3,8(r18)
 1004a90:	90800017 	ldw	r2,0(r18)
 1004a94:	a021883a 	mov	r16,r20
 1004a98:	1d07c83a 	sub	r3,r3,r20
 1004a9c:	1505883a 	add	r2,r2,r20
 1004aa0:	a023883a 	mov	r17,r20
 1004aa4:	a027883a 	mov	r19,r20
 1004aa8:	90c00215 	stw	r3,8(r18)
 1004aac:	90800015 	stw	r2,0(r18)
 1004ab0:	003f8006 	br	10048b4 <__sfvwrite_r+0x200>
 1004ab4:	b809883a 	mov	r4,r23
 1004ab8:	01400284 	movi	r5,10
 1004abc:	980d883a 	mov	r6,r19
 1004ac0:	10056680 	call	1005668 <memchr>
 1004ac4:	10001726 	beq	r2,zero,1004b24 <__sfvwrite_r+0x470>
 1004ac8:	15c5c83a 	sub	r2,r2,r23
 1004acc:	15000044 	addi	r20,r2,1
 1004ad0:	00800044 	movi	r2,1
 1004ad4:	d8800015 	stw	r2,0(sp)
 1004ad8:	003f9806 	br	100493c <__sfvwrite_r+0x288>
 1004adc:	b80b883a 	mov	r5,r23
 1004ae0:	800d883a 	mov	r6,r16
 1004ae4:	10057ec0 	call	10057ec <memmove>
 1004ae8:	90c00017 	ldw	r3,0(r18)
 1004aec:	e009883a 	mov	r4,fp
 1004af0:	900b883a 	mov	r5,r18
 1004af4:	1c07883a 	add	r3,r3,r16
 1004af8:	90c00015 	stw	r3,0(r18)
 1004afc:	8027883a 	mov	r19,r16
 1004b00:	1003d500 	call	1003d50 <_fflush_r>
 1004b04:	103f6b26 	beq	r2,zero,10048b4 <__sfvwrite_r+0x200>
 1004b08:	003f7f06 	br	1004908 <__sfvwrite_r+0x254>
 1004b0c:	400b883a 	mov	r5,r8
 1004b10:	e009883a 	mov	r4,fp
 1004b14:	10069f00 	call	10069f0 <_realloc_r>
 1004b18:	103f7626 	beq	r2,zero,10048f4 <__sfvwrite_r+0x240>
 1004b1c:	1023883a 	mov	r17,r2
 1004b20:	003f5006 	br	1004864 <__sfvwrite_r+0x1b0>
 1004b24:	00c00044 	movi	r3,1
 1004b28:	9d000044 	addi	r20,r19,1
 1004b2c:	d8c00015 	stw	r3,0(sp)
 1004b30:	003f8206 	br	100493c <__sfvwrite_r+0x288>
 1004b34:	9080030b 	ldhu	r2,12(r18)
 1004b38:	00c00244 	movi	r3,9
 1004b3c:	013fffc4 	movi	r4,-1
 1004b40:	10801014 	ori	r2,r2,64
 1004b44:	9080030d 	sth	r2,12(r18)
 1004b48:	e0c00015 	stw	r3,0(fp)
 1004b4c:	003f0606 	br	1004768 <__sfvwrite_r+0xb4>

01004b50 <_fwalk_reent>:
 1004b50:	defff704 	addi	sp,sp,-36
 1004b54:	dcc00315 	stw	r19,12(sp)
 1004b58:	24c0b804 	addi	r19,r4,736
 1004b5c:	dd800615 	stw	r22,24(sp)
 1004b60:	dd400515 	stw	r21,20(sp)
 1004b64:	dfc00815 	stw	ra,32(sp)
 1004b68:	ddc00715 	stw	r23,28(sp)
 1004b6c:	dd000415 	stw	r20,16(sp)
 1004b70:	dc800215 	stw	r18,8(sp)
 1004b74:	dc400115 	stw	r17,4(sp)
 1004b78:	dc000015 	stw	r16,0(sp)
 1004b7c:	202b883a 	mov	r21,r4
 1004b80:	282d883a 	mov	r22,r5
 1004b84:	1003fd80 	call	1003fd8 <__sfp_lock_acquire>
 1004b88:	98002126 	beq	r19,zero,1004c10 <_fwalk_reent+0xc0>
 1004b8c:	002f883a 	mov	r23,zero
 1004b90:	9c800117 	ldw	r18,4(r19)
 1004b94:	9c000217 	ldw	r16,8(r19)
 1004b98:	90bfffc4 	addi	r2,r18,-1
 1004b9c:	10000d16 	blt	r2,zero,1004bd4 <_fwalk_reent+0x84>
 1004ba0:	0023883a 	mov	r17,zero
 1004ba4:	053fffc4 	movi	r20,-1
 1004ba8:	8080030f 	ldh	r2,12(r16)
 1004bac:	8c400044 	addi	r17,r17,1
 1004bb0:	10000626 	beq	r2,zero,1004bcc <_fwalk_reent+0x7c>
 1004bb4:	8080038f 	ldh	r2,14(r16)
 1004bb8:	800b883a 	mov	r5,r16
 1004bbc:	a809883a 	mov	r4,r21
 1004bc0:	15000226 	beq	r2,r20,1004bcc <_fwalk_reent+0x7c>
 1004bc4:	b03ee83a 	callr	r22
 1004bc8:	b8aeb03a 	or	r23,r23,r2
 1004bcc:	84001704 	addi	r16,r16,92
 1004bd0:	947ff51e 	bne	r18,r17,1004ba8 <_fwalk_reent+0x58>
 1004bd4:	9cc00017 	ldw	r19,0(r19)
 1004bd8:	983fed1e 	bne	r19,zero,1004b90 <_fwalk_reent+0x40>
 1004bdc:	1003fdc0 	call	1003fdc <__sfp_lock_release>
 1004be0:	b805883a 	mov	r2,r23
 1004be4:	dfc00817 	ldw	ra,32(sp)
 1004be8:	ddc00717 	ldw	r23,28(sp)
 1004bec:	dd800617 	ldw	r22,24(sp)
 1004bf0:	dd400517 	ldw	r21,20(sp)
 1004bf4:	dd000417 	ldw	r20,16(sp)
 1004bf8:	dcc00317 	ldw	r19,12(sp)
 1004bfc:	dc800217 	ldw	r18,8(sp)
 1004c00:	dc400117 	ldw	r17,4(sp)
 1004c04:	dc000017 	ldw	r16,0(sp)
 1004c08:	dec00904 	addi	sp,sp,36
 1004c0c:	f800283a 	ret
 1004c10:	002f883a 	mov	r23,zero
 1004c14:	003ff106 	br	1004bdc <_fwalk_reent+0x8c>

01004c18 <_fwalk>:
 1004c18:	defff804 	addi	sp,sp,-32
 1004c1c:	dcc00315 	stw	r19,12(sp)
 1004c20:	24c0b804 	addi	r19,r4,736
 1004c24:	dd400515 	stw	r21,20(sp)
 1004c28:	dfc00715 	stw	ra,28(sp)
 1004c2c:	dd800615 	stw	r22,24(sp)
 1004c30:	dd000415 	stw	r20,16(sp)
 1004c34:	dc800215 	stw	r18,8(sp)
 1004c38:	dc400115 	stw	r17,4(sp)
 1004c3c:	dc000015 	stw	r16,0(sp)
 1004c40:	282b883a 	mov	r21,r5
 1004c44:	1003fd80 	call	1003fd8 <__sfp_lock_acquire>
 1004c48:	98001f26 	beq	r19,zero,1004cc8 <_fwalk+0xb0>
 1004c4c:	002d883a 	mov	r22,zero
 1004c50:	9c800117 	ldw	r18,4(r19)
 1004c54:	9c000217 	ldw	r16,8(r19)
 1004c58:	90bfffc4 	addi	r2,r18,-1
 1004c5c:	10000c16 	blt	r2,zero,1004c90 <_fwalk+0x78>
 1004c60:	0023883a 	mov	r17,zero
 1004c64:	053fffc4 	movi	r20,-1
 1004c68:	8080030f 	ldh	r2,12(r16)
 1004c6c:	8c400044 	addi	r17,r17,1
 1004c70:	10000526 	beq	r2,zero,1004c88 <_fwalk+0x70>
 1004c74:	8080038f 	ldh	r2,14(r16)
 1004c78:	8009883a 	mov	r4,r16
 1004c7c:	15000226 	beq	r2,r20,1004c88 <_fwalk+0x70>
 1004c80:	a83ee83a 	callr	r21
 1004c84:	b0acb03a 	or	r22,r22,r2
 1004c88:	84001704 	addi	r16,r16,92
 1004c8c:	947ff61e 	bne	r18,r17,1004c68 <_fwalk+0x50>
 1004c90:	9cc00017 	ldw	r19,0(r19)
 1004c94:	983fee1e 	bne	r19,zero,1004c50 <_fwalk+0x38>
 1004c98:	1003fdc0 	call	1003fdc <__sfp_lock_release>
 1004c9c:	b005883a 	mov	r2,r22
 1004ca0:	dfc00717 	ldw	ra,28(sp)
 1004ca4:	dd800617 	ldw	r22,24(sp)
 1004ca8:	dd400517 	ldw	r21,20(sp)
 1004cac:	dd000417 	ldw	r20,16(sp)
 1004cb0:	dcc00317 	ldw	r19,12(sp)
 1004cb4:	dc800217 	ldw	r18,8(sp)
 1004cb8:	dc400117 	ldw	r17,4(sp)
 1004cbc:	dc000017 	ldw	r16,0(sp)
 1004cc0:	dec00804 	addi	sp,sp,32
 1004cc4:	f800283a 	ret
 1004cc8:	002d883a 	mov	r22,zero
 1004ccc:	003ff206 	br	1004c98 <_fwalk+0x80>

01004cd0 <__locale_charset>:
 1004cd0:	d0a00317 	ldw	r2,-32756(gp)
 1004cd4:	f800283a 	ret

01004cd8 <_localeconv_r>:
 1004cd8:	00804074 	movhi	r2,257
 1004cdc:	10b53804 	addi	r2,r2,-11040
 1004ce0:	f800283a 	ret

01004ce4 <localeconv>:
 1004ce4:	00804074 	movhi	r2,257
 1004ce8:	10bc8804 	addi	r2,r2,-3552
 1004cec:	11000017 	ldw	r4,0(r2)
 1004cf0:	1004cd81 	jmpi	1004cd8 <_localeconv_r>

01004cf4 <_setlocale_r>:
 1004cf4:	defffc04 	addi	sp,sp,-16
 1004cf8:	00c04074 	movhi	r3,257
 1004cfc:	18f53304 	addi	r3,r3,-11060
 1004d00:	dc800215 	stw	r18,8(sp)
 1004d04:	dc400115 	stw	r17,4(sp)
 1004d08:	dc000015 	stw	r16,0(sp)
 1004d0c:	2023883a 	mov	r17,r4
 1004d10:	2825883a 	mov	r18,r5
 1004d14:	dfc00315 	stw	ra,12(sp)
 1004d18:	3021883a 	mov	r16,r6
 1004d1c:	3009883a 	mov	r4,r6
 1004d20:	180b883a 	mov	r5,r3
 1004d24:	30000926 	beq	r6,zero,1004d4c <_setlocale_r+0x58>
 1004d28:	10072100 	call	1007210 <strcmp>
 1004d2c:	8009883a 	mov	r4,r16
 1004d30:	01404074 	movhi	r5,257
 1004d34:	29751e04 	addi	r5,r5,-11144
 1004d38:	10000b1e 	bne	r2,zero,1004d68 <_setlocale_r+0x74>
 1004d3c:	8c000d15 	stw	r16,52(r17)
 1004d40:	8c800c15 	stw	r18,48(r17)
 1004d44:	00c04074 	movhi	r3,257
 1004d48:	18f53304 	addi	r3,r3,-11060
 1004d4c:	1805883a 	mov	r2,r3
 1004d50:	dfc00317 	ldw	ra,12(sp)
 1004d54:	dc800217 	ldw	r18,8(sp)
 1004d58:	dc400117 	ldw	r17,4(sp)
 1004d5c:	dc000017 	ldw	r16,0(sp)
 1004d60:	dec00404 	addi	sp,sp,16
 1004d64:	f800283a 	ret
 1004d68:	10072100 	call	1007210 <strcmp>
 1004d6c:	0007883a 	mov	r3,zero
 1004d70:	103ff226 	beq	r2,zero,1004d3c <_setlocale_r+0x48>
 1004d74:	003ff506 	br	1004d4c <_setlocale_r+0x58>

01004d78 <setlocale>:
 1004d78:	01804074 	movhi	r6,257
 1004d7c:	31bc8804 	addi	r6,r6,-3552
 1004d80:	2007883a 	mov	r3,r4
 1004d84:	31000017 	ldw	r4,0(r6)
 1004d88:	280d883a 	mov	r6,r5
 1004d8c:	180b883a 	mov	r5,r3
 1004d90:	1004cf41 	jmpi	1004cf4 <_setlocale_r>

01004d94 <__smakebuf_r>:
 1004d94:	2880030b 	ldhu	r2,12(r5)
 1004d98:	deffed04 	addi	sp,sp,-76
 1004d9c:	dc401015 	stw	r17,64(sp)
 1004da0:	1080008c 	andi	r2,r2,2
 1004da4:	dc000f15 	stw	r16,60(sp)
 1004da8:	dfc01215 	stw	ra,72(sp)
 1004dac:	dc801115 	stw	r18,68(sp)
 1004db0:	2821883a 	mov	r16,r5
 1004db4:	2023883a 	mov	r17,r4
 1004db8:	10000b26 	beq	r2,zero,1004de8 <__smakebuf_r+0x54>
 1004dbc:	28c010c4 	addi	r3,r5,67
 1004dc0:	00800044 	movi	r2,1
 1004dc4:	28800515 	stw	r2,20(r5)
 1004dc8:	28c00415 	stw	r3,16(r5)
 1004dcc:	28c00015 	stw	r3,0(r5)
 1004dd0:	dfc01217 	ldw	ra,72(sp)
 1004dd4:	dc801117 	ldw	r18,68(sp)
 1004dd8:	dc401017 	ldw	r17,64(sp)
 1004ddc:	dc000f17 	ldw	r16,60(sp)
 1004de0:	dec01304 	addi	sp,sp,76
 1004de4:	f800283a 	ret
 1004de8:	2940038f 	ldh	r5,14(r5)
 1004dec:	28002116 	blt	r5,zero,1004e74 <__smakebuf_r+0xe0>
 1004df0:	d80d883a 	mov	r6,sp
 1004df4:	10076140 	call	1007614 <_fstat_r>
 1004df8:	10001e16 	blt	r2,zero,1004e74 <__smakebuf_r+0xe0>
 1004dfc:	d8800117 	ldw	r2,4(sp)
 1004e00:	00e00014 	movui	r3,32768
 1004e04:	113c000c 	andi	r4,r2,61440
 1004e08:	20c03126 	beq	r4,r3,1004ed0 <__smakebuf_r+0x13c>
 1004e0c:	8080030b 	ldhu	r2,12(r16)
 1004e10:	00c80004 	movi	r3,8192
 1004e14:	10820014 	ori	r2,r2,2048
 1004e18:	8080030d 	sth	r2,12(r16)
 1004e1c:	20c01e26 	beq	r4,r3,1004e98 <__smakebuf_r+0x104>
 1004e20:	04810004 	movi	r18,1024
 1004e24:	8809883a 	mov	r4,r17
 1004e28:	900b883a 	mov	r5,r18
 1004e2c:	1004f280 	call	1004f28 <_malloc_r>
 1004e30:	1009883a 	mov	r4,r2
 1004e34:	10003126 	beq	r2,zero,1004efc <__smakebuf_r+0x168>
 1004e38:	80c0030b 	ldhu	r3,12(r16)
 1004e3c:	00804034 	movhi	r2,256
 1004e40:	10903304 	addi	r2,r2,16588
 1004e44:	88800f15 	stw	r2,60(r17)
 1004e48:	18c02014 	ori	r3,r3,128
 1004e4c:	84800515 	stw	r18,20(r16)
 1004e50:	80c0030d 	sth	r3,12(r16)
 1004e54:	81000415 	stw	r4,16(r16)
 1004e58:	81000015 	stw	r4,0(r16)
 1004e5c:	dfc01217 	ldw	ra,72(sp)
 1004e60:	dc801117 	ldw	r18,68(sp)
 1004e64:	dc401017 	ldw	r17,64(sp)
 1004e68:	dc000f17 	ldw	r16,60(sp)
 1004e6c:	dec01304 	addi	sp,sp,76
 1004e70:	f800283a 	ret
 1004e74:	80c0030b 	ldhu	r3,12(r16)
 1004e78:	1880200c 	andi	r2,r3,128
 1004e7c:	10000426 	beq	r2,zero,1004e90 <__smakebuf_r+0xfc>
 1004e80:	04801004 	movi	r18,64
 1004e84:	18820014 	ori	r2,r3,2048
 1004e88:	8080030d 	sth	r2,12(r16)
 1004e8c:	003fe506 	br	1004e24 <__smakebuf_r+0x90>
 1004e90:	04810004 	movi	r18,1024
 1004e94:	003ffb06 	br	1004e84 <__smakebuf_r+0xf0>
 1004e98:	8140038f 	ldh	r5,14(r16)
 1004e9c:	8809883a 	mov	r4,r17
 1004ea0:	10076880 	call	1007688 <_isatty_r>
 1004ea4:	103fde26 	beq	r2,zero,1004e20 <__smakebuf_r+0x8c>
 1004ea8:	8080030b 	ldhu	r2,12(r16)
 1004eac:	80c010c4 	addi	r3,r16,67
 1004eb0:	04810004 	movi	r18,1024
 1004eb4:	10800054 	ori	r2,r2,1
 1004eb8:	8080030d 	sth	r2,12(r16)
 1004ebc:	00800044 	movi	r2,1
 1004ec0:	80c00415 	stw	r3,16(r16)
 1004ec4:	80800515 	stw	r2,20(r16)
 1004ec8:	80c00015 	stw	r3,0(r16)
 1004ecc:	003fd506 	br	1004e24 <__smakebuf_r+0x90>
 1004ed0:	80c00a17 	ldw	r3,40(r16)
 1004ed4:	00804034 	movhi	r2,256
 1004ed8:	109c3304 	addi	r2,r2,28876
 1004edc:	18bfcb1e 	bne	r3,r2,1004e0c <__smakebuf_r+0x78>
 1004ee0:	8080030b 	ldhu	r2,12(r16)
 1004ee4:	00c10004 	movi	r3,1024
 1004ee8:	1825883a 	mov	r18,r3
 1004eec:	10c4b03a 	or	r2,r2,r3
 1004ef0:	8080030d 	sth	r2,12(r16)
 1004ef4:	80c01315 	stw	r3,76(r16)
 1004ef8:	003fca06 	br	1004e24 <__smakebuf_r+0x90>
 1004efc:	8100030b 	ldhu	r4,12(r16)
 1004f00:	2080800c 	andi	r2,r4,512
 1004f04:	103fb21e 	bne	r2,zero,1004dd0 <__smakebuf_r+0x3c>
 1004f08:	80c010c4 	addi	r3,r16,67
 1004f0c:	21000094 	ori	r4,r4,2
 1004f10:	00800044 	movi	r2,1
 1004f14:	80800515 	stw	r2,20(r16)
 1004f18:	8100030d 	sth	r4,12(r16)
 1004f1c:	80c00415 	stw	r3,16(r16)
 1004f20:	80c00015 	stw	r3,0(r16)
 1004f24:	003faa06 	br	1004dd0 <__smakebuf_r+0x3c>

01004f28 <_malloc_r>:
 1004f28:	defff604 	addi	sp,sp,-40
 1004f2c:	28c002c4 	addi	r3,r5,11
 1004f30:	00800584 	movi	r2,22
 1004f34:	dc800215 	stw	r18,8(sp)
 1004f38:	dfc00915 	stw	ra,36(sp)
 1004f3c:	df000815 	stw	fp,32(sp)
 1004f40:	ddc00715 	stw	r23,28(sp)
 1004f44:	dd800615 	stw	r22,24(sp)
 1004f48:	dd400515 	stw	r21,20(sp)
 1004f4c:	dd000415 	stw	r20,16(sp)
 1004f50:	dcc00315 	stw	r19,12(sp)
 1004f54:	dc400115 	stw	r17,4(sp)
 1004f58:	dc000015 	stw	r16,0(sp)
 1004f5c:	2025883a 	mov	r18,r4
 1004f60:	10c01236 	bltu	r2,r3,1004fac <_malloc_r+0x84>
 1004f64:	04400404 	movi	r17,16
 1004f68:	8940142e 	bgeu	r17,r5,1004fbc <_malloc_r+0x94>
 1004f6c:	00800304 	movi	r2,12
 1004f70:	0007883a 	mov	r3,zero
 1004f74:	90800015 	stw	r2,0(r18)
 1004f78:	1805883a 	mov	r2,r3
 1004f7c:	dfc00917 	ldw	ra,36(sp)
 1004f80:	df000817 	ldw	fp,32(sp)
 1004f84:	ddc00717 	ldw	r23,28(sp)
 1004f88:	dd800617 	ldw	r22,24(sp)
 1004f8c:	dd400517 	ldw	r21,20(sp)
 1004f90:	dd000417 	ldw	r20,16(sp)
 1004f94:	dcc00317 	ldw	r19,12(sp)
 1004f98:	dc800217 	ldw	r18,8(sp)
 1004f9c:	dc400117 	ldw	r17,4(sp)
 1004fa0:	dc000017 	ldw	r16,0(sp)
 1004fa4:	dec00a04 	addi	sp,sp,40
 1004fa8:	f800283a 	ret
 1004fac:	00bffe04 	movi	r2,-8
 1004fb0:	18a2703a 	and	r17,r3,r2
 1004fb4:	883fed16 	blt	r17,zero,1004f6c <_malloc_r+0x44>
 1004fb8:	897fec36 	bltu	r17,r5,1004f6c <_malloc_r+0x44>
 1004fbc:	9009883a 	mov	r4,r18
 1004fc0:	100a4b00 	call	100a4b0 <__malloc_lock>
 1004fc4:	00807dc4 	movi	r2,503
 1004fc8:	14402b2e 	bgeu	r2,r17,1005078 <_malloc_r+0x150>
 1004fcc:	8806d27a 	srli	r3,r17,9
 1004fd0:	18003f1e 	bne	r3,zero,10050d0 <_malloc_r+0x1a8>
 1004fd4:	880cd0fa 	srli	r6,r17,3
 1004fd8:	300490fa 	slli	r2,r6,3
 1004fdc:	02c04074 	movhi	r11,257
 1004fe0:	5af6ee04 	addi	r11,r11,-9288
 1004fe4:	12cb883a 	add	r5,r2,r11
 1004fe8:	2c000317 	ldw	r16,12(r5)
 1004fec:	580f883a 	mov	r7,r11
 1004ff0:	2c00041e 	bne	r5,r16,1005004 <_malloc_r+0xdc>
 1004ff4:	00000a06 	br	1005020 <_malloc_r+0xf8>
 1004ff8:	1800860e 	bge	r3,zero,1005214 <_malloc_r+0x2ec>
 1004ffc:	84000317 	ldw	r16,12(r16)
 1005000:	2c000726 	beq	r5,r16,1005020 <_malloc_r+0xf8>
 1005004:	80800117 	ldw	r2,4(r16)
 1005008:	00ffff04 	movi	r3,-4
 100500c:	10c8703a 	and	r4,r2,r3
 1005010:	2447c83a 	sub	r3,r4,r17
 1005014:	008003c4 	movi	r2,15
 1005018:	10fff70e 	bge	r2,r3,1004ff8 <_malloc_r+0xd0>
 100501c:	31bfffc4 	addi	r6,r6,-1
 1005020:	32400044 	addi	r9,r6,1
 1005024:	02804074 	movhi	r10,257
 1005028:	52b6f004 	addi	r10,r10,-9280
 100502c:	54000217 	ldw	r16,8(r10)
 1005030:	8280a026 	beq	r16,r10,10052b4 <_malloc_r+0x38c>
 1005034:	80800117 	ldw	r2,4(r16)
 1005038:	00ffff04 	movi	r3,-4
 100503c:	10ca703a 	and	r5,r2,r3
 1005040:	2c4dc83a 	sub	r6,r5,r17
 1005044:	008003c4 	movi	r2,15
 1005048:	11808316 	blt	r2,r6,1005258 <_malloc_r+0x330>
 100504c:	52800315 	stw	r10,12(r10)
 1005050:	52800215 	stw	r10,8(r10)
 1005054:	30002916 	blt	r6,zero,10050fc <_malloc_r+0x1d4>
 1005058:	8147883a 	add	r3,r16,r5
 100505c:	18800117 	ldw	r2,4(r3)
 1005060:	9009883a 	mov	r4,r18
 1005064:	10800054 	ori	r2,r2,1
 1005068:	18800115 	stw	r2,4(r3)
 100506c:	100a4d00 	call	100a4d0 <__malloc_unlock>
 1005070:	80c00204 	addi	r3,r16,8
 1005074:	003fc006 	br	1004f78 <_malloc_r+0x50>
 1005078:	02c04074 	movhi	r11,257
 100507c:	5af6ee04 	addi	r11,r11,-9288
 1005080:	8ac5883a 	add	r2,r17,r11
 1005084:	14000317 	ldw	r16,12(r2)
 1005088:	580f883a 	mov	r7,r11
 100508c:	8806d0fa 	srli	r3,r17,3
 1005090:	14006c26 	beq	r2,r16,1005244 <_malloc_r+0x31c>
 1005094:	80c00117 	ldw	r3,4(r16)
 1005098:	00bfff04 	movi	r2,-4
 100509c:	81800317 	ldw	r6,12(r16)
 10050a0:	1886703a 	and	r3,r3,r2
 10050a4:	80c7883a 	add	r3,r16,r3
 10050a8:	18800117 	ldw	r2,4(r3)
 10050ac:	81400217 	ldw	r5,8(r16)
 10050b0:	9009883a 	mov	r4,r18
 10050b4:	10800054 	ori	r2,r2,1
 10050b8:	18800115 	stw	r2,4(r3)
 10050bc:	31400215 	stw	r5,8(r6)
 10050c0:	29800315 	stw	r6,12(r5)
 10050c4:	100a4d00 	call	100a4d0 <__malloc_unlock>
 10050c8:	80c00204 	addi	r3,r16,8
 10050cc:	003faa06 	br	1004f78 <_malloc_r+0x50>
 10050d0:	00800104 	movi	r2,4
 10050d4:	10c0052e 	bgeu	r2,r3,10050ec <_malloc_r+0x1c4>
 10050d8:	00800504 	movi	r2,20
 10050dc:	10c07836 	bltu	r2,r3,10052c0 <_malloc_r+0x398>
 10050e0:	198016c4 	addi	r6,r3,91
 10050e4:	300490fa 	slli	r2,r6,3
 10050e8:	003fbc06 	br	1004fdc <_malloc_r+0xb4>
 10050ec:	8804d1ba 	srli	r2,r17,6
 10050f0:	11800e04 	addi	r6,r2,56
 10050f4:	300490fa 	slli	r2,r6,3
 10050f8:	003fb806 	br	1004fdc <_malloc_r+0xb4>
 10050fc:	00807fc4 	movi	r2,511
 1005100:	1140bb36 	bltu	r2,r5,10053f0 <_malloc_r+0x4c8>
 1005104:	2806d0fa 	srli	r3,r5,3
 1005108:	573ffe04 	addi	fp,r10,-8
 100510c:	00800044 	movi	r2,1
 1005110:	180890fa 	slli	r4,r3,3
 1005114:	1807d0ba 	srai	r3,r3,2
 1005118:	e1c00117 	ldw	r7,4(fp)
 100511c:	5909883a 	add	r4,r11,r4
 1005120:	21400217 	ldw	r5,8(r4)
 1005124:	10c4983a 	sll	r2,r2,r3
 1005128:	81000315 	stw	r4,12(r16)
 100512c:	81400215 	stw	r5,8(r16)
 1005130:	388eb03a 	or	r7,r7,r2
 1005134:	2c000315 	stw	r16,12(r5)
 1005138:	24000215 	stw	r16,8(r4)
 100513c:	e1c00115 	stw	r7,4(fp)
 1005140:	4807883a 	mov	r3,r9
 1005144:	4800cd16 	blt	r9,zero,100547c <_malloc_r+0x554>
 1005148:	1807d0ba 	srai	r3,r3,2
 100514c:	00800044 	movi	r2,1
 1005150:	10c8983a 	sll	r4,r2,r3
 1005154:	39004436 	bltu	r7,r4,1005268 <_malloc_r+0x340>
 1005158:	21c4703a 	and	r2,r4,r7
 100515c:	10000a1e 	bne	r2,zero,1005188 <_malloc_r+0x260>
 1005160:	2109883a 	add	r4,r4,r4
 1005164:	00bfff04 	movi	r2,-4
 1005168:	4884703a 	and	r2,r9,r2
 100516c:	3906703a 	and	r3,r7,r4
 1005170:	12400104 	addi	r9,r2,4
 1005174:	1800041e 	bne	r3,zero,1005188 <_malloc_r+0x260>
 1005178:	2109883a 	add	r4,r4,r4
 100517c:	3904703a 	and	r2,r7,r4
 1005180:	4a400104 	addi	r9,r9,4
 1005184:	103ffc26 	beq	r2,zero,1005178 <_malloc_r+0x250>
 1005188:	480490fa 	slli	r2,r9,3
 100518c:	4819883a 	mov	r12,r9
 1005190:	023fff04 	movi	r8,-4
 1005194:	589b883a 	add	r13,r11,r2
 1005198:	6807883a 	mov	r3,r13
 100519c:	014003c4 	movi	r5,15
 10051a0:	1c000317 	ldw	r16,12(r3)
 10051a4:	1c00041e 	bne	r3,r16,10051b8 <_malloc_r+0x290>
 10051a8:	0000a706 	br	1005448 <_malloc_r+0x520>
 10051ac:	3000ab0e 	bge	r6,zero,100545c <_malloc_r+0x534>
 10051b0:	84000317 	ldw	r16,12(r16)
 10051b4:	1c00a426 	beq	r3,r16,1005448 <_malloc_r+0x520>
 10051b8:	80800117 	ldw	r2,4(r16)
 10051bc:	1204703a 	and	r2,r2,r8
 10051c0:	144dc83a 	sub	r6,r2,r17
 10051c4:	29bff90e 	bge	r5,r6,10051ac <_malloc_r+0x284>
 10051c8:	81000317 	ldw	r4,12(r16)
 10051cc:	80c00217 	ldw	r3,8(r16)
 10051d0:	89400054 	ori	r5,r17,1
 10051d4:	8445883a 	add	r2,r16,r17
 10051d8:	20c00215 	stw	r3,8(r4)
 10051dc:	19000315 	stw	r4,12(r3)
 10051e0:	81400115 	stw	r5,4(r16)
 10051e4:	1187883a 	add	r3,r2,r6
 10051e8:	31000054 	ori	r4,r6,1
 10051ec:	50800315 	stw	r2,12(r10)
 10051f0:	50800215 	stw	r2,8(r10)
 10051f4:	19800015 	stw	r6,0(r3)
 10051f8:	11000115 	stw	r4,4(r2)
 10051fc:	12800215 	stw	r10,8(r2)
 1005200:	12800315 	stw	r10,12(r2)
 1005204:	9009883a 	mov	r4,r18
 1005208:	100a4d00 	call	100a4d0 <__malloc_unlock>
 100520c:	80c00204 	addi	r3,r16,8
 1005210:	003f5906 	br	1004f78 <_malloc_r+0x50>
 1005214:	8109883a 	add	r4,r16,r4
 1005218:	20800117 	ldw	r2,4(r4)
 100521c:	80c00217 	ldw	r3,8(r16)
 1005220:	81400317 	ldw	r5,12(r16)
 1005224:	10800054 	ori	r2,r2,1
 1005228:	20800115 	stw	r2,4(r4)
 100522c:	28c00215 	stw	r3,8(r5)
 1005230:	19400315 	stw	r5,12(r3)
 1005234:	9009883a 	mov	r4,r18
 1005238:	100a4d00 	call	100a4d0 <__malloc_unlock>
 100523c:	80c00204 	addi	r3,r16,8
 1005240:	003f4d06 	br	1004f78 <_malloc_r+0x50>
 1005244:	80800204 	addi	r2,r16,8
 1005248:	14000317 	ldw	r16,12(r2)
 100524c:	143f911e 	bne	r2,r16,1005094 <_malloc_r+0x16c>
 1005250:	1a400084 	addi	r9,r3,2
 1005254:	003f7306 	br	1005024 <_malloc_r+0xfc>
 1005258:	88c00054 	ori	r3,r17,1
 100525c:	8445883a 	add	r2,r16,r17
 1005260:	80c00115 	stw	r3,4(r16)
 1005264:	003fdf06 	br	10051e4 <_malloc_r+0x2bc>
 1005268:	e4000217 	ldw	r16,8(fp)
 100526c:	00bfff04 	movi	r2,-4
 1005270:	80c00117 	ldw	r3,4(r16)
 1005274:	802d883a 	mov	r22,r16
 1005278:	18aa703a 	and	r21,r3,r2
 100527c:	ac401636 	bltu	r21,r17,10052d8 <_malloc_r+0x3b0>
 1005280:	ac49c83a 	sub	r4,r21,r17
 1005284:	008003c4 	movi	r2,15
 1005288:	1100130e 	bge	r2,r4,10052d8 <_malloc_r+0x3b0>
 100528c:	88800054 	ori	r2,r17,1
 1005290:	8447883a 	add	r3,r16,r17
 1005294:	80800115 	stw	r2,4(r16)
 1005298:	20800054 	ori	r2,r4,1
 100529c:	18800115 	stw	r2,4(r3)
 10052a0:	e0c00215 	stw	r3,8(fp)
 10052a4:	9009883a 	mov	r4,r18
 10052a8:	100a4d00 	call	100a4d0 <__malloc_unlock>
 10052ac:	80c00204 	addi	r3,r16,8
 10052b0:	003f3106 	br	1004f78 <_malloc_r+0x50>
 10052b4:	39c00117 	ldw	r7,4(r7)
 10052b8:	573ffe04 	addi	fp,r10,-8
 10052bc:	003fa006 	br	1005140 <_malloc_r+0x218>
 10052c0:	00801504 	movi	r2,84
 10052c4:	10c06736 	bltu	r2,r3,1005464 <_malloc_r+0x53c>
 10052c8:	8804d33a 	srli	r2,r17,12
 10052cc:	11801b84 	addi	r6,r2,110
 10052d0:	300490fa 	slli	r2,r6,3
 10052d4:	003f4106 	br	1004fdc <_malloc_r+0xb4>
 10052d8:	d0a6c017 	ldw	r2,-25856(gp)
 10052dc:	d0e00517 	ldw	r3,-32748(gp)
 10052e0:	053fffc4 	movi	r20,-1
 10052e4:	10800404 	addi	r2,r2,16
 10052e8:	88a7883a 	add	r19,r17,r2
 10052ec:	1d000326 	beq	r3,r20,10052fc <_malloc_r+0x3d4>
 10052f0:	98c3ffc4 	addi	r3,r19,4095
 10052f4:	00bc0004 	movi	r2,-4096
 10052f8:	18a6703a 	and	r19,r3,r2
 10052fc:	9009883a 	mov	r4,r18
 1005300:	980b883a 	mov	r5,r19
 1005304:	10070540 	call	1007054 <_sbrk_r>
 1005308:	1009883a 	mov	r4,r2
 100530c:	15000426 	beq	r2,r20,1005320 <_malloc_r+0x3f8>
 1005310:	854b883a 	add	r5,r16,r21
 1005314:	1029883a 	mov	r20,r2
 1005318:	11405a2e 	bgeu	r2,r5,1005484 <_malloc_r+0x55c>
 100531c:	87000c26 	beq	r16,fp,1005350 <_malloc_r+0x428>
 1005320:	e4000217 	ldw	r16,8(fp)
 1005324:	80c00117 	ldw	r3,4(r16)
 1005328:	00bfff04 	movi	r2,-4
 100532c:	1884703a 	and	r2,r3,r2
 1005330:	14400336 	bltu	r2,r17,1005340 <_malloc_r+0x418>
 1005334:	1449c83a 	sub	r4,r2,r17
 1005338:	008003c4 	movi	r2,15
 100533c:	113fd316 	blt	r2,r4,100528c <_malloc_r+0x364>
 1005340:	9009883a 	mov	r4,r18
 1005344:	100a4d00 	call	100a4d0 <__malloc_unlock>
 1005348:	0007883a 	mov	r3,zero
 100534c:	003f0a06 	br	1004f78 <_malloc_r+0x50>
 1005350:	05c04074 	movhi	r23,257
 1005354:	bdc35204 	addi	r23,r23,3400
 1005358:	b8800017 	ldw	r2,0(r23)
 100535c:	988d883a 	add	r6,r19,r2
 1005360:	b9800015 	stw	r6,0(r23)
 1005364:	d0e00517 	ldw	r3,-32748(gp)
 1005368:	00bfffc4 	movi	r2,-1
 100536c:	18808e26 	beq	r3,r2,10055a8 <_malloc_r+0x680>
 1005370:	2145c83a 	sub	r2,r4,r5
 1005374:	3085883a 	add	r2,r6,r2
 1005378:	b8800015 	stw	r2,0(r23)
 100537c:	20c001cc 	andi	r3,r4,7
 1005380:	18005f1e 	bne	r3,zero,1005500 <_malloc_r+0x5d8>
 1005384:	000b883a 	mov	r5,zero
 1005388:	a4c5883a 	add	r2,r20,r19
 100538c:	1083ffcc 	andi	r2,r2,4095
 1005390:	00c40004 	movi	r3,4096
 1005394:	1887c83a 	sub	r3,r3,r2
 1005398:	28e7883a 	add	r19,r5,r3
 100539c:	9009883a 	mov	r4,r18
 10053a0:	980b883a 	mov	r5,r19
 10053a4:	10070540 	call	1007054 <_sbrk_r>
 10053a8:	1007883a 	mov	r3,r2
 10053ac:	00bfffc4 	movi	r2,-1
 10053b0:	18807a26 	beq	r3,r2,100559c <_malloc_r+0x674>
 10053b4:	1d05c83a 	sub	r2,r3,r20
 10053b8:	9885883a 	add	r2,r19,r2
 10053bc:	10c00054 	ori	r3,r2,1
 10053c0:	b8800017 	ldw	r2,0(r23)
 10053c4:	a021883a 	mov	r16,r20
 10053c8:	a0c00115 	stw	r3,4(r20)
 10053cc:	9885883a 	add	r2,r19,r2
 10053d0:	b8800015 	stw	r2,0(r23)
 10053d4:	e5000215 	stw	r20,8(fp)
 10053d8:	b7003626 	beq	r22,fp,10054b4 <_malloc_r+0x58c>
 10053dc:	018003c4 	movi	r6,15
 10053e0:	35404b36 	bltu	r6,r21,1005510 <_malloc_r+0x5e8>
 10053e4:	00800044 	movi	r2,1
 10053e8:	a0800115 	stw	r2,4(r20)
 10053ec:	003fcd06 	br	1005324 <_malloc_r+0x3fc>
 10053f0:	2808d27a 	srli	r4,r5,9
 10053f4:	2000371e 	bne	r4,zero,10054d4 <_malloc_r+0x5ac>
 10053f8:	2808d0fa 	srli	r4,r5,3
 10053fc:	200690fa 	slli	r3,r4,3
 1005400:	1ad1883a 	add	r8,r3,r11
 1005404:	41800217 	ldw	r6,8(r8)
 1005408:	41805b26 	beq	r8,r6,1005578 <_malloc_r+0x650>
 100540c:	30800117 	ldw	r2,4(r6)
 1005410:	00ffff04 	movi	r3,-4
 1005414:	10c4703a 	and	r2,r2,r3
 1005418:	2880022e 	bgeu	r5,r2,1005424 <_malloc_r+0x4fc>
 100541c:	31800217 	ldw	r6,8(r6)
 1005420:	41bffa1e 	bne	r8,r6,100540c <_malloc_r+0x4e4>
 1005424:	32000317 	ldw	r8,12(r6)
 1005428:	39c00117 	ldw	r7,4(r7)
 100542c:	82000315 	stw	r8,12(r16)
 1005430:	81800215 	stw	r6,8(r16)
 1005434:	07004074 	movhi	fp,257
 1005438:	e736ee04 	addi	fp,fp,-9288
 100543c:	34000315 	stw	r16,12(r6)
 1005440:	44000215 	stw	r16,8(r8)
 1005444:	003f3e06 	br	1005140 <_malloc_r+0x218>
 1005448:	63000044 	addi	r12,r12,1
 100544c:	608000cc 	andi	r2,r12,3
 1005450:	10005d26 	beq	r2,zero,10055c8 <_malloc_r+0x6a0>
 1005454:	18c00204 	addi	r3,r3,8
 1005458:	003f5106 	br	10051a0 <_malloc_r+0x278>
 100545c:	8089883a 	add	r4,r16,r2
 1005460:	003f6d06 	br	1005218 <_malloc_r+0x2f0>
 1005464:	00805504 	movi	r2,340
 1005468:	10c02036 	bltu	r2,r3,10054ec <_malloc_r+0x5c4>
 100546c:	8804d3fa 	srli	r2,r17,15
 1005470:	11801dc4 	addi	r6,r2,119
 1005474:	300490fa 	slli	r2,r6,3
 1005478:	003ed806 	br	1004fdc <_malloc_r+0xb4>
 100547c:	48c000c4 	addi	r3,r9,3
 1005480:	003f3106 	br	1005148 <_malloc_r+0x220>
 1005484:	05c04074 	movhi	r23,257
 1005488:	bdc35204 	addi	r23,r23,3400
 100548c:	b8800017 	ldw	r2,0(r23)
 1005490:	988d883a 	add	r6,r19,r2
 1005494:	b9800015 	stw	r6,0(r23)
 1005498:	293fb21e 	bne	r5,r4,1005364 <_malloc_r+0x43c>
 100549c:	2083ffcc 	andi	r2,r4,4095
 10054a0:	103fb01e 	bne	r2,zero,1005364 <_malloc_r+0x43c>
 10054a4:	e4000217 	ldw	r16,8(fp)
 10054a8:	9d45883a 	add	r2,r19,r21
 10054ac:	10800054 	ori	r2,r2,1
 10054b0:	80800115 	stw	r2,4(r16)
 10054b4:	b8c00017 	ldw	r3,0(r23)
 10054b8:	d0a6c117 	ldw	r2,-25852(gp)
 10054bc:	10c0012e 	bgeu	r2,r3,10054c4 <_malloc_r+0x59c>
 10054c0:	d0e6c115 	stw	r3,-25852(gp)
 10054c4:	d0a6c217 	ldw	r2,-25848(gp)
 10054c8:	10ff962e 	bgeu	r2,r3,1005324 <_malloc_r+0x3fc>
 10054cc:	d0e6c215 	stw	r3,-25848(gp)
 10054d0:	003f9406 	br	1005324 <_malloc_r+0x3fc>
 10054d4:	00800104 	movi	r2,4
 10054d8:	11001e36 	bltu	r2,r4,1005554 <_malloc_r+0x62c>
 10054dc:	2804d1ba 	srli	r2,r5,6
 10054e0:	11000e04 	addi	r4,r2,56
 10054e4:	200690fa 	slli	r3,r4,3
 10054e8:	003fc506 	br	1005400 <_malloc_r+0x4d8>
 10054ec:	00815504 	movi	r2,1364
 10054f0:	10c01d2e 	bgeu	r2,r3,1005568 <_malloc_r+0x640>
 10054f4:	01801f84 	movi	r6,126
 10054f8:	0080fc04 	movi	r2,1008
 10054fc:	003eb706 	br	1004fdc <_malloc_r+0xb4>
 1005500:	00800204 	movi	r2,8
 1005504:	10cbc83a 	sub	r5,r2,r3
 1005508:	2169883a 	add	r20,r4,r5
 100550c:	003f9e06 	br	1005388 <_malloc_r+0x460>
 1005510:	00bffe04 	movi	r2,-8
 1005514:	a93ffd04 	addi	r4,r21,-12
 1005518:	2088703a 	and	r4,r4,r2
 100551c:	b10b883a 	add	r5,r22,r4
 1005520:	00c00144 	movi	r3,5
 1005524:	28c00215 	stw	r3,8(r5)
 1005528:	28c00115 	stw	r3,4(r5)
 100552c:	b0800117 	ldw	r2,4(r22)
 1005530:	1080004c 	andi	r2,r2,1
 1005534:	2084b03a 	or	r2,r4,r2
 1005538:	b0800115 	stw	r2,4(r22)
 100553c:	313fdd2e 	bgeu	r6,r4,10054b4 <_malloc_r+0x58c>
 1005540:	b1400204 	addi	r5,r22,8
 1005544:	9009883a 	mov	r4,r18
 1005548:	10043a00 	call	10043a0 <_free_r>
 100554c:	e4000217 	ldw	r16,8(fp)
 1005550:	003fd806 	br	10054b4 <_malloc_r+0x58c>
 1005554:	00800504 	movi	r2,20
 1005558:	11001536 	bltu	r2,r4,10055b0 <_malloc_r+0x688>
 100555c:	210016c4 	addi	r4,r4,91
 1005560:	200690fa 	slli	r3,r4,3
 1005564:	003fa606 	br	1005400 <_malloc_r+0x4d8>
 1005568:	8804d4ba 	srli	r2,r17,18
 100556c:	11801f04 	addi	r6,r2,124
 1005570:	300490fa 	slli	r2,r6,3
 1005574:	003e9906 	br	1004fdc <_malloc_r+0xb4>
 1005578:	2009d0ba 	srai	r4,r4,2
 100557c:	01404074 	movhi	r5,257
 1005580:	2976ee04 	addi	r5,r5,-9288
 1005584:	00c00044 	movi	r3,1
 1005588:	28800117 	ldw	r2,4(r5)
 100558c:	1906983a 	sll	r3,r3,r4
 1005590:	10c4b03a 	or	r2,r2,r3
 1005594:	28800115 	stw	r2,4(r5)
 1005598:	003fa306 	br	1005428 <_malloc_r+0x500>
 100559c:	0027883a 	mov	r19,zero
 10055a0:	00c00044 	movi	r3,1
 10055a4:	003f8606 	br	10053c0 <_malloc_r+0x498>
 10055a8:	d1200515 	stw	r4,-32748(gp)
 10055ac:	003f7306 	br	100537c <_malloc_r+0x454>
 10055b0:	00801504 	movi	r2,84
 10055b4:	11001936 	bltu	r2,r4,100561c <_malloc_r+0x6f4>
 10055b8:	2804d33a 	srli	r2,r5,12
 10055bc:	11001b84 	addi	r4,r2,110
 10055c0:	200690fa 	slli	r3,r4,3
 10055c4:	003f8e06 	br	1005400 <_malloc_r+0x4d8>
 10055c8:	480b883a 	mov	r5,r9
 10055cc:	6807883a 	mov	r3,r13
 10055d0:	288000cc 	andi	r2,r5,3
 10055d4:	18fffe04 	addi	r3,r3,-8
 10055d8:	297fffc4 	addi	r5,r5,-1
 10055dc:	10001526 	beq	r2,zero,1005634 <_malloc_r+0x70c>
 10055e0:	18800217 	ldw	r2,8(r3)
 10055e4:	10fffa26 	beq	r2,r3,10055d0 <_malloc_r+0x6a8>
 10055e8:	2109883a 	add	r4,r4,r4
 10055ec:	393f1e36 	bltu	r7,r4,1005268 <_malloc_r+0x340>
 10055f0:	203f1d26 	beq	r4,zero,1005268 <_malloc_r+0x340>
 10055f4:	21c4703a 	and	r2,r4,r7
 10055f8:	10000226 	beq	r2,zero,1005604 <_malloc_r+0x6dc>
 10055fc:	6013883a 	mov	r9,r12
 1005600:	003ee106 	br	1005188 <_malloc_r+0x260>
 1005604:	2109883a 	add	r4,r4,r4
 1005608:	3904703a 	and	r2,r7,r4
 100560c:	63000104 	addi	r12,r12,4
 1005610:	103ffc26 	beq	r2,zero,1005604 <_malloc_r+0x6dc>
 1005614:	6013883a 	mov	r9,r12
 1005618:	003edb06 	br	1005188 <_malloc_r+0x260>
 100561c:	00805504 	movi	r2,340
 1005620:	11000836 	bltu	r2,r4,1005644 <_malloc_r+0x71c>
 1005624:	2804d3fa 	srli	r2,r5,15
 1005628:	11001dc4 	addi	r4,r2,119
 100562c:	200690fa 	slli	r3,r4,3
 1005630:	003f7306 	br	1005400 <_malloc_r+0x4d8>
 1005634:	0104303a 	nor	r2,zero,r4
 1005638:	388e703a 	and	r7,r7,r2
 100563c:	e1c00115 	stw	r7,4(fp)
 1005640:	003fe906 	br	10055e8 <_malloc_r+0x6c0>
 1005644:	00815504 	movi	r2,1364
 1005648:	1100032e 	bgeu	r2,r4,1005658 <_malloc_r+0x730>
 100564c:	01001f84 	movi	r4,126
 1005650:	00c0fc04 	movi	r3,1008
 1005654:	003f6a06 	br	1005400 <_malloc_r+0x4d8>
 1005658:	2804d4ba 	srli	r2,r5,18
 100565c:	11001f04 	addi	r4,r2,124
 1005660:	200690fa 	slli	r3,r4,3
 1005664:	003f6606 	br	1005400 <_malloc_r+0x4d8>

01005668 <memchr>:
 1005668:	008000c4 	movi	r2,3
 100566c:	29403fcc 	andi	r5,r5,255
 1005670:	2007883a 	mov	r3,r4
 1005674:	1180022e 	bgeu	r2,r6,1005680 <memchr+0x18>
 1005678:	2084703a 	and	r2,r4,r2
 100567c:	10000b26 	beq	r2,zero,10056ac <memchr+0x44>
 1005680:	313fffc4 	addi	r4,r6,-1
 1005684:	3000051e 	bne	r6,zero,100569c <memchr+0x34>
 1005688:	00002c06 	br	100573c <memchr+0xd4>
 100568c:	213fffc4 	addi	r4,r4,-1
 1005690:	00bfffc4 	movi	r2,-1
 1005694:	18c00044 	addi	r3,r3,1
 1005698:	20802826 	beq	r4,r2,100573c <memchr+0xd4>
 100569c:	18800003 	ldbu	r2,0(r3)
 10056a0:	28bffa1e 	bne	r5,r2,100568c <memchr+0x24>
 10056a4:	1805883a 	mov	r2,r3
 10056a8:	f800283a 	ret
 10056ac:	0011883a 	mov	r8,zero
 10056b0:	0007883a 	mov	r3,zero
 10056b4:	01c00104 	movi	r7,4
 10056b8:	4004923a 	slli	r2,r8,8
 10056bc:	18c00044 	addi	r3,r3,1
 10056c0:	1151883a 	add	r8,r2,r5
 10056c4:	19fffc1e 	bne	r3,r7,10056b8 <memchr+0x50>
 10056c8:	02bfbff4 	movhi	r10,65279
 10056cc:	52bfbfc4 	addi	r10,r10,-257
 10056d0:	02602074 	movhi	r9,32897
 10056d4:	4a602004 	addi	r9,r9,-32640
 10056d8:	02c000c4 	movi	r11,3
 10056dc:	20800017 	ldw	r2,0(r4)
 10056e0:	31bfff04 	addi	r6,r6,-4
 10056e4:	200f883a 	mov	r7,r4
 10056e8:	1204f03a 	xor	r2,r2,r8
 10056ec:	1287883a 	add	r3,r2,r10
 10056f0:	1a46703a 	and	r3,r3,r9
 10056f4:	0084303a 	nor	r2,zero,r2
 10056f8:	10c4703a 	and	r2,r2,r3
 10056fc:	10000b26 	beq	r2,zero,100572c <memchr+0xc4>
 1005700:	20800003 	ldbu	r2,0(r4)
 1005704:	28800f26 	beq	r5,r2,1005744 <memchr+0xdc>
 1005708:	20800043 	ldbu	r2,1(r4)
 100570c:	21c00044 	addi	r7,r4,1
 1005710:	28800c26 	beq	r5,r2,1005744 <memchr+0xdc>
 1005714:	20800083 	ldbu	r2,2(r4)
 1005718:	21c00084 	addi	r7,r4,2
 100571c:	28800926 	beq	r5,r2,1005744 <memchr+0xdc>
 1005720:	208000c3 	ldbu	r2,3(r4)
 1005724:	21c000c4 	addi	r7,r4,3
 1005728:	28800626 	beq	r5,r2,1005744 <memchr+0xdc>
 100572c:	21000104 	addi	r4,r4,4
 1005730:	59bfea36 	bltu	r11,r6,10056dc <memchr+0x74>
 1005734:	2007883a 	mov	r3,r4
 1005738:	003fd106 	br	1005680 <memchr+0x18>
 100573c:	0005883a 	mov	r2,zero
 1005740:	f800283a 	ret
 1005744:	3805883a 	mov	r2,r7
 1005748:	f800283a 	ret

0100574c <memcpy>:
 100574c:	01c003c4 	movi	r7,15
 1005750:	2007883a 	mov	r3,r4
 1005754:	3980032e 	bgeu	r7,r6,1005764 <memcpy+0x18>
 1005758:	2904b03a 	or	r2,r5,r4
 100575c:	108000cc 	andi	r2,r2,3
 1005760:	10000926 	beq	r2,zero,1005788 <memcpy+0x3c>
 1005764:	30000626 	beq	r6,zero,1005780 <memcpy+0x34>
 1005768:	30cd883a 	add	r6,r6,r3
 100576c:	28800003 	ldbu	r2,0(r5)
 1005770:	29400044 	addi	r5,r5,1
 1005774:	18800005 	stb	r2,0(r3)
 1005778:	18c00044 	addi	r3,r3,1
 100577c:	30fffb1e 	bne	r6,r3,100576c <memcpy+0x20>
 1005780:	2005883a 	mov	r2,r4
 1005784:	f800283a 	ret
 1005788:	3811883a 	mov	r8,r7
 100578c:	200f883a 	mov	r7,r4
 1005790:	28c00017 	ldw	r3,0(r5)
 1005794:	31bffc04 	addi	r6,r6,-16
 1005798:	38c00015 	stw	r3,0(r7)
 100579c:	28800117 	ldw	r2,4(r5)
 10057a0:	38800115 	stw	r2,4(r7)
 10057a4:	28c00217 	ldw	r3,8(r5)
 10057a8:	38c00215 	stw	r3,8(r7)
 10057ac:	28800317 	ldw	r2,12(r5)
 10057b0:	29400404 	addi	r5,r5,16
 10057b4:	38800315 	stw	r2,12(r7)
 10057b8:	39c00404 	addi	r7,r7,16
 10057bc:	41bff436 	bltu	r8,r6,1005790 <memcpy+0x44>
 10057c0:	008000c4 	movi	r2,3
 10057c4:	1180072e 	bgeu	r2,r6,10057e4 <memcpy+0x98>
 10057c8:	1007883a 	mov	r3,r2
 10057cc:	28800017 	ldw	r2,0(r5)
 10057d0:	31bfff04 	addi	r6,r6,-4
 10057d4:	29400104 	addi	r5,r5,4
 10057d8:	38800015 	stw	r2,0(r7)
 10057dc:	39c00104 	addi	r7,r7,4
 10057e0:	19bffa36 	bltu	r3,r6,10057cc <memcpy+0x80>
 10057e4:	3807883a 	mov	r3,r7
 10057e8:	003fde06 	br	1005764 <memcpy+0x18>

010057ec <memmove>:
 10057ec:	2807883a 	mov	r3,r5
 10057f0:	2011883a 	mov	r8,r4
 10057f4:	29000c2e 	bgeu	r5,r4,1005828 <memmove+0x3c>
 10057f8:	298f883a 	add	r7,r5,r6
 10057fc:	21c00a2e 	bgeu	r4,r7,1005828 <memmove+0x3c>
 1005800:	30000726 	beq	r6,zero,1005820 <memmove+0x34>
 1005804:	2187883a 	add	r3,r4,r6
 1005808:	198dc83a 	sub	r6,r3,r6
 100580c:	39ffffc4 	addi	r7,r7,-1
 1005810:	38800003 	ldbu	r2,0(r7)
 1005814:	18ffffc4 	addi	r3,r3,-1
 1005818:	18800005 	stb	r2,0(r3)
 100581c:	19bffb1e 	bne	r3,r6,100580c <memmove+0x20>
 1005820:	2005883a 	mov	r2,r4
 1005824:	f800283a 	ret
 1005828:	01c003c4 	movi	r7,15
 100582c:	39800a36 	bltu	r7,r6,1005858 <memmove+0x6c>
 1005830:	303ffb26 	beq	r6,zero,1005820 <memmove+0x34>
 1005834:	400f883a 	mov	r7,r8
 1005838:	320d883a 	add	r6,r6,r8
 100583c:	28800003 	ldbu	r2,0(r5)
 1005840:	29400044 	addi	r5,r5,1
 1005844:	38800005 	stb	r2,0(r7)
 1005848:	39c00044 	addi	r7,r7,1
 100584c:	39bffb1e 	bne	r7,r6,100583c <memmove+0x50>
 1005850:	2005883a 	mov	r2,r4
 1005854:	f800283a 	ret
 1005858:	1904b03a 	or	r2,r3,r4
 100585c:	108000cc 	andi	r2,r2,3
 1005860:	103ff31e 	bne	r2,zero,1005830 <memmove+0x44>
 1005864:	3811883a 	mov	r8,r7
 1005868:	180b883a 	mov	r5,r3
 100586c:	200f883a 	mov	r7,r4
 1005870:	28c00017 	ldw	r3,0(r5)
 1005874:	31bffc04 	addi	r6,r6,-16
 1005878:	38c00015 	stw	r3,0(r7)
 100587c:	28800117 	ldw	r2,4(r5)
 1005880:	38800115 	stw	r2,4(r7)
 1005884:	28c00217 	ldw	r3,8(r5)
 1005888:	38c00215 	stw	r3,8(r7)
 100588c:	28800317 	ldw	r2,12(r5)
 1005890:	29400404 	addi	r5,r5,16
 1005894:	38800315 	stw	r2,12(r7)
 1005898:	39c00404 	addi	r7,r7,16
 100589c:	41bff436 	bltu	r8,r6,1005870 <memmove+0x84>
 10058a0:	008000c4 	movi	r2,3
 10058a4:	1180072e 	bgeu	r2,r6,10058c4 <memmove+0xd8>
 10058a8:	1007883a 	mov	r3,r2
 10058ac:	28800017 	ldw	r2,0(r5)
 10058b0:	31bfff04 	addi	r6,r6,-4
 10058b4:	29400104 	addi	r5,r5,4
 10058b8:	38800015 	stw	r2,0(r7)
 10058bc:	39c00104 	addi	r7,r7,4
 10058c0:	19bffa36 	bltu	r3,r6,10058ac <memmove+0xc0>
 10058c4:	3811883a 	mov	r8,r7
 10058c8:	003fd906 	br	1005830 <memmove+0x44>

010058cc <memset>:
 10058cc:	008000c4 	movi	r2,3
 10058d0:	29403fcc 	andi	r5,r5,255
 10058d4:	2007883a 	mov	r3,r4
 10058d8:	1180022e 	bgeu	r2,r6,10058e4 <memset+0x18>
 10058dc:	2084703a 	and	r2,r4,r2
 10058e0:	10000826 	beq	r2,zero,1005904 <memset+0x38>
 10058e4:	30000526 	beq	r6,zero,10058fc <memset+0x30>
 10058e8:	2805883a 	mov	r2,r5
 10058ec:	30cd883a 	add	r6,r6,r3
 10058f0:	18800005 	stb	r2,0(r3)
 10058f4:	18c00044 	addi	r3,r3,1
 10058f8:	19bffd1e 	bne	r3,r6,10058f0 <memset+0x24>
 10058fc:	2005883a 	mov	r2,r4
 1005900:	f800283a 	ret
 1005904:	2804923a 	slli	r2,r5,8
