
sd_card_2.elf:     file format elf32-littlenios2
sd_card_2.elf
architecture: nios2, flags 0x00000112:
EXEC_P, HAS_SYMS, D_PAGED
start address 0x010001b4

Program Header:
    LOAD off    0x00001000 vaddr 0x01000000 paddr 0x01000000 align 2**12
         filesz 0x00000020 memsz 0x00000020 flags r-x
    LOAD off    0x00001020 vaddr 0x01000020 paddr 0x01000020 align 2**12
         filesz 0x0000cc1c memsz 0x0000cc1c flags r-x
    LOAD off    0x0000dc3c vaddr 0x0100cc3c paddr 0x0100e6dc align 2**12
         filesz 0x00001aa0 memsz 0x00001aa0 flags rw-
    LOAD off    0x0001017c vaddr 0x0101017c paddr 0x0101017c align 2**12
         filesz 0x00000000 memsz 0x0000087c flags rw-

Sections:
Idx Name          Size      VMA       LMA       File off  Algn
  0 .entry        00000020  01000000  01000000  00001000  2**5
                  CONTENTS, ALLOC, LOAD, READONLY, CODE
  1 .exceptions   00000194  01000020  01000020  00001020  2**2
                  CONTENTS, ALLOC, LOAD, READONLY, CODE
  2 .text         0000c694  010001b4  010001b4  000011b4  2**2
                  CONTENTS, ALLOC, LOAD, READONLY, CODE
  3 .rodata       000003f4  0100c848  0100c848  0000d848  2**2
                  CONTENTS, ALLOC, LOAD, READONLY, DATA
  4 .rwdata       00001aa0  0100cc3c  0100e6dc  0000dc3c  2**2
                  CONTENTS, ALLOC, LOAD, DATA, SMALL_DATA
  5 .bss          0000087c  0101017c  0101017c  0001017c  2**2
                  ALLOC, SMALL_DATA
  6 .comment      00000026  00000000  00000000  0000f6dc  2**0
                  CONTENTS, READONLY
  7 .debug_aranges 00000a98  00000000  00000000  0000f708  2**3
                  CONTENTS, READONLY, DEBUGGING
  8 .debug_pubnames 00001727  00000000  00000000  000101a0  2**0
                  CONTENTS, READONLY, DEBUGGING
  9 .debug_info   0002154d  00000000  00000000  000118c7  2**0
                  CONTENTS, READONLY, DEBUGGING
 10 .debug_abbrev 000061cc  00000000  00000000  00032e14  2**0
                  CONTENTS, READONLY, DEBUGGING
 11 .debug_line   00010f3c  00000000  00000000  00038fe0  2**0
                  CONTENTS, READONLY, DEBUGGING
 12 .debug_frame  000018f4  00000000  00000000  00049f1c  2**2
                  CONTENTS, READONLY, DEBUGGING
 13 .debug_str    00001eab  00000000  00000000  0004b810  2**0
                  CONTENTS, READONLY, DEBUGGING
 14 .debug_loc    000078d8  00000000  00000000  0004d6bb  2**0
                  CONTENTS, READONLY, DEBUGGING
 15 .debug_alt_sim_info 00000010  00000000  00000000  00054f94  2**2
                  CONTENTS, READONLY, DEBUGGING
 16 .debug_ranges 00000698  00000000  00000000  00054fa8  2**3
                  CONTENTS, READONLY, DEBUGGING
 17 .thread_model 00000003  00000000  00000000  000589ba  2**0
                  CONTENTS, READONLY
 18 .cpu          0000000c  00000000  00000000  000589bd  2**0
                  CONTENTS, READONLY
 19 .qsys         00000001  00000000  00000000  000589c9  2**0
                  CONTENTS, READONLY
 20 .simulation_enabled 00000001  00000000  00000000  000589ca  2**0
                  CONTENTS, READONLY
 21 .stderr_dev   0000000b  00000000  00000000  000589cb  2**0
                  CONTENTS, READONLY
 22 .stdin_dev    0000000b  00000000  00000000  000589d6  2**0
                  CONTENTS, READONLY
 23 .stdout_dev   0000000b  00000000  00000000  000589e1  2**0
                  CONTENTS, READONLY
 24 .sopc_system_name 0000000b  00000000  00000000  000589ec  2**0
                  CONTENTS, READONLY
 25 .quartus_project_dir 00000021  00000000  00000000  000589f7  2**0
                  CONTENTS, READONLY
 26 .sopcinfo     0004aef2  00000000  00000000  00058a18  2**0
                  CONTENTS, READONLY
SYMBOL TABLE:
01000000 l    d  .entry	00000000 .entry
01000020 l    d  .exceptions	00000000 .exceptions
010001b4 l    d  .text	00000000 .text
0100c848 l    d  .rodata	00000000 .rodata
0100cc3c l    d  .rwdata	00000000 .rwdata
0101017c l    d  .bss	00000000 .bss
00000000 l    d  .comment	00000000 .comment
00000000 l    d  .debug_aranges	00000000 .debug_aranges
00000000 l    d  .debug_pubnames	00000000 .debug_pubnames
00000000 l    d  .debug_info	00000000 .debug_info
00000000 l    d  .debug_abbrev	00000000 .debug_abbrev
00000000 l    d  .debug_line	00000000 .debug_line
00000000 l    d  .debug_frame	00000000 .debug_frame
00000000 l    d  .debug_str	00000000 .debug_str
00000000 l    d  .debug_loc	00000000 .debug_loc
00000000 l    d  .debug_alt_sim_info	00000000 .debug_alt_sim_info
00000000 l    d  .debug_ranges	00000000 .debug_ranges
010001ec l       .text	00000000 alt_after_alt_main
00000000 l    df *ABS*	00000000 alt_irq_handler.c
00000000 l    df *ABS*	00000000 hello_world.c
00000000 l    df *ABS*	00000000 puts.c
00000000 l    df *ABS*	00000000 strlen.c
00000000 l    df *ABS*	00000000 fvwrite.c
00000000 l    df *ABS*	00000000 impure.c
0100cc3c l     O .rwdata	00000400 impure_data
00000000 l    df *ABS*	00000000 mallocr.c
00000000 l    df *ABS*	00000000 memchr.c
00000000 l    df *ABS*	00000000 memcpy.c
00000000 l    df *ABS*	00000000 memmove.c
00000000 l    df *ABS*	00000000 mallocr.c
00000000 l    df *ABS*	00000000 sbrkr.c
00000000 l    df *ABS*	00000000 wsetup.c
00000000 l    df *ABS*	00000000 fflush.c
00000000 l    df *ABS*	00000000 findfp.c
01001df0 l     F .text	00000058 std
01001efc l     F .text	00000008 __fp_lock
01001f04 l     F .text	00000008 __fp_unlock
00000000 l    df *ABS*	00000000 mallocr.c
00000000 l    df *ABS*	00000000 fwalk.c
00000000 l    df *ABS*	00000000 int_errno.c
00000000 l    df *ABS*	00000000 makebuf.c
00000000 l    df *ABS*	00000000 memset.c
00000000 l    df *ABS*	00000000 stdio.c
00000000 l    df *ABS*	00000000 writer.c
00000000 l    df *ABS*	00000000 closer.c
00000000 l    df *ABS*	00000000 fclose.c
00000000 l    df *ABS*	00000000 fstatr.c
00000000 l    df *ABS*	00000000 isattyr.c
00000000 l    df *ABS*	00000000 lseekr.c
00000000 l    df *ABS*	00000000 readr.c
00000000 l    df *ABS*	00000000 lib2-mul.c
00000000 l    df *ABS*	00000000 alt_close.c
01002f34 l     F .text	00000060 alt_get_errno
00000000 l    df *ABS*	00000000 alt_dev.c
01002f94 l     F .text	0000002c alt_dev_null_write
00000000 l    df *ABS*	00000000 alt_errno.c
00000000 l    df *ABS*	00000000 alt_fstat.c
01003098 l     F .text	00000060 alt_get_errno
00000000 l    df *ABS*	00000000 alt_isatty.c
010031bc l     F .text	00000060 alt_get_errno
00000000 l    df *ABS*	00000000 alt_load.c
0100329c l     F .text	0000006c alt_load_section
00000000 l    df *ABS*	00000000 alt_lseek.c
010033fc l     F .text	00000060 alt_get_errno
00000000 l    df *ABS*	00000000 alt_main.c
00000000 l    df *ABS*	00000000 alt_malloc_lock.c
00000000 l    df *ABS*	00000000 alt_read.c
0100362c l     F .text	00000060 alt_get_errno
00000000 l    df *ABS*	00000000 alt_release_fd.c
00000000 l    df *ABS*	00000000 alt_sbrk.c
0100e6cc l     O .rwdata	00000004 heap_end
00000000 l    df *ABS*	00000000 alt_write.c
010038e4 l     F .text	00000060 alt_get_errno
00000000 l    df *ABS*	00000000 alt_sys_init.c
0100d5ec l     O .rwdata	00001060 jtag_uart_0
0100e64c l     O .rwdata	0000002c character_lcd_0
0100e678 l     O .rwdata	0000002c Altera_UP_SD_Card_Avalon_Interface_0
010039e0 l     F .text	00000038 alt_dev_reg
00000000 l    df *ABS*	00000000 Altera_UP_SD_Card_Avalon_Interface.c
0100ca30 l     O .rodata	00000016 __func__.4813
00000000 l    df *ABS*	00000000 altera_avalon_jtag_uart_fd.c
00000000 l    df *ABS*	00000000 altera_avalon_jtag_uart_init.c
0100823c l     F .text	00000228 altera_avalon_jtag_uart_irq
01008464 l     F .text	000000b0 altera_avalon_jtag_uart_timeout
00000000 l    df *ABS*	00000000 altera_avalon_jtag_uart_ioctl.c
00000000 l    df *ABS*	00000000 altera_avalon_jtag_uart_read.c
00000000 l    df *ABS*	00000000 altera_avalon_jtag_uart_write.c
00000000 l    df *ABS*	00000000 altera_up_avalon_character_lcd.c
00000000 l    df *ABS*	00000000 alt_alarm_start.c
00000000 l    df *ABS*	00000000 alt_dcache_flush_all.c
00000000 l    df *ABS*	00000000 alt_dev_llist_insert.c
01009234 l     F .text	00000060 alt_get_errno
00000000 l    df *ABS*	00000000 alt_do_ctors.c
00000000 l    df *ABS*	00000000 alt_do_dtors.c
00000000 l    df *ABS*	00000000 alt_find_dev.c
00000000 l    df *ABS*	00000000 alt_icache_flush_all.c
00000000 l    df *ABS*	00000000 alt_iic.c
00000000 l    df *ABS*	00000000 alt_iic_isr_register.c
00000000 l    df *ABS*	00000000 alt_io_redirect.c
010096d8 l     F .text	000000d8 alt_open_fd
00000000 l    df *ABS*	00000000 alt_irq_vars.c
00000000 l    df *ABS*	00000000 alt_open.c
01009828 l     F .text	000000f8 alt_file_locked
01009aac l     F .text	00000060 alt_get_errno
00000000 l    df *ABS*	00000000 alt_tick.c
00000000 l    df *ABS*	00000000 altera_nios2_qsys_irq.c
00000000 l    df *ABS*	00000000 alt_find_file.c
00000000 l    df *ABS*	00000000 alt_get_fd.c
00000000 l    df *ABS*	00000000 assert.c
00000000 l    df *ABS*	00000000 atexit.c
00000000 l    df *ABS*	00000000 exit.c
00000000 l    df *ABS*	00000000 fiprintf.c
00000000 l    df *ABS*	00000000 memcmp.c
00000000 l    df *ABS*	00000000 vfiprintfr_1.c
00000000 l    df *ABS*	00000000 __atexit.c
00000000 l    df *ABS*	00000000 __call_atexit.c
0100a1b4 l     F .text	00000004 register_fini
00000000 l    df *ABS*	00000000 abort.c
00000000 l    df *ABS*	00000000 signal.c
00000000 l    df *ABS*	00000000 signalr.c
00000000 l    df *ABS*	00000000 vfprintf.c
0100a6d0 l     F .text	00000058 __sprint_r
0100cb2c l     O .rodata	00000010 blanks.3391
0100cb1c l     O .rodata	00000010 zeroes.3392
00000000 l    df *ABS*	00000000 libgcc2.c
00000000 l    df *ABS*	00000000 libgcc2.c
00000000 l    df *ABS*	00000000 lib2-divmod.c
0100c4d8 l     F .text	0000007c udivmodsi4
00000000 l    df *ABS*	00000000 libgcc2.c
00000000 l    df *ABS*	00000000 alt_exit.c
0100c624 l     F .text	00000040 alt_sim_halt
00000000 l    df *ABS*	00000000 alt_getpid.c
00000000 l    df *ABS*	00000000 alt_kill.c
0100c7e4 l     F .text	00000060 alt_get_errno
010101a0 g     O .bss	00000004 aux_status_register
01002c9c g     F .text	00000070 _isatty_r
0100345c g     F .text	0000006c alt_main
010004b8 g     F .text	000000a0 _puts_r
01010768 g     O .bss	00000100 alt_irq
01002d0c g     F .text	00000078 _lseek_r
0100e6dc g       *ABS*	00000000 __flash_rwdata_start
01008b5c g     F .text	00000034 alt_up_character_lcd_send_cmd
01003dc8 g     F .text	000001b0 Check_for_Master_Boot_Record
010109f8 g       *ABS*	00000000 __alt_heap_start
01007ca8 g     F .text	00000200 alt_up_sd_card_fclose
0100a65c g     F .text	00000074 _kill_r
0100a59c g     F .text	000000a0 _signal_r
010028d8 g     F .text	00000068 __sseek
01001e58 g     F .text	000000a4 __sinit
01001f58 g     F .text	0000009c __sfmoreglue
010034e8 g     F .text	00000020 __malloc_unlock
010101c4 g     O .bss	00000004 current_sector_modified
01007fa4 g     F .text	00000090 Read_Sector_Data_Attempt_CRC
01001340 g     F .text	000000e0 memmove
01001f48 g     F .text	00000010 _cleanup
0100684c g     F .text	000000c8 alt_up_sd_card_is_Present
01003ae0 g     F .text	00000050 Save_Modified_Sector
00000000  w      *UND*	00000000 __errno
01008ae0 g     F .text	0000007c get_DDRAM_addr
01000000 g     F .entry	0000000c __reset
010101bc g     O .bss	00000004 fat_partition_size_in_512_byte_sectors
01000020 g       *ABS*	00000000 __flash_exceptions_start
01002c28 g     F .text	00000074 _fstat_r
01010188 g     O .bss	00000004 errno
01010190 g     O .bss	00000004 alt_argv
010166a4 g       *ABS*	00000000 _gp
01006e0c g     F .text	000003a8 alt_up_sd_card_fopen
01006988 g     F .text	000000d4 alt_up_sd_card_find_first
010101b0 g     O .bss	00000004 command_argument_register
0100c684 g     F .text	00000020 getpid
0100d46c g     O .rwdata	00000180 alt_fd_list
01006074 g     F .text	0000012c find_first_empty_record_in_root_directory
0100935c g     F .text	00000094 alt_find_dev
010012a0 g     F .text	000000a0 memcpy
01008cf4 g     F .text	0000004c alt_up_character_lcd_write_fd
01001f3c g     F .text	0000000c _cleanup_r
010097b0 g     F .text	00000078 alt_io_redirect
0100c848 g       *ABS*	00000000 __DTOR_END__
01000558 g     F .text	00000014 puts
01005c84 g     F .text	000001a4 find_first_empty_cluster
01006788 g     F .text	000000c4 alt_up_sd_card_open_dev
0100b7e8 g     F .text	00000024 __vfiprintf_internal
0100867c g     F .text	00000224 altera_avalon_jtag_uart_read
00000000  w      *UND*	00000000 malloc
00000000 g       *ABS*	00000000 __alt_mem_onchip_memory2_0
0100c614 g     F .text	00000008 __udivsi3
010030f8 g     F .text	000000c4 isatty
0100a380 g     F .text	000000cc _raise_r
01009ec0 g     F .text	00000064 __assert_func
0101017c g     O .bss	00000004 __malloc_top_pad
0100a658 g     F .text	00000004 _getpid_r
010005e0 g     F .text	0000049c __sfvwrite_r
0100a4d4 g     F .text	000000b4 __sigtramp_r
01004f60 g     F .text	000000c0 get_dir_divider_location
01001a14 g     F .text	00000070 _sbrk_r
01004c00 g     F .text	000000d0 filename_to_upper_case
010071b4 g     F .text	00000090 alt_up_sd_card_set_attributes
01003f78 g     F .text	00000284 Read_File_Record_At_Offset
01002d84 g     F .text	00000078 _read_r
0100e6c4 g     O .rwdata	00000004 alt_max_fd
01005820 g     F .text	00000464 find_file_in_directory
01002b04 g     F .text	00000110 _fclose_r
01001dbc g     F .text	00000034 fflush
01010180 g     O .bss	00000004 __malloc_max_sbrked_mem
01006914 g     F .text	00000074 alt_up_sd_card_is_FAT16
0100be78 g     F .text	00000660 __umoddi3
01003308 g     F .text	000000f4 lseek
0100e6a8 g     O .rwdata	00000004 _global_impure_ptr
0100530c g     F .text	00000514 get_home_directory_cluster_for_file
01001420 g     F .text	000005f4 _realloc_r
010109f8 g       *ABS*	00000000 __bss_end
010095e0 g     F .text	000000f8 alt_iic_isr_register
01009ba4 g     F .text	0000010c alt_tick
0100b80c g     F .text	0000066c __udivdi3
0100a368 g     F .text	00000018 abort
010101c8 g     O .bss	00000004 current_sector_index
01001f24 g     F .text	00000018 __fp_lock_all
01009598 g     F .text	00000048 alt_ic_irq_enabled
01009b0c g     F .text	00000098 alt_alarm_stop
01003ce4 g     F .text	000000e4 mark_cluster
010101cc g     O .bss	00000004 alt_irq_active
010000ec g     F .exceptions	000000c8 alt_irq_handler
0100d444 g     O .rwdata	00000028 alt_dev_null
010061a0 g     F .text	000001b8 convert_filename_to_name_extension
01008fdc g     F .text	00000034 alt_up_character_lcd_cursor_blink_on
01009164 g     F .text	0000001c alt_dcache_flush_all
0101019c g     O .bss	00000004 is_sd_card_formated_as_FAT16
01005e28 g     F .text	0000024c find_first_empty_record_in_a_subdirectory
0100e6dc g       *ABS*	00000000 __ram_rwdata_end
0100e6bc g     O .rwdata	00000008 alt_dev_list
010037c0 g     F .text	00000124 write
010101c0 g     O .bss	00000004 device_pointer
0100cc3c g       *ABS*	00000000 __ram_rodata_end
01002fc0 g     F .text	000000d8 fstat
010001f0 g     F .text	000000f8 look_for_other_files
0100c6a4 g     F .text	00000140 kill
0100a728 g     F .text	000010c0 ___vfiprintf_internal_r
0100c61c g     F .text	00000008 __umodsi3
010109f8 g       *ABS*	00000000 end
0100817c g     F .text	000000c0 altera_avalon_jtag_uart_init
0100c844 g       *ABS*	00000000 __CTOR_LIST__
01800000 g       *ABS*	00000000 __alt_stack_pointer
010088a0 g     F .text	00000240 altera_avalon_jtag_uart_write
01001e48 g     F .text	00000004 __sfp_lock_acquire
010011bc g     F .text	000000e4 memchr
01008c04 g     F .text	00000078 alt_up_character_lcd_write
01002210 g     F .text	00000314 _free_r
0100a1b8 g     F .text	000001b0 __call_exitprocs
0100e6b0 g     O .rwdata	00000004 __malloc_sbrk_base
010001b4 g     F .text	0000003c _start
010101d0 g     O .bss	00000004 _alt_tick_rate
010101d4 g     O .bss	00000004 _alt_nticks
0100a63c g     F .text	0000001c signal
01003508 g     F .text	00000124 read
01003978 g     F .text	00000068 alt_sys_init
01008e68 g     F .text	000000b0 alt_up_character_lcd_shift_display
0100a080 g     F .text	00000134 __register_exitproc
01008f18 g     F .text	00000090 alt_up_character_lcd_erase_pos
01008514 g     F .text	00000074 altera_avalon_jtag_uart_close
01002dfc g     F .text	00000038 __mulsi3
0100cc3c g       *ABS*	00000000 __ram_rwdata_start
0100c848 g       *ABS*	00000000 __ram_rodata_start
010101d8 g     O .bss	00000028 __malloc_current_mallinfo
01010198 g     O .bss	00000004 initialized
01008034 g     F .text	00000058 altera_avalon_jtag_uart_read_fd
01009df0 g     F .text	000000d0 alt_get_fd
01010200 g     O .bss	00000014 search_data
01002a94 g     F .text	00000070 _close_r
01009ff0 g     F .text	00000074 memcmp
010080e4 g     F .text	00000048 altera_avalon_jtag_uart_close_fd
010109f8 g       *ABS*	00000000 __alt_stack_base
0100812c g     F .text	00000050 altera_avalon_jtag_uart_ioctl_fd
01001a84 g     F .text	0000013c __swsetup_r
01001ff4 g     F .text	000000f0 __sfp
01010214 g     O .bss	00000054 boot_sector_data
0100d03c g     O .rwdata	00000408 __malloc_av_
01001e54 g     F .text	00000004 __sinit_lock_release
010029bc g     F .text	00000060 __sread
01009cd0 g     F .text	00000120 alt_find_file
01009180 g     F .text	000000b4 alt_dev_llist_insert
010034c8 g     F .text	00000020 __malloc_lock
01003704 g     F .text	000000bc sbrk
01001bc0 g     F .text	000001fc _fflush_r
0101017c g       *ABS*	00000000 __bss_start
01002838 g     F .text	00000098 memset
010003b4 g     F .text	00000104 main
01010194 g     O .bss	00000004 alt_envp
01010184 g     O .bss	00000004 __malloc_max_total_mem
0100808c g     F .text	00000058 altera_avalon_jtag_uart_write_fd
01007244 g     F .text	0000008c alt_up_sd_card_get_attributes
01003a18 g     F .text	000000c8 Write_Sector_Data
0100766c g     F .text	0000063c alt_up_sd_card_write
01008db8 g     F .text	000000b0 alt_up_character_lcd_shift_cursor
010028d0 g     F .text	00000008 __sclose
01800000 g       *ABS*	00000000 __alt_heap_limit
01002c14 g     F .text	00000014 fclose
01010868 g     O .bss	00000190 _atexit0
01000a7c g     F .text	00000740 _malloc_r
0100e6c8 g     O .rwdata	00000004 alt_errno
01009fc8 g     F .text	00000028 _fiprintf_r
0100a4c4 g     F .text	00000010 _init_signal
010025ec g     F .text	000000b8 _fwalk
0100c554 g     F .text	00000060 __divsi3
01008bc4 g     F .text	00000040 alt_up_character_lcd_open_dev
010020e4 g     F .text	0000012c _malloc_trim_r
0100c848 g       *ABS*	00000000 __CTOR_END__
010101a4 g     O .bss	00000004 status_register
01008b90 g     F .text	00000034 alt_up_character_lcd_init
010101ac g     O .bss	00000004 command_register
0100c848 g       *ABS*	00000000 __flash_rodata_start
0100c848 g       *ABS*	00000000 __DTOR_LIST__
01003944 g     F .text	00000034 alt_irq_init
0100368c g     F .text	00000078 alt_release_fd
01003c2c g     F .text	000000b8 get_cluster_flag
01008fa8 g     F .text	00000034 alt_up_character_lcd_cursor_off
0100cb3c g     O .rodata	00000100 __clz_tab
010041fc g     F .text	000002b8 Write_File_Record_At_Offset
01009f38 g     F .text	00000014 atexit
01002a1c g     F .text	00000078 _write_r
010044b4 g     F .text	00000648 Check_for_DOS_FAT
01006358 g     F .text	000002dc create_file
0100e6a4 g     O .rwdata	00000004 _impure_ptr
010101a8 g     O .bss	00000004 CSD_register_w0
0101018c g     O .bss	00000004 alt_argc
010092f8 g     F .text	00000064 _do_dtors
01000020 g       .exceptions	00000000 alt_irq_entry
01001f0c g     F .text	00000018 __fp_unlock_all
0100e6b4 g     O .rwdata	00000008 alt_fs_list
01004cd0 g     F .text	00000290 check_file_name_for_FAT16_compliance
010101b4 g     O .bss	00000004 buffer_memory
01000020 g       *ABS*	00000000 __ram_exceptions_start
0100940c g     F .text	00000050 alt_ic_isr_register
010002e8 g     F .text	000000cc scan_sd_card
010101b8 g     O .bss	00000004 fat_partition_offset_in_512_byte_sectors
0100e6dc g       *ABS*	00000000 _edata
010109f8 g       *ABS*	00000000 _end
01010268 g     O .bss	00000500 active_files
010001b4 g       *ABS*	00000000 __ram_exceptions_end
01006634 g     F .text	00000154 copy_file_record_name_to_string
01008588 g     F .text	000000f4 altera_avalon_jtag_uart_ioctl
01004afc g     F .text	00000104 Look_for_FAT16
010094f8 g     F .text	000000a0 alt_ic_irq_disable
01002940 g     F .text	0000007c __swrite
0100e6ac g     O .rwdata	00000004 __malloc_trim_threshold
01009cb0 g     F .text	00000020 altera_nios2_qsys_irq_init
01009f4c g     F .text	00000038 exit
01009f84 g     F .text	00000044 fiprintf
0100a064 g     F .text	0000001c _vfiprintf_r
01006a5c g     F .text	000003b0 alt_up_sd_card_find_next
01002524 g     F .text	000000c8 _fwalk_reent
0100c5b4 g     F .text	00000060 __modsi3
01003b30 g     F .text	000000fc Read_Sector_Data
01800000 g       *ABS*	00000000 __alt_data_end
01000020 g     F .exceptions	00000000 alt_exception
01001e4c g     F .text	00000004 __sfp_lock_release
01000000 g       *ABS*	00000000 __alt_mem_sdram
01008c7c g     F .text	00000078 alt_up_character_lcd_string
0100c664 g     F .text	00000020 _exit
01009010 g     F .text	00000154 alt_alarm_start
01007ea8 g     F .text	000000fc Read_Sector_Data_CRC
010072d0 g     F .text	0000039c alt_up_sd_card_read
010026a4 g     F .text	00000194 __smakebuf_r
0100056c g     F .text	00000074 strlen
0100a460 g     F .text	00000064 _init_signal_r
01009920 g     F .text	0000018c open
01009f24 g     F .text	00000014 __assert
010093f0 g     F .text	0000001c alt_icache_flush_all
01008d40 g     F .text	00000078 alt_up_character_lcd_set_cursor_pos
0100e6d0 g     O .rwdata	00000004 alt_priority_mask
0100945c g     F .text	0000009c alt_ic_irq_enable
0100e6d4 g     O .rwdata	00000008 alt_alarm_list
01009294 g     F .text	00000064 _do_ctors
0100a588 g     F .text	00000014 __sigtramp
01002e34 g     F .text	00000100 close
0100321c g     F .text	00000080 alt_load
01005020 g     F .text	000002ec match_file_record_to_name_ext
0100a44c g     F .text	00000014 raise
00000000  w      *UND*	00000000 free
01001e50 g     F .text	00000004 __sinit_lock_acquire



Disassembly of section .entry:

01000000 <__reset>:
 * Jump to the _start entry point in the .text section if reset code
 * is allowed or if optimizing for RTL simulation.
 */
#if defined(ALT_ALLOW_CODE_AT_RESET) || defined(ALT_SIM_OPTIMIZE)
    /* Jump to the _start entry point in the .text section. */
    movhi r1, %hi(_start)
 1000000:	00404034 	movhi	at,256
    ori r1, r1, %lo(_start)
 1000004:	08406d14 	ori	at,at,436
    jmp r1
 1000008:	0800683a 	jmp	at
	...

Disassembly of section .exceptions:

01000020 <alt_exception>:
         * Process an exception.  For all exceptions we must preserve all
         * caller saved registers on the stack (See the Nios2 ABI
         * documentation for details).
         */

        addi  sp, sp, -76
 1000020:	deffed04 	addi	sp,sp,-76

#endif

#endif

        stw   ra,  0(sp)
 1000024:	dfc00015 	stw	ra,0(sp)
        /*
         * Leave a gap in the stack frame at 4(sp) for the muldiv handler to
         * store zero into.
         */

        stw   r1,   8(sp)
 1000028:	d8400215 	stw	at,8(sp)
        stw   r2,  12(sp)
 100002c:	d8800315 	stw	r2,12(sp)
        stw   r3,  16(sp)
 1000030:	d8c00415 	stw	r3,16(sp)
        stw   r4,  20(sp)
 1000034:	d9000515 	stw	r4,20(sp)
        stw   r5,  24(sp)
 1000038:	d9400615 	stw	r5,24(sp)
        stw   r6,  28(sp)
 100003c:	d9800715 	stw	r6,28(sp)
        stw   r7,  32(sp)
 1000040:	d9c00815 	stw	r7,32(sp)

        rdctl r5, estatus
 1000044:	000b307a 	rdctl	r5,estatus

        stw   r8,  36(sp)
 1000048:	da000915 	stw	r8,36(sp)
        stw   r9,  40(sp)
 100004c:	da400a15 	stw	r9,40(sp)
        stw   r10, 44(sp)
 1000050:	da800b15 	stw	r10,44(sp)
        stw   r11, 48(sp)
 1000054:	dac00c15 	stw	r11,48(sp)
        stw   r12, 52(sp)
 1000058:	db000d15 	stw	r12,52(sp)
        stw   r13, 56(sp)
 100005c:	db400e15 	stw	r13,56(sp)
        stw   r14, 60(sp)
 1000060:	db800f15 	stw	r14,60(sp)
        stw   r15, 64(sp)
 1000064:	dbc01015 	stw	r15,64(sp)
        /*
         * ea-4 contains the address of the instruction being executed
         * when the exception occured. For interrupt exceptions, we will
         * will be re-issue the isntruction. Store it in 72(sp)
         */
        stw   r5,  68(sp)  /* estatus */
 1000068:	d9401115 	stw	r5,68(sp)
        addi  r15, ea, -4  /* instruction that caused exception */
 100006c:	ebffff04 	addi	r15,ea,-4
        stw   r15,  72(sp)
 1000070:	dbc01215 	stw	r15,72(sp)
#else
        /*
         * Test to see if the exception was a software exception or caused 
         * by an external interrupt, and vector accordingly.
         */
        rdctl r4, ipending
 1000074:	0009313a 	rdctl	r4,ipending
        andi  r2, r5, 1
 1000078:	2880004c 	andi	r2,r5,1
        beq   r2, zero, .Lnot_irq
 100007c:	10000326 	beq	r2,zero,100008c <alt_exception+0x6c>
        beq   r4, zero, .Lnot_irq
 1000080:	20000226 	beq	r4,zero,100008c <alt_exception+0x6c>
        /*
         * Now that all necessary registers have been preserved, call 
         * alt_irq_handler() to process the interrupts.
         */

        call alt_irq_handler
 1000084:	10000ec0 	call	10000ec <alt_irq_handler>

        .section .exceptions.irqreturn, "xa"

        br    .Lexception_exit
 1000088:	00000306 	br	1000098 <alt_exception+0x78>
         * upon completion, so we write ea (address of instruction *after*
         * the one where the exception occured) into 72(sp). The actual
         * instruction that caused the exception is written in r2, which these
         * handlers will utilize.
         */
        stw   ea,  72(sp)  /* Don't re-issue */
 100008c:	df401215 	stw	ea,72(sp)
        ldw   r2, -4(ea)   /* Instruction that caused exception */
 1000090:	e8bfff17 	ldw	r2,-4(ea)
#ifdef NIOS2_HAS_DEBUG_STUB
       /*
        *  Either tell the user now (if there is a debugger attached) or go into
        *  the debug monitor which will loop until a debugger is attached.
        */
        break
 1000094:	003da03a 	break	0
        /* 
         * Restore the saved registers, so that all general purpose registers 
         * have been restored to their state at the time the interrupt occured.
         */

        ldw   r5,  68(sp)
 1000098:	d9401117 	ldw	r5,68(sp)
        ldw   ea,  72(sp)  /* This becomes the PC once eret is executed */
 100009c:	df401217 	ldw	ea,72(sp)
        ldw   ra,   0(sp)
 10000a0:	dfc00017 	ldw	ra,0(sp)

        wrctl estatus, r5
 10000a4:	2801707a 	wrctl	estatus,r5

        ldw   r1,   8(sp)
 10000a8:	d8400217 	ldw	at,8(sp)
        ldw   r2,  12(sp)
 10000ac:	d8800317 	ldw	r2,12(sp)
        ldw   r3,  16(sp)
 10000b0:	d8c00417 	ldw	r3,16(sp)
        ldw   r4,  20(sp)
 10000b4:	d9000517 	ldw	r4,20(sp)
        ldw   r5,  24(sp)
 10000b8:	d9400617 	ldw	r5,24(sp)
        ldw   r6,  28(sp)
 10000bc:	d9800717 	ldw	r6,28(sp)
        ldw   r7,  32(sp)
 10000c0:	d9c00817 	ldw	r7,32(sp)
#ifdef ALT_STACK_CHECK
        ldw   et, %gprel(alt_exception_old_stack_limit)(gp)
#endif
#endif

        ldw   r8,  36(sp)
 10000c4:	da000917 	ldw	r8,36(sp)
        ldw   r9,  40(sp)
 10000c8:	da400a17 	ldw	r9,40(sp)
        ldw   r10, 44(sp)
 10000cc:	da800b17 	ldw	r10,44(sp)
        ldw   r11, 48(sp)
 10000d0:	dac00c17 	ldw	r11,48(sp)
        ldw   r12, 52(sp)
 10000d4:	db000d17 	ldw	r12,52(sp)
        ldw   r13, 56(sp)
 10000d8:	db400e17 	ldw	r13,56(sp)
        ldw   r14, 60(sp)
 10000dc:	db800f17 	ldw	r14,60(sp)
        ldw   r15, 64(sp)
 10000e0:	dbc01017 	ldw	r15,64(sp)
#endif

        ldw   sp,  76(sp)

#else
        addi  sp, sp, 76
 10000e4:	dec01304 	addi	sp,sp,76

        /*
         * Return to the interrupted instruction.
         */

        eret
 10000e8:	ef80083a 	eret

010000ec <alt_irq_handler>:
 * instruction is present if the macro ALT_CI_INTERRUPT_VECTOR defined.
 */

void alt_irq_handler (void) __attribute__ ((section (".exceptions")));
void alt_irq_handler (void)
{
 10000ec:	defff904 	addi	sp,sp,-28
 10000f0:	dfc00615 	stw	ra,24(sp)
 10000f4:	df000515 	stw	fp,20(sp)
 10000f8:	df000504 	addi	fp,sp,20
#ifndef NIOS2_EIC_PRESENT
static ALT_INLINE alt_u32 ALT_ALWAYS_INLINE alt_irq_pending (void)
{
  alt_u32 active;

  NIOS2_READ_IPENDING (active);
 10000fc:	0005313a 	rdctl	r2,ipending
 1000100:	e0bffc15 	stw	r2,-16(fp)

  return active;
 1000104:	e0bffc17 	ldw	r2,-16(fp)
   * Consider the case where the high priority interupt is asserted during
   * the interrupt entry sequence for a lower priority interrupt to see why
   * this is the case.
   */

  active = alt_irq_pending ();
 1000108:	e0bfff15 	stw	r2,-4(fp)

  do
  {
    i = 0;
 100010c:	e03ffd15 	stw	zero,-12(fp)
    mask = 1;
 1000110:	00800044 	movi	r2,1
 1000114:	e0bffe15 	stw	r2,-8(fp)
     * called to clear the interrupt condition.
     */

    do
    {
      if (active & mask)
 1000118:	e0ffff17 	ldw	r3,-4(fp)
 100011c:	e0bffe17 	ldw	r2,-8(fp)
 1000120:	1884703a 	and	r2,r3,r2
 1000124:	1005003a 	cmpeq	r2,r2,zero
 1000128:	1000161e 	bne	r2,zero,1000184 <alt_irq_handler+0x98>
      { 
#ifdef ALT_ENHANCED_INTERRUPT_API_PRESENT
        alt_irq[i].handler(alt_irq[i].context); 
 100012c:	e0bffd17 	ldw	r2,-12(fp)
 1000130:	00c04074 	movhi	r3,257
 1000134:	18c1da04 	addi	r3,r3,1896
 1000138:	100490fa 	slli	r2,r2,3
 100013c:	10c5883a 	add	r2,r2,r3
 1000140:	11400017 	ldw	r5,0(r2)
 1000144:	e0bffd17 	ldw	r2,-12(fp)
 1000148:	00c04074 	movhi	r3,257
 100014c:	18c1da04 	addi	r3,r3,1896
 1000150:	100490fa 	slli	r2,r2,3
 1000154:	10c5883a 	add	r2,r2,r3
 1000158:	10800104 	addi	r2,r2,4
 100015c:	11000017 	ldw	r4,0(r2)
 1000160:	283ee83a 	callr	r5
#ifndef NIOS2_EIC_PRESENT
static ALT_INLINE alt_u32 ALT_ALWAYS_INLINE alt_irq_pending (void)
{
  alt_u32 active;

  NIOS2_READ_IPENDING (active);
 1000164:	0005313a 	rdctl	r2,ipending
 1000168:	e0bffb15 	stw	r2,-20(fp)

  return active;
 100016c:	e0bffb17 	ldw	r2,-20(fp)
      mask <<= 1;
      i++;

    } while (1);

    active = alt_irq_pending ();
 1000170:	e0bfff15 	stw	r2,-4(fp)
    
  } while (active);
 1000174:	e0bfff17 	ldw	r2,-4(fp)
 1000178:	1004c03a 	cmpne	r2,r2,zero
 100017c:	103fe31e 	bne	r2,zero,100010c <alt_irq_handler+0x20>
 1000180:	00000706 	br	10001a0 <alt_irq_handler+0xb4>
#else
        alt_irq[i].handler(alt_irq[i].context, i); 
#endif
        break;
      }
      mask <<= 1;
 1000184:	e0bffe17 	ldw	r2,-8(fp)
 1000188:	1085883a 	add	r2,r2,r2
 100018c:	e0bffe15 	stw	r2,-8(fp)
      i++;
 1000190:	e0bffd17 	ldw	r2,-12(fp)
 1000194:	10800044 	addi	r2,r2,1
 1000198:	e0bffd15 	stw	r2,-12(fp)

    } while (1);
 100019c:	003fde06 	br	1000118 <alt_irq_handler+0x2c>
  /*
   * Notify the operating system that interrupt processing is complete.
   */ 

  ALT_OS_INT_EXIT();
}
 10001a0:	e037883a 	mov	sp,fp
 10001a4:	dfc00117 	ldw	ra,4(sp)
 10001a8:	df000017 	ldw	fp,0(sp)
 10001ac:	dec00204 	addi	sp,sp,8
 10001b0:	f800283a 	ret

Disassembly of section .text:

010001b4 <_start>:
#if (NIOS2_NUM_OF_SHADOW_REG_SETS == 0)    
    /*
     * Now that the caches are initialized, set up the stack pointer.
     * The value provided by the linker is assumed to be correctly aligned.
     */
    movhi sp, %hi(__alt_stack_pointer)
 10001b4:	06c06034 	movhi	sp,384
    ori sp, sp, %lo(__alt_stack_pointer)
 10001b8:	dec00014 	ori	sp,sp,0

    /* Set up the global pointer. */
    movhi gp, %hi(_gp)
 10001bc:	06804074 	movhi	gp,257
    ori gp, gp, %lo(_gp)
 10001c0:	d699a914 	ori	gp,gp,26276
 */
#ifndef ALT_SIM_OPTIMIZE
    /* Log that the BSS is about to be cleared. */
    ALT_LOG_PUTS(alt_log_msg_bss)

    movhi r2, %hi(__bss_start)
 10001c4:	00804074 	movhi	r2,257
    ori r2, r2, %lo(__bss_start)
 10001c8:	10805f14 	ori	r2,r2,380

    movhi r3, %hi(__bss_end)
 10001cc:	00c04074 	movhi	r3,257
    ori r3, r3, %lo(__bss_end)
 10001d0:	18c27e14 	ori	r3,r3,2552

    beq r2, r3, 1f
 10001d4:	10c00326 	beq	r2,r3,10001e4 <_start+0x30>

0:
    stw zero, (r2)
 10001d8:	10000015 	stw	zero,0(r2)
    addi r2, r2, 4
 10001dc:	10800104 	addi	r2,r2,4
    bltu r2, r3, 0b
 10001e0:	10fffd36 	bltu	r2,r3,10001d8 <_start+0x24>
     * section aren't defined until alt_load() has been called).
     */
    mov   et, zero
#endif

    call alt_load
 10001e4:	100321c0 	call	100321c <alt_load>

    /* Log that alt_main is about to be called. */
    ALT_LOG_PUTS(alt_log_msg_alt_main)

    /* Call the C entry point. It should never return. */
    call alt_main
 10001e8:	100345c0 	call	100345c <alt_main>

010001ec <alt_after_alt_main>:

    /* Wait in infinite loop in case alt_main does return. */
alt_after_alt_main:
    br alt_after_alt_main
 10001ec:	003fff06 	br	10001ec <alt_after_alt_main>

010001f0 <look_for_other_files>:
#include <stdio.h>
#include <altera_up_sd_card_avalon_interface.h>

void look_for_other_files(char *filename){
 10001f0:	defffb04 	addi	sp,sp,-20
 10001f4:	dfc00415 	stw	ra,16(sp)
 10001f8:	df000315 	stw	fp,12(sp)
 10001fc:	df000304 	addi	fp,sp,12
 1000200:	e13ffe15 	stw	r4,-8(fp)
	int status = alt_up_sd_card_find_next(filename);
 1000204:	e13ffe17 	ldw	r4,-8(fp)
 1000208:	1006a5c0 	call	1006a5c <alt_up_sd_card_find_next>
 100020c:	10bfffcc 	andi	r2,r2,65535
 1000210:	10a0001c 	xori	r2,r2,32768
 1000214:	10a00004 	addi	r2,r2,-32768
 1000218:	e0bffd15 	stw	r2,-12(fp)
	while(status == 0){
 100021c:	00000806 	br	1000240 <look_for_other_files+0x50>
		printf("%s\n", filename);
 1000220:	e13ffe17 	ldw	r4,-8(fp)
 1000224:	10005580 	call	1000558 <puts>
		status = alt_up_sd_card_find_next(filename);
 1000228:	e13ffe17 	ldw	r4,-8(fp)
 100022c:	1006a5c0 	call	1006a5c <alt_up_sd_card_find_next>
 1000230:	10bfffcc 	andi	r2,r2,65535
 1000234:	10a0001c 	xori	r2,r2,32768
 1000238:	10a00004 	addi	r2,r2,-32768
 100023c:	e0bffd15 	stw	r2,-12(fp)
#include <stdio.h>
#include <altera_up_sd_card_avalon_interface.h>

void look_for_other_files(char *filename){
	int status = alt_up_sd_card_find_next(filename);
	while(status == 0){
 1000240:	e0bffd17 	ldw	r2,-12(fp)
 1000244:	1005003a 	cmpeq	r2,r2,zero
 1000248:	103ff51e 	bne	r2,zero,1000220 <look_for_other_files+0x30>
		printf("%s\n", filename);
		status = alt_up_sd_card_find_next(filename);
	}

	switch (status){
 100024c:	e0bffd17 	ldw	r2,-12(fp)
 1000250:	e0bfff15 	stw	r2,-4(fp)
 1000254:	e0ffff17 	ldw	r3,-4(fp)
 1000258:	18800060 	cmpeqi	r2,r3,1
 100025c:	10000e1e 	bne	r2,zero,1000298 <look_for_other_files+0xa8>
 1000260:	e0ffff17 	ldw	r3,-4(fp)
 1000264:	18800088 	cmpgei	r2,r3,2
 1000268:	1000041e 	bne	r2,zero,100027c <look_for_other_files+0x8c>
 100026c:	e0ffff17 	ldw	r3,-4(fp)
 1000270:	18bfffe0 	cmpeqi	r2,r3,-1
 1000274:	1000141e 	bne	r2,zero,10002c8 <look_for_other_files+0xd8>
 1000278:	00001606 	br	10002d4 <look_for_other_files+0xe4>
 100027c:	e0ffff17 	ldw	r3,-4(fp)
 1000280:	188000a0 	cmpeqi	r2,r3,2
 1000284:	1000081e 	bne	r2,zero,10002a8 <look_for_other_files+0xb8>
 1000288:	e0ffff17 	ldw	r3,-4(fp)
 100028c:	188000e0 	cmpeqi	r2,r3,3
 1000290:	1000091e 	bne	r2,zero,10002b8 <look_for_other_files+0xc8>
 1000294:	00000f06 	br	10002d4 <look_for_other_files+0xe4>
		case 1: //invalid directory
			printf("Invalid Directory.\n");
 1000298:	01004074 	movhi	r4,257
 100029c:	21321204 	addi	r4,r4,-14264
 10002a0:	10005580 	call	1000558 <puts>
			break;
 10002a4:	00000b06 	br	10002d4 <look_for_other_files+0xe4>
		case 2: //no card present or no FAT 16 partition
			printf("Card not present or no FAT 16 partition.\n");
 10002a8:	01004074 	movhi	r4,257
 10002ac:	21321704 	addi	r4,r4,-14244
 10002b0:	10005580 	call	1000558 <puts>
			break;
 10002b4:	00000706 	br	10002d4 <look_for_other_files+0xe4>
		case 3: //Function alt_up_sd_card_find_first should be called first
			printf("Function alt_up_sd_card_find_first should be called first.\n");
 10002b8:	01004074 	movhi	r4,257
 10002bc:	21322204 	addi	r4,r4,-14200
 10002c0:	10005580 	call	1000558 <puts>
			break;
 10002c4:	00000306 	br	10002d4 <look_for_other_files+0xe4>
		case -1: //No files were found in the directory
			printf("No (more) files were found.\n");
 10002c8:	01004074 	movhi	r4,257
 10002cc:	21323104 	addi	r4,r4,-14140
 10002d0:	10005580 	call	1000558 <puts>
			break;
	}
}
 10002d4:	e037883a 	mov	sp,fp
 10002d8:	dfc00117 	ldw	ra,4(sp)
 10002dc:	df000017 	ldw	fp,0(sp)
 10002e0:	dec00204 	addi	sp,sp,8
 10002e4:	f800283a 	ret

010002e8 <scan_sd_card>:

void scan_sd_card(char *directory, char *filename){
 10002e8:	defffb04 	addi	sp,sp,-20
 10002ec:	dfc00415 	stw	ra,16(sp)
 10002f0:	df000315 	stw	fp,12(sp)
 10002f4:	df000304 	addi	fp,sp,12
 10002f8:	e13ffd15 	stw	r4,-12(fp)
 10002fc:	e17ffe15 	stw	r5,-8(fp)
	switch (alt_up_sd_card_find_first(directory, filename)){
 1000300:	e13ffd17 	ldw	r4,-12(fp)
 1000304:	e17ffe17 	ldw	r5,-8(fp)
 1000308:	10069880 	call	1006988 <alt_up_sd_card_find_first>
 100030c:	10bfffcc 	andi	r2,r2,65535
 1000310:	10a0001c 	xori	r2,r2,32768
 1000314:	10a00004 	addi	r2,r2,-32768
 1000318:	e0bfff15 	stw	r2,-4(fp)
 100031c:	e0ffff17 	ldw	r3,-4(fp)
 1000320:	1805003a 	cmpeq	r2,r3,zero
 1000324:	10000e1e 	bne	r2,zero,1000360 <scan_sd_card+0x78>
 1000328:	e0ffff17 	ldw	r3,-4(fp)
 100032c:	18800048 	cmpgei	r2,r3,1
 1000330:	1000041e 	bne	r2,zero,1000344 <scan_sd_card+0x5c>
 1000334:	e0ffff17 	ldw	r3,-4(fp)
 1000338:	18bfffe0 	cmpeqi	r2,r3,-1
 100033c:	1000151e 	bne	r2,zero,1000394 <scan_sd_card+0xac>
 1000340:	00001706 	br	10003a0 <scan_sd_card+0xb8>
 1000344:	e0ffff17 	ldw	r3,-4(fp)
 1000348:	18800060 	cmpeqi	r2,r3,1
 100034c:	1000091e 	bne	r2,zero,1000374 <scan_sd_card+0x8c>
 1000350:	e0ffff17 	ldw	r3,-4(fp)
 1000354:	188000a0 	cmpeqi	r2,r3,2
 1000358:	10000a1e 	bne	r2,zero,1000384 <scan_sd_card+0x9c>
 100035c:	00001006 	br	10003a0 <scan_sd_card+0xb8>
		case 0: //sucess
			printf("%s\n", filename);
 1000360:	e13ffe17 	ldw	r4,-8(fp)
 1000364:	10005580 	call	1000558 <puts>
			look_for_other_files(filename);
 1000368:	e13ffe17 	ldw	r4,-8(fp)
 100036c:	10001f00 	call	10001f0 <look_for_other_files>
			break;
 1000370:	00000b06 	br	10003a0 <scan_sd_card+0xb8>
		case 1: //invalid directory
			printf("Invalid Directory.\n");
 1000374:	01004074 	movhi	r4,257
 1000378:	21321204 	addi	r4,r4,-14264
 100037c:	10005580 	call	1000558 <puts>
			break;
 1000380:	00000706 	br	10003a0 <scan_sd_card+0xb8>
		case 2: //no card present or no FAT 16 partition
			printf("Card not present or no FAT 16 partition.\n");
 1000384:	01004074 	movhi	r4,257
 1000388:	21321704 	addi	r4,r4,-14244
 100038c:	10005580 	call	1000558 <puts>
			break;
 1000390:	00000306 	br	10003a0 <scan_sd_card+0xb8>
		case -1: //No files were found in the directory
			printf("The directory is empty.\n");
 1000394:	01004074 	movhi	r4,257
 1000398:	21323804 	addi	r4,r4,-14112
 100039c:	10005580 	call	1000558 <puts>
			break;
	}
}
 10003a0:	e037883a 	mov	sp,fp
 10003a4:	dfc00117 	ldw	ra,4(sp)
 10003a8:	df000017 	ldw	fp,0(sp)
 10003ac:	dec00204 	addi	sp,sp,8
 10003b0:	f800283a 	ret

010003b4 <main>:


int main(void) {
 10003b4:	defffa04 	addi	sp,sp,-24
 10003b8:	dfc00515 	stw	ra,20(sp)
 10003bc:	df000415 	stw	fp,16(sp)
 10003c0:	df000404 	addi	fp,sp,16
	alt_up_sd_card_dev *device_reference = NULL;
 10003c4:	e03fff15 	stw	zero,-4(fp)
	int connected = 0;
 10003c8:	e03ffe15 	stw	zero,-8(fp)
	char *filename;
	char *directory = "folder/"; // root directory
 10003cc:	00804074 	movhi	r2,257
 10003d0:	10b23e04 	addi	r2,r2,-14088
 10003d4:	e0bffc15 	stw	r2,-16(fp)

	device_reference = alt_up_sd_card_open_dev("/dev/Altera_UP_SD_Card_Avalon_Interface_0");
 10003d8:	01004074 	movhi	r4,257
 10003dc:	21324004 	addi	r4,r4,-14080
 10003e0:	10067880 	call	1006788 <alt_up_sd_card_open_dev>
 10003e4:	e0bfff15 	stw	r2,-4(fp)
	printf("Program running\n");
 10003e8:	01004074 	movhi	r4,257
 10003ec:	21324b04 	addi	r4,r4,-14036
 10003f0:	10005580 	call	1000558 <puts>

	if (device_reference != NULL) {
 10003f4:	e0bfff17 	ldw	r2,-4(fp)
 10003f8:	1005003a 	cmpeq	r2,r2,zero
 10003fc:	1000251e 	bne	r2,zero,1000494 <main+0xe0>
 1000400:	00000006 	br	1000404 <main+0x50>
		while(1) {
			if ((connected == 0) && (alt_up_sd_card_is_Present())) {
 1000404:	e0bffe17 	ldw	r2,-8(fp)
 1000408:	1004c03a 	cmpne	r2,r2,zero
 100040c:	1000161e 	bne	r2,zero,1000468 <main+0xb4>
 1000410:	100684c0 	call	100684c <alt_up_sd_card_is_Present>
 1000414:	1005003a 	cmpeq	r2,r2,zero
 1000418:	1000131e 	bne	r2,zero,1000468 <main+0xb4>
				printf("Card connected.\n");
 100041c:	01004074 	movhi	r4,257
 1000420:	21324f04 	addi	r4,r4,-14020
 1000424:	10005580 	call	1000558 <puts>
				if (alt_up_sd_card_is_FAT16()) {
 1000428:	10069140 	call	1006914 <alt_up_sd_card_is_FAT16>
 100042c:	1005003a 	cmpeq	r2,r2,zero
 1000430:	1000071e 	bne	r2,zero,1000450 <main+0x9c>
					printf("FAT16 file system detected.\n");
 1000434:	01004074 	movhi	r4,257
 1000438:	21325304 	addi	r4,r4,-14004
 100043c:	10005580 	call	1000558 <puts>
					scan_sd_card(directory, filename);
 1000440:	e13ffc17 	ldw	r4,-16(fp)
 1000444:	e17ffd17 	ldw	r5,-12(fp)
 1000448:	10002e80 	call	10002e8 <scan_sd_card>
 100044c:	00000306 	br	100045c <main+0xa8>
				} else {
					printf("Unknown file system.\n");
 1000450:	01004074 	movhi	r4,257
 1000454:	21325a04 	addi	r4,r4,-13976
 1000458:	10005580 	call	1000558 <puts>
				}
				connected = 1;
 100045c:	00800044 	movi	r2,1
 1000460:	e0bffe15 	stw	r2,-8(fp)
	device_reference = alt_up_sd_card_open_dev("/dev/Altera_UP_SD_Card_Avalon_Interface_0");
	printf("Program running\n");

	if (device_reference != NULL) {
		while(1) {
			if ((connected == 0) && (alt_up_sd_card_is_Present())) {
 1000464:	003fe706 	br	1000404 <main+0x50>
				} else {
					printf("Unknown file system.\n");
				}
				connected = 1;
			}
			else if ((connected == 1) && (alt_up_sd_card_is_Present() == false)) {
 1000468:	e0bffe17 	ldw	r2,-8(fp)
 100046c:	10800058 	cmpnei	r2,r2,1
 1000470:	103fe41e 	bne	r2,zero,1000404 <main+0x50>
 1000474:	100684c0 	call	100684c <alt_up_sd_card_is_Present>
 1000478:	1004c03a 	cmpne	r2,r2,zero
 100047c:	103fe11e 	bne	r2,zero,1000404 <main+0x50>
				printf("Card disconnected.\n");
 1000480:	01004074 	movhi	r4,257
 1000484:	21326004 	addi	r4,r4,-13952
 1000488:	10005580 	call	1000558 <puts>
				connected = 0;
 100048c:	e03ffe15 	stw	zero,-8(fp)
			}
		}
 1000490:	003fdc06 	br	1000404 <main+0x50>
	}

	printf("Device reference is wrong\n");
 1000494:	01004074 	movhi	r4,257
 1000498:	21326504 	addi	r4,r4,-13932
 100049c:	10005580 	call	1000558 <puts>

	return 0;
 10004a0:	0005883a 	mov	r2,zero
}
 10004a4:	e037883a 	mov	sp,fp
 10004a8:	dfc00117 	ldw	ra,4(sp)
 10004ac:	df000017 	ldw	fp,0(sp)
 10004b0:	dec00204 	addi	sp,sp,8
 10004b4:	f800283a 	ret

010004b8 <_puts_r>:
 10004b8:	defff604 	addi	sp,sp,-40
 10004bc:	dc400715 	stw	r17,28(sp)
 10004c0:	2023883a 	mov	r17,r4
 10004c4:	2809883a 	mov	r4,r5
 10004c8:	dfc00915 	stw	ra,36(sp)
 10004cc:	dcc00815 	stw	r19,32(sp)
 10004d0:	2827883a 	mov	r19,r5
 10004d4:	100056c0 	call	100056c <strlen>
 10004d8:	89400217 	ldw	r5,8(r17)
 10004dc:	00c04074 	movhi	r3,257
 10004e0:	18f26c04 	addi	r3,r3,-13904
 10004e4:	01c00044 	movi	r7,1
 10004e8:	12000044 	addi	r8,r2,1
 10004ec:	d8c00515 	stw	r3,20(sp)
 10004f0:	d9c00615 	stw	r7,24(sp)
 10004f4:	d8c00304 	addi	r3,sp,12
 10004f8:	01c00084 	movi	r7,2
 10004fc:	8809883a 	mov	r4,r17
 1000500:	d80d883a 	mov	r6,sp
 1000504:	d8c00015 	stw	r3,0(sp)
 1000508:	dcc00315 	stw	r19,12(sp)
 100050c:	da000215 	stw	r8,8(sp)
 1000510:	d9c00115 	stw	r7,4(sp)
 1000514:	d8800415 	stw	r2,16(sp)
 1000518:	10005e00 	call	10005e0 <__sfvwrite_r>
 100051c:	00ffffc4 	movi	r3,-1
 1000520:	10000626 	beq	r2,zero,100053c <_puts_r+0x84>
 1000524:	1805883a 	mov	r2,r3
 1000528:	dfc00917 	ldw	ra,36(sp)
 100052c:	dcc00817 	ldw	r19,32(sp)
 1000530:	dc400717 	ldw	r17,28(sp)
 1000534:	dec00a04 	addi	sp,sp,40
 1000538:	f800283a 	ret
 100053c:	00c00284 	movi	r3,10
 1000540:	1805883a 	mov	r2,r3
 1000544:	dfc00917 	ldw	ra,36(sp)
 1000548:	dcc00817 	ldw	r19,32(sp)
 100054c:	dc400717 	ldw	r17,28(sp)
 1000550:	dec00a04 	addi	sp,sp,40
 1000554:	f800283a 	ret

01000558 <puts>:
 1000558:	00804074 	movhi	r2,257
 100055c:	10b9a904 	addi	r2,r2,-6492
 1000560:	200b883a 	mov	r5,r4
 1000564:	11000017 	ldw	r4,0(r2)
 1000568:	10004b81 	jmpi	10004b8 <_puts_r>

0100056c <strlen>:
 100056c:	208000cc 	andi	r2,r4,3
 1000570:	2011883a 	mov	r8,r4
 1000574:	1000161e 	bne	r2,zero,10005d0 <strlen+0x64>
 1000578:	20c00017 	ldw	r3,0(r4)
 100057c:	017fbff4 	movhi	r5,65279
 1000580:	297fbfc4 	addi	r5,r5,-257
 1000584:	01e02074 	movhi	r7,32897
 1000588:	39e02004 	addi	r7,r7,-32640
 100058c:	1945883a 	add	r2,r3,r5
 1000590:	11c4703a 	and	r2,r2,r7
 1000594:	00c6303a 	nor	r3,zero,r3
 1000598:	1886703a 	and	r3,r3,r2
 100059c:	18000c1e 	bne	r3,zero,10005d0 <strlen+0x64>
 10005a0:	280d883a 	mov	r6,r5
 10005a4:	380b883a 	mov	r5,r7
 10005a8:	21000104 	addi	r4,r4,4
 10005ac:	20800017 	ldw	r2,0(r4)
 10005b0:	1187883a 	add	r3,r2,r6
 10005b4:	1946703a 	and	r3,r3,r5
 10005b8:	0084303a 	nor	r2,zero,r2
 10005bc:	10c4703a 	and	r2,r2,r3
 10005c0:	103ff926 	beq	r2,zero,10005a8 <strlen+0x3c>
 10005c4:	20800007 	ldb	r2,0(r4)
 10005c8:	10000326 	beq	r2,zero,10005d8 <strlen+0x6c>
 10005cc:	21000044 	addi	r4,r4,1
 10005d0:	20800007 	ldb	r2,0(r4)
 10005d4:	103ffd1e 	bne	r2,zero,10005cc <strlen+0x60>
 10005d8:	2205c83a 	sub	r2,r4,r8
 10005dc:	f800283a 	ret

010005e0 <__sfvwrite_r>:
 10005e0:	30800217 	ldw	r2,8(r6)
 10005e4:	defff504 	addi	sp,sp,-44
 10005e8:	df000915 	stw	fp,36(sp)
 10005ec:	dd800715 	stw	r22,28(sp)
 10005f0:	dc800315 	stw	r18,12(sp)
 10005f4:	dfc00a15 	stw	ra,40(sp)
 10005f8:	ddc00815 	stw	r23,32(sp)
 10005fc:	dd400615 	stw	r21,24(sp)
 1000600:	dd000515 	stw	r20,20(sp)
 1000604:	dcc00415 	stw	r19,16(sp)
 1000608:	dc400215 	stw	r17,8(sp)
 100060c:	dc000115 	stw	r16,4(sp)
 1000610:	302d883a 	mov	r22,r6
 1000614:	2039883a 	mov	fp,r4
 1000618:	2825883a 	mov	r18,r5
 100061c:	10001c26 	beq	r2,zero,1000690 <__sfvwrite_r+0xb0>
 1000620:	29c0030b 	ldhu	r7,12(r5)
 1000624:	3880020c 	andi	r2,r7,8
 1000628:	10002726 	beq	r2,zero,10006c8 <__sfvwrite_r+0xe8>
 100062c:	28800417 	ldw	r2,16(r5)
 1000630:	10002526 	beq	r2,zero,10006c8 <__sfvwrite_r+0xe8>
 1000634:	3880008c 	andi	r2,r7,2
 1000638:	b5400017 	ldw	r21,0(r22)
 100063c:	10002826 	beq	r2,zero,10006e0 <__sfvwrite_r+0x100>
 1000640:	0021883a 	mov	r16,zero
 1000644:	0023883a 	mov	r17,zero
 1000648:	880d883a 	mov	r6,r17
 100064c:	e009883a 	mov	r4,fp
 1000650:	00810004 	movi	r2,1024
 1000654:	80006e26 	beq	r16,zero,1000810 <__sfvwrite_r+0x230>
 1000658:	800f883a 	mov	r7,r16
 100065c:	91400717 	ldw	r5,28(r18)
 1000660:	1400012e 	bgeu	r2,r16,1000668 <__sfvwrite_r+0x88>
 1000664:	100f883a 	mov	r7,r2
 1000668:	90c00917 	ldw	r3,36(r18)
 100066c:	183ee83a 	callr	r3
 1000670:	1007883a 	mov	r3,r2
 1000674:	80a1c83a 	sub	r16,r16,r2
 1000678:	88a3883a 	add	r17,r17,r2
 100067c:	00806d0e 	bge	zero,r2,1000834 <__sfvwrite_r+0x254>
 1000680:	b0800217 	ldw	r2,8(r22)
 1000684:	10c5c83a 	sub	r2,r2,r3
 1000688:	b0800215 	stw	r2,8(r22)
 100068c:	103fee1e 	bne	r2,zero,1000648 <__sfvwrite_r+0x68>
 1000690:	0009883a 	mov	r4,zero
 1000694:	2005883a 	mov	r2,r4
 1000698:	dfc00a17 	ldw	ra,40(sp)
 100069c:	df000917 	ldw	fp,36(sp)
 10006a0:	ddc00817 	ldw	r23,32(sp)
 10006a4:	dd800717 	ldw	r22,28(sp)
 10006a8:	dd400617 	ldw	r21,24(sp)
 10006ac:	dd000517 	ldw	r20,20(sp)
 10006b0:	dcc00417 	ldw	r19,16(sp)
 10006b4:	dc800317 	ldw	r18,12(sp)
 10006b8:	dc400217 	ldw	r17,8(sp)
 10006bc:	dc000117 	ldw	r16,4(sp)
 10006c0:	dec00b04 	addi	sp,sp,44
 10006c4:	f800283a 	ret
 10006c8:	1001a840 	call	1001a84 <__swsetup_r>
 10006cc:	1000e41e 	bne	r2,zero,1000a60 <__sfvwrite_r+0x480>
 10006d0:	91c0030b 	ldhu	r7,12(r18)
 10006d4:	b5400017 	ldw	r21,0(r22)
 10006d8:	3880008c 	andi	r2,r7,2
 10006dc:	103fd81e 	bne	r2,zero,1000640 <__sfvwrite_r+0x60>
 10006e0:	3880004c 	andi	r2,r7,1
 10006e4:	1005003a 	cmpeq	r2,r2,zero
 10006e8:	10005726 	beq	r2,zero,1000848 <__sfvwrite_r+0x268>
 10006ec:	0029883a 	mov	r20,zero
 10006f0:	002f883a 	mov	r23,zero
 10006f4:	a0004226 	beq	r20,zero,1000800 <__sfvwrite_r+0x220>
 10006f8:	3880800c 	andi	r2,r7,512
 10006fc:	94000217 	ldw	r16,8(r18)
 1000700:	10008b26 	beq	r2,zero,1000930 <__sfvwrite_r+0x350>
 1000704:	800d883a 	mov	r6,r16
 1000708:	a400a536 	bltu	r20,r16,10009a0 <__sfvwrite_r+0x3c0>
 100070c:	3881200c 	andi	r2,r7,1152
 1000710:	10002726 	beq	r2,zero,10007b0 <__sfvwrite_r+0x1d0>
 1000714:	90800517 	ldw	r2,20(r18)
 1000718:	92000417 	ldw	r8,16(r18)
 100071c:	91400017 	ldw	r5,0(r18)
 1000720:	1087883a 	add	r3,r2,r2
 1000724:	1887883a 	add	r3,r3,r2
 1000728:	1808d7fa 	srli	r4,r3,31
 100072c:	2a21c83a 	sub	r16,r5,r8
 1000730:	80800044 	addi	r2,r16,1
 1000734:	20c9883a 	add	r4,r4,r3
 1000738:	2027d07a 	srai	r19,r4,1
 100073c:	a085883a 	add	r2,r20,r2
 1000740:	980d883a 	mov	r6,r19
 1000744:	9880022e 	bgeu	r19,r2,1000750 <__sfvwrite_r+0x170>
 1000748:	1027883a 	mov	r19,r2
 100074c:	100d883a 	mov	r6,r2
 1000750:	3881000c 	andi	r2,r7,1024
 1000754:	1000b826 	beq	r2,zero,1000a38 <__sfvwrite_r+0x458>
 1000758:	300b883a 	mov	r5,r6
 100075c:	e009883a 	mov	r4,fp
 1000760:	1000a7c0 	call	1000a7c <_malloc_r>
 1000764:	10003126 	beq	r2,zero,100082c <__sfvwrite_r+0x24c>
 1000768:	91400417 	ldw	r5,16(r18)
 100076c:	1009883a 	mov	r4,r2
 1000770:	800d883a 	mov	r6,r16
 1000774:	1023883a 	mov	r17,r2
 1000778:	10012a00 	call	10012a0 <memcpy>
 100077c:	90c0030b 	ldhu	r3,12(r18)
 1000780:	00beffc4 	movi	r2,-1025
 1000784:	1886703a 	and	r3,r3,r2
 1000788:	18c02014 	ori	r3,r3,128
 100078c:	90c0030d 	sth	r3,12(r18)
 1000790:	9c07c83a 	sub	r3,r19,r16
 1000794:	8c05883a 	add	r2,r17,r16
 1000798:	a00d883a 	mov	r6,r20
 100079c:	a021883a 	mov	r16,r20
 10007a0:	90800015 	stw	r2,0(r18)
 10007a4:	90c00215 	stw	r3,8(r18)
 10007a8:	94400415 	stw	r17,16(r18)
 10007ac:	94c00515 	stw	r19,20(r18)
 10007b0:	91000017 	ldw	r4,0(r18)
 10007b4:	b80b883a 	mov	r5,r23
 10007b8:	a023883a 	mov	r17,r20
 10007bc:	10013400 	call	1001340 <memmove>
 10007c0:	90c00217 	ldw	r3,8(r18)
 10007c4:	90800017 	ldw	r2,0(r18)
 10007c8:	a027883a 	mov	r19,r20
 10007cc:	1c07c83a 	sub	r3,r3,r16
 10007d0:	1405883a 	add	r2,r2,r16
 10007d4:	90c00215 	stw	r3,8(r18)
 10007d8:	a021883a 	mov	r16,r20
 10007dc:	90800015 	stw	r2,0(r18)
 10007e0:	b0800217 	ldw	r2,8(r22)
 10007e4:	1405c83a 	sub	r2,r2,r16
 10007e8:	b0800215 	stw	r2,8(r22)
 10007ec:	103fa826 	beq	r2,zero,1000690 <__sfvwrite_r+0xb0>
 10007f0:	a469c83a 	sub	r20,r20,r17
 10007f4:	91c0030b 	ldhu	r7,12(r18)
 10007f8:	bcef883a 	add	r23,r23,r19
 10007fc:	a03fbe1e 	bne	r20,zero,10006f8 <__sfvwrite_r+0x118>
 1000800:	adc00017 	ldw	r23,0(r21)
 1000804:	ad000117 	ldw	r20,4(r21)
 1000808:	ad400204 	addi	r21,r21,8
 100080c:	003fb906 	br	10006f4 <__sfvwrite_r+0x114>
 1000810:	ac400017 	ldw	r17,0(r21)
 1000814:	ac000117 	ldw	r16,4(r21)
 1000818:	ad400204 	addi	r21,r21,8
 100081c:	003f8a06 	br	1000648 <__sfvwrite_r+0x68>
 1000820:	91400417 	ldw	r5,16(r18)
 1000824:	e009883a 	mov	r4,fp
 1000828:	10022100 	call	1002210 <_free_r>
 100082c:	00800304 	movi	r2,12
 1000830:	e0800015 	stw	r2,0(fp)
 1000834:	9080030b 	ldhu	r2,12(r18)
 1000838:	013fffc4 	movi	r4,-1
 100083c:	10801014 	ori	r2,r2,64
 1000840:	9080030d 	sth	r2,12(r18)
 1000844:	003f9306 	br	1000694 <__sfvwrite_r+0xb4>
 1000848:	0027883a 	mov	r19,zero
 100084c:	002f883a 	mov	r23,zero
 1000850:	d8000015 	stw	zero,0(sp)
 1000854:	0029883a 	mov	r20,zero
 1000858:	98001e26 	beq	r19,zero,10008d4 <__sfvwrite_r+0x2f4>
 100085c:	d8c00017 	ldw	r3,0(sp)
 1000860:	1804c03a 	cmpne	r2,r3,zero
 1000864:	10005e26 	beq	r2,zero,10009e0 <__sfvwrite_r+0x400>
 1000868:	9821883a 	mov	r16,r19
 100086c:	a4c0012e 	bgeu	r20,r19,1000874 <__sfvwrite_r+0x294>
 1000870:	a021883a 	mov	r16,r20
 1000874:	91000017 	ldw	r4,0(r18)
 1000878:	90800417 	ldw	r2,16(r18)
 100087c:	91800217 	ldw	r6,8(r18)
 1000880:	91c00517 	ldw	r7,20(r18)
 1000884:	1100022e 	bgeu	r2,r4,1000890 <__sfvwrite_r+0x2b0>
 1000888:	31e3883a 	add	r17,r6,r7
 100088c:	8c001616 	blt	r17,r16,10008e8 <__sfvwrite_r+0x308>
 1000890:	81c03816 	blt	r16,r7,1000974 <__sfvwrite_r+0x394>
 1000894:	90c00917 	ldw	r3,36(r18)
 1000898:	91400717 	ldw	r5,28(r18)
 100089c:	e009883a 	mov	r4,fp
 10008a0:	b80d883a 	mov	r6,r23
 10008a4:	183ee83a 	callr	r3
 10008a8:	1023883a 	mov	r17,r2
 10008ac:	00bfe10e 	bge	zero,r2,1000834 <__sfvwrite_r+0x254>
 10008b0:	a469c83a 	sub	r20,r20,r17
 10008b4:	a0001826 	beq	r20,zero,1000918 <__sfvwrite_r+0x338>
 10008b8:	b0800217 	ldw	r2,8(r22)
 10008bc:	1445c83a 	sub	r2,r2,r17
 10008c0:	b0800215 	stw	r2,8(r22)
 10008c4:	103f7226 	beq	r2,zero,1000690 <__sfvwrite_r+0xb0>
 10008c8:	9c67c83a 	sub	r19,r19,r17
 10008cc:	bc6f883a 	add	r23,r23,r17
 10008d0:	983fe21e 	bne	r19,zero,100085c <__sfvwrite_r+0x27c>
 10008d4:	adc00017 	ldw	r23,0(r21)
 10008d8:	acc00117 	ldw	r19,4(r21)
 10008dc:	ad400204 	addi	r21,r21,8
 10008e0:	d8000015 	stw	zero,0(sp)
 10008e4:	003fdc06 	br	1000858 <__sfvwrite_r+0x278>
 10008e8:	b80b883a 	mov	r5,r23
 10008ec:	880d883a 	mov	r6,r17
 10008f0:	10013400 	call	1001340 <memmove>
 10008f4:	90c00017 	ldw	r3,0(r18)
 10008f8:	e009883a 	mov	r4,fp
 10008fc:	900b883a 	mov	r5,r18
 1000900:	1c47883a 	add	r3,r3,r17
 1000904:	90c00015 	stw	r3,0(r18)
 1000908:	1001bc00 	call	1001bc0 <_fflush_r>
 100090c:	103fc91e 	bne	r2,zero,1000834 <__sfvwrite_r+0x254>
 1000910:	a469c83a 	sub	r20,r20,r17
 1000914:	a03fe81e 	bne	r20,zero,10008b8 <__sfvwrite_r+0x2d8>
 1000918:	e009883a 	mov	r4,fp
 100091c:	900b883a 	mov	r5,r18
 1000920:	1001bc00 	call	1001bc0 <_fflush_r>
 1000924:	103fc31e 	bne	r2,zero,1000834 <__sfvwrite_r+0x254>
 1000928:	d8000015 	stw	zero,0(sp)
 100092c:	003fe206 	br	10008b8 <__sfvwrite_r+0x2d8>
 1000930:	91000017 	ldw	r4,0(r18)
 1000934:	90800417 	ldw	r2,16(r18)
 1000938:	1100022e 	bgeu	r2,r4,1000944 <__sfvwrite_r+0x364>
 100093c:	8023883a 	mov	r17,r16
 1000940:	85003136 	bltu	r16,r20,1000a08 <__sfvwrite_r+0x428>
 1000944:	91c00517 	ldw	r7,20(r18)
 1000948:	a1c01836 	bltu	r20,r7,10009ac <__sfvwrite_r+0x3cc>
 100094c:	90c00917 	ldw	r3,36(r18)
 1000950:	91400717 	ldw	r5,28(r18)
 1000954:	e009883a 	mov	r4,fp
 1000958:	b80d883a 	mov	r6,r23
 100095c:	183ee83a 	callr	r3
 1000960:	1021883a 	mov	r16,r2
 1000964:	00bfb30e 	bge	zero,r2,1000834 <__sfvwrite_r+0x254>
 1000968:	1023883a 	mov	r17,r2
 100096c:	1027883a 	mov	r19,r2
 1000970:	003f9b06 	br	10007e0 <__sfvwrite_r+0x200>
 1000974:	b80b883a 	mov	r5,r23
 1000978:	800d883a 	mov	r6,r16
 100097c:	10013400 	call	1001340 <memmove>
 1000980:	90c00217 	ldw	r3,8(r18)
 1000984:	90800017 	ldw	r2,0(r18)
 1000988:	8023883a 	mov	r17,r16
 100098c:	1c07c83a 	sub	r3,r3,r16
 1000990:	1405883a 	add	r2,r2,r16
 1000994:	90c00215 	stw	r3,8(r18)
 1000998:	90800015 	stw	r2,0(r18)
 100099c:	003fc406 	br	10008b0 <__sfvwrite_r+0x2d0>
 10009a0:	a00d883a 	mov	r6,r20
 10009a4:	a021883a 	mov	r16,r20
 10009a8:	003f8106 	br	10007b0 <__sfvwrite_r+0x1d0>
 10009ac:	b80b883a 	mov	r5,r23
 10009b0:	a00d883a 	mov	r6,r20
 10009b4:	10013400 	call	1001340 <memmove>
 10009b8:	90c00217 	ldw	r3,8(r18)
 10009bc:	90800017 	ldw	r2,0(r18)
 10009c0:	a021883a 	mov	r16,r20
 10009c4:	1d07c83a 	sub	r3,r3,r20
 10009c8:	1505883a 	add	r2,r2,r20
 10009cc:	a023883a 	mov	r17,r20
 10009d0:	a027883a 	mov	r19,r20
 10009d4:	90c00215 	stw	r3,8(r18)
 10009d8:	90800015 	stw	r2,0(r18)
 10009dc:	003f8006 	br	10007e0 <__sfvwrite_r+0x200>
 10009e0:	b809883a 	mov	r4,r23
 10009e4:	01400284 	movi	r5,10
 10009e8:	980d883a 	mov	r6,r19
 10009ec:	10011bc0 	call	10011bc <memchr>
 10009f0:	10001726 	beq	r2,zero,1000a50 <__sfvwrite_r+0x470>
 10009f4:	15c5c83a 	sub	r2,r2,r23
 10009f8:	15000044 	addi	r20,r2,1
 10009fc:	00800044 	movi	r2,1
 1000a00:	d8800015 	stw	r2,0(sp)
 1000a04:	003f9806 	br	1000868 <__sfvwrite_r+0x288>
 1000a08:	b80b883a 	mov	r5,r23
 1000a0c:	800d883a 	mov	r6,r16
 1000a10:	10013400 	call	1001340 <memmove>
 1000a14:	90c00017 	ldw	r3,0(r18)
 1000a18:	e009883a 	mov	r4,fp
 1000a1c:	900b883a 	mov	r5,r18
 1000a20:	1c07883a 	add	r3,r3,r16
 1000a24:	90c00015 	stw	r3,0(r18)
 1000a28:	8027883a 	mov	r19,r16
 1000a2c:	1001bc00 	call	1001bc0 <_fflush_r>
 1000a30:	103f6b26 	beq	r2,zero,10007e0 <__sfvwrite_r+0x200>
 1000a34:	003f7f06 	br	1000834 <__sfvwrite_r+0x254>
 1000a38:	400b883a 	mov	r5,r8
 1000a3c:	e009883a 	mov	r4,fp
 1000a40:	10014200 	call	1001420 <_realloc_r>
 1000a44:	103f7626 	beq	r2,zero,1000820 <__sfvwrite_r+0x240>
 1000a48:	1023883a 	mov	r17,r2
 1000a4c:	003f5006 	br	1000790 <__sfvwrite_r+0x1b0>
 1000a50:	00c00044 	movi	r3,1
 1000a54:	9d000044 	addi	r20,r19,1
 1000a58:	d8c00015 	stw	r3,0(sp)
 1000a5c:	003f8206 	br	1000868 <__sfvwrite_r+0x288>
 1000a60:	9080030b 	ldhu	r2,12(r18)
 1000a64:	00c00244 	movi	r3,9
 1000a68:	013fffc4 	movi	r4,-1
 1000a6c:	10801014 	ori	r2,r2,64
 1000a70:	9080030d 	sth	r2,12(r18)
 1000a74:	e0c00015 	stw	r3,0(fp)
 1000a78:	003f0606 	br	1000694 <__sfvwrite_r+0xb4>

01000a7c <_malloc_r>:
 1000a7c:	defff604 	addi	sp,sp,-40
 1000a80:	28c002c4 	addi	r3,r5,11
 1000a84:	00800584 	movi	r2,22
 1000a88:	dc800215 	stw	r18,8(sp)
 1000a8c:	dfc00915 	stw	ra,36(sp)
 1000a90:	df000815 	stw	fp,32(sp)
 1000a94:	ddc00715 	stw	r23,28(sp)
 1000a98:	dd800615 	stw	r22,24(sp)
 1000a9c:	dd400515 	stw	r21,20(sp)
 1000aa0:	dd000415 	stw	r20,16(sp)
 1000aa4:	dcc00315 	stw	r19,12(sp)
 1000aa8:	dc400115 	stw	r17,4(sp)
 1000aac:	dc000015 	stw	r16,0(sp)
 1000ab0:	2025883a 	mov	r18,r4
 1000ab4:	10c01236 	bltu	r2,r3,1000b00 <_malloc_r+0x84>
 1000ab8:	04400404 	movi	r17,16
 1000abc:	8940142e 	bgeu	r17,r5,1000b10 <_malloc_r+0x94>
 1000ac0:	00800304 	movi	r2,12
 1000ac4:	0007883a 	mov	r3,zero
 1000ac8:	90800015 	stw	r2,0(r18)
 1000acc:	1805883a 	mov	r2,r3
 1000ad0:	dfc00917 	ldw	ra,36(sp)
 1000ad4:	df000817 	ldw	fp,32(sp)
 1000ad8:	ddc00717 	ldw	r23,28(sp)
 1000adc:	dd800617 	ldw	r22,24(sp)
 1000ae0:	dd400517 	ldw	r21,20(sp)
 1000ae4:	dd000417 	ldw	r20,16(sp)
 1000ae8:	dcc00317 	ldw	r19,12(sp)
 1000aec:	dc800217 	ldw	r18,8(sp)
 1000af0:	dc400117 	ldw	r17,4(sp)
 1000af4:	dc000017 	ldw	r16,0(sp)
 1000af8:	dec00a04 	addi	sp,sp,40
 1000afc:	f800283a 	ret
 1000b00:	00bffe04 	movi	r2,-8
 1000b04:	18a2703a 	and	r17,r3,r2
 1000b08:	883fed16 	blt	r17,zero,1000ac0 <_malloc_r+0x44>
 1000b0c:	897fec36 	bltu	r17,r5,1000ac0 <_malloc_r+0x44>
 1000b10:	9009883a 	mov	r4,r18
 1000b14:	10034c80 	call	10034c8 <__malloc_lock>
 1000b18:	00807dc4 	movi	r2,503
 1000b1c:	14402b2e 	bgeu	r2,r17,1000bcc <_malloc_r+0x150>
 1000b20:	8806d27a 	srli	r3,r17,9
 1000b24:	18003f1e 	bne	r3,zero,1000c24 <_malloc_r+0x1a8>
 1000b28:	880cd0fa 	srli	r6,r17,3
 1000b2c:	300490fa 	slli	r2,r6,3
 1000b30:	02c04074 	movhi	r11,257
 1000b34:	5af40f04 	addi	r11,r11,-12228
 1000b38:	12cb883a 	add	r5,r2,r11
 1000b3c:	2c000317 	ldw	r16,12(r5)
 1000b40:	580f883a 	mov	r7,r11
 1000b44:	2c00041e 	bne	r5,r16,1000b58 <_malloc_r+0xdc>
 1000b48:	00000a06 	br	1000b74 <_malloc_r+0xf8>
 1000b4c:	1800860e 	bge	r3,zero,1000d68 <_malloc_r+0x2ec>
 1000b50:	84000317 	ldw	r16,12(r16)
 1000b54:	2c000726 	beq	r5,r16,1000b74 <_malloc_r+0xf8>
 1000b58:	80800117 	ldw	r2,4(r16)
 1000b5c:	00ffff04 	movi	r3,-4
 1000b60:	10c8703a 	and	r4,r2,r3
 1000b64:	2447c83a 	sub	r3,r4,r17
 1000b68:	008003c4 	movi	r2,15
 1000b6c:	10fff70e 	bge	r2,r3,1000b4c <_malloc_r+0xd0>
 1000b70:	31bfffc4 	addi	r6,r6,-1
 1000b74:	32400044 	addi	r9,r6,1
 1000b78:	02804074 	movhi	r10,257
 1000b7c:	52b41104 	addi	r10,r10,-12220
 1000b80:	54000217 	ldw	r16,8(r10)
 1000b84:	8280a026 	beq	r16,r10,1000e08 <_malloc_r+0x38c>
 1000b88:	80800117 	ldw	r2,4(r16)
 1000b8c:	00ffff04 	movi	r3,-4
 1000b90:	10ca703a 	and	r5,r2,r3
 1000b94:	2c4dc83a 	sub	r6,r5,r17
 1000b98:	008003c4 	movi	r2,15
 1000b9c:	11808316 	blt	r2,r6,1000dac <_malloc_r+0x330>
 1000ba0:	52800315 	stw	r10,12(r10)
 1000ba4:	52800215 	stw	r10,8(r10)
 1000ba8:	30002916 	blt	r6,zero,1000c50 <_malloc_r+0x1d4>
 1000bac:	8147883a 	add	r3,r16,r5
 1000bb0:	18800117 	ldw	r2,4(r3)
 1000bb4:	9009883a 	mov	r4,r18
 1000bb8:	10800054 	ori	r2,r2,1
 1000bbc:	18800115 	stw	r2,4(r3)
 1000bc0:	10034e80 	call	10034e8 <__malloc_unlock>
 1000bc4:	80c00204 	addi	r3,r16,8
 1000bc8:	003fc006 	br	1000acc <_malloc_r+0x50>
 1000bcc:	02c04074 	movhi	r11,257
 1000bd0:	5af40f04 	addi	r11,r11,-12228
 1000bd4:	8ac5883a 	add	r2,r17,r11
 1000bd8:	14000317 	ldw	r16,12(r2)
 1000bdc:	580f883a 	mov	r7,r11
 1000be0:	8806d0fa 	srli	r3,r17,3
 1000be4:	14006c26 	beq	r2,r16,1000d98 <_malloc_r+0x31c>
 1000be8:	80c00117 	ldw	r3,4(r16)
 1000bec:	00bfff04 	movi	r2,-4
 1000bf0:	81800317 	ldw	r6,12(r16)
 1000bf4:	1886703a 	and	r3,r3,r2
 1000bf8:	80c7883a 	add	r3,r16,r3
 1000bfc:	18800117 	ldw	r2,4(r3)
 1000c00:	81400217 	ldw	r5,8(r16)
 1000c04:	9009883a 	mov	r4,r18
 1000c08:	10800054 	ori	r2,r2,1
 1000c0c:	18800115 	stw	r2,4(r3)
 1000c10:	31400215 	stw	r5,8(r6)
 1000c14:	29800315 	stw	r6,12(r5)
 1000c18:	10034e80 	call	10034e8 <__malloc_unlock>
 1000c1c:	80c00204 	addi	r3,r16,8
 1000c20:	003faa06 	br	1000acc <_malloc_r+0x50>
 1000c24:	00800104 	movi	r2,4
 1000c28:	10c0052e 	bgeu	r2,r3,1000c40 <_malloc_r+0x1c4>
 1000c2c:	00800504 	movi	r2,20
 1000c30:	10c07836 	bltu	r2,r3,1000e14 <_malloc_r+0x398>
 1000c34:	198016c4 	addi	r6,r3,91
 1000c38:	300490fa 	slli	r2,r6,3
 1000c3c:	003fbc06 	br	1000b30 <_malloc_r+0xb4>
 1000c40:	8804d1ba 	srli	r2,r17,6
 1000c44:	11800e04 	addi	r6,r2,56
 1000c48:	300490fa 	slli	r2,r6,3
 1000c4c:	003fb806 	br	1000b30 <_malloc_r+0xb4>
 1000c50:	00807fc4 	movi	r2,511
 1000c54:	1140bb36 	bltu	r2,r5,1000f44 <_malloc_r+0x4c8>
 1000c58:	2806d0fa 	srli	r3,r5,3
 1000c5c:	573ffe04 	addi	fp,r10,-8
 1000c60:	00800044 	movi	r2,1
 1000c64:	180890fa 	slli	r4,r3,3
 1000c68:	1807d0ba 	srai	r3,r3,2
 1000c6c:	e1c00117 	ldw	r7,4(fp)
 1000c70:	5909883a 	add	r4,r11,r4
 1000c74:	21400217 	ldw	r5,8(r4)
 1000c78:	10c4983a 	sll	r2,r2,r3
 1000c7c:	81000315 	stw	r4,12(r16)
 1000c80:	81400215 	stw	r5,8(r16)
 1000c84:	388eb03a 	or	r7,r7,r2
 1000c88:	2c000315 	stw	r16,12(r5)
 1000c8c:	24000215 	stw	r16,8(r4)
 1000c90:	e1c00115 	stw	r7,4(fp)
 1000c94:	4807883a 	mov	r3,r9
 1000c98:	4800cd16 	blt	r9,zero,1000fd0 <_malloc_r+0x554>
 1000c9c:	1807d0ba 	srai	r3,r3,2
 1000ca0:	00800044 	movi	r2,1
 1000ca4:	10c8983a 	sll	r4,r2,r3
 1000ca8:	39004436 	bltu	r7,r4,1000dbc <_malloc_r+0x340>
 1000cac:	21c4703a 	and	r2,r4,r7
 1000cb0:	10000a1e 	bne	r2,zero,1000cdc <_malloc_r+0x260>
 1000cb4:	2109883a 	add	r4,r4,r4
 1000cb8:	00bfff04 	movi	r2,-4
 1000cbc:	4884703a 	and	r2,r9,r2
 1000cc0:	3906703a 	and	r3,r7,r4
 1000cc4:	12400104 	addi	r9,r2,4
 1000cc8:	1800041e 	bne	r3,zero,1000cdc <_malloc_r+0x260>
 1000ccc:	2109883a 	add	r4,r4,r4
 1000cd0:	3904703a 	and	r2,r7,r4
 1000cd4:	4a400104 	addi	r9,r9,4
 1000cd8:	103ffc26 	beq	r2,zero,1000ccc <_malloc_r+0x250>
 1000cdc:	480490fa 	slli	r2,r9,3
 1000ce0:	4819883a 	mov	r12,r9
 1000ce4:	023fff04 	movi	r8,-4
 1000ce8:	589b883a 	add	r13,r11,r2
 1000cec:	6807883a 	mov	r3,r13
 1000cf0:	014003c4 	movi	r5,15
 1000cf4:	1c000317 	ldw	r16,12(r3)
 1000cf8:	1c00041e 	bne	r3,r16,1000d0c <_malloc_r+0x290>
 1000cfc:	0000a706 	br	1000f9c <_malloc_r+0x520>
 1000d00:	3000ab0e 	bge	r6,zero,1000fb0 <_malloc_r+0x534>
 1000d04:	84000317 	ldw	r16,12(r16)
 1000d08:	1c00a426 	beq	r3,r16,1000f9c <_malloc_r+0x520>
 1000d0c:	80800117 	ldw	r2,4(r16)
 1000d10:	1204703a 	and	r2,r2,r8
 1000d14:	144dc83a 	sub	r6,r2,r17
 1000d18:	29bff90e 	bge	r5,r6,1000d00 <_malloc_r+0x284>
 1000d1c:	81000317 	ldw	r4,12(r16)
 1000d20:	80c00217 	ldw	r3,8(r16)
 1000d24:	89400054 	ori	r5,r17,1
 1000d28:	8445883a 	add	r2,r16,r17
 1000d2c:	20c00215 	stw	r3,8(r4)
 1000d30:	19000315 	stw	r4,12(r3)
 1000d34:	81400115 	stw	r5,4(r16)
 1000d38:	1187883a 	add	r3,r2,r6
 1000d3c:	31000054 	ori	r4,r6,1
 1000d40:	50800315 	stw	r2,12(r10)
 1000d44:	50800215 	stw	r2,8(r10)
 1000d48:	19800015 	stw	r6,0(r3)
 1000d4c:	11000115 	stw	r4,4(r2)
 1000d50:	12800215 	stw	r10,8(r2)
 1000d54:	12800315 	stw	r10,12(r2)
 1000d58:	9009883a 	mov	r4,r18
 1000d5c:	10034e80 	call	10034e8 <__malloc_unlock>
 1000d60:	80c00204 	addi	r3,r16,8
 1000d64:	003f5906 	br	1000acc <_malloc_r+0x50>
 1000d68:	8109883a 	add	r4,r16,r4
 1000d6c:	20800117 	ldw	r2,4(r4)
 1000d70:	80c00217 	ldw	r3,8(r16)
 1000d74:	81400317 	ldw	r5,12(r16)
 1000d78:	10800054 	ori	r2,r2,1
 1000d7c:	20800115 	stw	r2,4(r4)
 1000d80:	28c00215 	stw	r3,8(r5)
 1000d84:	19400315 	stw	r5,12(r3)
 1000d88:	9009883a 	mov	r4,r18
 1000d8c:	10034e80 	call	10034e8 <__malloc_unlock>
 1000d90:	80c00204 	addi	r3,r16,8
 1000d94:	003f4d06 	br	1000acc <_malloc_r+0x50>
 1000d98:	80800204 	addi	r2,r16,8
 1000d9c:	14000317 	ldw	r16,12(r2)
 1000da0:	143f911e 	bne	r2,r16,1000be8 <_malloc_r+0x16c>
 1000da4:	1a400084 	addi	r9,r3,2
 1000da8:	003f7306 	br	1000b78 <_malloc_r+0xfc>
 1000dac:	88c00054 	ori	r3,r17,1
 1000db0:	8445883a 	add	r2,r16,r17
 1000db4:	80c00115 	stw	r3,4(r16)
 1000db8:	003fdf06 	br	1000d38 <_malloc_r+0x2bc>
 1000dbc:	e4000217 	ldw	r16,8(fp)
 1000dc0:	00bfff04 	movi	r2,-4
 1000dc4:	80c00117 	ldw	r3,4(r16)
 1000dc8:	802d883a 	mov	r22,r16
 1000dcc:	18aa703a 	and	r21,r3,r2
 1000dd0:	ac401636 	bltu	r21,r17,1000e2c <_malloc_r+0x3b0>
 1000dd4:	ac49c83a 	sub	r4,r21,r17
 1000dd8:	008003c4 	movi	r2,15
 1000ddc:	1100130e 	bge	r2,r4,1000e2c <_malloc_r+0x3b0>
 1000de0:	88800054 	ori	r2,r17,1
 1000de4:	8447883a 	add	r3,r16,r17
 1000de8:	80800115 	stw	r2,4(r16)
 1000dec:	20800054 	ori	r2,r4,1
 1000df0:	18800115 	stw	r2,4(r3)
 1000df4:	e0c00215 	stw	r3,8(fp)
 1000df8:	9009883a 	mov	r4,r18
 1000dfc:	10034e80 	call	10034e8 <__malloc_unlock>
 1000e00:	80c00204 	addi	r3,r16,8
 1000e04:	003f3106 	br	1000acc <_malloc_r+0x50>
 1000e08:	39c00117 	ldw	r7,4(r7)
 1000e0c:	573ffe04 	addi	fp,r10,-8
 1000e10:	003fa006 	br	1000c94 <_malloc_r+0x218>
 1000e14:	00801504 	movi	r2,84
 1000e18:	10c06736 	bltu	r2,r3,1000fb8 <_malloc_r+0x53c>
 1000e1c:	8804d33a 	srli	r2,r17,12
 1000e20:	11801b84 	addi	r6,r2,110
 1000e24:	300490fa 	slli	r2,r6,3
 1000e28:	003f4106 	br	1000b30 <_malloc_r+0xb4>
 1000e2c:	d0a6b617 	ldw	r2,-25896(gp)
 1000e30:	d0e00317 	ldw	r3,-32756(gp)
 1000e34:	053fffc4 	movi	r20,-1
 1000e38:	10800404 	addi	r2,r2,16
 1000e3c:	88a7883a 	add	r19,r17,r2
 1000e40:	1d000326 	beq	r3,r20,1000e50 <_malloc_r+0x3d4>
 1000e44:	98c3ffc4 	addi	r3,r19,4095
 1000e48:	00bc0004 	movi	r2,-4096
 1000e4c:	18a6703a 	and	r19,r3,r2
 1000e50:	9009883a 	mov	r4,r18
 1000e54:	980b883a 	mov	r5,r19
 1000e58:	1001a140 	call	1001a14 <_sbrk_r>
 1000e5c:	1009883a 	mov	r4,r2
 1000e60:	15000426 	beq	r2,r20,1000e74 <_malloc_r+0x3f8>
 1000e64:	854b883a 	add	r5,r16,r21
 1000e68:	1029883a 	mov	r20,r2
 1000e6c:	11405a2e 	bgeu	r2,r5,1000fd8 <_malloc_r+0x55c>
 1000e70:	87000c26 	beq	r16,fp,1000ea4 <_malloc_r+0x428>
 1000e74:	e4000217 	ldw	r16,8(fp)
 1000e78:	80c00117 	ldw	r3,4(r16)
 1000e7c:	00bfff04 	movi	r2,-4
 1000e80:	1884703a 	and	r2,r3,r2
 1000e84:	14400336 	bltu	r2,r17,1000e94 <_malloc_r+0x418>
 1000e88:	1449c83a 	sub	r4,r2,r17
 1000e8c:	008003c4 	movi	r2,15
 1000e90:	113fd316 	blt	r2,r4,1000de0 <_malloc_r+0x364>
 1000e94:	9009883a 	mov	r4,r18
 1000e98:	10034e80 	call	10034e8 <__malloc_unlock>
 1000e9c:	0007883a 	mov	r3,zero
 1000ea0:	003f0a06 	br	1000acc <_malloc_r+0x50>
 1000ea4:	05c04074 	movhi	r23,257
 1000ea8:	bdc07604 	addi	r23,r23,472
 1000eac:	b8800017 	ldw	r2,0(r23)
 1000eb0:	988d883a 	add	r6,r19,r2
 1000eb4:	b9800015 	stw	r6,0(r23)
 1000eb8:	d0e00317 	ldw	r3,-32756(gp)
 1000ebc:	00bfffc4 	movi	r2,-1
 1000ec0:	18808e26 	beq	r3,r2,10010fc <_malloc_r+0x680>
 1000ec4:	2145c83a 	sub	r2,r4,r5
 1000ec8:	3085883a 	add	r2,r6,r2
 1000ecc:	b8800015 	stw	r2,0(r23)
 1000ed0:	20c001cc 	andi	r3,r4,7
 1000ed4:	18005f1e 	bne	r3,zero,1001054 <_malloc_r+0x5d8>
 1000ed8:	000b883a 	mov	r5,zero
 1000edc:	a4c5883a 	add	r2,r20,r19
 1000ee0:	1083ffcc 	andi	r2,r2,4095
 1000ee4:	00c40004 	movi	r3,4096
 1000ee8:	1887c83a 	sub	r3,r3,r2
 1000eec:	28e7883a 	add	r19,r5,r3
 1000ef0:	9009883a 	mov	r4,r18
 1000ef4:	980b883a 	mov	r5,r19
 1000ef8:	1001a140 	call	1001a14 <_sbrk_r>
 1000efc:	1007883a 	mov	r3,r2
 1000f00:	00bfffc4 	movi	r2,-1
 1000f04:	18807a26 	beq	r3,r2,10010f0 <_malloc_r+0x674>
 1000f08:	1d05c83a 	sub	r2,r3,r20
 1000f0c:	9885883a 	add	r2,r19,r2
 1000f10:	10c00054 	ori	r3,r2,1
 1000f14:	b8800017 	ldw	r2,0(r23)
 1000f18:	a021883a 	mov	r16,r20
 1000f1c:	a0c00115 	stw	r3,4(r20)
 1000f20:	9885883a 	add	r2,r19,r2
 1000f24:	b8800015 	stw	r2,0(r23)
 1000f28:	e5000215 	stw	r20,8(fp)
 1000f2c:	b7003626 	beq	r22,fp,1001008 <_malloc_r+0x58c>
 1000f30:	018003c4 	movi	r6,15
 1000f34:	35404b36 	bltu	r6,r21,1001064 <_malloc_r+0x5e8>
 1000f38:	00800044 	movi	r2,1
 1000f3c:	a0800115 	stw	r2,4(r20)
 1000f40:	003fcd06 	br	1000e78 <_malloc_r+0x3fc>
 1000f44:	2808d27a 	srli	r4,r5,9
 1000f48:	2000371e 	bne	r4,zero,1001028 <_malloc_r+0x5ac>
 1000f4c:	2808d0fa 	srli	r4,r5,3
 1000f50:	200690fa 	slli	r3,r4,3
 1000f54:	1ad1883a 	add	r8,r3,r11
 1000f58:	41800217 	ldw	r6,8(r8)
 1000f5c:	41805b26 	beq	r8,r6,10010cc <_malloc_r+0x650>
 1000f60:	30800117 	ldw	r2,4(r6)
 1000f64:	00ffff04 	movi	r3,-4
 1000f68:	10c4703a 	and	r2,r2,r3
 1000f6c:	2880022e 	bgeu	r5,r2,1000f78 <_malloc_r+0x4fc>
 1000f70:	31800217 	ldw	r6,8(r6)
 1000f74:	41bffa1e 	bne	r8,r6,1000f60 <_malloc_r+0x4e4>
 1000f78:	32000317 	ldw	r8,12(r6)
 1000f7c:	39c00117 	ldw	r7,4(r7)
 1000f80:	82000315 	stw	r8,12(r16)
 1000f84:	81800215 	stw	r6,8(r16)
 1000f88:	07004074 	movhi	fp,257
 1000f8c:	e7340f04 	addi	fp,fp,-12228
 1000f90:	34000315 	stw	r16,12(r6)
 1000f94:	44000215 	stw	r16,8(r8)
 1000f98:	003f3e06 	br	1000c94 <_malloc_r+0x218>
 1000f9c:	63000044 	addi	r12,r12,1
 1000fa0:	608000cc 	andi	r2,r12,3
 1000fa4:	10005d26 	beq	r2,zero,100111c <_malloc_r+0x6a0>
 1000fa8:	18c00204 	addi	r3,r3,8
 1000fac:	003f5106 	br	1000cf4 <_malloc_r+0x278>
 1000fb0:	8089883a 	add	r4,r16,r2
 1000fb4:	003f6d06 	br	1000d6c <_malloc_r+0x2f0>
 1000fb8:	00805504 	movi	r2,340
 1000fbc:	10c02036 	bltu	r2,r3,1001040 <_malloc_r+0x5c4>
 1000fc0:	8804d3fa 	srli	r2,r17,15
 1000fc4:	11801dc4 	addi	r6,r2,119
 1000fc8:	300490fa 	slli	r2,r6,3
 1000fcc:	003ed806 	br	1000b30 <_malloc_r+0xb4>
 1000fd0:	48c000c4 	addi	r3,r9,3
 1000fd4:	003f3106 	br	1000c9c <_malloc_r+0x220>
 1000fd8:	05c04074 	movhi	r23,257
 1000fdc:	bdc07604 	addi	r23,r23,472
 1000fe0:	b8800017 	ldw	r2,0(r23)
 1000fe4:	988d883a 	add	r6,r19,r2
 1000fe8:	b9800015 	stw	r6,0(r23)
 1000fec:	293fb21e 	bne	r5,r4,1000eb8 <_malloc_r+0x43c>
 1000ff0:	2083ffcc 	andi	r2,r4,4095
 1000ff4:	103fb01e 	bne	r2,zero,1000eb8 <_malloc_r+0x43c>
 1000ff8:	e4000217 	ldw	r16,8(fp)
 1000ffc:	9d45883a 	add	r2,r19,r21
 1001000:	10800054 	ori	r2,r2,1
 1001004:	80800115 	stw	r2,4(r16)
 1001008:	b8c00017 	ldw	r3,0(r23)
 100100c:	d0a6b717 	ldw	r2,-25892(gp)
 1001010:	10c0012e 	bgeu	r2,r3,1001018 <_malloc_r+0x59c>
 1001014:	d0e6b715 	stw	r3,-25892(gp)
 1001018:	d0a6b817 	ldw	r2,-25888(gp)
 100101c:	10ff962e 	bgeu	r2,r3,1000e78 <_malloc_r+0x3fc>
 1001020:	d0e6b815 	stw	r3,-25888(gp)
 1001024:	003f9406 	br	1000e78 <_malloc_r+0x3fc>
 1001028:	00800104 	movi	r2,4
 100102c:	11001e36 	bltu	r2,r4,10010a8 <_malloc_r+0x62c>
 1001030:	2804d1ba 	srli	r2,r5,6
 1001034:	11000e04 	addi	r4,r2,56
 1001038:	200690fa 	slli	r3,r4,3
 100103c:	003fc506 	br	1000f54 <_malloc_r+0x4d8>
 1001040:	00815504 	movi	r2,1364
 1001044:	10c01d2e 	bgeu	r2,r3,10010bc <_malloc_r+0x640>
 1001048:	01801f84 	movi	r6,126
 100104c:	0080fc04 	movi	r2,1008
 1001050:	003eb706 	br	1000b30 <_malloc_r+0xb4>
 1001054:	00800204 	movi	r2,8
 1001058:	10cbc83a 	sub	r5,r2,r3
 100105c:	2169883a 	add	r20,r4,r5
 1001060:	003f9e06 	br	1000edc <_malloc_r+0x460>
 1001064:	00bffe04 	movi	r2,-8
 1001068:	a93ffd04 	addi	r4,r21,-12
 100106c:	2088703a 	and	r4,r4,r2
 1001070:	b10b883a 	add	r5,r22,r4
 1001074:	00c00144 	movi	r3,5
 1001078:	28c00215 	stw	r3,8(r5)
 100107c:	28c00115 	stw	r3,4(r5)
 1001080:	b0800117 	ldw	r2,4(r22)
 1001084:	1080004c 	andi	r2,r2,1
 1001088:	2084b03a 	or	r2,r4,r2
 100108c:	b0800115 	stw	r2,4(r22)
 1001090:	313fdd2e 	bgeu	r6,r4,1001008 <_malloc_r+0x58c>
 1001094:	b1400204 	addi	r5,r22,8
 1001098:	9009883a 	mov	r4,r18
 100109c:	10022100 	call	1002210 <_free_r>
 10010a0:	e4000217 	ldw	r16,8(fp)
 10010a4:	003fd806 	br	1001008 <_malloc_r+0x58c>
 10010a8:	00800504 	movi	r2,20
 10010ac:	11001536 	bltu	r2,r4,1001104 <_malloc_r+0x688>
 10010b0:	210016c4 	addi	r4,r4,91
 10010b4:	200690fa 	slli	r3,r4,3
 10010b8:	003fa606 	br	1000f54 <_malloc_r+0x4d8>
 10010bc:	8804d4ba 	srli	r2,r17,18
 10010c0:	11801f04 	addi	r6,r2,124
 10010c4:	300490fa 	slli	r2,r6,3
 10010c8:	003e9906 	br	1000b30 <_malloc_r+0xb4>
 10010cc:	2009d0ba 	srai	r4,r4,2
 10010d0:	01404074 	movhi	r5,257
 10010d4:	29740f04 	addi	r5,r5,-12228
 10010d8:	00c00044 	movi	r3,1
 10010dc:	28800117 	ldw	r2,4(r5)
 10010e0:	1906983a 	sll	r3,r3,r4
 10010e4:	10c4b03a 	or	r2,r2,r3
 10010e8:	28800115 	stw	r2,4(r5)
 10010ec:	003fa306 	br	1000f7c <_malloc_r+0x500>
 10010f0:	0027883a 	mov	r19,zero
 10010f4:	00c00044 	movi	r3,1
 10010f8:	003f8606 	br	1000f14 <_malloc_r+0x498>
 10010fc:	d1200315 	stw	r4,-32756(gp)
 1001100:	003f7306 	br	1000ed0 <_malloc_r+0x454>
 1001104:	00801504 	movi	r2,84
 1001108:	11001936 	bltu	r2,r4,1001170 <_malloc_r+0x6f4>
 100110c:	2804d33a 	srli	r2,r5,12
 1001110:	11001b84 	addi	r4,r2,110
 1001114:	200690fa 	slli	r3,r4,3
 1001118:	003f8e06 	br	1000f54 <_malloc_r+0x4d8>
 100111c:	480b883a 	mov	r5,r9
 1001120:	6807883a 	mov	r3,r13
 1001124:	288000cc 	andi	r2,r5,3
 1001128:	18fffe04 	addi	r3,r3,-8
 100112c:	297fffc4 	addi	r5,r5,-1
 1001130:	10001526 	beq	r2,zero,1001188 <_malloc_r+0x70c>
 1001134:	18800217 	ldw	r2,8(r3)
 1001138:	10fffa26 	beq	r2,r3,1001124 <_malloc_r+0x6a8>
 100113c:	2109883a 	add	r4,r4,r4
 1001140:	393f1e36 	bltu	r7,r4,1000dbc <_malloc_r+0x340>
 1001144:	203f1d26 	beq	r4,zero,1000dbc <_malloc_r+0x340>
 1001148:	21c4703a 	and	r2,r4,r7
 100114c:	10000226 	beq	r2,zero,1001158 <_malloc_r+0x6dc>
 1001150:	6013883a 	mov	r9,r12
 1001154:	003ee106 	br	1000cdc <_malloc_r+0x260>
 1001158:	2109883a 	add	r4,r4,r4
 100115c:	3904703a 	and	r2,r7,r4
 1001160:	63000104 	addi	r12,r12,4
 1001164:	103ffc26 	beq	r2,zero,1001158 <_malloc_r+0x6dc>
 1001168:	6013883a 	mov	r9,r12
 100116c:	003edb06 	br	1000cdc <_malloc_r+0x260>
 1001170:	00805504 	movi	r2,340
 1001174:	11000836 	bltu	r2,r4,1001198 <_malloc_r+0x71c>
 1001178:	2804d3fa 	srli	r2,r5,15
 100117c:	11001dc4 	addi	r4,r2,119
 1001180:	200690fa 	slli	r3,r4,3
 1001184:	003f7306 	br	1000f54 <_malloc_r+0x4d8>
 1001188:	0104303a 	nor	r2,zero,r4
 100118c:	388e703a 	and	r7,r7,r2
 1001190:	e1c00115 	stw	r7,4(fp)
 1001194:	003fe906 	br	100113c <_malloc_r+0x6c0>
 1001198:	00815504 	movi	r2,1364
 100119c:	1100032e 	bgeu	r2,r4,10011ac <_malloc_r+0x730>
 10011a0:	01001f84 	movi	r4,126
 10011a4:	00c0fc04 	movi	r3,1008
 10011a8:	003f6a06 	br	1000f54 <_malloc_r+0x4d8>
 10011ac:	2804d4ba 	srli	r2,r5,18
 10011b0:	11001f04 	addi	r4,r2,124
 10011b4:	200690fa 	slli	r3,r4,3
 10011b8:	003f6606 	br	1000f54 <_malloc_r+0x4d8>

010011bc <memchr>:
 10011bc:	008000c4 	movi	r2,3
 10011c0:	29403fcc 	andi	r5,r5,255
 10011c4:	2007883a 	mov	r3,r4
 10011c8:	1180022e 	bgeu	r2,r6,10011d4 <memchr+0x18>
 10011cc:	2084703a 	and	r2,r4,r2
 10011d0:	10000b26 	beq	r2,zero,1001200 <memchr+0x44>
 10011d4:	313fffc4 	addi	r4,r6,-1
 10011d8:	3000051e 	bne	r6,zero,10011f0 <memchr+0x34>
 10011dc:	00002c06 	br	1001290 <memchr+0xd4>
 10011e0:	213fffc4 	addi	r4,r4,-1
 10011e4:	00bfffc4 	movi	r2,-1
 10011e8:	18c00044 	addi	r3,r3,1
 10011ec:	20802826 	beq	r4,r2,1001290 <memchr+0xd4>
 10011f0:	18800003 	ldbu	r2,0(r3)
 10011f4:	28bffa1e 	bne	r5,r2,10011e0 <memchr+0x24>
 10011f8:	1805883a 	mov	r2,r3
 10011fc:	f800283a 	ret
 1001200:	0011883a 	mov	r8,zero
 1001204:	0007883a 	mov	r3,zero
 1001208:	01c00104 	movi	r7,4
 100120c:	4004923a 	slli	r2,r8,8
 1001210:	18c00044 	addi	r3,r3,1
 1001214:	1151883a 	add	r8,r2,r5
 1001218:	19fffc1e 	bne	r3,r7,100120c <memchr+0x50>
 100121c:	02bfbff4 	movhi	r10,65279
 1001220:	52bfbfc4 	addi	r10,r10,-257
 1001224:	02602074 	movhi	r9,32897
 1001228:	4a602004 	addi	r9,r9,-32640
 100122c:	02c000c4 	movi	r11,3
 1001230:	20800017 	ldw	r2,0(r4)
 1001234:	31bfff04 	addi	r6,r6,-4
 1001238:	200f883a 	mov	r7,r4
 100123c:	1204f03a 	xor	r2,r2,r8
 1001240:	1287883a 	add	r3,r2,r10
 1001244:	1a46703a 	and	r3,r3,r9
 1001248:	0084303a 	nor	r2,zero,r2
 100124c:	10c4703a 	and	r2,r2,r3
 1001250:	10000b26 	beq	r2,zero,1001280 <memchr+0xc4>
 1001254:	20800003 	ldbu	r2,0(r4)
 1001258:	28800f26 	beq	r5,r2,1001298 <memchr+0xdc>
 100125c:	20800043 	ldbu	r2,1(r4)
 1001260:	21c00044 	addi	r7,r4,1
 1001264:	28800c26 	beq	r5,r2,1001298 <memchr+0xdc>
 1001268:	20800083 	ldbu	r2,2(r4)
 100126c:	21c00084 	addi	r7,r4,2
 1001270:	28800926 	beq	r5,r2,1001298 <memchr+0xdc>
 1001274:	208000c3 	ldbu	r2,3(r4)
 1001278:	21c000c4 	addi	r7,r4,3
 100127c:	28800626 	beq	r5,r2,1001298 <memchr+0xdc>
 1001280:	21000104 	addi	r4,r4,4
 1001284:	59bfea36 	bltu	r11,r6,1001230 <memchr+0x74>
 1001288:	2007883a 	mov	r3,r4
 100128c:	003fd106 	br	10011d4 <memchr+0x18>
 1001290:	0005883a 	mov	r2,zero
 1001294:	f800283a 	ret
 1001298:	3805883a 	mov	r2,r7
 100129c:	f800283a 	ret

010012a0 <memcpy>:
 10012a0:	01c003c4 	movi	r7,15
 10012a4:	2007883a 	mov	r3,r4
 10012a8:	3980032e 	bgeu	r7,r6,10012b8 <memcpy+0x18>
 10012ac:	2904b03a 	or	r2,r5,r4
 10012b0:	108000cc 	andi	r2,r2,3
 10012b4:	10000926 	beq	r2,zero,10012dc <memcpy+0x3c>
 10012b8:	30000626 	beq	r6,zero,10012d4 <memcpy+0x34>
 10012bc:	30cd883a 	add	r6,r6,r3
 10012c0:	28800003 	ldbu	r2,0(r5)
 10012c4:	29400044 	addi	r5,r5,1
 10012c8:	18800005 	stb	r2,0(r3)
 10012cc:	18c00044 	addi	r3,r3,1
 10012d0:	30fffb1e 	bne	r6,r3,10012c0 <memcpy+0x20>
 10012d4:	2005883a 	mov	r2,r4
 10012d8:	f800283a 	ret
 10012dc:	3811883a 	mov	r8,r7
 10012e0:	200f883a 	mov	r7,r4
 10012e4:	28c00017 	ldw	r3,0(r5)
 10012e8:	31bffc04 	addi	r6,r6,-16
 10012ec:	38c00015 	stw	r3,0(r7)
 10012f0:	28800117 	ldw	r2,4(r5)
 10012f4:	38800115 	stw	r2,4(r7)
 10012f8:	28c00217 	ldw	r3,8(r5)
 10012fc:	38c00215 	stw	r3,8(r7)
 1001300:	28800317 	ldw	r2,12(r5)
 1001304:	29400404 	addi	r5,r5,16
 1001308:	38800315 	stw	r2,12(r7)
 100130c:	39c00404 	addi	r7,r7,16
 1001310:	41bff436 	bltu	r8,r6,10012e4 <memcpy+0x44>
 1001314:	008000c4 	movi	r2,3
 1001318:	1180072e 	bgeu	r2,r6,1001338 <memcpy+0x98>
 100131c:	1007883a 	mov	r3,r2
 1001320:	28800017 	ldw	r2,0(r5)
 1001324:	31bfff04 	addi	r6,r6,-4
 1001328:	29400104 	addi	r5,r5,4
 100132c:	38800015 	stw	r2,0(r7)
 1001330:	39c00104 	addi	r7,r7,4
 1001334:	19bffa36 	bltu	r3,r6,1001320 <memcpy+0x80>
 1001338:	3807883a 	mov	r3,r7
 100133c:	003fde06 	br	10012b8 <memcpy+0x18>

01001340 <memmove>:
 1001340:	2807883a 	mov	r3,r5
 1001344:	2011883a 	mov	r8,r4
 1001348:	29000c2e 	bgeu	r5,r4,100137c <memmove+0x3c>
 100134c:	298f883a 	add	r7,r5,r6
 1001350:	21c00a2e 	bgeu	r4,r7,100137c <memmove+0x3c>
 1001354:	30000726 	beq	r6,zero,1001374 <memmove+0x34>
 1001358:	2187883a 	add	r3,r4,r6
 100135c:	198dc83a 	sub	r6,r3,r6
 1001360:	39ffffc4 	addi	r7,r7,-1
 1001364:	38800003 	ldbu	r2,0(r7)
 1001368:	18ffffc4 	addi	r3,r3,-1
 100136c:	18800005 	stb	r2,0(r3)
 1001370:	19bffb1e 	bne	r3,r6,1001360 <memmove+0x20>
 1001374:	2005883a 	mov	r2,r4
 1001378:	f800283a 	ret
 100137c:	01c003c4 	movi	r7,15
 1001380:	39800a36 	bltu	r7,r6,10013ac <memmove+0x6c>
 1001384:	303ffb26 	beq	r6,zero,1001374 <memmove+0x34>
 1001388:	400f883a 	mov	r7,r8
 100138c:	320d883a 	add	r6,r6,r8
 1001390:	28800003 	ldbu	r2,0(r5)
 1001394:	29400044 	addi	r5,r5,1
 1001398:	38800005 	stb	r2,0(r7)
 100139c:	39c00044 	addi	r7,r7,1
 10013a0:	39bffb1e 	bne	r7,r6,1001390 <memmove+0x50>
 10013a4:	2005883a 	mov	r2,r4
 10013a8:	f800283a 	ret
 10013ac:	1904b03a 	or	r2,r3,r4
 10013b0:	108000cc 	andi	r2,r2,3
 10013b4:	103ff31e 	bne	r2,zero,1001384 <memmove+0x44>
 10013b8:	3811883a 	mov	r8,r7
 10013bc:	180b883a 	mov	r5,r3
 10013c0:	200f883a 	mov	r7,r4
 10013c4:	28c00017 	ldw	r3,0(r5)
 10013c8:	31bffc04 	addi	r6,r6,-16
 10013cc:	38c00015 	stw	r3,0(r7)
 10013d0:	28800117 	ldw	r2,4(r5)
 10013d4:	38800115 	stw	r2,4(r7)
 10013d8:	28c00217 	ldw	r3,8(r5)
 10013dc:	38c00215 	stw	r3,8(r7)
 10013e0:	28800317 	ldw	r2,12(r5)
 10013e4:	29400404 	addi	r5,r5,16
 10013e8:	38800315 	stw	r2,12(r7)
 10013ec:	39c00404 	addi	r7,r7,16
 10013f0:	41bff436 	bltu	r8,r6,10013c4 <memmove+0x84>
 10013f4:	008000c4 	movi	r2,3
 10013f8:	1180072e 	bgeu	r2,r6,1001418 <memmove+0xd8>
 10013fc:	1007883a 	mov	r3,r2
 1001400:	28800017 	ldw	r2,0(r5)
 1001404:	31bfff04 	addi	r6,r6,-4
 1001408:	29400104 	addi	r5,r5,4
 100140c:	38800015 	stw	r2,0(r7)
 1001410:	39c00104 	addi	r7,r7,4
 1001414:	19bffa36 	bltu	r3,r6,1001400 <memmove+0xc0>
 1001418:	3811883a 	mov	r8,r7
 100141c:	003fd906 	br	1001384 <memmove+0x44>

01001420 <_realloc_r>:
 1001420:	defff404 	addi	sp,sp,-48
 1001424:	dd800815 	stw	r22,32(sp)
 1001428:	dc800415 	stw	r18,16(sp)
 100142c:	dc400315 	stw	r17,12(sp)
 1001430:	dfc00b15 	stw	ra,44(sp)
 1001434:	df000a15 	stw	fp,40(sp)
 1001438:	ddc00915 	stw	r23,36(sp)
 100143c:	dd400715 	stw	r21,28(sp)
 1001440:	dd000615 	stw	r20,24(sp)
 1001444:	dcc00515 	stw	r19,20(sp)
 1001448:	dc000215 	stw	r16,8(sp)
 100144c:	2825883a 	mov	r18,r5
 1001450:	3023883a 	mov	r17,r6
 1001454:	202d883a 	mov	r22,r4
 1001458:	2800c926 	beq	r5,zero,1001780 <_realloc_r+0x360>
 100145c:	10034c80 	call	10034c8 <__malloc_lock>
 1001460:	943ffe04 	addi	r16,r18,-8
 1001464:	88c002c4 	addi	r3,r17,11
 1001468:	00800584 	movi	r2,22
 100146c:	82000117 	ldw	r8,4(r16)
 1001470:	10c01b2e 	bgeu	r2,r3,10014e0 <_realloc_r+0xc0>
 1001474:	00bffe04 	movi	r2,-8
 1001478:	188e703a 	and	r7,r3,r2
 100147c:	3839883a 	mov	fp,r7
 1001480:	38001a16 	blt	r7,zero,10014ec <_realloc_r+0xcc>
 1001484:	e4401936 	bltu	fp,r17,10014ec <_realloc_r+0xcc>
 1001488:	013fff04 	movi	r4,-4
 100148c:	4126703a 	and	r19,r8,r4
 1001490:	99c02616 	blt	r19,r7,100152c <_realloc_r+0x10c>
 1001494:	802b883a 	mov	r21,r16
 1001498:	9829883a 	mov	r20,r19
 100149c:	84000204 	addi	r16,r16,8
 10014a0:	a80f883a 	mov	r7,r21
 10014a4:	a70dc83a 	sub	r6,r20,fp
 10014a8:	008003c4 	movi	r2,15
 10014ac:	1180c136 	bltu	r2,r6,10017b4 <_realloc_r+0x394>
 10014b0:	38800117 	ldw	r2,4(r7)
 10014b4:	a549883a 	add	r4,r20,r21
 10014b8:	1080004c 	andi	r2,r2,1
 10014bc:	a084b03a 	or	r2,r20,r2
 10014c0:	38800115 	stw	r2,4(r7)
 10014c4:	20c00117 	ldw	r3,4(r4)
 10014c8:	18c00054 	ori	r3,r3,1
 10014cc:	20c00115 	stw	r3,4(r4)
 10014d0:	b009883a 	mov	r4,r22
 10014d4:	10034e80 	call	10034e8 <__malloc_unlock>
 10014d8:	8023883a 	mov	r17,r16
 10014dc:	00000606 	br	10014f8 <_realloc_r+0xd8>
 10014e0:	01c00404 	movi	r7,16
 10014e4:	3839883a 	mov	fp,r7
 10014e8:	e47fe72e 	bgeu	fp,r17,1001488 <_realloc_r+0x68>
 10014ec:	00800304 	movi	r2,12
 10014f0:	0023883a 	mov	r17,zero
 10014f4:	b0800015 	stw	r2,0(r22)
 10014f8:	8805883a 	mov	r2,r17
 10014fc:	dfc00b17 	ldw	ra,44(sp)
 1001500:	df000a17 	ldw	fp,40(sp)
 1001504:	ddc00917 	ldw	r23,36(sp)
 1001508:	dd800817 	ldw	r22,32(sp)
 100150c:	dd400717 	ldw	r21,28(sp)
 1001510:	dd000617 	ldw	r20,24(sp)
 1001514:	dcc00517 	ldw	r19,20(sp)
 1001518:	dc800417 	ldw	r18,16(sp)
 100151c:	dc400317 	ldw	r17,12(sp)
 1001520:	dc000217 	ldw	r16,8(sp)
 1001524:	dec00c04 	addi	sp,sp,48
 1001528:	f800283a 	ret
 100152c:	00804074 	movhi	r2,257
 1001530:	10b40f04 	addi	r2,r2,-12228
 1001534:	12400217 	ldw	r9,8(r2)
 1001538:	84cd883a 	add	r6,r16,r19
 100153c:	802b883a 	mov	r21,r16
 1001540:	3240b926 	beq	r6,r9,1001828 <_realloc_r+0x408>
 1001544:	31400117 	ldw	r5,4(r6)
 1001548:	00bfff84 	movi	r2,-2
 100154c:	2884703a 	and	r2,r5,r2
 1001550:	1185883a 	add	r2,r2,r6
 1001554:	10c00117 	ldw	r3,4(r2)
 1001558:	18c0004c 	andi	r3,r3,1
 100155c:	1807003a 	cmpeq	r3,r3,zero
 1001560:	1800a326 	beq	r3,zero,10017f0 <_realloc_r+0x3d0>
 1001564:	2908703a 	and	r4,r5,r4
 1001568:	9929883a 	add	r20,r19,r4
 100156c:	a1c0a30e 	bge	r20,r7,10017fc <_realloc_r+0x3dc>
 1001570:	4080004c 	andi	r2,r8,1
 1001574:	1000551e 	bne	r2,zero,10016cc <_realloc_r+0x2ac>
 1001578:	80800017 	ldw	r2,0(r16)
 100157c:	80afc83a 	sub	r23,r16,r2
 1001580:	b8c00117 	ldw	r3,4(r23)
 1001584:	00bfff04 	movi	r2,-4
 1001588:	1884703a 	and	r2,r3,r2
 100158c:	30002e26 	beq	r6,zero,1001648 <_realloc_r+0x228>
 1001590:	3240b926 	beq	r6,r9,1001878 <_realloc_r+0x458>
 1001594:	98a9883a 	add	r20,r19,r2
 1001598:	2509883a 	add	r4,r4,r20
 100159c:	d9000015 	stw	r4,0(sp)
 10015a0:	21c02a16 	blt	r4,r7,100164c <_realloc_r+0x22c>
 10015a4:	30800317 	ldw	r2,12(r6)
 10015a8:	30c00217 	ldw	r3,8(r6)
 10015ac:	01400904 	movi	r5,36
 10015b0:	99bfff04 	addi	r6,r19,-4
 10015b4:	18800315 	stw	r2,12(r3)
 10015b8:	10c00215 	stw	r3,8(r2)
 10015bc:	b9000317 	ldw	r4,12(r23)
 10015c0:	b8800217 	ldw	r2,8(r23)
 10015c4:	b82b883a 	mov	r21,r23
 10015c8:	bc000204 	addi	r16,r23,8
 10015cc:	20800215 	stw	r2,8(r4)
 10015d0:	11000315 	stw	r4,12(r2)
 10015d4:	2980e436 	bltu	r5,r6,1001968 <_realloc_r+0x548>
 10015d8:	008004c4 	movi	r2,19
 10015dc:	9009883a 	mov	r4,r18
 10015e0:	8011883a 	mov	r8,r16
 10015e4:	11800f2e 	bgeu	r2,r6,1001624 <_realloc_r+0x204>
 10015e8:	90800017 	ldw	r2,0(r18)
 10015ec:	ba000404 	addi	r8,r23,16
 10015f0:	91000204 	addi	r4,r18,8
 10015f4:	b8800215 	stw	r2,8(r23)
 10015f8:	90c00117 	ldw	r3,4(r18)
 10015fc:	008006c4 	movi	r2,27
 1001600:	b8c00315 	stw	r3,12(r23)
 1001604:	1180072e 	bgeu	r2,r6,1001624 <_realloc_r+0x204>
 1001608:	90c00217 	ldw	r3,8(r18)
 100160c:	ba000604 	addi	r8,r23,24
 1001610:	91000404 	addi	r4,r18,16
 1001614:	b8c00415 	stw	r3,16(r23)
 1001618:	90800317 	ldw	r2,12(r18)
 100161c:	b8800515 	stw	r2,20(r23)
 1001620:	3140e726 	beq	r6,r5,10019c0 <_realloc_r+0x5a0>
 1001624:	20800017 	ldw	r2,0(r4)
 1001628:	dd000017 	ldw	r20,0(sp)
 100162c:	b80f883a 	mov	r7,r23
 1001630:	40800015 	stw	r2,0(r8)
 1001634:	20c00117 	ldw	r3,4(r4)
 1001638:	40c00115 	stw	r3,4(r8)
 100163c:	20800217 	ldw	r2,8(r4)
 1001640:	40800215 	stw	r2,8(r8)
 1001644:	003f9706 	br	10014a4 <_realloc_r+0x84>
 1001648:	98a9883a 	add	r20,r19,r2
 100164c:	a1c01f16 	blt	r20,r7,10016cc <_realloc_r+0x2ac>
 1001650:	b8c00317 	ldw	r3,12(r23)
 1001654:	b8800217 	ldw	r2,8(r23)
 1001658:	99bfff04 	addi	r6,r19,-4
 100165c:	01400904 	movi	r5,36
 1001660:	b82b883a 	mov	r21,r23
 1001664:	18800215 	stw	r2,8(r3)
 1001668:	10c00315 	stw	r3,12(r2)
 100166c:	bc000204 	addi	r16,r23,8
 1001670:	2980c336 	bltu	r5,r6,1001980 <_realloc_r+0x560>
 1001674:	008004c4 	movi	r2,19
 1001678:	9009883a 	mov	r4,r18
 100167c:	8011883a 	mov	r8,r16
 1001680:	11800f2e 	bgeu	r2,r6,10016c0 <_realloc_r+0x2a0>
 1001684:	90800017 	ldw	r2,0(r18)
 1001688:	ba000404 	addi	r8,r23,16
 100168c:	91000204 	addi	r4,r18,8
 1001690:	b8800215 	stw	r2,8(r23)
 1001694:	90c00117 	ldw	r3,4(r18)
 1001698:	008006c4 	movi	r2,27
 100169c:	b8c00315 	stw	r3,12(r23)
 10016a0:	1180072e 	bgeu	r2,r6,10016c0 <_realloc_r+0x2a0>
 10016a4:	90c00217 	ldw	r3,8(r18)
 10016a8:	ba000604 	addi	r8,r23,24
 10016ac:	91000404 	addi	r4,r18,16
 10016b0:	b8c00415 	stw	r3,16(r23)
 10016b4:	90800317 	ldw	r2,12(r18)
 10016b8:	b8800515 	stw	r2,20(r23)
 10016bc:	3140c726 	beq	r6,r5,10019dc <_realloc_r+0x5bc>
 10016c0:	20800017 	ldw	r2,0(r4)
 10016c4:	b80f883a 	mov	r7,r23
 10016c8:	003fd906 	br	1001630 <_realloc_r+0x210>
 10016cc:	880b883a 	mov	r5,r17
 10016d0:	b009883a 	mov	r4,r22
 10016d4:	1000a7c0 	call	1000a7c <_malloc_r>
 10016d8:	1023883a 	mov	r17,r2
 10016dc:	10002526 	beq	r2,zero,1001774 <_realloc_r+0x354>
 10016e0:	80800117 	ldw	r2,4(r16)
 10016e4:	00ffff84 	movi	r3,-2
 10016e8:	893ffe04 	addi	r4,r17,-8
 10016ec:	10c4703a 	and	r2,r2,r3
 10016f0:	8085883a 	add	r2,r16,r2
 10016f4:	20809526 	beq	r4,r2,100194c <_realloc_r+0x52c>
 10016f8:	99bfff04 	addi	r6,r19,-4
 10016fc:	01c00904 	movi	r7,36
 1001700:	39804536 	bltu	r7,r6,1001818 <_realloc_r+0x3f8>
 1001704:	008004c4 	movi	r2,19
 1001708:	9009883a 	mov	r4,r18
 100170c:	880b883a 	mov	r5,r17
 1001710:	11800f2e 	bgeu	r2,r6,1001750 <_realloc_r+0x330>
 1001714:	90800017 	ldw	r2,0(r18)
 1001718:	89400204 	addi	r5,r17,8
 100171c:	91000204 	addi	r4,r18,8
 1001720:	88800015 	stw	r2,0(r17)
 1001724:	90c00117 	ldw	r3,4(r18)
 1001728:	008006c4 	movi	r2,27
 100172c:	88c00115 	stw	r3,4(r17)
 1001730:	1180072e 	bgeu	r2,r6,1001750 <_realloc_r+0x330>
 1001734:	90c00217 	ldw	r3,8(r18)
 1001738:	89400404 	addi	r5,r17,16
 100173c:	91000404 	addi	r4,r18,16
 1001740:	88c00215 	stw	r3,8(r17)
 1001744:	90800317 	ldw	r2,12(r18)
 1001748:	88800315 	stw	r2,12(r17)
 100174c:	31c09126 	beq	r6,r7,1001994 <_realloc_r+0x574>
 1001750:	20800017 	ldw	r2,0(r4)
 1001754:	28800015 	stw	r2,0(r5)
 1001758:	20c00117 	ldw	r3,4(r4)
 100175c:	28c00115 	stw	r3,4(r5)
 1001760:	20800217 	ldw	r2,8(r4)
 1001764:	28800215 	stw	r2,8(r5)
 1001768:	900b883a 	mov	r5,r18
 100176c:	b009883a 	mov	r4,r22
 1001770:	10022100 	call	1002210 <_free_r>
 1001774:	b009883a 	mov	r4,r22
 1001778:	10034e80 	call	10034e8 <__malloc_unlock>
 100177c:	003f5e06 	br	10014f8 <_realloc_r+0xd8>
 1001780:	300b883a 	mov	r5,r6
 1001784:	dfc00b17 	ldw	ra,44(sp)
 1001788:	df000a17 	ldw	fp,40(sp)
 100178c:	ddc00917 	ldw	r23,36(sp)
 1001790:	dd800817 	ldw	r22,32(sp)
 1001794:	dd400717 	ldw	r21,28(sp)
 1001798:	dd000617 	ldw	r20,24(sp)
 100179c:	dcc00517 	ldw	r19,20(sp)
 10017a0:	dc800417 	ldw	r18,16(sp)
 10017a4:	dc400317 	ldw	r17,12(sp)
 10017a8:	dc000217 	ldw	r16,8(sp)
 10017ac:	dec00c04 	addi	sp,sp,48
 10017b0:	1000a7c1 	jmpi	1000a7c <_malloc_r>
 10017b4:	38800117 	ldw	r2,4(r7)
 10017b8:	e54b883a 	add	r5,fp,r21
 10017bc:	31000054 	ori	r4,r6,1
 10017c0:	1080004c 	andi	r2,r2,1
 10017c4:	1704b03a 	or	r2,r2,fp
 10017c8:	38800115 	stw	r2,4(r7)
 10017cc:	29000115 	stw	r4,4(r5)
 10017d0:	2987883a 	add	r3,r5,r6
 10017d4:	18800117 	ldw	r2,4(r3)
 10017d8:	29400204 	addi	r5,r5,8
 10017dc:	b009883a 	mov	r4,r22
 10017e0:	10800054 	ori	r2,r2,1
 10017e4:	18800115 	stw	r2,4(r3)
 10017e8:	10022100 	call	1002210 <_free_r>
 10017ec:	003f3806 	br	10014d0 <_realloc_r+0xb0>
 10017f0:	000d883a 	mov	r6,zero
 10017f4:	0009883a 	mov	r4,zero
 10017f8:	003f5d06 	br	1001570 <_realloc_r+0x150>
 10017fc:	30c00217 	ldw	r3,8(r6)
 1001800:	30800317 	ldw	r2,12(r6)
 1001804:	800f883a 	mov	r7,r16
 1001808:	84000204 	addi	r16,r16,8
 100180c:	10c00215 	stw	r3,8(r2)
 1001810:	18800315 	stw	r2,12(r3)
 1001814:	003f2306 	br	10014a4 <_realloc_r+0x84>
 1001818:	8809883a 	mov	r4,r17
 100181c:	900b883a 	mov	r5,r18
 1001820:	10013400 	call	1001340 <memmove>
 1001824:	003fd006 	br	1001768 <_realloc_r+0x348>
 1001828:	30800117 	ldw	r2,4(r6)
 100182c:	e0c00404 	addi	r3,fp,16
 1001830:	1108703a 	and	r4,r2,r4
 1001834:	9905883a 	add	r2,r19,r4
 1001838:	10ff4d16 	blt	r2,r3,1001570 <_realloc_r+0x150>
 100183c:	1705c83a 	sub	r2,r2,fp
 1001840:	870b883a 	add	r5,r16,fp
 1001844:	10800054 	ori	r2,r2,1
 1001848:	28800115 	stw	r2,4(r5)
 100184c:	80c00117 	ldw	r3,4(r16)
 1001850:	00804074 	movhi	r2,257
 1001854:	10b40f04 	addi	r2,r2,-12228
 1001858:	b009883a 	mov	r4,r22
 100185c:	18c0004c 	andi	r3,r3,1
 1001860:	e0c6b03a 	or	r3,fp,r3
 1001864:	11400215 	stw	r5,8(r2)
 1001868:	80c00115 	stw	r3,4(r16)
 100186c:	10034e80 	call	10034e8 <__malloc_unlock>
 1001870:	84400204 	addi	r17,r16,8
 1001874:	003f2006 	br	10014f8 <_realloc_r+0xd8>
 1001878:	98a9883a 	add	r20,r19,r2
 100187c:	2509883a 	add	r4,r4,r20
 1001880:	e0800404 	addi	r2,fp,16
 1001884:	d9000115 	stw	r4,4(sp)
 1001888:	20bf7016 	blt	r4,r2,100164c <_realloc_r+0x22c>
 100188c:	b8c00317 	ldw	r3,12(r23)
 1001890:	b8800217 	ldw	r2,8(r23)
 1001894:	99bfff04 	addi	r6,r19,-4
 1001898:	01400904 	movi	r5,36
 100189c:	18800215 	stw	r2,8(r3)
 10018a0:	10c00315 	stw	r3,12(r2)
 10018a4:	bc400204 	addi	r17,r23,8
 10018a8:	29804136 	bltu	r5,r6,10019b0 <_realloc_r+0x590>
 10018ac:	008004c4 	movi	r2,19
 10018b0:	9009883a 	mov	r4,r18
 10018b4:	880f883a 	mov	r7,r17
 10018b8:	11800f2e 	bgeu	r2,r6,10018f8 <_realloc_r+0x4d8>
 10018bc:	90800017 	ldw	r2,0(r18)
 10018c0:	b9c00404 	addi	r7,r23,16
 10018c4:	91000204 	addi	r4,r18,8
 10018c8:	b8800215 	stw	r2,8(r23)
 10018cc:	90c00117 	ldw	r3,4(r18)
 10018d0:	008006c4 	movi	r2,27
 10018d4:	b8c00315 	stw	r3,12(r23)
 10018d8:	1180072e 	bgeu	r2,r6,10018f8 <_realloc_r+0x4d8>
 10018dc:	90c00217 	ldw	r3,8(r18)
 10018e0:	b9c00604 	addi	r7,r23,24
 10018e4:	91000404 	addi	r4,r18,16
 10018e8:	b8c00415 	stw	r3,16(r23)
 10018ec:	90800317 	ldw	r2,12(r18)
 10018f0:	b8800515 	stw	r2,20(r23)
 10018f4:	31404026 	beq	r6,r5,10019f8 <_realloc_r+0x5d8>
 10018f8:	20800017 	ldw	r2,0(r4)
 10018fc:	38800015 	stw	r2,0(r7)
 1001900:	20c00117 	ldw	r3,4(r4)
 1001904:	38c00115 	stw	r3,4(r7)
 1001908:	20800217 	ldw	r2,8(r4)
 100190c:	38800215 	stw	r2,8(r7)
 1001910:	d8c00117 	ldw	r3,4(sp)
 1001914:	bf0b883a 	add	r5,r23,fp
 1001918:	b009883a 	mov	r4,r22
 100191c:	1f05c83a 	sub	r2,r3,fp
 1001920:	10800054 	ori	r2,r2,1
 1001924:	28800115 	stw	r2,4(r5)
 1001928:	b8c00117 	ldw	r3,4(r23)
 100192c:	00804074 	movhi	r2,257
 1001930:	10b40f04 	addi	r2,r2,-12228
 1001934:	11400215 	stw	r5,8(r2)
 1001938:	18c0004c 	andi	r3,r3,1
 100193c:	e0c6b03a 	or	r3,fp,r3
 1001940:	b8c00115 	stw	r3,4(r23)
 1001944:	10034e80 	call	10034e8 <__malloc_unlock>
 1001948:	003eeb06 	br	10014f8 <_realloc_r+0xd8>
 100194c:	20800117 	ldw	r2,4(r4)
 1001950:	00ffff04 	movi	r3,-4
 1001954:	800f883a 	mov	r7,r16
 1001958:	10c4703a 	and	r2,r2,r3
 100195c:	98a9883a 	add	r20,r19,r2
 1001960:	84000204 	addi	r16,r16,8
 1001964:	003ecf06 	br	10014a4 <_realloc_r+0x84>
 1001968:	900b883a 	mov	r5,r18
 100196c:	8009883a 	mov	r4,r16
 1001970:	10013400 	call	1001340 <memmove>
 1001974:	dd000017 	ldw	r20,0(sp)
 1001978:	b80f883a 	mov	r7,r23
 100197c:	003ec906 	br	10014a4 <_realloc_r+0x84>
 1001980:	900b883a 	mov	r5,r18
 1001984:	8009883a 	mov	r4,r16
 1001988:	10013400 	call	1001340 <memmove>
 100198c:	b80f883a 	mov	r7,r23
 1001990:	003ec406 	br	10014a4 <_realloc_r+0x84>
 1001994:	90c00417 	ldw	r3,16(r18)
 1001998:	89400604 	addi	r5,r17,24
 100199c:	91000604 	addi	r4,r18,24
 10019a0:	88c00415 	stw	r3,16(r17)
 10019a4:	90800517 	ldw	r2,20(r18)
 10019a8:	88800515 	stw	r2,20(r17)
 10019ac:	003f6806 	br	1001750 <_realloc_r+0x330>
 10019b0:	900b883a 	mov	r5,r18
 10019b4:	8809883a 	mov	r4,r17
 10019b8:	10013400 	call	1001340 <memmove>
 10019bc:	003fd406 	br	1001910 <_realloc_r+0x4f0>
 10019c0:	90c00417 	ldw	r3,16(r18)
 10019c4:	91000604 	addi	r4,r18,24
 10019c8:	ba000804 	addi	r8,r23,32
 10019cc:	b8c00615 	stw	r3,24(r23)
 10019d0:	90800517 	ldw	r2,20(r18)
 10019d4:	b8800715 	stw	r2,28(r23)
 10019d8:	003f1206 	br	1001624 <_realloc_r+0x204>
 10019dc:	90c00417 	ldw	r3,16(r18)
 10019e0:	91000604 	addi	r4,r18,24
 10019e4:	ba000804 	addi	r8,r23,32
 10019e8:	b8c00615 	stw	r3,24(r23)
 10019ec:	90800517 	ldw	r2,20(r18)
 10019f0:	b8800715 	stw	r2,28(r23)
 10019f4:	003f3206 	br	10016c0 <_realloc_r+0x2a0>
 10019f8:	90c00417 	ldw	r3,16(r18)
 10019fc:	91000604 	addi	r4,r18,24
 1001a00:	b9c00804 	addi	r7,r23,32
 1001a04:	b8c00615 	stw	r3,24(r23)
 1001a08:	90800517 	ldw	r2,20(r18)
 1001a0c:	b8800715 	stw	r2,28(r23)
 1001a10:	003fb906 	br	10018f8 <_realloc_r+0x4d8>

01001a14 <_sbrk_r>:
 1001a14:	defffd04 	addi	sp,sp,-12
 1001a18:	dc000015 	stw	r16,0(sp)
 1001a1c:	04004074 	movhi	r16,257
 1001a20:	84006204 	addi	r16,r16,392
 1001a24:	dc400115 	stw	r17,4(sp)
 1001a28:	80000015 	stw	zero,0(r16)
 1001a2c:	2023883a 	mov	r17,r4
 1001a30:	2809883a 	mov	r4,r5
 1001a34:	dfc00215 	stw	ra,8(sp)
 1001a38:	10037040 	call	1003704 <sbrk>
 1001a3c:	1007883a 	mov	r3,r2
 1001a40:	00bfffc4 	movi	r2,-1
 1001a44:	18800626 	beq	r3,r2,1001a60 <_sbrk_r+0x4c>
 1001a48:	1805883a 	mov	r2,r3
 1001a4c:	dfc00217 	ldw	ra,8(sp)
 1001a50:	dc400117 	ldw	r17,4(sp)
 1001a54:	dc000017 	ldw	r16,0(sp)
 1001a58:	dec00304 	addi	sp,sp,12
 1001a5c:	f800283a 	ret
 1001a60:	80800017 	ldw	r2,0(r16)
 1001a64:	103ff826 	beq	r2,zero,1001a48 <_sbrk_r+0x34>
 1001a68:	88800015 	stw	r2,0(r17)
 1001a6c:	1805883a 	mov	r2,r3
 1001a70:	dfc00217 	ldw	ra,8(sp)
 1001a74:	dc400117 	ldw	r17,4(sp)
 1001a78:	dc000017 	ldw	r16,0(sp)
 1001a7c:	dec00304 	addi	sp,sp,12
 1001a80:	f800283a 	ret

01001a84 <__swsetup_r>:
 1001a84:	00804074 	movhi	r2,257
 1001a88:	10b9a904 	addi	r2,r2,-6492
 1001a8c:	10c00017 	ldw	r3,0(r2)
 1001a90:	defffd04 	addi	sp,sp,-12
 1001a94:	dc400115 	stw	r17,4(sp)
 1001a98:	dc000015 	stw	r16,0(sp)
 1001a9c:	dfc00215 	stw	ra,8(sp)
 1001aa0:	2023883a 	mov	r17,r4
 1001aa4:	2821883a 	mov	r16,r5
 1001aa8:	18000226 	beq	r3,zero,1001ab4 <__swsetup_r+0x30>
 1001aac:	18800e17 	ldw	r2,56(r3)
 1001ab0:	10001f26 	beq	r2,zero,1001b30 <__swsetup_r+0xac>
 1001ab4:	8100030b 	ldhu	r4,12(r16)
 1001ab8:	2080020c 	andi	r2,r4,8
 1001abc:	10002826 	beq	r2,zero,1001b60 <__swsetup_r+0xdc>
 1001ac0:	81400417 	ldw	r5,16(r16)
 1001ac4:	28001d26 	beq	r5,zero,1001b3c <__swsetup_r+0xb8>
 1001ac8:	2080004c 	andi	r2,r4,1
 1001acc:	1005003a 	cmpeq	r2,r2,zero
 1001ad0:	10000b26 	beq	r2,zero,1001b00 <__swsetup_r+0x7c>
 1001ad4:	2080008c 	andi	r2,r4,2
 1001ad8:	10001226 	beq	r2,zero,1001b24 <__swsetup_r+0xa0>
 1001adc:	0005883a 	mov	r2,zero
 1001ae0:	80800215 	stw	r2,8(r16)
 1001ae4:	28000b26 	beq	r5,zero,1001b14 <__swsetup_r+0x90>
 1001ae8:	0005883a 	mov	r2,zero
 1001aec:	dfc00217 	ldw	ra,8(sp)
 1001af0:	dc400117 	ldw	r17,4(sp)
 1001af4:	dc000017 	ldw	r16,0(sp)
 1001af8:	dec00304 	addi	sp,sp,12
 1001afc:	f800283a 	ret
 1001b00:	80800517 	ldw	r2,20(r16)
 1001b04:	80000215 	stw	zero,8(r16)
 1001b08:	0085c83a 	sub	r2,zero,r2
 1001b0c:	80800615 	stw	r2,24(r16)
 1001b10:	283ff51e 	bne	r5,zero,1001ae8 <__swsetup_r+0x64>
 1001b14:	2080200c 	andi	r2,r4,128
 1001b18:	103ff326 	beq	r2,zero,1001ae8 <__swsetup_r+0x64>
 1001b1c:	00bfffc4 	movi	r2,-1
 1001b20:	003ff206 	br	1001aec <__swsetup_r+0x68>
 1001b24:	80800517 	ldw	r2,20(r16)
 1001b28:	80800215 	stw	r2,8(r16)
 1001b2c:	003fed06 	br	1001ae4 <__swsetup_r+0x60>
 1001b30:	1809883a 	mov	r4,r3
 1001b34:	1001e580 	call	1001e58 <__sinit>
 1001b38:	003fde06 	br	1001ab4 <__swsetup_r+0x30>
 1001b3c:	20c0a00c 	andi	r3,r4,640
 1001b40:	00808004 	movi	r2,512
 1001b44:	18bfe026 	beq	r3,r2,1001ac8 <__swsetup_r+0x44>
 1001b48:	8809883a 	mov	r4,r17
 1001b4c:	800b883a 	mov	r5,r16
 1001b50:	10026a40 	call	10026a4 <__smakebuf_r>
 1001b54:	8100030b 	ldhu	r4,12(r16)
 1001b58:	81400417 	ldw	r5,16(r16)
 1001b5c:	003fda06 	br	1001ac8 <__swsetup_r+0x44>
 1001b60:	2080040c 	andi	r2,r4,16
 1001b64:	103fed26 	beq	r2,zero,1001b1c <__swsetup_r+0x98>
 1001b68:	2080010c 	andi	r2,r4,4
 1001b6c:	10001226 	beq	r2,zero,1001bb8 <__swsetup_r+0x134>
 1001b70:	81400c17 	ldw	r5,48(r16)
 1001b74:	28000526 	beq	r5,zero,1001b8c <__swsetup_r+0x108>
 1001b78:	80801004 	addi	r2,r16,64
 1001b7c:	28800226 	beq	r5,r2,1001b88 <__swsetup_r+0x104>
 1001b80:	8809883a 	mov	r4,r17
 1001b84:	10022100 	call	1002210 <_free_r>
 1001b88:	80000c15 	stw	zero,48(r16)
 1001b8c:	8080030b 	ldhu	r2,12(r16)
 1001b90:	81400417 	ldw	r5,16(r16)
 1001b94:	80000115 	stw	zero,4(r16)
 1001b98:	10bff6cc 	andi	r2,r2,65499
 1001b9c:	8080030d 	sth	r2,12(r16)
 1001ba0:	81400015 	stw	r5,0(r16)
 1001ba4:	8080030b 	ldhu	r2,12(r16)
 1001ba8:	10800214 	ori	r2,r2,8
 1001bac:	113fffcc 	andi	r4,r2,65535
 1001bb0:	8080030d 	sth	r2,12(r16)
 1001bb4:	003fc306 	br	1001ac4 <__swsetup_r+0x40>
 1001bb8:	81400417 	ldw	r5,16(r16)
 1001bbc:	003ff906 	br	1001ba4 <__swsetup_r+0x120>

01001bc0 <_fflush_r>:
 1001bc0:	defffb04 	addi	sp,sp,-20
 1001bc4:	dcc00315 	stw	r19,12(sp)
 1001bc8:	dc800215 	stw	r18,8(sp)
 1001bcc:	dfc00415 	stw	ra,16(sp)
 1001bd0:	dc400115 	stw	r17,4(sp)
 1001bd4:	dc000015 	stw	r16,0(sp)
 1001bd8:	2027883a 	mov	r19,r4
 1001bdc:	2825883a 	mov	r18,r5
 1001be0:	20000226 	beq	r4,zero,1001bec <_fflush_r+0x2c>
 1001be4:	20800e17 	ldw	r2,56(r4)
 1001be8:	10005626 	beq	r2,zero,1001d44 <_fflush_r+0x184>
 1001bec:	9100030b 	ldhu	r4,12(r18)
 1001bf0:	20ffffcc 	andi	r3,r4,65535
 1001bf4:	18e0001c 	xori	r3,r3,32768
 1001bf8:	18e00004 	addi	r3,r3,-32768
 1001bfc:	1880020c 	andi	r2,r3,8
 1001c00:	1000261e 	bne	r2,zero,1001c9c <_fflush_r+0xdc>
 1001c04:	90c00117 	ldw	r3,4(r18)
 1001c08:	20820014 	ori	r2,r4,2048
 1001c0c:	9080030d 	sth	r2,12(r18)
 1001c10:	1009883a 	mov	r4,r2
 1001c14:	00c0400e 	bge	zero,r3,1001d18 <_fflush_r+0x158>
 1001c18:	92000a17 	ldw	r8,40(r18)
 1001c1c:	40004026 	beq	r8,zero,1001d20 <_fflush_r+0x160>
 1001c20:	2084000c 	andi	r2,r4,4096
 1001c24:	10005326 	beq	r2,zero,1001d74 <_fflush_r+0x1b4>
 1001c28:	94001417 	ldw	r16,80(r18)
 1001c2c:	9080030b 	ldhu	r2,12(r18)
 1001c30:	1080010c 	andi	r2,r2,4
 1001c34:	1000481e 	bne	r2,zero,1001d58 <_fflush_r+0x198>
 1001c38:	91400717 	ldw	r5,28(r18)
 1001c3c:	9809883a 	mov	r4,r19
 1001c40:	800d883a 	mov	r6,r16
 1001c44:	000f883a 	mov	r7,zero
 1001c48:	403ee83a 	callr	r8
 1001c4c:	8080261e 	bne	r16,r2,1001ce8 <_fflush_r+0x128>
 1001c50:	9080030b 	ldhu	r2,12(r18)
 1001c54:	91000417 	ldw	r4,16(r18)
 1001c58:	90000115 	stw	zero,4(r18)
 1001c5c:	10bdffcc 	andi	r2,r2,63487
 1001c60:	10ffffcc 	andi	r3,r2,65535
 1001c64:	18c4000c 	andi	r3,r3,4096
 1001c68:	9080030d 	sth	r2,12(r18)
 1001c6c:	91000015 	stw	r4,0(r18)
 1001c70:	18002b26 	beq	r3,zero,1001d20 <_fflush_r+0x160>
 1001c74:	0007883a 	mov	r3,zero
 1001c78:	1805883a 	mov	r2,r3
 1001c7c:	94001415 	stw	r16,80(r18)
 1001c80:	dfc00417 	ldw	ra,16(sp)
 1001c84:	dcc00317 	ldw	r19,12(sp)
 1001c88:	dc800217 	ldw	r18,8(sp)
 1001c8c:	dc400117 	ldw	r17,4(sp)
 1001c90:	dc000017 	ldw	r16,0(sp)
 1001c94:	dec00504 	addi	sp,sp,20
 1001c98:	f800283a 	ret
 1001c9c:	94400417 	ldw	r17,16(r18)
 1001ca0:	88001f26 	beq	r17,zero,1001d20 <_fflush_r+0x160>
 1001ca4:	90800017 	ldw	r2,0(r18)
 1001ca8:	18c000cc 	andi	r3,r3,3
 1001cac:	94400015 	stw	r17,0(r18)
 1001cb0:	1461c83a 	sub	r16,r2,r17
 1001cb4:	18002526 	beq	r3,zero,1001d4c <_fflush_r+0x18c>
 1001cb8:	0005883a 	mov	r2,zero
 1001cbc:	90800215 	stw	r2,8(r18)
 1001cc0:	0400170e 	bge	zero,r16,1001d20 <_fflush_r+0x160>
 1001cc4:	90c00917 	ldw	r3,36(r18)
 1001cc8:	91400717 	ldw	r5,28(r18)
 1001ccc:	880d883a 	mov	r6,r17
 1001cd0:	800f883a 	mov	r7,r16
 1001cd4:	9809883a 	mov	r4,r19
 1001cd8:	183ee83a 	callr	r3
 1001cdc:	88a3883a 	add	r17,r17,r2
 1001ce0:	80a1c83a 	sub	r16,r16,r2
 1001ce4:	00bff616 	blt	zero,r2,1001cc0 <_fflush_r+0x100>
 1001ce8:	9080030b 	ldhu	r2,12(r18)
 1001cec:	00ffffc4 	movi	r3,-1
 1001cf0:	10801014 	ori	r2,r2,64
 1001cf4:	9080030d 	sth	r2,12(r18)
 1001cf8:	1805883a 	mov	r2,r3
 1001cfc:	dfc00417 	ldw	ra,16(sp)
 1001d00:	dcc00317 	ldw	r19,12(sp)
 1001d04:	dc800217 	ldw	r18,8(sp)
 1001d08:	dc400117 	ldw	r17,4(sp)
 1001d0c:	dc000017 	ldw	r16,0(sp)
 1001d10:	dec00504 	addi	sp,sp,20
 1001d14:	f800283a 	ret
 1001d18:	90800f17 	ldw	r2,60(r18)
 1001d1c:	00bfbe16 	blt	zero,r2,1001c18 <_fflush_r+0x58>
 1001d20:	0007883a 	mov	r3,zero
 1001d24:	1805883a 	mov	r2,r3
 1001d28:	dfc00417 	ldw	ra,16(sp)
 1001d2c:	dcc00317 	ldw	r19,12(sp)
 1001d30:	dc800217 	ldw	r18,8(sp)
 1001d34:	dc400117 	ldw	r17,4(sp)
 1001d38:	dc000017 	ldw	r16,0(sp)
 1001d3c:	dec00504 	addi	sp,sp,20
 1001d40:	f800283a 	ret
 1001d44:	1001e580 	call	1001e58 <__sinit>
 1001d48:	003fa806 	br	1001bec <_fflush_r+0x2c>
 1001d4c:	90800517 	ldw	r2,20(r18)
 1001d50:	90800215 	stw	r2,8(r18)
 1001d54:	003fda06 	br	1001cc0 <_fflush_r+0x100>
 1001d58:	90800117 	ldw	r2,4(r18)
 1001d5c:	90c00c17 	ldw	r3,48(r18)
 1001d60:	80a1c83a 	sub	r16,r16,r2
 1001d64:	183fb426 	beq	r3,zero,1001c38 <_fflush_r+0x78>
 1001d68:	90800f17 	ldw	r2,60(r18)
 1001d6c:	80a1c83a 	sub	r16,r16,r2
 1001d70:	003fb106 	br	1001c38 <_fflush_r+0x78>
 1001d74:	91400717 	ldw	r5,28(r18)
 1001d78:	9809883a 	mov	r4,r19
 1001d7c:	000d883a 	mov	r6,zero
 1001d80:	01c00044 	movi	r7,1
 1001d84:	403ee83a 	callr	r8
 1001d88:	1021883a 	mov	r16,r2
 1001d8c:	00bfffc4 	movi	r2,-1
 1001d90:	80800226 	beq	r16,r2,1001d9c <_fflush_r+0x1dc>
 1001d94:	92000a17 	ldw	r8,40(r18)
 1001d98:	003fa406 	br	1001c2c <_fflush_r+0x6c>
 1001d9c:	98c00017 	ldw	r3,0(r19)
 1001da0:	00800744 	movi	r2,29
 1001da4:	18bfde26 	beq	r3,r2,1001d20 <_fflush_r+0x160>
 1001da8:	9080030b 	ldhu	r2,12(r18)
 1001dac:	8007883a 	mov	r3,r16
 1001db0:	10801014 	ori	r2,r2,64
 1001db4:	9080030d 	sth	r2,12(r18)
 1001db8:	003fcf06 	br	1001cf8 <_fflush_r+0x138>

01001dbc <fflush>:
 1001dbc:	01404034 	movhi	r5,256
 1001dc0:	2946f004 	addi	r5,r5,7104
 1001dc4:	2007883a 	mov	r3,r4
 1001dc8:	20000526 	beq	r4,zero,1001de0 <fflush+0x24>
 1001dcc:	00804074 	movhi	r2,257
 1001dd0:	10b9a904 	addi	r2,r2,-6492
 1001dd4:	11000017 	ldw	r4,0(r2)
 1001dd8:	180b883a 	mov	r5,r3
 1001ddc:	1001bc01 	jmpi	1001bc0 <_fflush_r>
 1001de0:	00804074 	movhi	r2,257
 1001de4:	10b9aa04 	addi	r2,r2,-6488
 1001de8:	11000017 	ldw	r4,0(r2)
 1001dec:	10025241 	jmpi	1002524 <_fwalk_reent>

01001df0 <std>:
 1001df0:	00804034 	movhi	r2,256
 1001df4:	108a3404 	addi	r2,r2,10448
 1001df8:	20800b15 	stw	r2,44(r4)
 1001dfc:	00804034 	movhi	r2,256
 1001e00:	108a6f04 	addi	r2,r2,10684
 1001e04:	20800815 	stw	r2,32(r4)
 1001e08:	00c04034 	movhi	r3,256
 1001e0c:	18ca5004 	addi	r3,r3,10560
 1001e10:	00804034 	movhi	r2,256
 1001e14:	108a3604 	addi	r2,r2,10456
 1001e18:	2140030d 	sth	r5,12(r4)
 1001e1c:	2180038d 	sth	r6,14(r4)
 1001e20:	20c00915 	stw	r3,36(r4)
 1001e24:	20800a15 	stw	r2,40(r4)
 1001e28:	20000015 	stw	zero,0(r4)
 1001e2c:	20000115 	stw	zero,4(r4)
 1001e30:	20000215 	stw	zero,8(r4)
 1001e34:	20000415 	stw	zero,16(r4)
 1001e38:	20000515 	stw	zero,20(r4)
 1001e3c:	20000615 	stw	zero,24(r4)
 1001e40:	21000715 	stw	r4,28(r4)
 1001e44:	f800283a 	ret

01001e48 <__sfp_lock_acquire>:
 1001e48:	f800283a 	ret

01001e4c <__sfp_lock_release>:
 1001e4c:	f800283a 	ret

01001e50 <__sinit_lock_acquire>:
 1001e50:	f800283a 	ret

01001e54 <__sinit_lock_release>:
 1001e54:	f800283a 	ret

01001e58 <__sinit>:
 1001e58:	20800e17 	ldw	r2,56(r4)
 1001e5c:	defffd04 	addi	sp,sp,-12
 1001e60:	dc400115 	stw	r17,4(sp)
 1001e64:	dc000015 	stw	r16,0(sp)
 1001e68:	dfc00215 	stw	ra,8(sp)
 1001e6c:	04400044 	movi	r17,1
 1001e70:	01400104 	movi	r5,4
 1001e74:	000d883a 	mov	r6,zero
 1001e78:	2021883a 	mov	r16,r4
 1001e7c:	2200bb04 	addi	r8,r4,748
 1001e80:	200f883a 	mov	r7,r4
 1001e84:	10000526 	beq	r2,zero,1001e9c <__sinit+0x44>
 1001e88:	dfc00217 	ldw	ra,8(sp)
 1001e8c:	dc400117 	ldw	r17,4(sp)
 1001e90:	dc000017 	ldw	r16,0(sp)
 1001e94:	dec00304 	addi	sp,sp,12
 1001e98:	f800283a 	ret
 1001e9c:	21000117 	ldw	r4,4(r4)
 1001ea0:	00804034 	movhi	r2,256
 1001ea4:	1087cf04 	addi	r2,r2,7996
 1001ea8:	00c000c4 	movi	r3,3
 1001eac:	80800f15 	stw	r2,60(r16)
 1001eb0:	80c0b915 	stw	r3,740(r16)
 1001eb4:	8200ba15 	stw	r8,744(r16)
 1001eb8:	84400e15 	stw	r17,56(r16)
 1001ebc:	8000b815 	stw	zero,736(r16)
 1001ec0:	1001df00 	call	1001df0 <std>
 1001ec4:	81000217 	ldw	r4,8(r16)
 1001ec8:	880d883a 	mov	r6,r17
 1001ecc:	800f883a 	mov	r7,r16
 1001ed0:	01400284 	movi	r5,10
 1001ed4:	1001df00 	call	1001df0 <std>
 1001ed8:	81000317 	ldw	r4,12(r16)
 1001edc:	800f883a 	mov	r7,r16
 1001ee0:	01400484 	movi	r5,18
 1001ee4:	01800084 	movi	r6,2
 1001ee8:	dfc00217 	ldw	ra,8(sp)
 1001eec:	dc400117 	ldw	r17,4(sp)
 1001ef0:	dc000017 	ldw	r16,0(sp)
 1001ef4:	dec00304 	addi	sp,sp,12
 1001ef8:	1001df01 	jmpi	1001df0 <std>

01001efc <__fp_lock>:
 1001efc:	0005883a 	mov	r2,zero
 1001f00:	f800283a 	ret

01001f04 <__fp_unlock>:
 1001f04:	0005883a 	mov	r2,zero
 1001f08:	f800283a 	ret

01001f0c <__fp_unlock_all>:
 1001f0c:	00804074 	movhi	r2,257
 1001f10:	10b9a904 	addi	r2,r2,-6492
 1001f14:	11000017 	ldw	r4,0(r2)
 1001f18:	01404034 	movhi	r5,256
 1001f1c:	2947c104 	addi	r5,r5,7940
 1001f20:	10025ec1 	jmpi	10025ec <_fwalk>

01001f24 <__fp_lock_all>:
 1001f24:	00804074 	movhi	r2,257
 1001f28:	10b9a904 	addi	r2,r2,-6492
 1001f2c:	11000017 	ldw	r4,0(r2)
 1001f30:	01404034 	movhi	r5,256
 1001f34:	2947bf04 	addi	r5,r5,7932
 1001f38:	10025ec1 	jmpi	10025ec <_fwalk>

01001f3c <_cleanup_r>:
 1001f3c:	01404034 	movhi	r5,256
 1001f40:	294b0504 	addi	r5,r5,11284
 1001f44:	10025ec1 	jmpi	10025ec <_fwalk>

01001f48 <_cleanup>:
 1001f48:	00804074 	movhi	r2,257
 1001f4c:	10b9aa04 	addi	r2,r2,-6488
 1001f50:	11000017 	ldw	r4,0(r2)
 1001f54:	1001f3c1 	jmpi	1001f3c <_cleanup_r>

01001f58 <__sfmoreglue>:
 1001f58:	defffc04 	addi	sp,sp,-16
 1001f5c:	dc000015 	stw	r16,0(sp)
 1001f60:	2821883a 	mov	r16,r5
 1001f64:	dc400115 	stw	r17,4(sp)
 1001f68:	01401704 	movi	r5,92
 1001f6c:	2023883a 	mov	r17,r4
 1001f70:	8009883a 	mov	r4,r16
 1001f74:	dfc00315 	stw	ra,12(sp)
 1001f78:	dcc00215 	stw	r19,8(sp)
 1001f7c:	1002dfc0 	call	1002dfc <__mulsi3>
 1001f80:	11400304 	addi	r5,r2,12
 1001f84:	8809883a 	mov	r4,r17
 1001f88:	1027883a 	mov	r19,r2
 1001f8c:	1000a7c0 	call	1000a7c <_malloc_r>
 1001f90:	10c00304 	addi	r3,r2,12
 1001f94:	1023883a 	mov	r17,r2
 1001f98:	1809883a 	mov	r4,r3
 1001f9c:	980d883a 	mov	r6,r19
 1001fa0:	000b883a 	mov	r5,zero
 1001fa4:	10000b26 	beq	r2,zero,1001fd4 <__sfmoreglue+0x7c>
 1001fa8:	14000115 	stw	r16,4(r2)
 1001fac:	10c00215 	stw	r3,8(r2)
 1001fb0:	10000015 	stw	zero,0(r2)
 1001fb4:	10028380 	call	1002838 <memset>
 1001fb8:	8805883a 	mov	r2,r17
 1001fbc:	dfc00317 	ldw	ra,12(sp)
 1001fc0:	dcc00217 	ldw	r19,8(sp)
 1001fc4:	dc400117 	ldw	r17,4(sp)
 1001fc8:	dc000017 	ldw	r16,0(sp)
 1001fcc:	dec00404 	addi	sp,sp,16
 1001fd0:	f800283a 	ret
 1001fd4:	0023883a 	mov	r17,zero
 1001fd8:	8805883a 	mov	r2,r17
 1001fdc:	dfc00317 	ldw	ra,12(sp)
 1001fe0:	dcc00217 	ldw	r19,8(sp)
 1001fe4:	dc400117 	ldw	r17,4(sp)
 1001fe8:	dc000017 	ldw	r16,0(sp)
 1001fec:	dec00404 	addi	sp,sp,16
 1001ff0:	f800283a 	ret

01001ff4 <__sfp>:
 1001ff4:	defffd04 	addi	sp,sp,-12
 1001ff8:	00804074 	movhi	r2,257
 1001ffc:	10b9aa04 	addi	r2,r2,-6488
 1002000:	dc000015 	stw	r16,0(sp)
 1002004:	14000017 	ldw	r16,0(r2)
 1002008:	dc400115 	stw	r17,4(sp)
 100200c:	dfc00215 	stw	ra,8(sp)
 1002010:	80800e17 	ldw	r2,56(r16)
 1002014:	2023883a 	mov	r17,r4
 1002018:	10002626 	beq	r2,zero,10020b4 <__sfp+0xc0>
 100201c:	8400b804 	addi	r16,r16,736
 1002020:	80800117 	ldw	r2,4(r16)
 1002024:	81000217 	ldw	r4,8(r16)
 1002028:	10ffffc4 	addi	r3,r2,-1
 100202c:	18000916 	blt	r3,zero,1002054 <__sfp+0x60>
 1002030:	2080030f 	ldh	r2,12(r4)
 1002034:	10000b26 	beq	r2,zero,1002064 <__sfp+0x70>
 1002038:	017fffc4 	movi	r5,-1
 100203c:	00000206 	br	1002048 <__sfp+0x54>
 1002040:	2080030f 	ldh	r2,12(r4)
 1002044:	10000726 	beq	r2,zero,1002064 <__sfp+0x70>
 1002048:	18ffffc4 	addi	r3,r3,-1
 100204c:	21001704 	addi	r4,r4,92
 1002050:	197ffb1e 	bne	r3,r5,1002040 <__sfp+0x4c>
 1002054:	80800017 	ldw	r2,0(r16)
 1002058:	10001926 	beq	r2,zero,10020c0 <__sfp+0xcc>
 100205c:	1021883a 	mov	r16,r2
 1002060:	003fef06 	br	1002020 <__sfp+0x2c>
 1002064:	00bfffc4 	movi	r2,-1
 1002068:	00c00044 	movi	r3,1
 100206c:	2080038d 	sth	r2,14(r4)
 1002070:	20c0030d 	sth	r3,12(r4)
 1002074:	20000015 	stw	zero,0(r4)
 1002078:	20000215 	stw	zero,8(r4)
 100207c:	20000115 	stw	zero,4(r4)
 1002080:	20000415 	stw	zero,16(r4)
 1002084:	20000515 	stw	zero,20(r4)
 1002088:	20000615 	stw	zero,24(r4)
 100208c:	20000c15 	stw	zero,48(r4)
 1002090:	20000d15 	stw	zero,52(r4)
 1002094:	20001115 	stw	zero,68(r4)
 1002098:	20001215 	stw	zero,72(r4)
 100209c:	2005883a 	mov	r2,r4
 10020a0:	dfc00217 	ldw	ra,8(sp)
 10020a4:	dc400117 	ldw	r17,4(sp)
 10020a8:	dc000017 	ldw	r16,0(sp)
 10020ac:	dec00304 	addi	sp,sp,12
 10020b0:	f800283a 	ret
 10020b4:	8009883a 	mov	r4,r16
 10020b8:	1001e580 	call	1001e58 <__sinit>
 10020bc:	003fd706 	br	100201c <__sfp+0x28>
 10020c0:	8809883a 	mov	r4,r17
 10020c4:	01400104 	movi	r5,4
 10020c8:	1001f580 	call	1001f58 <__sfmoreglue>
 10020cc:	80800015 	stw	r2,0(r16)
 10020d0:	103fe21e 	bne	r2,zero,100205c <__sfp+0x68>
 10020d4:	00800304 	movi	r2,12
 10020d8:	0009883a 	mov	r4,zero
 10020dc:	88800015 	stw	r2,0(r17)
 10020e0:	003fee06 	br	100209c <__sfp+0xa8>

010020e4 <_malloc_trim_r>:
 10020e4:	defffb04 	addi	sp,sp,-20
 10020e8:	dcc00315 	stw	r19,12(sp)
 10020ec:	04c04074 	movhi	r19,257
 10020f0:	9cf40f04 	addi	r19,r19,-12228
 10020f4:	dc800215 	stw	r18,8(sp)
 10020f8:	dc400115 	stw	r17,4(sp)
 10020fc:	dc000015 	stw	r16,0(sp)
 1002100:	2823883a 	mov	r17,r5
 1002104:	2025883a 	mov	r18,r4
 1002108:	dfc00415 	stw	ra,16(sp)
 100210c:	10034c80 	call	10034c8 <__malloc_lock>
 1002110:	98800217 	ldw	r2,8(r19)
 1002114:	9009883a 	mov	r4,r18
 1002118:	000b883a 	mov	r5,zero
 100211c:	10c00117 	ldw	r3,4(r2)
 1002120:	00bfff04 	movi	r2,-4
 1002124:	18a0703a 	and	r16,r3,r2
 1002128:	8463c83a 	sub	r17,r16,r17
 100212c:	8c43fbc4 	addi	r17,r17,4079
 1002130:	8822d33a 	srli	r17,r17,12
 1002134:	0083ffc4 	movi	r2,4095
 1002138:	8c7fffc4 	addi	r17,r17,-1
 100213c:	8822933a 	slli	r17,r17,12
 1002140:	1440060e 	bge	r2,r17,100215c <_malloc_trim_r+0x78>
 1002144:	1001a140 	call	1001a14 <_sbrk_r>
 1002148:	98c00217 	ldw	r3,8(r19)
 100214c:	9009883a 	mov	r4,r18
 1002150:	044bc83a 	sub	r5,zero,r17
 1002154:	80c7883a 	add	r3,r16,r3
 1002158:	10c00926 	beq	r2,r3,1002180 <_malloc_trim_r+0x9c>
 100215c:	10034e80 	call	10034e8 <__malloc_unlock>
 1002160:	0005883a 	mov	r2,zero
 1002164:	dfc00417 	ldw	ra,16(sp)
 1002168:	dcc00317 	ldw	r19,12(sp)
 100216c:	dc800217 	ldw	r18,8(sp)
 1002170:	dc400117 	ldw	r17,4(sp)
 1002174:	dc000017 	ldw	r16,0(sp)
 1002178:	dec00504 	addi	sp,sp,20
 100217c:	f800283a 	ret
 1002180:	9009883a 	mov	r4,r18
 1002184:	1001a140 	call	1001a14 <_sbrk_r>
 1002188:	844dc83a 	sub	r6,r16,r17
 100218c:	00ffffc4 	movi	r3,-1
 1002190:	9009883a 	mov	r4,r18
 1002194:	000b883a 	mov	r5,zero
 1002198:	01c04074 	movhi	r7,257
 100219c:	39c07604 	addi	r7,r7,472
 10021a0:	31800054 	ori	r6,r6,1
 10021a4:	10c00926 	beq	r2,r3,10021cc <_malloc_trim_r+0xe8>
 10021a8:	38800017 	ldw	r2,0(r7)
 10021ac:	98c00217 	ldw	r3,8(r19)
 10021b0:	9009883a 	mov	r4,r18
 10021b4:	1445c83a 	sub	r2,r2,r17
 10021b8:	38800015 	stw	r2,0(r7)
 10021bc:	19800115 	stw	r6,4(r3)
 10021c0:	10034e80 	call	10034e8 <__malloc_unlock>
 10021c4:	00800044 	movi	r2,1
 10021c8:	003fe606 	br	1002164 <_malloc_trim_r+0x80>
 10021cc:	1001a140 	call	1001a14 <_sbrk_r>
 10021d0:	99800217 	ldw	r6,8(r19)
 10021d4:	100f883a 	mov	r7,r2
 10021d8:	9009883a 	mov	r4,r18
 10021dc:	1187c83a 	sub	r3,r2,r6
 10021e0:	008003c4 	movi	r2,15
 10021e4:	19400054 	ori	r5,r3,1
 10021e8:	10ffdc0e 	bge	r2,r3,100215c <_malloc_trim_r+0x78>
 10021ec:	00804074 	movhi	r2,257
 10021f0:	10b9ac04 	addi	r2,r2,-6480
 10021f4:	10c00017 	ldw	r3,0(r2)
 10021f8:	00804074 	movhi	r2,257
 10021fc:	10807604 	addi	r2,r2,472
 1002200:	31400115 	stw	r5,4(r6)
 1002204:	38c7c83a 	sub	r3,r7,r3
 1002208:	10c00015 	stw	r3,0(r2)
 100220c:	003fd306 	br	100215c <_malloc_trim_r+0x78>

01002210 <_free_r>:
 1002210:	defffd04 	addi	sp,sp,-12
 1002214:	dc400115 	stw	r17,4(sp)
 1002218:	dc000015 	stw	r16,0(sp)
 100221c:	dfc00215 	stw	ra,8(sp)
 1002220:	2821883a 	mov	r16,r5
 1002224:	2023883a 	mov	r17,r4
 1002228:	28005a26 	beq	r5,zero,1002394 <_free_r+0x184>
 100222c:	10034c80 	call	10034c8 <__malloc_lock>
 1002230:	823ffe04 	addi	r8,r16,-8
 1002234:	41400117 	ldw	r5,4(r8)
 1002238:	00bfff84 	movi	r2,-2
 100223c:	02804074 	movhi	r10,257
 1002240:	52b40f04 	addi	r10,r10,-12228
 1002244:	288e703a 	and	r7,r5,r2
 1002248:	41cd883a 	add	r6,r8,r7
 100224c:	30c00117 	ldw	r3,4(r6)
 1002250:	51000217 	ldw	r4,8(r10)
 1002254:	00bfff04 	movi	r2,-4
 1002258:	1892703a 	and	r9,r3,r2
 100225c:	5017883a 	mov	r11,r10
 1002260:	31006726 	beq	r6,r4,1002400 <_free_r+0x1f0>
 1002264:	2880004c 	andi	r2,r5,1
 1002268:	1005003a 	cmpeq	r2,r2,zero
 100226c:	32400115 	stw	r9,4(r6)
 1002270:	10001a1e 	bne	r2,zero,10022dc <_free_r+0xcc>
 1002274:	000b883a 	mov	r5,zero
 1002278:	3247883a 	add	r3,r6,r9
 100227c:	18800117 	ldw	r2,4(r3)
 1002280:	1080004c 	andi	r2,r2,1
 1002284:	1000231e 	bne	r2,zero,1002314 <_free_r+0x104>
 1002288:	280ac03a 	cmpne	r5,r5,zero
 100228c:	3a4f883a 	add	r7,r7,r9
 1002290:	2800451e 	bne	r5,zero,10023a8 <_free_r+0x198>
 1002294:	31000217 	ldw	r4,8(r6)
 1002298:	00804074 	movhi	r2,257
 100229c:	10b41104 	addi	r2,r2,-12220
 10022a0:	20807b26 	beq	r4,r2,1002490 <_free_r+0x280>
 10022a4:	30800317 	ldw	r2,12(r6)
 10022a8:	3a07883a 	add	r3,r7,r8
 10022ac:	19c00015 	stw	r7,0(r3)
 10022b0:	11000215 	stw	r4,8(r2)
 10022b4:	20800315 	stw	r2,12(r4)
 10022b8:	38800054 	ori	r2,r7,1
 10022bc:	40800115 	stw	r2,4(r8)
 10022c0:	28001a26 	beq	r5,zero,100232c <_free_r+0x11c>
 10022c4:	8809883a 	mov	r4,r17
 10022c8:	dfc00217 	ldw	ra,8(sp)
 10022cc:	dc400117 	ldw	r17,4(sp)
 10022d0:	dc000017 	ldw	r16,0(sp)
 10022d4:	dec00304 	addi	sp,sp,12
 10022d8:	10034e81 	jmpi	10034e8 <__malloc_unlock>
 10022dc:	80bffe17 	ldw	r2,-8(r16)
 10022e0:	50c00204 	addi	r3,r10,8
 10022e4:	4091c83a 	sub	r8,r8,r2
 10022e8:	41000217 	ldw	r4,8(r8)
 10022ec:	388f883a 	add	r7,r7,r2
 10022f0:	20c06126 	beq	r4,r3,1002478 <_free_r+0x268>
 10022f4:	40800317 	ldw	r2,12(r8)
 10022f8:	3247883a 	add	r3,r6,r9
 10022fc:	000b883a 	mov	r5,zero
 1002300:	11000215 	stw	r4,8(r2)
 1002304:	20800315 	stw	r2,12(r4)
 1002308:	18800117 	ldw	r2,4(r3)
 100230c:	1080004c 	andi	r2,r2,1
 1002310:	103fdd26 	beq	r2,zero,1002288 <_free_r+0x78>
 1002314:	38800054 	ori	r2,r7,1
 1002318:	3a07883a 	add	r3,r7,r8
 100231c:	280ac03a 	cmpne	r5,r5,zero
 1002320:	40800115 	stw	r2,4(r8)
 1002324:	19c00015 	stw	r7,0(r3)
 1002328:	283fe61e 	bne	r5,zero,10022c4 <_free_r+0xb4>
 100232c:	00807fc4 	movi	r2,511
 1002330:	11c01f2e 	bgeu	r2,r7,10023b0 <_free_r+0x1a0>
 1002334:	3806d27a 	srli	r3,r7,9
 1002338:	1800481e 	bne	r3,zero,100245c <_free_r+0x24c>
 100233c:	3804d0fa 	srli	r2,r7,3
 1002340:	100690fa 	slli	r3,r2,3
 1002344:	1acd883a 	add	r6,r3,r11
 1002348:	31400217 	ldw	r5,8(r6)
 100234c:	31405926 	beq	r6,r5,10024b4 <_free_r+0x2a4>
 1002350:	28800117 	ldw	r2,4(r5)
 1002354:	00ffff04 	movi	r3,-4
 1002358:	10c4703a 	and	r2,r2,r3
 100235c:	3880022e 	bgeu	r7,r2,1002368 <_free_r+0x158>
 1002360:	29400217 	ldw	r5,8(r5)
 1002364:	317ffa1e 	bne	r6,r5,1002350 <_free_r+0x140>
 1002368:	29800317 	ldw	r6,12(r5)
 100236c:	41800315 	stw	r6,12(r8)
 1002370:	41400215 	stw	r5,8(r8)
 1002374:	8809883a 	mov	r4,r17
 1002378:	2a000315 	stw	r8,12(r5)
 100237c:	32000215 	stw	r8,8(r6)
 1002380:	dfc00217 	ldw	ra,8(sp)
 1002384:	dc400117 	ldw	r17,4(sp)
 1002388:	dc000017 	ldw	r16,0(sp)
 100238c:	dec00304 	addi	sp,sp,12
 1002390:	10034e81 	jmpi	10034e8 <__malloc_unlock>
 1002394:	dfc00217 	ldw	ra,8(sp)
 1002398:	dc400117 	ldw	r17,4(sp)
 100239c:	dc000017 	ldw	r16,0(sp)
 10023a0:	dec00304 	addi	sp,sp,12
 10023a4:	f800283a 	ret
 10023a8:	31000217 	ldw	r4,8(r6)
 10023ac:	003fbd06 	br	10022a4 <_free_r+0x94>
 10023b0:	3806d0fa 	srli	r3,r7,3
 10023b4:	00800044 	movi	r2,1
 10023b8:	51400117 	ldw	r5,4(r10)
 10023bc:	180890fa 	slli	r4,r3,3
 10023c0:	1807d0ba 	srai	r3,r3,2
 10023c4:	22c9883a 	add	r4,r4,r11
 10023c8:	21800217 	ldw	r6,8(r4)
 10023cc:	10c4983a 	sll	r2,r2,r3
 10023d0:	41000315 	stw	r4,12(r8)
 10023d4:	41800215 	stw	r6,8(r8)
 10023d8:	288ab03a 	or	r5,r5,r2
 10023dc:	22000215 	stw	r8,8(r4)
 10023e0:	8809883a 	mov	r4,r17
 10023e4:	51400115 	stw	r5,4(r10)
 10023e8:	32000315 	stw	r8,12(r6)
 10023ec:	dfc00217 	ldw	ra,8(sp)
 10023f0:	dc400117 	ldw	r17,4(sp)
 10023f4:	dc000017 	ldw	r16,0(sp)
 10023f8:	dec00304 	addi	sp,sp,12
 10023fc:	10034e81 	jmpi	10034e8 <__malloc_unlock>
 1002400:	2880004c 	andi	r2,r5,1
 1002404:	3a4d883a 	add	r6,r7,r9
 1002408:	1000071e 	bne	r2,zero,1002428 <_free_r+0x218>
 100240c:	80bffe17 	ldw	r2,-8(r16)
 1002410:	4091c83a 	sub	r8,r8,r2
 1002414:	41000317 	ldw	r4,12(r8)
 1002418:	40c00217 	ldw	r3,8(r8)
 100241c:	308d883a 	add	r6,r6,r2
 1002420:	20c00215 	stw	r3,8(r4)
 1002424:	19000315 	stw	r4,12(r3)
 1002428:	00804074 	movhi	r2,257
 100242c:	10b9ab04 	addi	r2,r2,-6484
 1002430:	11000017 	ldw	r4,0(r2)
 1002434:	30c00054 	ori	r3,r6,1
 1002438:	52000215 	stw	r8,8(r10)
 100243c:	40c00115 	stw	r3,4(r8)
 1002440:	313fa036 	bltu	r6,r4,10022c4 <_free_r+0xb4>
 1002444:	00804074 	movhi	r2,257
 1002448:	10805f04 	addi	r2,r2,380
 100244c:	11400017 	ldw	r5,0(r2)
 1002450:	8809883a 	mov	r4,r17
 1002454:	10020e40 	call	10020e4 <_malloc_trim_r>
 1002458:	003f9a06 	br	10022c4 <_free_r+0xb4>
 100245c:	00800104 	movi	r2,4
 1002460:	10c0072e 	bgeu	r2,r3,1002480 <_free_r+0x270>
 1002464:	00800504 	movi	r2,20
 1002468:	10c01936 	bltu	r2,r3,10024d0 <_free_r+0x2c0>
 100246c:	188016c4 	addi	r2,r3,91
 1002470:	100690fa 	slli	r3,r2,3
 1002474:	003fb306 	br	1002344 <_free_r+0x134>
 1002478:	01400044 	movi	r5,1
 100247c:	003f7e06 	br	1002278 <_free_r+0x68>
 1002480:	3804d1ba 	srli	r2,r7,6
 1002484:	10800e04 	addi	r2,r2,56
 1002488:	100690fa 	slli	r3,r2,3
 100248c:	003fad06 	br	1002344 <_free_r+0x134>
 1002490:	22000315 	stw	r8,12(r4)
 1002494:	22000215 	stw	r8,8(r4)
 1002498:	3a05883a 	add	r2,r7,r8
 100249c:	38c00054 	ori	r3,r7,1
 10024a0:	11c00015 	stw	r7,0(r2)
 10024a4:	41000215 	stw	r4,8(r8)
 10024a8:	40c00115 	stw	r3,4(r8)
 10024ac:	41000315 	stw	r4,12(r8)
 10024b0:	003f8406 	br	10022c4 <_free_r+0xb4>
 10024b4:	1005d0ba 	srai	r2,r2,2
 10024b8:	00c00044 	movi	r3,1
 10024bc:	51000117 	ldw	r4,4(r10)
 10024c0:	1886983a 	sll	r3,r3,r2
 10024c4:	20c8b03a 	or	r4,r4,r3
 10024c8:	51000115 	stw	r4,4(r10)
 10024cc:	003fa706 	br	100236c <_free_r+0x15c>
 10024d0:	00801504 	movi	r2,84
 10024d4:	10c00436 	bltu	r2,r3,10024e8 <_free_r+0x2d8>
 10024d8:	3804d33a 	srli	r2,r7,12
 10024dc:	10801b84 	addi	r2,r2,110
 10024e0:	100690fa 	slli	r3,r2,3
 10024e4:	003f9706 	br	1002344 <_free_r+0x134>
 10024e8:	00805504 	movi	r2,340
 10024ec:	10c00436 	bltu	r2,r3,1002500 <_free_r+0x2f0>
 10024f0:	3804d3fa 	srli	r2,r7,15
 10024f4:	10801dc4 	addi	r2,r2,119
 10024f8:	100690fa 	slli	r3,r2,3
 10024fc:	003f9106 	br	1002344 <_free_r+0x134>
 1002500:	00815504 	movi	r2,1364
 1002504:	10c0032e 	bgeu	r2,r3,1002514 <_free_r+0x304>
 1002508:	00801f84 	movi	r2,126
 100250c:	00c0fc04 	movi	r3,1008
 1002510:	003f8c06 	br	1002344 <_free_r+0x134>
 1002514:	3804d4ba 	srli	r2,r7,18
 1002518:	10801f04 	addi	r2,r2,124
 100251c:	100690fa 	slli	r3,r2,3
 1002520:	003f8806 	br	1002344 <_free_r+0x134>

01002524 <_fwalk_reent>:
 1002524:	defff704 	addi	sp,sp,-36
 1002528:	dcc00315 	stw	r19,12(sp)
 100252c:	24c0b804 	addi	r19,r4,736
 1002530:	dd800615 	stw	r22,24(sp)
 1002534:	dd400515 	stw	r21,20(sp)
 1002538:	dfc00815 	stw	ra,32(sp)
 100253c:	ddc00715 	stw	r23,28(sp)
 1002540:	dd000415 	stw	r20,16(sp)
 1002544:	dc800215 	stw	r18,8(sp)
 1002548:	dc400115 	stw	r17,4(sp)
 100254c:	dc000015 	stw	r16,0(sp)
 1002550:	202b883a 	mov	r21,r4
 1002554:	282d883a 	mov	r22,r5
 1002558:	1001e480 	call	1001e48 <__sfp_lock_acquire>
 100255c:	98002126 	beq	r19,zero,10025e4 <_fwalk_reent+0xc0>
 1002560:	002f883a 	mov	r23,zero
 1002564:	9c800117 	ldw	r18,4(r19)
 1002568:	9c000217 	ldw	r16,8(r19)
 100256c:	90bfffc4 	addi	r2,r18,-1
 1002570:	10000d16 	blt	r2,zero,10025a8 <_fwalk_reent+0x84>
 1002574:	0023883a 	mov	r17,zero
 1002578:	053fffc4 	movi	r20,-1
 100257c:	8080030f 	ldh	r2,12(r16)
 1002580:	8c400044 	addi	r17,r17,1
 1002584:	10000626 	beq	r2,zero,10025a0 <_fwalk_reent+0x7c>
 1002588:	8080038f 	ldh	r2,14(r16)
 100258c:	800b883a 	mov	r5,r16
 1002590:	a809883a 	mov	r4,r21
 1002594:	15000226 	beq	r2,r20,10025a0 <_fwalk_reent+0x7c>
 1002598:	b03ee83a 	callr	r22
 100259c:	b8aeb03a 	or	r23,r23,r2
 10025a0:	84001704 	addi	r16,r16,92
 10025a4:	947ff51e 	bne	r18,r17,100257c <_fwalk_reent+0x58>
 10025a8:	9cc00017 	ldw	r19,0(r19)
 10025ac:	983fed1e 	bne	r19,zero,1002564 <_fwalk_reent+0x40>
 10025b0:	1001e4c0 	call	1001e4c <__sfp_lock_release>
 10025b4:	b805883a 	mov	r2,r23
 10025b8:	dfc00817 	ldw	ra,32(sp)
 10025bc:	ddc00717 	ldw	r23,28(sp)
 10025c0:	dd800617 	ldw	r22,24(sp)
 10025c4:	dd400517 	ldw	r21,20(sp)
 10025c8:	dd000417 	ldw	r20,16(sp)
 10025cc:	dcc00317 	ldw	r19,12(sp)
 10025d0:	dc800217 	ldw	r18,8(sp)
 10025d4:	dc400117 	ldw	r17,4(sp)
 10025d8:	dc000017 	ldw	r16,0(sp)
 10025dc:	dec00904 	addi	sp,sp,36
 10025e0:	f800283a 	ret
 10025e4:	002f883a 	mov	r23,zero
 10025e8:	003ff106 	br	10025b0 <_fwalk_reent+0x8c>

010025ec <_fwalk>:
 10025ec:	defff804 	addi	sp,sp,-32
 10025f0:	dcc00315 	stw	r19,12(sp)
 10025f4:	24c0b804 	addi	r19,r4,736
 10025f8:	dd400515 	stw	r21,20(sp)
 10025fc:	dfc00715 	stw	ra,28(sp)
 1002600:	dd800615 	stw	r22,24(sp)
 1002604:	dd000415 	stw	r20,16(sp)
 1002608:	dc800215 	stw	r18,8(sp)
 100260c:	dc400115 	stw	r17,4(sp)
 1002610:	dc000015 	stw	r16,0(sp)
 1002614:	282b883a 	mov	r21,r5
 1002618:	1001e480 	call	1001e48 <__sfp_lock_acquire>
 100261c:	98001f26 	beq	r19,zero,100269c <_fwalk+0xb0>
 1002620:	002d883a 	mov	r22,zero
 1002624:	9c800117 	ldw	r18,4(r19)
 1002628:	9c000217 	ldw	r16,8(r19)
 100262c:	90bfffc4 	addi	r2,r18,-1
 1002630:	10000c16 	blt	r2,zero,1002664 <_fwalk+0x78>
 1002634:	0023883a 	mov	r17,zero
 1002638:	053fffc4 	movi	r20,-1
 100263c:	8080030f 	ldh	r2,12(r16)
 1002640:	8c400044 	addi	r17,r17,1
 1002644:	10000526 	beq	r2,zero,100265c <_fwalk+0x70>
 1002648:	8080038f 	ldh	r2,14(r16)
 100264c:	8009883a 	mov	r4,r16
 1002650:	15000226 	beq	r2,r20,100265c <_fwalk+0x70>
 1002654:	a83ee83a 	callr	r21
 1002658:	b0acb03a 	or	r22,r22,r2
 100265c:	84001704 	addi	r16,r16,92
 1002660:	947ff61e 	bne	r18,r17,100263c <_fwalk+0x50>
 1002664:	9cc00017 	ldw	r19,0(r19)
 1002668:	983fee1e 	bne	r19,zero,1002624 <_fwalk+0x38>
 100266c:	1001e4c0 	call	1001e4c <__sfp_lock_release>
 1002670:	b005883a 	mov	r2,r22
 1002674:	dfc00717 	ldw	ra,28(sp)
 1002678:	dd800617 	ldw	r22,24(sp)
 100267c:	dd400517 	ldw	r21,20(sp)
 1002680:	dd000417 	ldw	r20,16(sp)
 1002684:	dcc00317 	ldw	r19,12(sp)
 1002688:	dc800217 	ldw	r18,8(sp)
 100268c:	dc400117 	ldw	r17,4(sp)
 1002690:	dc000017 	ldw	r16,0(sp)
 1002694:	dec00804 	addi	sp,sp,32
 1002698:	f800283a 	ret
 100269c:	002d883a 	mov	r22,zero
 10026a0:	003ff206 	br	100266c <_fwalk+0x80>

010026a4 <__smakebuf_r>:
 10026a4:	2880030b 	ldhu	r2,12(r5)
 10026a8:	deffed04 	addi	sp,sp,-76
 10026ac:	dc401015 	stw	r17,64(sp)
 10026b0:	1080008c 	andi	r2,r2,2
 10026b4:	dc000f15 	stw	r16,60(sp)
 10026b8:	dfc01215 	stw	ra,72(sp)
 10026bc:	dc801115 	stw	r18,68(sp)
 10026c0:	2821883a 	mov	r16,r5
 10026c4:	2023883a 	mov	r17,r4
 10026c8:	10000b26 	beq	r2,zero,10026f8 <__smakebuf_r+0x54>
 10026cc:	28c010c4 	addi	r3,r5,67
 10026d0:	00800044 	movi	r2,1
 10026d4:	28800515 	stw	r2,20(r5)
 10026d8:	28c00415 	stw	r3,16(r5)
 10026dc:	28c00015 	stw	r3,0(r5)
 10026e0:	dfc01217 	ldw	ra,72(sp)
 10026e4:	dc801117 	ldw	r18,68(sp)
 10026e8:	dc401017 	ldw	r17,64(sp)
 10026ec:	dc000f17 	ldw	r16,60(sp)
 10026f0:	dec01304 	addi	sp,sp,76
 10026f4:	f800283a 	ret
 10026f8:	2940038f 	ldh	r5,14(r5)
 10026fc:	28002116 	blt	r5,zero,1002784 <__smakebuf_r+0xe0>
 1002700:	d80d883a 	mov	r6,sp
 1002704:	1002c280 	call	1002c28 <_fstat_r>
 1002708:	10001e16 	blt	r2,zero,1002784 <__smakebuf_r+0xe0>
 100270c:	d8800117 	ldw	r2,4(sp)
 1002710:	00e00014 	movui	r3,32768
 1002714:	113c000c 	andi	r4,r2,61440
 1002718:	20c03126 	beq	r4,r3,10027e0 <__smakebuf_r+0x13c>
 100271c:	8080030b 	ldhu	r2,12(r16)
 1002720:	00c80004 	movi	r3,8192
 1002724:	10820014 	ori	r2,r2,2048
 1002728:	8080030d 	sth	r2,12(r16)
 100272c:	20c01e26 	beq	r4,r3,10027a8 <__smakebuf_r+0x104>
 1002730:	04810004 	movi	r18,1024
 1002734:	8809883a 	mov	r4,r17
 1002738:	900b883a 	mov	r5,r18
 100273c:	1000a7c0 	call	1000a7c <_malloc_r>
 1002740:	1009883a 	mov	r4,r2
 1002744:	10003126 	beq	r2,zero,100280c <__smakebuf_r+0x168>
 1002748:	80c0030b 	ldhu	r3,12(r16)
 100274c:	00804034 	movhi	r2,256
 1002750:	1087cf04 	addi	r2,r2,7996
 1002754:	88800f15 	stw	r2,60(r17)
 1002758:	18c02014 	ori	r3,r3,128
 100275c:	84800515 	stw	r18,20(r16)
 1002760:	80c0030d 	sth	r3,12(r16)
 1002764:	81000415 	stw	r4,16(r16)
 1002768:	81000015 	stw	r4,0(r16)
 100276c:	dfc01217 	ldw	ra,72(sp)
 1002770:	dc801117 	ldw	r18,68(sp)
 1002774:	dc401017 	ldw	r17,64(sp)
 1002778:	dc000f17 	ldw	r16,60(sp)
 100277c:	dec01304 	addi	sp,sp,76
 1002780:	f800283a 	ret
 1002784:	80c0030b 	ldhu	r3,12(r16)
 1002788:	1880200c 	andi	r2,r3,128
 100278c:	10000426 	beq	r2,zero,10027a0 <__smakebuf_r+0xfc>
 1002790:	04801004 	movi	r18,64
 1002794:	18820014 	ori	r2,r3,2048
 1002798:	8080030d 	sth	r2,12(r16)
 100279c:	003fe506 	br	1002734 <__smakebuf_r+0x90>
 10027a0:	04810004 	movi	r18,1024
 10027a4:	003ffb06 	br	1002794 <__smakebuf_r+0xf0>
 10027a8:	8140038f 	ldh	r5,14(r16)
 10027ac:	8809883a 	mov	r4,r17
 10027b0:	1002c9c0 	call	1002c9c <_isatty_r>
 10027b4:	103fde26 	beq	r2,zero,1002730 <__smakebuf_r+0x8c>
 10027b8:	8080030b 	ldhu	r2,12(r16)
 10027bc:	80c010c4 	addi	r3,r16,67
 10027c0:	04810004 	movi	r18,1024
 10027c4:	10800054 	ori	r2,r2,1
 10027c8:	8080030d 	sth	r2,12(r16)
 10027cc:	00800044 	movi	r2,1
 10027d0:	80c00415 	stw	r3,16(r16)
 10027d4:	80800515 	stw	r2,20(r16)
 10027d8:	80c00015 	stw	r3,0(r16)
 10027dc:	003fd506 	br	1002734 <__smakebuf_r+0x90>
 10027e0:	80c00a17 	ldw	r3,40(r16)
 10027e4:	00804034 	movhi	r2,256
 10027e8:	108a3604 	addi	r2,r2,10456
 10027ec:	18bfcb1e 	bne	r3,r2,100271c <__smakebuf_r+0x78>
 10027f0:	8080030b 	ldhu	r2,12(r16)
 10027f4:	00c10004 	movi	r3,1024
 10027f8:	1825883a 	mov	r18,r3
 10027fc:	10c4b03a 	or	r2,r2,r3
 1002800:	8080030d 	sth	r2,12(r16)
 1002804:	80c01315 	stw	r3,76(r16)
 1002808:	003fca06 	br	1002734 <__smakebuf_r+0x90>
 100280c:	8100030b 	ldhu	r4,12(r16)
 1002810:	2080800c 	andi	r2,r4,512
 1002814:	103fb21e 	bne	r2,zero,10026e0 <__smakebuf_r+0x3c>
 1002818:	80c010c4 	addi	r3,r16,67
 100281c:	21000094 	ori	r4,r4,2
 1002820:	00800044 	movi	r2,1
 1002824:	80800515 	stw	r2,20(r16)
 1002828:	8100030d 	sth	r4,12(r16)
 100282c:	80c00415 	stw	r3,16(r16)
 1002830:	80c00015 	stw	r3,0(r16)
 1002834:	003faa06 	br	10026e0 <__smakebuf_r+0x3c>

01002838 <memset>:
 1002838:	008000c4 	movi	r2,3
 100283c:	29403fcc 	andi	r5,r5,255
 1002840:	2007883a 	mov	r3,r4
 1002844:	1180022e 	bgeu	r2,r6,1002850 <memset+0x18>
 1002848:	2084703a 	and	r2,r4,r2
 100284c:	10000826 	beq	r2,zero,1002870 <memset+0x38>
 1002850:	30000526 	beq	r6,zero,1002868 <memset+0x30>
 1002854:	2805883a 	mov	r2,r5
 1002858:	30cd883a 	add	r6,r6,r3
 100285c:	18800005 	stb	r2,0(r3)
 1002860:	18c00044 	addi	r3,r3,1
 1002864:	19bffd1e 	bne	r3,r6,100285c <memset+0x24>
 1002868:	2005883a 	mov	r2,r4
 100286c:	f800283a 	ret
 1002870:	2804923a 	slli	r2,r5,8
 1002874:	020003c4 	movi	r8,15
 1002878:	200f883a 	mov	r7,r4
 100287c:	2884b03a 	or	r2,r5,r2
 1002880:	1006943a 	slli	r3,r2,16
 1002884:	10c6b03a 	or	r3,r2,r3
 1002888:	41800a2e 	bgeu	r8,r6,10028b4 <memset+0x7c>
 100288c:	4005883a 	mov	r2,r8
 1002890:	31bffc04 	addi	r6,r6,-16
 1002894:	38c00015 	stw	r3,0(r7)
 1002898:	38c00115 	stw	r3,4(r7)
 100289c:	38c00215 	stw	r3,8(r7)
 10028a0:	38c00315 	stw	r3,12(r7)
 10028a4:	39c00404 	addi	r7,r7,16
 10028a8:	11bff936 	bltu	r2,r6,1002890 <memset+0x58>
 10028ac:	008000c4 	movi	r2,3
 10028b0:	1180052e 	bgeu	r2,r6,10028c8 <memset+0x90>
 10028b4:	31bfff04 	addi	r6,r6,-4
 10028b8:	008000c4 	movi	r2,3
 10028bc:	38c00015 	stw	r3,0(r7)
 10028c0:	39c00104 	addi	r7,r7,4
 10028c4:	11bffb36 	bltu	r2,r6,10028b4 <memset+0x7c>
 10028c8:	3807883a 	mov	r3,r7
 10028cc:	003fe006 	br	1002850 <memset+0x18>

010028d0 <__sclose>:
 10028d0:	2940038f 	ldh	r5,14(r5)
 10028d4:	1002a941 	jmpi	1002a94 <_close_r>

010028d8 <__sseek>:
 10028d8:	defffe04 	addi	sp,sp,-8
 10028dc:	dc000015 	stw	r16,0(sp)
 10028e0:	2821883a 	mov	r16,r5
 10028e4:	2940038f 	ldh	r5,14(r5)
 10028e8:	dfc00115 	stw	ra,4(sp)
 10028ec:	1002d0c0 	call	1002d0c <_lseek_r>
 10028f0:	1007883a 	mov	r3,r2
 10028f4:	00bfffc4 	movi	r2,-1
 10028f8:	18800926 	beq	r3,r2,1002920 <__sseek+0x48>
 10028fc:	8080030b 	ldhu	r2,12(r16)
 1002900:	80c01415 	stw	r3,80(r16)
 1002904:	10840014 	ori	r2,r2,4096
 1002908:	8080030d 	sth	r2,12(r16)
 100290c:	1805883a 	mov	r2,r3
 1002910:	dfc00117 	ldw	ra,4(sp)
 1002914:	dc000017 	ldw	r16,0(sp)
 1002918:	dec00204 	addi	sp,sp,8
 100291c:	f800283a 	ret
 1002920:	8080030b 	ldhu	r2,12(r16)
 1002924:	10bbffcc 	andi	r2,r2,61439
 1002928:	8080030d 	sth	r2,12(r16)
 100292c:	1805883a 	mov	r2,r3
 1002930:	dfc00117 	ldw	ra,4(sp)
 1002934:	dc000017 	ldw	r16,0(sp)
 1002938:	dec00204 	addi	sp,sp,8
 100293c:	f800283a 	ret

01002940 <__swrite>:
 1002940:	2880030b 	ldhu	r2,12(r5)
 1002944:	defffb04 	addi	sp,sp,-20
 1002948:	dcc00315 	stw	r19,12(sp)
 100294c:	1080400c 	andi	r2,r2,256
 1002950:	dc800215 	stw	r18,8(sp)
 1002954:	dc400115 	stw	r17,4(sp)
 1002958:	dc000015 	stw	r16,0(sp)
 100295c:	3027883a 	mov	r19,r6
 1002960:	3825883a 	mov	r18,r7
 1002964:	dfc00415 	stw	ra,16(sp)
 1002968:	2821883a 	mov	r16,r5
 100296c:	000d883a 	mov	r6,zero
 1002970:	01c00084 	movi	r7,2
 1002974:	2023883a 	mov	r17,r4
 1002978:	10000226 	beq	r2,zero,1002984 <__swrite+0x44>
 100297c:	2940038f 	ldh	r5,14(r5)
 1002980:	1002d0c0 	call	1002d0c <_lseek_r>
 1002984:	8080030b 	ldhu	r2,12(r16)
 1002988:	8140038f 	ldh	r5,14(r16)
 100298c:	8809883a 	mov	r4,r17
 1002990:	10bbffcc 	andi	r2,r2,61439
 1002994:	980d883a 	mov	r6,r19
 1002998:	900f883a 	mov	r7,r18
 100299c:	8080030d 	sth	r2,12(r16)
 10029a0:	dfc00417 	ldw	ra,16(sp)
 10029a4:	dcc00317 	ldw	r19,12(sp)
 10029a8:	dc800217 	ldw	r18,8(sp)
 10029ac:	dc400117 	ldw	r17,4(sp)
 10029b0:	dc000017 	ldw	r16,0(sp)
 10029b4:	dec00504 	addi	sp,sp,20
 10029b8:	1002a1c1 	jmpi	1002a1c <_write_r>

010029bc <__sread>:
 10029bc:	defffe04 	addi	sp,sp,-8
 10029c0:	dc000015 	stw	r16,0(sp)
 10029c4:	2821883a 	mov	r16,r5
 10029c8:	2940038f 	ldh	r5,14(r5)
 10029cc:	dfc00115 	stw	ra,4(sp)
 10029d0:	1002d840 	call	1002d84 <_read_r>
 10029d4:	1007883a 	mov	r3,r2
 10029d8:	10000816 	blt	r2,zero,10029fc <__sread+0x40>
 10029dc:	80801417 	ldw	r2,80(r16)
 10029e0:	10c5883a 	add	r2,r2,r3
 10029e4:	80801415 	stw	r2,80(r16)
 10029e8:	1805883a 	mov	r2,r3
 10029ec:	dfc00117 	ldw	ra,4(sp)
 10029f0:	dc000017 	ldw	r16,0(sp)
 10029f4:	dec00204 	addi	sp,sp,8
 10029f8:	f800283a 	ret
 10029fc:	8080030b 	ldhu	r2,12(r16)
 1002a00:	10bbffcc 	andi	r2,r2,61439
 1002a04:	8080030d 	sth	r2,12(r16)
 1002a08:	1805883a 	mov	r2,r3
 1002a0c:	dfc00117 	ldw	ra,4(sp)
 1002a10:	dc000017 	ldw	r16,0(sp)
 1002a14:	dec00204 	addi	sp,sp,8
 1002a18:	f800283a 	ret

01002a1c <_write_r>:
 1002a1c:	defffd04 	addi	sp,sp,-12
 1002a20:	dc000015 	stw	r16,0(sp)
 1002a24:	04004074 	movhi	r16,257
 1002a28:	84006204 	addi	r16,r16,392
 1002a2c:	dc400115 	stw	r17,4(sp)
 1002a30:	80000015 	stw	zero,0(r16)
 1002a34:	2023883a 	mov	r17,r4
 1002a38:	2809883a 	mov	r4,r5
 1002a3c:	300b883a 	mov	r5,r6
 1002a40:	380d883a 	mov	r6,r7
 1002a44:	dfc00215 	stw	ra,8(sp)
 1002a48:	10037c00 	call	10037c0 <write>
 1002a4c:	1007883a 	mov	r3,r2
 1002a50:	00bfffc4 	movi	r2,-1
 1002a54:	18800626 	beq	r3,r2,1002a70 <_write_r+0x54>
 1002a58:	1805883a 	mov	r2,r3
 1002a5c:	dfc00217 	ldw	ra,8(sp)
 1002a60:	dc400117 	ldw	r17,4(sp)
 1002a64:	dc000017 	ldw	r16,0(sp)
 1002a68:	dec00304 	addi	sp,sp,12
 1002a6c:	f800283a 	ret
 1002a70:	80800017 	ldw	r2,0(r16)
 1002a74:	103ff826 	beq	r2,zero,1002a58 <_write_r+0x3c>
 1002a78:	88800015 	stw	r2,0(r17)
 1002a7c:	1805883a 	mov	r2,r3
 1002a80:	dfc00217 	ldw	ra,8(sp)
 1002a84:	dc400117 	ldw	r17,4(sp)
 1002a88:	dc000017 	ldw	r16,0(sp)
 1002a8c:	dec00304 	addi	sp,sp,12
 1002a90:	f800283a 	ret

01002a94 <_close_r>:
 1002a94:	defffd04 	addi	sp,sp,-12
 1002a98:	dc000015 	stw	r16,0(sp)
 1002a9c:	04004074 	movhi	r16,257
 1002aa0:	84006204 	addi	r16,r16,392
 1002aa4:	dc400115 	stw	r17,4(sp)
 1002aa8:	80000015 	stw	zero,0(r16)
 1002aac:	2023883a 	mov	r17,r4
 1002ab0:	2809883a 	mov	r4,r5
 1002ab4:	dfc00215 	stw	ra,8(sp)
 1002ab8:	1002e340 	call	1002e34 <close>
 1002abc:	1007883a 	mov	r3,r2
 1002ac0:	00bfffc4 	movi	r2,-1
 1002ac4:	18800626 	beq	r3,r2,1002ae0 <_close_r+0x4c>
 1002ac8:	1805883a 	mov	r2,r3
 1002acc:	dfc00217 	ldw	ra,8(sp)
 1002ad0:	dc400117 	ldw	r17,4(sp)
 1002ad4:	dc000017 	ldw	r16,0(sp)
 1002ad8:	dec00304 	addi	sp,sp,12
 1002adc:	f800283a 	ret
 1002ae0:	80800017 	ldw	r2,0(r16)
 1002ae4:	103ff826 	beq	r2,zero,1002ac8 <_close_r+0x34>
 1002ae8:	88800015 	stw	r2,0(r17)
 1002aec:	1805883a 	mov	r2,r3
 1002af0:	dfc00217 	ldw	ra,8(sp)
 1002af4:	dc400117 	ldw	r17,4(sp)
 1002af8:	dc000017 	ldw	r16,0(sp)
 1002afc:	dec00304 	addi	sp,sp,12
 1002b00:	f800283a 	ret

01002b04 <_fclose_r>:
 1002b04:	defffc04 	addi	sp,sp,-16
 1002b08:	dc400115 	stw	r17,4(sp)
 1002b0c:	dc000015 	stw	r16,0(sp)
 1002b10:	dfc00315 	stw	ra,12(sp)
 1002b14:	dc800215 	stw	r18,8(sp)
 1002b18:	2821883a 	mov	r16,r5
 1002b1c:	2023883a 	mov	r17,r4
 1002b20:	28002926 	beq	r5,zero,1002bc8 <_fclose_r+0xc4>
 1002b24:	1001e480 	call	1001e48 <__sfp_lock_acquire>
 1002b28:	88000226 	beq	r17,zero,1002b34 <_fclose_r+0x30>
 1002b2c:	88800e17 	ldw	r2,56(r17)
 1002b30:	10002d26 	beq	r2,zero,1002be8 <_fclose_r+0xe4>
 1002b34:	8080030f 	ldh	r2,12(r16)
 1002b38:	10002226 	beq	r2,zero,1002bc4 <_fclose_r+0xc0>
 1002b3c:	8809883a 	mov	r4,r17
 1002b40:	800b883a 	mov	r5,r16
 1002b44:	1001bc00 	call	1001bc0 <_fflush_r>
 1002b48:	1025883a 	mov	r18,r2
 1002b4c:	80800b17 	ldw	r2,44(r16)
 1002b50:	10000426 	beq	r2,zero,1002b64 <_fclose_r+0x60>
 1002b54:	81400717 	ldw	r5,28(r16)
 1002b58:	8809883a 	mov	r4,r17
 1002b5c:	103ee83a 	callr	r2
 1002b60:	10002a16 	blt	r2,zero,1002c0c <_fclose_r+0x108>
 1002b64:	8080030b 	ldhu	r2,12(r16)
 1002b68:	1080200c 	andi	r2,r2,128
 1002b6c:	1000231e 	bne	r2,zero,1002bfc <_fclose_r+0xf8>
 1002b70:	81400c17 	ldw	r5,48(r16)
 1002b74:	28000526 	beq	r5,zero,1002b8c <_fclose_r+0x88>
 1002b78:	80801004 	addi	r2,r16,64
 1002b7c:	28800226 	beq	r5,r2,1002b88 <_fclose_r+0x84>
 1002b80:	8809883a 	mov	r4,r17
 1002b84:	10022100 	call	1002210 <_free_r>
 1002b88:	80000c15 	stw	zero,48(r16)
 1002b8c:	81401117 	ldw	r5,68(r16)
 1002b90:	28000326 	beq	r5,zero,1002ba0 <_fclose_r+0x9c>
 1002b94:	8809883a 	mov	r4,r17
 1002b98:	10022100 	call	1002210 <_free_r>
 1002b9c:	80001115 	stw	zero,68(r16)
 1002ba0:	8000030d 	sth	zero,12(r16)
 1002ba4:	1001e4c0 	call	1001e4c <__sfp_lock_release>
 1002ba8:	9005883a 	mov	r2,r18
 1002bac:	dfc00317 	ldw	ra,12(sp)
 1002bb0:	dc800217 	ldw	r18,8(sp)
 1002bb4:	dc400117 	ldw	r17,4(sp)
 1002bb8:	dc000017 	ldw	r16,0(sp)
 1002bbc:	dec00404 	addi	sp,sp,16
 1002bc0:	f800283a 	ret
 1002bc4:	1001e4c0 	call	1001e4c <__sfp_lock_release>
 1002bc8:	0025883a 	mov	r18,zero
 1002bcc:	9005883a 	mov	r2,r18
 1002bd0:	dfc00317 	ldw	ra,12(sp)
 1002bd4:	dc800217 	ldw	r18,8(sp)
 1002bd8:	dc400117 	ldw	r17,4(sp)
 1002bdc:	dc000017 	ldw	r16,0(sp)
 1002be0:	dec00404 	addi	sp,sp,16
 1002be4:	f800283a 	ret
 1002be8:	8809883a 	mov	r4,r17
 1002bec:	1001e580 	call	1001e58 <__sinit>
 1002bf0:	8080030f 	ldh	r2,12(r16)
 1002bf4:	103fd11e 	bne	r2,zero,1002b3c <_fclose_r+0x38>
 1002bf8:	003ff206 	br	1002bc4 <_fclose_r+0xc0>
 1002bfc:	81400417 	ldw	r5,16(r16)
 1002c00:	8809883a 	mov	r4,r17
 1002c04:	10022100 	call	1002210 <_free_r>
 1002c08:	003fd906 	br	1002b70 <_fclose_r+0x6c>
 1002c0c:	04bfffc4 	movi	r18,-1
 1002c10:	003fd406 	br	1002b64 <_fclose_r+0x60>

01002c14 <fclose>:
 1002c14:	00804074 	movhi	r2,257
 1002c18:	10b9a904 	addi	r2,r2,-6492
 1002c1c:	200b883a 	mov	r5,r4
 1002c20:	11000017 	ldw	r4,0(r2)
 1002c24:	1002b041 	jmpi	1002b04 <_fclose_r>

01002c28 <_fstat_r>:
 1002c28:	defffd04 	addi	sp,sp,-12
 1002c2c:	dc000015 	stw	r16,0(sp)
 1002c30:	04004074 	movhi	r16,257
 1002c34:	84006204 	addi	r16,r16,392
 1002c38:	dc400115 	stw	r17,4(sp)
 1002c3c:	80000015 	stw	zero,0(r16)
 1002c40:	2023883a 	mov	r17,r4
 1002c44:	2809883a 	mov	r4,r5
 1002c48:	300b883a 	mov	r5,r6
 1002c4c:	dfc00215 	stw	ra,8(sp)
 1002c50:	1002fc00 	call	1002fc0 <fstat>
 1002c54:	1007883a 	mov	r3,r2
 1002c58:	00bfffc4 	movi	r2,-1
 1002c5c:	18800626 	beq	r3,r2,1002c78 <_fstat_r+0x50>
 1002c60:	1805883a 	mov	r2,r3
 1002c64:	dfc00217 	ldw	ra,8(sp)
 1002c68:	dc400117 	ldw	r17,4(sp)
 1002c6c:	dc000017 	ldw	r16,0(sp)
 1002c70:	dec00304 	addi	sp,sp,12
 1002c74:	f800283a 	ret
 1002c78:	80800017 	ldw	r2,0(r16)
 1002c7c:	103ff826 	beq	r2,zero,1002c60 <_fstat_r+0x38>
 1002c80:	88800015 	stw	r2,0(r17)
 1002c84:	1805883a 	mov	r2,r3
 1002c88:	dfc00217 	ldw	ra,8(sp)
 1002c8c:	dc400117 	ldw	r17,4(sp)
 1002c90:	dc000017 	ldw	r16,0(sp)
 1002c94:	dec00304 	addi	sp,sp,12
 1002c98:	f800283a 	ret

01002c9c <_isatty_r>:
 1002c9c:	defffd04 	addi	sp,sp,-12
 1002ca0:	dc000015 	stw	r16,0(sp)
 1002ca4:	04004074 	movhi	r16,257
 1002ca8:	84006204 	addi	r16,r16,392
 1002cac:	dc400115 	stw	r17,4(sp)
 1002cb0:	80000015 	stw	zero,0(r16)
 1002cb4:	2023883a 	mov	r17,r4
 1002cb8:	2809883a 	mov	r4,r5
 1002cbc:	dfc00215 	stw	ra,8(sp)
 1002cc0:	10030f80 	call	10030f8 <isatty>
 1002cc4:	1007883a 	mov	r3,r2
 1002cc8:	00bfffc4 	movi	r2,-1
 1002ccc:	18800626 	beq	r3,r2,1002ce8 <_isatty_r+0x4c>
 1002cd0:	1805883a 	mov	r2,r3
 1002cd4:	dfc00217 	ldw	ra,8(sp)
 1002cd8:	dc400117 	ldw	r17,4(sp)
 1002cdc:	dc000017 	ldw	r16,0(sp)
 1002ce0:	dec00304 	addi	sp,sp,12
 1002ce4:	f800283a 	ret
 1002ce8:	80800017 	ldw	r2,0(r16)
 1002cec:	103ff826 	beq	r2,zero,1002cd0 <_isatty_r+0x34>
 1002cf0:	88800015 	stw	r2,0(r17)
 1002cf4:	1805883a 	mov	r2,r3
 1002cf8:	dfc00217 	ldw	ra,8(sp)
 1002cfc:	dc400117 	ldw	r17,4(sp)
 1002d00:	dc000017 	ldw	r16,0(sp)
 1002d04:	dec00304 	addi	sp,sp,12
 1002d08:	f800283a 	ret

01002d0c <_lseek_r>:
 1002d0c:	defffd04 	addi	sp,sp,-12
 1002d10:	dc000015 	stw	r16,0(sp)
 1002d14:	04004074 	movhi	r16,257
 1002d18:	84006204 	addi	r16,r16,392
 1002d1c:	dc400115 	stw	r17,4(sp)
 1002d20:	80000015 	stw	zero,0(r16)
 1002d24:	2023883a 	mov	r17,r4
 1002d28:	2809883a 	mov	r4,r5
 1002d2c:	300b883a 	mov	r5,r6
 1002d30:	380d883a 	mov	r6,r7
 1002d34:	dfc00215 	stw	ra,8(sp)
 1002d38:	10033080 	call	1003308 <lseek>
 1002d3c:	1007883a 	mov	r3,r2
 1002d40:	00bfffc4 	movi	r2,-1
 1002d44:	18800626 	beq	r3,r2,1002d60 <_lseek_r+0x54>
 1002d48:	1805883a 	mov	r2,r3
 1002d4c:	dfc00217 	ldw	ra,8(sp)
 1002d50:	dc400117 	ldw	r17,4(sp)
 1002d54:	dc000017 	ldw	r16,0(sp)
 1002d58:	dec00304 	addi	sp,sp,12
 1002d5c:	f800283a 	ret
 1002d60:	80800017 	ldw	r2,0(r16)
 1002d64:	103ff826 	beq	r2,zero,1002d48 <_lseek_r+0x3c>
 1002d68:	88800015 	stw	r2,0(r17)
 1002d6c:	1805883a 	mov	r2,r3
 1002d70:	dfc00217 	ldw	ra,8(sp)
 1002d74:	dc400117 	ldw	r17,4(sp)
 1002d78:	dc000017 	ldw	r16,0(sp)
 1002d7c:	dec00304 	addi	sp,sp,12
 1002d80:	f800283a 	ret

01002d84 <_read_r>:
 1002d84:	defffd04 	addi	sp,sp,-12
 1002d88:	dc000015 	stw	r16,0(sp)
 1002d8c:	04004074 	movhi	r16,257
 1002d90:	84006204 	addi	r16,r16,392
 1002d94:	dc400115 	stw	r17,4(sp)
 1002d98:	80000015 	stw	zero,0(r16)
 1002d9c:	2023883a 	mov	r17,r4
 1002da0:	2809883a 	mov	r4,r5
 1002da4:	300b883a 	mov	r5,r6
 1002da8:	380d883a 	mov	r6,r7
 1002dac:	dfc00215 	stw	ra,8(sp)
 1002db0:	10035080 	call	1003508 <read>
 1002db4:	1007883a 	mov	r3,r2
 1002db8:	00bfffc4 	movi	r2,-1
 1002dbc:	18800626 	beq	r3,r2,1002dd8 <_read_r+0x54>
 1002dc0:	1805883a 	mov	r2,r3
 1002dc4:	dfc00217 	ldw	ra,8(sp)
 1002dc8:	dc400117 	ldw	r17,4(sp)
 1002dcc:	dc000017 	ldw	r16,0(sp)
 1002dd0:	dec00304 	addi	sp,sp,12
 1002dd4:	f800283a 	ret
 1002dd8:	80800017 	ldw	r2,0(r16)
 1002ddc:	103ff826 	beq	r2,zero,1002dc0 <_read_r+0x3c>
 1002de0:	88800015 	stw	r2,0(r17)
 1002de4:	1805883a 	mov	r2,r3
 1002de8:	dfc00217 	ldw	ra,8(sp)
 1002dec:	dc400117 	ldw	r17,4(sp)
 1002df0:	dc000017 	ldw	r16,0(sp)
 1002df4:	dec00304 	addi	sp,sp,12
 1002df8:	f800283a 	ret

01002dfc <__mulsi3>:
 1002dfc:	20000a26 	beq	r4,zero,1002e28 <__mulsi3+0x2c>
 1002e00:	0007883a 	mov	r3,zero
 1002e04:	2080004c 	andi	r2,r4,1
 1002e08:	1005003a 	cmpeq	r2,r2,zero
 1002e0c:	2008d07a 	srli	r4,r4,1
 1002e10:	1000011e 	bne	r2,zero,1002e18 <__mulsi3+0x1c>
 1002e14:	1947883a 	add	r3,r3,r5
 1002e18:	294b883a 	add	r5,r5,r5
 1002e1c:	203ff91e 	bne	r4,zero,1002e04 <__mulsi3+0x8>
 1002e20:	1805883a 	mov	r2,r3
 1002e24:	f800283a 	ret
 1002e28:	0007883a 	mov	r3,zero
 1002e2c:	1805883a 	mov	r2,r3
 1002e30:	f800283a 	ret

01002e34 <close>:
 *
 * ALT_CLOSE is mapped onto the close() system call in alt_syscall.h
 */
 
int ALT_CLOSE (int fildes)
{
 1002e34:	defff804 	addi	sp,sp,-32
 1002e38:	dfc00715 	stw	ra,28(sp)
 1002e3c:	df000615 	stw	fp,24(sp)
 1002e40:	df000604 	addi	fp,sp,24
 1002e44:	e13ffc15 	stw	r4,-16(fp)
   * A common error case is that when the file descriptor was created, the call
   * to open() failed resulting in a negative file descriptor. This is trapped
   * below so that we don't try and process an invalid file descriptor.
   */

  fd = (fildes < 0) ? NULL : &alt_fd_list[fildes];
 1002e48:	e0bffc17 	ldw	r2,-16(fp)
 1002e4c:	1004803a 	cmplt	r2,r2,zero
 1002e50:	1000091e 	bne	r2,zero,1002e78 <close+0x44>
 1002e54:	e13ffc17 	ldw	r4,-16(fp)
 1002e58:	01400304 	movi	r5,12
 1002e5c:	1002dfc0 	call	1002dfc <__mulsi3>
 1002e60:	1007883a 	mov	r3,r2
 1002e64:	00804074 	movhi	r2,257
 1002e68:	10b51b04 	addi	r2,r2,-11156
 1002e6c:	1887883a 	add	r3,r3,r2
 1002e70:	e0ffff15 	stw	r3,-4(fp)
 1002e74:	00000106 	br	1002e7c <close+0x48>
 1002e78:	e03fff15 	stw	zero,-4(fp)
 1002e7c:	e0bfff17 	ldw	r2,-4(fp)
 1002e80:	e0bffb15 	stw	r2,-20(fp)

  if (fd)
 1002e84:	e0bffb17 	ldw	r2,-20(fp)
 1002e88:	1005003a 	cmpeq	r2,r2,zero
 1002e8c:	10001d1e 	bne	r2,zero,1002f04 <close+0xd0>
    /*
     * If the associated file system/device has a close function, call it so 
     * that any necessary cleanup code can run.
     */

    rval = (fd->dev->close) ? fd->dev->close(fd) : 0;
 1002e90:	e0bffb17 	ldw	r2,-20(fp)
 1002e94:	10800017 	ldw	r2,0(r2)
 1002e98:	10800417 	ldw	r2,16(r2)
 1002e9c:	1005003a 	cmpeq	r2,r2,zero
 1002ea0:	1000071e 	bne	r2,zero,1002ec0 <close+0x8c>
 1002ea4:	e0bffb17 	ldw	r2,-20(fp)
 1002ea8:	10800017 	ldw	r2,0(r2)
 1002eac:	10800417 	ldw	r2,16(r2)
 1002eb0:	e13ffb17 	ldw	r4,-20(fp)
 1002eb4:	103ee83a 	callr	r2
 1002eb8:	e0bffe15 	stw	r2,-8(fp)
 1002ebc:	00000106 	br	1002ec4 <close+0x90>
 1002ec0:	e03ffe15 	stw	zero,-8(fp)
 1002ec4:	e0bffe17 	ldw	r2,-8(fp)
 1002ec8:	e0bffa15 	stw	r2,-24(fp)

    /* Free the file descriptor structure and return. */

    alt_release_fd (fildes);
 1002ecc:	e13ffc17 	ldw	r4,-16(fp)
 1002ed0:	100368c0 	call	100368c <alt_release_fd>
    if (rval < 0)
 1002ed4:	e0bffa17 	ldw	r2,-24(fp)
 1002ed8:	1004403a 	cmpge	r2,r2,zero
 1002edc:	1000071e 	bne	r2,zero,1002efc <close+0xc8>
    {
      ALT_ERRNO = -rval;
 1002ee0:	1002f340 	call	1002f34 <alt_get_errno>
 1002ee4:	e0fffa17 	ldw	r3,-24(fp)
 1002ee8:	00c7c83a 	sub	r3,zero,r3
 1002eec:	10c00015 	stw	r3,0(r2)
      return -1;
 1002ef0:	00bfffc4 	movi	r2,-1
 1002ef4:	e0bffd15 	stw	r2,-12(fp)
 1002ef8:	00000806 	br	1002f1c <close+0xe8>
    }
    return 0;
 1002efc:	e03ffd15 	stw	zero,-12(fp)
 1002f00:	00000606 	br	1002f1c <close+0xe8>
  }
  else
  {
    ALT_ERRNO = EBADFD;
 1002f04:	1002f340 	call	1002f34 <alt_get_errno>
 1002f08:	1007883a 	mov	r3,r2
 1002f0c:	00801444 	movi	r2,81
 1002f10:	18800015 	stw	r2,0(r3)
    return -1;
 1002f14:	00bfffc4 	movi	r2,-1
 1002f18:	e0bffd15 	stw	r2,-12(fp)
 1002f1c:	e0bffd17 	ldw	r2,-12(fp)
  }
}
 1002f20:	e037883a 	mov	sp,fp
 1002f24:	dfc00117 	ldw	ra,4(sp)
 1002f28:	df000017 	ldw	fp,0(sp)
 1002f2c:	dec00204 	addi	sp,sp,8
 1002f30:	f800283a 	ret

01002f34 <alt_get_errno>:
#undef errno

extern int errno;

static ALT_INLINE int* alt_get_errno(void)
{
 1002f34:	defffd04 	addi	sp,sp,-12
 1002f38:	dfc00215 	stw	ra,8(sp)
 1002f3c:	df000115 	stw	fp,4(sp)
 1002f40:	df000104 	addi	fp,sp,4
  return ((alt_errno) ? alt_errno() : &errno);
 1002f44:	00804074 	movhi	r2,257
 1002f48:	10b9b204 	addi	r2,r2,-6456
 1002f4c:	10800017 	ldw	r2,0(r2)
 1002f50:	1005003a 	cmpeq	r2,r2,zero
 1002f54:	1000061e 	bne	r2,zero,1002f70 <alt_get_errno+0x3c>
 1002f58:	00804074 	movhi	r2,257
 1002f5c:	10b9b204 	addi	r2,r2,-6456
 1002f60:	10800017 	ldw	r2,0(r2)
 1002f64:	103ee83a 	callr	r2
 1002f68:	e0bfff15 	stw	r2,-4(fp)
 1002f6c:	00000306 	br	1002f7c <alt_get_errno+0x48>
 1002f70:	00804074 	movhi	r2,257
 1002f74:	10806204 	addi	r2,r2,392
 1002f78:	e0bfff15 	stw	r2,-4(fp)
 1002f7c:	e0bfff17 	ldw	r2,-4(fp)
}
 1002f80:	e037883a 	mov	sp,fp
 1002f84:	dfc00117 	ldw	ra,4(sp)
 1002f88:	df000017 	ldw	fp,0(sp)
 1002f8c:	dec00204 	addi	sp,sp,8
 1002f90:	f800283a 	ret

01002f94 <alt_dev_null_write>:
 * by the alt_dev_null device. It simple discards all data passed to it, and
 * indicates that the data has been successfully transmitted.
 */

static int alt_dev_null_write (alt_fd* fd, const char* ptr, int len)
{
 1002f94:	defffc04 	addi	sp,sp,-16
 1002f98:	df000315 	stw	fp,12(sp)
 1002f9c:	df000304 	addi	fp,sp,12
 1002fa0:	e13ffd15 	stw	r4,-12(fp)
 1002fa4:	e17ffe15 	stw	r5,-8(fp)
 1002fa8:	e1bfff15 	stw	r6,-4(fp)
  return len;
 1002fac:	e0bfff17 	ldw	r2,-4(fp)
}
 1002fb0:	e037883a 	mov	sp,fp
 1002fb4:	df000017 	ldw	fp,0(sp)
 1002fb8:	dec00104 	addi	sp,sp,4
 1002fbc:	f800283a 	ret

01002fc0 <fstat>:
}

#else /* !ALT_USE_DIRECT_DRIVERS */

int ALT_FSTAT (int file, struct stat *st)
{
 1002fc0:	defff904 	addi	sp,sp,-28
 1002fc4:	dfc00615 	stw	ra,24(sp)
 1002fc8:	df000515 	stw	fp,20(sp)
 1002fcc:	df000504 	addi	fp,sp,20
 1002fd0:	e13ffc15 	stw	r4,-16(fp)
 1002fd4:	e17ffd15 	stw	r5,-12(fp)
   * A common error case is that when the file descriptor was created, the call
   * to open() failed resulting in a negative file descriptor. This is trapped
   * below so that we don't try and process an invalid file descriptor.
   */

  fd = (file < 0) ? NULL : &alt_fd_list[file];
 1002fd8:	e0bffc17 	ldw	r2,-16(fp)
 1002fdc:	1004803a 	cmplt	r2,r2,zero
 1002fe0:	1000091e 	bne	r2,zero,1003008 <fstat+0x48>
 1002fe4:	e13ffc17 	ldw	r4,-16(fp)
 1002fe8:	01400304 	movi	r5,12
 1002fec:	1002dfc0 	call	1002dfc <__mulsi3>
 1002ff0:	1007883a 	mov	r3,r2
 1002ff4:	00804074 	movhi	r2,257
 1002ff8:	10b51b04 	addi	r2,r2,-11156
 1002ffc:	1887883a 	add	r3,r3,r2
 1003000:	e0ffff15 	stw	r3,-4(fp)
 1003004:	00000106 	br	100300c <fstat+0x4c>
 1003008:	e03fff15 	stw	zero,-4(fp)
 100300c:	e0bfff17 	ldw	r2,-4(fp)
 1003010:	e0bffb15 	stw	r2,-20(fp)
  
  if (fd)
 1003014:	e0bffb17 	ldw	r2,-20(fp)
 1003018:	1005003a 	cmpeq	r2,r2,zero
 100301c:	1000121e 	bne	r2,zero,1003068 <fstat+0xa8>
  {
    /* Call the drivers fstat() function to fill out the "st" structure. */

    if (fd->dev->fstat)
 1003020:	e0bffb17 	ldw	r2,-20(fp)
 1003024:	10800017 	ldw	r2,0(r2)
 1003028:	10800817 	ldw	r2,32(r2)
 100302c:	1005003a 	cmpeq	r2,r2,zero
 1003030:	1000081e 	bne	r2,zero,1003054 <fstat+0x94>
    {
      return fd->dev->fstat(fd, st);
 1003034:	e0bffb17 	ldw	r2,-20(fp)
 1003038:	10800017 	ldw	r2,0(r2)
 100303c:	10800817 	ldw	r2,32(r2)
 1003040:	e13ffb17 	ldw	r4,-20(fp)
 1003044:	e17ffd17 	ldw	r5,-12(fp)
 1003048:	103ee83a 	callr	r2
 100304c:	e0bffe15 	stw	r2,-8(fp)
 1003050:	00000b06 	br	1003080 <fstat+0xc0>
     * device.
     */
 
    else
    {
      st->st_mode = _IFCHR;
 1003054:	e0fffd17 	ldw	r3,-12(fp)
 1003058:	00880004 	movi	r2,8192
 100305c:	18800115 	stw	r2,4(r3)
      return 0;
 1003060:	e03ffe15 	stw	zero,-8(fp)
 1003064:	00000606 	br	1003080 <fstat+0xc0>
    }
  }
  else
  {
    ALT_ERRNO = EBADFD;
 1003068:	10030980 	call	1003098 <alt_get_errno>
 100306c:	1007883a 	mov	r3,r2
 1003070:	00801444 	movi	r2,81
 1003074:	18800015 	stw	r2,0(r3)
    return -1;
 1003078:	00bfffc4 	movi	r2,-1
 100307c:	e0bffe15 	stw	r2,-8(fp)
 1003080:	e0bffe17 	ldw	r2,-8(fp)
  }
}
 1003084:	e037883a 	mov	sp,fp
 1003088:	dfc00117 	ldw	ra,4(sp)
 100308c:	df000017 	ldw	fp,0(sp)
 1003090:	dec00204 	addi	sp,sp,8
 1003094:	f800283a 	ret

01003098 <alt_get_errno>:
#undef errno

extern int errno;

static ALT_INLINE int* alt_get_errno(void)
{
 1003098:	defffd04 	addi	sp,sp,-12
 100309c:	dfc00215 	stw	ra,8(sp)
 10030a0:	df000115 	stw	fp,4(sp)
 10030a4:	df000104 	addi	fp,sp,4
  return ((alt_errno) ? alt_errno() : &errno);
 10030a8:	00804074 	movhi	r2,257
 10030ac:	10b9b204 	addi	r2,r2,-6456
 10030b0:	10800017 	ldw	r2,0(r2)
 10030b4:	1005003a 	cmpeq	r2,r2,zero
 10030b8:	1000061e 	bne	r2,zero,10030d4 <alt_get_errno+0x3c>
 10030bc:	00804074 	movhi	r2,257
 10030c0:	10b9b204 	addi	r2,r2,-6456
 10030c4:	10800017 	ldw	r2,0(r2)
 10030c8:	103ee83a 	callr	r2
 10030cc:	e0bfff15 	stw	r2,-4(fp)
 10030d0:	00000306 	br	10030e0 <alt_get_errno+0x48>
 10030d4:	00804074 	movhi	r2,257
 10030d8:	10806204 	addi	r2,r2,392
 10030dc:	e0bfff15 	stw	r2,-4(fp)
 10030e0:	e0bfff17 	ldw	r2,-4(fp)
}
 10030e4:	e037883a 	mov	sp,fp
 10030e8:	dfc00117 	ldw	ra,4(sp)
 10030ec:	df000017 	ldw	fp,0(sp)
 10030f0:	dec00204 	addi	sp,sp,8
 10030f4:	f800283a 	ret

010030f8 <isatty>:
 *
 * ALT_ISATTY is mapped onto the isatty() system call in alt_syscall.h
 */
 
int ALT_ISATTY (int file)
{
 10030f8:	deffeb04 	addi	sp,sp,-84
 10030fc:	dfc01415 	stw	ra,80(sp)
 1003100:	df001315 	stw	fp,76(sp)
 1003104:	df001304 	addi	fp,sp,76
 1003108:	e13ffd15 	stw	r4,-12(fp)
   * A common error case is that when the file descriptor was created, the call
   * to open() failed resulting in a negative file descriptor. This is trapped
   * below so that we don't try and process an invalid file descriptor.
   */

  fd = (file < 0) ? NULL : &alt_fd_list[file];
 100310c:	e0bffd17 	ldw	r2,-12(fp)
 1003110:	1004803a 	cmplt	r2,r2,zero
 1003114:	1000091e 	bne	r2,zero,100313c <isatty+0x44>
 1003118:	e13ffd17 	ldw	r4,-12(fp)
 100311c:	01400304 	movi	r5,12
 1003120:	1002dfc0 	call	1002dfc <__mulsi3>
 1003124:	1007883a 	mov	r3,r2
 1003128:	00804074 	movhi	r2,257
 100312c:	10b51b04 	addi	r2,r2,-11156
 1003130:	1887883a 	add	r3,r3,r2
 1003134:	e0ffff15 	stw	r3,-4(fp)
 1003138:	00000106 	br	1003140 <isatty+0x48>
 100313c:	e03fff15 	stw	zero,-4(fp)
 1003140:	e0bfff17 	ldw	r2,-4(fp)
 1003144:	e0bfed15 	stw	r2,-76(fp)
  
  if (fd)
 1003148:	e0bfed17 	ldw	r2,-76(fp)
 100314c:	1005003a 	cmpeq	r2,r2,zero
 1003150:	10000f1e 	bne	r2,zero,1003190 <isatty+0x98>
    /*
     * If a device driver does not provide an fstat() function, then it is 
     * treated as a terminal device by default.
     */

    if (!fd->dev->fstat)
 1003154:	e0bfed17 	ldw	r2,-76(fp)
 1003158:	10800017 	ldw	r2,0(r2)
 100315c:	10800817 	ldw	r2,32(r2)
 1003160:	1004c03a 	cmpne	r2,r2,zero
 1003164:	1000031e 	bne	r2,zero,1003174 <isatty+0x7c>
    {
      return 1;
 1003168:	00800044 	movi	r2,1
 100316c:	e0bffe15 	stw	r2,-8(fp)
 1003170:	00000c06 	br	10031a4 <isatty+0xac>
     * this is called so that the device can identify itself.
     */ 

    else
    {
      fstat (file, &stat);
 1003174:	e17fee04 	addi	r5,fp,-72
 1003178:	e13ffd17 	ldw	r4,-12(fp)
 100317c:	1002fc00 	call	1002fc0 <fstat>
      return (stat.st_mode == _IFCHR) ? 1 : 0;
 1003180:	e0bfef17 	ldw	r2,-68(fp)
 1003184:	10880020 	cmpeqi	r2,r2,8192
 1003188:	e0bffe15 	stw	r2,-8(fp)
 100318c:	00000506 	br	10031a4 <isatty+0xac>
    }
  }
  else
  {
    ALT_ERRNO = EBADFD;
 1003190:	10031bc0 	call	10031bc <alt_get_errno>
 1003194:	1007883a 	mov	r3,r2
 1003198:	00801444 	movi	r2,81
 100319c:	18800015 	stw	r2,0(r3)
    return 0;
 10031a0:	e03ffe15 	stw	zero,-8(fp)
 10031a4:	e0bffe17 	ldw	r2,-8(fp)
  }
}
 10031a8:	e037883a 	mov	sp,fp
 10031ac:	dfc00117 	ldw	ra,4(sp)
 10031b0:	df000017 	ldw	fp,0(sp)
 10031b4:	dec00204 	addi	sp,sp,8
 10031b8:	f800283a 	ret

010031bc <alt_get_errno>:
#undef errno

extern int errno;

static ALT_INLINE int* alt_get_errno(void)
{
 10031bc:	defffd04 	addi	sp,sp,-12
 10031c0:	dfc00215 	stw	ra,8(sp)
 10031c4:	df000115 	stw	fp,4(sp)
 10031c8:	df000104 	addi	fp,sp,4
  return ((alt_errno) ? alt_errno() : &errno);
 10031cc:	00804074 	movhi	r2,257
 10031d0:	10b9b204 	addi	r2,r2,-6456
 10031d4:	10800017 	ldw	r2,0(r2)
 10031d8:	1005003a 	cmpeq	r2,r2,zero
 10031dc:	1000061e 	bne	r2,zero,10031f8 <alt_get_errno+0x3c>
 10031e0:	00804074 	movhi	r2,257
 10031e4:	10b9b204 	addi	r2,r2,-6456
 10031e8:	10800017 	ldw	r2,0(r2)
 10031ec:	103ee83a 	callr	r2
 10031f0:	e0bfff15 	stw	r2,-4(fp)
 10031f4:	00000306 	br	1003204 <alt_get_errno+0x48>
 10031f8:	00804074 	movhi	r2,257
 10031fc:	10806204 	addi	r2,r2,392
 1003200:	e0bfff15 	stw	r2,-4(fp)
 1003204:	e0bfff17 	ldw	r2,-4(fp)
}
 1003208:	e037883a 	mov	sp,fp
 100320c:	dfc00117 	ldw	ra,4(sp)
 1003210:	df000017 	ldw	fp,0(sp)
 1003214:	dec00204 	addi	sp,sp,8
 1003218:	f800283a 	ret

0100321c <alt_load>:
 * there is no bootloader, so this application is responsible for loading to
 * RAM any sections that are required.
 */  

void alt_load (void)
{
 100321c:	defffe04 	addi	sp,sp,-8
 1003220:	dfc00115 	stw	ra,4(sp)
 1003224:	df000015 	stw	fp,0(sp)
 1003228:	d839883a 	mov	fp,sp
  /* 
   * Copy the .rwdata section. 
   */

  alt_load_section (&__flash_rwdata_start, 
 100322c:	01004074 	movhi	r4,257
 1003230:	2139b704 	addi	r4,r4,-6436
 1003234:	01404074 	movhi	r5,257
 1003238:	29730f04 	addi	r5,r5,-13252
 100323c:	01804074 	movhi	r6,257
 1003240:	31b9b704 	addi	r6,r6,-6436
 1003244:	100329c0 	call	100329c <alt_load_section>

  /*
   * Copy the exception handler.
   */

  alt_load_section (&__flash_exceptions_start, 
 1003248:	01004034 	movhi	r4,256
 100324c:	21000804 	addi	r4,r4,32
 1003250:	01404034 	movhi	r5,256
 1003254:	29400804 	addi	r5,r5,32
 1003258:	01804034 	movhi	r6,256
 100325c:	31806d04 	addi	r6,r6,436
 1003260:	100329c0 	call	100329c <alt_load_section>

  /*
   * Copy the .rodata section.
   */

  alt_load_section (&__flash_rodata_start, 
 1003264:	01004074 	movhi	r4,257
 1003268:	21321204 	addi	r4,r4,-14264
 100326c:	01404074 	movhi	r5,257
 1003270:	29721204 	addi	r5,r5,-14264
 1003274:	01804074 	movhi	r6,257
 1003278:	31b30f04 	addi	r6,r6,-13252
 100327c:	100329c0 	call	100329c <alt_load_section>
  
  /*
   * Now ensure that the caches are in synch.
   */
  
  alt_dcache_flush_all();
 1003280:	10091640 	call	1009164 <alt_dcache_flush_all>
  alt_icache_flush_all();
 1003284:	10093f00 	call	10093f0 <alt_icache_flush_all>
}
 1003288:	e037883a 	mov	sp,fp
 100328c:	dfc00117 	ldw	ra,4(sp)
 1003290:	df000017 	ldw	fp,0(sp)
 1003294:	dec00204 	addi	sp,sp,8
 1003298:	f800283a 	ret

0100329c <alt_load_section>:
 */

static void ALT_INLINE alt_load_section (alt_u32* from, 
                                         alt_u32* to, 
                                         alt_u32* end)
{
 100329c:	defffc04 	addi	sp,sp,-16
 10032a0:	df000315 	stw	fp,12(sp)
 10032a4:	df000304 	addi	fp,sp,12
 10032a8:	e13ffd15 	stw	r4,-12(fp)
 10032ac:	e17ffe15 	stw	r5,-8(fp)
 10032b0:	e1bfff15 	stw	r6,-4(fp)
  if (to != from)
 10032b4:	e0fffe17 	ldw	r3,-8(fp)
 10032b8:	e0bffd17 	ldw	r2,-12(fp)
 10032bc:	18800e26 	beq	r3,r2,10032f8 <alt_load_section+0x5c>
  {
    while( to != end )
 10032c0:	00000a06 	br	10032ec <alt_load_section+0x50>
    {
      *to++ = *from++;
 10032c4:	e0bffd17 	ldw	r2,-12(fp)
 10032c8:	10c00017 	ldw	r3,0(r2)
 10032cc:	e0bffe17 	ldw	r2,-8(fp)
 10032d0:	10c00015 	stw	r3,0(r2)
 10032d4:	e0bffe17 	ldw	r2,-8(fp)
 10032d8:	10800104 	addi	r2,r2,4
 10032dc:	e0bffe15 	stw	r2,-8(fp)
 10032e0:	e0bffd17 	ldw	r2,-12(fp)
 10032e4:	10800104 	addi	r2,r2,4
 10032e8:	e0bffd15 	stw	r2,-12(fp)
                                         alt_u32* to, 
                                         alt_u32* end)
{
  if (to != from)
  {
    while( to != end )
 10032ec:	e0fffe17 	ldw	r3,-8(fp)
 10032f0:	e0bfff17 	ldw	r2,-4(fp)
 10032f4:	18bff31e 	bne	r3,r2,10032c4 <alt_load_section+0x28>
    {
      *to++ = *from++;
    }
  }
}
 10032f8:	e037883a 	mov	sp,fp
 10032fc:	df000017 	ldw	fp,0(sp)
 1003300:	dec00104 	addi	sp,sp,4
 1003304:	f800283a 	ret

01003308 <lseek>:
 * ALT_LSEEK is mapped onto the lseek() system call in alt_syscall.h
 *
 */

off_t ALT_LSEEK (int file, off_t ptr, int dir)
{
 1003308:	defff804 	addi	sp,sp,-32
 100330c:	dfc00715 	stw	ra,28(sp)
 1003310:	df000615 	stw	fp,24(sp)
 1003314:	df000604 	addi	fp,sp,24
 1003318:	e13ffc15 	stw	r4,-16(fp)
 100331c:	e17ffd15 	stw	r5,-12(fp)
 1003320:	e1bffe15 	stw	r6,-8(fp)
  alt_fd* fd;
  off_t   rc = 0; 
 1003324:	e03ffa15 	stw	zero,-24(fp)
   * A common error case is that when the file descriptor was created, the call
   * to open() failed resulting in a negative file descriptor. This is trapped
   * below so that we don't try and process an invalid file descriptor.
   */

  fd = (file < 0) ? NULL : &alt_fd_list[file];
 1003328:	e0bffc17 	ldw	r2,-16(fp)
 100332c:	1004803a 	cmplt	r2,r2,zero
 1003330:	1000091e 	bne	r2,zero,1003358 <lseek+0x50>
 1003334:	e13ffc17 	ldw	r4,-16(fp)
 1003338:	01400304 	movi	r5,12
 100333c:	1002dfc0 	call	1002dfc <__mulsi3>
 1003340:	1007883a 	mov	r3,r2
 1003344:	00804074 	movhi	r2,257
 1003348:	10b51b04 	addi	r2,r2,-11156
 100334c:	1887883a 	add	r3,r3,r2
 1003350:	e0ffff15 	stw	r3,-4(fp)
 1003354:	00000106 	br	100335c <lseek+0x54>
 1003358:	e03fff15 	stw	zero,-4(fp)
 100335c:	e0bfff17 	ldw	r2,-4(fp)
 1003360:	e0bffb15 	stw	r2,-20(fp)
  
  if (fd) 
 1003364:	e0bffb17 	ldw	r2,-20(fp)
 1003368:	1005003a 	cmpeq	r2,r2,zero
 100336c:	1000111e 	bne	r2,zero,10033b4 <lseek+0xac>
    /*
     * If the device driver provides an implementation of the lseek() function,
     * then call that to process the request.
     */
 
    if (fd->dev->lseek)
 1003370:	e0bffb17 	ldw	r2,-20(fp)
 1003374:	10800017 	ldw	r2,0(r2)
 1003378:	10800717 	ldw	r2,28(r2)
 100337c:	1005003a 	cmpeq	r2,r2,zero
 1003380:	1000091e 	bne	r2,zero,10033a8 <lseek+0xa0>
    {
      rc = fd->dev->lseek(fd, ptr, dir);
 1003384:	e0bffb17 	ldw	r2,-20(fp)
 1003388:	10800017 	ldw	r2,0(r2)
 100338c:	10800717 	ldw	r2,28(r2)
 1003390:	e13ffb17 	ldw	r4,-20(fp)
 1003394:	e17ffd17 	ldw	r5,-12(fp)
 1003398:	e1bffe17 	ldw	r6,-8(fp)
 100339c:	103ee83a 	callr	r2
 10033a0:	e0bffa15 	stw	r2,-24(fp)
 10033a4:	00000506 	br	10033bc <lseek+0xb4>
     * Otherwise return an error.
     */

    else
    {
      rc = -ENOTSUP;
 10033a8:	00bfde84 	movi	r2,-134
 10033ac:	e0bffa15 	stw	r2,-24(fp)
 10033b0:	00000206 	br	10033bc <lseek+0xb4>
    }
  }
  else  
  {
    rc = -EBADFD;
 10033b4:	00bfebc4 	movi	r2,-81
 10033b8:	e0bffa15 	stw	r2,-24(fp)
  }

  if (rc < 0)
 10033bc:	e0bffa17 	ldw	r2,-24(fp)
 10033c0:	1004403a 	cmpge	r2,r2,zero
 10033c4:	1000071e 	bne	r2,zero,10033e4 <lseek+0xdc>
  {
    ALT_ERRNO = -rc;
 10033c8:	10033fc0 	call	10033fc <alt_get_errno>
 10033cc:	1007883a 	mov	r3,r2
 10033d0:	e0bffa17 	ldw	r2,-24(fp)
 10033d4:	0085c83a 	sub	r2,zero,r2
 10033d8:	18800015 	stw	r2,0(r3)
    rc = -1;
 10033dc:	00bfffc4 	movi	r2,-1
 10033e0:	e0bffa15 	stw	r2,-24(fp)
  }

  return rc;
 10033e4:	e0bffa17 	ldw	r2,-24(fp)
}
 10033e8:	e037883a 	mov	sp,fp
 10033ec:	dfc00117 	ldw	ra,4(sp)
 10033f0:	df000017 	ldw	fp,0(sp)
 10033f4:	dec00204 	addi	sp,sp,8
 10033f8:	f800283a 	ret

010033fc <alt_get_errno>:
#undef errno

extern int errno;

static ALT_INLINE int* alt_get_errno(void)
{
 10033fc:	defffd04 	addi	sp,sp,-12
 1003400:	dfc00215 	stw	ra,8(sp)
 1003404:	df000115 	stw	fp,4(sp)
 1003408:	df000104 	addi	fp,sp,4
  return ((alt_errno) ? alt_errno() : &errno);
 100340c:	00804074 	movhi	r2,257
 1003410:	10b9b204 	addi	r2,r2,-6456
 1003414:	10800017 	ldw	r2,0(r2)
 1003418:	1005003a 	cmpeq	r2,r2,zero
 100341c:	1000061e 	bne	r2,zero,1003438 <alt_get_errno+0x3c>
 1003420:	00804074 	movhi	r2,257
 1003424:	10b9b204 	addi	r2,r2,-6456
 1003428:	10800017 	ldw	r2,0(r2)
 100342c:	103ee83a 	callr	r2
 1003430:	e0bfff15 	stw	r2,-4(fp)
 1003434:	00000306 	br	1003444 <alt_get_errno+0x48>
 1003438:	00804074 	movhi	r2,257
 100343c:	10806204 	addi	r2,r2,392
 1003440:	e0bfff15 	stw	r2,-4(fp)
 1003444:	e0bfff17 	ldw	r2,-4(fp)
}
 1003448:	e037883a 	mov	sp,fp
 100344c:	dfc00117 	ldw	ra,4(sp)
 1003450:	df000017 	ldw	fp,0(sp)
 1003454:	dec00204 	addi	sp,sp,8
 1003458:	f800283a 	ret

0100345c <alt_main>:
 * devices/filesystems/components in the system; and call the entry point for
 * the users application, i.e. main().
 */

void alt_main (void)
{
 100345c:	defffd04 	addi	sp,sp,-12
 1003460:	dfc00215 	stw	ra,8(sp)
 1003464:	df000115 	stw	fp,4(sp)
 1003468:	df000104 	addi	fp,sp,4
#endif

  /* ALT LOG - please see HAL/sys/alt_log_printf.h for details */
  ALT_LOG_PRINT_BOOT("[alt_main.c] Entering alt_main, calling alt_irq_init.\r\n");
  /* Initialize the interrupt controller. */
  alt_irq_init (NULL);
 100346c:	0009883a 	mov	r4,zero
 1003470:	10039440 	call	1003944 <alt_irq_init>
  ALT_LOG_PRINT_BOOT("[alt_main.c] Done OS Init, calling alt_sem_create.\r\n");
  ALT_SEM_CREATE (&alt_fd_list_lock, 1);

  /* Initialize the device drivers/software components. */
  ALT_LOG_PRINT_BOOT("[alt_main.c] Calling alt_sys_init.\r\n");
  alt_sys_init();
 1003474:	10039780 	call	1003978 <alt_sys_init>
   * devices be present (not equal to /dev/null) and if direct drivers
   * aren't being used.
   */

    ALT_LOG_PRINT_BOOT("[alt_main.c] Redirecting IO.\r\n");
    alt_io_redirect(ALT_STDOUT, ALT_STDIN, ALT_STDERR);
 1003478:	01004074 	movhi	r4,257
 100347c:	21327104 	addi	r4,r4,-13884
 1003480:	01404074 	movhi	r5,257
 1003484:	29727104 	addi	r5,r5,-13884
 1003488:	01804074 	movhi	r6,257
 100348c:	31b27104 	addi	r6,r6,-13884
 1003490:	10097b00 	call	10097b0 <alt_io_redirect>
  /* 
   * Call the C++ constructors 
   */

  ALT_LOG_PRINT_BOOT("[alt_main.c] Calling C++ constructors.\r\n");
  _do_ctors ();
 1003494:	10092940 	call	1009294 <_do_ctors>
   * redefined as _exit()). This is in the interest of reducing code footprint,
   * in that the atexit() overhead is removed when it's not needed.
   */

  ALT_LOG_PRINT_BOOT("[alt_main.c] Calling atexit.\r\n");
  atexit (_do_dtors);
 1003498:	01004074 	movhi	r4,257
 100349c:	2124be04 	addi	r4,r4,-27912
 10034a0:	1009f380 	call	1009f38 <atexit>
  ALT_LOG_PRINT_BOOT("[alt_main.c] Calling main.\r\n");

#ifdef ALT_NO_EXIT
  main (alt_argc, alt_argv, alt_envp);
#else
  result = main (alt_argc, alt_argv, alt_envp);
 10034a4:	d126ba17 	ldw	r4,-25880(gp)
 10034a8:	d166bb17 	ldw	r5,-25876(gp)
 10034ac:	d1a6bc17 	ldw	r6,-25872(gp)
 10034b0:	10003b40 	call	10003b4 <main>
 10034b4:	e0bfff15 	stw	r2,-4(fp)
  close(STDOUT_FILENO);
 10034b8:	01000044 	movi	r4,1
 10034bc:	1002e340 	call	1002e34 <close>
  exit (result);
 10034c0:	e13fff17 	ldw	r4,-4(fp)
 10034c4:	1009f4c0 	call	1009f4c <exit>

010034c8 <__malloc_lock>:
 * configuration is single threaded, so there is nothing to do here. Note that 
 * this requires that malloc is never called by an interrupt service routine.
 */

void __malloc_lock ( struct _reent *_r )
{
 10034c8:	defffe04 	addi	sp,sp,-8
 10034cc:	df000115 	stw	fp,4(sp)
 10034d0:	df000104 	addi	fp,sp,4
 10034d4:	e13fff15 	stw	r4,-4(fp)
}
 10034d8:	e037883a 	mov	sp,fp
 10034dc:	df000017 	ldw	fp,0(sp)
 10034e0:	dec00104 	addi	sp,sp,4
 10034e4:	f800283a 	ret

010034e8 <__malloc_unlock>:
/*
 *
 */

void __malloc_unlock ( struct _reent *_r )
{
 10034e8:	defffe04 	addi	sp,sp,-8
 10034ec:	df000115 	stw	fp,4(sp)
 10034f0:	df000104 	addi	fp,sp,4
 10034f4:	e13fff15 	stw	r4,-4(fp)
}
 10034f8:	e037883a 	mov	sp,fp
 10034fc:	df000017 	ldw	fp,0(sp)
 1003500:	dec00104 	addi	sp,sp,4
 1003504:	f800283a 	ret

01003508 <read>:
}

#else /* !ALT_USE_DIRECT_DRIVERS */

int ALT_READ (int file, void *ptr, size_t len)
{
 1003508:	defff704 	addi	sp,sp,-36
 100350c:	dfc00815 	stw	ra,32(sp)
 1003510:	df000715 	stw	fp,28(sp)
 1003514:	df000704 	addi	fp,sp,28
 1003518:	e13ffb15 	stw	r4,-20(fp)
 100351c:	e17ffc15 	stw	r5,-16(fp)
 1003520:	e1bffd15 	stw	r6,-12(fp)
   * A common error case is that when the file descriptor was created, the call
   * to open() failed resulting in a negative file descriptor. This is trapped
   * below so that we don't try and process an invalid file descriptor.
   */

  fd = (file < 0) ? NULL : &alt_fd_list[file];
 1003524:	e0bffb17 	ldw	r2,-20(fp)
 1003528:	1004803a 	cmplt	r2,r2,zero
 100352c:	1000091e 	bne	r2,zero,1003554 <read+0x4c>
 1003530:	e13ffb17 	ldw	r4,-20(fp)
 1003534:	01400304 	movi	r5,12
 1003538:	1002dfc0 	call	1002dfc <__mulsi3>
 100353c:	1007883a 	mov	r3,r2
 1003540:	00804074 	movhi	r2,257
 1003544:	10b51b04 	addi	r2,r2,-11156
 1003548:	1887883a 	add	r3,r3,r2
 100354c:	e0ffff15 	stw	r3,-4(fp)
 1003550:	00000106 	br	1003558 <read+0x50>
 1003554:	e03fff15 	stw	zero,-4(fp)
 1003558:	e0bfff17 	ldw	r2,-4(fp)
 100355c:	e0bffa15 	stw	r2,-24(fp)
  
  if (fd)
 1003560:	e0bffa17 	ldw	r2,-24(fp)
 1003564:	1005003a 	cmpeq	r2,r2,zero
 1003568:	1000241e 	bne	r2,zero,10035fc <read+0xf4>
     * If the file has not been opened with read access, or if the driver does
     * not provide an implementation of read(), generate an error. Otherwise
     * call the drivers read() function to process the request.
     */

    if (((fd->fd_flags & O_ACCMODE) != O_WRONLY) && 
 100356c:	e0bffa17 	ldw	r2,-24(fp)
 1003570:	10800217 	ldw	r2,8(r2)
 1003574:	108000cc 	andi	r2,r2,3
 1003578:	10800060 	cmpeqi	r2,r2,1
 100357c:	10001a1e 	bne	r2,zero,10035e8 <read+0xe0>
 1003580:	e0bffa17 	ldw	r2,-24(fp)
 1003584:	10800017 	ldw	r2,0(r2)
 1003588:	10800517 	ldw	r2,20(r2)
 100358c:	1005003a 	cmpeq	r2,r2,zero
 1003590:	1000151e 	bne	r2,zero,10035e8 <read+0xe0>
        (fd->dev->read))
      {
        if ((rval = fd->dev->read(fd, ptr, len)) < 0)
 1003594:	e0bffa17 	ldw	r2,-24(fp)
 1003598:	10800017 	ldw	r2,0(r2)
 100359c:	10800517 	ldw	r2,20(r2)
 10035a0:	e17ffc17 	ldw	r5,-16(fp)
 10035a4:	e1bffd17 	ldw	r6,-12(fp)
 10035a8:	e13ffa17 	ldw	r4,-24(fp)
 10035ac:	103ee83a 	callr	r2
 10035b0:	e0bff915 	stw	r2,-28(fp)
 10035b4:	e0bff917 	ldw	r2,-28(fp)
 10035b8:	1004403a 	cmpge	r2,r2,zero
 10035bc:	1000071e 	bne	r2,zero,10035dc <read+0xd4>
        {
          ALT_ERRNO = -rval;
 10035c0:	100362c0 	call	100362c <alt_get_errno>
 10035c4:	e0fff917 	ldw	r3,-28(fp)
 10035c8:	00c7c83a 	sub	r3,zero,r3
 10035cc:	10c00015 	stw	r3,0(r2)
          return -1;
 10035d0:	00bfffc4 	movi	r2,-1
 10035d4:	e0bffe15 	stw	r2,-8(fp)
 10035d8:	00000e06 	br	1003614 <read+0x10c>
        }
        return rval;
 10035dc:	e0bff917 	ldw	r2,-28(fp)
 10035e0:	e0bffe15 	stw	r2,-8(fp)
 10035e4:	00000b06 	br	1003614 <read+0x10c>
      }
      else
      {
        ALT_ERRNO = EACCES;
 10035e8:	100362c0 	call	100362c <alt_get_errno>
 10035ec:	1007883a 	mov	r3,r2
 10035f0:	00800344 	movi	r2,13
 10035f4:	18800015 	stw	r2,0(r3)
 10035f8:	00000406 	br	100360c <read+0x104>
      }
    }
  else
  {
    ALT_ERRNO = EBADFD;
 10035fc:	100362c0 	call	100362c <alt_get_errno>
 1003600:	1007883a 	mov	r3,r2
 1003604:	00801444 	movi	r2,81
 1003608:	18800015 	stw	r2,0(r3)
  }
  return -1;
 100360c:	00bfffc4 	movi	r2,-1
 1003610:	e0bffe15 	stw	r2,-8(fp)
 1003614:	e0bffe17 	ldw	r2,-8(fp)
}
 1003618:	e037883a 	mov	sp,fp
 100361c:	dfc00117 	ldw	ra,4(sp)
 1003620:	df000017 	ldw	fp,0(sp)
 1003624:	dec00204 	addi	sp,sp,8
 1003628:	f800283a 	ret

0100362c <alt_get_errno>:
#undef errno

extern int errno;

static ALT_INLINE int* alt_get_errno(void)
{
 100362c:	defffd04 	addi	sp,sp,-12
 1003630:	dfc00215 	stw	ra,8(sp)
 1003634:	df000115 	stw	fp,4(sp)
 1003638:	df000104 	addi	fp,sp,4
  return ((alt_errno) ? alt_errno() : &errno);
 100363c:	00804074 	movhi	r2,257
 1003640:	10b9b204 	addi	r2,r2,-6456
 1003644:	10800017 	ldw	r2,0(r2)
 1003648:	1005003a 	cmpeq	r2,r2,zero
 100364c:	1000061e 	bne	r2,zero,1003668 <alt_get_errno+0x3c>
 1003650:	00804074 	movhi	r2,257
 1003654:	10b9b204 	addi	r2,r2,-6456
 1003658:	10800017 	ldw	r2,0(r2)
 100365c:	103ee83a 	callr	r2
 1003660:	e0bfff15 	stw	r2,-4(fp)
 1003664:	00000306 	br	1003674 <alt_get_errno+0x48>
 1003668:	00804074 	movhi	r2,257
 100366c:	10806204 	addi	r2,r2,392
 1003670:	e0bfff15 	stw	r2,-4(fp)
 1003674:	e0bfff17 	ldw	r2,-4(fp)
}
 1003678:	e037883a 	mov	sp,fp
 100367c:	dfc00117 	ldw	ra,4(sp)
 1003680:	df000017 	ldw	fp,0(sp)
 1003684:	dec00204 	addi	sp,sp,8
 1003688:	f800283a 	ret

0100368c <alt_release_fd>:
 * File descriptors correcponding to standard in, standard out and standard 
 * error cannont be released backed to the pool. They are always reserved.
 */

void alt_release_fd (int fd)
{
 100368c:	defffc04 	addi	sp,sp,-16
 1003690:	dfc00315 	stw	ra,12(sp)
 1003694:	df000215 	stw	fp,8(sp)
 1003698:	dc000115 	stw	r16,4(sp)
 100369c:	df000104 	addi	fp,sp,4
 10036a0:	e13fff15 	stw	r4,-4(fp)
  if (fd > 2)
 10036a4:	e0bfff17 	ldw	r2,-4(fp)
 10036a8:	108000d0 	cmplti	r2,r2,3
 10036ac:	10000f1e 	bne	r2,zero,10036ec <alt_release_fd+0x60>
  {
    alt_fd_list[fd].fd_flags = 0;
 10036b0:	e13fff17 	ldw	r4,-4(fp)
 10036b4:	04004074 	movhi	r16,257
 10036b8:	84351b04 	addi	r16,r16,-11156
 10036bc:	01400304 	movi	r5,12
 10036c0:	1002dfc0 	call	1002dfc <__mulsi3>
 10036c4:	1405883a 	add	r2,r2,r16
 10036c8:	10800204 	addi	r2,r2,8
 10036cc:	10000015 	stw	zero,0(r2)
    alt_fd_list[fd].dev      = 0;
 10036d0:	e13fff17 	ldw	r4,-4(fp)
 10036d4:	04004074 	movhi	r16,257
 10036d8:	84351b04 	addi	r16,r16,-11156
 10036dc:	01400304 	movi	r5,12
 10036e0:	1002dfc0 	call	1002dfc <__mulsi3>
 10036e4:	1405883a 	add	r2,r2,r16
 10036e8:	10000015 	stw	zero,0(r2)
  }
}
 10036ec:	e037883a 	mov	sp,fp
 10036f0:	dfc00217 	ldw	ra,8(sp)
 10036f4:	df000117 	ldw	fp,4(sp)
 10036f8:	dc000017 	ldw	r16,0(sp)
 10036fc:	dec00304 	addi	sp,sp,12
 1003700:	f800283a 	ret

01003704 <sbrk>:
#endif
 
caddr_t ALT_SBRK (int incr) __attribute__ ((no_instrument_function ));

caddr_t ALT_SBRK (int incr)
{ 
 1003704:	defff804 	addi	sp,sp,-32
 1003708:	df000715 	stw	fp,28(sp)
 100370c:	df000704 	addi	fp,sp,28
 1003710:	e13ffe15 	stw	r4,-8(fp)
static ALT_INLINE alt_irq_context ALT_ALWAYS_INLINE 
       alt_irq_disable_all (void)
{
  alt_irq_context context;

  NIOS2_READ_STATUS (context);
 1003714:	0005303a 	rdctl	r2,status
 1003718:	e0bffb15 	stw	r2,-20(fp)

  NIOS2_WRITE_STATUS (context & ~NIOS2_STATUS_PIE_MSK);
 100371c:	e0fffb17 	ldw	r3,-20(fp)
 1003720:	00bfff84 	movi	r2,-2
 1003724:	1884703a 	and	r2,r3,r2
 1003728:	1001703a 	wrctl	status,r2
  
  return context;
 100372c:	e0bffb17 	ldw	r2,-20(fp)
  alt_irq_context context;
  char *prev_heap_end; 

  context = alt_irq_disable_all();
 1003730:	e0bffd15 	stw	r2,-12(fp)

  /* Always return data aligned on a word boundary */
  heap_end = (char *)(((unsigned int)heap_end + 3) & ~3);
 1003734:	d0a00a17 	ldw	r2,-32728(gp)
 1003738:	10c000c4 	addi	r3,r2,3
 100373c:	00bfff04 	movi	r2,-4
 1003740:	1884703a 	and	r2,r3,r2
 1003744:	d0a00a15 	stw	r2,-32728(gp)
  if (((heap_end + incr) - __alt_heap_start) > ALT_MAX_HEAP_BYTES) {
    alt_irq_enable_all(context);
    return (caddr_t)-1;
  }
#else
  if ((heap_end + incr) > __alt_heap_limit) {
 1003748:	d0e00a17 	ldw	r3,-32728(gp)
 100374c:	e0bffe17 	ldw	r2,-8(fp)
 1003750:	1887883a 	add	r3,r3,r2
 1003754:	00806034 	movhi	r2,384
 1003758:	10800004 	addi	r2,r2,0
 100375c:	10c0072e 	bgeu	r2,r3,100377c <sbrk+0x78>
 1003760:	e0bffd17 	ldw	r2,-12(fp)
 1003764:	e0bffa15 	stw	r2,-24(fp)
  status &= ~NIOS2_STATUS_PIE_MSK;
  status |= (context & NIOS2_STATUS_PIE_MSK);
  
  NIOS2_WRITE_STATUS (status);
#else
  NIOS2_WRITE_STATUS (context);
 1003768:	e0bffa17 	ldw	r2,-24(fp)
 100376c:	1001703a 	wrctl	status,r2
    alt_irq_enable_all(context);
    return (caddr_t)-1;
 1003770:	00bfffc4 	movi	r2,-1
 1003774:	e0bfff15 	stw	r2,-4(fp)
 1003778:	00000c06 	br	10037ac <sbrk+0xa8>
  }
#endif

  prev_heap_end = heap_end; 
 100377c:	d0a00a17 	ldw	r2,-32728(gp)
 1003780:	e0bffc15 	stw	r2,-16(fp)
  heap_end += incr; 
 1003784:	d0e00a17 	ldw	r3,-32728(gp)
 1003788:	e0bffe17 	ldw	r2,-8(fp)
 100378c:	1885883a 	add	r2,r3,r2
 1003790:	d0a00a15 	stw	r2,-32728(gp)
 1003794:	e0bffd17 	ldw	r2,-12(fp)
 1003798:	e0bff915 	stw	r2,-28(fp)
 100379c:	e0bff917 	ldw	r2,-28(fp)
 10037a0:	1001703a 	wrctl	status,r2

#endif

  alt_irq_enable_all(context);

  return (caddr_t) prev_heap_end; 
 10037a4:	e0bffc17 	ldw	r2,-16(fp)
 10037a8:	e0bfff15 	stw	r2,-4(fp)
 10037ac:	e0bfff17 	ldw	r2,-4(fp)
} 
 10037b0:	e037883a 	mov	sp,fp
 10037b4:	df000017 	ldw	fp,0(sp)
 10037b8:	dec00104 	addi	sp,sp,4
 10037bc:	f800283a 	ret

010037c0 <write>:
}

#else /* !ALT_USE_DIRECT_DRIVERS */

int ALT_WRITE (int file, const void *ptr, size_t len)
{
 10037c0:	defff704 	addi	sp,sp,-36
 10037c4:	dfc00815 	stw	ra,32(sp)
 10037c8:	df000715 	stw	fp,28(sp)
 10037cc:	df000704 	addi	fp,sp,28
 10037d0:	e13ffb15 	stw	r4,-20(fp)
 10037d4:	e17ffc15 	stw	r5,-16(fp)
 10037d8:	e1bffd15 	stw	r6,-12(fp)
   * A common error case is that when the file descriptor was created, the call
   * to open() failed resulting in a negative file descriptor. This is trapped
   * below so that we don't try and process an invalid file descriptor.
   */

  fd = (file < 0) ? NULL : &alt_fd_list[file];
 10037dc:	e0bffb17 	ldw	r2,-20(fp)
 10037e0:	1004803a 	cmplt	r2,r2,zero
 10037e4:	1000091e 	bne	r2,zero,100380c <write+0x4c>
 10037e8:	e13ffb17 	ldw	r4,-20(fp)
 10037ec:	01400304 	movi	r5,12
 10037f0:	1002dfc0 	call	1002dfc <__mulsi3>
 10037f4:	1007883a 	mov	r3,r2
 10037f8:	00804074 	movhi	r2,257
 10037fc:	10b51b04 	addi	r2,r2,-11156
 1003800:	1887883a 	add	r3,r3,r2
 1003804:	e0ffff15 	stw	r3,-4(fp)
 1003808:	00000106 	br	1003810 <write+0x50>
 100380c:	e03fff15 	stw	zero,-4(fp)
 1003810:	e0bfff17 	ldw	r2,-4(fp)
 1003814:	e0bffa15 	stw	r2,-24(fp)
  
  if (fd)
 1003818:	e0bffa17 	ldw	r2,-24(fp)
 100381c:	1005003a 	cmpeq	r2,r2,zero
 1003820:	1000241e 	bne	r2,zero,10038b4 <write+0xf4>
     * If the file has not been opened with write access, or if the driver does
     * not provide an implementation of write(), generate an error. Otherwise
     * call the drivers write() function to process the request.
     */

    if (((fd->fd_flags & O_ACCMODE) != O_RDONLY) && fd->dev->write)
 1003824:	e0bffa17 	ldw	r2,-24(fp)
 1003828:	10800217 	ldw	r2,8(r2)
 100382c:	108000cc 	andi	r2,r2,3
 1003830:	1005003a 	cmpeq	r2,r2,zero
 1003834:	10001a1e 	bne	r2,zero,10038a0 <write+0xe0>
 1003838:	e0bffa17 	ldw	r2,-24(fp)
 100383c:	10800017 	ldw	r2,0(r2)
 1003840:	10800617 	ldw	r2,24(r2)
 1003844:	1005003a 	cmpeq	r2,r2,zero
 1003848:	1000151e 	bne	r2,zero,10038a0 <write+0xe0>
    {
      
      /* ALT_LOG - see altera_hal/HAL/inc/sys/alt_log_printf.h */
      ALT_LOG_WRITE_FUNCTION(ptr,len);

      if ((rval = fd->dev->write(fd, ptr, len)) < 0)
 100384c:	e0bffa17 	ldw	r2,-24(fp)
 1003850:	10800017 	ldw	r2,0(r2)
 1003854:	10800617 	ldw	r2,24(r2)
 1003858:	e17ffc17 	ldw	r5,-16(fp)
 100385c:	e1bffd17 	ldw	r6,-12(fp)
 1003860:	e13ffa17 	ldw	r4,-24(fp)
 1003864:	103ee83a 	callr	r2
 1003868:	e0bff915 	stw	r2,-28(fp)
 100386c:	e0bff917 	ldw	r2,-28(fp)
 1003870:	1004403a 	cmpge	r2,r2,zero
 1003874:	1000071e 	bne	r2,zero,1003894 <write+0xd4>
      {
        ALT_ERRNO = -rval;
 1003878:	10038e40 	call	10038e4 <alt_get_errno>
 100387c:	e0fff917 	ldw	r3,-28(fp)
 1003880:	00c7c83a 	sub	r3,zero,r3
 1003884:	10c00015 	stw	r3,0(r2)
        return -1;
 1003888:	00bfffc4 	movi	r2,-1
 100388c:	e0bffe15 	stw	r2,-8(fp)
 1003890:	00000e06 	br	10038cc <write+0x10c>
      }
      return rval;
 1003894:	e0bff917 	ldw	r2,-28(fp)
 1003898:	e0bffe15 	stw	r2,-8(fp)
 100389c:	00000b06 	br	10038cc <write+0x10c>
    }
    else
    {
      ALT_ERRNO = EACCES;
 10038a0:	10038e40 	call	10038e4 <alt_get_errno>
 10038a4:	1007883a 	mov	r3,r2
 10038a8:	00800344 	movi	r2,13
 10038ac:	18800015 	stw	r2,0(r3)
 10038b0:	00000406 	br	10038c4 <write+0x104>
    }
  }
  else  
  {
    ALT_ERRNO = EBADFD;
 10038b4:	10038e40 	call	10038e4 <alt_get_errno>
 10038b8:	1007883a 	mov	r3,r2
 10038bc:	00801444 	movi	r2,81
 10038c0:	18800015 	stw	r2,0(r3)
  }
  return -1;
 10038c4:	00bfffc4 	movi	r2,-1
 10038c8:	e0bffe15 	stw	r2,-8(fp)
 10038cc:	e0bffe17 	ldw	r2,-8(fp)
}
 10038d0:	e037883a 	mov	sp,fp
 10038d4:	dfc00117 	ldw	ra,4(sp)
 10038d8:	df000017 	ldw	fp,0(sp)
 10038dc:	dec00204 	addi	sp,sp,8
 10038e0:	f800283a 	ret

010038e4 <alt_get_errno>:
#undef errno

extern int errno;

static ALT_INLINE int* alt_get_errno(void)
{
 10038e4:	defffd04 	addi	sp,sp,-12
 10038e8:	dfc00215 	stw	ra,8(sp)
 10038ec:	df000115 	stw	fp,4(sp)
 10038f0:	df000104 	addi	fp,sp,4
  return ((alt_errno) ? alt_errno() : &errno);
 10038f4:	00804074 	movhi	r2,257
 10038f8:	10b9b204 	addi	r2,r2,-6456
 10038fc:	10800017 	ldw	r2,0(r2)
 1003900:	1005003a 	cmpeq	r2,r2,zero
 1003904:	1000061e 	bne	r2,zero,1003920 <alt_get_errno+0x3c>
 1003908:	00804074 	movhi	r2,257
 100390c:	10b9b204 	addi	r2,r2,-6456
 1003910:	10800017 	ldw	r2,0(r2)
 1003914:	103ee83a 	callr	r2
 1003918:	e0bfff15 	stw	r2,-4(fp)
 100391c:	00000306 	br	100392c <alt_get_errno+0x48>
 1003920:	00804074 	movhi	r2,257
 1003924:	10806204 	addi	r2,r2,392
 1003928:	e0bfff15 	stw	r2,-4(fp)
 100392c:	e0bfff17 	ldw	r2,-4(fp)
}
 1003930:	e037883a 	mov	sp,fp
 1003934:	dfc00117 	ldw	ra,4(sp)
 1003938:	df000017 	ldw	fp,0(sp)
 100393c:	dec00204 	addi	sp,sp,8
 1003940:	f800283a 	ret

01003944 <alt_irq_init>:
 * The "base" parameter is ignored and only
 * present for backwards-compatibility.
 */

void alt_irq_init ( const void* base )
{
 1003944:	defffd04 	addi	sp,sp,-12
 1003948:	dfc00215 	stw	ra,8(sp)
 100394c:	df000115 	stw	fp,4(sp)
 1003950:	df000104 	addi	fp,sp,4
 1003954:	e13fff15 	stw	r4,-4(fp)
    ALTERA_NIOS2_QSYS_IRQ_INIT ( NIOS2_QSYS_0, nios2_qsys_0);
 1003958:	1009cb00 	call	1009cb0 <altera_nios2_qsys_irq_init>
 * alt_irq_cpu_enable_interrupts() enables the CPU to start taking interrupts.
 */
static ALT_INLINE void ALT_ALWAYS_INLINE 
       alt_irq_cpu_enable_interrupts ()
{
    NIOS2_WRITE_STATUS(NIOS2_STATUS_PIE_MSK
 100395c:	00800044 	movi	r2,1
 1003960:	1001703a 	wrctl	status,r2
    alt_irq_cpu_enable_interrupts();
}
 1003964:	e037883a 	mov	sp,fp
 1003968:	dfc00117 	ldw	ra,4(sp)
 100396c:	df000017 	ldw	fp,0(sp)
 1003970:	dec00204 	addi	sp,sp,8
 1003974:	f800283a 	ret

01003978 <alt_sys_init>:
 * Initialize the non-interrupt controller devices.
 * Called after alt_irq_init().
 */

void alt_sys_init( void )
{
 1003978:	defffe04 	addi	sp,sp,-8
 100397c:	dfc00115 	stw	ra,4(sp)
 1003980:	df000015 	stw	fp,0(sp)
 1003984:	d839883a 	mov	fp,sp
    ALTERA_AVALON_JTAG_UART_INIT ( JTAG_UART_0, jtag_uart_0);
 1003988:	01004074 	movhi	r4,257
 100398c:	21358504 	addi	r4,r4,-10732
 1003990:	000b883a 	mov	r5,zero
 1003994:	000d883a 	mov	r6,zero
 1003998:	100817c0 	call	100817c <altera_avalon_jtag_uart_init>
 100399c:	01004074 	movhi	r4,257
 10039a0:	21357b04 	addi	r4,r4,-10772
 10039a4:	10039e00 	call	10039e0 <alt_dev_reg>
    ALTERA_UP_AVALON_CHARACTER_LCD_INIT ( CHARACTER_LCD_0, character_lcd_0);
 10039a8:	01004074 	movhi	r4,257
 10039ac:	21399304 	addi	r4,r4,-6580
 10039b0:	1008b900 	call	1008b90 <alt_up_character_lcd_init>
 10039b4:	01004074 	movhi	r4,257
 10039b8:	21399304 	addi	r4,r4,-6580
 10039bc:	10039e00 	call	10039e0 <alt_dev_reg>
    ALTERA_UP_SD_CARD_AVALON_INTERFACE_INIT ( ALTERA_UP_SD_CARD_AVALON_INTERFACE_0, Altera_UP_SD_Card_Avalon_Interface_0);
 10039c0:	01004074 	movhi	r4,257
 10039c4:	21399e04 	addi	r4,r4,-6536
 10039c8:	10039e00 	call	10039e0 <alt_dev_reg>
}
 10039cc:	e037883a 	mov	sp,fp
 10039d0:	dfc00117 	ldw	ra,4(sp)
 10039d4:	df000017 	ldw	fp,0(sp)
 10039d8:	dec00204 	addi	sp,sp,8
 10039dc:	f800283a 	ret

010039e0 <alt_dev_reg>:
 */

extern int alt_fs_reg  (alt_dev* dev); 

static ALT_INLINE int alt_dev_reg (alt_dev* dev)
{
 10039e0:	defffd04 	addi	sp,sp,-12
 10039e4:	dfc00215 	stw	ra,8(sp)
 10039e8:	df000115 	stw	fp,4(sp)
 10039ec:	df000104 	addi	fp,sp,4
 10039f0:	e13fff15 	stw	r4,-4(fp)
  extern alt_llist alt_dev_list;

  return alt_dev_llist_insert ((alt_dev_llist*) dev, &alt_dev_list);
 10039f4:	e13fff17 	ldw	r4,-4(fp)
 10039f8:	01404074 	movhi	r5,257
 10039fc:	2979af04 	addi	r5,r5,-6468
 1003a00:	10091800 	call	1009180 <alt_dev_llist_insert>
}
 1003a04:	e037883a 	mov	sp,fp
 1003a08:	dfc00117 	ldw	ra,4(sp)
 1003a0c:	df000017 	ldw	fp,0(sp)
 1003a10:	dec00204 	addi	sp,sp,8
 1003a14:	f800283a 	ret

01003a18 <Write_Sector_Data>:
///////////////////////////////////////////////////////////////////////////
bool Read_Sector_Data_Attempt_CRC(int sector_index, int partition_offset);

bool Write_Sector_Data(int sector_index, int partition_offset)
// This function writes a sector at the specified address on the SD Card.
{
 1003a18:	defffa04 	addi	sp,sp,-24
 1003a1c:	dfc00515 	stw	ra,20(sp)
 1003a20:	df000415 	stw	fp,16(sp)
 1003a24:	df000404 	addi	fp,sp,16
 1003a28:	e13ffe15 	stw	r4,-8(fp)
 1003a2c:	e17fff15 	stw	r5,-4(fp)
	bool result = false;
 1003a30:	e03ffd15 	stw	zero,-12(fp)

	if (alt_up_sd_card_is_Present()) {
 1003a34:	100684c0 	call	100684c <alt_up_sd_card_is_Present>
 1003a38:	1005003a 	cmpeq	r2,r2,zero
 1003a3c:	1000221e 	bne	r2,zero,1003ac8 <Write_Sector_Data+0xb0>
		short int reg_state = 0xff;
 1003a40:	00803fc4 	movi	r2,255
 1003a44:	e0bffc0d 	sth	r2,-16(fp)

		/* Multiply sector offset by sector size to get the address. Sector size is 512. Also,
		 * the SD card reads data in 512 byte chunks, so the address must be a multiple of 512. */
		IOWR_32DIRECT(command_argument_register, 0,
 1003a48:	d0a6c317 	ldw	r2,-25844(gp)
 1003a4c:	1009883a 	mov	r4,r2
 1003a50:	e0fffe17 	ldw	r3,-8(fp)
 1003a54:	e0bfff17 	ldw	r2,-4(fp)
 1003a58:	1885883a 	add	r2,r3,r2
 1003a5c:	1006927a 	slli	r3,r2,9
 1003a60:	2005883a 	mov	r2,r4
 1003a64:	10c00035 	stwio	r3,0(r2)
				(sector_index + partition_offset)*512);
		IOWR_16DIRECT(command_register, 0, CMD_WRITE_BLOCK);
 1003a68:	d0a6c217 	ldw	r2,-25848(gp)
 1003a6c:	1007883a 	mov	r3,r2
 1003a70:	00800604 	movi	r2,24
 1003a74:	1880002d 	sthio	r2,0(r3)
		do {
			reg_state = (short int) IORD_16DIRECT(aux_status_register,0);
 1003a78:	d0a6bf17 	ldw	r2,-25860(gp)
 1003a7c:	1080002b 	ldhuio	r2,0(r2)
 1003a80:	e0bffc0d 	sth	r2,-16(fp)
		} while ((reg_state & 0x04) != 0);
 1003a84:	e0bffc0b 	ldhu	r2,-16(fp)
 1003a88:	10bfffcc 	andi	r2,r2,65535
 1003a8c:	1080010c 	andi	r2,r2,4
 1003a90:	1004c03a 	cmpne	r2,r2,zero
 1003a94:	103ff81e 	bne	r2,zero,1003a78 <Write_Sector_Data+0x60>
		// Make sure the request did not time out.
		if ((reg_state & 0x10) == 0) {
 1003a98:	e0bffc0b 	ldhu	r2,-16(fp)
 1003a9c:	10bfffcc 	andi	r2,r2,65535
 1003aa0:	1080040c 	andi	r2,r2,16
 1003aa4:	1004c03a 	cmpne	r2,r2,zero
 1003aa8:	1000071e 	bne	r2,zero,1003ac8 <Write_Sector_Data+0xb0>
			result = true;
 1003aac:	00800044 	movi	r2,1
 1003ab0:	e0bffd15 	stw	r2,-12(fp)
			current_sector_modified = false;
 1003ab4:	d026c815 	stw	zero,-25824(gp)
			current_sector_index = sector_index + partition_offset;
 1003ab8:	e0fffe17 	ldw	r3,-8(fp)
 1003abc:	e0bfff17 	ldw	r2,-4(fp)
 1003ac0:	1885883a 	add	r2,r3,r2
 1003ac4:	d0a6c915 	stw	r2,-25820(gp)
		}
	}
	return result;
 1003ac8:	e0bffd17 	ldw	r2,-12(fp)
}
 1003acc:	e037883a 	mov	sp,fp
 1003ad0:	dfc00117 	ldw	ra,4(sp)
 1003ad4:	df000017 	ldw	fp,0(sp)
 1003ad8:	dec00204 	addi	sp,sp,8
 1003adc:	f800283a 	ret

01003ae0 <Save_Modified_Sector>:

bool Save_Modified_Sector()
// If the sector has been modified, then save it to the SD Card.
{
 1003ae0:	defffd04 	addi	sp,sp,-12
 1003ae4:	dfc00215 	stw	ra,8(sp)
 1003ae8:	df000115 	stw	fp,4(sp)
 1003aec:	df000104 	addi	fp,sp,4
	bool result = true;
 1003af0:	00800044 	movi	r2,1
 1003af4:	e0bfff15 	stw	r2,-4(fp)
	if (current_sector_modified) {
 1003af8:	d0a6c817 	ldw	r2,-25824(gp)
 1003afc:	1005003a 	cmpeq	r2,r2,zero
 1003b00:	1000051e 	bne	r2,zero,1003b18 <Save_Modified_Sector+0x38>
		result = Write_Sector_Data(current_sector_index, 0);
 1003b04:	d0a6c917 	ldw	r2,-25820(gp)
 1003b08:	1009883a 	mov	r4,r2
 1003b0c:	000b883a 	mov	r5,zero
 1003b10:	1003a180 	call	1003a18 <Write_Sector_Data>
 1003b14:	e0bfff15 	stw	r2,-4(fp)
	}
	return result;
 1003b18:	e0bfff17 	ldw	r2,-4(fp)
}
 1003b1c:	e037883a 	mov	sp,fp
 1003b20:	dfc00117 	ldw	ra,4(sp)
 1003b24:	df000017 	ldw	fp,0(sp)
 1003b28:	dec00204 	addi	sp,sp,8
 1003b2c:	f800283a 	ret

01003b30 <Read_Sector_Data>:

bool Read_Sector_Data(int sector_index, int partition_offset)
// This function reads a sector at the specified address on the SD Card.
{
 1003b30:	defff904 	addi	sp,sp,-28
 1003b34:	dfc00615 	stw	ra,24(sp)
 1003b38:	df000515 	stw	fp,20(sp)
 1003b3c:	df000504 	addi	fp,sp,20
 1003b40:	e13ffd15 	stw	r4,-12(fp)
 1003b44:	e17ffe15 	stw	r5,-8(fp)
	bool result = false;
 1003b48:	e03ffc15 	stw	zero,-16(fp)

	if (alt_up_sd_card_is_Present()) {
 1003b4c:	100684c0 	call	100684c <alt_up_sd_card_is_Present>
 1003b50:	1005003a 	cmpeq	r2,r2,zero
 1003b54:	10002d1e 	bne	r2,zero,1003c0c <Read_Sector_Data+0xdc>
		short int reg_state = 0xff;
 1003b58:	00803fc4 	movi	r2,255
 1003b5c:	e0bffb0d 	sth	r2,-20(fp)

		/* Write data to the SD card if the current buffer is out of date. */
		if (current_sector_modified) {
 1003b60:	d0a6c817 	ldw	r2,-25824(gp)
 1003b64:	1005003a 	cmpeq	r2,r2,zero
 1003b68:	1000081e 	bne	r2,zero,1003b8c <Read_Sector_Data+0x5c>
			if (Write_Sector_Data(current_sector_index, 0) == false) {
 1003b6c:	d0a6c917 	ldw	r2,-25820(gp)
 1003b70:	1009883a 	mov	r4,r2
 1003b74:	000b883a 	mov	r5,zero
 1003b78:	1003a180 	call	1003a18 <Write_Sector_Data>
 1003b7c:	1004c03a 	cmpne	r2,r2,zero
 1003b80:	1000021e 	bne	r2,zero,1003b8c <Read_Sector_Data+0x5c>
				return false;
 1003b84:	e03fff15 	stw	zero,-4(fp)
 1003b88:	00002206 	br	1003c14 <Read_Sector_Data+0xe4>
			}
		}
		/* Multiply sector offset by sector size to get the address. Sector size is 512. Also,
		 * the SD card reads data in 512 byte chunks, so the address must be a multiple of 512. */
		IOWR_32DIRECT(command_argument_register, 0,
 1003b8c:	d0a6c317 	ldw	r2,-25844(gp)
 1003b90:	1009883a 	mov	r4,r2
 1003b94:	e0fffd17 	ldw	r3,-12(fp)
 1003b98:	e0bffe17 	ldw	r2,-8(fp)
 1003b9c:	1885883a 	add	r2,r3,r2
 1003ba0:	1006927a 	slli	r3,r2,9
 1003ba4:	2005883a 	mov	r2,r4
 1003ba8:	10c00035 	stwio	r3,0(r2)
				(sector_index + partition_offset)*512);
		IOWR_16DIRECT(command_register, 0, CMD_READ_BLOCK);
 1003bac:	d0a6c217 	ldw	r2,-25848(gp)
 1003bb0:	1007883a 	mov	r3,r2
 1003bb4:	00800444 	movi	r2,17
 1003bb8:	1880002d 	sthio	r2,0(r3)
		do {
			reg_state = (short int) IORD_16DIRECT(aux_status_register,0);
 1003bbc:	d0a6bf17 	ldw	r2,-25860(gp)
 1003bc0:	1080002b 	ldhuio	r2,0(r2)
 1003bc4:	e0bffb0d 	sth	r2,-20(fp)
		} while ((reg_state & 0x04) != 0);
 1003bc8:	e0bffb0b 	ldhu	r2,-20(fp)
 1003bcc:	10bfffcc 	andi	r2,r2,65535
 1003bd0:	1080010c 	andi	r2,r2,4
 1003bd4:	1004c03a 	cmpne	r2,r2,zero
 1003bd8:	103ff81e 	bne	r2,zero,1003bbc <Read_Sector_Data+0x8c>
		// Make sure the request did not time out.
		if ((reg_state & 0x10) == 0) {
 1003bdc:	e0bffb0b 	ldhu	r2,-20(fp)
 1003be0:	10bfffcc 	andi	r2,r2,65535
 1003be4:	1080040c 	andi	r2,r2,16
 1003be8:	1004c03a 	cmpne	r2,r2,zero
 1003bec:	1000071e 	bne	r2,zero,1003c0c <Read_Sector_Data+0xdc>
			result = true;
 1003bf0:	00800044 	movi	r2,1
 1003bf4:	e0bffc15 	stw	r2,-16(fp)
			current_sector_modified = false;
 1003bf8:	d026c815 	stw	zero,-25824(gp)
			current_sector_index = sector_index + partition_offset;
 1003bfc:	e0fffd17 	ldw	r3,-12(fp)
 1003c00:	e0bffe17 	ldw	r2,-8(fp)
 1003c04:	1885883a 	add	r2,r3,r2
 1003c08:	d0a6c915 	stw	r2,-25820(gp)
		}
	}
	return result;
 1003c0c:	e0bffc17 	ldw	r2,-16(fp)
 1003c10:	e0bfff15 	stw	r2,-4(fp)
 1003c14:	e0bfff17 	ldw	r2,-4(fp)
}
 1003c18:	e037883a 	mov	sp,fp
 1003c1c:	dfc00117 	ldw	ra,4(sp)
 1003c20:	df000017 	ldw	fp,0(sp)
 1003c24:	dec00204 	addi	sp,sp,8
 1003c28:	f800283a 	ret

01003c2c <get_cluster_flag>:

bool get_cluster_flag(unsigned int cluster_index, unsigned short int *flag)
// Read a cluster flag.
{
 1003c2c:	defffa04 	addi	sp,sp,-24
 1003c30:	dfc00515 	stw	ra,20(sp)
 1003c34:	df000415 	stw	fp,16(sp)
 1003c38:	df000404 	addi	fp,sp,16
 1003c3c:	e13ffd15 	stw	r4,-12(fp)
 1003c40:	e17ffe15 	stw	r5,-8(fp)
	unsigned int sector_index = (cluster_index / 256)
			+ fat_partition_offset_in_512_byte_sectors;
 1003c44:	e0bffd17 	ldw	r2,-12(fp)
 1003c48:	1006d23a 	srli	r3,r2,8
 1003c4c:	d0a6c517 	ldw	r2,-25836(gp)
 1003c50:	1885883a 	add	r2,r3,r2
 1003c54:	e0bffc15 	stw	r2,-16(fp)

	sector_index = sector_index + boot_sector_data.first_fat_sector_offset;
 1003c58:	00804074 	movhi	r2,257
 1003c5c:	10808504 	addi	r2,r2,532
 1003c60:	10c01117 	ldw	r3,68(r2)
 1003c64:	e0bffc17 	ldw	r2,-16(fp)
 1003c68:	10c5883a 	add	r2,r2,r3
 1003c6c:	e0bffc15 	stw	r2,-16(fp)

	if (sector_index != current_sector_index) {
 1003c70:	d0e6c917 	ldw	r3,-25820(gp)
 1003c74:	e0bffc17 	ldw	r2,-16(fp)
 1003c78:	10c00726 	beq	r2,r3,1003c98 <get_cluster_flag+0x6c>
		if (Read_Sector_Data(sector_index, 0) == false) {
 1003c7c:	e13ffc17 	ldw	r4,-16(fp)
 1003c80:	000b883a 	mov	r5,zero
 1003c84:	1003b300 	call	1003b30 <Read_Sector_Data>
 1003c88:	1004c03a 	cmpne	r2,r2,zero
 1003c8c:	1000021e 	bne	r2,zero,1003c98 <get_cluster_flag+0x6c>
			return false;
 1003c90:	e03fff15 	stw	zero,-4(fp)
 1003c94:	00000d06 	br	1003ccc <get_cluster_flag+0xa0>
		}
	}
	*flag =
 1003c98:	d0a6c717 	ldw	r2,-25828(gp)
 1003c9c:	10800a17 	ldw	r2,40(r2)
 1003ca0:	1007883a 	mov	r3,r2
 1003ca4:	e0bffd17 	ldw	r2,-12(fp)
 1003ca8:	10803fcc 	andi	r2,r2,255
 1003cac:	1085883a 	add	r2,r2,r2
 1003cb0:	1885883a 	add	r2,r3,r2
 1003cb4:	1080002b 	ldhuio	r2,0(r2)
 1003cb8:	1007883a 	mov	r3,r2
 1003cbc:	e0bffe17 	ldw	r2,-8(fp)
 1003cc0:	10c0000d 	sth	r3,0(r2)
			(unsigned short int) IORD_16DIRECT(device_pointer->base, 2*(cluster_index % 256));
	return true;
 1003cc4:	00800044 	movi	r2,1
 1003cc8:	e0bfff15 	stw	r2,-4(fp)
 1003ccc:	e0bfff17 	ldw	r2,-4(fp)
}
 1003cd0:	e037883a 	mov	sp,fp
 1003cd4:	dfc00117 	ldw	ra,4(sp)
 1003cd8:	df000017 	ldw	fp,0(sp)
 1003cdc:	dec00204 	addi	sp,sp,8
 1003ce0:	f800283a 	ret

01003ce4 <mark_cluster>:

bool mark_cluster(unsigned int cluster_index, short int flag, bool first_fat)
// Place a marker on the specified cluster in a given FAT.
{
 1003ce4:	defff904 	addi	sp,sp,-28
 1003ce8:	dfc00615 	stw	ra,24(sp)
 1003cec:	df000515 	stw	fp,20(sp)
 1003cf0:	df000504 	addi	fp,sp,20
 1003cf4:	e13ffc15 	stw	r4,-16(fp)
 1003cf8:	e1bffe15 	stw	r6,-8(fp)
 1003cfc:	e17ffd0d 	sth	r5,-12(fp)
	unsigned int sector_index = (cluster_index / 256)
			+ fat_partition_offset_in_512_byte_sectors;
 1003d00:	e0bffc17 	ldw	r2,-16(fp)
 1003d04:	1006d23a 	srli	r3,r2,8
 1003d08:	d0a6c517 	ldw	r2,-25836(gp)
 1003d0c:	1885883a 	add	r2,r3,r2
 1003d10:	e0bffb15 	stw	r2,-20(fp)

	if (first_fat) {
 1003d14:	e0bffe17 	ldw	r2,-8(fp)
 1003d18:	1005003a 	cmpeq	r2,r2,zero
 1003d1c:	1000071e 	bne	r2,zero,1003d3c <mark_cluster+0x58>
		sector_index = sector_index + boot_sector_data.first_fat_sector_offset;
 1003d20:	00804074 	movhi	r2,257
 1003d24:	10808504 	addi	r2,r2,532
 1003d28:	10c01117 	ldw	r3,68(r2)
 1003d2c:	e0bffb17 	ldw	r2,-20(fp)
 1003d30:	10c5883a 	add	r2,r2,r3
 1003d34:	e0bffb15 	stw	r2,-20(fp)
 1003d38:	00000606 	br	1003d54 <mark_cluster+0x70>
	} else {
		sector_index = sector_index + boot_sector_data.second_fat_sector_offset;
 1003d3c:	00804074 	movhi	r2,257
 1003d40:	10808504 	addi	r2,r2,532
 1003d44:	10c01217 	ldw	r3,72(r2)
 1003d48:	e0bffb17 	ldw	r2,-20(fp)
 1003d4c:	10c5883a 	add	r2,r2,r3
 1003d50:	e0bffb15 	stw	r2,-20(fp)
	}

	if (sector_index != current_sector_index) {
 1003d54:	d0e6c917 	ldw	r3,-25820(gp)
 1003d58:	e0bffb17 	ldw	r2,-20(fp)
 1003d5c:	10c00726 	beq	r2,r3,1003d7c <mark_cluster+0x98>
		if (Read_Sector_Data(sector_index, 0) == false) {
 1003d60:	e13ffb17 	ldw	r4,-20(fp)
 1003d64:	000b883a 	mov	r5,zero
 1003d68:	1003b300 	call	1003b30 <Read_Sector_Data>
 1003d6c:	1004c03a 	cmpne	r2,r2,zero
 1003d70:	1000021e 	bne	r2,zero,1003d7c <mark_cluster+0x98>
			return false;
 1003d74:	e03fff15 	stw	zero,-4(fp)
 1003d78:	00000d06 	br	1003db0 <mark_cluster+0xcc>
		}
	}
	IOWR_16DIRECT(device_pointer->base, 2*(cluster_index % 256), flag);
 1003d7c:	d0a6c717 	ldw	r2,-25828(gp)
 1003d80:	10800a17 	ldw	r2,40(r2)
 1003d84:	1007883a 	mov	r3,r2
 1003d88:	e0bffc17 	ldw	r2,-16(fp)
 1003d8c:	10803fcc 	andi	r2,r2,255
 1003d90:	1085883a 	add	r2,r2,r2
 1003d94:	1885883a 	add	r2,r3,r2
 1003d98:	e0fffd0f 	ldh	r3,-12(fp)
 1003d9c:	10c0002d 	sthio	r3,0(r2)
	current_sector_modified = true;
 1003da0:	00800044 	movi	r2,1
 1003da4:	d0a6c815 	stw	r2,-25824(gp)
	return true;
 1003da8:	00800044 	movi	r2,1
 1003dac:	e0bfff15 	stw	r2,-4(fp)
 1003db0:	e0bfff17 	ldw	r2,-4(fp)
}
 1003db4:	e037883a 	mov	sp,fp
 1003db8:	dfc00117 	ldw	ra,4(sp)
 1003dbc:	df000017 	ldw	fp,0(sp)
 1003dc0:	dec00204 	addi	sp,sp,8
 1003dc4:	f800283a 	ret

01003dc8 <Check_for_Master_Boot_Record>:

bool Check_for_Master_Boot_Record(void)
// This function reads the first 512 bytes on the SD Card. This data should
// contain the Master Boot Record. If it does, then print
// relevant information and return true. Otherwise, return false. 
{
 1003dc8:	defff704 	addi	sp,sp,-36
 1003dcc:	dfc00815 	stw	ra,32(sp)
 1003dd0:	df000715 	stw	fp,28(sp)
 1003dd4:	df000704 	addi	fp,sp,28
	bool result = false;
 1003dd8:	e03fff15 	stw	zero,-4(fp)
	int index;
	int end, offset, partition_size;

	/* Load the first 512 bytes of data from SD card. */
	if (Read_Sector_Data_Attempt_CRC(0, 0)) {
 1003ddc:	0009883a 	mov	r4,zero
 1003de0:	000b883a 	mov	r5,zero
 1003de4:	1007fa40 	call	1007fa4 <Read_Sector_Data_Attempt_CRC>
 1003de8:	1005003a 	cmpeq	r2,r2,zero
 1003dec:	10005c1e 	bne	r2,zero,1003f60 <Check_for_Master_Boot_Record+0x198>
		end = (short int) IORD_16DIRECT(device_pointer->base,0x1fe);
 1003df0:	d0a6c717 	ldw	r2,-25828(gp)
 1003df4:	10800a17 	ldw	r2,40(r2)
 1003df8:	10807f84 	addi	r2,r2,510
 1003dfc:	1080002b 	ldhuio	r2,0(r2)
 1003e00:	10bfffcc 	andi	r2,r2,65535
 1003e04:	10a0001c 	xori	r2,r2,32768
 1003e08:	10a00004 	addi	r2,r2,-32768
 1003e0c:	e0bffd15 	stw	r2,-12(fp)

		// Check if the end of the sector contains an end string 0xaa55.
		if ((end & 0x0000ffff) == 0x0000aa55) {
 1003e10:	e0bffd17 	ldw	r2,-12(fp)
 1003e14:	10ffffcc 	andi	r3,r2,65535
 1003e18:	00aa9554 	movui	r2,43605
 1003e1c:	1880501e 	bne	r3,r2,1003f60 <Check_for_Master_Boot_Record+0x198>
			// Check four partition entries and see if any are valid
			for (index = 0; index < 4; index++) {
 1003e20:	e03ffe15 	stw	zero,-8(fp)
 1003e24:	00004b06 	br	1003f54 <Check_for_Master_Boot_Record+0x18c>
				int partition_data_offset = (index * 16) + 0x01be;
 1003e28:	e0bffe17 	ldw	r2,-8(fp)
 1003e2c:	1004913a 	slli	r2,r2,4
 1003e30:	10806f84 	addi	r2,r2,446
 1003e34:	e0bffa15 	stw	r2,-24(fp)
				char type;

				// Read Partition type
				type =
 1003e38:	d0a6c717 	ldw	r2,-25828(gp)
 1003e3c:	10800a17 	ldw	r2,40(r2)
 1003e40:	1007883a 	mov	r3,r2
 1003e44:	e0bffa17 	ldw	r2,-24(fp)
 1003e48:	1885883a 	add	r2,r3,r2
 1003e4c:	10800104 	addi	r2,r2,4
 1003e50:	10800023 	ldbuio	r2,0(r2)
 1003e54:	e0bff905 	stb	r2,-28(fp)
						(unsigned char) IORD_8DIRECT(device_pointer->base,partition_data_offset + 0x04);

				// Check if this is an FAT parition
				if ((type == 1) || (type == 4) || (type == 6) || (type == 14)) {
 1003e58:	e0bff907 	ldb	r2,-28(fp)
 1003e5c:	10800060 	cmpeqi	r2,r2,1
 1003e60:	1000091e 	bne	r2,zero,1003e88 <Check_for_Master_Boot_Record+0xc0>
 1003e64:	e0bff907 	ldb	r2,-28(fp)
 1003e68:	10800120 	cmpeqi	r2,r2,4
 1003e6c:	1000061e 	bne	r2,zero,1003e88 <Check_for_Master_Boot_Record+0xc0>
 1003e70:	e0bff907 	ldb	r2,-28(fp)
 1003e74:	108001a0 	cmpeqi	r2,r2,6
 1003e78:	1000031e 	bne	r2,zero,1003e88 <Check_for_Master_Boot_Record+0xc0>
 1003e7c:	e0bff907 	ldb	r2,-28(fp)
 1003e80:	10800398 	cmpnei	r2,r2,14
 1003e84:	1000301e 	bne	r2,zero,1003f48 <Check_for_Master_Boot_Record+0x180>
					// Get partition offset and size.
					offset =
 1003e88:	d0a6c717 	ldw	r2,-25828(gp)
 1003e8c:	10800a17 	ldw	r2,40(r2)
 1003e90:	1007883a 	mov	r3,r2
 1003e94:	e0bffa17 	ldw	r2,-24(fp)
 1003e98:	1885883a 	add	r2,r3,r2
 1003e9c:	10800284 	addi	r2,r2,10
 1003ea0:	1080002b 	ldhuio	r2,0(r2)
 1003ea4:	10bfffcc 	andi	r2,r2,65535
 1003ea8:	1008943a 	slli	r4,r2,16
 1003eac:	d0a6c717 	ldw	r2,-25828(gp)
 1003eb0:	10800a17 	ldw	r2,40(r2)
 1003eb4:	1007883a 	mov	r3,r2
 1003eb8:	e0bffa17 	ldw	r2,-24(fp)
 1003ebc:	1885883a 	add	r2,r3,r2
 1003ec0:	10800204 	addi	r2,r2,8
 1003ec4:	1080002b 	ldhuio	r2,0(r2)
 1003ec8:	10bfffcc 	andi	r2,r2,65535
 1003ecc:	2084b03a 	or	r2,r4,r2
 1003ed0:	e0bffc15 	stw	r2,-16(fp)
							(((unsigned short int) IORD_16DIRECT(device_pointer->base,partition_data_offset + 0x0A))
									<< 16)
									| ((unsigned short int) IORD_16DIRECT(device_pointer->base,partition_data_offset + 0x08));
					partition_size =
 1003ed4:	d0a6c717 	ldw	r2,-25828(gp)
 1003ed8:	10800a17 	ldw	r2,40(r2)
 1003edc:	1007883a 	mov	r3,r2
 1003ee0:	e0bffa17 	ldw	r2,-24(fp)
 1003ee4:	1885883a 	add	r2,r3,r2
 1003ee8:	10800384 	addi	r2,r2,14
 1003eec:	1080002b 	ldhuio	r2,0(r2)
 1003ef0:	10bfffcc 	andi	r2,r2,65535
 1003ef4:	1008943a 	slli	r4,r2,16
 1003ef8:	d0a6c717 	ldw	r2,-25828(gp)
 1003efc:	10800a17 	ldw	r2,40(r2)
 1003f00:	1007883a 	mov	r3,r2
 1003f04:	e0bffa17 	ldw	r2,-24(fp)
 1003f08:	1885883a 	add	r2,r3,r2
 1003f0c:	10800304 	addi	r2,r2,12
 1003f10:	1080002b 	ldhuio	r2,0(r2)
 1003f14:	10bfffcc 	andi	r2,r2,65535
 1003f18:	2084b03a 	or	r2,r4,r2
 1003f1c:	e0bffb15 	stw	r2,-20(fp)
							(((unsigned short int) IORD_16DIRECT(device_pointer->base,partition_data_offset + 0x0E))
									<< 16)
									| ((unsigned short int) IORD_16DIRECT(device_pointer->base,partition_data_offset + 0x0C));

					// Check if the partition is valid
					if (partition_size > 0) {
 1003f20:	e0bffb17 	ldw	r2,-20(fp)
 1003f24:	10800050 	cmplti	r2,r2,1
 1003f28:	1000071e 	bne	r2,zero,1003f48 <Check_for_Master_Boot_Record+0x180>
						result = true;
 1003f2c:	00800044 	movi	r2,1
 1003f30:	e0bfff15 	stw	r2,-4(fp)
						fat_partition_size_in_512_byte_sectors = partition_size;
 1003f34:	e0bffb17 	ldw	r2,-20(fp)
 1003f38:	d0a6c615 	stw	r2,-25832(gp)
						fat_partition_offset_in_512_byte_sectors = offset;
 1003f3c:	e0bffc17 	ldw	r2,-16(fp)
 1003f40:	d0a6c515 	stw	r2,-25836(gp)
						break;
 1003f44:	00000606 	br	1003f60 <Check_for_Master_Boot_Record+0x198>
		end = (short int) IORD_16DIRECT(device_pointer->base,0x1fe);

		// Check if the end of the sector contains an end string 0xaa55.
		if ((end & 0x0000ffff) == 0x0000aa55) {
			// Check four partition entries and see if any are valid
			for (index = 0; index < 4; index++) {
 1003f48:	e0bffe17 	ldw	r2,-8(fp)
 1003f4c:	10800044 	addi	r2,r2,1
 1003f50:	e0bffe15 	stw	r2,-8(fp)
 1003f54:	e0bffe17 	ldw	r2,-8(fp)
 1003f58:	10800110 	cmplti	r2,r2,4
 1003f5c:	103fb21e 	bne	r2,zero,1003e28 <Check_for_Master_Boot_Record+0x60>
				}
			}
		}
	}

	return result;
 1003f60:	e0bfff17 	ldw	r2,-4(fp)
}
 1003f64:	e037883a 	mov	sp,fp
 1003f68:	dfc00117 	ldw	ra,4(sp)
 1003f6c:	df000017 	ldw	fp,0(sp)
 1003f70:	dec00204 	addi	sp,sp,8
 1003f74:	f800283a 	ret

01003f78 <Read_File_Record_At_Offset>:

bool Read_File_Record_At_Offset(int offset, t_file_record *record,
		unsigned int cluster_index, unsigned int sector_in_cluster)
// This function reads a file record
{
 1003f78:	defff804 	addi	sp,sp,-32
 1003f7c:	dfc00715 	stw	ra,28(sp)
 1003f80:	df000615 	stw	fp,24(sp)
 1003f84:	df000604 	addi	fp,sp,24
 1003f88:	e13ffc15 	stw	r4,-16(fp)
 1003f8c:	e17ffd15 	stw	r5,-12(fp)
 1003f90:	e1bffe15 	stw	r6,-8(fp)
 1003f94:	e1ffff15 	stw	r7,-4(fp)
	bool result = false;
 1003f98:	e03ffb15 	stw	zero,-20(fp)
	if (((offset & 0x01f) == 0) && (alt_up_sd_card_is_Present())
 1003f9c:	e0bffc17 	ldw	r2,-16(fp)
 1003fa0:	108007cc 	andi	r2,r2,31
 1003fa4:	1004c03a 	cmpne	r2,r2,zero
 1003fa8:	10008e1e 	bne	r2,zero,10041e4 <Read_File_Record_At_Offset+0x26c>
 1003fac:	100684c0 	call	100684c <alt_up_sd_card_is_Present>
 1003fb0:	1005003a 	cmpeq	r2,r2,zero
 1003fb4:	10008b1e 	bne	r2,zero,10041e4 <Read_File_Record_At_Offset+0x26c>
 1003fb8:	d0a6be17 	ldw	r2,-25864(gp)
 1003fbc:	1005003a 	cmpeq	r2,r2,zero
 1003fc0:	1000881e 	bne	r2,zero,10041e4 <Read_File_Record_At_Offset+0x26c>
			&& (is_sd_card_formated_as_FAT16)) {
		int counter;

		for (counter = 0; counter < 8; counter++) {
 1003fc4:	e03ffa15 	stw	zero,-24(fp)
 1003fc8:	00001006 	br	100400c <Read_File_Record_At_Offset+0x94>
			record->name[counter] =
 1003fcc:	e17ffa17 	ldw	r5,-24(fp)
 1003fd0:	d0a6c717 	ldw	r2,-25828(gp)
 1003fd4:	10800a17 	ldw	r2,40(r2)
 1003fd8:	1009883a 	mov	r4,r2
 1003fdc:	e0fffc17 	ldw	r3,-16(fp)
 1003fe0:	e0bffa17 	ldw	r2,-24(fp)
 1003fe4:	1885883a 	add	r2,r3,r2
 1003fe8:	2085883a 	add	r2,r4,r2
 1003fec:	10800023 	ldbuio	r2,0(r2)
 1003ff0:	1007883a 	mov	r3,r2
 1003ff4:	e0bffd17 	ldw	r2,-12(fp)
 1003ff8:	1145883a 	add	r2,r2,r5
 1003ffc:	10c00005 	stb	r3,0(r2)
	bool result = false;
	if (((offset & 0x01f) == 0) && (alt_up_sd_card_is_Present())
			&& (is_sd_card_formated_as_FAT16)) {
		int counter;

		for (counter = 0; counter < 8; counter++) {
 1004000:	e0bffa17 	ldw	r2,-24(fp)
 1004004:	10800044 	addi	r2,r2,1
 1004008:	e0bffa15 	stw	r2,-24(fp)
 100400c:	e0bffa17 	ldw	r2,-24(fp)
 1004010:	10800210 	cmplti	r2,r2,8
 1004014:	103fed1e 	bne	r2,zero,1003fcc <Read_File_Record_At_Offset+0x54>
			record->name[counter] =
					(char) IORD_8DIRECT(device_pointer->base, offset+counter);
		}
		for (counter = 0; counter < 3; counter++) {
 1004018:	e03ffa15 	stw	zero,-24(fp)
 100401c:	00001206 	br	1004068 <Read_File_Record_At_Offset+0xf0>
			record->extension[counter] =
 1004020:	e17ffa17 	ldw	r5,-24(fp)
 1004024:	d0a6c717 	ldw	r2,-25828(gp)
 1004028:	10800a17 	ldw	r2,40(r2)
 100402c:	1009883a 	mov	r4,r2
 1004030:	e0fffc17 	ldw	r3,-16(fp)
 1004034:	e0bffa17 	ldw	r2,-24(fp)
 1004038:	1885883a 	add	r2,r3,r2
 100403c:	2085883a 	add	r2,r4,r2
 1004040:	10800204 	addi	r2,r2,8
 1004044:	10800023 	ldbuio	r2,0(r2)
 1004048:	1007883a 	mov	r3,r2
 100404c:	e0bffd17 	ldw	r2,-12(fp)
 1004050:	2885883a 	add	r2,r5,r2
 1004054:	10800204 	addi	r2,r2,8
 1004058:	10c00005 	stb	r3,0(r2)

		for (counter = 0; counter < 8; counter++) {
			record->name[counter] =
					(char) IORD_8DIRECT(device_pointer->base, offset+counter);
		}
		for (counter = 0; counter < 3; counter++) {
 100405c:	e0bffa17 	ldw	r2,-24(fp)
 1004060:	10800044 	addi	r2,r2,1
 1004064:	e0bffa15 	stw	r2,-24(fp)
 1004068:	e0bffa17 	ldw	r2,-24(fp)
 100406c:	108000d0 	cmplti	r2,r2,3
 1004070:	103feb1e 	bne	r2,zero,1004020 <Read_File_Record_At_Offset+0xa8>
			record->extension[counter] =
					(char) IORD_8DIRECT(device_pointer->base, offset+counter+8);
		}
		record->attributes =
 1004074:	d0a6c717 	ldw	r2,-25828(gp)
 1004078:	10800a17 	ldw	r2,40(r2)
 100407c:	1007883a 	mov	r3,r2
 1004080:	e0bffc17 	ldw	r2,-16(fp)
 1004084:	1885883a 	add	r2,r3,r2
 1004088:	108002c4 	addi	r2,r2,11
 100408c:	10800023 	ldbuio	r2,0(r2)
 1004090:	1007883a 	mov	r3,r2
 1004094:	e0bffd17 	ldw	r2,-12(fp)
 1004098:	10c002c5 	stb	r3,11(r2)
				(char) IORD_8DIRECT(device_pointer->base, offset+11);
		/* Ignore reserved bytes at locations 12 and 13. */
		record->create_time =
 100409c:	d0a6c717 	ldw	r2,-25828(gp)
 10040a0:	10800a17 	ldw	r2,40(r2)
 10040a4:	1007883a 	mov	r3,r2
 10040a8:	e0bffc17 	ldw	r2,-16(fp)
 10040ac:	1885883a 	add	r2,r3,r2
 10040b0:	10800384 	addi	r2,r2,14
 10040b4:	1080002b 	ldhuio	r2,0(r2)
 10040b8:	1007883a 	mov	r3,r2
 10040bc:	e0bffd17 	ldw	r2,-12(fp)
 10040c0:	10c0030d 	sth	r3,12(r2)
				(unsigned short int) IORD_16DIRECT(device_pointer->base, offset+14);
		record->create_date =
 10040c4:	d0a6c717 	ldw	r2,-25828(gp)
 10040c8:	10800a17 	ldw	r2,40(r2)
 10040cc:	1007883a 	mov	r3,r2
 10040d0:	e0bffc17 	ldw	r2,-16(fp)
 10040d4:	1885883a 	add	r2,r3,r2
 10040d8:	10800404 	addi	r2,r2,16
 10040dc:	1080002b 	ldhuio	r2,0(r2)
 10040e0:	1007883a 	mov	r3,r2
 10040e4:	e0bffd17 	ldw	r2,-12(fp)
 10040e8:	10c0038d 	sth	r3,14(r2)
				(unsigned short int) IORD_16DIRECT(device_pointer->base, offset+16);
		record->last_access_date =
 10040ec:	d0a6c717 	ldw	r2,-25828(gp)
 10040f0:	10800a17 	ldw	r2,40(r2)
 10040f4:	1007883a 	mov	r3,r2
 10040f8:	e0bffc17 	ldw	r2,-16(fp)
 10040fc:	1885883a 	add	r2,r3,r2
 1004100:	10800484 	addi	r2,r2,18
 1004104:	1080002b 	ldhuio	r2,0(r2)
 1004108:	1007883a 	mov	r3,r2
 100410c:	e0bffd17 	ldw	r2,-12(fp)
 1004110:	10c0040d 	sth	r3,16(r2)
				(unsigned short int) IORD_16DIRECT(device_pointer->base, offset+18);
		/* Ignore reserved bytes at locations 20 and 21. */
		record->last_modified_time =
 1004114:	d0a6c717 	ldw	r2,-25828(gp)
 1004118:	10800a17 	ldw	r2,40(r2)
 100411c:	1007883a 	mov	r3,r2
 1004120:	e0bffc17 	ldw	r2,-16(fp)
 1004124:	1885883a 	add	r2,r3,r2
 1004128:	10800584 	addi	r2,r2,22
 100412c:	1080002b 	ldhuio	r2,0(r2)
 1004130:	1007883a 	mov	r3,r2
 1004134:	e0bffd17 	ldw	r2,-12(fp)
 1004138:	10c0048d 	sth	r3,18(r2)
				(unsigned short int) IORD_16DIRECT(device_pointer->base, offset+22);
		record->last_modified_date =
 100413c:	d0a6c717 	ldw	r2,-25828(gp)
 1004140:	10800a17 	ldw	r2,40(r2)
 1004144:	1007883a 	mov	r3,r2
 1004148:	e0bffc17 	ldw	r2,-16(fp)
 100414c:	1885883a 	add	r2,r3,r2
 1004150:	10800604 	addi	r2,r2,24
 1004154:	1080002b 	ldhuio	r2,0(r2)
 1004158:	1007883a 	mov	r3,r2
 100415c:	e0bffd17 	ldw	r2,-12(fp)
 1004160:	10c0050d 	sth	r3,20(r2)
				(unsigned short int) IORD_16DIRECT(device_pointer->base, offset+24);
		record->start_cluster_index =
 1004164:	d0a6c717 	ldw	r2,-25828(gp)
 1004168:	10800a17 	ldw	r2,40(r2)
 100416c:	1007883a 	mov	r3,r2
 1004170:	e0bffc17 	ldw	r2,-16(fp)
 1004174:	1885883a 	add	r2,r3,r2
 1004178:	10800684 	addi	r2,r2,26
 100417c:	1080002b 	ldhuio	r2,0(r2)
 1004180:	1007883a 	mov	r3,r2
 1004184:	e0bffd17 	ldw	r2,-12(fp)
 1004188:	10c0058d 	sth	r3,22(r2)
				(unsigned short int) IORD_16DIRECT(device_pointer->base, offset+26);
		record->file_size_in_bytes =
 100418c:	d0a6c717 	ldw	r2,-25828(gp)
 1004190:	10800a17 	ldw	r2,40(r2)
 1004194:	1007883a 	mov	r3,r2
 1004198:	e0bffc17 	ldw	r2,-16(fp)
 100419c:	1885883a 	add	r2,r3,r2
 10041a0:	10800704 	addi	r2,r2,28
 10041a4:	10800037 	ldwio	r2,0(r2)
 10041a8:	1007883a 	mov	r3,r2
 10041ac:	e0bffd17 	ldw	r2,-12(fp)
 10041b0:	10c00615 	stw	r3,24(r2)
				(unsigned int) IORD_32DIRECT(device_pointer->base, offset+28);
		record->file_record_cluster = cluster_index;
 10041b4:	e0fffd17 	ldw	r3,-12(fp)
 10041b8:	e0bffe17 	ldw	r2,-8(fp)
 10041bc:	18800a15 	stw	r2,40(r3)
		record->file_record_sector_in_cluster = sector_in_cluster;
 10041c0:	e0fffd17 	ldw	r3,-12(fp)
 10041c4:	e0bfff17 	ldw	r2,-4(fp)
 10041c8:	18800b15 	stw	r2,44(r3)
		record->file_record_offset = offset;
 10041cc:	e0bffc17 	ldw	r2,-16(fp)
 10041d0:	1007883a 	mov	r3,r2
 10041d4:	e0bffd17 	ldw	r2,-12(fp)
 10041d8:	10c00c0d 	sth	r3,48(r2)
		result = true;
 10041dc:	00800044 	movi	r2,1
 10041e0:	e0bffb15 	stw	r2,-20(fp)
	}
	return result;
 10041e4:	e0bffb17 	ldw	r2,-20(fp)
}
 10041e8:	e037883a 	mov	sp,fp
 10041ec:	dfc00117 	ldw	ra,4(sp)
 10041f0:	df000017 	ldw	fp,0(sp)
 10041f4:	dec00204 	addi	sp,sp,8
 10041f8:	f800283a 	ret

010041fc <Write_File_Record_At_Offset>:

bool Write_File_Record_At_Offset(int offset, t_file_record *record)
// This function writes a file record at a given offset. The offset is given in bytes.
{
 10041fc:	defff904 	addi	sp,sp,-28
 1004200:	dfc00615 	stw	ra,24(sp)
 1004204:	df000515 	stw	fp,20(sp)
 1004208:	df000504 	addi	fp,sp,20
 100420c:	e13ffe15 	stw	r4,-8(fp)
 1004210:	e17fff15 	stw	r5,-4(fp)
	bool result = false;
 1004214:	e03ffd15 	stw	zero,-12(fp)
	if (((offset & 0x01f) == 0) && (alt_up_sd_card_is_Present())
 1004218:	e0bffe17 	ldw	r2,-8(fp)
 100421c:	108007cc 	andi	r2,r2,31
 1004220:	1004c03a 	cmpne	r2,r2,zero
 1004224:	10009d1e 	bne	r2,zero,100449c <Write_File_Record_At_Offset+0x2a0>
 1004228:	100684c0 	call	100684c <alt_up_sd_card_is_Present>
 100422c:	1005003a 	cmpeq	r2,r2,zero
 1004230:	10009a1e 	bne	r2,zero,100449c <Write_File_Record_At_Offset+0x2a0>
 1004234:	d0a6be17 	ldw	r2,-25864(gp)
 1004238:	1005003a 	cmpeq	r2,r2,zero
 100423c:	1000971e 	bne	r2,zero,100449c <Write_File_Record_At_Offset+0x2a0>
			&& (is_sd_card_formated_as_FAT16)) {
		int counter;

		for (counter = 0; counter < 8; counter = counter + 2) {
 1004240:	e03ffc15 	stw	zero,-16(fp)
 1004244:	00001e06 	br	10042c0 <Write_File_Record_At_Offset+0xc4>
			short int two_chars = (short int) record->name[counter + 1];
 1004248:	e0bffc17 	ldw	r2,-16(fp)
 100424c:	10c00044 	addi	r3,r2,1
 1004250:	e0bfff17 	ldw	r2,-4(fp)
 1004254:	10c5883a 	add	r2,r2,r3
 1004258:	10800003 	ldbu	r2,0(r2)
 100425c:	10803fcc 	andi	r2,r2,255
 1004260:	e0bffb0d 	sth	r2,-20(fp)
			two_chars = two_chars << 8;
 1004264:	e0bffb0f 	ldh	r2,-20(fp)
 1004268:	1004923a 	slli	r2,r2,8
 100426c:	e0bffb0d 	sth	r2,-20(fp)
			two_chars = two_chars | record->name[counter];
 1004270:	e0fffc17 	ldw	r3,-16(fp)
 1004274:	e0bfff17 	ldw	r2,-4(fp)
 1004278:	10c5883a 	add	r2,r2,r3
 100427c:	10800003 	ldbu	r2,0(r2)
 1004280:	10c03fcc 	andi	r3,r2,255
 1004284:	e0bffb0b 	ldhu	r2,-20(fp)
 1004288:	10c4b03a 	or	r2,r2,r3
 100428c:	e0bffb0d 	sth	r2,-20(fp)
			IOWR_16DIRECT(device_pointer->base, offset+counter, two_chars);
 1004290:	d0a6c717 	ldw	r2,-25828(gp)
 1004294:	10800a17 	ldw	r2,40(r2)
 1004298:	1009883a 	mov	r4,r2
 100429c:	e0fffe17 	ldw	r3,-8(fp)
 10042a0:	e0bffc17 	ldw	r2,-16(fp)
 10042a4:	1885883a 	add	r2,r3,r2
 10042a8:	2085883a 	add	r2,r4,r2
 10042ac:	e0fffb0f 	ldh	r3,-20(fp)
 10042b0:	10c0002d 	sthio	r3,0(r2)
	bool result = false;
	if (((offset & 0x01f) == 0) && (alt_up_sd_card_is_Present())
			&& (is_sd_card_formated_as_FAT16)) {
		int counter;

		for (counter = 0; counter < 8; counter = counter + 2) {
 10042b4:	e0bffc17 	ldw	r2,-16(fp)
 10042b8:	10800084 	addi	r2,r2,2
 10042bc:	e0bffc15 	stw	r2,-16(fp)
 10042c0:	e0bffc17 	ldw	r2,-16(fp)
 10042c4:	10800210 	cmplti	r2,r2,8
 10042c8:	103fdf1e 	bne	r2,zero,1004248 <Write_File_Record_At_Offset+0x4c>
			short int two_chars = (short int) record->name[counter + 1];
			two_chars = two_chars << 8;
			two_chars = two_chars | record->name[counter];
			IOWR_16DIRECT(device_pointer->base, offset+counter, two_chars);
		}
		for (counter = 0; counter < 3; counter++) {
 10042cc:	e03ffc15 	stw	zero,-16(fp)
 10042d0:	00001306 	br	1004320 <Write_File_Record_At_Offset+0x124>
			IOWR_8DIRECT(device_pointer->base, offset+counter+8,
 10042d4:	d0a6c717 	ldw	r2,-25828(gp)
 10042d8:	10800a17 	ldw	r2,40(r2)
 10042dc:	1009883a 	mov	r4,r2
 10042e0:	e0fffe17 	ldw	r3,-8(fp)
 10042e4:	e0bffc17 	ldw	r2,-16(fp)
 10042e8:	1885883a 	add	r2,r3,r2
 10042ec:	2085883a 	add	r2,r4,r2
 10042f0:	11000204 	addi	r4,r2,8
 10042f4:	e0fffc17 	ldw	r3,-16(fp)
 10042f8:	e0bfff17 	ldw	r2,-4(fp)
 10042fc:	1885883a 	add	r2,r3,r2
 1004300:	10800204 	addi	r2,r2,8
 1004304:	10800003 	ldbu	r2,0(r2)
 1004308:	10c03fcc 	andi	r3,r2,255
 100430c:	2005883a 	mov	r2,r4
 1004310:	10c00025 	stbio	r3,0(r2)
			short int two_chars = (short int) record->name[counter + 1];
			two_chars = two_chars << 8;
			two_chars = two_chars | record->name[counter];
			IOWR_16DIRECT(device_pointer->base, offset+counter, two_chars);
		}
		for (counter = 0; counter < 3; counter++) {
 1004314:	e0bffc17 	ldw	r2,-16(fp)
 1004318:	10800044 	addi	r2,r2,1
 100431c:	e0bffc15 	stw	r2,-16(fp)
 1004320:	e0bffc17 	ldw	r2,-16(fp)
 1004324:	108000d0 	cmplti	r2,r2,3
 1004328:	103fea1e 	bne	r2,zero,10042d4 <Write_File_Record_At_Offset+0xd8>
			IOWR_8DIRECT(device_pointer->base, offset+counter+8,
					record->extension[counter]);
		}
		IOWR_8DIRECT(device_pointer->base, offset+11, record->attributes);
 100432c:	d0a6c717 	ldw	r2,-25828(gp)
 1004330:	10800a17 	ldw	r2,40(r2)
 1004334:	1007883a 	mov	r3,r2
 1004338:	e0bffe17 	ldw	r2,-8(fp)
 100433c:	1885883a 	add	r2,r3,r2
 1004340:	110002c4 	addi	r4,r2,11
 1004344:	e0bfff17 	ldw	r2,-4(fp)
 1004348:	108002c3 	ldbu	r2,11(r2)
 100434c:	10c03fcc 	andi	r3,r2,255
 1004350:	2005883a 	mov	r2,r4
 1004354:	10c00025 	stbio	r3,0(r2)
		/* Ignore reserved bytes at locations 12 and 13. */
		IOWR_16DIRECT(device_pointer->base, offset+14, record->create_time);
 1004358:	d0a6c717 	ldw	r2,-25828(gp)
 100435c:	10800a17 	ldw	r2,40(r2)
 1004360:	1007883a 	mov	r3,r2
 1004364:	e0bffe17 	ldw	r2,-8(fp)
 1004368:	1885883a 	add	r2,r3,r2
 100436c:	11000384 	addi	r4,r2,14
 1004370:	e0bfff17 	ldw	r2,-4(fp)
 1004374:	1080030b 	ldhu	r2,12(r2)
 1004378:	10ffffcc 	andi	r3,r2,65535
 100437c:	2005883a 	mov	r2,r4
 1004380:	10c0002d 	sthio	r3,0(r2)
		IOWR_16DIRECT(device_pointer->base, offset+16, record->create_date);
 1004384:	d0a6c717 	ldw	r2,-25828(gp)
 1004388:	10800a17 	ldw	r2,40(r2)
 100438c:	1007883a 	mov	r3,r2
 1004390:	e0bffe17 	ldw	r2,-8(fp)
 1004394:	1885883a 	add	r2,r3,r2
 1004398:	11000404 	addi	r4,r2,16
 100439c:	e0bfff17 	ldw	r2,-4(fp)
 10043a0:	1080038b 	ldhu	r2,14(r2)
 10043a4:	10ffffcc 	andi	r3,r2,65535
 10043a8:	2005883a 	mov	r2,r4
 10043ac:	10c0002d 	sthio	r3,0(r2)
		IOWR_16DIRECT(device_pointer->base, offset+18,
 10043b0:	d0a6c717 	ldw	r2,-25828(gp)
 10043b4:	10800a17 	ldw	r2,40(r2)
 10043b8:	1007883a 	mov	r3,r2
 10043bc:	e0bffe17 	ldw	r2,-8(fp)
 10043c0:	1885883a 	add	r2,r3,r2
 10043c4:	11000484 	addi	r4,r2,18
 10043c8:	e0bfff17 	ldw	r2,-4(fp)
 10043cc:	1080040b 	ldhu	r2,16(r2)
 10043d0:	10ffffcc 	andi	r3,r2,65535
 10043d4:	2005883a 	mov	r2,r4
 10043d8:	10c0002d 	sthio	r3,0(r2)
				record->last_access_date);
		/* Ignore reserved bytes at locations 20 and 21. */
		IOWR_16DIRECT(device_pointer->base, offset+22,
 10043dc:	d0a6c717 	ldw	r2,-25828(gp)
 10043e0:	10800a17 	ldw	r2,40(r2)
 10043e4:	1007883a 	mov	r3,r2
 10043e8:	e0bffe17 	ldw	r2,-8(fp)
 10043ec:	1885883a 	add	r2,r3,r2
 10043f0:	11000584 	addi	r4,r2,22
 10043f4:	e0bfff17 	ldw	r2,-4(fp)
 10043f8:	1080048b 	ldhu	r2,18(r2)
 10043fc:	10ffffcc 	andi	r3,r2,65535
 1004400:	2005883a 	mov	r2,r4
 1004404:	10c0002d 	sthio	r3,0(r2)
				record->last_modified_time);
		IOWR_16DIRECT(device_pointer->base, offset+24,
 1004408:	d0a6c717 	ldw	r2,-25828(gp)
 100440c:	10800a17 	ldw	r2,40(r2)
 1004410:	1007883a 	mov	r3,r2
 1004414:	e0bffe17 	ldw	r2,-8(fp)
 1004418:	1885883a 	add	r2,r3,r2
 100441c:	11000604 	addi	r4,r2,24
 1004420:	e0bfff17 	ldw	r2,-4(fp)
 1004424:	1080050b 	ldhu	r2,20(r2)
 1004428:	10ffffcc 	andi	r3,r2,65535
 100442c:	2005883a 	mov	r2,r4
 1004430:	10c0002d 	sthio	r3,0(r2)
				record->last_modified_date);
		IOWR_16DIRECT(device_pointer->base, offset+26,
 1004434:	d0a6c717 	ldw	r2,-25828(gp)
 1004438:	10800a17 	ldw	r2,40(r2)
 100443c:	1007883a 	mov	r3,r2
 1004440:	e0bffe17 	ldw	r2,-8(fp)
 1004444:	1885883a 	add	r2,r3,r2
 1004448:	11000684 	addi	r4,r2,26
 100444c:	e0bfff17 	ldw	r2,-4(fp)
 1004450:	1080058b 	ldhu	r2,22(r2)
 1004454:	10ffffcc 	andi	r3,r2,65535
 1004458:	2005883a 	mov	r2,r4
 100445c:	10c0002d 	sthio	r3,0(r2)
				record->start_cluster_index);
		IOWR_32DIRECT(device_pointer->base, offset+28,
 1004460:	d0a6c717 	ldw	r2,-25828(gp)
 1004464:	10800a17 	ldw	r2,40(r2)
 1004468:	1007883a 	mov	r3,r2
 100446c:	e0bffe17 	ldw	r2,-8(fp)
 1004470:	1885883a 	add	r2,r3,r2
 1004474:	11000704 	addi	r4,r2,28
 1004478:	e0bfff17 	ldw	r2,-4(fp)
 100447c:	10800617 	ldw	r2,24(r2)
 1004480:	1007883a 	mov	r3,r2
 1004484:	2005883a 	mov	r2,r4
 1004488:	10c00035 	stwio	r3,0(r2)
				record->file_size_in_bytes);
		current_sector_modified = true;
 100448c:	00800044 	movi	r2,1
 1004490:	d0a6c815 	stw	r2,-25824(gp)
		result = true;
 1004494:	00800044 	movi	r2,1
 1004498:	e0bffd15 	stw	r2,-12(fp)
	}
	return result;
 100449c:	e0bffd17 	ldw	r2,-12(fp)
}
 10044a0:	e037883a 	mov	sp,fp
 10044a4:	dfc00117 	ldw	ra,4(sp)
 10044a8:	df000017 	ldw	fp,0(sp)
 10044ac:	dec00204 	addi	sp,sp,8
 10044b0:	f800283a 	ret

010044b4 <Check_for_DOS_FAT>:
// This function reads the boot sector for the FAT file system on the SD Card.
// The offset_address should point to the sector on the card where the boot sector is located.
// The sector number is specified either in the master Boot Record, or is 0 by default for a purely FAT
// based file system. If the specified sector contains a FAT boot sector, then this function prints the
// relevant information and returns 1. Otherwise, it returns 0. 
{
 10044b4:	defff804 	addi	sp,sp,-32
 10044b8:	dfc00715 	stw	ra,28(sp)
 10044bc:	df000615 	stw	fp,24(sp)
 10044c0:	dc000515 	stw	r16,20(sp)
 10044c4:	df000504 	addi	fp,sp,20
 10044c8:	e13fff15 	stw	r4,-4(fp)
	bool result = false;
 10044cc:	e03ffe15 	stw	zero,-8(fp)
	int counter = 0;
 10044d0:	e03ffd15 	stw	zero,-12(fp)
	short int end;

	result = Read_Sector_Data_Attempt_CRC(0, FAT_partition_start_sector);
 10044d4:	0009883a 	mov	r4,zero
 10044d8:	e17fff17 	ldw	r5,-4(fp)
 10044dc:	1007fa40 	call	1007fa4 <Read_Sector_Data_Attempt_CRC>
 10044e0:	e0bffe15 	stw	r2,-8(fp)
	end = (short int) IORD_16DIRECT(device_pointer->base, 0x1fe);
 10044e4:	d0a6c717 	ldw	r2,-25828(gp)
 10044e8:	10800a17 	ldw	r2,40(r2)
 10044ec:	10807f84 	addi	r2,r2,510
 10044f0:	1080002b 	ldhuio	r2,0(r2)
 10044f4:	e0bffc0d 	sth	r2,-16(fp)
	if (((end & 0x0000ffff) == 0x0000aa55) && (result)) {
 10044f8:	e0bffc0f 	ldh	r2,-16(fp)
 10044fc:	10ffffcc 	andi	r3,r2,65535
 1004500:	00aa9554 	movui	r2,43605
 1004504:	1881751e 	bne	r3,r2,1004adc <Check_for_DOS_FAT+0x628>
 1004508:	e0bffe17 	ldw	r2,-8(fp)
 100450c:	1005003a 	cmpeq	r2,r2,zero
 1004510:	1001721e 	bne	r2,zero,1004adc <Check_for_DOS_FAT+0x628>
		int num_clusters = 0;
 1004514:	e03ffb15 	stw	zero,-20(fp)

		boot_sector_data.jump_instruction[0] =
 1004518:	d0a6c717 	ldw	r2,-25828(gp)
 100451c:	10800a17 	ldw	r2,40(r2)
 1004520:	10800023 	ldbuio	r2,0(r2)
 1004524:	1007883a 	mov	r3,r2
 1004528:	00804074 	movhi	r2,257
 100452c:	10808504 	addi	r2,r2,532
 1004530:	10c00005 	stb	r3,0(r2)
				(char) IORD_8DIRECT(device_pointer->base, 0);
		boot_sector_data.jump_instruction[1] =
 1004534:	d0a6c717 	ldw	r2,-25828(gp)
 1004538:	10800a17 	ldw	r2,40(r2)
 100453c:	10800044 	addi	r2,r2,1
 1004540:	10800023 	ldbuio	r2,0(r2)
 1004544:	1007883a 	mov	r3,r2
 1004548:	00804074 	movhi	r2,257
 100454c:	10808504 	addi	r2,r2,532
 1004550:	10c00045 	stb	r3,1(r2)
				(char) IORD_8DIRECT(device_pointer->base, 1);
		boot_sector_data.jump_instruction[2] =
 1004554:	d0a6c717 	ldw	r2,-25828(gp)
 1004558:	10800a17 	ldw	r2,40(r2)
 100455c:	10800084 	addi	r2,r2,2
 1004560:	10800023 	ldbuio	r2,0(r2)
 1004564:	1007883a 	mov	r3,r2
 1004568:	00804074 	movhi	r2,257
 100456c:	10808504 	addi	r2,r2,532
 1004570:	10c00085 	stb	r3,2(r2)
				(char) IORD_8DIRECT(device_pointer->base, 2);
		for (counter = 0; counter < 8; counter++) {
 1004574:	e03ffd15 	stw	zero,-12(fp)
 1004578:	00001006 	br	10045bc <Check_for_DOS_FAT+0x108>
			boot_sector_data.OEM_name[counter] =
 100457c:	e13ffd17 	ldw	r4,-12(fp)
 1004580:	d0a6c717 	ldw	r2,-25828(gp)
 1004584:	10800a17 	ldw	r2,40(r2)
 1004588:	1007883a 	mov	r3,r2
 100458c:	e0bffd17 	ldw	r2,-12(fp)
 1004590:	1885883a 	add	r2,r3,r2
 1004594:	108000c4 	addi	r2,r2,3
 1004598:	10800023 	ldbuio	r2,0(r2)
 100459c:	1007883a 	mov	r3,r2
 10045a0:	00804074 	movhi	r2,257
 10045a4:	10808504 	addi	r2,r2,532
 10045a8:	1105883a 	add	r2,r2,r4
 10045ac:	10c000c5 	stb	r3,3(r2)
				(char) IORD_8DIRECT(device_pointer->base, 0);
		boot_sector_data.jump_instruction[1] =
				(char) IORD_8DIRECT(device_pointer->base, 1);
		boot_sector_data.jump_instruction[2] =
				(char) IORD_8DIRECT(device_pointer->base, 2);
		for (counter = 0; counter < 8; counter++) {
 10045b0:	e0bffd17 	ldw	r2,-12(fp)
 10045b4:	10800044 	addi	r2,r2,1
 10045b8:	e0bffd15 	stw	r2,-12(fp)
 10045bc:	e0bffd17 	ldw	r2,-12(fp)
 10045c0:	10800210 	cmplti	r2,r2,8
 10045c4:	103fed1e 	bne	r2,zero,100457c <Check_for_DOS_FAT+0xc8>
			boot_sector_data.OEM_name[counter] =
					(char) IORD_8DIRECT(device_pointer->base, 3+counter);
		}
		boot_sector_data.sector_size_in_bytes =
 10045c8:	d0a6c717 	ldw	r2,-25828(gp)
 10045cc:	10800a17 	ldw	r2,40(r2)
 10045d0:	10800304 	addi	r2,r2,12
 10045d4:	10800023 	ldbuio	r2,0(r2)
 10045d8:	10803fcc 	andi	r2,r2,255
 10045dc:	1004923a 	slli	r2,r2,8
 10045e0:	1007883a 	mov	r3,r2
 10045e4:	d0a6c717 	ldw	r2,-25828(gp)
 10045e8:	10800a17 	ldw	r2,40(r2)
 10045ec:	108002c4 	addi	r2,r2,11
 10045f0:	10800023 	ldbuio	r2,0(r2)
 10045f4:	10803fcc 	andi	r2,r2,255
 10045f8:	1080201c 	xori	r2,r2,128
 10045fc:	10bfe004 	addi	r2,r2,-128
 1004600:	1884b03a 	or	r2,r3,r2
 1004604:	1007883a 	mov	r3,r2
 1004608:	00804074 	movhi	r2,257
 100460c:	10808504 	addi	r2,r2,532
 1004610:	10c0030d 	sth	r3,12(r2)
				(((unsigned char) IORD_8DIRECT(device_pointer->base, 12)) << 8)
						| ((char) IORD_8DIRECT(device_pointer->base, 11));
		boot_sector_data.sectors_per_cluster =
 1004614:	d0a6c717 	ldw	r2,-25828(gp)
 1004618:	10800a17 	ldw	r2,40(r2)
 100461c:	10800344 	addi	r2,r2,13
 1004620:	10800023 	ldbuio	r2,0(r2)
 1004624:	1007883a 	mov	r3,r2
 1004628:	00804074 	movhi	r2,257
 100462c:	10808504 	addi	r2,r2,532
 1004630:	10c00385 	stb	r3,14(r2)
				((unsigned char) IORD_8DIRECT(device_pointer->base, 13));
		boot_sector_data.reserved_sectors =
 1004634:	d0a6c717 	ldw	r2,-25828(gp)
 1004638:	10800a17 	ldw	r2,40(r2)
 100463c:	10800384 	addi	r2,r2,14
 1004640:	1080002b 	ldhuio	r2,0(r2)
 1004644:	1007883a 	mov	r3,r2
 1004648:	00804074 	movhi	r2,257
 100464c:	10808504 	addi	r2,r2,532
 1004650:	10c0040d 	sth	r3,16(r2)
				((unsigned short int) IORD_16DIRECT(device_pointer->base, 14));
		boot_sector_data.number_of_FATs =
 1004654:	d0a6c717 	ldw	r2,-25828(gp)
 1004658:	10800a17 	ldw	r2,40(r2)
 100465c:	10800404 	addi	r2,r2,16
 1004660:	10800023 	ldbuio	r2,0(r2)
 1004664:	1007883a 	mov	r3,r2
 1004668:	00804074 	movhi	r2,257
 100466c:	10808504 	addi	r2,r2,532
 1004670:	10c00485 	stb	r3,18(r2)
				((unsigned char) IORD_8DIRECT(device_pointer->base, 16));
		boot_sector_data.max_number_of_dir_entires =
 1004674:	d0a6c717 	ldw	r2,-25828(gp)
 1004678:	10800a17 	ldw	r2,40(r2)
 100467c:	10800484 	addi	r2,r2,18
 1004680:	10800023 	ldbuio	r2,0(r2)
 1004684:	10803fcc 	andi	r2,r2,255
 1004688:	1004923a 	slli	r2,r2,8
 100468c:	1007883a 	mov	r3,r2
 1004690:	d0a6c717 	ldw	r2,-25828(gp)
 1004694:	10800a17 	ldw	r2,40(r2)
 1004698:	10800444 	addi	r2,r2,17
 100469c:	10800023 	ldbuio	r2,0(r2)
 10046a0:	10803fcc 	andi	r2,r2,255
 10046a4:	1884b03a 	or	r2,r3,r2
 10046a8:	1007883a 	mov	r3,r2
 10046ac:	00804074 	movhi	r2,257
 10046b0:	10808504 	addi	r2,r2,532
 10046b4:	10c0050d 	sth	r3,20(r2)
				(((unsigned short int) (((unsigned char) IORD_8DIRECT(device_pointer->base, 18))))
						<< 8)
						| ((unsigned char) IORD_8DIRECT(device_pointer->base, 17));
		boot_sector_data.number_of_sectors_in_partition =
 10046b8:	d0a6c717 	ldw	r2,-25828(gp)
 10046bc:	10800a17 	ldw	r2,40(r2)
 10046c0:	10800504 	addi	r2,r2,20
 10046c4:	10800023 	ldbuio	r2,0(r2)
 10046c8:	10803fcc 	andi	r2,r2,255
 10046cc:	1004923a 	slli	r2,r2,8
 10046d0:	1007883a 	mov	r3,r2
 10046d4:	d0a6c717 	ldw	r2,-25828(gp)
 10046d8:	10800a17 	ldw	r2,40(r2)
 10046dc:	108004c4 	addi	r2,r2,19
 10046e0:	10800023 	ldbuio	r2,0(r2)
 10046e4:	10803fcc 	andi	r2,r2,255
 10046e8:	1884b03a 	or	r2,r3,r2
 10046ec:	1007883a 	mov	r3,r2
 10046f0:	00804074 	movhi	r2,257
 10046f4:	10808504 	addi	r2,r2,532
 10046f8:	10c0058d 	sth	r3,22(r2)
				(((unsigned short int) (((unsigned char) IORD_8DIRECT(device_pointer->base, 20))))
						<< 8)
						| ((unsigned char) IORD_8DIRECT(device_pointer->base, 19));
		boot_sector_data.media_descriptor =
 10046fc:	d0a6c717 	ldw	r2,-25828(gp)
 1004700:	10800a17 	ldw	r2,40(r2)
 1004704:	10800544 	addi	r2,r2,21
 1004708:	10800023 	ldbuio	r2,0(r2)
 100470c:	1007883a 	mov	r3,r2
 1004710:	00804074 	movhi	r2,257
 1004714:	10808504 	addi	r2,r2,532
 1004718:	10c00605 	stb	r3,24(r2)
				((unsigned char) IORD_8DIRECT(device_pointer->base, 21));
		boot_sector_data.number_of_sectors_per_table =
 100471c:	d0a6c717 	ldw	r2,-25828(gp)
 1004720:	10800a17 	ldw	r2,40(r2)
 1004724:	10800584 	addi	r2,r2,22
 1004728:	1080002b 	ldhuio	r2,0(r2)
 100472c:	1007883a 	mov	r3,r2
 1004730:	00804074 	movhi	r2,257
 1004734:	10808504 	addi	r2,r2,532
 1004738:	10c0068d 	sth	r3,26(r2)
				((unsigned short int) IORD_16DIRECT(device_pointer->base, 22));
		boot_sector_data.number_of_sectors_per_track =
 100473c:	d0a6c717 	ldw	r2,-25828(gp)
 1004740:	10800a17 	ldw	r2,40(r2)
 1004744:	10800604 	addi	r2,r2,24
 1004748:	1080002b 	ldhuio	r2,0(r2)
 100474c:	1007883a 	mov	r3,r2
 1004750:	00804074 	movhi	r2,257
 1004754:	10808504 	addi	r2,r2,532
 1004758:	10c0070d 	sth	r3,28(r2)
				((unsigned short int) IORD_16DIRECT(device_pointer->base, 24));
		boot_sector_data.number_of_heads =
 100475c:	d0a6c717 	ldw	r2,-25828(gp)
 1004760:	10800a17 	ldw	r2,40(r2)
 1004764:	10800684 	addi	r2,r2,26
 1004768:	1080002b 	ldhuio	r2,0(r2)
 100476c:	1007883a 	mov	r3,r2
 1004770:	00804074 	movhi	r2,257
 1004774:	10808504 	addi	r2,r2,532
 1004778:	10c0078d 	sth	r3,30(r2)
				((unsigned short int) IORD_16DIRECT(device_pointer->base, 26));
		boot_sector_data.number_of_hidden_sectors =
 100477c:	d0a6c717 	ldw	r2,-25828(gp)
 1004780:	10800a17 	ldw	r2,40(r2)
 1004784:	10800704 	addi	r2,r2,28
 1004788:	10800037 	ldwio	r2,0(r2)
 100478c:	1007883a 	mov	r3,r2
 1004790:	00804074 	movhi	r2,257
 1004794:	10808504 	addi	r2,r2,532
 1004798:	10c00815 	stw	r3,32(r2)
				((unsigned int) IORD_32DIRECT(device_pointer->base, 28));
		boot_sector_data.total_sector_count_if_above_32MB =
 100479c:	d0a6c717 	ldw	r2,-25828(gp)
 10047a0:	10800a17 	ldw	r2,40(r2)
 10047a4:	10800804 	addi	r2,r2,32
 10047a8:	10800037 	ldwio	r2,0(r2)
 10047ac:	1007883a 	mov	r3,r2
 10047b0:	00804074 	movhi	r2,257
 10047b4:	10808504 	addi	r2,r2,532
 10047b8:	10c00915 	stw	r3,36(r2)
				((unsigned int) IORD_32DIRECT(device_pointer->base, 32));
		boot_sector_data.drive_number =
 10047bc:	d0a6c717 	ldw	r2,-25828(gp)
 10047c0:	10800a17 	ldw	r2,40(r2)
 10047c4:	10800904 	addi	r2,r2,36
 10047c8:	10800023 	ldbuio	r2,0(r2)
 10047cc:	1007883a 	mov	r3,r2
 10047d0:	00804074 	movhi	r2,257
 10047d4:	10808504 	addi	r2,r2,532
 10047d8:	10c00a05 	stb	r3,40(r2)
				((unsigned char) IORD_8DIRECT(device_pointer->base, 36));
		boot_sector_data.current_head =
 10047dc:	d0a6c717 	ldw	r2,-25828(gp)
 10047e0:	10800a17 	ldw	r2,40(r2)
 10047e4:	10800944 	addi	r2,r2,37
 10047e8:	10800023 	ldbuio	r2,0(r2)
 10047ec:	1007883a 	mov	r3,r2
 10047f0:	00804074 	movhi	r2,257
 10047f4:	10808504 	addi	r2,r2,532
 10047f8:	10c00a45 	stb	r3,41(r2)
				((unsigned char) IORD_8DIRECT(device_pointer->base, 37));
		boot_sector_data.boot_signature =
 10047fc:	d0a6c717 	ldw	r2,-25828(gp)
 1004800:	10800a17 	ldw	r2,40(r2)
 1004804:	10800984 	addi	r2,r2,38
 1004808:	10800023 	ldbuio	r2,0(r2)
 100480c:	1007883a 	mov	r3,r2
 1004810:	00804074 	movhi	r2,257
 1004814:	10808504 	addi	r2,r2,532
 1004818:	10c00a85 	stb	r3,42(r2)
				((unsigned char) IORD_8DIRECT(device_pointer->base, 38));
		boot_sector_data.first_fat_sector_offset =
 100481c:	00804074 	movhi	r2,257
 1004820:	10808504 	addi	r2,r2,532
 1004824:	1080040b 	ldhu	r2,16(r2)
 1004828:	10ffffcc 	andi	r3,r2,65535
 100482c:	00804074 	movhi	r2,257
 1004830:	10808504 	addi	r2,r2,532
 1004834:	10c01115 	stw	r3,68(r2)
				boot_sector_data.reserved_sectors;
		boot_sector_data.second_fat_sector_offset =
 1004838:	00804074 	movhi	r2,257
 100483c:	10808504 	addi	r2,r2,532
 1004840:	10c01117 	ldw	r3,68(r2)
 1004844:	00804074 	movhi	r2,257
 1004848:	10808504 	addi	r2,r2,532
 100484c:	1080068b 	ldhu	r2,26(r2)
 1004850:	10bfffcc 	andi	r2,r2,65535
 1004854:	1887883a 	add	r3,r3,r2
 1004858:	00804074 	movhi	r2,257
 100485c:	10808504 	addi	r2,r2,532
 1004860:	10c01215 	stw	r3,72(r2)
				boot_sector_data.first_fat_sector_offset
						+ boot_sector_data.number_of_sectors_per_table;
		boot_sector_data.root_directory_sector_offset =
 1004864:	00804074 	movhi	r2,257
 1004868:	10808504 	addi	r2,r2,532
 100486c:	10c01217 	ldw	r3,72(r2)
 1004870:	00804074 	movhi	r2,257
 1004874:	10808504 	addi	r2,r2,532
 1004878:	1080068b 	ldhu	r2,26(r2)
 100487c:	10bfffcc 	andi	r2,r2,65535
 1004880:	1887883a 	add	r3,r3,r2
 1004884:	00804074 	movhi	r2,257
 1004888:	10808504 	addi	r2,r2,532
 100488c:	10c01315 	stw	r3,76(r2)
				boot_sector_data.second_fat_sector_offset
						+ boot_sector_data.number_of_sectors_per_table;
		boot_sector_data.data_sector_offset =
 1004890:	00804074 	movhi	r2,257
 1004894:	10808504 	addi	r2,r2,532
 1004898:	14001317 	ldw	r16,76(r2)
 100489c:	00804074 	movhi	r2,257
 10048a0:	10808504 	addi	r2,r2,532
 10048a4:	1080050b 	ldhu	r2,20(r2)
 10048a8:	10bfffcc 	andi	r2,r2,65535
 10048ac:	1008917a 	slli	r4,r2,5
 10048b0:	00804074 	movhi	r2,257
 10048b4:	10808504 	addi	r2,r2,532
 10048b8:	1080030b 	ldhu	r2,12(r2)
 10048bc:	117fffcc 	andi	r5,r2,65535
 10048c0:	100c5540 	call	100c554 <__divsi3>
 10048c4:	8087883a 	add	r3,r16,r2
 10048c8:	00804074 	movhi	r2,257
 10048cc:	10808504 	addi	r2,r2,532
 10048d0:	10c01415 	stw	r3,80(r2)
				boot_sector_data.root_directory_sector_offset
						+ (32 * boot_sector_data.max_number_of_dir_entires
								/ boot_sector_data.sector_size_in_bytes);

		if (boot_sector_data.number_of_sectors_in_partition > 0) {
 10048d4:	00804074 	movhi	r2,257
 10048d8:	10808504 	addi	r2,r2,532
 10048dc:	1080058b 	ldhu	r2,22(r2)
 10048e0:	10bfffcc 	andi	r2,r2,65535
 10048e4:	1005003a 	cmpeq	r2,r2,zero
 10048e8:	10000b1e 	bne	r2,zero,1004918 <Check_for_DOS_FAT+0x464>
			num_clusters = (boot_sector_data.number_of_sectors_in_partition
 10048ec:	00804074 	movhi	r2,257
 10048f0:	10808504 	addi	r2,r2,532
 10048f4:	1080058b 	ldhu	r2,22(r2)
 10048f8:	113fffcc 	andi	r4,r2,65535
 10048fc:	00804074 	movhi	r2,257
 1004900:	10808504 	addi	r2,r2,532
 1004904:	10800383 	ldbu	r2,14(r2)
 1004908:	11403fcc 	andi	r5,r2,255
 100490c:	100c5540 	call	100c554 <__divsi3>
 1004910:	e0bffb15 	stw	r2,-20(fp)
 1004914:	00000906 	br	100493c <Check_for_DOS_FAT+0x488>
					/ boot_sector_data.sectors_per_cluster);
		} else {
			num_clusters = (boot_sector_data.total_sector_count_if_above_32MB
 1004918:	00804074 	movhi	r2,257
 100491c:	10808504 	addi	r2,r2,532
 1004920:	11000917 	ldw	r4,36(r2)
 1004924:	00804074 	movhi	r2,257
 1004928:	10808504 	addi	r2,r2,532
 100492c:	10800383 	ldbu	r2,14(r2)
 1004930:	11403fcc 	andi	r5,r2,255
 1004934:	100c6140 	call	100c614 <__udivsi3>
 1004938:	e0bffb15 	stw	r2,-20(fp)
					/ boot_sector_data.sectors_per_cluster);
		}
		if (num_clusters < 4087) {
 100493c:	e0bffb17 	ldw	r2,-20(fp)
 1004940:	1083fdc8 	cmpgei	r2,r2,4087
 1004944:	1000051e 	bne	r2,zero,100495c <Check_for_DOS_FAT+0x4a8>
			boot_sector_data.bits_for_cluster_index = 12;
 1004948:	00c04074 	movhi	r3,257
 100494c:	18c08504 	addi	r3,r3,532
 1004950:	00800304 	movi	r2,12
 1004954:	18801085 	stb	r2,66(r3)
 1004958:	00000c06 	br	100498c <Check_for_DOS_FAT+0x4d8>
		} else if (num_clusters <= 65517) {
 100495c:	e0fffb17 	ldw	r3,-20(fp)
 1004960:	00bffb54 	movui	r2,65517
 1004964:	10c00516 	blt	r2,r3,100497c <Check_for_DOS_FAT+0x4c8>
			boot_sector_data.bits_for_cluster_index = 16;
 1004968:	00c04074 	movhi	r3,257
 100496c:	18c08504 	addi	r3,r3,532
 1004970:	00800404 	movi	r2,16
 1004974:	18801085 	stb	r2,66(r3)
 1004978:	00000406 	br	100498c <Check_for_DOS_FAT+0x4d8>
		} else {
			boot_sector_data.bits_for_cluster_index = 32;
 100497c:	00c04074 	movhi	r3,257
 1004980:	18c08504 	addi	r3,r3,532
 1004984:	00800804 	movi	r2,32
 1004988:	18801085 	stb	r2,66(r3)
		}

		for (counter = 0; counter < 4; counter++) {
 100498c:	e03ffd15 	stw	zero,-12(fp)
 1004990:	00001106 	br	10049d8 <Check_for_DOS_FAT+0x524>
			boot_sector_data.volume_id[counter] =
 1004994:	e13ffd17 	ldw	r4,-12(fp)
 1004998:	d0a6c717 	ldw	r2,-25828(gp)
 100499c:	10800a17 	ldw	r2,40(r2)
 10049a0:	1007883a 	mov	r3,r2
 10049a4:	e0bffd17 	ldw	r2,-12(fp)
 10049a8:	1885883a 	add	r2,r3,r2
 10049ac:	108009c4 	addi	r2,r2,39
 10049b0:	10800023 	ldbuio	r2,0(r2)
 10049b4:	1007883a 	mov	r3,r2
 10049b8:	00804074 	movhi	r2,257
 10049bc:	10808504 	addi	r2,r2,532
 10049c0:	2085883a 	add	r2,r4,r2
 10049c4:	10800a04 	addi	r2,r2,40
 10049c8:	10c000c5 	stb	r3,3(r2)
			boot_sector_data.bits_for_cluster_index = 16;
		} else {
			boot_sector_data.bits_for_cluster_index = 32;
		}

		for (counter = 0; counter < 4; counter++) {
 10049cc:	e0bffd17 	ldw	r2,-12(fp)
 10049d0:	10800044 	addi	r2,r2,1
 10049d4:	e0bffd15 	stw	r2,-12(fp)
 10049d8:	e0bffd17 	ldw	r2,-12(fp)
 10049dc:	10800110 	cmplti	r2,r2,4
 10049e0:	103fec1e 	bne	r2,zero,1004994 <Check_for_DOS_FAT+0x4e0>
			boot_sector_data.volume_id[counter] =
					((char) IORD_8DIRECT(device_pointer->base, 39+counter));
		}
		for (counter = 0; counter < 11; counter++) {
 10049e4:	e03ffd15 	stw	zero,-12(fp)
 10049e8:	00001106 	br	1004a30 <Check_for_DOS_FAT+0x57c>
			boot_sector_data.volume_label[counter] =
 10049ec:	e13ffd17 	ldw	r4,-12(fp)
 10049f0:	d0a6c717 	ldw	r2,-25828(gp)
 10049f4:	10800a17 	ldw	r2,40(r2)
 10049f8:	1007883a 	mov	r3,r2
 10049fc:	e0bffd17 	ldw	r2,-12(fp)
 1004a00:	1885883a 	add	r2,r3,r2
 1004a04:	10800ac4 	addi	r2,r2,43
 1004a08:	10800023 	ldbuio	r2,0(r2)
 1004a0c:	1007883a 	mov	r3,r2
 1004a10:	00804074 	movhi	r2,257
 1004a14:	10808504 	addi	r2,r2,532
 1004a18:	2085883a 	add	r2,r4,r2
 1004a1c:	10800b04 	addi	r2,r2,44
 1004a20:	10c000c5 	stb	r3,3(r2)

		for (counter = 0; counter < 4; counter++) {
			boot_sector_data.volume_id[counter] =
					((char) IORD_8DIRECT(device_pointer->base, 39+counter));
		}
		for (counter = 0; counter < 11; counter++) {
 1004a24:	e0bffd17 	ldw	r2,-12(fp)
 1004a28:	10800044 	addi	r2,r2,1
 1004a2c:	e0bffd15 	stw	r2,-12(fp)
 1004a30:	e0bffd17 	ldw	r2,-12(fp)
 1004a34:	108002d0 	cmplti	r2,r2,11
 1004a38:	103fec1e 	bne	r2,zero,10049ec <Check_for_DOS_FAT+0x538>
			boot_sector_data.volume_label[counter] =
					((char) IORD_8DIRECT(device_pointer->base, 43+counter));
		}
		for (counter = 0; counter < 8; counter++) {
 1004a3c:	e03ffd15 	stw	zero,-12(fp)
 1004a40:	00001106 	br	1004a88 <Check_for_DOS_FAT+0x5d4>
			boot_sector_data.file_system_type[counter] =
 1004a44:	e13ffd17 	ldw	r4,-12(fp)
 1004a48:	d0a6c717 	ldw	r2,-25828(gp)
 1004a4c:	10800a17 	ldw	r2,40(r2)
 1004a50:	1007883a 	mov	r3,r2
 1004a54:	e0bffd17 	ldw	r2,-12(fp)
 1004a58:	1885883a 	add	r2,r3,r2
 1004a5c:	10800d84 	addi	r2,r2,54
 1004a60:	10800023 	ldbuio	r2,0(r2)
 1004a64:	1007883a 	mov	r3,r2
 1004a68:	00804074 	movhi	r2,257
 1004a6c:	10808504 	addi	r2,r2,532
 1004a70:	2085883a 	add	r2,r4,r2
 1004a74:	10800e04 	addi	r2,r2,56
 1004a78:	10c00085 	stb	r3,2(r2)
		}
		for (counter = 0; counter < 11; counter++) {
			boot_sector_data.volume_label[counter] =
					((char) IORD_8DIRECT(device_pointer->base, 43+counter));
		}
		for (counter = 0; counter < 8; counter++) {
 1004a7c:	e0bffd17 	ldw	r2,-12(fp)
 1004a80:	10800044 	addi	r2,r2,1
 1004a84:	e0bffd15 	stw	r2,-12(fp)
 1004a88:	e0bffd17 	ldw	r2,-12(fp)
 1004a8c:	10800210 	cmplti	r2,r2,8
 1004a90:	103fec1e 	bne	r2,zero,1004a44 <Check_for_DOS_FAT+0x590>
			boot_sector_data.file_system_type[counter] =
					((char) IORD_8DIRECT(device_pointer->base, 54+counter));
		}
		// Clear file records
		for (counter = 0; counter < MAX_FILES_OPENED; counter++) {
 1004a94:	e03ffd15 	stw	zero,-12(fp)
 1004a98:	00000a06 	br	1004ac4 <Check_for_DOS_FAT+0x610>
			active_files[counter].in_use = false;
 1004a9c:	e0bffd17 	ldw	r2,-12(fp)
 1004aa0:	00c04074 	movhi	r3,257
 1004aa4:	18c09a04 	addi	r3,r3,616
 1004aa8:	100491ba 	slli	r2,r2,6
 1004aac:	10c5883a 	add	r2,r2,r3
 1004ab0:	10800f04 	addi	r2,r2,60
 1004ab4:	10000015 	stw	zero,0(r2)
		for (counter = 0; counter < 8; counter++) {
			boot_sector_data.file_system_type[counter] =
					((char) IORD_8DIRECT(device_pointer->base, 54+counter));
		}
		// Clear file records
		for (counter = 0; counter < MAX_FILES_OPENED; counter++) {
 1004ab8:	e0bffd17 	ldw	r2,-12(fp)
 1004abc:	10800044 	addi	r2,r2,1
 1004ac0:	e0bffd15 	stw	r2,-12(fp)
 1004ac4:	e0bffd17 	ldw	r2,-12(fp)
 1004ac8:	10800510 	cmplti	r2,r2,20
 1004acc:	103ff31e 	bne	r2,zero,1004a9c <Check_for_DOS_FAT+0x5e8>
			active_files[counter].in_use = false;
		}
		result = true;
 1004ad0:	00800044 	movi	r2,1
 1004ad4:	e0bffe15 	stw	r2,-8(fp)
	int counter = 0;
	short int end;

	result = Read_Sector_Data_Attempt_CRC(0, FAT_partition_start_sector);
	end = (short int) IORD_16DIRECT(device_pointer->base, 0x1fe);
	if (((end & 0x0000ffff) == 0x0000aa55) && (result)) {
 1004ad8:	00000106 	br	1004ae0 <Check_for_DOS_FAT+0x62c>
		for (counter = 0; counter < MAX_FILES_OPENED; counter++) {
			active_files[counter].in_use = false;
		}
		result = true;
	} else {
		result = false;
 1004adc:	e03ffe15 	stw	zero,-8(fp)
	}
	return result;
 1004ae0:	e0bffe17 	ldw	r2,-8(fp)
}
 1004ae4:	e037883a 	mov	sp,fp
 1004ae8:	dfc00217 	ldw	ra,8(sp)
 1004aec:	df000117 	ldw	fp,4(sp)
 1004af0:	dc000017 	ldw	r16,0(sp)
 1004af4:	dec00304 	addi	sp,sp,12
 1004af8:	f800283a 	ret

01004afc <Look_for_FAT16>:

bool Look_for_FAT16(void)
// Read the SD card to determine if it contains a FAT16 partition.
{
 1004afc:	defffc04 	addi	sp,sp,-16
 1004b00:	dfc00315 	stw	ra,12(sp)
 1004b04:	df000215 	stw	fp,8(sp)
 1004b08:	df000204 	addi	fp,sp,8
	bool result = false;
 1004b0c:	e03fff15 	stw	zero,-4(fp)

	if (alt_up_sd_card_is_Present()) {
 1004b10:	100684c0 	call	100684c <alt_up_sd_card_is_Present>
 1004b14:	1005003a 	cmpeq	r2,r2,zero
 1004b18:	1000331e 	bne	r2,zero,1004be8 <Look_for_FAT16+0xec>
		Read_Sector_Data_Attempt_CRC(0, 0);
 1004b1c:	0009883a 	mov	r4,zero
 1004b20:	000b883a 	mov	r5,zero
 1004b24:	1007fa40 	call	1007fa4 <Read_Sector_Data_Attempt_CRC>

		short int csd_file_format = *CSD_register_w0;
 1004b28:	d0a6c117 	ldw	r2,-25852(gp)
 1004b2c:	1080000b 	ldhu	r2,0(r2)
 1004b30:	e0bffe0d 	sth	r2,-8(fp)

		fat_partition_offset_in_512_byte_sectors = 0;
 1004b34:	d026c515 	stw	zero,-25836(gp)
		fat_partition_size_in_512_byte_sectors = 0;
 1004b38:	d026c615 	stw	zero,-25832(gp)

		if (((csd_file_format & 0x8000) == 0)
 1004b3c:	e0bffe0f 	ldh	r2,-8(fp)
 1004b40:	1004803a 	cmplt	r2,r2,zero
 1004b44:	1000281e 	bne	r2,zero,1004be8 <Look_for_FAT16+0xec>
 1004b48:	e0bffe0b 	ldhu	r2,-8(fp)
 1004b4c:	10bfffcc 	andi	r2,r2,65535
 1004b50:	1083000c 	andi	r2,r2,3072
 1004b54:	10830020 	cmpeqi	r2,r2,3072
 1004b58:	1000231e 	bne	r2,zero,1004be8 <Look_for_FAT16+0xec>
				&& ((csd_file_format & 0x0c00) != 0x0c00)) {
			if ((csd_file_format & 0x0c00) == 0x0400) {
 1004b5c:	e0bffe0b 	ldhu	r2,-8(fp)
 1004b60:	10bfffcc 	andi	r2,r2,65535
 1004b64:	1083000c 	andi	r2,r2,3072
 1004b68:	10810018 	cmpnei	r2,r2,1024
 1004b6c:	1000031e 	bne	r2,zero,1004b7c <Look_for_FAT16+0x80>
				/* SD Card contains files stored in a DOS FAT (floppy like) file format, without a partition table */
				result = Check_for_DOS_FAT(0);
 1004b70:	0009883a 	mov	r4,zero
 1004b74:	10044b40 	call	10044b4 <Check_for_DOS_FAT>
 1004b78:	e0bfff15 	stw	r2,-4(fp)
			}
			if ((csd_file_format & 0x0c00) == 0x0000) {
 1004b7c:	e0bffe0b 	ldhu	r2,-8(fp)
 1004b80:	10bfffcc 	andi	r2,r2,65535
 1004b84:	1083000c 	andi	r2,r2,3072
 1004b88:	1004c03a 	cmpne	r2,r2,zero
 1004b8c:	1000061e 	bne	r2,zero,1004ba8 <Look_for_FAT16+0xac>
				/* SD Card contains files stored in a Hard disk-like file format that contains a partition table */
				if (Check_for_Master_Boot_Record()) {
 1004b90:	1003dc80 	call	1003dc8 <Check_for_Master_Boot_Record>
 1004b94:	1005003a 	cmpeq	r2,r2,zero
 1004b98:	1000031e 	bne	r2,zero,1004ba8 <Look_for_FAT16+0xac>
					result = Check_for_DOS_FAT(
 1004b9c:	d126c517 	ldw	r4,-25836(gp)
 1004ba0:	10044b40 	call	10044b4 <Check_for_DOS_FAT>
 1004ba4:	e0bfff15 	stw	r2,-4(fp)
							fat_partition_offset_in_512_byte_sectors);
				}
			}
			if (result == true) {
 1004ba8:	e0bfff17 	ldw	r2,-4(fp)
 1004bac:	10800058 	cmpnei	r2,r2,1
 1004bb0:	10000d1e 	bne	r2,zero,1004be8 <Look_for_FAT16+0xec>
				// Accept only FAT16, not FAT12.
				if (boot_sector_data.bits_for_cluster_index != 16) {
 1004bb4:	00804074 	movhi	r2,257
 1004bb8:	10808504 	addi	r2,r2,532
 1004bbc:	10801083 	ldbu	r2,66(r2)
 1004bc0:	10803fcc 	andi	r2,r2,255
 1004bc4:	10800420 	cmpeqi	r2,r2,16
 1004bc8:	1000021e 	bne	r2,zero,1004bd4 <Look_for_FAT16+0xd8>
					result = false;
 1004bcc:	e03fff15 	stw	zero,-4(fp)
 1004bd0:	00000506 	br	1004be8 <Look_for_FAT16+0xec>
				} else {
					fat_partition_size_in_512_byte_sectors =
 1004bd4:	00804074 	movhi	r2,257
 1004bd8:	10808504 	addi	r2,r2,532
 1004bdc:	1080058b 	ldhu	r2,22(r2)
 1004be0:	10bfffcc 	andi	r2,r2,65535
 1004be4:	d0a6c615 	stw	r2,-25832(gp)
							boot_sector_data.number_of_sectors_in_partition;
				}
			}
		}
	}
	return result;
 1004be8:	e0bfff17 	ldw	r2,-4(fp)
}
 1004bec:	e037883a 	mov	sp,fp
 1004bf0:	dfc00117 	ldw	ra,4(sp)
 1004bf4:	df000017 	ldw	fp,0(sp)
 1004bf8:	dec00204 	addi	sp,sp,8
 1004bfc:	f800283a 	ret

01004c00 <filename_to_upper_case>:

void filename_to_upper_case(char *file_name)
// Change file name to upper case.
{
 1004c00:	defffb04 	addi	sp,sp,-20
 1004c04:	dfc00415 	stw	ra,16(sp)
 1004c08:	df000315 	stw	fp,12(sp)
 1004c0c:	df000304 	addi	fp,sp,12
 1004c10:	e13fff15 	stw	r4,-4(fp)
	int index;
	int length = strlen(file_name);
 1004c14:	e13fff17 	ldw	r4,-4(fp)
 1004c18:	100056c0 	call	100056c <strlen>
 1004c1c:	e0bffd15 	stw	r2,-12(fp)

	for (index = 0; index < length; index++) {
 1004c20:	e03ffe15 	stw	zero,-8(fp)
 1004c24:	00002206 	br	1004cb0 <filename_to_upper_case+0xb0>
		if ((file_name[index] >= 'a') && (file_name[index] <= 'z')) {
 1004c28:	e0bffe17 	ldw	r2,-8(fp)
 1004c2c:	1007883a 	mov	r3,r2
 1004c30:	e0bfff17 	ldw	r2,-4(fp)
 1004c34:	1885883a 	add	r2,r3,r2
 1004c38:	10800003 	ldbu	r2,0(r2)
 1004c3c:	10803fcc 	andi	r2,r2,255
 1004c40:	1080201c 	xori	r2,r2,128
 1004c44:	10bfe004 	addi	r2,r2,-128
 1004c48:	10801850 	cmplti	r2,r2,97
 1004c4c:	1000151e 	bne	r2,zero,1004ca4 <filename_to_upper_case+0xa4>
 1004c50:	e0bffe17 	ldw	r2,-8(fp)
 1004c54:	1007883a 	mov	r3,r2
 1004c58:	e0bfff17 	ldw	r2,-4(fp)
 1004c5c:	1885883a 	add	r2,r3,r2
 1004c60:	10800003 	ldbu	r2,0(r2)
 1004c64:	10803fcc 	andi	r2,r2,255
 1004c68:	1080201c 	xori	r2,r2,128
 1004c6c:	10bfe004 	addi	r2,r2,-128
 1004c70:	10801ec8 	cmpgei	r2,r2,123
 1004c74:	10000b1e 	bne	r2,zero,1004ca4 <filename_to_upper_case+0xa4>
			file_name[index] = (file_name[index] - 'a') + 'A';
 1004c78:	e0bffe17 	ldw	r2,-8(fp)
 1004c7c:	1007883a 	mov	r3,r2
 1004c80:	e0bfff17 	ldw	r2,-4(fp)
 1004c84:	1889883a 	add	r4,r3,r2
 1004c88:	e0bffe17 	ldw	r2,-8(fp)
 1004c8c:	1007883a 	mov	r3,r2
 1004c90:	e0bfff17 	ldw	r2,-4(fp)
 1004c94:	1885883a 	add	r2,r3,r2
 1004c98:	10800003 	ldbu	r2,0(r2)
 1004c9c:	10bff804 	addi	r2,r2,-32
 1004ca0:	20800005 	stb	r2,0(r4)
// Change file name to upper case.
{
	int index;
	int length = strlen(file_name);

	for (index = 0; index < length; index++) {
 1004ca4:	e0bffe17 	ldw	r2,-8(fp)
 1004ca8:	10800044 	addi	r2,r2,1
 1004cac:	e0bffe15 	stw	r2,-8(fp)
 1004cb0:	e0fffe17 	ldw	r3,-8(fp)
 1004cb4:	e0bffd17 	ldw	r2,-12(fp)
 1004cb8:	18bfdb16 	blt	r3,r2,1004c28 <filename_to_upper_case+0x28>
		if ((file_name[index] >= 'a') && (file_name[index] <= 'z')) {
			file_name[index] = (file_name[index] - 'a') + 'A';
		}
	}
}
 1004cbc:	e037883a 	mov	sp,fp
 1004cc0:	dfc00117 	ldw	ra,4(sp)
 1004cc4:	df000017 	ldw	fp,0(sp)
 1004cc8:	dec00204 	addi	sp,sp,8
 1004ccc:	f800283a 	ret

01004cd0 <check_file_name_for_FAT16_compliance>:

bool check_file_name_for_FAT16_compliance(char *file_name)
// Check if the file complies with FAT16 naming convention.
{
 1004cd0:	defff804 	addi	sp,sp,-32
 1004cd4:	dfc00715 	stw	ra,28(sp)
 1004cd8:	df000615 	stw	fp,24(sp)
 1004cdc:	df000604 	addi	fp,sp,24
 1004ce0:	e13fff15 	stw	r4,-4(fp)
	int length = strlen(file_name);
 1004ce4:	e13fff17 	ldw	r4,-4(fp)
 1004ce8:	100056c0 	call	100056c <strlen>
 1004cec:	e0bffe15 	stw	r2,-8(fp)
	int index;
	int last_dir_break_position = -1;
 1004cf0:	00bfffc4 	movi	r2,-1
 1004cf4:	e0bffc15 	stw	r2,-16(fp)
	int last_period = -1;
 1004cf8:	00bfffc4 	movi	r2,-1
 1004cfc:	e0bffb15 	stw	r2,-20(fp)
	bool result = true;
 1004d00:	00800044 	movi	r2,1
 1004d04:	e0bffa15 	stw	r2,-24(fp)

	for (index = 0; index < length; index++) {
 1004d08:	e03ffd15 	stw	zero,-12(fp)
 1004d0c:	00007606 	br	1004ee8 <check_file_name_for_FAT16_compliance+0x218>
		if ((file_name[index] == ' ')
 1004d10:	e0bffd17 	ldw	r2,-12(fp)
 1004d14:	1007883a 	mov	r3,r2
 1004d18:	e0bfff17 	ldw	r2,-4(fp)
 1004d1c:	1885883a 	add	r2,r3,r2
 1004d20:	10800003 	ldbu	r2,0(r2)
 1004d24:	10803fcc 	andi	r2,r2,255
 1004d28:	1080201c 	xori	r2,r2,128
 1004d2c:	10bfe004 	addi	r2,r2,-128
 1004d30:	10800820 	cmpeqi	r2,r2,32
 1004d34:	1000431e 	bne	r2,zero,1004e44 <check_file_name_for_FAT16_compliance+0x174>
 1004d38:	e0bffd17 	ldw	r2,-12(fp)
 1004d3c:	10ffffc4 	addi	r3,r2,-1
 1004d40:	e0bffc17 	ldw	r2,-16(fp)
 1004d44:	1880141e 	bne	r3,r2,1004d98 <check_file_name_for_FAT16_compliance+0xc8>
 1004d48:	e0bffd17 	ldw	r2,-12(fp)
 1004d4c:	1007883a 	mov	r3,r2
 1004d50:	e0bfff17 	ldw	r2,-4(fp)
 1004d54:	1885883a 	add	r2,r3,r2
 1004d58:	10800003 	ldbu	r2,0(r2)
 1004d5c:	10803fcc 	andi	r2,r2,255
 1004d60:	1080201c 	xori	r2,r2,128
 1004d64:	10bfe004 	addi	r2,r2,-128
 1004d68:	10801720 	cmpeqi	r2,r2,92
 1004d6c:	1000351e 	bne	r2,zero,1004e44 <check_file_name_for_FAT16_compliance+0x174>
 1004d70:	e0bffd17 	ldw	r2,-12(fp)
 1004d74:	1007883a 	mov	r3,r2
 1004d78:	e0bfff17 	ldw	r2,-4(fp)
 1004d7c:	1885883a 	add	r2,r3,r2
 1004d80:	10800003 	ldbu	r2,0(r2)
 1004d84:	10803fcc 	andi	r2,r2,255
 1004d88:	1080201c 	xori	r2,r2,128
 1004d8c:	10bfe004 	addi	r2,r2,-128
 1004d90:	10800be0 	cmpeqi	r2,r2,47
 1004d94:	10002b1e 	bne	r2,zero,1004e44 <check_file_name_for_FAT16_compliance+0x174>
 1004d98:	e0fffd17 	ldw	r3,-12(fp)
 1004d9c:	e0bffb17 	ldw	r2,-20(fp)
 1004da0:	1885c83a 	sub	r2,r3,r2
 1004da4:	10800258 	cmpnei	r2,r2,9
 1004da8:	10000a1e 	bne	r2,zero,1004dd4 <check_file_name_for_FAT16_compliance+0x104>
 1004dac:	e0bffd17 	ldw	r2,-12(fp)
 1004db0:	1007883a 	mov	r3,r2
 1004db4:	e0bfff17 	ldw	r2,-4(fp)
 1004db8:	1885883a 	add	r2,r3,r2
 1004dbc:	10800003 	ldbu	r2,0(r2)
 1004dc0:	10803fcc 	andi	r2,r2,255
 1004dc4:	1080201c 	xori	r2,r2,128
 1004dc8:	10bfe004 	addi	r2,r2,-128
 1004dcc:	10800b98 	cmpnei	r2,r2,46
 1004dd0:	10001c1e 	bne	r2,zero,1004e44 <check_file_name_for_FAT16_compliance+0x174>
 1004dd4:	e0fffc17 	ldw	r3,-16(fp)
 1004dd8:	e0bffb17 	ldw	r2,-20(fp)
 1004ddc:	18801b26 	beq	r3,r2,1004e4c <check_file_name_for_FAT16_compliance+0x17c>
 1004de0:	e0fffd17 	ldw	r3,-12(fp)
 1004de4:	e0bffb17 	ldw	r2,-20(fp)
 1004de8:	1885c83a 	sub	r2,r3,r2
 1004dec:	10800110 	cmplti	r2,r2,4
 1004df0:	1000161e 	bne	r2,zero,1004e4c <check_file_name_for_FAT16_compliance+0x17c>
 1004df4:	e0bffd17 	ldw	r2,-12(fp)
 1004df8:	1007883a 	mov	r3,r2
 1004dfc:	e0bfff17 	ldw	r2,-4(fp)
 1004e00:	1885883a 	add	r2,r3,r2
 1004e04:	10800003 	ldbu	r2,0(r2)
 1004e08:	10803fcc 	andi	r2,r2,255
 1004e0c:	1080201c 	xori	r2,r2,128
 1004e10:	10bfe004 	addi	r2,r2,-128
 1004e14:	10801720 	cmpeqi	r2,r2,92
 1004e18:	10000c1e 	bne	r2,zero,1004e4c <check_file_name_for_FAT16_compliance+0x17c>
 1004e1c:	e0bffd17 	ldw	r2,-12(fp)
 1004e20:	1007883a 	mov	r3,r2
 1004e24:	e0bfff17 	ldw	r2,-4(fp)
 1004e28:	1885883a 	add	r2,r3,r2
 1004e2c:	10800003 	ldbu	r2,0(r2)
 1004e30:	10803fcc 	andi	r2,r2,255
 1004e34:	1080201c 	xori	r2,r2,128
 1004e38:	10bfe004 	addi	r2,r2,-128
 1004e3c:	10800be0 	cmpeqi	r2,r2,47
 1004e40:	1000021e 	bne	r2,zero,1004e4c <check_file_name_for_FAT16_compliance+0x17c>
				|| ((index - last_period == 9) && (file_name[index] != '.'))
				|| ((last_dir_break_position != last_period)
						&& (index - last_period > 3)
						&& (file_name[index] != '\\')
						&& (file_name[index] != '/'))) {
			result = false;
 1004e44:	e03ffa15 	stw	zero,-24(fp)
			break;
 1004e48:	00002a06 	br	1004ef4 <check_file_name_for_FAT16_compliance+0x224>
		}
		if ((file_name[index] == '\\') || (file_name[index] == '/')) {
 1004e4c:	e0bffd17 	ldw	r2,-12(fp)
 1004e50:	1007883a 	mov	r3,r2
 1004e54:	e0bfff17 	ldw	r2,-4(fp)
 1004e58:	1885883a 	add	r2,r3,r2
 1004e5c:	10800003 	ldbu	r2,0(r2)
 1004e60:	10803fcc 	andi	r2,r2,255
 1004e64:	1080201c 	xori	r2,r2,128
 1004e68:	10bfe004 	addi	r2,r2,-128
 1004e6c:	10801720 	cmpeqi	r2,r2,92
 1004e70:	10000a1e 	bne	r2,zero,1004e9c <check_file_name_for_FAT16_compliance+0x1cc>
 1004e74:	e0bffd17 	ldw	r2,-12(fp)
 1004e78:	1007883a 	mov	r3,r2
 1004e7c:	e0bfff17 	ldw	r2,-4(fp)
 1004e80:	1885883a 	add	r2,r3,r2
 1004e84:	10800003 	ldbu	r2,0(r2)
 1004e88:	10803fcc 	andi	r2,r2,255
 1004e8c:	1080201c 	xori	r2,r2,128
 1004e90:	10bfe004 	addi	r2,r2,-128
 1004e94:	10800bd8 	cmpnei	r2,r2,47
 1004e98:	1000041e 	bne	r2,zero,1004eac <check_file_name_for_FAT16_compliance+0x1dc>
			last_period = index;
 1004e9c:	e0bffd17 	ldw	r2,-12(fp)
 1004ea0:	e0bffb15 	stw	r2,-20(fp)
			last_dir_break_position = index;
 1004ea4:	e0bffd17 	ldw	r2,-12(fp)
 1004ea8:	e0bffc15 	stw	r2,-16(fp)
		}
		if (file_name[index] == '.') {
 1004eac:	e0bffd17 	ldw	r2,-12(fp)
 1004eb0:	1007883a 	mov	r3,r2
 1004eb4:	e0bfff17 	ldw	r2,-4(fp)
 1004eb8:	1885883a 	add	r2,r3,r2
 1004ebc:	10800003 	ldbu	r2,0(r2)
 1004ec0:	10803fcc 	andi	r2,r2,255
 1004ec4:	1080201c 	xori	r2,r2,128
 1004ec8:	10bfe004 	addi	r2,r2,-128
 1004ecc:	10800b98 	cmpnei	r2,r2,46
 1004ed0:	1000021e 	bne	r2,zero,1004edc <check_file_name_for_FAT16_compliance+0x20c>
			last_period = index;
 1004ed4:	e0bffd17 	ldw	r2,-12(fp)
 1004ed8:	e0bffb15 	stw	r2,-20(fp)
	int index;
	int last_dir_break_position = -1;
	int last_period = -1;
	bool result = true;

	for (index = 0; index < length; index++) {
 1004edc:	e0bffd17 	ldw	r2,-12(fp)
 1004ee0:	10800044 	addi	r2,r2,1
 1004ee4:	e0bffd15 	stw	r2,-12(fp)
 1004ee8:	e0fffd17 	ldw	r3,-12(fp)
 1004eec:	e0bffe17 	ldw	r2,-8(fp)
 1004ef0:	18bf8716 	blt	r3,r2,1004d10 <check_file_name_for_FAT16_compliance+0x40>
		}
		if (file_name[index] == '.') {
			last_period = index;
		}
	}
	if ((file_name[length - 1] == '\\') || (file_name[length - 1] == '/')) {
 1004ef4:	e0fffe17 	ldw	r3,-8(fp)
 1004ef8:	e0bfff17 	ldw	r2,-4(fp)
 1004efc:	1885883a 	add	r2,r3,r2
 1004f00:	10bfffc4 	addi	r2,r2,-1
 1004f04:	10800003 	ldbu	r2,0(r2)
 1004f08:	10803fcc 	andi	r2,r2,255
 1004f0c:	1080201c 	xori	r2,r2,128
 1004f10:	10bfe004 	addi	r2,r2,-128
 1004f14:	10801720 	cmpeqi	r2,r2,92
 1004f18:	10000a1e 	bne	r2,zero,1004f44 <check_file_name_for_FAT16_compliance+0x274>
 1004f1c:	e0fffe17 	ldw	r3,-8(fp)
 1004f20:	e0bfff17 	ldw	r2,-4(fp)
 1004f24:	1885883a 	add	r2,r3,r2
 1004f28:	10bfffc4 	addi	r2,r2,-1
 1004f2c:	10800003 	ldbu	r2,0(r2)
 1004f30:	10803fcc 	andi	r2,r2,255
 1004f34:	1080201c 	xori	r2,r2,128
 1004f38:	10bfe004 	addi	r2,r2,-128
 1004f3c:	10800bd8 	cmpnei	r2,r2,47
 1004f40:	1000011e 	bne	r2,zero,1004f48 <check_file_name_for_FAT16_compliance+0x278>
		result = false;
