
Bomberman.elf:     file format elf32-littlenios2
Bomberman.elf
architecture: nios2, flags 0x00000112:
EXEC_P, HAS_SYMS, D_PAGED
start address 0x010001b4

Program Header:
    LOAD off    0x00001000 vaddr 0x01000000 paddr 0x01000000 align 2**12
         filesz 0x00000020 memsz 0x00000020 flags r-x
    LOAD off    0x00001020 vaddr 0x01000020 paddr 0x01000020 align 2**12
         filesz 0x0005b55c memsz 0x0005b55c flags r-x
    LOAD off    0x0005c57c vaddr 0x0105b57c paddr 0x0105d2d8 align 2**12
         filesz 0x00001d5c memsz 0x00001d5c flags rw-
    LOAD off    0x0005f034 vaddr 0x0105f034 paddr 0x0105f034 align 2**12
         filesz 0x00000000 memsz 0x00001600 flags rw-

Sections:
Idx Name          Size      VMA       LMA       File off  Algn
  0 .entry        00000020  01000000  01000000  00001000  2**5
                  CONTENTS, ALLOC, LOAD, READONLY, CODE
  1 .exceptions   00000194  01000020  01000020  00001020  2**2
                  CONTENTS, ALLOC, LOAD, READONLY, CODE
  2 .text         00058dc0  010001b4  010001b4  000011b4  2**2
                  CONTENTS, ALLOC, LOAD, READONLY, CODE
  3 .rodata       00002608  01058f74  01058f74  00059f74  2**2
                  CONTENTS, ALLOC, LOAD, READONLY, DATA
  4 .rwdata       00001d5c  0105b57c  0105d2d8  0005c57c  2**2
                  CONTENTS, ALLOC, LOAD, DATA, SMALL_DATA
  5 .bss          00001600  0105f034  0105f034  0005f034  2**2
                  ALLOC, SMALL_DATA
  6 .comment      00000026  00000000  00000000  0005e2d8  2**0
                  CONTENTS, READONLY
  7 .debug_aranges 00003608  00000000  00000000  0005e300  2**3
                  CONTENTS, READONLY, DEBUGGING
  8 .debug_pubnames 000137a1  00000000  00000000  00061908  2**0
                  CONTENTS, READONLY, DEBUGGING
  9 .debug_info   00154047  00000000  00000000  000750a9  2**0
                  CONTENTS, READONLY, DEBUGGING
 10 .debug_abbrev 000225f3  00000000  00000000  001c90f0  2**0
                  CONTENTS, READONLY, DEBUGGING
 11 .debug_line   000695e8  00000000  00000000  001eb6e3  2**0
                  CONTENTS, READONLY, DEBUGGING
 12 .debug_frame  00009f64  00000000  00000000  00254ccc  2**2
                  CONTENTS, READONLY, DEBUGGING
 13 .debug_str    0001c712  00000000  00000000  0025ec30  2**0
                  CONTENTS, READONLY, DEBUGGING
 14 .debug_loc    0004158d  00000000  00000000  0027b342  2**0
                  CONTENTS, READONLY, DEBUGGING
 15 .debug_alt_sim_info 00000040  00000000  00000000  002bc8d0  2**2
                  CONTENTS, READONLY, DEBUGGING
 16 .debug_ranges 0001a9a0  00000000  00000000  002bc910  2**3
                  CONTENTS, READONLY, DEBUGGING
 17 .thread_model 00000003  00000000  00000000  002f0c4c  2**0
                  CONTENTS, READONLY
 18 .cpu          0000000c  00000000  00000000  002f0c4f  2**0
                  CONTENTS, READONLY
 19 .qsys         00000001  00000000  00000000  002f0c5b  2**0
                  CONTENTS, READONLY
 20 .simulation_enabled 00000001  00000000  00000000  002f0c5c  2**0
                  CONTENTS, READONLY
 21 .stderr_dev   0000000b  00000000  00000000  002f0c5d  2**0
                  CONTENTS, READONLY
 22 .stdin_dev    0000000b  00000000  00000000  002f0c68  2**0
                  CONTENTS, READONLY
 23 .stdout_dev   0000000b  00000000  00000000  002f0c73  2**0
                  CONTENTS, READONLY
 24 .sopc_system_name 00000012  00000000  00000000  002f0c7e  2**0
                  CONTENTS, READONLY
 25 .quartus_project_dir 0000002f  00000000  00000000  002f0c90  2**0
                  CONTENTS, READONLY
 26 .sopcinfo     00082a29  00000000  00000000  002f0cbf  2**0
                  CONTENTS, READONLY
SYMBOL TABLE:
01000000 l    d  .entry	00000000 .entry
01000020 l    d  .exceptions	00000000 .exceptions
010001b4 l    d  .text	00000000 .text
01058f74 l    d  .rodata	00000000 .rodata
0105b57c l    d  .rwdata	00000000 .rwdata
0105f034 l    d  .bss	00000000 .bss
00000000 l    d  .comment	00000000 .comment
00000000 l    d  .debug_aranges	00000000 .debug_aranges
00000000 l    d  .debug_pubnames	00000000 .debug_pubnames
00000000 l    d  .debug_info	00000000 .debug_info
00000000 l    d  .debug_abbrev	00000000 .debug_abbrev
00000000 l    d  .debug_line	00000000 .debug_line
00000000 l    d  .debug_frame	00000000 .debug_frame
00000000 l    d  .debug_str	00000000 .debug_str
00000000 l    d  .debug_loc	00000000 .debug_loc
00000000 l    d  .debug_alt_sim_info	00000000 .debug_alt_sim_info
00000000 l    d  .debug_ranges	00000000 .debug_ranges
010001ec l       .text	00000000 alt_after_alt_main
00000000 l    df *ABS*	00000000 alt_irq_handler.c
00000000 l    df *ABS*	00000000 Bomb.cpp
01000368 l     F .text	00000030 _GLOBAL__I__ZN4BombC2Ev
01000338 l     F .text	00000030 _GLOBAL__D__ZN4BombC2Ev
010002cc l     F .text	0000006c _Z41__static_initialization_and_destruction_0ii
0105f034 l     O .bss	00000001 _ZSt8__ioinit
00000000 l    df *ABS*	00000000 MatrixMap.cpp
00000000 l    df *ABS*	00000000 Player.cpp
01000c64 l     F .text	00000030 _GLOBAL__I__ZN6PlayerC2Ev
01000c34 l     F .text	00000030 _GLOBAL__D__ZN6PlayerC2Ev
01000bc8 l     F .text	0000006c _Z41__static_initialization_and_destruction_0ii
0105f035 l     O .bss	00000001 _ZSt8__ioinit
00000000 l    df *ABS*	00000000 VGA_Screen.cpp
00000000 l    df *ABS*	00000000 hello_world.cpp
01001c48 l     F .text	00000030 _GLOBAL__I_main
01001c18 l     F .text	00000030 _GLOBAL__D_main
01001bac l     F .text	0000006c _Z41__static_initialization_and_destruction_0ii
0105f036 l     O .bss	00000001 _ZSt8__ioinit
00000000 l    df *ABS*	00000000 ios_init.cc
00000000 l    df *ABS*	00000000 locale.cc
00000000 l    df *ABS*	00000000 locale_init.cc
00000000 l    df *ABS*	00000000 ext-inst.cc
00000000 l    df *ABS*	00000000 ios-inst.cc
00000000 l    df *ABS*	00000000 istream-inst.cc
01007460 l     F .text	00000030 .LTHUNK0
010076e0 l     F .text	00000050 .LTHUNK1
00000000 l    df *ABS*	00000000 istream.cc
00000000 l    df *ABS*	00000000 locale-inst.cc
0100d5c8 l     F .text	0000000c _GLOBAL__I_.._.._.._.._.._src_gcc_4.1_libstdc___v3_src_locale_inst.cc_6FCA3617_D056A43E
0100d090 l     F .text	000000f4 _ZSt17__verify_groupingPKcmRKSs
0100d184 l     F .text	00000444 _Z41__static_initialization_and_destruction_0ii
00000000 l    df *ABS*	00000000 locale-misc-inst.cc
00000000 l    df *ABS*	00000000 misc-inst.cc
00000000 l    df *ABS*	00000000 ostream-inst.cc
0102bedc l     F .text	0000002c .LTHUNK0
0102bf34 l     F .text	0000004c .LTHUNK1
00000000 l    df *ABS*	00000000 streambuf-inst.cc
00000000 l    df *ABS*	00000000 streambuf.cc
00000000 l    df *ABS*	00000000 string-inst.cc
00000000 l    df *ABS*	00000000 atomicity.cc
00000000 l    df *ABS*	00000000 collate_members.cc
00000000 l    df *ABS*	00000000 messages_members.cc
00000000 l    df *ABS*	00000000 monetary_members.cc
00000000 l    df *ABS*	00000000 numeric_members.cc
00000000 l    df *ABS*	00000000 time_members.cc
00000000 l    df *ABS*	00000000 basic_file.cc
01035568 l     F .text	00000180 _ZN14__gnu_internal10fopen_modeESt13_Ios_Openmode
010357b0 l     F .text	00000090 _ZN14__gnu_internal6xwriteEiPKcl
00000000 l    df *ABS*	00000000 c++locale.cc
0105a2a0 l     O .rodata	00000018 _ZN9__gnu_cxx14category_namesE
00000000 l    df *ABS*	00000000 eh_throw.cc
01036010 l     F .text	00000060 _Z23__gxx_exception_cleanup19_Unwind_Reason_CodeP17_Unwind_Exception
00000000 l    df *ABS*	00000000 vmi_class_type_info.cc
00000000 l    df *ABS*	00000000 eh_term_handler.cc
00000000 l    df *ABS*	00000000 new_opv.cc
00000000 l    df *ABS*	00000000 eh_catch.cc
00000000 l    df *ABS*	00000000 del_op.cc
00000000 l    df *ABS*	00000000 del_opv.cc
00000000 l    df *ABS*	00000000 eh_unex_handler.cc
00000000 l    df *ABS*	00000000 tinfo.cc
00000000 l    df *ABS*	00000000 eh_personality.cc
01036bac l     F .text	00000030 _Z12read_uleb128PKhPj
01036bdc l     F .text	00000054 _Z12read_sleb128PKhPi
01036c30 l     F .text	0000009c _Z16get_adjusted_ptrPKSt9type_infoS1_PPv
01036ccc l     F .text	000001d4 _Z28read_encoded_value_with_basehjPKhPj
01036ea0 l     F .text	00000090 _Z21base_of_encoded_valuehP15_Unwind_Context
01036f30 l     F .text	00000100 _Z17parse_lsda_headerP15_Unwind_ContextPKhP16lsda_header_info
01037030 l     F .text	00000084 _Z15get_ttype_entryP16lsda_header_infoj
010370b4 l     F .text	00000084 _Z20check_exception_specP16lsda_header_infoPKSt9type_infoPvi
00000000 l    df *ABS*	00000000 class_type_info.cc
00000000 l    df *ABS*	00000000 si_class_type_info.cc
00000000 l    df *ABS*	00000000 pure.cc
00000000 l    df *ABS*	00000000 eh_globals.cc
0105f0dc l     O .bss	00000008 eh_globals
00000000 l    df *ABS*	00000000 eh_terminate.cc
00000000 l    df *ABS*	00000000 new_op.cc
00000000 l    df *ABS*	00000000 eh_call.cc
00000000 l    df *ABS*	00000000 eh_exception.cc
00000000 l    df *ABS*	00000000 new_handler.cc
00000000 l    df *ABS*	00000000 eh_alloc.cc
0105f194 l     O .bss	00000800 emergency_buffer
0105f0e8 l     O .bss	00000004 emergency_used
00000000 l    df *ABS*	00000000 codecvt.cc
010380a0 l     F .text	0000000c _GLOBAL__I__ZNSt7codecvtIcc10_mbstate_tE2idE
0103809c l     F .text	00000004 _Z41__static_initialization_and_destruction_0ii
00000000 l    df *ABS*	00000000 compatibility.cc
00000000 l    df *ABS*	00000000 ctype.cc
01038b74 l     F .text	0000000c _GLOBAL__I__ZNSt10ctype_base5spaceE
01038b70 l     F .text	00000004 _Z41__static_initialization_and_destruction_0ii
00000000 l    df *ABS*	00000000 functexcept.cc
00000000 l    df *ABS*	00000000 globals_locale.cc
00000000 l    df *ABS*	00000000 globals_io.cc
00000000 l    df *ABS*	00000000 ios.cc
0105f12c l     O .bss	00000004 _ZZNSt8ios_base6xallocEvE6_S_top
00000000 l    df *ABS*	00000000 ios_failure.cc
00000000 l    df *ABS*	00000000 ios_locale.cc
00000000 l    df *ABS*	00000000 locale_facets.cc
00000000 l    df *ABS*	00000000 stdexcept.cc
00000000 l    df *ABS*	00000000 fstream-inst.cc
0103f090 l     F .text	00000130 .LTHUNK0
0103f354 l     F .text	00000128 .LTHUNK1
0103fc08 l     F .text	00000130 .LTHUNK2
0104000c l     F .text	00000138 .LTHUNK3
0104015c l     F .text	000001c0 .LTHUNK4
0104015c l     F .text	000001c0 .LTHUNK5
01040334 l     F .text	000001b8 .LTHUNK6
01040334 l     F .text	000001b8 .LTHUNK7
00000000 l    df *ABS*	00000000 iostream-inst.cc
01040d44 l     F .text	0000000c _GLOBAL__I_.._.._.._.._.._src_gcc_4.1_libstdc___v3_src_iostream_inst.cc_1FD5A050_35F6FF9C
01040d38 l     F .text	0000000c _GLOBAL__D_.._.._.._.._.._src_gcc_4.1_libstdc___v3_src_iostream_inst.cc_1FD5A050_35F6FF9C
01040d08 l     F .text	00000030 _Z41__static_initialization_and_destruction_0ii
0105f130 l     O .bss	00000001 _ZSt8__ioinit
01040d70 l     F .text	00000084 .LTHUNK0
01040d70 l     F .text	00000084 .LTHUNK1
01041234 l     F .text	00000094 .LTHUNK2
01041234 l     F .text	00000094 .LTHUNK3
00000000 l    df *ABS*	00000000 bad_typeid.cc
00000000 l    df *ABS*	00000000 bad_cast.cc
00000000 l    df *ABS*	00000000 libgcc2.c
00000000 l    df *ABS*	00000000 libgcc2.c
00000000 l    df *ABS*	00000000 libgcc2.c
00000000 l    df *ABS*	00000000 fp-bit.c
00000000 l    df *ABS*	00000000 dp-bit.c
00000000 l    df *ABS*	00000000 lib2-divmod.c
010422a0 l     F .text	0000007c udivmodsi4
00000000 l    df *ABS*	00000000 lib2-mul.c
00000000 l    df *ABS*	00000000 unwind-sjlj.c
0105f134 l     O .bss	00000004 fc_static
010424e4 l     F .text	00000100 _Unwind_ForcedUnwind_Phase2
010425fc l     F .text	000000cc _Unwind_RaiseException_Phase2
010426c8 l     F .text	00000028 uw_install_context
00000000 l    df *ABS*	00000000 libgcc2.c
00000000 l    df *ABS*	00000000 fp-bit.c
00000000 l    df *ABS*	00000000 dp-bit.c
00000000 l    df *ABS*	00000000 abort.c
00000000 l    df *ABS*	00000000 ctype_.c
0105af81 l     O .rodata	00000180 _ctype_b
00000000 l    df *ABS*	00000000 errno.c
00000000 l    df *ABS*	00000000 fclose.c
00000000 l    df *ABS*	00000000 fdopen.c
00000000 l    df *ABS*	00000000 fflush.c
00000000 l    df *ABS*	00000000 fileno.c
00000000 l    df *ABS*	00000000 findfp.c
010431d8 l     F .text	00000058 std
010432e4 l     F .text	00000008 __fp_lock
010432ec l     F .text	00000008 __fp_unlock
00000000 l    df *ABS*	00000000 flags.c
00000000 l    df *ABS*	00000000 fopen.c
00000000 l    df *ABS*	00000000 fread.c
00000000 l    df *ABS*	00000000 mallocr.c
00000000 l    df *ABS*	00000000 fseek.c
00000000 l    df *ABS*	00000000 fstatr.c
00000000 l    df *ABS*	00000000 ftell.c
00000000 l    df *ABS*	00000000 fwalk.c
00000000 l    df *ABS*	00000000 fwrite.c
00000000 l    df *ABS*	00000000 getc.c
00000000 l    df *ABS*	00000000 impure.c
0105b5b4 l     O .rwdata	00000400 impure_data
00000000 l    df *ABS*	00000000 int_errno.c
00000000 l    df *ABS*	00000000 locale.c
0105d29c l     O .rwdata	00000004 charset
0105b114 l     O .rodata	00000030 lconv
00000000 l    df *ABS*	00000000 makebuf.c
00000000 l    df *ABS*	00000000 malloc.c
00000000 l    df *ABS*	00000000 mallocr.c
00000000 l    df *ABS*	00000000 memchr.c
00000000 l    df *ABS*	00000000 memcmp.c
00000000 l    df *ABS*	00000000 memcpy.c
00000000 l    df *ABS*	00000000 memmove.c
00000000 l    df *ABS*	00000000 memset.c
00000000 l    df *ABS*	00000000 openr.c
00000000 l    df *ABS*	00000000 printf.c
00000000 l    df *ABS*	00000000 putc.c
00000000 l    df *ABS*	00000000 putchar.c
00000000 l    df *ABS*	00000000 puts.c
00000000 l    df *ABS*	00000000 rand.c
00000000 l    df *ABS*	00000000 refill.c
010459b8 l     F .text	0000001c lflush
00000000 l    df *ABS*	00000000 rget.c
00000000 l    df *ABS*	00000000 sbrkr.c
00000000 l    df *ABS*	00000000 setvbuf.c
00000000 l    df *ABS*	00000000 signal.c
00000000 l    df *ABS*	00000000 signalr.c
00000000 l    df *ABS*	00000000 sprintf.c
00000000 l    df *ABS*	00000000 sscanf.c
01046098 l     F .text	00000008 eofread
00000000 l    df *ABS*	00000000 stdio.c
00000000 l    df *ABS*	00000000 strcmp.c
00000000 l    df *ABS*	00000000 strcoll.c
00000000 l    df *ABS*	00000000 strcpy.c
00000000 l    df *ABS*	00000000 strdup.c
00000000 l    df *ABS*	00000000 strdup_r.c
00000000 l    df *ABS*	00000000 strftime.c
010464c0 l     F .text	0000018c iso_year_adjust
0105b1f4 l     O .rodata	0000001c dname_len
0105b1d8 l     O .rodata	0000001c dname
0105b240 l     O .rodata	00000030 mname_len
0105b210 l     O .rodata	00000030 mname
00000000 l    df *ABS*	00000000 strlen.c
00000000 l    df *ABS*	00000000 strtod.c
0104757c l     F .text	00000048 match
0105bddc l     O .rwdata	00000014 fpi.1950
0105b280 l     O .rodata	00000028 tinytens
0105bdc8 l     O .rwdata	00000014 fpinan.1986
00000000 l    df *ABS*	00000000 strxfrm.c
00000000 l    df *ABS*	00000000 time.c
00000000 l    df *ABS*	00000000 tzlock.c
00000000 l    df *ABS*	00000000 tzvars.c
00000000 l    df *ABS*	00000000 ungetc.c
00000000 l    df *ABS*	00000000 vfprintf.c
01049030 l     F .text	00000058 __sprint_r
0105b302 l     O .rodata	00000010 blanks.3452
0105b2f2 l     O .rodata	00000010 zeroes.3453
00000000 l    df *ABS*	00000000 vfscanf.c
0105b31a l     O .rodata	00000022 basefix.3357
00000000 l    df *ABS*	00000000 wbuf.c
00000000 l    df *ABS*	00000000 writer.c
00000000 l    df *ABS*	00000000 wsetup.c
00000000 l    df *ABS*	00000000 abs.c
00000000 l    df *ABS*	00000000 closer.c
00000000 l    df *ABS*	00000000 dtoa.c
0104ca80 l     F .text	00000244 quorem
00000000 l    df *ABS*	00000000 fvwrite.c
00000000 l    df *ABS*	00000000 gdtoa-gethex.c
0104e714 l     F .text	00000024 htinit
0104e7a0 l     F .text	000000b0 rshift
00000000 l    df *ABS*	00000000 gdtoa-hexnan.c
0104f04c l     F .text	0000004c L_shift
00000000 l    df *ABS*	00000000 gettimeofdayr.c
00000000 l    df *ABS*	00000000 gettzinfo.c
0105bdf0 l     O .rwdata	00000040 tzinfo
00000000 l    df *ABS*	00000000 isattyr.c
00000000 l    df *ABS*	00000000 iswspace.c
00000000 l    df *ABS*	00000000 labs.c
00000000 l    df *ABS*	00000000 lseekr.c
00000000 l    df *ABS*	00000000 mbrtowc.c
00000000 l    df *ABS*	00000000 mbtowc_r.c
00000000 l    df *ABS*	00000000 mprec.c
0105b478 l     O .rodata	0000000c p05.2458
00000000 l    df *ABS*	00000000 readr.c
00000000 l    df *ABS*	00000000 mallocr.c
00000000 l    df *ABS*	00000000 s_isinfd.c
00000000 l    df *ABS*	00000000 s_isnand.c
00000000 l    df *ABS*	00000000 sccl.c
00000000 l    df *ABS*	00000000 sf_nan.c
00000000 l    df *ABS*	00000000 snprintf.c
00000000 l    df *ABS*	00000000 strtol.c
00000000 l    df *ABS*	00000000 strtoll_r.c
00000000 l    df *ABS*	00000000 strtoul.c
00000000 l    df *ABS*	00000000 strtoull_r.c
00000000 l    df *ABS*	00000000 mallocr.c
00000000 l    df *ABS*	00000000 libgcc2.c
00000000 l    df *ABS*	00000000 fp-bit.c
00000000 l    df *ABS*	00000000 fp-bit.c
00000000 l    df *ABS*	00000000 fp-bit.c
00000000 l    df *ABS*	00000000 dp-bit.c
01051ce0 l     F .text	00000410 _fpadd_parts
00000000 l    df *ABS*	00000000 dp-bit.c
00000000 l    df *ABS*	00000000 dp-bit.c
00000000 l    df *ABS*	00000000 dp-bit.c
00000000 l    df *ABS*	00000000 dp-bit.c
00000000 l    df *ABS*	00000000 dp-bit.c
00000000 l    df *ABS*	00000000 dp-bit.c
00000000 l    df *ABS*	00000000 dp-bit.c
00000000 l    df *ABS*	00000000 dp-bit.c
00000000 l    df *ABS*	00000000 dp-bit.c
00000000 l    df *ABS*	00000000 dp-bit.c
00000000 l    df *ABS*	00000000 dp-bit.c
00000000 l    df *ABS*	00000000 dp-bit.c
00000000 l    df *ABS*	00000000 dp-bit.c
00000000 l    df *ABS*	00000000 libgcc2.c
00000000 l    df *ABS*	00000000 fp-bit.c
00000000 l    df *ABS*	00000000 fp-bit.c
00000000 l    df *ABS*	00000000 dp-bit.c
00000000 l    df *ABS*	00000000 dp-bit.c
00000000 l    df *ABS*	00000000 fp-bit.c
00000000 l    df *ABS*	00000000 alt_close.c
010534bc l     F .text	00000060 alt_get_errno
00000000 l    df *ABS*	00000000 alt_dev.c
0105351c l     F .text	0000002c alt_dev_null_write
00000000 l    df *ABS*	00000000 alt_errno.c
00000000 l    df *ABS*	00000000 alt_exit.c
01053548 l     F .text	00000040 alt_sim_halt
00000000 l    df *ABS*	00000000 alt_fstat.c
01053680 l     F .text	00000060 alt_get_errno
00000000 l    df *ABS*	00000000 alt_getpid.c
00000000 l    df *ABS*	00000000 alt_gettod.c
00000000 l    df *ABS*	00000000 alt_isatty.c
010539e0 l     F .text	00000060 alt_get_errno
00000000 l    df *ABS*	00000000 alt_kill.c
01053b80 l     F .text	00000060 alt_get_errno
00000000 l    df *ABS*	00000000 alt_load.c
01053c60 l     F .text	0000006c alt_load_section
00000000 l    df *ABS*	00000000 alt_lseek.c
01053dc0 l     F .text	00000060 alt_get_errno
00000000 l    df *ABS*	00000000 alt_main.c
00000000 l    df *ABS*	00000000 alt_malloc_lock.c
00000000 l    df *ABS*	00000000 alt_open.c
01053ecc l     F .text	000000f8 alt_file_locked
01054150 l     F .text	00000060 alt_get_errno
00000000 l    df *ABS*	00000000 alt_read.c
010542d4 l     F .text	00000060 alt_get_errno
00000000 l    df *ABS*	00000000 alt_release_fd.c
00000000 l    df *ABS*	00000000 alt_sbrk.c
0105d2c8 l     O .rwdata	00000004 heap_end
00000000 l    df *ABS*	00000000 alt_tick.c
00000000 l    df *ABS*	00000000 alt_usleep.c
00000000 l    df *ABS*	00000000 alt_write.c
01054760 l     F .text	00000060 alt_get_errno
00000000 l    df *ABS*	00000000 alt_sys_init.c
0105bfd8 l     O .rwdata	00001060 jtag_uart_0
0105d038 l     O .rwdata	0000002c parallel_port_0
0105d064 l     O .rwdata	00000048 video_character_buffer_with_dma_0
0105d0ac l     O .rwdata	00000054 buffer_dma
0105d100 l     O .rwdata	0000002c Altera_UP_SD_Card_Avalon_Interface_0
01054b18 l     F .text	00000038 alt_dev_reg
00000000 l    df *ABS*	00000000 altera_avalon_jtag_uart_fd.c
00000000 l    df *ABS*	00000000 altera_avalon_jtag_uart_init.c
01054d58 l     F .text	00000228 altera_avalon_jtag_uart_irq
01054f80 l     F .text	000000b0 altera_avalon_jtag_uart_timeout
00000000 l    df *ABS*	00000000 altera_avalon_jtag_uart_ioctl.c
00000000 l    df *ABS*	00000000 altera_avalon_jtag_uart_read.c
00000000 l    df *ABS*	00000000 altera_avalon_jtag_uart_write.c
00000000 l    df *ABS*	00000000 altera_avalon_timer_sc.c
010555fc l     F .text	00000070 alt_avalon_timer_sc_irq
00000000 l    df *ABS*	00000000 altera_up_avalon_parallel_port.c
00000000 l    df *ABS*	00000000 altera_up_avalon_video_character_buffer_with_dma.c
00000000 l    df *ABS*	00000000 altera_up_avalon_video_pixel_buffer_dma.c
00000000 l    df *ABS*	00000000 alt_alarm_start.c
00000000 l    df *ABS*	00000000 alt_busy_sleep.c
00000000 l    df *ABS*	00000000 alt_dcache_flush_all.c
00000000 l    df *ABS*	00000000 alt_dev_llist_insert.c
01057360 l     F .text	00000060 alt_get_errno
00000000 l    df *ABS*	00000000 alt_do_ctors.c
00000000 l    df *ABS*	00000000 alt_do_dtors.c
00000000 l    df *ABS*	00000000 alt_find_dev.c
00000000 l    df *ABS*	00000000 alt_find_file.c
00000000 l    df *ABS*	00000000 alt_get_fd.c
00000000 l    df *ABS*	00000000 alt_icache_flush_all.c
00000000 l    df *ABS*	00000000 alt_iic.c
00000000 l    df *ABS*	00000000 alt_iic_isr_register.c
00000000 l    df *ABS*	00000000 alt_io_redirect.c
010579f4 l     F .text	000000d8 alt_open_fd
00000000 l    df *ABS*	00000000 alt_irq_vars.c
00000000 l    df *ABS*	00000000 altera_nios2_qsys_irq.c
00000000 l    df *ABS*	00000000 atexit.c
00000000 l    df *ABS*	00000000 exit.c
00000000 l    df *ABS*	00000000 __atexit.c
00000000 l    df *ABS*	00000000 __call_atexit.c
01057ce4 l     F .text	00000004 register_fini
0102d218  w    F .text	000002c4 _ZNSo5writeEPKcl
0105d1e6 g     O .rwdata	00000001 _ZNSt10ctype_base5digitE
01033b30  w    F .text	0000005c _ZNSs2atEm
01037e90 g     F .text	00000040 __cxa_free_exception
0100a30c  w    F .text	000001f0 _ZNSirsERf
010324cc  w    F .text	00000034 _ZNSsC1IN9__gnu_cxx17__normal_iteratorIPcSsEEEET_S4_RKSaIcE
0103e4c4  w    F .text	000000a8 _ZNSt13basic_fstreamIcSt11char_traitsIcEE7is_openEv
01045688 g     F .text	0000001c putchar
0100acbc  w    F .text	000001f0 _ZNSirsERj
0100cbd4 g     F .text	000004bc _ZStrsIcSt11char_traitsIcEERSt13basic_istreamIT_T0_ES6_PS3_
01036b5c g     F .text	00000008 _ZNKSt9type_info15__is_function_pEv
0104f998 g     F .text	00000094 _mprec_log10
01059e5c  w    O .rodata	00000040 _ZTVN9__gnu_cxx18stdio_sync_filebufIcSt11char_traitsIcEEE
01037c40 g     F .text	00000018 _ZSt10unexpectedv
01002b8c g     F .text	00000008 _ZNSt6localeC2EPNS_5_ImplE
0105ab14  w    O .rodata	00000010 _ZTTSt14basic_ifstreamIcSt11char_traitsIcEE
0102d850  w    F .text	000002e0 _ZNSolsEPSt15basic_streambufIcSt11char_traitsIcEE
010390d8 g     F .text	00000034 _ZSt18__throw_bad_typeidv
0104fa84 g     F .text	00000088 __any_on
0100e494  w    F .text	00000040 _ZNKSt11__timepunctIcE7_M_daysEPPKc
0104f360 g     F .text	00000070 _isatty_r
0105b450 g     O .rodata	00000028 __mprec_tinytens
0103b3ac g     F .text	00000030 _ZNSt14overflow_errorC1ERKSs
0100dfa4  w    F .text	00000044 _ZNKSt7num_getIcSt19istreambuf_iteratorIcSt11char_traitsIcEEE3getES3_S3_RSt8ios_baseRSt12_Ios_IostateRb
01053e20 g     F .text	0000006c alt_main
010463b8 g     F .text	0000008c strcpy
010069b0  w    F .text	0000004c _ZNSt9basic_iosIcSt11char_traitsIcEEC2Ev
0100e660  w    F .text	00000044 _ZNKSt8time_getIcSt19istreambuf_iteratorIcSt11char_traitsIcEEE8get_timeES3_S3_RSt8ios_baseRSt12_Ios_IostateP2tm
010566d0 g     F .text	000003d8 alt_up_pixel_buffer_dma_draw_vline
01031ff0  w    F .text	00000040 _ZNKSs6substrEmm
01026ee0  w    F .text	00000028 _ZNKSt7num_putIcSt19ostreambuf_iteratorIcSt11char_traitsIcEEE6do_putES3_RSt8ios_basecm
0105d176  w    O .rwdata	00000001 _ZNSt17moneypunct_bynameIcLb0EE4intlE
0105f118 g     O .bss	00000008 _ZN14__gnu_internal10time_get_cE
010456ac g     F .text	000000a0 _puts_r
0105acb4  w    O .rodata	00000028 _ZTCSd0_Si
0100e63c  w    F .text	00000018 _ZNSt8time_getIcSt19istreambuf_iteratorIcSt11char_traitsIcEEEC2Em
010603a4 g     O .bss	00000100 alt_irq
0105d1b4  w    O .rwdata	00000004 _ZNSs4nposE
0100e9ec  w    F .text	00000030 _ZNKSt5ctypeIcE8do_widenEPKcS2_Pc
0104f414 g     F .text	00000078 _lseek_r
0102fed4  w    F .text	0000000c _ZNSt15basic_streambufIcSt11char_traitsIcEE5sputnEPKcl
0105f070  w    O .bss	00000004 _ZNSt8messagesIcE2idE
01010a40  w    F .text	00000068 _ZNSt16__numpunct_cacheIcED2Ev
0100690c  w    F .text	00000058 _ZNSt9basic_iosIcSt11char_traitsIcEE4initEPSt15basic_streambufIcS1_E
01042494 g     F .text	00000014 _Unwind_GetIPInfo
0105923c  w    O .rodata	00000012 _ZTSNSt6locale5facetE
0103594c g     F .text	0000008c _ZNSt12__basic_fileIcE7seekoffExSt12_Ios_Seekdir
01038db8 g     F .text	00000090 _ZNSt5ctypeIcEC2EPKcbm
0105d2d8 g       *ABS*	00000000 __flash_rwdata_start
0102ca24  w    F .text	00000414 _ZStlsISt11char_traitsIcEERSt13basic_ostreamIcT_ES5_PKc
01038d28 g     F .text	00000090 _ZNSt5ctypeIcEC1EPKcbm
01059568  w    O .rodata	0000001c _ZTVSt15messages_bynameIcE
010434cc g     F .text	000000a0 __sflags
0100593c g     F .text	00000018 _ZNSt6locale13_S_initializeEv
01052800 g     F .text	00000088 __eqdf2
01008244  w    F .text	00000004 _ZStrsISt11char_traitsIcEERSt13basic_istreamIcT_ES5_Rh
0105ac5c  w    O .rodata	0000003c _ZTVSd
0103e41c  w    F .text	000000a8 _ZNKSt13basic_fstreamIcSt11char_traitsIcEE7is_openEv
0101431c  w    F .text	00000180 _ZNSt17moneypunct_bynameIcLb1EEC2EPKcm
01035f28 g     F .text	00000074 __cxa_rethrow
0104f2e0 g     F .text	00000074 _gettimeofday_r
0102fee0  w    F .text	00000008 _ZNKSt15basic_streambufIcSt11char_traitsIcEE5ebackEv
01059884  w    O .rodata	00000020 _ZTISt21__ctype_abstract_baseIcE
01000a8c g     F .text	00000034 _ZN6Player9move_leftEv
01042434 g     F .text	0000000c _Unwind_SjLj_Unregister
01031674  w    F .text	00000018 _ZNKSs6rbeginEv
0103488c g     F .text	000000c8 _ZNSt10moneypunctIcLb0EED2Ev
01037b60 g     F .text	00000014 _ZSt14set_unexpectedPFvvE
0100d90c  w    F .text	00000040 _ZNKSt10moneypunctIcLb0EE13do_neg_formatEv
0104031c  w    F .text	00000010 _ZTv0_n12_NSt13basic_fstreamIcSt11char_traitsIcEED1Ev
010323e4  w    F .text	000000b4 _ZNSs12_S_constructIN9__gnu_cxx17__normal_iteratorIPcSsEEEES2_T_S4_RKSaIcESt20forward_iterator_tag
0103f080  w    F .text	00000010 _ZTv0_n12_NSt14basic_ofstreamIcSt11char_traitsIcEED0Ev
01032150  w    F .text	00000020 _ZNSs13_S_copy_charsEPcN9__gnu_cxx17__normal_iteratorIS_SsEES2_
01034560  w    F .text	00000024 _ZNSs7replaceEmmRKSs
01042484 g     F .text	00000010 _Unwind_GetIP
01035c70 g     F .text	00000008 _ZNSt6locale5facet17_S_clone_c_localeERPi
01060634 g       *ABS*	00000000 __alt_heap_start
0103dc78  w    F .text	00000064 _ZNSt14basic_ofstreamIcSt11char_traitsIcEE4openEPKcSt13_Ios_Openmode
0102bedc  w    F .text	0000002c _ZNSoD1Ev
0103b62c g     F .text	00000030 _ZNSt12length_errorC1ERKSs
0102c6bc  w    F .text	00000368 _ZNSolsEl
01045f50 g     F .text	00000074 _kill_r
0103ecf0  w    F .text	000001a8 _ZNSt13basic_fstreamIcSt11char_traitsIcEEC1Ev
01030100  w    F .text	00000038 _ZNSt15basic_streambufIcSt11char_traitsIcEED0Ev
01033c0c  w    F .text	00000038 _ZNSs5beginEv
01037e80 g     F .text	00000010 _ZNSt9bad_allocD2Ev
01045424 g     F .text	00000044 printf
01030138  w    F .text	00000014 _ZNSt15basic_streambufIcSt11char_traitsIcEED1Ev
0100064c g     F .text	000001b4 _ZN9MatrixMap15check_explosionEiiR10VGA_Screen
01008414  w    F .text	000001d8 _ZNSi5ungetEv
0102ad24  w    F .text	0000009c _ZN9__gnu_cxx18stdio_sync_filebufIcSt11char_traitsIcEE7seekoffExSt12_Ios_SeekdirSt13_Ios_Openmode
01037a20 g     F .text	00000034 _ZNK10__cxxabiv120__si_class_type_info20__do_find_public_srcElPKvPKNS_17__class_type_infoES2_
01030168  w    F .text	00000008 _ZNSt15basic_streambufIcSt11char_traitsIcEE9pbackfailEi
0105f038 g     O .bss	00000004 _ZNSt6locale10_S_classicE
0100de28  w    F .text	0000003c _ZNKSt9money_putIcSt19ostreambuf_iteratorIcSt11char_traitsIcEEE3putES3_bRSt8ios_basecRKSs
01045e90 g     F .text	000000a0 _signal_r
01034bb4 g     F .text	00000138 _ZNSt10moneypunctIcLb0EE24_M_initialize_moneypunctEPiPKc
01002cfc g     F .text	000000ac _ZNSt6localeC1ERKS_
0105a598  w    O .rodata	00000013 _ZTSSt14overflow_error
010461b4 g     F .text	00000068 __sseek
0105922c  w    O .rodata	00000010 _ZTVNSt6locale5facetE
01043240 g     F .text	000000a4 __sinit
01026e68  w    F .text	00000078 _ZNKSt7num_putIcSt19ostreambuf_iteratorIcSt11char_traitsIcEEE6do_putES3_RSt8ios_basecPKv
0102e908  w    F .text	00000378 _ZNSolsEy
01001280 g     F .text	00000048 _ZN10VGA_Screen17init_pixel_bufferEv
0104c6f8 g     F .text	00000130 __swbuf_r
010168a4  w    F .text	000000c0 _ZNSt14collate_bynameIcED1Ev
010558d0 g     F .text	00000114 alt_up_char_buffer_string
0105f154 g     O .bss	00000004 _daylight
0105d1ac  w    O .rwdata	00000008 _ZTISt15basic_streambufIcSt11char_traitsIcEE
01010358  w    F .text	00000034 _ZNSt14codecvt_bynameIcc10_mbstate_tED0Ev
01002c8c g     F .text	00000010 _ZNSt6locale5facetD0Ev
0100659c  w    F .text	000000e4 _ZN9__gnu_cxx13stdio_filebufIcSt11char_traitsIcEED0Ev
010356f4 g     F .text	0000000c _ZNSt12__basic_fileIcEC1EPi
0103330c  w    F .text	000000f8 _ZNSs6assignEPKcm
0100e6e8  w    F .text	00000044 _ZNKSt8time_getIcSt19istreambuf_iteratorIcSt11char_traitsIcEEE11get_weekdayES3_S3_RSt8ios_baseRSt12_Ios_IostateP2tm
01037a10 g     F .text	00000010 _ZN10__cxxabiv120__si_class_type_infoD2Ev
010446a0 g     F .text	00000084 _setlocale_r
0105a3d0  w    O .rodata	00000025 _ZTSN10__cxxabiv120__si_class_type_infoE
01059ee0  w    O .rodata	00000028 _ZTVSo
01059ce0  w    O .rodata	00000016 _ZTSSt10moneypunctIcLb1EE
0100f1b4  w    F .text	000000f4 _ZSt9has_facetISt9money_putIcSt19ostreambuf_iteratorIcSt11char_traitsIcEEEEbRKSt6locale
01043340 g     F .text	0000009c __sfmoreglue
0105d238 g     O .rwdata	00000004 _ZNSt8ios_base6badbitE
01049014 g     F .text	0000001c ungetc
0100e4d4  w    F .text	00000040 _ZNKSt11__timepunctIcE19_M_days_abbreviatedEPPKc
01002b9c g     F .text	00000008 _ZNSt6locale5facet13_S_get_c_nameEv
01053eac g     F .text	00000020 __malloc_unlock
0103be3c  w    F .text	00000054 _ZNSt13basic_filebufIcSt11char_traitsIcEE27_M_allocate_internal_bufferEv
0100e82c  w    F .text	0000000c _ZNKSt7collateIcE7compareEPKcS2_S2_S2_
01030b44  w    F .text	00000018 _ZNSs7_M_moveEPcPKcm
010361c4 g     F .text	00000240 _ZNK10__cxxabiv121__vmi_class_type_info11__do_upcastEPKNS_17__class_type_infoEPKvRNS1_15__upcast_resultE
0100eae8  w    F .text	00000010 _ZNSt8time_getIcSt19istreambuf_iteratorIcSt11char_traitsIcEEED2Ev
0105d218 g     O .rwdata	00000004 _ZNSt8ios_base9showpointE
01012530  w    F .text	00000018 _ZNSt9money_getIcSt19istreambuf_iteratorIcSt11char_traitsIcEEEC2Em
0100fd74  w    F .text	00000058 _ZSt9use_facetISt7codecvtIcc10_mbstate_tEERKT_RKSt6locale
0102a7b4  w    F .text	0000009c _ZNKSt7num_getIcSt19istreambuf_iteratorIcSt11char_traitsIcEEE6do_getES3_S3_RSt8ios_baseRSt12_Ios_IostateRPv
010345b4  w    F .text	00000064 _ZNSs7replaceEN9__gnu_cxx17__normal_iteratorIPcSsEES2_PKc
01007c8c  w    F .text	00000220 _ZSt2wsIcSt11char_traitsIcEERSt13basic_istreamIT_T0_ES6_
01006ae8  w    F .text	000000dc _ZNSt9basic_iosIcSt11char_traitsIcEEC1EPSt15basic_streambufIcS1_E
010475c4 g     F .text	000015cc _strtod_r
01036968 g     F .text	00000020 _ZSt18uncaught_exceptionv
0100fb64  w    F .text	00000058 _ZSt9use_facetISt10moneypunctIcLb0EEERKT_RKSt6locale
0102b42c  w    F .text	00000018 _ZStlsIcSt11char_traitsIcEERSt13basic_ostreamIT_T0_ES6_St5_Setw
0105a558  w    O .rodata	0000000c _ZTISt15underflow_error
01010860  w    F .text	00000108 _ZNSt11__timepunctIcED2Ev
01032f7c  w    F .text	000000bc _ZNSsD2Ev
01055800 g     F .text	000000d0 alt_up_char_buffer_draw
01007324  w    F .text	00000028 _ZStrsIcSt11char_traitsIcEERSt13basic_istreamIT_T0_ES6_St14_Resetiosflags
01010968  w    F .text	00000070 _ZNSt16__numpunct_cacheIcED0Ev
0103c474  w    F .text	00000250 _ZNSt13basic_filebufIcSt11char_traitsIcEEC1Ev
01000450 g     F .text	00000090 _ZN4Bomb10place_bombEii
01032e34  w    F .text	0000008c _ZNSspLEc
01001858 g     F .text	00000074 _ZN10VGA_Screen23erase_and_redraw_playerEiiii
0103e614  w    F .text	000000a8 _ZNSt14basic_ofstreamIcSt11char_traitsIcEE7is_openEv
01032a20  w    F .text	000000e0 _ZNSs6appendEmc
010076e0  w    F .text	00000050 _ZNSiD0Ev
010300d8  w    F .text	00000028 _ZNSt15basic_streambufIcSt11char_traitsIcEE6sbumpcEv
01045234 g     F .text	000000e0 memmove
0100675c  w    F .text	000000dc _ZN9__gnu_cxx13stdio_filebufIcSt11char_traitsIcEED2Ev
0101039c  w    F .text	00000010 _ZNSt14codecvt_bynameIcc10_mbstate_tED2Ev
0100806c  w    F .text	000001d4 _ZStrsIcSt11char_traitsIcEERSt13basic_istreamIT_T0_ES6_RS3_
010596f0  w    O .rodata	00000034 _ZTVSt17moneypunct_bynameIcLb0EE
01010ed4  w    F .text	00000010 _ZNSt17moneypunct_bynameIcLb1EED1Ev
01012ff0  w    F .text	000000d0 _ZNSt10moneypunctIcLb0EEC1EPiPKcm
0102fef0  w    F .text	00000008 _ZNKSt15basic_streambufIcSt11char_traitsIcEE5egptrEv
01059774  w    O .rodata	00000034 _ZTVSt10moneypunctIcLb1EE
01037dcc g     F .text	00000010 _ZNSt9exceptionD2Ev
01043330 g     F .text	00000010 _cleanup
01050dbc g     F .text	000000bc snprintf
0100027c g     F .text	00000028 _ZN4Bomb10get_x_cordEv
0105d1a0  w    O .rwdata	00000008 _ZTTSo
0105ab4c  w    O .rodata	00000040 _ZTVSt13basic_filebufIcSt11char_traitsIcEE
0102bfe8  w    F .text	0000036c _ZNSolsEb
0104fb0c g     F .text	000000bc _Balloc
010323c4  w    F .text	00000020 _ZNSs13_S_copy_charsEPcN9__gnu_cxx17__normal_iteratorIPKcSsEES4_
0105d1e0 g     O .rwdata	00000001 _ZNSt10ctype_base5spaceE
01059ad0  w    O .rodata	0000000c _ZTISt8time_putIcSt19ostreambuf_iteratorIcSt11char_traitsIcEEE
0103e56c  w    F .text	000000a8 _ZNKSt14basic_ofstreamIcSt11char_traitsIcEE7is_openEv
0100d9d4  w    F .text	00000030 _ZNKSt10moneypunctIcLb1EE11curr_symbolEv
0105a5fc  w    O .rodata	00000011 _ZTSSt12out_of_range
0105d234 g     O .rwdata	00000004 _ZNSt8ios_base10floatfieldE
0105ad74  w    O .rodata	0000000c _ZTISt8bad_cast
01030b5c  w    F .text	00000018 _ZNSs7_M_copyEPcPKcm
01025914  w    F .text	0000003c _ZNKSt7num_getIcSt19istreambuf_iteratorIcSt11char_traitsIcEEE6do_getES3_S3_RSt8ios_baseRSt12_Ios_IostateRl
01033494  w    F .text	00000040 _ZNSsaSEPKc
01034618 g     F .text	00000014 _ZN9__gnu_cxx18__exchange_and_addEPVii
0105f0c8  w    O .bss	00000008 _ZGVNSt8messagesIcE2idE
01010288  w    F .text	00000010 _ZNSt15messages_bynameIcED2Ev
010391a8 g     F .text	00000108 _ZSt19__throw_ios_failurePKc
0105d270  w    O .rwdata	00000008 _ZTISt8ios_base
0101f494  w    F .text	000003c8 _ZNKSt9money_putIcSt19ostreambuf_iteratorIcSt11char_traitsIcEEE6do_putES3_bRSt8ios_basece
01055a80 g     F .text	000001ac alt_up_pixel_buffer_dma_draw
01052910 g     F .text	00000088 __gtdf2
0100ec38  w    F .text	00000010 _ZNSt7num_getIcSt19istreambuf_iteratorIcSt11char_traitsIcEEED2Ev
0105a420  w    O .rodata	00000014 _ZTVSt13bad_exception
01042d60 g     F .text	00000010 __errno
010305cc g     F .text	00000188 _ZSt17__copy_streambufsIcSt11char_traitsIcEElPSt15basic_streambufIT_T0_ES6_
0100ebf4  w    F .text	00000034 _ZNSt7num_getIcSt19istreambuf_iteratorIcSt11char_traitsIcEEED0Ev
0103a104  w    F .text	00000034 _ZNSt14overflow_errorD0Ev
01059724  w    O .rodata	0000001c _ZTVSt8messagesIcE
0102ff18  w    F .text	00000008 _ZNKSt15basic_streambufIcSt11char_traitsIcEE5pbaseEv
0105d148 g     O .rwdata	00000004 _ZNSt6locale3allE
01055a40 g     F .text	00000040 alt_up_pixel_buffer_dma_open_dev
0102ae18  w    F .text	00000030 _ZN9__gnu_cxx18stdio_sync_filebufIcSt11char_traitsIcEE9underflowEv
01002c9c g     F .text	00000010 _ZNSt6locale5facetD1Ev
01000000 g     F .entry	0000000c __reset
0105d178  w    O .rwdata	00000008 _ZTISt10ctype_base
010002a4 g     F .text	00000028 _ZN4Bomb10get_y_cordEv
0105d1bc  w    O .rwdata	00000001 _ZNSs4_Rep11_S_terminalE
0100ec48  w    F .text	00000034 _ZNSt9money_putIcSt19ostreambuf_iteratorIcSt11char_traitsIcEEED0Ev
01059a94  w    O .rodata	0000003b _ZTSSt8time_putIcSt19ostreambuf_iteratorIcSt11char_traitsIcEEE
0105f090  w    O .bss	00000008 _ZGVNSt9money_putIcSt19ostreambuf_iteratorIcSt11char_traitsIcEEE2idE
010048b4 g     F .text	0000007c _ZNSt6locale5_Impl16_M_replace_facetEPKS0_PKNS_2idE
0103130c  w    F .text	000000e0 _ZNKSs16find_last_not_ofEPKcmm
010598e8  w    O .rodata	0000000c _ZTISt18__moneypunct_cacheIcLb1EE
0100dca4  w    F .text	00000054 _ZNSt18__moneypunct_cacheIcLb0EEC1Em
010424c4 g     F .text	00000008 _Unwind_GetRegionStart
01038184 g     F .text	000000e4 _ZNSt7codecvtIcc10_mbstate_tED0Ev
0105d1ea g     O .rwdata	00000001 _ZNSt10ctype_base5graphE
0105d21c g     O .rwdata	00000004 _ZNSt8ios_base7showposE
01029854  w    F .text	00000f60 _ZNKSt7num_getIcSt19istreambuf_iteratorIcSt11char_traitsIcEEE14_M_extract_intImEES3_S3_S3_RSt8ios_baseRSt12_Ios_IostateRT_
01013e9c  w    F .text	00000180 _ZNSt17moneypunct_bynameIcLb0EEC1EPKcm
0103e2c4  w    F .text	00000158 _ZNSt13basic_filebufIcSt11char_traitsIcEE9showmanycEv
0103d394  w    F .text	000001b4 _ZNSt13basic_filebufIcSt11char_traitsIcEE5closeEv
01000020 g       *ABS*	00000000 __flash_exceptions_start
01013b48  w    F .text	00000010 _ZNSt15time_put_bynameIcSt19ostreambuf_iteratorIcSt11char_traitsIcEEED1Ev
0105d175  w    O .rwdata	00000001 _ZNSt10moneypunctIcLb1EE4intlE
01044168 g     F .text	00000074 _fstat_r
010412c8  w    F .text	000000b4 _ZNSdC1Ev
01037c58 g     F .text	00000100 _Znwm
010310ac  w    F .text	00000064 _ZNSs4_Rep10_M_disposeERKSaIcE
0105f138 g     O .bss	00000004 errno
01042268 g     F .text	00000038 __make_dp
01007490  w    F .text	00000034 _ZNSiC2EPSt15basic_streambufIcSt11char_traitsIcEE
01045a20 g     F .text	00000014 __srget
01059944  w    O .rodata	00000023 _ZTSSt14codecvt_bynameIcc10_mbstate_tE
01034640 g     F .text	0000002c _ZNKSt7collateIcE10_M_compareEPKcS2_
0101e458  w    F .text	0000037c _ZNKSt9money_getIcSt19istreambuf_iteratorIcSt11char_traitsIcEEE6do_getES3_S3_bRSt8ios_baseRSt12_Ios_IostateRSs
0104c5f8 g     F .text	00000024 __svfscanf
01031788  w    F .text	0000003c _ZNSsC2EmcRKSaIcE
0102ff64  w    F .text	00000008 _ZNSt15basic_streambufIcSt11char_traitsIcEE9showmanycEv
01003670 g     F .text	000002a8 _ZNSt6locale5_ImplD1Ev
01059254 g     O .rodata	0000000c _ZNSt6locale5_Impl11_S_id_ctypeE
01032500  w    F .text	000000fc _ZNSsC1ERKSs
010314a8  w    F .text	0000007c _ZNKSs7compareEPKc
010069fc  w    F .text	00000098 _ZNKSt9basic_iosIcSt11char_traitsIcEE6narrowEcc
01011f8c  w    F .text	000000d0 _ZNSt11__timepunctIcEC2Em
0104f3fc g     F .text	00000018 labs
0100dd98  w    F .text	0000004c _ZNKSt9money_getIcSt19istreambuf_iteratorIcSt11char_traitsIcEEE3getES3_S3_bRSt8ios_baseRSt12_Ios_IostateRSs
0103f344  w    F .text	00000010 _ZTv0_n12_NSt14basic_ofstreamIcSt11char_traitsIcEED1Ev
010110d8  w    F .text	0000014c _ZSt13__int_to_charIcyEiPT_T0_PKS0_St13_Ios_Fmtflagsb
01042894 g     F .text	00000080 _Unwind_Backtrace
01038b04 g     F .text	0000006c _ZNKSt5ctypeIcE10do_tolowerEPcPKc
01053030 g     F .text	0000002c __make_fp
01031c84  w    F .text	00000088 _ZNKSs4copyEPcmm
0105d23c g     O .rwdata	00000004 _ZNSt8ios_base6eofbitE
010380ac g     F .text	000000d8 _ZNSt7codecvtIcc10_mbstate_tEC1EPim
01059500  w    O .rodata	00000010 _ZTVSt18__moneypunct_cacheIcLb1EE
01005b4c g     F .text	000000c0 _ZNSt6localeC1Ev
0105f170 g     O .bss	00000004 alt_argv
0105d258 g     O .rwdata	00000004 _ZNSt8ios_base3outE
0106512c g       *ABS*	00000000 _gp
0100a8dc  w    F .text	000001f0 _ZNSirsERm
010109d8  w    F .text	00000068 _ZNSt16__numpunct_cacheIcED1Ev
0105460c g     F .text	00000030 usleep
0100dc24  w    F .text	00000040 _ZNKSt10moneypunctIcLb1EE13do_pos_formatEv
0104137c g     F .text	00000034 _ZNSt10bad_typeidD0Ev
0102ff9c  w    F .text	0000004c _ZNSt15basic_streambufIcSt11char_traitsIcEEC1ERKS2_
0103a138  w    F .text	00000010 _ZNSt14overflow_errorD1Ev
0102ba68  w    F .text	0000018c _ZNSo5flushEv
010100cc  w    F .text	000000bc _ZNSt8messagesIcED1Ev
0100fdcc  w    F .text	000000c4 _ZNSt7collateIcED0Ev
0100d8a8  w    F .text	0000000c _ZNKSt10moneypunctIcLb0EE16do_decimal_pointEv
010359d8 g     F .text	00000094 _ZNSt12__basic_fileIcE8xsputn_2EPKclS2_l
0100debc  w    F .text	00000030 _ZNKSt8numpunctIcE8groupingEv
0100d7e0  w    F .text	000000c8 _ZNKSt10moneypunctIcLb0EE10neg_formatEv
01055c2c g     F .text	00000058 alt_up_pixel_buffer_dma_change_back_buffer_address
010413d0 g     F .text	00000034 _ZNSt8bad_castD0Ev
0100e13c  w    F .text	00000044 _ZNKSt7num_getIcSt19istreambuf_iteratorIcSt11char_traitsIcEEE3getES3_S3_RSt8ios_baseRSt12_Ios_IostateRy
010018cc g     F .text	000000ac _ZN10VGA_Screen19draw_map_from_arrayEPA11_c
010536e0 g     F .text	00000020 getpid
0103a600 g     F .text	000000e0 _ZNSt8ios_baseD1Ev
010336c8  w    F .text	00000038 _ZNSs6assignEmc
01018194  w    F .text	000001d4 _ZNKSt8time_getIcSt19istreambuf_iteratorIcSt11char_traitsIcEEE11do_get_dateES3_S3_RSt8ios_baseRSt12_Ios_IostateP2tm
0102fec8  w    F .text	0000000c _ZNSt15basic_streambufIcSt11char_traitsIcEE5sgetnEPcl
0103084c  w    F .text	0000000c _ZNKSs4_Rep12_M_is_leakedEv
0105a99c  w    O .rodata	0000003c _ZTVSt13basic_fstreamIcSt11char_traitsIcEE
0105d1e8 g     O .rwdata	00000001 _ZNSt10ctype_base6xdigitE
01001a48 g     F .text	00000060 _ZN10VGA_Screen18draw_diagonal_lineEP27alt_up_pixel_buffer_dma_dev
01037138 g     F .text	00000180 __cxa_call_unexpected
01030060  w    F .text	0000002c _ZNSt15basic_streambufIcSt11char_traitsIcEEC1Ev
01012ba0  w    F .text	0000009c _ZNKSt10moneypunctIcLb1EE16do_positive_signEv
01000898 g     F .text	00000160 _ZN9MatrixMap7gen_mapEv
0102aae4  w    F .text	00000008 _ZN9__gnu_cxx18stdio_sync_filebufIcSt11char_traitsIcEE4fileEv
0103e80c  w    F .text	00000394 _ZNSt13basic_filebufIcSt11char_traitsIcEE5imbueERKSt6locale
01036960 g     F .text	00000008 __cxa_get_exception_ptr
0105ad04  w    O .rodata	00000020 _ZTISd
0105ff90 g     O .bss	0000008c _ZSt4cerr
01040d70  w    F .text	00000084 _ZNSdD1Ev
01011010  w    F .text	000000c8 _ZNSt10moneypunctIcLb0EEC2Em
010358cc g     F .text	00000008 _ZNSt12__basic_fileIcE2fdEv
01005138 g     F .text	000007b0 _ZNSt6locale5_ImplC1Em
01030b7c  w    F .text	0000000c _ZNKSsixEm
0103bef0  w    F .text	000000a8 _ZNKSt13basic_filebufIcSt11char_traitsIcEE7is_openEv
0105be58 g     O .rwdata	00000180 alt_fd_list
0102f704  w    F .text	0000036c _ZNSolsEt
01025950  w    F .text	000006e0 _ZNKSt7num_getIcSt19istreambuf_iteratorIcSt11char_traitsIcEEE6do_getES3_S3_RSt8ios_baseRSt12_Ios_IostateRb
0103a4c0 g     F .text	00000058 _ZNSt8ios_base17register_callbackEPFvNS_5eventERS_iEi
0100ede4  w    F .text	000000f4 _ZSt9has_facetISt8time_getIcSt19istreambuf_iteratorIcSt11char_traitsIcEEEEbRKSt6locale
0100da70  w    F .text	000000c8 _ZNKSt10moneypunctIcLb1EE10pos_formatEv
01018864  w    F .text	000002d4 _ZNKSt7collateIcE10do_compareEPKcS2_S2_S2_
0100aeac  w    F .text	00000214 _ZNSirsERi
01007268  w    F .text	00000034 _ZNSirsEPFRSt9basic_iosIcSt11char_traitsIcEES3_E
01026a20  w    F .text	00000448 _ZNKSt7num_putIcSt19ostreambuf_iteratorIcSt11char_traitsIcEEE13_M_insert_intImEES3_S3_RSt8ios_basecT_
010445ec g     F .text	00000090 _getc_r
010133f8  w    F .text	000000d0 _ZNSt10moneypunctIcLb1EEC1EPiPKcm
0103d7f0  w    F .text	00000188 _ZNSt13basic_fstreamIcSt11char_traitsIcEEC2Ev
01044554 g     F .text	00000098 getc
01011768  w    F .text	00000124 _ZNSt15messages_bynameIcEC2EPKcm
0100e320  w    F .text	00000038 _ZNKSt7num_putIcSt19ostreambuf_iteratorIcSt11char_traitsIcEEE3putES3_RSt8ios_basecx
0105a610  w    O .rodata	00000014 _ZTVSt12out_of_range
010456a4 g     F .text	00000008 _putchar_r
01042844 g     F .text	00000050 _Unwind_SjLj_ForcedUnwind
01004988 g     F .text	000007b0 _ZNSt6locale5_ImplC2Em
01042458 g     F .text	00000014 _Unwind_GetCFA
01037b4c g     F .text	00000014 _ZSt13set_terminatePFvvE
01057488 g     F .text	00000094 alt_find_dev
01045194 g     F .text	000000a0 memcpy
0104f098 g     F .text	00000248 __hexnan
0105abf4  w    O .rodata	00000028 _ZTSSt14basic_ifstreamIcSt11char_traitsIcEE
01030e28  w    F .text	00000010 _ZNSsC2Ev
010061b4  w    F .text	000001f4 _ZN9__gnu_cxx13stdio_filebufIcSt11char_traitsIcEEC2EP7__sFILESt13_Ios_Openmodem
0103e764  w    F .text	000000a8 _ZNSt14basic_ifstreamIcSt11char_traitsIcEE7is_openEv
01011994  w    F .text	000000d8 _ZNSt17__timepunct_cacheIcEC2Em
010227bc  w    F .text	00000204 _ZNKSt7num_getIcSt19istreambuf_iteratorIcSt11char_traitsIcEEE6do_getES3_S3_RSt8ios_baseRSt12_Ios_IostateRd
0100e5e4  w    F .text	00000018 _ZNSt8time_putIcSt19ostreambuf_iteratorIcSt11char_traitsIcEEEC2Em
01030d18  w    F .text	0000000c _ZNKSs17find_first_not_ofERKSsm
01030b88  w    F .text	000000a4 _ZNKSs17find_first_not_ofEPKcmm
0101853c  w    F .text	00000328 _ZNKSt7collateIcE12do_transformEPKcS2_
01045aa4 g     F .text	000001d0 setvbuf
01059b84  w    O .rodata	0000000c _ZTISt15numpunct_bynameIcE
010595d4  w    O .rodata	00000014 _ZTVSt15time_put_bynameIcSt19ostreambuf_iteratorIcSt11char_traitsIcEEE
01035c68 g     F .text	00000008 _ZNSt6locale5facet19_S_destroy_c_localeERPi
01059df8  w    O .rodata	0000000c _ZTISt12ctype_bynameIcE
010559e4 g     F .text	0000005c alt_up_char_buffer_clear
010322d0  w    F .text	00000034 _ZNSsC1IPKcEET_S2_RKSaIcE
0101610c  w    F .text	0000043c _ZNSt5__padIcSt11char_traitsIcEE6_S_padERSt8ios_basecPcPKcllb
0100ebd4  w    F .text	00000010 _ZNSt7num_putIcSt19ostreambuf_iteratorIcSt11char_traitsIcEEED1Ev
0102ce40  w    F .text	000003b8 _ZStlsISt11char_traitsIcEERSt13basic_ostreamIcT_ES5_c
01043324 g     F .text	0000000c _cleanup_r
010595fc  w    O .rodata	00000030 _ZTVSt7num_putIcSt19ostreambuf_iteratorIcSt11char_traitsIcEEE
01052b30 g     F .text	000000f8 __floatsidf
0100eed8  w    F .text	000000f4 _ZSt9has_facetISt8time_putIcSt19ostreambuf_iteratorIcSt11char_traitsIcEEEEbRKSt6locale
01057acc g     F .text	00000078 alt_io_redirect
0100e3c8  w    F .text	00000038 _ZNKSt7num_putIcSt19ostreambuf_iteratorIcSt11char_traitsIcEEE3putES3_RSt8ios_basece
0100dc0c  w    F .text	0000000c _ZNKSt10moneypunctIcLb1EE16do_thousands_sepEv
01052a20 g     F .text	00000088 __ltdf2
0105a5dc  w    O .rodata	00000014 _ZTVSt11range_error
0100e7c8  w    F .text	0000000c _ZNKSt8messagesIcE4openERKSsRKSt6localePKc
0103b908 g     F .text	00000104 _ZNSt13runtime_errorD2Ev
0105aac4  w    O .rodata	00000028 _ZTCSt14basic_ofstreamIcSt11char_traitsIcEE0_So
0105f048  w    O .bss	00000004 _ZNSt10moneypunctIcLb0EE2idE
01039c10 g     F .text	00000190 _ZSt21__throw_runtime_errorPKc
01058f74 g       *ABS*	00000000 __DTOR_END__
0105b57c g     O .rwdata	00000038 _ZNSt17__timepunct_cacheIcE12_S_timezonesE
0104067c  w    F .text	00000354 _ZNSt13basic_fstreamIcSt11char_traitsIcEEC1EPKcSt13_Ios_Openmode
01030dcc  w    F .text	00000050 _ZNKSs5rfindEPKcm
010592b0  w    O .rodata	000000b8 _ZN9__gnu_cxx4ropeIcSaIcEE10_S_min_lenE
0105d190  w    O .rwdata	00000008 _ZTISt10money_base
01001b10 g     F .text	0000009c _ZN10VGA_Screen4initEv
01016548  w    F .text	00000060 _ZNKSt7num_putIcSt19ostreambuf_iteratorIcSt11char_traitsIcEEE6_M_padEclRSt8ios_basePcPKcRi
0103b51c g     F .text	000000b0 _ZNSt11logic_errorC2ERKSs
0105a67c  w    O .rodata	00000014 _ZTVSt16invalid_argument
01037858 g     F .text	00000010 _ZN10__cxxabiv117__class_type_infoD1Ev
0105aaec  w    O .rodata	00000028 _ZTVSt14basic_ifstreamIcSt11char_traitsIcEE
01030e38  w    F .text	00000010 _ZN9__gnu_cxxeqIPKcSsEEbRKNS_17__normal_iteratorIT_T0_EES8_
0104574c g     F .text	00000014 puts
0105a30c  w    O .rodata	0000000c _ZTIN10__cxxabiv121__vmi_class_type_infoE
0100ec8c  w    F .text	00000010 _ZNSt9money_putIcSt19ostreambuf_iteratorIcSt11char_traitsIcEEED2Ev
01033d5c  w    F .text	00000150 _ZStplIcSt11char_traitsIcESaIcEESbIT_T0_T1_EPKS3_RKS6_
0103dec0  w    F .text	00000318 _ZNSt13basic_filebufIcSt11char_traitsIcEE7seekoffExSt12_Ios_SeekdirSt13_Ios_Openmode
01059e48  w    O .rodata	00000011 _ZTSSt12codecvt_base
010597a8  w    O .rodata	00000010 _ZTVSt11__timepunctIcE
0100a11c  w    F .text	000001f0 _ZNSirsERd
0104f50c g     F .text	00000040 mbrtowc
0100e448  w    F .text	00000018 _ZNKSt11__timepunctIcE15_M_time_formatsEPPKc
0105fc8c g     O .bss	0000000c _ZN14__gnu_internal13moneypunct_cfE
01059c4c  w    O .rodata	0000001d _ZTSSt17moneypunct_bynameIcLb0EE
0103b43c g     F .text	00000030 _ZNSt11range_errorC2ERKSs
010085ec  w    F .text	00000200 _ZNSi7putbackEc
0104c61c g     F .text	00000068 _vfscanf_r
01010628  w    F .text	00000010 _ZNSt12ctype_bynameIcED1Ev
0104f8e8 g     F .text	000000b0 __ratio
0103bd28  w    F .text	0000003c _ZNSt13basic_filebufIcSt11char_traitsIcEE15_M_create_pbackEv
01011644  w    F .text	00000124 _ZNSt15messages_bynameIcEC1EPKcm
01011334  w    F .text	000000c8 _ZNSt7collateIcEC1EPim
01013758  w    F .text	00000018 _ZNSt15time_get_bynameIcSt19istreambuf_iteratorIcSt11char_traitsIcEEEC2EPKcm
0103286c  w    F .text	00000004 _ZNSsaSERKSs
010593dc  w    O .rodata	0000000c _ZTIN9__gnu_cxx13stdio_filebufIcSt11char_traitsIcEEE
010058e8 g     F .text	00000054 _ZNSt6locale18_S_initialize_onceEv
0105a5f0  w    O .rodata	0000000c _ZTISt12out_of_range
01030ab4  w    F .text	00000038 _ZNKSs15_M_check_lengthEmmPKc
0105d1e1 g     O .rwdata	00000001 _ZNSt10ctype_base5printE
01059920  w    O .rodata	00000016 _ZTSSt14collate_bynameIcE
010124e8  w    F .text	00000018 _ZNSt9money_putIcSt19ostreambuf_iteratorIcSt11char_traitsIcEEEC1Em
0105f050  w    O .bss	00000004 _ZNSt9money_getIcSt19istreambuf_iteratorIcSt11char_traitsIcEEE2idE
0103168c  w    F .text	000000c0 _ZNSs12_S_constructEmcRKSaIcE
0103b0b8 g     F .text	000000d8 _ZNSt10__num_base15_S_format_floatERKSt8ios_basePcc
01055cdc g     F .text	00000034 alt_up_pixel_buffer_dma_check_swap_buffers_status
01000398 g     F .text	000000b8 _ZN4Bomb15check_explosionER10VGA_Screen
01055198 g     F .text	00000224 altera_avalon_jtag_uart_read
010448e8 g     F .text	00000014 malloc
01045468 g     F .text	00000034 _printf_r
00000000 g       *ABS*	00000000 __alt_mem_onchip_memory2_0
010423dc g     F .text	00000008 __udivsi3
0100e47c  w    F .text	00000018 _ZNKSt11__timepunctIcE8_M_am_pmEPPKc
0105391c g     F .text	000000c4 isatty
01013650  w    F .text	000000c0 _ZNSt8messagesIcEC1Em
0100b6c4  w    F .text	000001c0 _ZNSi6sentryC2ERSib
0102fef8  w    F .text	00000010 _ZNSt15basic_streambufIcSt11char_traitsIcEE5gbumpEi
0100938c  w    F .text	00000350 _ZNSi3getEPclc
01045c74 g     F .text	000000cc _raise_r
0104f3d0 g     F .text	0000002c iswspace
01059bd8  w    O .rodata	0000003c _ZTSSt9money_getIcSt19istreambuf_iteratorIcSt11char_traitsIcEEE
0102d4dc  w    F .text	00000320 _ZNSo3putEc
010595e8  w    O .rodata	00000014 _ZTVSt8time_putIcSt19ostreambuf_iteratorIcSt11char_traitsIcEEE
0105b360 g     O .rodata	000000c8 __mprec_tens
01033270  w    F .text	0000009c _ZNSs15_M_replace_safeEmmPKcm
010395d0 g     F .text	00000190 _ZSt22__throw_overflow_errorPKc
0102e210  w    F .text	00000380 _ZNSolsEf
0103da50  w    F .text	000001c8 _ZNSt13basic_filebufIcSt11char_traitsIcEE4openEPKcSt13_Ios_Openmode
01038268 g     F .text	000000d0 _ZNSt7codecvtIcc10_mbstate_tEC2Em
010033a0 g     F .text	000002d0 _ZNKSt6localeeqERKS_
0100707c  w    F .text	000001e4 _ZNSt9basic_iosIcSt11char_traitsIcEE7copyfmtERKS2_
0100445c g     F .text	00000458 _ZNSt6locale5_Impl16_M_install_facetEPKNS_2idEPKNS_5facetE
01056378 g     F .text	00000358 alt_up_pixel_buffer_dma_draw_hline
01010aa8  w    F .text	00000080 _ZNSt18__moneypunct_cacheIcLb1EED0Ev
0103b5fc g     F .text	00000030 _ZNSt12out_of_rangeC2ERKSs
0100ff4c  w    F .text	000000bc _ZNSt7collateIcED2Ev
0102d208  w    F .text	00000010 _ZStlsISt11char_traitsIcEERSt13basic_ostreamIcT_ES5_h
010041b4 g     F .text	000002a8 _ZNSt6locale5_ImplD2Ev
0104467c g     F .text	00000008 __locale_charset
0102b5bc  w    F .text	000000a0 _ZNSo6sentryD2Ev
010598a4  w    O .rodata	00000018 _ZTSSt16__numpunct_cacheIcE
0105f15c g     O .bss	00000008 alt_timezone
0102ff30  w    F .text	00000010 _ZNSt15basic_streambufIcSt11char_traitsIcEE5pbumpEi
01032870  w    F .text	00000128 _ZNSs7reserveEm
01051ad4 g     F .text	000000a4 __fixunsdfsi
010318bc  w    F .text	000000c8 _ZNKSs7compareEmmPKc
0105f0a0  w    O .bss	00000008 _ZGVNSt7num_getIcSt19istreambuf_iteratorIcSt11char_traitsIcEEE2idE
01030804  w    F .text	0000000c _ZNKSs4sizeEv
0100059c g     F .text	000000b0 _ZN9MatrixMap12print_matrixEv
0105f148 g     O .bss	00000004 __malloc_top_pad
01033038  w    F .text	00000238 _ZNSs9_M_mutateEmmm
01034140  w    F .text	000002e0 _ZNSs7replaceEmmPKcm
01030ebc  w    F .text	00000058 _ZNKSs16find_last_not_ofEcm
01045f4c g     F .text	00000004 _getpid_r
01010d88  w    F .text	00000034 _ZNSt15numpunct_bynameIcED0Ev
0102c354  w    F .text	00000368 _ZNSolsEm
01059260 g     O .rodata	00000010 _ZNSt6locale5_Impl13_S_id_numericE
01034490  w    F .text	00000010 _ZNSs7replaceEN9__gnu_cxx17__normal_iteratorIPcSsEES2_PKcm
01003c04 g     F .text	000002ec _ZNSt6locale5_ImplC2ERKS0_m
010516f8 g     F .text	00000024 strtoul
0105d298 g     O .rwdata	00000004 __mb_cur_max
01032c0c  w    F .text	00000040 _ZNSs6appendEPKc
0103dcdc  w    F .text	00000064 _ZNSt14basic_ifstreamIcSt11char_traitsIcEE4openEPKcSt13_Ios_Openmode
0105d280 g     O .rwdata	00000004 _ZNSt10__num_base11_S_atoms_inE
0103f878  w    F .text	000001f4 _ZNSt14basic_ifstreamIcSt11char_traitsIcEEC1EPKcSt13_Ios_Openmode
0105a728  w    O .rodata	0000000c _ZTSSt8ios_base
0100d718  w    F .text	000000c8 _ZNKSt10moneypunctIcLb0EE10pos_formatEv
01044684 g     F .text	0000000c _localeconv_r
010360a4 g     F .text	00000010 _ZN10__cxxabiv121__vmi_class_type_infoD1Ev
01030f14  w    F .text	00000064 _ZNKSs17find_first_not_ofEcm
0105171c g     F .text	000002f0 _strtoull_r
01050270 g     F .text	0000003c __i2b
0104e278 g     F .text	0000049c __sfvwrite_r
01037878 g     F .text	00000060 _ZNK10__cxxabiv117__class_type_info10__do_catchEPKSt9type_infoPPvj
01008de0  w    F .text	000001dc _ZNSi6ignoreEv
01002004 g     F .text	000004bc _ZNSt8ios_base4InitC2Ev
01045dc8 g     F .text	000000b4 __sigtramp_r
01030784  w    F .text	00000008 _ZNKSs9_M_ibeginEv
0103570c g     F .text	00000008 _ZNSt12__basic_fileIcE4fileEv
0103b29c g     F .text	000000b0 _ZNSt13runtime_errorC2ERKSs
010127f8  w    F .text	0000009c _ZNKSt10moneypunctIcLb0EE14do_curr_symbolEv
010273fc  w    F .text	00000358 _ZNKSt7num_putIcSt19ostreambuf_iteratorIcSt11char_traitsIcEEE6do_putES3_RSt8ios_basecb
01006cc8  w    F .text	00000030 _ZNSt9basic_iosIcSt11char_traitsIcEE11_M_setstateESt12_Ios_Iostate
0105aa00  w    O .rodata	0000003c _ZTCSt13basic_fstreamIcSt11char_traitsIcEE0_Sd
01010ef4  w    F .text	000000c8 _ZNSt10moneypunctIcLb1EEC2Em
01045a34 g     F .text	00000070 _sbrk_r
0105d220 g     O .rwdata	00000004 _ZNSt8ios_base6skipwsE
01056b6c g     F .text	000000d8 helper_plot_pixel
01011000  w    F .text	00000010 _ZNSt17moneypunct_bynameIcLb0EED2Ev
0100da64  w    F .text	0000000c _ZNKSt10moneypunctIcLb1EE11frac_digitsEv
010096dc  w    F .text	00000064 _ZNSi3getEPcl
01059808  w    O .rodata	0000002c _ZTVSt23__codecvt_abstract_baseIcc10_mbstate_tE
0105d1a8  w    O .rwdata	00000003 _ZTSSo
01034e24 g     F .text	000000d0 _ZNSt8numpunctIcED0Ev
0103cb74  w    F .text	00000110 _ZNSt13basic_filebufIcSt11char_traitsIcEE7_M_seekExSt12_Ios_Seekdir10_mbstate_t
01035b34 g     F .text	00000080 _ZNSt12__basic_fileIcE4openEPKcSt13_Ios_Openmodei
0105aab4  w    O .rodata	00000010 _ZTTSt14basic_ofstreamIcSt11char_traitsIcEE
0105a318  w    O .rodata	00000020 _ZTVSt9type_info
0100ead8  w    F .text	00000010 _ZNSt8time_getIcSt19istreambuf_iteratorIcSt11char_traitsIcEEED1Ev
0105a664  w    O .rodata	00000015 _ZTSSt16invalid_argument
01059294 g     O .rodata	0000001c _ZNSt6locale5_Impl19_S_facet_categoriesE
0103f730  w    F .text	00000148 _ZNSt14basic_ofstreamIcSt11char_traitsIcEEC2Ev
01039140 g     F .text	00000034 _ZSt17__throw_bad_allocv
01030160  w    F .text	00000008 _ZNSt15basic_streambufIcSt11char_traitsIcEE8overflowEi
0103dc18  w    F .text	00000060 _ZNSt13basic_fstreamIcSt11char_traitsIcEE4openEPKcSt13_Ios_Openmode
010120a4  w    F .text	00000018 _ZNSt7num_getIcSt19istreambuf_iteratorIcSt11char_traitsIcEEEC2Em
01059c78  w    O .rodata	0000000f _ZTSSt8messagesIcE
01012500  w    F .text	00000018 _ZNSt9money_putIcSt19ostreambuf_iteratorIcSt11char_traitsIcEEEC2Em
0100b0c0  w    F .text	000001f0 _ZNSirsERt
0105f060  w    O .bss	00000004 _ZNSt7num_putIcSt19ostreambuf_iteratorIcSt11char_traitsIcEEE2idE
01030754  w    F .text	00000010 _ZNSt11char_traitsIcE2eqERKcS2_
0100ec9c  w    F .text	00000034 _ZNSt9money_getIcSt19istreambuf_iteratorIcSt11char_traitsIcEEED0Ev
01050618 g     F .text	00000078 _read_r
01037d9c g     F .text	00000010 _ZNKSt9exception4whatEv
01031294  w    F .text	00000068 _ZNKSs4findEcm
0105b9b4 g     O .rwdata	0000000c __lc_ctype
0105d2c0 g     O .rwdata	00000004 alt_max_fd
01031524  w    F .text	00000050 _ZNKSs16find_last_not_ofEPKcm
010598f4  w    O .rodata	0000001e _ZTSSt18__moneypunct_cacheIcLb0EE
01012358  w    F .text	000000cc _ZNSt8numpunctIcEC2EPSt16__numpunct_cacheIcEm
0105305c g     F .text	00000138 __unpack_d
01031458  w    F .text	00000050 _ZNKSs4findEPKcm
01042d70 g     F .text	00000110 _fclose_r
0100e02c  w    F .text	00000044 _ZNKSt7num_getIcSt19istreambuf_iteratorIcSt11char_traitsIcEEE3getES3_S3_RSt8ios_baseRSt12_Ios_IostateRt
01000800 g     F .text	00000098 _Z14randomize_pathv
010315c4  w    F .text	00000050 _ZNKSs12find_last_ofEPKcm
0105ac28  w    O .rodata	00000027 _ZTSSt13basic_filebufIcSt11char_traitsIcEE
01030d24  w    F .text	000000a8 _ZNKSs5rfindEPKcmm
0100e828  w    F .text	00000004 _ZNKSt8messagesIcE8do_closeEi
0105a49c  w    O .rodata	0000000c _ZTISt9bad_alloc
0103bf98  w    F .text	00000050 _ZNSt13basic_filebufIcSt11char_traitsIcEE4syncEv
01030778  w    F .text	0000000c _ZNKSs6_M_repEv
0104314c g     F .text	00000034 fflush
0105fa3c g     O .bss	00000220 _ZN14__gnu_internal7ctype_cE
0105f14c g     O .bss	00000004 __malloc_max_sbrked_mem
01059d60  w    O .rodata	0000000e _ZTSSt7collateIcE
01059280 g     O .rodata	00000014 _ZNSt6locale5_Impl14_S_id_monetaryE
0100e180  w    F .text	00000044 _ZNKSt7num_getIcSt19istreambuf_iteratorIcSt11char_traitsIcEEE3getES3_S3_RSt8ios_baseRSt12_Ios_IostateRf
010337d0  w    F .text	00000050 _ZNSs5eraseEN9__gnu_cxx17__normal_iteratorIPcSsEE
01060208 g     O .bss	00000074 _ZN14__gnu_internal8buf_cerrE
0100fa04  w    F .text	00000058 _ZSt9use_facetISt8time_putIcSt19ostreambuf_iteratorIcSt11char_traitsIcEEEERKT_RKSt6locale
0105d13c g     O .rwdata	00000004 _ZNSt6locale4timeE
0103c310  w    F .text	00000164 _ZNSt13basic_filebufIcSt11char_traitsIcEE19_M_terminate_outputEv
0100fcc4  w    F .text	00000058 _ZSt9use_facetISt8numpunctIcEERKT_RKSt6locale
0100d978  w    F .text	0000002c _ZNKSt10moneypunctIcLb1EE13thousands_sepEv
01016d84  w    F .text	00001410 _ZNKSt8time_getIcSt19istreambuf_iteratorIcSt11char_traitsIcEEE21_M_extract_via_formatES3_S3_RSt8ios_baseRSt12_Ios_IostateP2tmPKc
01000d38 g     F .text	00000048 _ZN6Player9life_downEv
01033b8c  w    F .text	00000044 _ZNSsixEm
010326f8  w    F .text	00000174 _ZNSs6assignERKSs
01042214 g     F .text	00000054 __extendsfdf2
0105f0b0  w    O .bss	00000008 _ZGVNSt11__timepunctIcE2idE
01012424  w    F .text	000000c4 _ZNSt8numpunctIcEC1Em
0105a718  w    O .rodata	00000010 _ZTVSt8ios_base
010600f8 g     O .bss	00000028 _ZN14__gnu_internal13buf_cerr_syncE
0100dde4  w    F .text	00000044 _ZNKSt9money_putIcSt19ostreambuf_iteratorIcSt11char_traitsIcEEE3putES3_bRSt8ios_basece
01052170 g     F .text	00000074 __adddf3
01051b78 g     F .text	00000078 __nesf2
01035d88 g     F .text	000000c8 _ZSt14__convert_to_vIfEvPKcRT_RSt12_Ios_IostateRKPi
01059d7c  w    O .rodata	0000000f _ZTSSt8numpunctIcE
0105a3a4  w    O .rodata	0000002c _ZTVN10__cxxabiv120__si_class_type_infoE
0102b444  w    F .text	00000068 _ZStlsIcSt11char_traitsIcEERSt13basic_ostreamIT_T0_ES6_St8_Setbase
0105f0d0  w    O .bss	00000008 _ZGVNSt7collateIcE2idE
0101038c  w    F .text	00000010 _ZNSt14codecvt_bynameIcc10_mbstate_tED1Ev
0100fc6c  w    F .text	00000058 _ZSt9use_facetISt7num_putIcSt19ostreambuf_iteratorIcSt11char_traitsIcEEEERKT_RKSt6locale
0104122c  w    F .text	00000008 _ZThn8_NSdD0Ev
01032ec0  w    F .text	000000bc _ZNSsD1Ev
0104f7c8 g     F .text	00000120 __b2d
0102b1fc  w    F .text	00000008 _ZNSolsEPFRSoS_E
01055d10 g     F .text	0000016c alt_up_pixel_buffer_dma_clear_screen
01041404 g     F .text	00000010 _ZNSt8bad_castD1Ev
01041bb4 g     F .text	00000660 __umoddi3
01053ccc g     F .text	000000f4 lseek
01059e38  w    O .rodata	0000000f _ZTSSt10money_base
01033bd0  w    F .text	0000003c _ZNSs3endEv
01006ad8  w    F .text	00000010 _ZNSt9basic_iosIcSt11char_traitsIcEED2Ev
0105a808  w    O .rodata	00000014 _ZTVSt11logic_error
010378d8 g     F .text	00000030 _ZNK10__cxxabiv117__class_type_info11__do_upcastEPKS0_PKvRNS0_15__upcast_resultE
01036b44 g     F .text	0000000c _ZdlPv
0103d228  w    F .text	0000016c _ZNSt13basic_filebufIcSt11char_traitsIcEE6xsputnEPKcl
01011584  w    F .text	000000c0 _ZNSt8messagesIcEC2Em
01008c00  w    F .text	000001e0 _ZNSi4peekEv
0103a1d0  w    F .text	00000034 _ZNSt12length_errorD0Ev
0105d294 g     O .rwdata	00000004 _global_impure_ptr
0100fa5c  w    F .text	00000058 _ZSt9use_facetISt11__timepunctIcEERKT_RKSt6locale
0105d278 g     O .rwdata	00000004 _ZNSt10money_base18_S_default_patternE
01036070 g     F .text	00000034 _ZN10__cxxabiv121__vmi_class_type_infoD0Ev
01050690 g     F .text	000005f4 _realloc_r
0105d1e4 g     O .rwdata	00000001 _ZNSt10ctype_base5lowerE
01001380 g     F .text	00000044 _ZN10VGA_Screen12clear_screenEP27alt_up_pixel_buffer_dma_dev
0105d250 g     O .rwdata	00000004 _ZNSt8ios_base6binaryE
01060634 g       *ABS*	00000000 __bss_end
010578fc g     F .text	000000f8 alt_iic_isr_register
0105fc80 g     O .bss	0000000c _ZN14__gnu_internal13moneypunct_ctE
01055e7c g     F .text	000004fc alt_up_pixel_buffer_dma_draw_box
01054500 g     F .text	0000010c alt_tick
0105998c  w    O .rodata	0000000c _ZTISt15messages_bynameIcE
01042424 g     F .text	00000010 _Unwind_SjLj_Register
01012548  w    F .text	00000054 _ZNSt18__moneypunct_cacheIcLb1EEC2Em
0100eb2c  w    F .text	00000010 _ZNSt8time_putIcSt19ostreambuf_iteratorIcSt11char_traitsIcEEED1Ev
010602a4 g     O .bss	00000100 __hexdig
0102b51c  w    F .text	000000a0 _ZNSo6sentryD1Ev
01041548 g     F .text	0000066c __udivdi3
01030398  w    F .text	000000d8 _ZNSt15basic_streambufIcSt11char_traitsIcEE6xsputnEPKcl
0105a5ac  w    O .rodata	00000014 _ZTVSt14overflow_error
01013710  w    F .text	00000018 _ZNSt15time_put_bynameIcSt19ostreambuf_iteratorIcSt11char_traitsIcEEEC1EPKcm
0103b000 g     F .text	00000068 _ZNSt8ios_base5imbueERKSt6locale
01039f30 g     F .text	00000190 _ZSt20__throw_length_errorPKc
0105b428 g     O .rodata	00000028 __mprec_bigtens
010504f8 g     F .text	00000120 __s2b
010073ec  w    F .text	00000064 _ZNSi7getlineEPcl
01042d48 g     F .text	00000018 abort
0103f1c0  w    F .text	00000184 _ZNSt14basic_ofstreamIcSt11char_traitsIcEEC1Ev
0102fe20  w    F .text	0000000c _ZNSt15basic_streambufIcSt11char_traitsIcEE9pubsetbufEPcl
0102db30  w    F .text	00000368 _ZNSolsEPKv
0105d177  w    O .rwdata	00000001 _ZNSt17moneypunct_bynameIcLb1EE4intlE
0100e8a0  w    F .text	000000b0 _ZSt14__add_groupingIcEPT_S1_S0_PKcmPKS0_S5_
01052d74 g     F .text	00000194 __floatunsidf
0102ab5c  w    F .text	00000008 _ZN9__gnu_cxx18stdio_sync_filebufIcSt11char_traitsIcEE4syncEv
010105f4  w    F .text	00000034 _ZNSt12ctype_bynameIcED0Ev
01006cb8  w    F .text	00000010 _ZNKSt9basic_iosIcSt11char_traitsIcEE3eofEv
010309f8  w    F .text	000000bc _ZNSs4_Rep10_M_refcopyEv
0105943c  w    O .rodata	00000028 _ZTVSi
0105a4a8  w    O .rodata	0000002c _ZTVSt7codecvtIcc10_mbstate_tE
0104f6e8 g     F .text	00000060 __mcmp
0105f0f4 g     O .bss	00000004 _ZN14__gnu_internal8c_localeE
01000220 g     F .text	00000030 _ZN4BombC1Ev
01009b74  w    F .text	000001c8 _ZNSirsEPSt15basic_streambufIcSt11char_traitsIcEE
0102ff54  w    F .text	00000008 _ZNSt15basic_streambufIcSt11char_traitsIcEE6setbufEPcl
0105d1e5 g     O .rwdata	00000001 _ZNSt10ctype_base5alphaE
0105aa3c  w    O .rodata	00000028 _ZTCSt13basic_fstreamIcSt11char_traitsIcEE0_Si
0105d28c g     O .rwdata	00000004 __ctype_ptr
01036988 g     F .text	000000a4 __cxa_end_catch
01059430  w    O .rodata	0000000c _ZTISt9basic_iosIcSt11char_traitsIcEE
0104330c g     F .text	00000018 __fp_lock_all
01035aa8 g     F .text	0000008c _ZNSt12__basic_fileIcE6xsgetnEPcl
01059f08  w    O .rodata	00000018 _ZTISo
010578b4 g     F .text	00000048 alt_ic_irq_enabled
01037e20 g     F .text	00000010 _ZNSt13bad_exceptionD2Ev
01001040 g     F .text	000000c8 _ZN6Player13get_directionEv
010078f4  w    F .text	000001f0 _ZNSi5seekgESt4fposI10_mbstate_tE
010012c8 g     F .text	0000005c _ZN10VGA_ScreenC1Ev
01060194 g     O .bss	00000074 _ZN14__gnu_internal7buf_cinE
0100eb3c  w    F .text	00000010 _ZNSt8time_putIcSt19ostreambuf_iteratorIcSt11char_traitsIcEEED2Ev
01054468 g     F .text	00000098 alt_alarm_stop
0105d260 g     O .rwdata	00000004 _ZNSt8ios_base3begE
0100e838  w    F .text	00000030 _ZNKSt7collateIcE9transformEPKcS2_
0100eba0  w    F .text	00000034 _ZNSt7num_putIcSt19ostreambuf_iteratorIcSt11char_traitsIcEEED0Ev
01030230  w    F .text	000000dc _ZNSt15basic_streambufIcSt11char_traitsIcEE6xsgetnEPcl
010074c4  w    F .text	00000068 _ZStrsIcSt11char_traitsIcEERSt13basic_istreamIT_T0_ES6_St8_Setbase
010073e4  w    F .text	00000004 _ZStrsISt11char_traitsIcEERSt13basic_istreamIcT_ES5_Pa
0105117c g     F .text	00000024 strtol
01030858  w    F .text	0000000c _ZNKSs4_Rep12_M_is_sharedEv
01038a98 g     F .text	0000006c _ZNKSt5ctypeIcE10do_toupperEPcPKc
01006db4  w    F .text	00000140 _ZNSt9basic_iosIcSt11char_traitsIcEE5imbueERKSt6locale
0102ce3c  w    F .text	00000004 _ZStlsISt11char_traitsIcEERSt13basic_ostreamIcT_ES5_PKh
0100d6ac  w    F .text	00000030 _ZNKSt10moneypunctIcLb0EE13positive_signEv
0105f0f8 g     O .bss	00000008 _ZN14__gnu_internal9num_get_cE
01030764  w    F .text	00000008 _ZNKSs7_M_dataEv
01010ea0  w    F .text	00000034 _ZNSt17moneypunct_bynameIcLb1EED0Ev
01031ea4  w    F .text	00000060 _ZNSsC2ERKSsmmRKSaIcE
0105f180 g     O .bss	00000004 alt_irq_active
01002f6c g     F .text	00000434 _ZNKSt6locale4nameEv
010358c4 g     F .text	00000004 _ZNSt12__basic_fileIcED1Ev
01037c18 g     F .text	00000018 _ZSt9terminatev
010385bc g     F .text	000000dc _ZNSt7codecvtIcc10_mbstate_tED2Ev
01033d54  w    F .text	00000008 _ZNSs6resizeEm
0100b884 g     F .text	0000046c _ZNSi6ignoreEli
0103a0f4  w    F .text	00000010 _ZNSt15underflow_errorD1Ev
01034698 g     F .text	0000005c _ZNSt10money_base20_S_construct_patternEccc
0104015c  w    F .text	000001c0 _ZNSt13basic_fstreamIcSt11char_traitsIcEED0Ev
01039760 g     F .text	00000190 _ZSt24__throw_invalid_argumentPKc
010000ec g     F .exceptions	000000c8 alt_irq_handler
01033404  w    F .text	00000040 _ZNSs6assignEPKc
010229c0  w    F .text	00000204 _ZNKSt7num_getIcSt19istreambuf_iteratorIcSt11char_traitsIcEEE6do_getES3_S3_RSt8ios_baseRSt12_Ios_IostateRf
0105be30 g     O .rwdata	00000028 alt_dev_null
01046458 g     F .text	00000068 _strdup_r
01031b80  w    F .text	00000104 _ZNSs4_Rep7_M_grabERKSaIcES2_
01033a50  w    F .text	00000050 _ZNSs6insertEmRKSsmm
0100d5f4  w    F .text	0000002c _ZNKSt10moneypunctIcLb0EE13decimal_pointEv
01002cbc g     F .text	00000010 _ZNSt6locale5facet18_S_initialize_onceEv
01059dc4  w    O .rodata	00000020 _ZTISt23__codecvt_abstract_baseIcc10_mbstate_tE
0103ab44 g     F .text	00000008 _ZNKSt8ios_base7failure4whatEv
0103a29c g     F .text	00000064 _ZNSt8ios_base20_M_dispose_callbacksEv
0102a88c  w    F .text	0000012c _ZSt16__convert_from_vIeEiPciPKcT_RKPii
0103bc1c g     F .text	0000010c _ZNSt11logic_errorD0Ev
01010ee4  w    F .text	00000010 _ZNSt17moneypunct_bynameIcLb1EED2Ev
0103571c g     F .text	00000094 _ZNSt12__basic_fileIcE8sys_openEP7__sFILESt13_Ios_Openmode
01059d98  w    O .rodata	0000002c _ZTSSt23__codecvt_abstract_baseIcc10_mbstate_tE
01001978 g     F .text	000000d0 _ZN10VGA_Screen11draw_playerEP27alt_up_pixel_buffer_dma_deviii
0104296c g     F .text	000000c8 __unpack_f
01016bd4  w    F .text	000001b0 _ZNSt14collate_bynameIcEC2EPKcm
01013850  w    F .text	000002b4 _ZNKSt8time_putIcSt19ostreambuf_iteratorIcSt11char_traitsIcEEE3putES3_RSt8ios_basecPK2tmPKcSB_
01031614  w    F .text	00000050 _ZNKSs13find_first_ofEPKcm
01012074  w    F .text	00000018 _ZNSt7num_putIcSt19ostreambuf_iteratorIcSt11char_traitsIcEEEC2Em
010556fc g     F .text	00000040 alt_up_parallel_port_open_dev
0103908c g     F .text	0000004c _ZNKSt5ctypeIcE10do_tolowerEc
0100c174 g     F .text	000004f4 _ZSt7getlineIcSt11char_traitsIcESaIcEERSt13basic_istreamIT_T0_ES7_RSbIS4_S5_T1_ES4_
0105f100 g     O .bss	00000008 _ZN14__gnu_internal9num_put_cE
01002e54 g     F .text	00000118 _ZNSt6locale5_Impl16_M_install_cacheEPKNS_5facetEm
0105a374  w    O .rodata	00000022 _ZTSN10__cxxabiv117__class_type_infoE
01048d98 g     F .text	00000004 __tz_unlock
0100f2a8  w    F .text	000000f4 _ZSt9has_facetISt10moneypunctIcLb0EEEbRKSt6locale
01007260  w    F .text	00000008 _ZNSirsEPFRSiS_E
0105d240 g     O .rwdata	00000004 _ZNSt8ios_base7failbitE
0105d180  w    O .rwdata	00000008 _ZTISt9time_base
01032c8c  w    F .text	000000e8 _ZNSs6appendERKSsmm
01057290 g     F .text	0000001c alt_dcache_flush_all
0104f5b4 g     F .text	00000070 __hi0bits
01013770  w    F .text	000000e0 _ZNKSt7num_putIcSt19ostreambuf_iteratorIcSt11char_traitsIcEEE14_M_group_floatEPKcmcS6_PcS7_Ri
01038020 g     F .text	00000010 _ZNKSt7codecvtIcc10_mbstate_tE10do_unshiftERS0_PcS3_RS3_
0101bcbc  w    F .text	00000ad4 _ZNSt18__moneypunct_cacheIcLb0EE8_M_cacheERKSt6locale
01056aa8 g     F .text	000000c4 alt_up_pixel_buffer_dma_draw_rectangle
0105d1d4  w    O .rwdata	00000008 _ZTISt9exception
0100df64  w    F .text	00000040 _ZNSt16__numpunct_cacheIcEC1Em
01052c28 g     F .text	000000d8 __fixdfsi
0100d8b4  w    F .text	0000000c _ZNKSt10moneypunctIcLb0EE16do_thousands_sepEv
01012930  w    F .text	0000009c _ZNKSt8numpunctIcE12do_falsenameEv
01031664  w    F .text	00000010 _ZNKSs4rendEv
01030d0c  w    F .text	0000000c _ZNKSs4findERKSsm
01059974  w    O .rodata	00000017 _ZTSSt15messages_bynameIcE
0103aef4 g     F .text	0000010c _ZNSt8ios_base7failureD0Ev
01010ba0  w    F .text	00000078 _ZNSt18__moneypunct_cacheIcLb1EED2Ev
010016b4 g     F .text	0000011c _ZN10VGA_Screen24draw_box_from_coordinateEiic
01059e14  w    O .rodata	0000000d _ZTSSt9time_base
0100e430  w    F .text	00000018 _ZNKSt11__timepunctIcE15_M_date_formatsEPPKc
01016a24  w    F .text	000001b0 _ZNSt14collate_bynameIcEC1EPKcm
01030894  w    F .text	0000014c _ZSt6searchIPKcS1_PFbRS0_S2_EET_S5_S5_T0_S6_T1_
01033aa0  w    F .text	0000000c _ZNSs6insertEmRKSs
01048cb4 g     F .text	0000001c strtod
01059cf8  w    O .rodata	00000020 _ZTISt10moneypunctIcLb1EE
01041088  w    F .text	00000194 _ZNSdC2EPSt15basic_streambufIcSt11char_traitsIcEE
0105d2d8 g       *ABS*	00000000 __ram_rwdata_end
0103c6c4  w    F .text	00000250 _ZNSt13basic_filebufIcSt11char_traitsIcEEC2Ev
0103f354  w    F .text	00000128 _ZNSt14basic_ofstreamIcSt11char_traitsIcEED1Ev
01036b8c g     F .text	00000010 _ZNSt9type_infoD1Ev
0105d2b8 g     O .rwdata	00000008 alt_dev_list
0105f0e4 g     O .bss	00000004 __new_handler
0105a69c  w    O .rodata	00000011 _ZTSSt12domain_error
0105463c g     F .text	00000124 write
01033748  w    F .text	00000038 _ZNSs6insertEN9__gnu_cxx17__normal_iteratorIPcSsEEmc
010455a0 g     F .text	000000e8 _putc_r
01032268  w    F .text	00000034 _ZNSsC1EPKcmRKSaIcE
0100fc14  w    F .text	00000058 _ZSt9use_facetISt7num_getIcSt19istreambuf_iteratorIcSt11char_traitsIcEEEERKT_RKSt6locale
0105d210 g     O .rwdata	00000004 _ZNSt8ios_base10scientificE
01059adc  w    O .rodata	0000003a _ZTSSt7num_putIcSt19ostreambuf_iteratorIcSt11char_traitsIcEEE
01001aa8 g     F .text	00000068 _ZN10VGA_Screen14draw_characterEP22alt_up_char_buffer_dev
01033c44  w    F .text	0000004c _ZNSs4rendEv
01036b7c g     F .text	00000010 _ZNSt9type_infoD0Ev
01051bf0 g     F .text	00000078 __gtsf2
0105d2a8 g     O .rwdata	00000008 _tzname
01056c44 g     F .text	0000039c alt_up_pixel_buffer_dma_draw_line
0103b804 g     F .text	00000104 _ZNSt13runtime_errorD1Ev
010118bc  w    F .text	000000d8 _ZNSt17__timepunct_cacheIcEC1Em
0103cc84  w    F .text	000001b0 _ZNSt13basic_filebufIcSt11char_traitsIcEE8overflowEi
0100297c g     F .text	00000210 _ZNSt8ios_base15sync_with_stdioEb
0105b57c g       *ABS*	00000000 __ram_rodata_end
0100ea94  w    F .text	00000010 _ZNSt21__ctype_abstract_baseIcED1Ev
0105f0ec g     O .bss	00000004 _ZNSt7codecvtIcc10_mbstate_tE2idE
01040df4  w    F .text	00000060 _ZNSdD2Ev
010535a8 g     F .text	000000d8 fstat
010309f0  w    F .text	00000008 _ZNSs12_Alloc_hiderC2EPcRKSaIcE
01059de4  w    O .rodata	00000014 _ZTSSt12ctype_bynameIcE
01053a40 g     F .text	00000140 kill
01031e44  w    F .text	00000060 _ZNSsC1ERKSsmmRKSaIcE
0103b71c g     F .text	00000030 _ZNSt12domain_errorC2ERKSs
0102b6d0  w    F .text	000001f0 _ZNSo5seekpESt4fposI10_mbstate_tE
01052aa8 g     F .text	00000088 __ledf2
01035e50 g     F .text	000000d8 _ZSt14__convert_to_vIeEvPKcRT_RSt12_Ios_IostateRKPi
0105d22c g     O .rwdata	00000004 _ZNSt8ios_base11adjustfieldE
0103ff00  w    F .text	000000fc _ZNSt14basic_ifstreamIcSt11char_traitsIcEED2Ev
01059968  w    O .rodata	0000000c _ZTISt14codecvt_bynameIcc10_mbstate_tE
0103b6ec g     F .text	00000030 _ZNSt12domain_errorC1ERKSs
01013b14  w    F .text	00000034 _ZNSt15time_put_bynameIcSt19ostreambuf_iteratorIcSt11char_traitsIcEEED0Ev
01005fc0  w    F .text	000001f4 _ZN9__gnu_cxx13stdio_filebufIcSt11char_traitsIcEEC2EiSt13_Ios_Openmodem
0103a28c  w    F .text	00000010 _ZNSt12domain_errorD1Ev
01031e10  w    F .text	00000034 _ZNSsC2IPcEET_S1_RKSaIcE
0100f584  w    F .text	000000f4 _ZSt9has_facetISt8numpunctIcEEbRKSt6locale
0102febc  w    F .text	0000000c _ZNSt15basic_streambufIcSt11char_traitsIcEE7pubsyncEv
01059d38  w    O .rodata	00000019 _ZTSSt17__timepunct_cacheIcE
01006d98  w    F .text	0000001c _ZNKSt9basic_iosIcSt11char_traitsIcEEcvPvEv
010503d8 g     F .text	00000120 __pow5mult
01033ff4  w    F .text	0000014c _ZStplIcSt11char_traitsIcESaIcEESbIT_T0_T1_ES3_RKS6_
0100c668 g     F .text	0000056c _ZStrsIcSt11char_traitsIcESaIcEERSt13basic_istreamIT_T0_ES7_RSbIS4_S5_T1_E
010594f0  w    O .rodata	00000010 _ZTVSt16__numpunct_cacheIcE
0105d204 g     O .rwdata	00000004 _ZNSt8ios_base4leftE
0105f13c g     O .bss	00000004 __nlocale_changed
0103a0c0  w    F .text	00000034 _ZNSt15underflow_errorD0Ev
010423e4 g     F .text	00000008 __umodsi3
01036b74 g     F .text	00000008 _ZNKSt9type_info11__do_upcastEPKN10__cxxabiv117__class_type_infoEPPv
01014f64  w    F .text	000003f0 _ZNKSt8time_getIcSt19istreambuf_iteratorIcSt11char_traitsIcEEE11do_get_yearES3_S3_RSt8ios_baseRSt12_Ios_IostateP2tm
0103dd40  w    F .text	00000180 _ZNSt13basic_filebufIcSt11char_traitsIcEE7seekposESt4fposI10_mbstate_tESt13_Ios_Openmode
0102b238  w    F .text	00000034 _ZNSolsEPFRSt8ios_baseS0_E
01034954 g     F .text	000000d0 _ZNSt10moneypunctIcLb1EED0Ev
0102de98  w    F .text	00000378 _ZNSolsEe
010344a0  w    F .text	00000064 _ZNSs7replaceEmmPKc
0100e950  w    F .text	0000006c _ZNKSt7num_putIcSt19ostreambuf_iteratorIcSt11char_traitsIcEEE12_M_group_intEPKcmcRSt8ios_basePcS9_Ri
0105968c  w    O .rodata	00000018 _ZTVSt9money_putIcSt19ostreambuf_iteratorIcSt11char_traitsIcEEE
01012518  w    F .text	00000018 _ZNSt9money_getIcSt19istreambuf_iteratorIcSt11char_traitsIcEEEC1Em
0105f120 g     O .bss	00000008 _ZN14__gnu_internal10time_put_cE
0102bc80  w    F .text	00000088 _ZNSo6sentryC2ERSo
0100e400  w    F .text	00000030 _ZNKSt7num_putIcSt19ostreambuf_iteratorIcSt11char_traitsIcEEE3putES3_RSt8ios_basecPKv
0105f0f0 g     O .bss	00000004 _ZNSt5ctypeIcE2idE
01060634 g       *ABS*	00000000 end
0103fffc  w    F .text	00000010 _ZTv0_n12_NSt14basic_ifstreamIcSt11char_traitsIcEED0Ev
0103462c g     F .text	00000004 _ZN9__gnu_cxx12__atomic_addEPVii
01035bb4 g     F .text	000000b4 _ZNSt12__basic_fileIcE8sys_openEiSt13_Ios_Openmode
0105325c g     F .text	00000160 __pack_f
0103b37c g     F .text	00000030 _ZNSt15underflow_errorC2ERKSs
01034504  w    F .text	0000005c _ZNSs7replaceEmmRKSsmm
01030cc0  w    F .text	00000030 _ZNKSs2atEm
0105573c g     F .text	00000084 alt_up_char_buffer_init
010300b8  w    F .text	00000020 _ZNSt15basic_streambufIcSt11char_traitsIcEE5sgetcEv
01033444  w    F .text	00000050 _ZNSs6assignERKSsmm
01006860  w    F .text	0000000c _ZNSt9basic_iosIcSt11char_traitsIcEE3tieEPSo
0103211c  w    F .text	00000034 _ZNSsC1IPcEET_S1_RKSaIcE
0103078c  w    F .text	00000010 _ZNKSs7_M_iendEv
0105d1e9 g     O .rwdata	00000001 _ZNSt10ctype_base5alnumE
010425e4 g     F .text	00000018 _Unwind_DeleteException
0105d284 g     O .rwdata	00000004 _ZNSt10__num_base12_S_atoms_outE
01044144 g     F .text	00000024 fseek
0100d5e4  w    F .text	00000010 _ZNKSt5ctypeIcE9do_narrowEcc
01054c98 g     F .text	000000c0 altera_avalon_jtag_uart_init
0100df58  w    F .text	0000000c _ZNKSt8numpunctIcE16do_thousands_sepEv
01011a6c  w    F .text	00000150 _ZNSt11__timepunctIcEC1EPiPKcm
0103bd64  w    F .text	00000040 _ZNSt13basic_filebufIcSt11char_traitsIcEE16_M_destroy_pbackEv
010307ec  w    F .text	00000008 _ZNKSs5beginEv
01059c40  w    O .rodata	0000000c _ZTISt17moneypunct_bynameIcLb1EE
010360b4 g     F .text	00000010 _ZN10__cxxabiv121__vmi_class_type_infoD2Ev
010232c0  w    F .text	000006c4 _ZNKSt7num_putIcSt19ostreambuf_iteratorIcSt11char_traitsIcEEE15_M_insert_floatIdEES3_S3_RSt8ios_baseccT_
01058f44 g       *ABS*	00000000 __CTOR_LIST__
0105d200 g     O .rwdata	00000004 _ZNSt8ios_base8internalE
01059668  w    O .rodata	00000024 _ZTVSt15numpunct_bynameIcE
01800000 g       *ABS*	00000000 __alt_stack_pointer
010335a0  w    F .text	00000018 _ZNSs7replaceEN9__gnu_cxx17__normal_iteratorIPcSsEES2_mc
0105f184  w    O .bss	00000010 _ZNSs4_Rep20_S_empty_rep_storageE
0102ff50  w    F .text	00000004 _ZNSt15basic_streambufIcSt11char_traitsIcEE5imbueERKSt6locale
01012cd8  w    F .text	0000009c _ZNKSt10moneypunctIcLb1EE11do_groupingEv
0105566c g     F .text	00000090 alt_avalon_timer_sc_init
0103b190 g     F .text	00000008 _ZNKSt13runtime_error4whatEv
01009338  w    F .text	00000054 _ZNSi3getERSt15basic_streambufIcSt11char_traitsIcEE
01052f08 g     F .text	00000080 __clzsi2
0105d24c g     O .rwdata	00000004 _ZNSt8ios_base3ateE
0100e7bc  w    F .text	0000000c _ZNKSt8messagesIcE4openERKSsRKSt6locale
010594b0  w    O .rodata	00000040 _ZTVSt21__ctype_abstract_baseIcE
01050e78 g     F .text	000000b4 _snprintf_r
0105a830  w    O .rodata	0000000c _ZTISt13runtime_error
0100734c  w    F .text	00000018 _ZStrsIcSt11char_traitsIcEERSt13basic_istreamIT_T0_ES6_St13_Setprecision
01037798 g     F .text	0000006c _ZNK10__cxxabiv117__class_type_info11__do_upcastEPKS0_PPv
010553bc g     F .text	00000240 altera_avalon_jtag_uart_write
0103e1d8  w    F .text	000000ec _ZNSt13basic_filebufIcSt11char_traitsIcEE6setbufEPcl
0105d12c g     O .rwdata	00000004 _ZNSt6locale4noneE
0102ff6c  w    F .text	00000008 _ZNSt15basic_streambufIcSt11char_traitsIcEE9underflowEv
010239b8  w    F .text	00000f5c _ZNKSt7num_getIcSt19istreambuf_iteratorIcSt11char_traitsIcEEE14_M_extract_intItEES3_S3_S3_RSt8ios_baseRSt12_Ios_IostateRT_
01013740  w    F .text	00000018 _ZNSt15time_get_bynameIcSt19istreambuf_iteratorIcSt11char_traitsIcEEEC1EPKcm
01043230 g     F .text	00000004 __sfp_lock_acquire
0105a448  w    O .rodata	00000012 _ZTSSt13bad_exception
01059b6c  w    O .rodata	00000017 _ZTSSt15numpunct_bynameIcE
01012b04  w    F .text	0000009c _ZNKSt10moneypunctIcLb1EE16do_negative_signEv
0105f058  w    O .bss	00000004 _ZNSt8numpunctIcE2idE
0104503c g     F .text	000000e4 memchr
01049088 g     F .text	00001ec4 ___vfprintf_internal_r
0105a644  w    O .rodata	00000014 _ZTVSt12length_error
01012d74  w    F .text	00000014 _ZNKSt8messagesIcE20_M_convert_from_charEPc
01046038 g     F .text	00000060 _sprintf_r
0105d1e7 g     O .rwdata	00000001 _ZNSt10ctype_base5punctE
010439f4 g     F .text	00000314 _free_r
01059a24  w    O .rodata	00000020 _ZTISt8time_getIcSt19istreambuf_iteratorIcSt11char_traitsIcEEE
0105d214 g     O .rwdata	00000004 _ZNSt8ios_base8showbaseE
01059d2c  w    O .rodata	0000000c _ZTISt11__timepunctIcE
01059520  w    O .rodata	0000001c _ZTVSt14collate_bynameIcE
0100e7d4  w    F .text	00000040 _ZNKSt8messagesIcE3getEiiiRKSs
01023984  w    F .text	00000034 _ZNKSt7num_putIcSt19ostreambuf_iteratorIcSt11char_traitsIcEEE6do_putES3_RSt8ios_basecd
0103443c  w    F .text	0000001c _ZNSs7replaceEN9__gnu_cxx17__normal_iteratorIPcSsEES2_S2_S2_
0105d198  w    O .rwdata	00000008 _ZTISt12codecvt_base
01006858  w    F .text	00000008 _ZNKSt9basic_iosIcSt11char_traitsIcEE3tieEv
01005d5c  w    F .text	00000008 _ZN9__gnu_cxx13stdio_filebufIcSt11char_traitsIcEE4fileEv
010317c4  w    F .text	00000034 _ZNSsC1ERKSaIcE
0105d224 g     O .rwdata	00000004 _ZNSt8ios_base7unitbufE
0102fa70  w    F .text	000003b0 _ZNSolsEs
0103d5e8  w    F .text	00000050 _ZNSt14basic_ifstreamIcSt11char_traitsIcEE5closeEv
01057ce8 g     F .text	000001b0 __call_exitprocs
010459d4 g     F .text	0000004c __srget_r
01029818  w    F .text	0000003c _ZNKSt7num_getIcSt19istreambuf_iteratorIcSt11char_traitsIcEEE6do_getES3_S3_RSt8ios_baseRSt12_Ios_IostateRx
01030870  w    F .text	00000008 _ZNSs4_Rep15_M_set_sharableEv
01023288  w    F .text	00000038 _ZNKSt7num_putIcSt19ostreambuf_iteratorIcSt11char_traitsIcEEE6do_putES3_RSt8ios_basece
01005d6c  w    F .text	00000030 _ZN9__gnu_cxx13stdio_filebufIcSt11char_traitsIcEEC1Ev
0103a300 g     F .text	00000120 _ZNSt8ios_base17_M_call_callbacksENS_5eventE
01012c3c  w    F .text	0000009c _ZNKSt10moneypunctIcLb1EE14do_curr_symbolEv
0105d1b8  w    O .rwdata	00000004 _ZNSs4_Rep11_S_max_sizeE
01038410 g     F .text	000000d0 _ZNSt7codecvtIcc10_mbstate_tEC1Em
0105f140 g     O .bss	00000004 __mlocale_changed
0102bf34  w    F .text	0000004c _ZNSoD0Ev
010129cc  w    F .text	0000009c _ZNKSt8numpunctIcE11do_truenameEv
0100bcf0 g     F .text	00000484 _ZNSi7getlineEPclc
0103a204  w    F .text	00000010 _ZNSt12length_errorD1Ev
0100f954  w    F .text	00000058 _ZSt9use_facetISt8messagesIcEERKT_RKSt6locale
0105d2a4 g     O .rwdata	00000004 __malloc_sbrk_base
01038c94 g     F .text	00000094 _ZNSt5ctypeIcEC2EPiPKcbm
010001b4 g     F .text	0000003c _start
0103030c  w    F .text	00000020 _ZNSt15basic_streambufIcSt11char_traitsIcEE8in_availEv
0105a84c  w    O .rodata	0000000c _ZTISt11logic_error
01034fbc g     F .text	000000c8 _ZNSt8numpunctIcED2Ev
01030828  w    F .text	00000008 _ZNKSs4dataEv
0100e868  w    F .text	0000000c _ZNKSt7collateIcE4hashEPKcS2_
0105f178 g     O .bss	00000004 _alt_tick_rate
0105940c  w    O .rodata	00000022 _ZTSSt9basic_iosIcSt11char_traitsIcEE
010511a0 g     F .text	00000318 _strtoll_r
01035840 g     F .text	00000084 _ZNSt12__basic_fileIcE5closeEv
0105f088  w    O .bss	00000008 _ZGVNSt9money_getIcSt19istreambuf_iteratorIcSt11char_traitsIcEEE2idE
0105a338  w    O .rodata	0000000d _ZTSSt9type_info
01000ac0 g     F .text	00000034 _ZN6Player7move_upEv
010063a8  w    F .text	000001f4 _ZN9__gnu_cxx13stdio_filebufIcSt11char_traitsIcEEC1EiSt13_Ios_Openmodem
0103081c  w    F .text	0000000c _ZNKSs8capacityEv
0103076c  w    F .text	0000000c _ZNSs7_M_dataEPc
01034ef4 g     F .text	000000c8 _ZNSt8numpunctIcED1Ev
0100119c g     F .text	00000094 _ZN6PlayerC2Ev
0103b34c g     F .text	00000030 _ZNSt15underflow_errorC1ERKSs
0102b2f4  w    F .text	00000108 _ZNSoC1EPSt15basic_streambufIcSt11char_traitsIcEE
0104577c g     F .text	00000078 rand
01037b1c g     F .text	00000020 __cxa_pure_virtual
01000af4 g     F .text	00000034 _ZN6Player9move_downEv
01010dcc  w    F .text	00000010 _ZNSt15numpunct_bynameIcED2Ev
010598bc  w    O .rodata	0000000c _ZTISt16__numpunct_cacheIcE
0104fed0 g     F .text	0000014c __lshift
0103079c  w    F .text	00000018 _ZNKSs8_M_limitEmm
0105a478  w    O .rodata	00000014 _ZTVSt9bad_alloc
0102f360  w    F .text	000003a4 _ZNSolsEi
0105f17c g     O .bss	00000004 _alt_nticks
010597c8  w    O .rodata	0000001c _ZTVSt7collateIcE
01045f30 g     F .text	0000001c signal
010541b0 g     F .text	00000124 read
010334d4  w    F .text	000000cc _ZNSs14_M_replace_auxEmmmc
01013190  w    F .text	000000d0 _ZNSt10moneypunctIcLb0EEC1EPSt18__moneypunct_cacheIcLb0EEm
0102b8c0  w    F .text	000001a8 _ZNSo5tellpEv
010547f4 g     F .text	00000324 alt_sys_init
0103ee98  w    F .text	000001e8 _ZNSt14basic_ofstreamIcSt11char_traitsIcEEC1EPKcSt13_Ios_Openmode
0100e770  w    F .text	00000044 _ZNKSt8time_getIcSt19istreambuf_iteratorIcSt11char_traitsIcEEE8get_yearES3_S3_RSt8ios_baseRSt12_Ios_IostateP2tm
010325fc  w    F .text	000000fc _ZNSsC2ERKSs
01030830  w    F .text	00000008 _ZNKSs13get_allocatorEv
0105ad48  w    O .rodata	0000000c _ZTISt10bad_typeid
010453ac g     F .text	00000078 _open_r
0105d27c g     O .rwdata	00000004 _ZNSt10money_base8_S_atomsE
01057bb0 g     F .text	00000134 __register_exitproc
0105a48c  w    O .rodata	0000000d _ZTSSt9bad_alloc
0105d228 g     O .rwdata	00000004 _ZNSt8ios_base9uppercaseE
010358d4 g     F .text	00000078 _ZNSt12__basic_fileIcE9showmanycEv
010463b4 g     F .text	00000004 strcoll
0103a7c0 g     F .text	0000005c _ZNSt8ios_baseC2Ev
01001f0c g     F .text	000000f8 _ZNSt8ios_base4InitD2Ev
0105abb4  w    O .rodata	0000000c _ZTISt13basic_fstreamIcSt11char_traitsIcEE
0102ec80  w    F .text	00000378 _ZNSolsEx
0100e1c4  w    F .text	00000044 _ZNKSt7num_getIcSt19istreambuf_iteratorIcSt11char_traitsIcEEE3getES3_S3_RSt8ios_baseRSt12_Ios_IostateRd
0102d1f8  w    F .text	00000010 _ZStlsISt11char_traitsIcEERSt13basic_ostreamIcT_ES5_a
010126c0  w    F .text	0000009c _ZNKSt10moneypunctIcLb0EE16do_negative_signEv
010072d0  w    F .text	00000008 _ZNKSi6gcountEv
01030c2c  w    F .text	00000094 _ZNKSs4findEPKcmm
01030470  w    F .text	000000d8 _ZNSt15basic_streambufIcSt11char_traitsIcEE8pubimbueERKSt6locale
0100df1c  w    F .text	00000030 _ZNKSt8numpunctIcE9falsenameEv
0105acdc  w    O .rodata	00000028 _ZTCSd8_So
01033780  w    F .text	00000050 _ZNSs5eraseEN9__gnu_cxx17__normal_iteratorIPcSsEES2_
0100da04  w    F .text	00000030 _ZNKSt10moneypunctIcLb1EE13positive_signEv
01040d58  w    F .text	00000010 _ZTv0_n12_NSdD1Ev
0105f0b8  w    O .bss	00000008 _ZGVNSt8time_putIcSt19ostreambuf_iteratorIcSt11char_traitsIcEEE2idE
0102eff8  w    F .text	00000368 _ZNSolsEj
0105f080  w    O .bss	00000008 _ZGVNSt10moneypunctIcLb1EE2idE
0101b2d4  w    F .text	000009e8 _ZNKSt9money_putIcSt19ostreambuf_iteratorIcSt11char_traitsIcEEE9_M_insertILb1EEES3_S3_RSt8ios_basecRKSs
0105001c g     F .text	00000254 __multiply
01005954 g     F .text	00000020 _ZNSt6locale7classicEv
010134c8  w    F .text	00000008 _ZNKSt8messagesIcE18_M_convert_to_charERKSs
01055030 g     F .text	00000074 altera_avalon_jtag_uart_close
0105aa64  w    O .rodata	00000028 _ZTCSt13basic_fstreamIcSt11char_traitsIcEE8_So
0103be24  w    F .text	00000008 _ZNKSt14basic_ifstreamIcSt11char_traitsIcEE5rdbufEv
010423ec g     F .text	00000038 __mulsi3
0105b57c g       *ABS*	00000000 __ram_rwdata_start
0104274c g     F .text	000000f8 _Unwind_SjLj_RaiseException
01058f74 g       *ABS*	00000000 __ram_rodata_start
010313f8  w    F .text	00000060 _ZNKSs7compareERKSs
01030034  w    F .text	0000002c _ZNKSt15basic_streambufIcSt11char_traitsIcEE6getlocEv
0106027c g     O .bss	00000028 __malloc_current_mallinfo
0105f110 g     O .bss	00000008 _ZN14__gnu_internal11money_put_cE
010426f0 g     F .text	0000005c _Unwind_SjLj_Resume
010118a4  w    F .text	00000018 _ZNSt8time_putIcSt19ostreambuf_iteratorIcSt11char_traitsIcEEEC1Em
01033b1c  w    F .text	00000014 _ZNSs7_M_leakEv
0104fbc8 g     F .text	0000017c __d2b
01009740  w    F .text	00000214 _ZNSi3getERc
01010dbc  w    F .text	00000010 _ZNSt15numpunct_bynameIcED1Ev
0103fa6c  w    F .text	0000018c _ZNSt14basic_ifstreamIcSt11char_traitsIcEEC1Ev
01036b9c g     F .text	00000010 _ZNSt9type_infoD2Ev
0102fe2c  w    F .text	00000040 _ZNSt15basic_streambufIcSt11char_traitsIcEE10pubseekoffExSt12_Ios_SeekdirSt13_Ios_Openmode
010354c4 g     F .text	000000a4 _ZNKSt11__timepunctIcE6_M_putEPcmPKcPK2tm
0105d1f4 g     O .rwdata	00000004 _ZNSt8ios_base3decE
0103805c g     F .text	00000008 _ZNKSt7codecvtIcc10_mbstate_tE13do_max_lengthEv
01037954 g     F .text	00000078 _ZNK10__cxxabiv120__si_class_type_info11__do_upcastEPKNS_17__class_type_infoEPKvRNS1_15__upcast_resultE
0103b068 g     F .text	00000050 _ZNSt8ios_base7_M_initEv
0103a248  w    F .text	00000010 _ZNSt16invalid_argumentD1Ev
01000530 g     F .text	0000006c _ZN9MatrixMap8get_cordEii
010307f4  w    F .text	00000010 _ZNKSs3endEv
0102b26c  w    F .text	0000001c _ZNSoC2Ev
0105d150  w    O .rwdata	00000008 _ZTINSt6locale5facetE
0105a2e4  w    O .rodata	00000026 _ZTSN10__cxxabiv121__vmi_class_type_infoE
01008a3c  w    F .text	000001c4 _ZNSi4readEPcl
01030b18  w    F .text	0000002c _ZNSs9_M_assignEPcmc
01040154  w    F .text	00000008 _ZThn8_NSt13basic_fstreamIcSt11char_traitsIcEED0Ev
010598c8  w    O .rodata	0000001e _ZTSSt18__moneypunct_cacheIcLb1EE
01054b50 g     F .text	00000058 altera_avalon_jtag_uart_read_fd
010514b8 g     F .text	00000240 _strtoul_r
0100f860  w    F .text	000000f4 _ZSt9has_facetISt5ctypeIcEEbRKSt6locale
01042e94 g     F .text	000000a0 _fdopen_r
0105763c g     F .text	000000d0 alt_get_fd
0105f078  w    O .bss	00000008 _ZGVNSt10moneypunctIcLb0EE2idE
0100e290  w    F .text	00000030 _ZNKSt7num_putIcSt19ostreambuf_iteratorIcSt11char_traitsIcEEE3putES3_RSt8ios_basecb
01038030 g     F .text	0000001c _ZNKSt7codecvtIcc10_mbstate_tE5do_inERS0_PKcS4_RS4_PcS6_RS6_
01030e48  w    F .text	00000064 _ZNKSs5rfindEcm
0105f0a8  w    O .bss	00000008 _ZGVNSt7num_putIcSt19ostreambuf_iteratorIcSt11char_traitsIcEEE2idE
01057134 g     F .text	0000015c alt_busy_sleep
0100eaa4  w    F .text	00000034 _ZNSt8time_getIcSt19istreambuf_iteratorIcSt11char_traitsIcEEED0Ev
01053194 g     F .text	000000c8 __fpcmp_parts_d
01038fb8 g     F .text	000000d4 _ZNSt5ctypeIcED1Ev
0103a878 g     F .text	000002cc _ZNSt8ios_base13_M_grow_wordsEib
0105a564  w    O .rodata	00000014 _ZTSSt15underflow_error
01059b90  w    O .rodata	0000003c _ZTSSt9money_putIcSt19ostreambuf_iteratorIcSt11char_traitsIcEEE
01008fbc  w    F .text	0000037c _ZNSi3getERSt15basic_streambufIcSt11char_traitsIcEEc
0102acc8  w    F .text	0000005c _ZN9__gnu_cxx18stdio_sync_filebufIcSt11char_traitsIcEE8overflowEi
010312fc  w    F .text	00000010 _ZNKSs13find_first_ofEcm
0104ca10 g     F .text	00000070 _close_r
01010244  w    F .text	00000034 _ZNSt15messages_bynameIcED0Ev
0100e514  w    F .text	00000068 _ZNKSt11__timepunctIcE9_M_monthsEPPKc
01059e04  w    O .rodata	0000000f _ZTSSt10ctype_base
01010b28  w    F .text	00000078 _ZNSt18__moneypunct_cacheIcLb1EED1Ev
0105f04c  w    O .bss	00000004 _ZNSt10moneypunctIcLb1EE2idE
01001324 g     F .text	0000005c _ZN10VGA_ScreenC2Ev
0105d288  w    O .rwdata	00000003 _ZTSSd
010597e4  w    O .rodata	00000024 _ZTVSt8numpunctIcE
01006ef4  w    F .text	000000ec _ZNKSt9basic_iosIcSt11char_traitsIcEE5widenEc
0101401c  w    F .text	00000180 _ZNSt17moneypunct_bynameIcLb0EEC2EPKcm
010009f8 g     F .text	00000030 _ZN9MatrixMapC1Ev
01012a68  w    F .text	0000009c _ZNKSt8numpunctIcE11do_groupingEv
010264c0  w    F .text	00000530 _ZNKSt7num_putIcSt19ostreambuf_iteratorIcSt11char_traitsIcEEE13_M_insert_intIxEES3_S3_RSt8ios_basecT_
01010fbc  w    F .text	00000034 _ZNSt17moneypunct_bynameIcLb0EED0Ev
0100752c  w    F .text	00000074 _ZNSiC1Ev
01045120 g     F .text	00000074 memcmp
0102d7fc  w    F .text	00000008 _ZSt4endsIcSt11char_traitsIcEERSt13basic_ostreamIT_T0_ES6_
01054c00 g     F .text	00000048 altera_avalon_jtag_uart_close_fd
01060634 g       *ABS*	00000000 __alt_stack_base
0105d174  w    O .rwdata	00000001 _ZNSt10moneypunctIcLb0EE4intlE
0105f108 g     O .bss	00000008 _ZN14__gnu_internal11money_get_cE
01003ef0 g     F .text	000000e4 _ZNSt6localeD1Ev
01054c48 g     F .text	00000050 altera_avalon_jtag_uart_ioctl_fd
0105fcbc g     O .bss	00000068 _ZN14__gnu_internal16numpunct_cache_cE
0102b2dc  w    F .text	00000018 _ZStlsIcSt11char_traitsIcEERSt13basic_ostreamIT_T0_ES6_St13_Setprecision
01044468 g     F .text	000000ac _fwrite_r
010597b8  w    O .rodata	00000010 _ZTVSt17__timepunct_cacheIcE
01037e3c g     F .text	00000034 _ZNSt9bad_allocD0Ev
01042f34 g     F .text	0000001c fdopen
01038a54 g     F .text	00000044 _ZNKSt5ctypeIcE10do_toupperEc
01037a00 g     F .text	00000010 _ZN10__cxxabiv120__si_class_type_infoD1Ev
01006838  w    F .text	00000008 _ZNKSt9basic_iosIcSt11char_traitsIcEE7rdstateEv
0105f03c g     O .bss	00000004 _ZNSt6locale9_S_globalE
01046128 g     F .text	00000084 sscanf
01006d40  w    F .text	00000030 _ZNSt9basic_iosIcSt11char_traitsIcEE5rdbufEPSt15basic_streambufIcS1_E
0102ff5c  w    F .text	00000008 _ZNSt15basic_streambufIcSt11char_traitsIcEE4syncEv
0103a17c  w    F .text	00000010 _ZNSt11range_errorD1Ev
0104c8bc g     F .text	0000013c __swsetup_r
0105a5cc  w    O .rodata	00000010 _ZTSSt11range_error
01042914 g     F .text	00000058 _Unwind_SjLj_Resume_or_Rethrow
010114c4  w    F .text	000000c0 _ZNSt7collateIcEC1Em
0100dd4c  w    F .text	0000004c _ZNKSt9money_getIcSt19istreambuf_iteratorIcSt11char_traitsIcEEE3getES3_S3_bRSt8ios_baseRSt12_Ios_IostateRe
010525a8 g     F .text	00000258 __divdf3
010433dc g     F .text	000000f0 __sfp
0100da34  w    F .text	00000030 _ZNKSt10moneypunctIcLb1EE13negative_signEv
0104fa2c g     F .text	00000058 __copybits
0105a690  w    O .rodata	0000000c _ZTISt12domain_error
0105ad68  w    O .rodata	0000000c _ZTSSt8bad_cast
01036b54 g     F .text	00000008 _ZNKSt9type_info14__is_pointer_pEv
0105d1e2 g     O .rwdata	00000001 _ZNSt10ctype_base5cntrlE
01034420  w    F .text	0000001c _ZNSs7replaceEN9__gnu_cxx17__normal_iteratorIPcSsEES2_NS0_IPKcSsEES5_
01059c88  w    O .rodata	00000020 _ZTISt8messagesIcE
0105a58c  w    O .rodata	0000000c _ZTISt14overflow_error
0100ec28  w    F .text	00000010 _ZNSt7num_getIcSt19istreambuf_iteratorIcSt11char_traitsIcEEED1Ev
0105b9c0 g     O .rwdata	00000408 __malloc_av_
0101ea10  w    F .text	000009e8 _ZNKSt9money_putIcSt19ostreambuf_iteratorIcSt11char_traitsIcEEE9_M_insertILb0EEES3_S3_RSt8ios_basecRKSs
01004930 g     F .text	00000058 _ZNSt6locale5_Impl19_M_replace_categoryEPKS0_PKPKNS_2idE
0104323c g     F .text	00000004 __sinit_lock_release
010521e4 g     F .text	000003c4 __muldf3
0100737c  w    F .text	00000068 _ZStrsIcSt11char_traitsIcEERSt13basic_istreamIT_T0_ES6_St8_SetfillIS3_E
01046298 g     F .text	00000060 __sread
010024c0 g     F .text	000004bc _ZNSt8ios_base4InitC1Ev
01043888 g     F .text	00000040 fread
0105a434  w    O .rodata	00000014 _ZTVSt9exception
0105d1f0 g     O .rwdata	00000004 _ZNSt8ios_base9boolalphaE
010356e8 g     F .text	0000000c _ZNSt12__basic_fileIcEC2EPi
0105d268 g     O .rwdata	00000004 _ZNSt8ios_base3endE
0105f9c0 g     O .bss	0000000c _ZN14__gnu_internal6name_cE
01059998  w    O .rodata	00000043 _ZTSSt15time_get_bynameIcSt19istreambuf_iteratorIcSt11char_traitsIcEEE
0105751c g     F .text	00000120 alt_find_file
01034584  w    F .text	00000030 _ZNSs7replaceEN9__gnu_cxx17__normal_iteratorIPcSsEES2_RKSs
0103014c  w    F .text	00000014 _ZNSt15basic_streambufIcSt11char_traitsIcEED2Ev
010040b8 g     F .text	000000fc _ZNSt6localeaSERKS_
01037804 g     F .text	00000020 _ZNK10__cxxabiv117__class_type_info20__do_find_public_srcElPKvPKS0_S2_
01033aac  w    F .text	00000014 _ZNSs5clearEv
010572ac g     F .text	000000b4 alt_dev_llist_insert
01053e8c g     F .text	00000020 __malloc_lock
010543ac g     F .text	000000bc sbrk
010398f0 g     F .text	00000190 _ZSt20__throw_domain_errorPKc
0105d130 g     O .rwdata	00000004 _ZNSt6locale5ctypeE
01046444 g     F .text	00000014 strdup
010392b0 g     F .text	00000190 _ZSt19__throw_logic_errorPKc
0100e654  w    F .text	0000000c _ZNKSt8time_getIcSt19istreambuf_iteratorIcSt11char_traitsIcEEE10date_orderEv
0105a348  w    O .rodata	0000002c _ZTVN10__cxxabiv117__class_type_infoE
01035f9c g     F .text	00000074 __cxa_throw
0102a9b8  w    F .text	0000012c _ZSt16__convert_from_vIdEiPciPKcT_RKPii
01042f50 g     F .text	000001fc _fflush_r
010424a8 g     F .text	00000010 _Unwind_SetIP
01031200  w    F .text	00000088 _ZNKSs13find_first_ofEPKcmm
0100d6dc  w    F .text	00000030 _ZNKSt10moneypunctIcLb0EE13negative_signEv
01051a0c g     F .text	000000c8 _calloc_r
0101f85c  w    F .text	000008ec _ZNSt16__numpunct_cacheIcE8_M_cacheERKSt6locale
0102ac54  w    F .text	00000074 _ZN9__gnu_cxx18stdio_sync_filebufIcSt11char_traitsIcEE6xsgetnEPcl
01038e48 g     F .text	00000094 _ZNSt5ctypeIcEC1EPiPKcbm
01034a24 g     F .text	000000c8 _ZNSt10moneypunctIcLb1EED1Ev
01027754  w    F .text	00000ff0 _ZNKSt7num_getIcSt19istreambuf_iteratorIcSt11char_traitsIcEEE14_M_extract_intIyEES3_S3_S3_RSt8ios_baseRSt12_Ios_IostateRT_
0105a624  w    O .rodata	0000000c _ZTISt12length_error
01030eac  w    F .text	00000010 _ZNKSs12find_last_ofEcm
01006840  w    F .text	00000010 _ZNKSt9basic_iosIcSt11char_traitsIcEE4failEv
01007300  w    F .text	00000024 _ZStrsIcSt11char_traitsIcEERSt13basic_istreamIT_T0_ES6_St12_Setiosflags
01048d94 g     F .text	00000004 __tz_lock
01030864  w    F .text	0000000c _ZNSs4_Rep13_M_set_leakedEv
01007020  w    F .text	0000005c _ZNSt9basic_iosIcSt11char_traitsIcEE4fillEc
01053700 g     F .text	0000021c gettimeofday
01039a80 g     F .text	00000190 _ZSt19__throw_range_errorPKc
0103229c  w    F .text	00000034 _ZNSsC2EPKcmRKSaIcE
0103b68c g     F .text	00000030 _ZNSt16invalid_argumentC1ERKSs
01043660 g     F .text	0000001c fopen
01034aec g     F .text	000000c8 _ZNSt10moneypunctIcLb1EED2Ev
0105f034 g       *ABS*	00000000 __bss_start
01031288  w    F .text	0000000c _ZNKSs13find_first_ofERKSsm
01006964  w    F .text	0000004c _ZNSt9basic_iosIcSt11char_traitsIcEEC1Ev
0105fd68 g     O .bss	00000044 _ZN14__gnu_internal19moneypunct_cache_cfE
0105d248 g     O .rwdata	00000004 _ZNSt8ios_base3appE
01010648  w    F .text	00000110 _ZNSt11__timepunctIcED0Ev
010595ac  w    O .rodata	00000028 _ZTVSt8time_getIcSt19istreambuf_iteratorIcSt11char_traitsIcEEE
01002cac g     F .text	00000010 _ZNSt6locale5facetD2Ev
01031a44  w    F .text	000000a0 _ZNKSs7compareEmmRKSs
01045314 g     F .text	00000098 memset
0102ff7c  w    F .text	00000020 _ZNSt15basic_streambufIcSt11char_traitsIcEE7seekoffExSt12_Ios_SeekdirSt13_Ios_Openmode
0105fa04 g     O .bss	00000038 _ZN14__gnu_internal9cache_vecE
01030878  w    F .text	00000014 _ZNSs4_Rep26_M_set_length_and_sharableEm
010307d0  w    F .text	0000000c _ZNSs12_S_empty_repEv
01001c78 g     F .text	0000019c main
0105a81c  w    O .rodata	00000012 _ZTSSt13runtime_error
0101449c  w    F .text	000007a0 _ZNKSt8time_getIcSt19istreambuf_iteratorIcSt11char_traitsIcEEE15_M_extract_nameES3_S3_RiPPKcmRSt8ios_baseRSt12_Ios_Iostate
0100fe90  w    F .text	000000bc _ZNSt7collateIcED1Ev
0103d548  w    F .text	00000050 _ZNSt13basic_fstreamIcSt11char_traitsIcEE5closeEv
0102b2b4  w    F .text	00000028 _ZStlsIcSt11char_traitsIcEERSt13basic_ostreamIT_T0_ES6_St14_Resetiosflags
0100ecd0  w    F .text	00000010 _ZNSt9money_getIcSt19istreambuf_iteratorIcSt11char_traitsIcEEED1Ev
0100e2c0  w    F .text	00000030 _ZNKSt7num_putIcSt19ostreambuf_iteratorIcSt11char_traitsIcEEE3putES3_RSt8ios_basecl
0103466c g     F .text	0000002c _ZNKSt8messagesIcE6do_getEiiiRKSs
01010008  w    F .text	000000c4 _ZNSt8messagesIcED0Ev
0102ff08  w    F .text	00000010 _ZNSt15basic_streambufIcSt11char_traitsIcEE4setgEPcS3_S3_
0105d1fc g     O .rwdata	00000004 _ZNSt8ios_base3hexE
01059914  w    O .rodata	0000000c _ZTISt18__moneypunct_cacheIcLb0EE
0105f174 g     O .bss	00000004 alt_envp
01059f60  w    O .rodata	00000029 _ZTSSt15basic_streambufIcSt11char_traitsIcEE
0105f150 g     O .bss	00000004 __malloc_max_total_mem
0102ff74  w    F .text	00000008 _ZNSt15basic_streambufIcSt11char_traitsIcEEaSERKS2_
01055c84 g     F .text	00000058 alt_up_pixel_buffer_dma_swap_buffers
0105ad24  w    O .rodata	00000014 _ZTVSt10bad_typeid
0102ff28  w    F .text	00000008 _ZNKSt15basic_streambufIcSt11char_traitsIcEE5epptrEv
0100dc18  w    F .text	0000000c _ZNKSt10moneypunctIcLb1EE14do_frac_digitsEv
010557c0 g     F .text	00000040 alt_up_char_buffer_open_dev
0105953c  w    O .rodata	0000002c _ZTVSt14codecvt_bynameIcc10_mbstate_tE
01054ba8 g     F .text	00000058 altera_avalon_jtag_uart_write_fd
0102aeb8  w    F .text	00000038 _ZN9__gnu_cxx18stdio_sync_filebufIcSt11char_traitsIcEED0Ev
010442d4 g     F .text	00000014 ftell
0105ac98  w    O .rodata	0000001c _ZTTSd
0103f090  w    F .text	00000130 _ZNSt14basic_ofstreamIcSt11char_traitsIcEED0Ev
0104c828 g     F .text	0000001c __swbuf
01045760 g     F .text	0000001c srand
0105fd24 g     O .bss	00000044 _ZN14__gnu_internal19moneypunct_cache_ctE
01006fe0  w    F .text	00000040 _ZNKSt9basic_iosIcSt11char_traitsIcEE4fillEv
01039174 g     F .text	00000034 _ZSt21__throw_bad_exceptionv
01037b3c g     F .text	00000008 __cxa_get_globals_fast
01048cd0 g     F .text	00000068 strxfrm
01002be4 g     F .text	000000a8 _ZNSt6locale21_S_normalize_categoryEi
01051c68 g     F .text	00000078 __ltsf2
0102bbf4  w    F .text	00000004 _ZSt5flushIcSt11char_traitsIcEERSt13basic_ostreamIT_T0_ES6_
0104367c g     F .text	0000020c _fread_r
010358c8 g     F .text	00000004 _ZNSt12__basic_fileIcED2Ev
01000b78 g     F .text	00000028 _ZN6Player14get_old_x_cordEv
01059510  w    O .rodata	00000010 _ZTVSt18__moneypunct_cacheIcLb0EE
0105a748  w    O .rodata	00000016 _ZTSNSt8ios_base7failureE
0105d170  w    O .rwdata	00000003 _ZTSSi
0100a6ec  w    F .text	000001f0 _ZNSirsERx
01038edc g     F .text	000000dc _ZNSt5ctypeIcED0Ev
0105ad54  w    O .rodata	00000014 _ZTVSt8bad_cast
010461ac g     F .text	00000008 __sclose
01036b50 g     F .text	00000004 _ZdaPv
01800000 g       *ABS*	00000000 __alt_heap_limit
010347c4 g     F .text	000000c8 _ZNSt10moneypunctIcLb0EED1Ev
01011224  w    F .text	00000110 _ZSt13__int_to_charIcmEiPT_T0_PKS0_St13_Ios_Fmtflagsb
01010278  w    F .text	00000010 _ZNSt15messages_bynameIcED1Ev
0100d9a4  w    F .text	00000030 _ZNKSt10moneypunctIcLb1EE8groupingEv
01042e80 g     F .text	00000014 fclose
01050f2c g     F .text	00000250 _strtol_r
01052d00 g     F .text	00000074 __truncdfsf2
01008240  w    F .text	00000004 _ZStrsISt11char_traitsIcEERSt13basic_istreamIcT_ES5_Ra
0102ab48  w    F .text	00000014 _ZN9__gnu_cxx18stdio_sync_filebufIcSt11char_traitsIcEED1Ev
01001458 g     F .text	00000190 _ZN10VGA_Screen12draw_patternEP27alt_up_pixel_buffer_dma_deviii
01059b18  w    O .rodata	0000000c _ZTISt7num_putIcSt19ostreambuf_iteratorIcSt11char_traitsIcEEE
010604a4 g     O .bss	00000190 _atexit0
0103a1c0  w    F .text	00000010 _ZNSt12out_of_rangeD1Ev
0103a420 g     F .text	000000a0 _ZNSt8ios_base6xallocEv
0101259c  w    F .text	00000054 _ZNSt18__moneypunct_cacheIcLb0EEC2Em
0103fc08  w    F .text	00000130 _ZNSt14basic_ifstreamIcSt11char_traitsIcEED1Ev
01016964  w    F .text	000000c0 _ZNSt14collate_bynameIcED2Ev
0104ccc4 g     F .text	000015b4 _dtoa_r
010448fc g     F .text	00000740 _malloc_r
01032234  w    F .text	00000034 _ZNSsC2IPKcEET_S2_RKSaIcE
01002ccc g     F .text	00000030 _ZNSt6locale5facet15_S_get_c_localeEv
01048d38 g     F .text	0000005c time
01010c98  w    F .text	00000078 _ZNSt18__moneypunct_cacheIcLb0EED1Ev
0100df4c  w    F .text	0000000c _ZNKSt8numpunctIcE16do_decimal_pointEv
010317f8  w    F .text	00000034 _ZNSsC2ERKSaIcE
0105f9a8 g     O .bss	00000018 _ZN14__gnu_internal8name_vecE
0105d2c4 g     O .rwdata	00000004 alt_errno
01034474  w    F .text	0000001c _ZNSs7replaceEN9__gnu_cxx17__normal_iteratorIPcSsEES2_S1_S1_
0102ab38  w    F .text	00000010 _ZN9__gnu_cxx18stdio_sync_filebufIcSt11char_traitsIcEE6xsputnEPKcl
01006850  w    F .text	00000008 _ZNKSt9basic_iosIcSt11char_traitsIcEE10exceptionsEv
0103b3dc g     F .text	00000030 _ZNSt14overflow_errorC2ERKSs
0103a148  w    F .text	00000034 _ZNSt11range_errorD0Ev
01059c6c  w    O .rodata	0000000c _ZTISt17moneypunct_bynameIcLb0EE
01013b58  w    F .text	00000034 _ZNSt15time_get_bynameIcSt19istreambuf_iteratorIcSt11char_traitsIcEEED0Ev
01048d9c g     F .text	000000dc __submore
01045db8 g     F .text	00000010 _init_signal
0102ae48  w    F .text	00000070 _ZN9__gnu_cxx18stdio_sync_filebufIcSt11char_traitsIcEEC1EP7__sFILE
0105a4f0  w    O .rodata	0000000c _ZTISt7codecvtIcc10_mbstate_tE
0105a398  w    O .rodata	0000000c _ZTIN10__cxxabiv117__class_type_infoE
010443b0 g     F .text	000000b8 _fwalk
01026490  w    F .text	00000030 _ZNKSt7num_putIcSt19ostreambuf_iteratorIcSt11char_traitsIcEEE6do_putES3_RSt8ios_basecy
01038064 g     F .text	00000038 _ZNKSt7codecvtIcc10_mbstate_tE9do_lengthERS0_PKcS4_m
010596a4  w    O .rodata	00000018 _ZTVSt9money_getIcSt19istreambuf_iteratorIcSt11char_traitsIcEEE
0100e72c  w    F .text	00000044 _ZNKSt8time_getIcSt19istreambuf_iteratorIcSt11char_traitsIcEEE13get_monthnameES3_S3_RSt8ios_baseRSt12_Ios_IostateP2tm
0104f54c g     F .text	00000040 _mbtowc_r
01031110  w    F .text	000000e4 _ZNKSs12find_last_ofEPKcmm
01037e10 g     F .text	00000010 _ZNSt13bad_exceptionD1Ev
01000ba0 g     F .text	00000028 _ZN6Player14get_old_y_cordEv
0102b4ac  w    F .text	00000070 _ZNSoC1Ev
01059368  w    O .rodata	00000040 _ZTVN9__gnu_cxx13stdio_filebufIcSt11char_traitsIcEEE
0104549c g     F .text	00000104 putc
01010c18  w    F .text	00000080 _ZNSt18__moneypunct_cacheIcLb0EED0Ev
0104231c g     F .text	00000060 __divsi3
0100fbbc  w    F .text	00000058 _ZSt9use_facetISt10moneypunctIcLb1EEERKT_RKSt6locale
0103eba0  w    F .text	00000150 _ZNSt14basic_ifstreamIcSt11char_traitsIcEEC2Ev
0100b4d4  w    F .text	000001f0 _ZNSirsERb
01000250 g     F .text	0000002c _ZN4Bomb8isActiveEv
01040334  w    F .text	000001b8 _ZNSt13basic_fstreamIcSt11char_traitsIcEED1Ev
0105b484 g     O .rodata	00000014 __thenan_df
010438c8 g     F .text	0000012c _malloc_trim_r
0100d94c  w    F .text	0000002c _ZNKSt10moneypunctIcLb1EE13decimal_pointEv
0105f994 g     O .bss	00000014 _ZN14__gnu_internal13c_locale_implE
0105a538  w    O .rodata	00000020 _ZTISt5ctypeIcE
01058f64 g       *ABS*	00000000 __CTOR_END__
01006a94  w    F .text	00000034 _ZNSt9basic_iosIcSt11char_traitsIcEED0Ev
0102bf08  w    F .text	0000001c _ZNSoD2Ev
0100d620  w    F .text	0000002c _ZNKSt10moneypunctIcLb0EE13thousands_sepEv
01006cac  w    F .text	0000000c _ZNKSt9basic_iosIcSt11char_traitsIcEE3badEv
01032d74  w    F .text	000000bc _ZNSs6appendERKSs
01032998  w    F .text	00000088 _ZNSs9push_backEc
010462f8 g     F .text	000000bc strcmp
01059a44  w    O .rodata	00000043 _ZTSSt15time_put_bynameIcSt19ostreambuf_iteratorIcSt11char_traitsIcEEE
01031d0c  w    F .text	00000020 _ZNSs13_S_copy_charsEPcPKcS1_
0100e390  w    F .text	00000038 _ZNKSt7num_putIcSt19ostreambuf_iteratorIcSt11char_traitsIcEEE3putES3_RSt8ios_basecd
0105d208 g     O .rwdata	00000004 _ZNSt8ios_base3octE
010351ac g     F .text	00000318 _ZNSt11__timepunctIcE23_M_initialize_timepunctEPi
0106001c g     O .bss	0000008c _ZSt4clog
01058f74 g       *ABS*	00000000 __flash_rodata_start
0101205c  w    F .text	00000018 _ZNSt7num_putIcSt19ostreambuf_iteratorIcSt11char_traitsIcEEEC1Em
01038698 g     F .text	000003b0 _ZNSi6ignoreEl
0103adf0 g     F .text	00000104 _ZNSt8ios_base7failureD2Ev
01058f64 g       *ABS*	00000000 __DTOR_LIST__
010404ec  w    F .text	00000190 _ZNSt13basic_fstreamIcSt11char_traitsIcEED2Ev
0103ac50 g     F .text	000000d0 _ZNSt8ios_base7failureC1ERKSs
0100f76c  w    F .text	000000f4 _ZSt9has_facetISt7codecvtIcc10_mbstate_tEEbRKSt6locale
0103032c  w    F .text	00000030 _ZNSt15basic_streambufIcSt11char_traitsIcEE7seekposESt4fposI10_mbstate_tESt13_Ios_Openmode
01007730  w    F .text	000001c4 _ZNSi5seekgExSt12_Ios_Seekdir
01013b04  w    F .text	00000010 _ZNSt15time_put_bynameIcSt19ostreambuf_iteratorIcSt11char_traitsIcEEED2Ev
0100ec7c  w    F .text	00000010 _ZNSt9money_putIcSt19ostreambuf_iteratorIcSt11char_traitsIcEEED1Ev
0100f0c0  w    F .text	000000f4 _ZSt9has_facetISt9money_getIcSt19istreambuf_iteratorIcSt11char_traitsIcEEEEbRKSt6locale
0105d1e3 g     O .rwdata	00000001 _ZNSt10ctype_base5upperE
01032304  w    F .text	00000060 _ZNSsC1EPKcRKSaIcE
0103d718  w    F .text	000000d8 _ZNSt13basic_filebufIcSt11char_traitsIcEED1Ev
01013330  w    F .text	000000c8 _ZNSt10moneypunctIcLb0EEC1Em
01052888 g     F .text	00000088 __nedf2
01041414 g     F .text	00000010 _ZNSt8bad_castD2Ev
0103b5cc g     F .text	00000030 _ZNSt12out_of_rangeC1ERKSs
0105f064  w    O .bss	00000004 _ZNSt11__timepunctIcE2idE
010547c0 g     F .text	00000034 alt_irq_init
0103a518 g     F .text	000000e8 _ZNSt8ios_baseD0Ev
01013bac  w    F .text	00000178 _ZNSt15numpunct_bynameIcEC1EPKcm
01031d4c  w    F .text	000000c4 _ZNSs12_S_constructIPcEES0_T_S1_RKSaIcESt20forward_iterator_tag
01054334 g     F .text	00000078 alt_release_fd
010379cc g     F .text	00000034 _ZN10__cxxabiv120__si_class_type_infoD0Ev
01033a00  w    F .text	00000050 _ZNSs6insertEmPKc
0101f3f8  w    F .text	0000009c _ZNKSt9money_putIcSt19ostreambuf_iteratorIcSt11char_traitsIcEEE6do_putES3_bRSt8ios_basecRKSs
01010638  w    F .text	00000010 _ZNSt12ctype_bynameIcED2Ev
0101c790  w    F .text	00001cc8 _ZNKSt9money_getIcSt19istreambuf_iteratorIcSt11char_traitsIcEEE10_M_extractILb0EEES3_S3_S3_RSt8ios_baseRSt12_Ios_IostateRSs
01007364  w    F .text	00000018 _ZStrsIcSt11char_traitsIcEERSt13basic_istreamIT_T0_ES6_St5_Setw
01059ed4  w    O .rodata	0000000c _ZTIN9__gnu_cxx18stdio_sync_filebufIcSt11char_traitsIcEEE
0103035c  w    F .text	0000003c _ZNSt15basic_streambufIcSt11char_traitsIcEE5sputcEc
0105ac50  w    O .rodata	0000000c _ZTISt13basic_filebufIcSt11char_traitsIcEE
01045fc4 g     F .text	00000074 sprintf
01011d0c  w    F .text	000000d8 _ZNSt11__timepunctIcEC1EPSt17__timepunct_cacheIcEm
0105ad80 g     O .rodata	00000100 __clz_tab
0103bb18 g     F .text	00000104 _ZNSt11logic_errorD2Ev
0100ece0  w    F .text	00000010 _ZNSt9money_getIcSt19istreambuf_iteratorIcSt11char_traitsIcEEED2Ev
010120bc  w    F .text	00000040 _ZNSt16__numpunct_cacheIcEC2Em
01007ae4  w    F .text	000001a8 _ZNSi5tellgEv
01033ac0  w    F .text	0000005c _ZNSs12_M_leak_hardEv
0105f144 g     O .bss	00000004 _PathLocale
01012f28  w    F .text	000000c8 _ZNSt10moneypunctIcLb1EEC1Em
01005ccc  w    F .text	00000090 _ZN9__gnu_cxx4ropeIcSaIcEE8_S_fetchEPNS_13_Rope_RopeRepIcS1_EEm
010596bc  w    O .rodata	00000034 _ZTVSt17moneypunct_bynameIcLb1EE
01059740  w    O .rodata	00000034 _ZTVSt10moneypunctIcLb0EE
01022bc4  w    F .text	000006c4 _ZNKSt7num_putIcSt19ostreambuf_iteratorIcSt11char_traitsIcEEE15_M_insert_floatIeEES3_S3_RSt8ios_baseccT_
0105a83c  w    O .rodata	00000010 _ZTSSt11logic_error
0103b198 g     F .text	00000104 _ZNSt11logic_errorD1Ev
01048b90 g     F .text	00000124 strtof
01024914  w    F .text	0000003c _ZNKSt7num_getIcSt19istreambuf_iteratorIcSt11char_traitsIcEEE6do_getES3_S3_RSt8ios_baseRSt12_Ios_IostateRt
0101188c  w    F .text	00000018 _ZNSt8time_getIcSt19istreambuf_iteratorIcSt11char_traitsIcEEEC1Em
01057b64 g     F .text	00000014 atexit
01003fd4 g     F .text	000000e4 _ZNSt6localeD2Ev
0105a5c0  w    O .rodata	0000000c _ZTISt11range_error
0102b204  w    F .text	00000034 _ZNSolsEPFRSt9basic_iosIcSt11char_traitsIcEES3_E
0100de64  w    F .text	0000002c _ZNKSt8numpunctIcE13decimal_pointEv
0103b40c g     F .text	00000030 _ZNSt11range_errorC1ERKSs
0104c844 g     F .text	00000078 _write_r
01059a88  w    O .rodata	0000000c _ZTISt15time_put_bynameIcSt19ostreambuf_iteratorIcSt11char_traitsIcEEE
01014c3c  w    F .text	00000328 _ZNKSt8time_getIcSt19istreambuf_iteratorIcSt11char_traitsIcEEE14_M_extract_numES3_S3_RiiimRSt8ios_baseRSt12_Ios_Iostate
0102a850  w    F .text	0000003c _ZNKSt7num_getIcSt19istreambuf_iteratorIcSt11char_traitsIcEEE6do_getES3_S3_RSt8ios_baseRSt12_Ios_IostateRm
0104121c  w    F .text	00000010 _ZTv0_n12_NSdD0Ev
0103a18c  w    F .text	00000034 _ZNSt12out_of_rangeD0Ev
01044724 g     F .text	0000001c setlocale
0105fe74 g     O .bss	00000090 _ZSt3cin
01059b24  w    O .rodata	0000003a _ZTSSt7num_getIcSt19istreambuf_iteratorIcSt11char_traitsIcEEE
01007460  w    F .text	00000030 _ZNSiD1Ev
010072d8  w    F .text	00000020 _ZNSiC2Ev
010424dc g     F .text	00000008 _Unwind_GetTextRelBase
01059e9c  w    O .rodata	00000036 _ZTSN9__gnu_cxx18stdio_sync_filebufIcSt11char_traitsIcEEE
0105a2b8  w    O .rodata	0000002c _ZTVN10__cxxabiv121__vmi_class_type_infoE
010103ac  w    F .text	00000124 _ZNSt14codecvt_bynameIcc10_mbstate_tEC1EPKcm
01037d58 g     F .text	00000044 __cxa_call_terminate
0100e208  w    F .text	00000044 _ZNKSt7num_getIcSt19istreambuf_iteratorIcSt11char_traitsIcEEE3getES3_S3_RSt8ios_baseRSt12_Ios_IostateRe
0105d134 g     O .rwdata	00000004 _ZNSt6locale7numericE
0105d230 g     O .rwdata	00000004 _ZNSt8ios_base9basefieldE
010130c0  w    F .text	000000d0 _ZNSt10moneypunctIcLb0EEC2EPiPKcm
0100fab4  w    F .text	00000058 _ZSt9use_facetISt9money_getIcSt19istreambuf_iteratorIcSt11char_traitsIcEEEERKT_RKSt6locale
01050db4 g     F .text	00000008 nanf
0105d290 g     O .rwdata	00000004 _impure_ptr
0102b65c  w    F .text	00000074 _ZNSo8_M_writeEPKcl
01000b50 g     F .text	00000028 _ZN6Player10get_y_cordEv
0105f16c g     O .bss	00000004 alt_argc
01000a28 g     F .text	00000030 _ZN9MatrixMapC2Ev
0104f48c g     F .text	00000080 _mbrtowc_r
0105d144 g     O .rwdata	00000004 _ZNSt6locale8messagesE
01057424 g     F .text	00000064 _do_dtors
01059e24  w    O .rodata	00000012 _ZTSSt13messages_base
0105d168  w    O .rwdata	00000008 _ZTTSi
0105fdac g     O .bss	000000c8 _ZN14__gnu_internal17timepunct_cache_cE
0102ffe8  w    F .text	0000004c _ZNSt15basic_streambufIcSt11char_traitsIcEEC2ERKS2_
01038b80 g     F .text	000000d4 _ZNSt5ctypeIcED2Ev
0100fd1c  w    F .text	00000058 _ZSt9use_facetISt7collateIcEERKT_RKSt6locale
01059b60  w    O .rodata	0000000c _ZTISt7num_getIcSt19istreambuf_iteratorIcSt11char_traitsIcEEE
01043d08 g     F .text	0000043c _fseek_r
0102aaec  w    F .text	0000004c _ZN9__gnu_cxx18stdio_sync_filebufIcSt11char_traitsIcEE7seekposESt4fposI10_mbstate_tESt13_Ios_Openmode
01059d54  w    O .rodata	0000000c _ZTISt17__timepunct_cacheIcE
010457f4 g     F .text	000001c4 __srefill_r
0100f39c  w    F .text	000000f4 _ZSt9has_facetISt7num_getIcSt19istreambuf_iteratorIcSt11char_traitsIcEEEEbRKSt6locale
010167dc  w    F .text	000000c8 _ZNSt14collate_bynameIcED0Ev
01033eac  w    F .text	00000114 _ZStplIcSt11char_traitsIcESaIcEESbIT_T0_T1_ERKS6_S8_
0105d244 g     O .rwdata	00000004 _ZNSt8ios_base7goodbitE
01034cec g     F .text	00000138 _ZNSt10moneypunctIcLb1EE24_M_initialize_moneypunctEPiPKc
0100f678  w    F .text	000000f4 _ZSt9has_facetISt7collateIcEEbRKSt6locale
01000020 g       .exceptions	00000000 alt_irq_entry
01001e14 g     F .text	000000f8 _ZNSt8ios_base4InitD1Ev
01030aec  w    F .text	0000002c _ZNKSs8_M_checkEmPKc
01031574  w    F .text	00000050 _ZNKSs17find_first_not_ofEPKcm
01059270 g     O .rodata	00000010 _ZNSt6locale5_Impl10_S_id_timeE
010125f0  w    F .text	000000d0 _ZNSt10moneypunctIcLb1EEC2EPiPKcm
0105d254 g     O .rwdata	00000004 _ZNSt8ios_base2inE
01030cf0  w    F .text	00000010 _ZNKSs5emptyEv
010269f0  w    F .text	00000030 _ZNKSt7num_putIcSt19ostreambuf_iteratorIcSt11char_traitsIcEEE6do_putES3_RSt8ios_basecx
0104f748 g     F .text	00000080 __ulp
01050c84 g     F .text	00000040 __isinfd
010424cc g     F .text	00000008 _Unwind_FindEnclosingFunction
010309e0  w    F .text	00000010 _ZN9__gnu_cxxeqIPcSsEEbRKNS_17__normal_iteratorIT_T0_EES7_
010432f4 g     F .text	00000018 __fp_unlock_all
010013c4 g     F .text	00000094 _ZN10VGA_Screen12paint_screenEP27alt_up_pixel_buffer_dma_devi
01007450  w    F .text	00000010 _ZTv0_n12_NSiD1Ev
010001f0 g     F .text	00000030 _ZN4BombC2Ev
01059bcc  w    O .rodata	0000000c _ZTISt9money_putIcSt19ostreambuf_iteratorIcSt11char_traitsIcEEE
0105a4fc  w    O .rodata	00000030 _ZTVSt5ctypeIcE
010368c0 g     F .text	000000a0 _Znam
01033820  w    F .text	0000006c _ZNSs5eraseEmm
0100e478  w    F .text	00000004 _ZNKSt11__timepunctIcE15_M_am_pm_formatEPKc
0100dfe8  w    F .text	00000044 _ZNKSt7num_getIcSt19istreambuf_iteratorIcSt11char_traitsIcEEE3getES3_S3_RSt8ios_baseRSt12_Ios_IostateRl
0105d2b0 g     O .rwdata	00000008 alt_fs_list
01030e1c  w    F .text	0000000c _ZNKSs5rfindERKSsm
01041028  w    F .text	00000060 _ZNSdC2Ev
01007eac  w    F .text	000001c0 _ZNSi6sentryC1ERSib
01032030  w    F .text	000000ec _ZNSsC2ERKSsmm
010313ec  w    F .text	0000000c _ZNKSs16find_last_not_ofERKSsm
0100e874  w    F .text	0000002c _ZNKSt7collateIcE7do_hashEPKcS2_
0100f490  w    F .text	000000f4 _ZSt9has_facetISt7num_putIcSt19ostreambuf_iteratorIcSt11char_traitsIcEEEEbRKSt6locale
01003918 g     F .text	000002ec _ZNSt6locale5_ImplC1ERKS0_m
01059f20  w    O .rodata	00000040 _ZTVSt15basic_streambufIcSt11char_traitsIcEE
0100dc00  w    F .text	0000000c _ZNKSt10moneypunctIcLb1EE16do_decimal_pointEv
0100e9bc  w    F .text	00000030 _ZNKSt5ctypeIcE9do_narrowEPKcS2_cPc
010424b8 g     F .text	0000000c _Unwind_GetLanguageSpecificData
010599dc  w    O .rodata	0000000c _ZTISt15time_get_bynameIcSt19istreambuf_iteratorIcSt11char_traitsIcEEE
01012d88  w    F .text	000000d0 _ZNSt10moneypunctIcLb1EEC1EPSt18__moneypunct_cacheIcLb1EEm
0103a214  w    F .text	00000034 _ZNSt16invalid_argumentD0Ev
0105f068  w    O .bss	00000004 _ZNSt8time_putIcSt19ostreambuf_iteratorIcSt11char_traitsIcEEE2idE
0102adc0  w    F .text	00000058 _ZN9__gnu_cxx18stdio_sync_filebufIcSt11char_traitsIcEE9pbackfailEi
01038054 g     F .text	00000008 _ZNKSt7codecvtIcc10_mbstate_tE16do_always_noconvEv
010301e8  w    F .text	00000048 _ZNSt15basic_streambufIcSt11char_traitsIcEE9sputbackcEc
010015e8 g     F .text	000000cc _ZN10VGA_Screen10draw_boxesEP27alt_up_pixel_buffer_dma_deviiiii
0103a6e0 g     F .text	000000e0 _ZNSt8ios_baseD2Ev
01036a2c g     F .text	00000118 __cxa_begin_catch
01013b8c  w    F .text	00000010 _ZNSt15time_get_bynameIcSt19istreambuf_iteratorIcSt11char_traitsIcEEED1Ev
0105f164 g     O .bss	00000008 alt_resettime
0105f054  w    O .bss	00000004 _ZNSt9money_putIcSt19ostreambuf_iteratorIcSt11char_traitsIcEEE2idE
0105f158 g     O .bss	00000004 _timezone
01037868 g     F .text	00000010 _ZN10__cxxabiv117__class_type_infoD2Ev
0105d14c g     O .rwdata	00000002 _ZNSt6locale5facet9_S_c_nameE
01037c30 g     F .text	00000010 _ZN10__cxxabiv112__unexpectedEPFvvE
0100d67c  w    F .text	00000030 _ZNKSt10moneypunctIcLb0EE11curr_symbolEv
01006d70  w    F .text	0000000c _ZNSt9basic_iosIcSt11char_traitsIcEE10exceptionsESt12_Ios_Iostate
0103f47c  w    F .text	000001c0 _ZNSt14basic_ofstreamIcSt11char_traitsIcEEC2EPKcSt13_Ios_Openmode
0105a630  w    O .rodata	00000011 _ZTSSt12length_error
0100e460  w    F .text	00000018 _ZNKSt11__timepunctIcE20_M_date_time_formatsEPPKc
010409d0  w    F .text	00000338 _ZNSt13basic_fstreamIcSt11char_traitsIcEEC2EPKcSt13_Ios_Openmode
01000020 g       *ABS*	00000000 __ram_exceptions_start
0104664c g     F .text	00000ebc strftime
01044690 g     F .text	00000010 localeconv
01015a58  w    F .text	000006b4 _ZNKSt8time_getIcSt19istreambuf_iteratorIcSt11char_traitsIcEEE14do_get_weekdayES3_S3_RSt8ios_baseRSt12_Ios_IostateP2tm
0102ce38  w    F .text	00000004 _ZStlsISt11char_traitsIcEERSt13basic_ostreamIcT_ES5_PKa
0103910c g     F .text	00000034 _ZSt16__throw_bad_castv
01020148  w    F .text	00000f60 _ZNKSt7num_getIcSt19istreambuf_iteratorIcSt11char_traitsIcEEE14_M_extract_intIjEES3_S3_S3_RSt8ios_baseRSt12_Ios_IostateRT_
0100deec  w    F .text	00000030 _ZNKSt8numpunctIcE8truenameEv
01001230 g     F .text	00000050 _ZN10VGA_Screen16init_char_bufferEv
0105abc0  w    O .rodata	00000028 _ZTSSt14basic_ofstreamIcSt11char_traitsIcEE
01037ddc g     F .text	00000034 _ZNSt13bad_exceptionD0Ev
0103d598  w    F .text	00000050 _ZNSt14basic_ofstreamIcSt11char_traitsIcEE5closeEv
0105d1c4 g     O .rwdata	00000004 _ZN10__cxxabiv119__terminate_handlerE
0102bd08  w    F .text	000001c4 _ZNSo5seekpExSt12_Ios_Seekdir
01010758  w    F .text	00000108 _ZNSt11__timepunctIcED1Ev
01059834  w    O .rodata	00000030 _ZTVSt12ctype_bynameIcE
0105a578  w    O .rodata	00000014 _ZTVSt15underflow_error
0103c150  w    F .text	000001c0 _ZNSt13basic_filebufIcSt11char_traitsIcEE22_M_convert_to_externalEPcl
0105d140 g     O .rwdata	00000004 _ZNSt6locale8monetaryE
01036404 g     F .text	000004bc _ZNK10__cxxabiv121__vmi_class_type_info12__do_dyncastElNS_17__class_type_info10__sub_kindEPKS1_PKvS4_S6_RNS1_16__dyncast_resultE
0100de90  w    F .text	0000002c _ZNKSt8numpunctIcE13thousands_sepEv
01038c54 g     F .text	00000040 _ZSt9use_facetISt5ctypeIcEERKT_RKSt6locale
01057728 g     F .text	00000050 alt_ic_isr_register
0105f128 g     O .bss	00000004 _ZNSt8ios_base4Init11_S_refcountE
0102b288  w    F .text	00000008 _ZNKSo6sentrycvbEv
01037ed0 g     F .text	00000134 __cxa_allocate_exception
0105d158 g     O .rwdata	00000008 _ZNSt6locale5_Impl13_S_id_collateE
0100e57c  w    F .text	00000068 _ZNKSt11__timepunctIcE21_M_months_abbreviatedEPPKc
01044514 g     F .text	00000040 fwrite
0104e738 g     F .text	00000068 __hexdig_init
010460a0 g     F .text	00000088 _sscanf_r
010225b8  w    F .text	00000204 _ZNKSt7num_getIcSt19istreambuf_iteratorIcSt11char_traitsIcEEE6do_getES3_S3_RSt8ios_baseRSt12_Ios_IostateRe
010273d4  w    F .text	00000028 _ZNKSt7num_putIcSt19ostreambuf_iteratorIcSt11char_traitsIcEEE6do_putES3_RSt8ios_basecl
0103be2c  w    F .text	00000008 _ZNKSt14basic_ofstreamIcSt11char_traitsIcEE5rdbufEv
01060120 g     O .bss	00000074 _ZN14__gnu_internal8buf_coutE
0103bda4  w    F .text	00000080 _ZNSt13basic_filebufIcSt11char_traitsIcEE13_M_set_bufferEl
01010d10  w    F .text	00000078 _ZNSt18__moneypunct_cacheIcLb0EED2Ev
0105a3f8  w    O .rodata	0000000c _ZTIN10__cxxabiv120__si_class_type_infoE
0102bbf8  w    F .text	00000088 _ZNSo6sentryC1ERSo
01035700 g     F .text	0000000c _ZNKSt12__basic_fileIcE7is_openEv
0100eb90  w    F .text	00000010 _ZNSt17__timepunct_cacheIcED2Ev
01037e30 g     F .text	0000000c _ZSt15set_new_handlerPFvvE
0100aacc  w    F .text	000001f0 _ZNSirsERl
01033700  w    F .text	00000048 _ZNSsaSEc
0101208c  w    F .text	00000018 _ZNSt7num_getIcSt19istreambuf_iteratorIcSt11char_traitsIcEEEC1Em
0103d978  w    F .text	000000d8 _ZNSt13basic_filebufIcSt11char_traitsIcEED2Ev
0105d2d8 g       *ABS*	00000000 _edata
010072f8  w    F .text	00000008 _ZNKSi6sentrycvbEv
01038a48 g     F .text	0000000c _ZNSt5ctypeIcE13classic_tableEv
0100d8cc  w    F .text	00000040 _ZNKSt10moneypunctIcLb0EE13do_pos_formatEv
01028744  w    F .text	0000003c _ZNKSt7num_getIcSt19istreambuf_iteratorIcSt11char_traitsIcEEE6do_getES3_S3_RSt8ios_baseRSt12_Ios_IostateRy
01030548  w    F .text	00000084 _ZNSt15basic_streambufIcSt11char_traitsIcEE6snextcEv
010593fc  w    O .rodata	00000010 _ZTVSt9basic_iosIcSt11char_traitsIcEE
01035c78 g     F .text	00000038 _ZNSt6locale5facet18_S_create_c_localeERPiPKcS1_
0100ea60  w    F .text	00000034 _ZNSt21__ctype_abstract_baseIcED0Ev
01060634 g       *ABS*	00000000 _end
0105d1dc g     O .rwdata	00000001 _ZSt7nothrow
0105d264 g     O .rwdata	00000004 _ZNSt8ios_base3curE
010075a0  w    F .text	00000020 _ZNSiD2Ev
0103ba0c g     F .text	0000010c _ZNSt13runtime_errorD0Ev
0100729c  w    F .text	00000034 _ZNSirsEPFRSt8ios_baseS0_E
010372b8 g     F .text	000004e0 __gxx_personality_sj0
0103be90  w    F .text	00000060 _ZNSt13basic_filebufIcSt11char_traitsIcEE26_M_destroy_internal_bufferEv
01000e14 g     F .text	0000022c _ZN6Player4moveEcR9MatrixMap
01031ae4  w    F .text	0000009c _ZNSs4_Rep8_M_cloneERKSaIcEm
01059584  w    O .rodata	00000028 _ZTVSt15time_get_bynameIcSt19istreambuf_iteratorIcSt11char_traitsIcEEE
010165a8  w    F .text	00000234 _ZNKSt8time_putIcSt19ostreambuf_iteratorIcSt11char_traitsIcEEE6do_putES3_RSt8ios_basecPK2tmcc
0105fc74 g     O .bss	0000000c _ZN14__gnu_internal9codecvt_cE
010001b4 g       *ABS*	00000000 __ram_exceptions_end
0100eaf8  w    F .text	00000034 _ZNSt8time_putIcSt19ostreambuf_iteratorIcSt11char_traitsIcEEED0Ev
0104c684 g     F .text	00000074 vfscanf
010550a4 g     F .text	000000f4 altera_avalon_jtag_uart_ioctl
0100efcc  w    F .text	000000f4 _ZSt9has_facetISt11__timepunctIcEEbRKSt6locale
01059d18  w    O .rodata	00000013 _ZTSSt11__timepunctIcE
0102d804  w    F .text	0000004c _ZSt4endlIcSt11char_traitsIcEERSt13basic_ostreamIT_T0_ES6_
01000a58 g     F .text	00000034 _ZN6Player10move_rightEv
01009f2c  w    F .text	000001f0 _ZNSirsERe
0104032c  w    F .text	00000008 _ZThn8_NSt13basic_fstreamIcSt11char_traitsIcEED1Ev
0100d5d4  w    F .text	00000010 _ZNKSt5ctypeIcE8do_widenEc
010210e4  w    F .text	000014d4 _ZNKSt7num_getIcSt19istreambuf_iteratorIcSt11char_traitsIcEEE16_M_extract_floatES3_S3_RSt8ios_baseRSt12_Ios_IostateRSs
0105a4d4  w    O .rodata	0000001b _ZTSSt7codecvtIcc10_mbstate_tE
010301bc  w    F .text	0000002c _ZNSt15basic_streambufIcSt11char_traitsIcEE7sungetcEv
010087ec  w    F .text	00000250 _ZNSi8readsomeEPcl
0102becc  w    F .text	00000010 _ZTv0_n12_NSoD1Ev
01037908 g     F .text	0000004c _ZNK10__cxxabiv117__class_type_info12__do_dyncastElNS0_10__sub_kindEPKS0_PKvS3_S5_RNS0_16__dyncast_resultE
0101e7d4  w    F .text	0000023c _ZNKSt9money_getIcSt19istreambuf_iteratorIcSt11char_traitsIcEEE6do_getES3_S3_bRSt8ios_baseRSt12_Ios_IostateRe
01037dbc g     F .text	00000010 _ZNSt9exceptionD1Ev
01001814 g     F .text	00000044 _ZN10VGA_Screen9draw_bombEii
01057814 g     F .text	000000a0 alt_ic_irq_disable
01006bc4  w    F .text	000000dc _ZNSt9basic_iosIcSt11char_traitsIcEEC2EPSt15basic_streambufIcS1_E
0105f0d8 g     O .bss	00000004 _ZN14__gnu_internal12atomic_mutexE
01012e58  w    F .text	000000d0 _ZNSt10moneypunctIcLb1EEC2EPSt18__moneypunct_cacheIcLb1EEm
0105a760  w    O .rodata	0000000c _ZTINSt8ios_base7failureE
0105ff04 g     O .bss	0000008c _ZSt4cout
0100d64c  w    F .text	00000030 _ZNKSt10moneypunctIcLb0EE8groupingEv
0104621c g     F .text	0000007c __swrite
01006d7c  w    F .text	0000000c _ZNSt9basic_iosIcSt11char_traitsIcEE8setstateESt12_Ios_Iostate
0103c914  w    F .text	00000260 _ZNSt13basic_filebufIcSt11char_traitsIcEE6xsgetnEPcl
010017d0 g     F .text	00000044 _ZN10VGA_Screen10clear_bombEii
0100db38  w    F .text	000000c8 _ZNKSt10moneypunctIcLb1EE10neg_formatEv
0105d2a0 g     O .rwdata	00000004 __malloc_trim_threshold
0105d138 g     O .rwdata	00000004 _ZNSt6locale7collateE
0100e5fc  w    F .text	00000040 _ZNKSt8time_putIcSt19ostreambuf_iteratorIcSt11char_traitsIcEEE3putES3_RSt8ios_basecPK2tmcc
01008248  w    F .text	000001cc _ZNSi4syncEv
0105f044 g     O .bss	00000004 _ZNSt6locale2id11_S_refcountE
0105ac1c  w    O .rodata	0000000c _ZTISt14basic_ifstreamIcSt11char_traitsIcEE
01011bbc  w    F .text	00000150 _ZNSt11__timepunctIcEC2EPiPKcm
01057b44 g     F .text	00000020 altera_nios2_qsys_irq_init
01030f78  w    F .text	00000130 _ZNSs4_Rep9_S_createEmmRKSaIcE
0102bf80  w    F .text	00000068 _ZStlsIcSt11char_traitsIcEERSt13basic_ostreamIT_T0_ES6_St8_SetfillIS3_E
01057b78 g     F .text	00000038 exit
0104246c g     F .text	00000018 _Unwind_SetGR
0105d1f8 g     O .rwdata	00000004 _ZNSt8ios_base5fixedE
01032e30  w    F .text	00000004 _ZNSspLERKSs
0105f098  w    O .bss	00000008 _ZGVNSt8numpunctIcE2idE
010593a8  w    O .rodata	00000031 _ZTSN9__gnu_cxx13stdio_filebufIcSt11char_traitsIcEEE
010210a8  w    F .text	0000003c _ZNKSt7num_getIcSt19istreambuf_iteratorIcSt11char_traitsIcEEE6do_getES3_S3_RSt8ios_baseRSt12_Ios_IostateRj
01026030  w    F .text	00000460 _ZNKSt7num_putIcSt19ostreambuf_iteratorIcSt11char_traitsIcEEE13_M_insert_intIyEES3_S3_RSt8ios_basecT_
010442e8 g     F .text	000000c8 _fwalk_reent
0105a6b0  w    O .rodata	00000014 _ZTVSt12domain_error
0100ecf0  w    F .text	000000f4 _ZSt9has_facetISt8messagesIcEEbRKSt6locale
0100e6a4  w    F .text	00000044 _ZNKSt8time_getIcSt19istreambuf_iteratorIcSt11char_traitsIcEEE8get_dateES3_S3_RSt8ios_baseRSt12_Ios_IostateP2tm
0104fd44 g     F .text	0000018c __mdiff
0102ff40  w    F .text	00000010 _ZNSt15basic_streambufIcSt11char_traitsIcEE4setpEPcS3_
010134d0  w    F .text	000000c0 _ZNSt8messagesIcEC1EPiPKcm
01037b74 g     F .text	000000a4 _ZN10__cxxabiv111__terminateEPFvvE
01035714 g     F .text	00000008 _ZNSt12__basic_fileIcE4syncEv
010335b8  w    F .text	00000068 _ZNSs7replaceEmmmc
01038004 g     F .text	0000001c _ZNKSt7codecvtIcc10_mbstate_tE6do_outERS0_PKcS4_RS4_PcS6_RS6_
0101228c  w    F .text	000000cc _ZNSt8numpunctIcEC1EPSt16__numpunct_cacheIcEm
0104237c g     F .text	00000060 __modsi3
0102ab90  w    F .text	00000070 _ZN9__gnu_cxx18stdio_sync_filebufIcSt11char_traitsIcEEC2EP7__sFILE
0100ebe4  w    F .text	00000010 _ZNSt7num_putIcSt19ostreambuf_iteratorIcSt11char_traitsIcEEED2Ev
01035a6c g     F .text	0000003c _ZNSt12__basic_fileIcE6xsputnEPKcl
0105abe8  w    O .rodata	0000000c _ZTISt14basic_ofstreamIcSt11char_traitsIcEE
01037e70 g     F .text	00000010 _ZNSt9bad_allocD1Ev
0103fbf8  w    F .text	00000010 _ZTv0_n12_NSt14basic_ifstreamIcSt11char_traitsIcEED1Ev
01800000 g       *ABS*	00000000 __alt_data_end
01000020 g     F .exceptions	00000000 alt_exception
01043234 g     F .text	00000004 __sfp_lock_release
01037a54 g     F .text	000000c8 _ZNK10__cxxabiv120__si_class_type_info12__do_dyncastElNS_17__class_type_info10__sub_kindEPKS1_PKvS4_S6_RNS1_16__dyncast_resultE
0100e7b4  w    F .text	00000008 _ZNKSt8time_getIcSt19istreambuf_iteratorIcSt11char_traitsIcEEE13do_date_orderEv
01059d70  w    O .rodata	0000000c _ZTISt7collateIcE
0105a45c  w    O .rodata	0000000c _ZTISt13bad_exception
0105d160 g     O .rwdata	00000008 _ZNSt6locale5_Impl14_S_id_messagesE
01000000 g       *ABS*	00000000 __alt_mem_sdram
01059864  w    O .rodata	0000001d _ZTSSt21__ctype_abstract_baseIcE
01000b28 g     F .text	00000028 _ZN6Player10get_x_cordEv
01000508 g     F .text	00000028 _ZN9MatrixMapC1Eii
01006ca0  w    F .text	0000000c _ZNKSt9basic_iosIcSt11char_traitsIcEE4goodEv
0102ff20  w    F .text	00000008 _ZNKSt15basic_streambufIcSt11char_traitsIcEE4pptrEv
01010ff0  w    F .text	00000010 _ZNSt17moneypunct_bynameIcLb0EED1Ev
01013728  w    F .text	00000018 _ZNSt15time_put_bynameIcSt19ostreambuf_iteratorIcSt11char_traitsIcEEEC2EPKcm
01059938  w    O .rodata	0000000c _ZTISt14collate_bynameIcE
01050cf4 g     F .text	000000c0 __sccl
01011de4  w    F .text	000000d8 _ZNSt11__timepunctIcEC2EPSt17__timepunct_cacheIcEm
01002ba4 g     F .text	00000040 _ZNKSt6locale2id5_M_idEv
01040d50  w    F .text	00000008 _ZSt7setfillIcESt8_SetfillIT_ES1_
0105ae80 g     O .rodata	00000101 _ctype_
0100d70c  w    F .text	0000000c _ZNKSt10moneypunctIcLb0EE11frac_digitsEv
0105d25c g     O .rwdata	00000004 _ZNSt8ios_base5truncE
0103ce34  w    F .text	000003f4 _ZNSt13basic_filebufIcSt11char_traitsIcEE9underflowEv
01013590  w    F .text	000000c0 _ZNSt8messagesIcEC2EPiPKcm
01005d9c  w    F .text	00000030 _ZN9__gnu_cxx13stdio_filebufIcSt11char_traitsIcEEC2Ev
0100e070  w    F .text	00000044 _ZNKSt7num_getIcSt19istreambuf_iteratorIcSt11char_traitsIcEEE3getES3_S3_RSt8ios_baseRSt12_Ios_IostateRj
0105aa8c  w    O .rodata	00000028 _ZTVSt14basic_ofstreamIcSt11char_traitsIcEE
0103a258  w    F .text	00000034 _ZNSt12domain_errorD0Ev
0100e820  w    F .text	00000008 _ZNKSt8messagesIcE7do_openERKSsRKSt6locale
01006ac8  w    F .text	00000010 _ZNSt9basic_iosIcSt11char_traitsIcEED1Ev
01040e54  w    F .text	000001d4 _ZNSdC1EPSt15basic_streambufIcSt11char_traitsIcEE
01043180 g     F .text	00000058 fileno
01009d3c  w    F .text	000001f0 _ZNSirsERPv
01030b74  w    F .text	00000008 _ZNKSs5c_strEv
0100ea50  w    F .text	00000010 _ZNSt23__codecvt_abstract_baseIcc10_mbstate_tED1Ev
0100ea1c  w    F .text	00000034 _ZNSt23__codecvt_abstract_baseIcc10_mbstate_tED0Ev
0105f9cc g     O .bss	00000038 _ZN14__gnu_internal9facet_vecE
0105f06c  w    O .bss	00000004 _ZNSt8time_getIcSt19istreambuf_iteratorIcSt11char_traitsIcEEE2idE
0105f074  w    O .bss	00000004 _ZNSt7collateIcE2idE
01013260  w    F .text	000000d0 _ZNSt10moneypunctIcLb0EEC2EPSt18__moneypunct_cacheIcLb0EEm
0102ab64  w    F .text	0000002c _ZN9__gnu_cxx18stdio_sync_filebufIcSt11char_traitsIcEE5uflowEv
010360c4 g     F .text	00000100 _ZNK10__cxxabiv121__vmi_class_type_info20__do_find_public_srcElPKvPKNS_17__class_type_infoES2_
010104d0  w    F .text	00000124 _ZNSt14codecvt_bynameIcc10_mbstate_tEC2EPKcm
01052f88 g     F .text	000000a8 __fpcmp_parts_f
0104000c  w    F .text	00000138 _ZNSt14basic_ifstreamIcSt11char_traitsIcEED0Ev
0104356c g     F .text	000000f4 _fopen_r
01050cc4 g     F .text	00000030 __isnand
01053588 g     F .text	00000020 _exit
0105d1c0 g     O .rwdata	00000004 _ZNSt6locale13_S_categoriesE
0103ad20 g     F .text	000000d0 _ZNSt8ios_base7failureC2ERKSs
01059cc0  w    O .rodata	00000020 _ZTISt10moneypunctIcLb0EE
01006cf8  w    F .text	00000048 _ZNSt9basic_iosIcSt11char_traitsIcEE5clearESt12_Ios_Iostate
01056fe0 g     F .text	00000154 alt_alarm_start
0102e590  w    F .text	00000378 _ZNSolsEd
01039da0 g     F .text	00000190 _ZSt20__throw_out_of_rangePKc
01005d64  w    F .text	00000008 _ZN9__gnu_cxx13stdio_filebufIcSt11char_traitsIcEE2fdEv
0103182c  w    F .text	00000090 _ZNKSs7compareEmmPKcm
01033620  w    F .text	00000060 _ZNSs6insertEN9__gnu_cxx17__normal_iteratorIPcSsEEc
0105962c  w    O .rodata	0000003c _ZTVSt7num_getIcSt19istreambuf_iteratorIcSt11char_traitsIcEEE
010346f4 g     F .text	000000d0 _ZNSt10moneypunctIcLb0EED0Ev
01041424 g     F .text	00000124 __muldi3
01011ebc  w    F .text	000000d0 _ZNSt11__timepunctIcEC1Em
01026f08  w    F .text	000004cc _ZNKSt7num_putIcSt19ostreambuf_iteratorIcSt11char_traitsIcEEE13_M_insert_intIlEES3_S3_RSt8ios_basecT_
0105d26c g     O .rwdata	00000001 _ZNSt8ios_base4Init20_S_synced_with_stdioE
01042440 g     F .text	00000018 _Unwind_GetGR
01037b44 g     F .text	00000008 __cxa_get_globals
01044740 g     F .text	00000194 __smakebuf_r
0102fee8  w    F .text	00000008 _ZNKSt15basic_streambufIcSt11char_traitsIcEE4gptrEv
0103804c g     F .text	00000008 _ZNKSt7codecvtIcc10_mbstate_tE11do_encodingEv
0105d1c8 g     O .rwdata	00000004 _ZN10__cxxabiv120__unexpected_handlerE
010121c4  w    F .text	000000c8 _ZNSt8numpunctIcEC2EPim
01032c4c  w    F .text	00000040 _ZNSspLEPKc
0101960c  w    F .text	00001cc8 _ZNKSt9money_getIcSt19istreambuf_iteratorIcSt11char_traitsIcEEE10_M_extractILb1EEES3_S3_S3_RSt8ios_baseRSt12_Ios_IostateRSs
01047508 g     F .text	00000074 strlen
01000d80 g     F .text	00000094 _ZN6Player15check_explosionEii
01039440 g     F .text	00000190 _ZSt23__throw_underflow_errorPKc
01045d54 g     F .text	00000064 _init_signal_r
0105d1cc  w    O .rwdata	00000008 _ZTISt9type_info
01053fc4 g     F .text	0000018c open
01030840  w    F .text	0000000c _ZNSs4_Rep12_S_empty_repEv
01030838  w    F .text	00000008 _ZNSs12_Alloc_hiderC1EPcRKSaIcE
0103f63c  w    F .text	000000f4 _ZNSt14basic_ofstreamIcSt11char_traitsIcEED2Ev
0105fc68 g     O .bss	0000000c _ZN14__gnu_internal10numpunct_cE
0105f05c  w    O .bss	00000004 _ZNSt7num_getIcSt19istreambuf_iteratorIcSt11char_traitsIcEEE2idE
01052998 g     F .text	00000088 __gedf2
01018368  w    F .text	000001d4 _ZNKSt8time_getIcSt19istreambuf_iteratorIcSt11char_traitsIcEEE11do_get_timeES3_S3_RSt8ios_baseRSt12_Ios_IostateP2tm
0100dc64  w    F .text	00000040 _ZNKSt10moneypunctIcLb1EE13do_neg_formatEv
0105a468  w    O .rodata	0000000d _ZTSSt9exception
0104e850 g     F .text	000007fc __gethex
0105a7f4  w    O .rodata	00000014 _ZTVSt13runtime_error
01028780  w    F .text	00001098 _ZNKSt7num_getIcSt19istreambuf_iteratorIcSt11char_traitsIcEEE14_M_extract_intIxEES3_S3_S3_RSt8ios_baseRSt12_Ios_IostateRT_
0105ab24  w    O .rodata	00000028 _ZTCSt14basic_ifstreamIcSt11char_traitsIcEE0_Si
010600a8 g     O .bss	00000028 _ZN14__gnu_internal13buf_cout_syncE
0105ad38  w    O .rodata	0000000f _ZTSSt10bad_typeid
01030d00  w    F .text	0000000c _ZNKSs6lengthEv
0100e24c  w    F .text	00000044 _ZNKSt7num_getIcSt19istreambuf_iteratorIcSt11char_traitsIcEEE3getES3_S3_RSt8ios_baseRSt12_Ios_IostateRPv
01013b9c  w    F .text	00000010 _ZNSt15time_get_bynameIcSt19istreambuf_iteratorIcSt11char_traitsIcEEED2Ev
01031d2c  w    F .text	00000020 _ZNSs13_S_copy_charsEPcS_S_
0103b74c g     F .text	00000008 _ZNKSt11logic_error4whatEv
0105ab8c  w    O .rodata	00000027 _ZTSSt13basic_fstreamIcSt11char_traitsIcEE
01041234  w    F .text	00000094 _ZNSdD0Ev
01032170  w    F .text	000000c4 _ZNSs12_S_constructIPKcEEPcT_S3_RKSaIcESt20forward_iterator_tag
01037dac g     F .text	00000010 _ZNSt9exceptionD0Ev
01012894  w    F .text	0000009c _ZNKSt10moneypunctIcLb0EE11do_groupingEv
0105a9d8  w    O .rodata	00000028 _ZTTSt13basic_fstreamIcSt11char_traitsIcEE
010441dc g     F .text	000000f8 _ftell_r
010599e8  w    O .rodata	0000003b _ZTSSt8time_getIcSt19istreambuf_iteratorIcSt11char_traitsIcEEE
010073e8  w    F .text	00000004 _ZStrsISt11char_traitsIcEERSt13basic_istreamIcT_ES5_Ph
01033ce4  w    F .text	00000070 _ZNSs6resizeEmc
0104c9f8 g     F .text	00000018 abs
0105770c g     F .text	0000001c alt_icache_flush_all
01013d24  w    F .text	00000178 _ZNSt15numpunct_bynameIcEC2EPKcm
01005c0c g     F .text	000000c0 _ZNSt6localeC2Ev
010120fc  w    F .text	000000c8 _ZNSt8numpunctIcEC1EPim
0105a734  w    O .rodata	00000014 _ZTVNSt8ios_base7failureE
0105a52c  w    O .rodata	0000000c _ZTSSt5ctypeIcE
01006680  w    F .text	000000dc _ZN9__gnu_cxx13stdio_filebufIcSt11char_traitsIcEED1Ev
010413b0 g     F .text	00000010 _ZNSt10bad_typeidD1Ev
0105d1ec g     O .rwdata	00000004 _ZNSt5ctypeIcE10table_sizeE
010424d4 g     F .text	00000008 _Unwind_GetDataRelBase
0103be34  w    F .text	00000008 _ZNKSt13basic_fstreamIcSt11char_traitsIcEE5rdbufEv
01034458  w    F .text	0000001c _ZNSs7replaceEN9__gnu_cxx17__normal_iteratorIPcSsEES2_PKcS4_
0105f040 g     O .bss	00000004 _ZNSt6locale5facet11_S_c_localeE
0105d2d4 g     O .rwdata	00000004 alt_priority_mask
0103388c  w    F .text	00000174 _ZNSs6insertEmPKcm
01005974 g     F .text	000001d8 _ZNSt6locale6globalERKS_
0103e6bc  w    F .text	000000a8 _ZNKSt14basic_ifstreamIcSt11char_traitsIcEE7is_openEv
01006d88  w    F .text	00000010 _ZNKSt9basic_iosIcSt11char_traitsIcEEntEv
0105f0c0  w    O .bss	00000008 _ZGVNSt8time_getIcSt19istreambuf_iteratorIcSt11char_traitsIcEEE2idE
01057778 g     F .text	0000009c alt_ic_irq_enable
0102b3fc  w    F .text	00000030 _ZNSoC2EPSt15basic_streambufIcSt11char_traitsIcEE
01015354  w    F .text	00000704 _ZNKSt8time_getIcSt19istreambuf_iteratorIcSt11char_traitsIcEEE16do_get_monthnameES3_S3_RSt8ios_baseRSt12_Ios_IostateP2tm
01040144  w    F .text	00000010 _ZTv0_n12_NSt13basic_fstreamIcSt11char_traitsIcEED0Ev
0104af4c g     F .text	00000024 __vfprintf_internal
01030810  w    F .text	0000000c _ZNKSs8max_sizeEv
01002b94 g     F .text	00000008 _ZNSt6localeC1EPNS_5_ImplE
0103ab4c g     F .text	00000104 _ZNSt8ios_base7failureD1Ev
0100fb0c  w    F .text	00000058 _ZSt9use_facetISt9money_putIcSt19ostreambuf_iteratorIcSt11char_traitsIcEEEERKT_RKSt6locale
01059c20  w    O .rodata	0000001d _ZTSSt17moneypunct_bynameIcLb1EE
010413c0 g     F .text	00000010 _ZNSt10bad_typeidD2Ev
010520f0 g     F .text	00000080 __subdf3
0102b290  w    F .text	00000024 _ZStlsIcSt11char_traitsIcEERSt13basic_ostreamIT_T0_ES6_St12_Setiosflags
0100e0b4  w    F .text	00000044 _ZNKSt7num_getIcSt19istreambuf_iteratorIcSt11char_traitsIcEEE3getES3_S3_RSt8ios_baseRSt12_Ios_IostateRm
01005dcc  w    F .text	000001f4 _ZN9__gnu_cxx13stdio_filebufIcSt11char_traitsIcEEC1EP7__sFILESt13_Ios_Openmodem
01006874  w    F .text	00000098 _ZNSt9basic_iosIcSt11char_traitsIcEE15_M_cache_localeERKSt6locale
01002da8 g     F .text	000000ac _ZNSt6localeC2ERKS_
0102aef0  w    F .text	0000030c _ZStlsIcSt11char_traitsIcESaIcEERSt13basic_ostreamIT_T0_ES7_RKSbIS4_S5_T1_E
010310a8  w    F .text	00000004 _ZNSs4_Rep10_M_destroyERKSaIcE
01031984  w    F .text	000000c0 _ZNKSs7compareEmmRKSsmm
01040d68  w    F .text	00000008 _ZThn8_NSdD1Ev
010311f4  w    F .text	0000000c _ZNKSs12find_last_ofERKSsm
0100d8c0  w    F .text	0000000c _ZNKSt10moneypunctIcLb0EE14do_frac_digitsEv
01032364  w    F .text	00000060 _ZNSsC2EPKcRKSaIcE
0102ac00  w    F .text	00000054 _ZSt7getlineIcSt11char_traitsIcESaIcEERSt13basic_istreamIT_T0_ES7_RSbIS4_S5_T1_E
0103fd38  w    F .text	000001c8 _ZNSt14basic_ifstreamIcSt11char_traitsIcEEC2EPKcSt13_Ios_Openmode
01035084 g     F .text	00000128 _ZNSt8numpunctIcE22_M_initialize_numpunctEPi
010384e0 g     F .text	000000dc _ZNSt7codecvtIcc10_mbstate_tED1Ev
0103088c  w    F .text	00000008 _ZNSs4_Rep10_M_refdataEv
01038338 g     F .text	000000d8 _ZNSt7codecvtIcc10_mbstate_tEC2EPim
0104f624 g     F .text	000000c4 __lo0bits
0102fe6c  w    F .text	00000050 _ZNSt15basic_streambufIcSt11char_traitsIcEE10pubseekposESt4fposI10_mbstate_tESt13_Ios_Openmode
0100b2b0  w    F .text	00000224 _ZNSirsERs
010076d0  w    F .text	00000010 _ZTv0_n12_NSiD0Ev
01033c90  w    F .text	00000054 _ZNSs6rbeginEv
01033680  w    F .text	00000048 _ZNSs6insertEmmc
010600d0 g     O .bss	00000028 _ZN14__gnu_internal12buf_cin_syncE
0104af70 g     F .text	00001688 __svfscanf_r
0100e814  w    F .text	0000000c _ZNKSt8messagesIcE5closeEi
010075c0  w    F .text	00000110 _ZNSiC1EPSt15basic_streambufIcSt11char_traitsIcEE
0103a81c g     F .text	0000005c _ZNSt8ios_baseC1Ev
0100e358  w    F .text	00000038 _ZNKSt7num_putIcSt19ostreambuf_iteratorIcSt11char_traitsIcEEE3putES3_RSt8ios_basecy
0105d188  w    O .rwdata	00000008 _ZTISt13messages_base
0105d2cc g     O .rwdata	00000008 alt_alarm_list
0102bf24  w    F .text	00000010 _ZTv0_n12_NSoD0Ev
01048e78 g     F .text	0000019c _ungetc_r
0100e2f0  w    F .text	00000030 _ZNKSt7num_putIcSt19ostreambuf_iteratorIcSt11char_traitsIcEEE3putES3_RSt8ios_basecm
010573c0 g     F .text	00000064 _do_ctors
0105d20c g     O .rwdata	00000004 _ZNSt8ios_base5rightE
01010298  w    F .text	000000c0 _ZNSt7collateIcEC2Em
01045e7c g     F .text	00000014 __sigtramp
0105a658  w    O .rodata	0000000c _ZTISt16invalid_argument
01034630 g     F .text	00000010 _ZNKSt7collateIcE12_M_transformEPcPKcm
0105fc98 g     O .bss	00000014 _ZN14__gnu_internal11timepunct_cE
0100eb4c  w    F .text	00000034 _ZNSt17__timepunct_cacheIcED0Ev
01032498  w    F .text	00000034 _ZNSsC2IN9__gnu_cxx17__normal_iteratorIPcSsEEEET_S4_RKSaIcE
01010ddc  w    F .text	000000c4 _ZNSt8numpunctIcEC2Em
0105fc5c g     O .bss	0000000c _ZN14__gnu_internal9collate_cE
0100eb80  w    F .text	00000010 _ZNSt17__timepunct_cacheIcED1Ev
010307b4  w    F .text	0000001c _ZNKSs11_M_disjunctEPKc
0103bfe8  w    F .text	00000168 _ZNSt13basic_filebufIcSt11char_traitsIcEE9pbackfailEi
01059ca8  w    O .rodata	00000016 _ZTSSt10moneypunctIcLb0EE
010533bc g     F .text	00000100 close
01033fc0  w    F .text	00000034 _ZNSs4swapERSs
01010188  w    F .text	000000bc _ZNSt8messagesIcED2Ev
0101419c  w    F .text	00000180 _ZNSt17moneypunct_bynameIcLb1EEC1EPKcm
010004e0 g     F .text	00000028 _ZN9MatrixMapC2Eii
0100dcf8  w    F .text	00000054 _ZNSt18__moneypunct_cacheIcLb1EEC1Em
010113fc  w    F .text	000000c8 _ZNSt7collateIcEC2EPim
0103174c  w    F .text	0000003c _ZNSsC1EmcRKSaIcE
01000c94 g     F .text	000000a4 _ZN6Player10place_bombEv
01018b38  w    F .text	00000ad4 _ZNSt18__moneypunct_cacheIcLb1EE8_M_cacheERKSt6locale
0103d638  w    F .text	000000e0 _ZNSt13basic_filebufIcSt11char_traitsIcEED0Ev
0101275c  w    F .text	0000009c _ZNKSt10moneypunctIcLb0EE16do_positive_signEv
01059d8c  w    O .rodata	0000000c _ZTISt8numpunctIcE
01059c14  w    O .rodata	0000000c _ZTISt9money_getIcSt19istreambuf_iteratorIcSt11char_traitsIcEEE
01024950  w    F .text	00000fc4 _ZNKSt7num_getIcSt19istreambuf_iteratorIcSt11char_traitsIcEEE14_M_extract_intIlEES3_S3_S3_RSt8ios_baseRSt12_Ios_IostateRT_
0103b46c g     F .text	000000b0 _ZNSt11logic_errorC1ERKSs
01053be0 g     F .text	00000080 alt_load
01001108 g     F .text	00000094 _ZN6PlayerC1Ev
01042a34 g     F .text	00000314 __pack_d
0100f9ac  w    F .text	00000058 _ZSt9use_facetISt8time_getIcSt19istreambuf_iteratorIcSt11char_traitsIcEEEERKT_RKSt6locale
010307dc  w    F .text	00000010 _ZNSsC1Ev
0100a4fc  w    F .text	000001f0 _ZNSirsERy
01036b64 g     F .text	00000010 _ZNKSt9type_info10__do_catchEPKS_PPvj
01035cb0 g     F .text	000000d8 _ZSt14__convert_to_vIdEvPKcRT_RSt12_Ios_IostateRKPi
0100686c  w    F .text	00000008 _ZNKSt9basic_iosIcSt11char_traitsIcEE5rdbufEv
0103008c  w    F .text	0000002c _ZNSt15basic_streambufIcSt11char_traitsIcEEC2Ev
01059464  w    O .rodata	00000018 _ZTISi
0104f354 g     F .text	0000000c __gettzinfo
01045d40 g     F .text	00000014 raise
0103b6bc g     F .text	00000030 _ZNSt16invalid_argumentC2ERKSs
010448d4 g     F .text	00000014 free
01030170  w    F .text	0000004c _ZNSt15basic_streambufIcSt11char_traitsIcEE5uflowEv
01043238 g     F .text	00000004 __sinit_lock_acquire
0100e0f8  w    F .text	00000044 _ZNKSt7num_getIcSt19istreambuf_iteratorIcSt11char_traitsIcEEE3getES3_S3_RSt8ios_baseRSt12_Ios_IostateRx
0103b65c g     F .text	00000030 _ZNSt12length_errorC2ERKSs
0105fcac g     O .bss	00000010 _ZN14__gnu_internal10messages_cE
010502ac g     F .text	0000012c __multadd
01037824 g     F .text	00000034 _ZN10__cxxabiv117__class_type_infoD0Ev
0104f58c g     F .text	00000028 _Bfree
01009954  w    F .text	00000220 _ZNSi3getEv
01032b00  w    F .text	0000010c _ZNSs6appendEPKcm
0103b754 g     F .text	000000b0 _ZNSt13runtime_errorC1ERKSs
01031f04  w    F .text	000000ec _ZNSsC1ERKSsmm



Disassembly of section .entry:

01000000 <__reset>:
 * Jump to the _start entry point in the .text section if reset code
 * is allowed or if optimizing for RTL simulation.
 */
#if defined(ALT_ALLOW_CODE_AT_RESET) || defined(ALT_SIM_OPTIMIZE)
    /* Jump to the _start entry point in the .text section. */
    movhi r1, %hi(_start)
 1000000:	00404034 	movhi	at,256
    ori r1, r1, %lo(_start)
 1000004:	08406d14 	ori	at,at,436
    jmp r1
 1000008:	0800683a 	jmp	at
	...

Disassembly of section .exceptions:

01000020 <alt_exception>:
         * Process an exception.  For all exceptions we must preserve all
         * caller saved registers on the stack (See the Nios2 ABI
         * documentation for details).
         */

        addi  sp, sp, -76
 1000020:	deffed04 	addi	sp,sp,-76

#endif

#endif

        stw   ra,  0(sp)
 1000024:	dfc00015 	stw	ra,0(sp)
        /*
         * Leave a gap in the stack frame at 4(sp) for the muldiv handler to
         * store zero into.
         */

        stw   r1,   8(sp)
 1000028:	d8400215 	stw	at,8(sp)
        stw   r2,  12(sp)
 100002c:	d8800315 	stw	r2,12(sp)
        stw   r3,  16(sp)
 1000030:	d8c00415 	stw	r3,16(sp)
        stw   r4,  20(sp)
 1000034:	d9000515 	stw	r4,20(sp)
        stw   r5,  24(sp)
 1000038:	d9400615 	stw	r5,24(sp)
        stw   r6,  28(sp)
 100003c:	d9800715 	stw	r6,28(sp)
        stw   r7,  32(sp)
 1000040:	d9c00815 	stw	r7,32(sp)

        rdctl r5, estatus
 1000044:	000b307a 	rdctl	r5,estatus

        stw   r8,  36(sp)
 1000048:	da000915 	stw	r8,36(sp)
        stw   r9,  40(sp)
 100004c:	da400a15 	stw	r9,40(sp)
        stw   r10, 44(sp)
 1000050:	da800b15 	stw	r10,44(sp)
        stw   r11, 48(sp)
 1000054:	dac00c15 	stw	r11,48(sp)
        stw   r12, 52(sp)
 1000058:	db000d15 	stw	r12,52(sp)
        stw   r13, 56(sp)
 100005c:	db400e15 	stw	r13,56(sp)
        stw   r14, 60(sp)
 1000060:	db800f15 	stw	r14,60(sp)
        stw   r15, 64(sp)
 1000064:	dbc01015 	stw	r15,64(sp)
        /*
         * ea-4 contains the address of the instruction being executed
         * when the exception occured. For interrupt exceptions, we will
         * will be re-issue the isntruction. Store it in 72(sp)
         */
        stw   r5,  68(sp)  /* estatus */
 1000068:	d9401115 	stw	r5,68(sp)
        addi  r15, ea, -4  /* instruction that caused exception */
 100006c:	ebffff04 	addi	r15,ea,-4
        stw   r15,  72(sp)
 1000070:	dbc01215 	stw	r15,72(sp)
#else
        /*
         * Test to see if the exception was a software exception or caused 
         * by an external interrupt, and vector accordingly.
         */
        rdctl r4, ipending
 1000074:	0009313a 	rdctl	r4,ipending
        andi  r2, r5, 1
 1000078:	2880004c 	andi	r2,r5,1
        beq   r2, zero, .Lnot_irq
 100007c:	10000326 	beq	r2,zero,100008c <alt_exception+0x6c>
        beq   r4, zero, .Lnot_irq
 1000080:	20000226 	beq	r4,zero,100008c <alt_exception+0x6c>
        /*
         * Now that all necessary registers have been preserved, call 
         * alt_irq_handler() to process the interrupts.
         */

        call alt_irq_handler
 1000084:	10000ec0 	call	10000ec <alt_irq_handler>

        .section .exceptions.irqreturn, "xa"

        br    .Lexception_exit
 1000088:	00000306 	br	1000098 <alt_exception+0x78>
         * upon completion, so we write ea (address of instruction *after*
         * the one where the exception occured) into 72(sp). The actual
         * instruction that caused the exception is written in r2, which these
         * handlers will utilize.
         */
        stw   ea,  72(sp)  /* Don't re-issue */
 100008c:	df401215 	stw	ea,72(sp)
        ldw   r2, -4(ea)   /* Instruction that caused exception */
 1000090:	e8bfff17 	ldw	r2,-4(ea)
#ifdef NIOS2_HAS_DEBUG_STUB
       /*
        *  Either tell the user now (if there is a debugger attached) or go into
        *  the debug monitor which will loop until a debugger is attached.
        */
        break
 1000094:	003da03a 	break	0
        /* 
         * Restore the saved registers, so that all general purpose registers 
         * have been restored to their state at the time the interrupt occured.
         */

        ldw   r5,  68(sp)
 1000098:	d9401117 	ldw	r5,68(sp)
        ldw   ea,  72(sp)  /* This becomes the PC once eret is executed */
 100009c:	df401217 	ldw	ea,72(sp)
        ldw   ra,   0(sp)
 10000a0:	dfc00017 	ldw	ra,0(sp)

        wrctl estatus, r5
 10000a4:	2801707a 	wrctl	estatus,r5

        ldw   r1,   8(sp)
 10000a8:	d8400217 	ldw	at,8(sp)
        ldw   r2,  12(sp)
 10000ac:	d8800317 	ldw	r2,12(sp)
        ldw   r3,  16(sp)
 10000b0:	d8c00417 	ldw	r3,16(sp)
        ldw   r4,  20(sp)
 10000b4:	d9000517 	ldw	r4,20(sp)
        ldw   r5,  24(sp)
 10000b8:	d9400617 	ldw	r5,24(sp)
        ldw   r6,  28(sp)
 10000bc:	d9800717 	ldw	r6,28(sp)
        ldw   r7,  32(sp)
 10000c0:	d9c00817 	ldw	r7,32(sp)
#ifdef ALT_STACK_CHECK
        ldw   et, %gprel(alt_exception_old_stack_limit)(gp)
#endif
#endif

        ldw   r8,  36(sp)
 10000c4:	da000917 	ldw	r8,36(sp)
        ldw   r9,  40(sp)
 10000c8:	da400a17 	ldw	r9,40(sp)
        ldw   r10, 44(sp)
 10000cc:	da800b17 	ldw	r10,44(sp)
        ldw   r11, 48(sp)
 10000d0:	dac00c17 	ldw	r11,48(sp)
        ldw   r12, 52(sp)
 10000d4:	db000d17 	ldw	r12,52(sp)
        ldw   r13, 56(sp)
 10000d8:	db400e17 	ldw	r13,56(sp)
        ldw   r14, 60(sp)
 10000dc:	db800f17 	ldw	r14,60(sp)
        ldw   r15, 64(sp)
 10000e0:	dbc01017 	ldw	r15,64(sp)
#endif

        ldw   sp,  76(sp)

#else
        addi  sp, sp, 76
 10000e4:	dec01304 	addi	sp,sp,76

        /*
         * Return to the interrupted instruction.
         */

        eret
 10000e8:	ef80083a 	eret

010000ec <alt_irq_handler>:
 * instruction is present if the macro ALT_CI_INTERRUPT_VECTOR defined.
 */

void alt_irq_handler (void) __attribute__ ((section (".exceptions")));
void alt_irq_handler (void)
{
 10000ec:	defff904 	addi	sp,sp,-28
 10000f0:	dfc00615 	stw	ra,24(sp)
 10000f4:	df000515 	stw	fp,20(sp)
 10000f8:	df000504 	addi	fp,sp,20
#ifndef NIOS2_EIC_PRESENT
static ALT_INLINE alt_u32 ALT_ALWAYS_INLINE alt_irq_pending (void)
{
  alt_u32 active;

  NIOS2_READ_IPENDING (active);
 10000fc:	0005313a 	rdctl	r2,ipending
 1000100:	e0bffc15 	stw	r2,-16(fp)

  return active;
 1000104:	e0bffc17 	ldw	r2,-16(fp)
   * Consider the case where the high priority interupt is asserted during
   * the interrupt entry sequence for a lower priority interrupt to see why
   * this is the case.
   */

  active = alt_irq_pending ();
 1000108:	e0bfff15 	stw	r2,-4(fp)

  do
  {
    i = 0;
 100010c:	e03ffd15 	stw	zero,-12(fp)
    mask = 1;
 1000110:	00800044 	movi	r2,1
 1000114:	e0bffe15 	stw	r2,-8(fp)
     * called to clear the interrupt condition.
     */

    do
    {
      if (active & mask)
 1000118:	e0ffff17 	ldw	r3,-4(fp)
 100011c:	e0bffe17 	ldw	r2,-8(fp)
 1000120:	1884703a 	and	r2,r3,r2
 1000124:	1005003a 	cmpeq	r2,r2,zero
 1000128:	1000161e 	bne	r2,zero,1000184 <alt_irq_handler+0x98>
      { 
#ifdef ALT_ENHANCED_INTERRUPT_API_PRESENT
        alt_irq[i].handler(alt_irq[i].context); 
 100012c:	e0bffd17 	ldw	r2,-12(fp)
 1000130:	00c041b4 	movhi	r3,262
 1000134:	18c0e904 	addi	r3,r3,932
 1000138:	100490fa 	slli	r2,r2,3
 100013c:	10c5883a 	add	r2,r2,r3
 1000140:	11400017 	ldw	r5,0(r2)
 1000144:	e0bffd17 	ldw	r2,-12(fp)
 1000148:	00c041b4 	movhi	r3,262
 100014c:	18c0e904 	addi	r3,r3,932
 1000150:	100490fa 	slli	r2,r2,3
 1000154:	10c5883a 	add	r2,r2,r3
 1000158:	10800104 	addi	r2,r2,4
 100015c:	11000017 	ldw	r4,0(r2)
 1000160:	283ee83a 	callr	r5
#ifndef NIOS2_EIC_PRESENT
static ALT_INLINE alt_u32 ALT_ALWAYS_INLINE alt_irq_pending (void)
{
  alt_u32 active;

  NIOS2_READ_IPENDING (active);
 1000164:	0005313a 	rdctl	r2,ipending
 1000168:	e0bffb15 	stw	r2,-20(fp)

  return active;
 100016c:	e0bffb17 	ldw	r2,-20(fp)
      mask <<= 1;
      i++;

    } while (1);

    active = alt_irq_pending ();
 1000170:	e0bfff15 	stw	r2,-4(fp)
    
  } while (active);
 1000174:	e0bfff17 	ldw	r2,-4(fp)
 1000178:	1004c03a 	cmpne	r2,r2,zero
 100017c:	103fe31e 	bne	r2,zero,100010c <alt_irq_handler+0x20>
 1000180:	00000706 	br	10001a0 <alt_irq_handler+0xb4>
#else
        alt_irq[i].handler(alt_irq[i].context, i); 
#endif
        break;
      }
      mask <<= 1;
 1000184:	e0bffe17 	ldw	r2,-8(fp)
 1000188:	1085883a 	add	r2,r2,r2
 100018c:	e0bffe15 	stw	r2,-8(fp)
      i++;
 1000190:	e0bffd17 	ldw	r2,-12(fp)
 1000194:	10800044 	addi	r2,r2,1
 1000198:	e0bffd15 	stw	r2,-12(fp)

    } while (1);
 100019c:	003fde06 	br	1000118 <alt_irq_handler+0x2c>
  /*
   * Notify the operating system that interrupt processing is complete.
   */ 

  ALT_OS_INT_EXIT();
}
 10001a0:	e037883a 	mov	sp,fp
 10001a4:	dfc00117 	ldw	ra,4(sp)
 10001a8:	df000017 	ldw	fp,0(sp)
 10001ac:	dec00204 	addi	sp,sp,8
 10001b0:	f800283a 	ret

Disassembly of section .text:

010001b4 <_start>:
#if (NIOS2_NUM_OF_SHADOW_REG_SETS == 0)    
    /*
     * Now that the caches are initialized, set up the stack pointer.
     * The value provided by the linker is assumed to be correctly aligned.
     */
    movhi sp, %hi(__alt_stack_pointer)
 10001b4:	06c06034 	movhi	sp,384
    ori sp, sp, %lo(__alt_stack_pointer)
 10001b8:	dec00014 	ori	sp,sp,0

    /* Set up the global pointer. */
    movhi gp, %hi(_gp)
 10001bc:	068041b4 	movhi	gp,262
    ori gp, gp, %lo(_gp)
 10001c0:	d6944b14 	ori	gp,gp,20780
 */
#ifndef ALT_SIM_OPTIMIZE
    /* Log that the BSS is about to be cleared. */
    ALT_LOG_PUTS(alt_log_msg_bss)

    movhi r2, %hi(__bss_start)
 10001c4:	00804174 	movhi	r2,261
    ori r2, r2, %lo(__bss_start)
 10001c8:	10bc0d14 	ori	r2,r2,61492

    movhi r3, %hi(__bss_end)
 10001cc:	00c041b4 	movhi	r3,262
    ori r3, r3, %lo(__bss_end)
 10001d0:	18c18d14 	ori	r3,r3,1588

    beq r2, r3, 1f
 10001d4:	10c00326 	beq	r2,r3,10001e4 <_start+0x30>

0:
    stw zero, (r2)
 10001d8:	10000015 	stw	zero,0(r2)
    addi r2, r2, 4
 10001dc:	10800104 	addi	r2,r2,4
    bltu r2, r3, 0b
 10001e0:	10fffd36 	bltu	r2,r3,10001d8 <_start+0x24>
     * section aren't defined until alt_load() has been called).
     */
    mov   et, zero
#endif

    call alt_load
 10001e4:	1053be00 	call	1053be0 <alt_load>

    /* Log that alt_main is about to be called. */
    ALT_LOG_PUTS(alt_log_msg_alt_main)

    /* Call the C entry point. It should never return. */
    call alt_main
 10001e8:	1053e200 	call	1053e20 <alt_main>

010001ec <alt_after_alt_main>:

    /* Wait in infinite loop in case alt_main does return. */
alt_after_alt_main:
    br alt_after_alt_main
 10001ec:	003fff06 	br	10001ec <alt_after_alt_main>

010001f0 <_ZN4BombC2Ev>:
 */

#include "Bomb.h"


Bomb::Bomb(){
 10001f0:	defffe04 	addi	sp,sp,-8
 10001f4:	df000115 	stw	fp,4(sp)
 10001f8:	df000104 	addi	fp,sp,4
 10001fc:	e13fff15 	stw	r4,-4(fp)
	active = false;
 1000200:	e0bfff17 	ldw	r2,-4(fp)
 1000204:	10000005 	stb	zero,0(r2)
	timer = 0;
 1000208:	e0bfff17 	ldw	r2,-4(fp)
 100020c:	10000115 	stw	zero,4(r2)
}
 1000210:	e037883a 	mov	sp,fp
 1000214:	df000017 	ldw	fp,0(sp)
 1000218:	dec00104 	addi	sp,sp,4
 100021c:	f800283a 	ret

01000220 <_ZN4BombC1Ev>:
 */

#include "Bomb.h"


Bomb::Bomb(){
 1000220:	defffe04 	addi	sp,sp,-8
 1000224:	df000115 	stw	fp,4(sp)
 1000228:	df000104 	addi	fp,sp,4
 100022c:	e13fff15 	stw	r4,-4(fp)
	active = false;
 1000230:	e0bfff17 	ldw	r2,-4(fp)
 1000234:	10000005 	stb	zero,0(r2)
	timer = 0;
 1000238:	e0bfff17 	ldw	r2,-4(fp)
 100023c:	10000115 	stw	zero,4(r2)
}
 1000240:	e037883a 	mov	sp,fp
 1000244:	df000017 	ldw	fp,0(sp)
 1000248:	dec00104 	addi	sp,sp,4
 100024c:	f800283a 	ret

01000250 <_ZN4Bomb8isActiveEv>:
		}
	}
	return false;
}

bool Bomb::isActive(){
 1000250:	defffe04 	addi	sp,sp,-8
 1000254:	df000115 	stw	fp,4(sp)
 1000258:	df000104 	addi	fp,sp,4
 100025c:	e13fff15 	stw	r4,-4(fp)
	return active;
 1000260:	e0bfff17 	ldw	r2,-4(fp)
 1000264:	10800003 	ldbu	r2,0(r2)
 1000268:	10803fcc 	andi	r2,r2,255
}
 100026c:	e037883a 	mov	sp,fp
 1000270:	df000017 	ldw	fp,0(sp)
 1000274:	dec00104 	addi	sp,sp,4
 1000278:	f800283a 	ret

0100027c <_ZN4Bomb10get_x_cordEv>:

int Bomb::get_x_cord(){
 100027c:	defffe04 	addi	sp,sp,-8
 1000280:	df000115 	stw	fp,4(sp)
 1000284:	df000104 	addi	fp,sp,4
 1000288:	e13fff15 	stw	r4,-4(fp)
	return x_cord;
 100028c:	e0bfff17 	ldw	r2,-4(fp)
 1000290:	10800217 	ldw	r2,8(r2)
}
 1000294:	e037883a 	mov	sp,fp
 1000298:	df000017 	ldw	fp,0(sp)
 100029c:	dec00104 	addi	sp,sp,4
 10002a0:	f800283a 	ret

010002a4 <_ZN4Bomb10get_y_cordEv>:

int Bomb::get_y_cord(){
 10002a4:	defffe04 	addi	sp,sp,-8
 10002a8:	df000115 	stw	fp,4(sp)
 10002ac:	df000104 	addi	fp,sp,4
 10002b0:	e13fff15 	stw	r4,-4(fp)
	return y_cord;
 10002b4:	e0bfff17 	ldw	r2,-4(fp)
 10002b8:	10800317 	ldw	r2,12(r2)
}
 10002bc:	e037883a 	mov	sp,fp
 10002c0:	df000017 	ldw	fp,0(sp)
 10002c4:	dec00104 	addi	sp,sp,4
 10002c8:	f800283a 	ret

010002cc <_Z41__static_initialization_and_destruction_0ii>:
 10002cc:	defffc04 	addi	sp,sp,-16
 10002d0:	dfc00315 	stw	ra,12(sp)
 10002d4:	df000215 	stw	fp,8(sp)
 10002d8:	df000204 	addi	fp,sp,8
 10002dc:	e13ffe15 	stw	r4,-8(fp)
 10002e0:	e17fff15 	stw	r5,-4(fp)
 10002e4:	e0bffe17 	ldw	r2,-8(fp)
 10002e8:	10800058 	cmpnei	r2,r2,1
 10002ec:	1000051e 	bne	r2,zero,1000304 <_Z41__static_initialization_and_destruction_0ii+0x38>
 10002f0:	e0ffff17 	ldw	r3,-4(fp)
 10002f4:	00bfffd4 	movui	r2,65535
 10002f8:	1880021e 	bne	r3,r2,1000304 <_Z41__static_initialization_and_destruction_0ii+0x38>
  extern wostream wclog;	///< Linked to standard error (buffered)
#endif
  //@}

  // For construction of filebuffers for cout, cin, cerr, clog et. al.
  static ios_base::Init __ioinit;
 10002fc:	d127c204 	addi	r4,gp,-24824
 1000300:	10024c00 	call	10024c0 <_ZNSt8ios_base4InitC1Ev>
 1000304:	e0bffe17 	ldw	r2,-8(fp)
 1000308:	1004c03a 	cmpne	r2,r2,zero
 100030c:	1000051e 	bne	r2,zero,1000324 <_Z41__static_initialization_and_destruction_0ii+0x58>
 1000310:	e0ffff17 	ldw	r3,-4(fp)
 1000314:	00bfffd4 	movui	r2,65535
 1000318:	1880021e 	bne	r3,r2,1000324 <_Z41__static_initialization_and_destruction_0ii+0x58>
 100031c:	d127c204 	addi	r4,gp,-24824
 1000320:	1001e140 	call	1001e14 <_ZNSt8ios_base4InitD1Ev>
 1000324:	e037883a 	mov	sp,fp
 1000328:	dfc00117 	ldw	ra,4(sp)
 100032c:	df000017 	ldw	fp,0(sp)
 1000330:	dec00204 	addi	sp,sp,8
 1000334:	f800283a 	ret

01000338 <_GLOBAL__D__ZN4BombC2Ev>:

 1000338:	defffe04 	addi	sp,sp,-8
 100033c:	dfc00115 	stw	ra,4(sp)
 1000340:	df000015 	stw	fp,0(sp)
 1000344:	d839883a 	mov	fp,sp
 1000348:	0009883a 	mov	r4,zero
 100034c:	017fffd4 	movui	r5,65535
 1000350:	10002cc0 	call	10002cc <_Z41__static_initialization_and_destruction_0ii>
 1000354:	e037883a 	mov	sp,fp
 1000358:	dfc00117 	ldw	ra,4(sp)
 100035c:	df000017 	ldw	fp,0(sp)
 1000360:	dec00204 	addi	sp,sp,8
 1000364:	f800283a 	ret

01000368 <_GLOBAL__I__ZN4BombC2Ev>:
}

int Bomb::get_y_cord(){
	return y_cord;
}

 1000368:	defffe04 	addi	sp,sp,-8
 100036c:	dfc00115 	stw	ra,4(sp)
 1000370:	df000015 	stw	fp,0(sp)
 1000374:	d839883a 	mov	fp,sp
 1000378:	01000044 	movi	r4,1
 100037c:	017fffd4 	movui	r5,65535
 1000380:	10002cc0 	call	10002cc <_Z41__static_initialization_and_destruction_0ii>
 1000384:	e037883a 	mov	sp,fp
 1000388:	dfc00117 	ldw	ra,4(sp)
 100038c:	df000017 	ldw	fp,0(sp)
 1000390:	dec00204 	addi	sp,sp,8
 1000394:	f800283a 	ret

01000398 <_ZN4Bomb15check_explosionER10VGA_Screen>:
	else{
		printf("CAN'T PLACE BOMB\n");
	}
}

bool Bomb::check_explosion(VGA_Screen& vga){
 1000398:	defffb04 	addi	sp,sp,-20
 100039c:	dfc00415 	stw	ra,16(sp)
 10003a0:	df000315 	stw	fp,12(sp)
 10003a4:	df000304 	addi	fp,sp,12
 10003a8:	e13ffd15 	stw	r4,-12(fp)
 10003ac:	e17ffe15 	stw	r5,-8(fp)
	if(active){
 10003b0:	e0bffd17 	ldw	r2,-12(fp)
 10003b4:	10800003 	ldbu	r2,0(r2)
 10003b8:	10803fcc 	andi	r2,r2,255
 10003bc:	1005003a 	cmpeq	r2,r2,zero
 10003c0:	10001c1e 	bne	r2,zero,1000434 <_ZN4Bomb15check_explosionER10VGA_Screen+0x9c>
		timer++;
 10003c4:	e0bffd17 	ldw	r2,-12(fp)
 10003c8:	10800117 	ldw	r2,4(r2)
 10003cc:	10c00044 	addi	r3,r2,1
 10003d0:	e0bffd17 	ldw	r2,-12(fp)
 10003d4:	10c00115 	stw	r3,4(r2)
		if (timer < TIME_TO_EXPLODE){
 10003d8:	e0bffd17 	ldw	r2,-12(fp)
 10003dc:	10800117 	ldw	r2,4(r2)
 10003e0:	108008c8 	cmpgei	r2,r2,35
 10003e4:	1000021e 	bne	r2,zero,10003f0 <_ZN4Bomb15check_explosionER10VGA_Screen+0x58>
			return false;
 10003e8:	e03fff15 	stw	zero,-4(fp)
 10003ec:	00001206 	br	1000438 <_ZN4Bomb15check_explosionER10VGA_Screen+0xa0>
		}
		else if (timer < TIME_TO_EXPLODE + EXPLOSION_DELAY){
 10003f0:	e0bffd17 	ldw	r2,-12(fp)
 10003f4:	10800117 	ldw	r2,4(r2)
 10003f8:	10800a08 	cmpgei	r2,r2,40
 10003fc:	1000051e 	bne	r2,zero,1000414 <_ZN4Bomb15check_explosionER10VGA_Screen+0x7c>
			//vga.draw_explosion(x_cord, y_cord)
			printf("EXPLOSION!!");
 1000400:	010041b4 	movhi	r4,262
 1000404:	2123dd04 	addi	r4,r4,-28812
 1000408:	10454240 	call	1045424 <printf>
			return false;
 100040c:	e03fff15 	stw	zero,-4(fp)
 1000410:	00000906 	br	1000438 <_ZN4Bomb15check_explosionER10VGA_Screen+0xa0>
		}
		else{
			printf("CHECK EXPLOSION!!");
 1000414:	010041b4 	movhi	r4,262
 1000418:	2123e004 	addi	r4,r4,-28800
 100041c:	10454240 	call	1045424 <printf>
			active = false;
 1000420:	e0bffd17 	ldw	r2,-12(fp)
 1000424:	10000005 	stb	zero,0(r2)
			return true;
 1000428:	00800044 	movi	r2,1
 100042c:	e0bfff15 	stw	r2,-4(fp)
 1000430:	00000106 	br	1000438 <_ZN4Bomb15check_explosionER10VGA_Screen+0xa0>
		}
	}
	return false;
 1000434:	e03fff15 	stw	zero,-4(fp)
 1000438:	e0bfff17 	ldw	r2,-4(fp)
}
 100043c:	e037883a 	mov	sp,fp
 1000440:	dfc00117 	ldw	ra,4(sp)
 1000444:	df000017 	ldw	fp,0(sp)
 1000448:	dec00204 	addi	sp,sp,8
 100044c:	f800283a 	ret

01000450 <_ZN4Bomb10place_bombEii>:
Bomb::Bomb(){
	active = false;
	timer = 0;
}

void Bomb::place_bomb(int x_cord, int y_cord){
 1000450:	defffb04 	addi	sp,sp,-20
 1000454:	dfc00415 	stw	ra,16(sp)
 1000458:	df000315 	stw	fp,12(sp)
 100045c:	df000304 	addi	fp,sp,12
 1000460:	e13ffd15 	stw	r4,-12(fp)
 1000464:	e17ffe15 	stw	r5,-8(fp)
 1000468:	e1bfff15 	stw	r6,-4(fp)
	if(!active){
 100046c:	e0bffd17 	ldw	r2,-12(fp)
 1000470:	10800003 	ldbu	r2,0(r2)
 1000474:	1080005c 	xori	r2,r2,1
 1000478:	10803fcc 	andi	r2,r2,255
 100047c:	1005003a 	cmpeq	r2,r2,zero
 1000480:	10000f1e 	bne	r2,zero,10004c0 <_ZN4Bomb10place_bombEii+0x70>
		this->x_cord = x_cord;
 1000484:	e0fffd17 	ldw	r3,-12(fp)
 1000488:	e0bffe17 	ldw	r2,-8(fp)
 100048c:	18800215 	stw	r2,8(r3)
		this->y_cord = y_cord;
 1000490:	e0fffd17 	ldw	r3,-12(fp)
 1000494:	e0bfff17 	ldw	r2,-4(fp)
 1000498:	18800315 	stw	r2,12(r3)
		timer = 0;
 100049c:	e0bffd17 	ldw	r2,-12(fp)
 10004a0:	10000115 	stw	zero,4(r2)
		active = true;
 10004a4:	e0fffd17 	ldw	r3,-12(fp)
 10004a8:	00800044 	movi	r2,1
 10004ac:	18800005 	stb	r2,0(r3)
		printf("BOMB PLACED\n");
 10004b0:	010041b4 	movhi	r4,262
 10004b4:	2123e504 	addi	r4,r4,-28780
 10004b8:	104574c0 	call	104574c <puts>
 10004bc:	00000306 	br	10004cc <_ZN4Bomb10place_bombEii+0x7c>
	}
	else{
		printf("CAN'T PLACE BOMB\n");
 10004c0:	010041b4 	movhi	r4,262
 10004c4:	2123e804 	addi	r4,r4,-28768
 10004c8:	104574c0 	call	104574c <puts>
	}
}
 10004cc:	e037883a 	mov	sp,fp
 10004d0:	dfc00117 	ldw	ra,4(sp)
 10004d4:	df000017 	ldw	fp,0(sp)
 10004d8:	dec00204 	addi	sp,sp,8
 10004dc:	f800283a 	ret

010004e0 <_ZN9MatrixMapC2Eii>:
	//char m = new map[SIZE][SIZE];
	gen_map();

}

MatrixMap::MatrixMap(int rows, int cols) { //future contructor
 10004e0:	defffc04 	addi	sp,sp,-16
 10004e4:	df000315 	stw	fp,12(sp)
 10004e8:	df000304 	addi	fp,sp,12
 10004ec:	e13ffd15 	stw	r4,-12(fp)
 10004f0:	e17ffe15 	stw	r5,-8(fp)
 10004f4:	e1bfff15 	stw	r6,-4(fp)
	/*nrows = rows;
	 ncols = cols;
	 m = new map[nrows][ncols];
	 gen_map();*/
}
 10004f8:	e037883a 	mov	sp,fp
 10004fc:	df000017 	ldw	fp,0(sp)
 1000500:	dec00104 	addi	sp,sp,4
 1000504:	f800283a 	ret

01000508 <_ZN9MatrixMapC1Eii>:
	//char m = new map[SIZE][SIZE];
	gen_map();

}

MatrixMap::MatrixMap(int rows, int cols) { //future contructor
 1000508:	defffc04 	addi	sp,sp,-16
 100050c:	df000315 	stw	fp,12(sp)
 1000510:	df000304 	addi	fp,sp,12
 1000514:	e13ffd15 	stw	r4,-12(fp)
 1000518:	e17ffe15 	stw	r5,-8(fp)
 100051c:	e1bfff15 	stw	r6,-4(fp)
	/*nrows = rows;
	 ncols = cols;
	 m = new map[nrows][ncols];
	 gen_map();*/
}
 1000520:	e037883a 	mov	sp,fp
 1000524:	df000017 	ldw	fp,0(sp)
 1000528:	dec00104 	addi	sp,sp,4
 100052c:	f800283a 	ret

01000530 <_ZN9MatrixMap8get_cordEii>:
	map[0][0] = PATH;
	map[0][1] = PATH;
	map[1][0] = PATH;

}
char MatrixMap::get_cord(int x, int y) {
 1000530:	defff904 	addi	sp,sp,-28
 1000534:	dfc00615 	stw	ra,24(sp)
 1000538:	df000515 	stw	fp,20(sp)
 100053c:	dc400415 	stw	r17,16(sp)
 1000540:	dc000315 	stw	r16,12(sp)
 1000544:	df000304 	addi	fp,sp,12
 1000548:	e13ffd15 	stw	r4,-12(fp)
 100054c:	e17ffe15 	stw	r5,-8(fp)
 1000550:	e1bfff15 	stw	r6,-4(fp)
	return map[x][y];
 1000554:	e13ffe17 	ldw	r4,-8(fp)
 1000558:	e47fff17 	ldw	r17,-4(fp)
 100055c:	e43ffd17 	ldw	r16,-12(fp)
 1000560:	014002c4 	movi	r5,11
 1000564:	10423ec0 	call	10423ec <__mulsi3>
 1000568:	1405883a 	add	r2,r2,r16
 100056c:	1445883a 	add	r2,r2,r17
 1000570:	10800003 	ldbu	r2,0(r2)
 1000574:	10803fcc 	andi	r2,r2,255
 1000578:	1080201c 	xori	r2,r2,128
 100057c:	10bfe004 	addi	r2,r2,-128
}
 1000580:	e037883a 	mov	sp,fp
 1000584:	dfc00317 	ldw	ra,12(sp)
 1000588:	df000217 	ldw	fp,8(sp)
 100058c:	dc400117 	ldw	r17,4(sp)
 1000590:	dc000017 	ldw	r16,0(sp)
 1000594:	dec00404 	addi	sp,sp,16
 1000598:	f800283a 	ret

0100059c <_ZN9MatrixMap12print_matrixEv>:



void MatrixMap::print_matrix() { //prints map to screen
 100059c:	defff804 	addi	sp,sp,-32
 10005a0:	dfc00715 	stw	ra,28(sp)
 10005a4:	df000615 	stw	fp,24(sp)
 10005a8:	dc400515 	stw	r17,20(sp)
 10005ac:	dc000415 	stw	r16,16(sp)
 10005b0:	df000404 	addi	fp,sp,16
 10005b4:	e13fff15 	stw	r4,-4(fp)
	int i, j, k;

	for (i = 0; i < SIZE; i++) {
 10005b8:	e03ffe15 	stw	zero,-8(fp)
 10005bc:	00001906 	br	1000624 <_ZN9MatrixMap12print_matrixEv+0x88>

		for (j = 0; j < SIZE; j++) {
 10005c0:	e03ffd15 	stw	zero,-12(fp)
 10005c4:	00000f06 	br	1000604 <_ZN9MatrixMap12print_matrixEv+0x68>
			printf("%c", map[i][j]);
 10005c8:	e13ffe17 	ldw	r4,-8(fp)
 10005cc:	e47ffd17 	ldw	r17,-12(fp)
 10005d0:	e43fff17 	ldw	r16,-4(fp)
 10005d4:	014002c4 	movi	r5,11
 10005d8:	10423ec0 	call	10423ec <__mulsi3>
 10005dc:	1405883a 	add	r2,r2,r16
 10005e0:	1445883a 	add	r2,r2,r17
 10005e4:	10800003 	ldbu	r2,0(r2)
 10005e8:	11003fcc 	andi	r4,r2,255
 10005ec:	2100201c 	xori	r4,r4,128
 10005f0:	213fe004 	addi	r4,r4,-128
 10005f4:	10456880 	call	1045688 <putchar>
void MatrixMap::print_matrix() { //prints map to screen
	int i, j, k;

	for (i = 0; i < SIZE; i++) {

		for (j = 0; j < SIZE; j++) {
 10005f8:	e0bffd17 	ldw	r2,-12(fp)
 10005fc:	10800044 	addi	r2,r2,1
 1000600:	e0bffd15 	stw	r2,-12(fp)
 1000604:	e0bffd17 	ldw	r2,-12(fp)
 1000608:	108002d0 	cmplti	r2,r2,11
 100060c:	103fee1e 	bne	r2,zero,10005c8 <_ZN9MatrixMap12print_matrixEv+0x2c>
			printf("%c", map[i][j]);
		}
		printf("\n");
 1000610:	01000284 	movi	r4,10
 1000614:	10456880 	call	1045688 <putchar>


void MatrixMap::print_matrix() { //prints map to screen
	int i, j, k;

	for (i = 0; i < SIZE; i++) {
 1000618:	e0bffe17 	ldw	r2,-8(fp)
 100061c:	10800044 	addi	r2,r2,1
 1000620:	e0bffe15 	stw	r2,-8(fp)
 1000624:	e0bffe17 	ldw	r2,-8(fp)
 1000628:	108002d0 	cmplti	r2,r2,11
 100062c:	103fe41e 	bne	r2,zero,10005c0 <_ZN9MatrixMap12print_matrixEv+0x24>
			printf("%c", map[i][j]);
		}
		printf("\n");
	}

}
 1000630:	e037883a 	mov	sp,fp
 1000634:	dfc00317 	ldw	ra,12(sp)
 1000638:	df000217 	ldw	fp,8(sp)
 100063c:	dc400117 	ldw	r17,4(sp)
 1000640:	dc000017 	ldw	r16,0(sp)
 1000644:	dec00404 	addi	sp,sp,16
 1000648:	f800283a 	ret

0100064c <_ZN9MatrixMap15check_explosionEiiR10VGA_Screen>:


void MatrixMap::check_explosion(int x, int y, VGA_Screen& vga){
 100064c:	defff604 	addi	sp,sp,-40
 1000650:	dfc00915 	stw	ra,36(sp)
 1000654:	df000815 	stw	fp,32(sp)
 1000658:	dc400715 	stw	r17,28(sp)
 100065c:	dc000615 	stw	r16,24(sp)
 1000660:	df000604 	addi	fp,sp,24
 1000664:	e13ffc15 	stw	r4,-16(fp)
 1000668:	e17ffd15 	stw	r5,-12(fp)
 100066c:	e1bffe15 	stw	r6,-8(fp)
 1000670:	e1ffff15 	stw	r7,-4(fp)
	for (int i = x - 2; i < x+2; i++){
 1000674:	e0bffd17 	ldw	r2,-12(fp)
 1000678:	10bfff84 	addi	r2,r2,-2
 100067c:	e0bffb15 	stw	r2,-20(fp)
 1000680:	00002306 	br	1000710 <_ZN9MatrixMap15check_explosionEiiR10VGA_Screen+0xc4>
		if (i>=0 && i<11 && map[i][y]==BOX){
 1000684:	e0bffb17 	ldw	r2,-20(fp)
 1000688:	1004803a 	cmplt	r2,r2,zero
 100068c:	10001d1e 	bne	r2,zero,1000704 <_ZN9MatrixMap15check_explosionEiiR10VGA_Screen+0xb8>
 1000690:	e0bffb17 	ldw	r2,-20(fp)
 1000694:	108002c8 	cmpgei	r2,r2,11
 1000698:	10001a1e 	bne	r2,zero,1000704 <_ZN9MatrixMap15check_explosionEiiR10VGA_Screen+0xb8>
 100069c:	e13ffb17 	ldw	r4,-20(fp)
 10006a0:	e47ffe17 	ldw	r17,-8(fp)
 10006a4:	e43ffc17 	ldw	r16,-16(fp)
 10006a8:	014002c4 	movi	r5,11
 10006ac:	10423ec0 	call	10423ec <__mulsi3>
 10006b0:	1405883a 	add	r2,r2,r16
 10006b4:	1445883a 	add	r2,r2,r17
 10006b8:	10800003 	ldbu	r2,0(r2)
 10006bc:	10803fcc 	andi	r2,r2,255
 10006c0:	1080201c 	xori	r2,r2,128
 10006c4:	10bfe004 	addi	r2,r2,-128
 10006c8:	10801858 	cmpnei	r2,r2,97
 10006cc:	10000d1e 	bne	r2,zero,1000704 <_ZN9MatrixMap15check_explosionEiiR10VGA_Screen+0xb8>
			map[i][y]=PATH;
 10006d0:	e13ffb17 	ldw	r4,-20(fp)
 10006d4:	e47ffe17 	ldw	r17,-8(fp)
 10006d8:	e43ffc17 	ldw	r16,-16(fp)
 10006dc:	014002c4 	movi	r5,11
 10006e0:	10423ec0 	call	10423ec <__mulsi3>
 10006e4:	1405883a 	add	r2,r2,r16
 10006e8:	1447883a 	add	r3,r2,r17
 10006ec:	00801e04 	movi	r2,120
 10006f0:	18800005 	stb	r2,0(r3)
			vga.clear_bomb(i, y);
 10006f4:	e13fff17 	ldw	r4,-4(fp)
 10006f8:	e17ffb17 	ldw	r5,-20(fp)
 10006fc:	e1bffe17 	ldw	r6,-8(fp)
 1000700:	10017d00 	call	10017d0 <_ZN10VGA_Screen10clear_bombEii>

}


void MatrixMap::check_explosion(int x, int y, VGA_Screen& vga){
	for (int i = x - 2; i < x+2; i++){
 1000704:	e0bffb17 	ldw	r2,-20(fp)
 1000708:	10800044 	addi	r2,r2,1
 100070c:	e0bffb15 	stw	r2,-20(fp)
 1000710:	e0bffd17 	ldw	r2,-12(fp)
 1000714:	10c00084 	addi	r3,r2,2
 1000718:	e0bffb17 	ldw	r2,-20(fp)
 100071c:	10ffd916 	blt	r2,r3,1000684 <_ZN9MatrixMap15check_explosionEiiR10VGA_Screen+0x38>
		if (i>=0 && i<11 && map[i][y]==BOX){
			map[i][y]=PATH;
			vga.clear_bomb(i, y);
		}
	}
	for (int i = y - 2; i < y+2; i++){
 1000720:	e0bffe17 	ldw	r2,-8(fp)
 1000724:	10bfff84 	addi	r2,r2,-2
 1000728:	e0bffa15 	stw	r2,-24(fp)
 100072c:	00002306 	br	10007bc <_ZN9MatrixMap15check_explosionEiiR10VGA_Screen+0x170>
		if (i>=0 && i<11 && map[x][i]==BOX){
 1000730:	e0bffa17 	ldw	r2,-24(fp)
 1000734:	1004803a 	cmplt	r2,r2,zero
 1000738:	10001d1e 	bne	r2,zero,10007b0 <_ZN9MatrixMap15check_explosionEiiR10VGA_Screen+0x164>
 100073c:	e0bffa17 	ldw	r2,-24(fp)
 1000740:	108002c8 	cmpgei	r2,r2,11
 1000744:	10001a1e 	bne	r2,zero,10007b0 <_ZN9MatrixMap15check_explosionEiiR10VGA_Screen+0x164>
 1000748:	e13ffd17 	ldw	r4,-12(fp)
 100074c:	e47ffa17 	ldw	r17,-24(fp)
 1000750:	e43ffc17 	ldw	r16,-16(fp)
 1000754:	014002c4 	movi	r5,11
 1000758:	10423ec0 	call	10423ec <__mulsi3>
 100075c:	1405883a 	add	r2,r2,r16
 1000760:	1445883a 	add	r2,r2,r17
 1000764:	10800003 	ldbu	r2,0(r2)
 1000768:	10803fcc 	andi	r2,r2,255
 100076c:	1080201c 	xori	r2,r2,128
 1000770:	10bfe004 	addi	r2,r2,-128
 1000774:	10801858 	cmpnei	r2,r2,97
 1000778:	10000d1e 	bne	r2,zero,10007b0 <_ZN9MatrixMap15check_explosionEiiR10VGA_Screen+0x164>
			map[x][i]=PATH;
 100077c:	e13ffd17 	ldw	r4,-12(fp)
 1000780:	e47ffa17 	ldw	r17,-24(fp)
 1000784:	e43ffc17 	ldw	r16,-16(fp)
 1000788:	014002c4 	movi	r5,11
 100078c:	10423ec0 	call	10423ec <__mulsi3>
 1000790:	1405883a 	add	r2,r2,r16
 1000794:	1447883a 	add	r3,r2,r17
 1000798:	00801e04 	movi	r2,120
 100079c:	18800005 	stb	r2,0(r3)
			vga.clear_bomb(x, i);
 10007a0:	e13fff17 	ldw	r4,-4(fp)
 10007a4:	e17ffd17 	ldw	r5,-12(fp)
 10007a8:	e1bffa17 	ldw	r6,-24(fp)
 10007ac:	10017d00 	call	10017d0 <_ZN10VGA_Screen10clear_bombEii>
		if (i>=0 && i<11 && map[i][y]==BOX){
			map[i][y]=PATH;
			vga.clear_bomb(i, y);
		}
	}
	for (int i = y - 2; i < y+2; i++){
 10007b0:	e0bffa17 	ldw	r2,-24(fp)
 10007b4:	10800044 	addi	r2,r2,1
 10007b8:	e0bffa15 	stw	r2,-24(fp)
 10007bc:	e0bffe17 	ldw	r2,-8(fp)
 10007c0:	10c00084 	addi	r3,r2,2
 10007c4:	e0bffa17 	ldw	r2,-24(fp)
 10007c8:	10ffd916 	blt	r2,r3,1000730 <_ZN9MatrixMap15check_explosionEiiR10VGA_Screen+0xe4>
		if (i>=0 && i<11 && map[x][i]==BOX){
			map[x][i]=PATH;
			vga.clear_bomb(x, i);
		}
	}
	vga.clear_bomb(x,y);
 10007cc:	e13fff17 	ldw	r4,-4(fp)
 10007d0:	e17ffd17 	ldw	r5,-12(fp)
 10007d4:	e1bffe17 	ldw	r6,-8(fp)
 10007d8:	10017d00 	call	10017d0 <_ZN10VGA_Screen10clear_bombEii>
	this->print_matrix();
 10007dc:	e13ffc17 	ldw	r4,-16(fp)
 10007e0:	100059c0 	call	100059c <_ZN9MatrixMap12print_matrixEv>
}
 10007e4:	e037883a 	mov	sp,fp
 10007e8:	dfc00317 	ldw	ra,12(sp)
 10007ec:	df000217 	ldw	fp,8(sp)
 10007f0:	dc400117 	ldw	r17,4(sp)
 10007f4:	dc000017 	ldw	r16,0(sp)
 10007f8:	dec00404 	addi	sp,sp,16
 10007fc:	f800283a 	ret

01000800 <_Z14randomize_pathv>:
	 ncols = cols;
	 m = new map[nrows][ncols];
	 gen_map();*/
}

char randomize_path(){
 1000800:	defffc04 	addi	sp,sp,-16
 1000804:	dfc00315 	stw	ra,12(sp)
 1000808:	df000215 	stw	fp,8(sp)
 100080c:	df000204 	addi	fp,sp,8
	if(rand()%4 == 3){
 1000810:	104577c0 	call	104577c <rand>
 1000814:	00e00034 	movhi	r3,32768
 1000818:	18c000c4 	addi	r3,r3,3
 100081c:	10c4703a 	and	r2,r2,r3
 1000820:	e0bfff15 	stw	r2,-4(fp)
 1000824:	e0ffff17 	ldw	r3,-4(fp)
 1000828:	1804403a 	cmpge	r2,r3,zero
 100082c:	10000a1e 	bne	r2,zero,1000858 <_Z14randomize_pathv+0x58>
 1000830:	e0bfff17 	ldw	r2,-4(fp)
 1000834:	10bfffc4 	addi	r2,r2,-1
 1000838:	e0bfff15 	stw	r2,-4(fp)
 100083c:	00bfff04 	movi	r2,-4
 1000840:	e0ffff17 	ldw	r3,-4(fp)
 1000844:	1886b03a 	or	r3,r3,r2
 1000848:	e0ffff15 	stw	r3,-4(fp)
 100084c:	e0bfff17 	ldw	r2,-4(fp)
 1000850:	10800044 	addi	r2,r2,1
 1000854:	e0bfff15 	stw	r2,-4(fp)
 1000858:	e0bfff17 	ldw	r2,-4(fp)
 100085c:	108000e0 	cmpeqi	r2,r2,3
 1000860:	10803fcc 	andi	r2,r2,255
 1000864:	1005003a 	cmpeq	r2,r2,zero
 1000868:	1000031e 	bne	r2,zero,1000878 <_Z14randomize_pathv+0x78>
		return BOX;
 100086c:	00c01844 	movi	r3,97
 1000870:	e0fffe15 	stw	r3,-8(fp)
 1000874:	00000206 	br	1000880 <_Z14randomize_pathv+0x80>
	}
	else{
		return PATH;
 1000878:	00801e04 	movi	r2,120
 100087c:	e0bffe15 	stw	r2,-8(fp)
 1000880:	e0bffe17 	ldw	r2,-8(fp)
	}
}
 1000884:	e037883a 	mov	sp,fp
 1000888:	dfc00117 	ldw	ra,4(sp)
 100088c:	df000017 	ldw	fp,0(sp)
 1000890:	dec00204 	addi	sp,sp,8
 1000894:	f800283a 	ret

01000898 <_ZN9MatrixMap7gen_mapEv>:

void MatrixMap::gen_map() { //generates map
 1000898:	defff704 	addi	sp,sp,-36
 100089c:	dfc00815 	stw	ra,32(sp)
 10008a0:	df000715 	stw	fp,28(sp)
 10008a4:	dcc00615 	stw	r19,24(sp)
 10008a8:	dc800515 	stw	r18,20(sp)
 10008ac:	dc400415 	stw	r17,16(sp)
 10008b0:	dc000315 	stw	r16,12(sp)
 10008b4:	df000304 	addi	fp,sp,12
 10008b8:	e13fff15 	stw	r4,-4(fp)
	//int i, j, k;
	srand(time(NULL));
 10008bc:	0009883a 	mov	r4,zero
 10008c0:	1048d380 	call	1048d38 <time>
 10008c4:	1009883a 	mov	r4,r2
 10008c8:	10457600 	call	1045760 <srand>
	for (int i = 0; i < SIZE; i++) {
 10008cc:	e03ffe15 	stw	zero,-8(fp)
 10008d0:	00003406 	br	10009a4 <_ZN9MatrixMap7gen_mapEv+0x10c>
		for (int j = 0; j < SIZE; j++) {
 10008d4:	e03ffd15 	stw	zero,-12(fp)
 10008d8:	00002c06 	br	100098c <_ZN9MatrixMap7gen_mapEv+0xf4>
			if (i % 2 == 0)
 10008dc:	e0bffe17 	ldw	r2,-8(fp)
 10008e0:	1080004c 	andi	r2,r2,1
 10008e4:	1004c03a 	cmpne	r2,r2,zero
 10008e8:	10000c1e 	bne	r2,zero,100091c <_ZN9MatrixMap7gen_mapEv+0x84>
				map[i][j] = randomize_path();
 10008ec:	e43ffe17 	ldw	r16,-8(fp)
 10008f0:	e4bffd17 	ldw	r18,-12(fp)
 10008f4:	10008000 	call	1000800 <_Z14randomize_pathv>
 10008f8:	1027883a 	mov	r19,r2
 10008fc:	e47fff17 	ldw	r17,-4(fp)
 1000900:	8009883a 	mov	r4,r16
 1000904:	014002c4 	movi	r5,11
 1000908:	10423ec0 	call	10423ec <__mulsi3>
 100090c:	1445883a 	add	r2,r2,r17
 1000910:	1485883a 	add	r2,r2,r18
 1000914:	14c00005 	stb	r19,0(r2)
 1000918:	00001906 	br	1000980 <_ZN9MatrixMap7gen_mapEv+0xe8>
			else {
				if (j % 2 == 0) {
 100091c:	e0bffd17 	ldw	r2,-12(fp)
 1000920:	1080004c 	andi	r2,r2,1
 1000924:	1004c03a 	cmpne	r2,r2,zero
 1000928:	10000c1e 	bne	r2,zero,100095c <_ZN9MatrixMap7gen_mapEv+0xc4>
					map[i][j] = randomize_path();
 100092c:	e43ffe17 	ldw	r16,-8(fp)
 1000930:	e4bffd17 	ldw	r18,-12(fp)
 1000934:	10008000 	call	1000800 <_Z14randomize_pathv>
 1000938:	1027883a 	mov	r19,r2
 100093c:	e47fff17 	ldw	r17,-4(fp)
 1000940:	8009883a 	mov	r4,r16
 1000944:	014002c4 	movi	r5,11
 1000948:	10423ec0 	call	10423ec <__mulsi3>
 100094c:	1445883a 	add	r2,r2,r17
 1000950:	1485883a 	add	r2,r2,r18
 1000954:	14c00005 	stb	r19,0(r2)
 1000958:	00000906 	br	1000980 <_ZN9MatrixMap7gen_mapEv+0xe8>
				} else
					map[i][j] = 'o';
 100095c:	e13ffe17 	ldw	r4,-8(fp)
 1000960:	e47ffd17 	ldw	r17,-12(fp)
 1000964:	e43fff17 	ldw	r16,-4(fp)
 1000968:	014002c4 	movi	r5,11
 100096c:	10423ec0 	call	10423ec <__mulsi3>
 1000970:	1405883a 	add	r2,r2,r16
 1000974:	1447883a 	add	r3,r2,r17
 1000978:	00801bc4 	movi	r2,111
 100097c:	18800005 	stb	r2,0(r3)

void MatrixMap::gen_map() { //generates map
	//int i, j, k;
	srand(time(NULL));
	for (int i = 0; i < SIZE; i++) {
		for (int j = 0; j < SIZE; j++) {
 1000980:	e0bffd17 	ldw	r2,-12(fp)
 1000984:	10800044 	addi	r2,r2,1
 1000988:	e0bffd15 	stw	r2,-12(fp)
 100098c:	e0bffd17 	ldw	r2,-12(fp)
 1000990:	108002d0 	cmplti	r2,r2,11
 1000994:	103fd11e 	bne	r2,zero,10008dc <_ZN9MatrixMap7gen_mapEv+0x44>
}

void MatrixMap::gen_map() { //generates map
	//int i, j, k;
	srand(time(NULL));
	for (int i = 0; i < SIZE; i++) {
 1000998:	e0bffe17 	ldw	r2,-8(fp)
 100099c:	10800044 	addi	r2,r2,1
 10009a0:	e0bffe15 	stw	r2,-8(fp)
 10009a4:	e0bffe17 	ldw	r2,-8(fp)
 10009a8:	108002d0 	cmplti	r2,r2,11
 10009ac:	103fc91e 	bne	r2,zero,10008d4 <_ZN9MatrixMap7gen_mapEv+0x3c>
					map[i][j] = 'o';
			}
		}
	}

	map[0][0] = PATH;
 10009b0:	e0ffff17 	ldw	r3,-4(fp)
 10009b4:	00801e04 	movi	r2,120
 10009b8:	18800005 	stb	r2,0(r3)
	map[0][1] = PATH;
 10009bc:	e0ffff17 	ldw	r3,-4(fp)
 10009c0:	00801e04 	movi	r2,120
 10009c4:	18800045 	stb	r2,1(r3)
	map[1][0] = PATH;
 10009c8:	e0ffff17 	ldw	r3,-4(fp)
 10009cc:	00801e04 	movi	r2,120
 10009d0:	188002c5 	stb	r2,11(r3)

}
 10009d4:	e037883a 	mov	sp,fp
 10009d8:	dfc00517 	ldw	ra,20(sp)
 10009dc:	df000417 	ldw	fp,16(sp)
 10009e0:	dcc00317 	ldw	r19,12(sp)
 10009e4:	dc800217 	ldw	r18,8(sp)
 10009e8:	dc400117 	ldw	r17,4(sp)
 10009ec:	dc000017 	ldw	r16,0(sp)
 10009f0:	dec00604 	addi	sp,sp,24
 10009f4:	f800283a 	ret

010009f8 <_ZN9MatrixMapC1Ev>:
 *
 *      Matrix representation of mao, with x's marked as legal areas and o's as illegal
 */
#include "MatrixMap.h"

MatrixMap::MatrixMap() { //contructor dynamically initializes and generates map
 10009f8:	defffd04 	addi	sp,sp,-12
 10009fc:	dfc00215 	stw	ra,8(sp)
 1000a00:	df000115 	stw	fp,4(sp)
 1000a04:	df000104 	addi	fp,sp,4
 1000a08:	e13fff15 	stw	r4,-4(fp)

	//char m = new map[SIZE][SIZE];
	gen_map();
 1000a0c:	e13fff17 	ldw	r4,-4(fp)
 1000a10:	10008980 	call	1000898 <_ZN9MatrixMap7gen_mapEv>

}
 1000a14:	e037883a 	mov	sp,fp
 1000a18:	dfc00117 	ldw	ra,4(sp)
 1000a1c:	df000017 	ldw	fp,0(sp)
 1000a20:	dec00204 	addi	sp,sp,8
 1000a24:	f800283a 	ret

01000a28 <_ZN9MatrixMapC2Ev>:
 *
 *      Matrix representation of mao, with x's marked as legal areas and o's as illegal
 */
#include "MatrixMap.h"

MatrixMap::MatrixMap() { //contructor dynamically initializes and generates map
 1000a28:	defffd04 	addi	sp,sp,-12
 1000a2c:	dfc00215 	stw	ra,8(sp)
 1000a30:	df000115 	stw	fp,4(sp)
 1000a34:	df000104 	addi	fp,sp,4
 1000a38:	e13fff15 	stw	r4,-4(fp)

	//char m = new map[SIZE][SIZE];
	gen_map();
 1000a3c:	e13fff17 	ldw	r4,-4(fp)
 1000a40:	10008980 	call	1000898 <_ZN9MatrixMap7gen_mapEv>

}
 1000a44:	e037883a 	mov	sp,fp
 1000a48:	dfc00117 	ldw	ra,4(sp)
 1000a4c:	df000017 	ldw	fp,0(sp)
 1000a50:	dec00204 	addi	sp,sp,8
 1000a54:	f800283a 	ret

01000a58 <_ZN6Player10move_rightEv>:
			else if(direction == LEFT && m.get_cord(x_cord-1, y_cord)=='x' && x_cord>0)
					move_left();
	}

	//move functions increment or decrement x or y coordinates
	void Player::move_right(){
 1000a58:	defffe04 	addi	sp,sp,-8
 1000a5c:	df000115 	stw	fp,4(sp)
 1000a60:	df000104 	addi	fp,sp,4
 1000a64:	e13fff15 	stw	r4,-4(fp)
			x_cord++;
 1000a68:	e0bfff17 	ldw	r2,-4(fp)
 1000a6c:	10800117 	ldw	r2,4(r2)
 1000a70:	10c00044 	addi	r3,r2,1
 1000a74:	e0bfff17 	ldw	r2,-4(fp)
 1000a78:	10c00115 	stw	r3,4(r2)
	}
 1000a7c:	e037883a 	mov	sp,fp
 1000a80:	df000017 	ldw	fp,0(sp)
 1000a84:	dec00104 	addi	sp,sp,4
 1000a88:	f800283a 	ret

01000a8c <_ZN6Player9move_leftEv>:
	void Player::move_left(){
 1000a8c:	defffe04 	addi	sp,sp,-8
 1000a90:	df000115 	stw	fp,4(sp)
 1000a94:	df000104 	addi	fp,sp,4
 1000a98:	e13fff15 	stw	r4,-4(fp)
			x_cord--;
 1000a9c:	e0bfff17 	ldw	r2,-4(fp)
 1000aa0:	10800117 	ldw	r2,4(r2)
 1000aa4:	10ffffc4 	addi	r3,r2,-1
 1000aa8:	e0bfff17 	ldw	r2,-4(fp)
 1000aac:	10c00115 	stw	r3,4(r2)
	}
 1000ab0:	e037883a 	mov	sp,fp
 1000ab4:	df000017 	ldw	fp,0(sp)
 1000ab8:	dec00104 	addi	sp,sp,4
 1000abc:	f800283a 	ret

01000ac0 <_ZN6Player7move_upEv>:
	void Player::move_up(){
 1000ac0:	defffe04 	addi	sp,sp,-8
 1000ac4:	df000115 	stw	fp,4(sp)
 1000ac8:	df000104 	addi	fp,sp,4
 1000acc:	e13fff15 	stw	r4,-4(fp)
			y_cord--;
 1000ad0:	e0bfff17 	ldw	r2,-4(fp)
 1000ad4:	10800217 	ldw	r2,8(r2)
 1000ad8:	10ffffc4 	addi	r3,r2,-1
 1000adc:	e0bfff17 	ldw	r2,-4(fp)
 1000ae0:	10c00215 	stw	r3,8(r2)
	}
 1000ae4:	e037883a 	mov	sp,fp
 1000ae8:	df000017 	ldw	fp,0(sp)
 1000aec:	dec00104 	addi	sp,sp,4
 1000af0:	f800283a 	ret

01000af4 <_ZN6Player9move_downEv>:
	void Player::move_down(){
 1000af4:	defffe04 	addi	sp,sp,-8
 1000af8:	df000115 	stw	fp,4(sp)
 1000afc:	df000104 	addi	fp,sp,4
 1000b00:	e13fff15 	stw	r4,-4(fp)
			y_cord++;
 1000b04:	e0bfff17 	ldw	r2,-4(fp)
 1000b08:	10800217 	ldw	r2,8(r2)
 1000b0c:	10c00044 	addi	r3,r2,1
 1000b10:	e0bfff17 	ldw	r2,-4(fp)
 1000b14:	10c00215 	stw	r3,8(r2)
	}
 1000b18:	e037883a 	mov	sp,fp
 1000b1c:	df000017 	ldw	fp,0(sp)
 1000b20:	dec00104 	addi	sp,sp,4
 1000b24:	f800283a 	ret

01000b28 <_ZN6Player10get_x_cordEv>:

	//getters return x, y coordinates
	int Player::get_x_cord(){
 1000b28:	defffe04 	addi	sp,sp,-8
 1000b2c:	df000115 	stw	fp,4(sp)
 1000b30:	df000104 	addi	fp,sp,4
 1000b34:	e13fff15 	stw	r4,-4(fp)
		return x_cord;
 1000b38:	e0bfff17 	ldw	r2,-4(fp)
 1000b3c:	10800117 	ldw	r2,4(r2)
	}
 1000b40:	e037883a 	mov	sp,fp
 1000b44:	df000017 	ldw	fp,0(sp)
 1000b48:	dec00104 	addi	sp,sp,4
 1000b4c:	f800283a 	ret

01000b50 <_ZN6Player10get_y_cordEv>:
	int Player::get_y_cord(){
 1000b50:	defffe04 	addi	sp,sp,-8
 1000b54:	df000115 	stw	fp,4(sp)
 1000b58:	df000104 	addi	fp,sp,4
 1000b5c:	e13fff15 	stw	r4,-4(fp)
		return y_cord;
 1000b60:	e0bfff17 	ldw	r2,-4(fp)
 1000b64:	10800217 	ldw	r2,8(r2)
	}
 1000b68:	e037883a 	mov	sp,fp
 1000b6c:	df000017 	ldw	fp,0(sp)
 1000b70:	dec00104 	addi	sp,sp,4
 1000b74:	f800283a 	ret

01000b78 <_ZN6Player14get_old_x_cordEv>:

	int Player::get_old_x_cord(){
 1000b78:	defffe04 	addi	sp,sp,-8
 1000b7c:	df000115 	stw	fp,4(sp)
 1000b80:	df000104 	addi	fp,sp,4
 1000b84:	e13fff15 	stw	r4,-4(fp)
		return x_old_cord;
 1000b88:	e0bfff17 	ldw	r2,-4(fp)
 1000b8c:	10800317 	ldw	r2,12(r2)
	}
 1000b90:	e037883a 	mov	sp,fp
 1000b94:	df000017 	ldw	fp,0(sp)
 1000b98:	dec00104 	addi	sp,sp,4
 1000b9c:	f800283a 	ret

01000ba0 <_ZN6Player14get_old_y_cordEv>:

	int Player::get_old_y_cord(){
 1000ba0:	defffe04 	addi	sp,sp,-8
 1000ba4:	df000115 	stw	fp,4(sp)
 1000ba8:	df000104 	addi	fp,sp,4
 1000bac:	e13fff15 	stw	r4,-4(fp)
			return y_old_cord;
 1000bb0:	e0bfff17 	ldw	r2,-4(fp)
 1000bb4:	10800417 	ldw	r2,16(r2)
	}
 1000bb8:	e037883a 	mov	sp,fp
 1000bbc:	df000017 	ldw	fp,0(sp)
 1000bc0:	dec00104 	addi	sp,sp,4
 1000bc4:	f800283a 	ret

01000bc8 <_Z41__static_initialization_and_destruction_0ii>:

	void Player::place_bomb(){
		if ( IORD_8DIRECT(SWITCHES, 0)%2 == 1){
			bomb.place_bomb(x_cord, y_cord);
		}
	}
 1000bc8:	defffc04 	addi	sp,sp,-16
 1000bcc:	dfc00315 	stw	ra,12(sp)
 1000bd0:	df000215 	stw	fp,8(sp)
 1000bd4:	df000204 	addi	fp,sp,8
 1000bd8:	e13ffe15 	stw	r4,-8(fp)
 1000bdc:	e17fff15 	stw	r5,-4(fp)
 1000be0:	e0bffe17 	ldw	r2,-8(fp)
 1000be4:	10800058 	cmpnei	r2,r2,1
 1000be8:	1000051e 	bne	r2,zero,1000c00 <_Z41__static_initialization_and_destruction_0ii+0x38>
 1000bec:	e0ffff17 	ldw	r3,-4(fp)
 1000bf0:	00bfffd4 	movui	r2,65535
 1000bf4:	1880021e 	bne	r3,r2,1000c00 <_Z41__static_initialization_and_destruction_0ii+0x38>
 1000bf8:	d127c244 	addi	r4,gp,-24823
 1000bfc:	10024c00 	call	10024c0 <_ZNSt8ios_base4InitC1Ev>
 1000c00:	e0bffe17 	ldw	r2,-8(fp)
 1000c04:	1004c03a 	cmpne	r2,r2,zero
 1000c08:	1000051e 	bne	r2,zero,1000c20 <_Z41__static_initialization_and_destruction_0ii+0x58>
 1000c0c:	e0ffff17 	ldw	r3,-4(fp)
 1000c10:	00bfffd4 	movui	r2,65535
 1000c14:	1880021e 	bne	r3,r2,1000c20 <_Z41__static_initialization_and_destruction_0ii+0x58>
 1000c18:	d127c244 	addi	r4,gp,-24823
 1000c1c:	1001e140 	call	1001e14 <_ZNSt8ios_base4InitD1Ev>
 1000c20:	e037883a 	mov	sp,fp
 1000c24:	dfc00117 	ldw	ra,4(sp)
 1000c28:	df000017 	ldw	fp,0(sp)
 1000c2c:	dec00204 	addi	sp,sp,8
 1000c30:	f800283a 	ret

01000c34 <_GLOBAL__D__ZN6PlayerC2Ev>:

 1000c34:	defffe04 	addi	sp,sp,-8
 1000c38:	dfc00115 	stw	ra,4(sp)
 1000c3c:	df000015 	stw	fp,0(sp)
 1000c40:	d839883a 	mov	fp,sp
 1000c44:	0009883a 	mov	r4,zero
 1000c48:	017fffd4 	movui	r5,65535
 1000c4c:	1000bc80 	call	1000bc8 <_Z41__static_initialization_and_destruction_0ii>
 1000c50:	e037883a 	mov	sp,fp
 1000c54:	dfc00117 	ldw	ra,4(sp)
 1000c58:	df000017 	ldw	fp,0(sp)
 1000c5c:	dec00204 	addi	sp,sp,8
 1000c60:	f800283a 	ret

01000c64 <_GLOBAL__I__ZN6PlayerC2Ev>:
	void Player::place_bomb(){
		if ( IORD_8DIRECT(SWITCHES, 0)%2 == 1){
			bomb.place_bomb(x_cord, y_cord);
		}
	}

 1000c64:	defffe04 	addi	sp,sp,-8
 1000c68:	dfc00115 	stw	ra,4(sp)
 1000c6c:	df000015 	stw	fp,0(sp)
 1000c70:	d839883a 	mov	fp,sp
 1000c74:	01000044 	movi	r4,1
 1000c78:	017fffd4 	movui	r5,65535
 1000c7c:	1000bc80 	call	1000bc8 <_Z41__static_initialization_and_destruction_0ii>
 1000c80:	e037883a 	mov	sp,fp
 1000c84:	dfc00117 	ldw	ra,4(sp)
 1000c88:	df000017 	ldw	fp,0(sp)
 1000c8c:	dec00204 	addi	sp,sp,8
 1000c90:	f800283a 	ret

01000c94 <_ZN6Player10place_bombEv>:
			this->life_down();
			printf("LIFE--");
		}
	}

	void Player::place_bomb(){
 1000c94:	defffc04 	addi	sp,sp,-16
 1000c98:	dfc00315 	stw	ra,12(sp)
 1000c9c:	df000215 	stw	fp,8(sp)
 1000ca0:	df000204 	addi	fp,sp,8
 1000ca4:	e13ffe15 	stw	r4,-8(fp)
		if ( IORD_8DIRECT(SWITCHES, 0)%2 == 1){
 1000ca8:	00881004 	movi	r2,8256
 1000cac:	10c00023 	ldbuio	r3,0(r2)
 1000cb0:	00a00034 	movhi	r2,32768
 1000cb4:	10800044 	addi	r2,r2,1
 1000cb8:	1886703a 	and	r3,r3,r2
 1000cbc:	e0ffff15 	stw	r3,-4(fp)
 1000cc0:	e0ffff17 	ldw	r3,-4(fp)
 1000cc4:	1804403a 	cmpge	r2,r3,zero
 1000cc8:	10000a1e 	bne	r2,zero,1000cf4 <_ZN6Player10place_bombEv+0x60>
 1000ccc:	e0bfff17 	ldw	r2,-4(fp)
 1000cd0:	10bfffc4 	addi	r2,r2,-1
 1000cd4:	e0bfff15 	stw	r2,-4(fp)
 1000cd8:	00bfff84 	movi	r2,-2
 1000cdc:	e0ffff17 	ldw	r3,-4(fp)
 1000ce0:	1886b03a 	or	r3,r3,r2
 1000ce4:	e0ffff15 	stw	r3,-4(fp)
 1000ce8:	e0bfff17 	ldw	r2,-4(fp)
 1000cec:	10800044 	addi	r2,r2,1
 1000cf0:	e0bfff15 	stw	r2,-4(fp)
 1000cf4:	e0bfff17 	ldw	r2,-4(fp)
 1000cf8:	10800060 	cmpeqi	r2,r2,1
 1000cfc:	10803fcc 	andi	r2,r2,255
 1000d00:	1005003a 	cmpeq	r2,r2,zero
 1000d04:	1000071e 	bne	r2,zero,1000d24 <_ZN6Player10place_bombEv+0x90>
			bomb.place_bomb(x_cord, y_cord);
 1000d08:	e0bffe17 	ldw	r2,-8(fp)
 1000d0c:	11000704 	addi	r4,r2,28
 1000d10:	e0bffe17 	ldw	r2,-8(fp)
 1000d14:	11400117 	ldw	r5,4(r2)
 1000d18:	e0bffe17 	ldw	r2,-8(fp)
 1000d1c:	11800217 	ldw	r6,8(r2)
 1000d20:	10004500 	call	1000450 <_ZN4Bomb10place_bombEii>
		}
	}
 1000d24:	e037883a 	mov	sp,fp
 1000d28:	dfc00117 	ldw	ra,4(sp)
 1000d2c:	df000017 	ldw	fp,0(sp)
 1000d30:	dec00204 	addi	sp,sp,8
 1000d34:	f800283a 	ret

01000d38 <_ZN6Player9life_downEv>:

	int Player::get_old_y_cord(){
			return y_old_cord;
	}

	void Player::life_down(){
 1000d38:	defffd04 	addi	sp,sp,-12
 1000d3c:	dfc00215 	stw	ra,8(sp)
 1000d40:	df000115 	stw	fp,4(sp)
 1000d44:	df000104 	addi	fp,sp,4
 1000d48:	e13fff15 	stw	r4,-4(fp)
		life--;
 1000d4c:	e0bfff17 	ldw	r2,-4(fp)
 1000d50:	10800517 	ldw	r2,20(r2)
 1000d54:	10ffffc4 	addi	r3,r2,-1
 1000d58:	e0bfff17 	ldw	r2,-4(fp)
 1000d5c:	10c00515 	stw	r3,20(r2)
		printf("LIFE DOWN!");
 1000d60:	010041b4 	movhi	r4,262
 1000d64:	2123ed04 	addi	r4,r4,-28748
 1000d68:	10454240 	call	1045424 <printf>
	}
 1000d6c:	e037883a 	mov	sp,fp
 1000d70:	dfc00117 	ldw	ra,4(sp)
 1000d74:	df000017 	ldw	fp,0(sp)
 1000d78:	dec00204 	addi	sp,sp,8
 1000d7c:	f800283a 	ret

01000d80 <_ZN6Player15check_explosionEii>:

	void Player::check_explosion(int x, int y){
 1000d80:	defffb04 	addi	sp,sp,-20
 1000d84:	dfc00415 	stw	ra,16(sp)
 1000d88:	df000315 	stw	fp,12(sp)
 1000d8c:	df000304 	addi	fp,sp,12
 1000d90:	e13ffd15 	stw	r4,-12(fp)
 1000d94:	e17ffe15 	stw	r5,-8(fp)
 1000d98:	e1bfff15 	stw	r6,-4(fp)
		if (x_cord >= x-2 && x_cord <= x+2 && y_cord >= y-2 && y_cord <= y+2){
 1000d9c:	e0bffd17 	ldw	r2,-12(fp)
 1000da0:	10c00117 	ldw	r3,4(r2)
 1000da4:	e0bffe17 	ldw	r2,-8(fp)
 1000da8:	10bfff84 	addi	r2,r2,-2
 1000dac:	18801416 	blt	r3,r2,1000e00 <_ZN6Player15check_explosionEii+0x80>
 1000db0:	e0bffd17 	ldw	r2,-12(fp)
 1000db4:	10c00117 	ldw	r3,4(r2)
 1000db8:	e0bffe17 	ldw	r2,-8(fp)
 1000dbc:	10800084 	addi	r2,r2,2
 1000dc0:	10c00f16 	blt	r2,r3,1000e00 <_ZN6Player15check_explosionEii+0x80>
 1000dc4:	e0bffd17 	ldw	r2,-12(fp)
 1000dc8:	10c00217 	ldw	r3,8(r2)
 1000dcc:	e0bfff17 	ldw	r2,-4(fp)
 1000dd0:	10bfff84 	addi	r2,r2,-2
 1000dd4:	18800a16 	blt	r3,r2,1000e00 <_ZN6Player15check_explosionEii+0x80>
 1000dd8:	e0bffd17 	ldw	r2,-12(fp)
 1000ddc:	10c00217 	ldw	r3,8(r2)
 1000de0:	e0bfff17 	ldw	r2,-4(fp)
 1000de4:	10800084 	addi	r2,r2,2
 1000de8:	10c00516 	blt	r2,r3,1000e00 <_ZN6Player15check_explosionEii+0x80>
			this->life_down();
 1000dec:	e13ffd17 	ldw	r4,-12(fp)
 1000df0:	1000d380 	call	1000d38 <_ZN6Player9life_downEv>
			printf("LIFE--");
 1000df4:	010041b4 	movhi	r4,262
 1000df8:	2123f004 	addi	r4,r4,-28736
 1000dfc:	10454240 	call	1045424 <printf>
		}
	}
 1000e00:	e037883a 	mov	sp,fp
 1000e04:	dfc00117 	ldw	ra,4(sp)
 1000e08:	df000017 	ldw	fp,0(sp)
 1000e0c:	dec00204 	addi	sp,sp,8
 1000e10:	f800283a 	ret

01000e14 <_ZN6Player4moveEcR9MatrixMap>:
						}
					}
			return STAND;
		}

	void Player::move(char direction, MatrixMap& m){//moves in direction pressed if legal
 1000e14:	defffa04 	addi	sp,sp,-24
 1000e18:	dfc00515 	stw	ra,20(sp)
 1000e1c:	df000415 	stw	fp,16(sp)
 1000e20:	df000404 	addi	fp,sp,16
 1000e24:	e13ffc15 	stw	r4,-16(fp)
 1000e28:	e1bffe15 	stw	r6,-8(fp)
 1000e2c:	e17ffd05 	stb	r5,-12(fp)
		//checks matrix map for x's marked as legal areas
			x_old_cord = x_cord;
 1000e30:	e0bffc17 	ldw	r2,-16(fp)
 1000e34:	10c00117 	ldw	r3,4(r2)
 1000e38:	e0bffc17 	ldw	r2,-16(fp)
 1000e3c:	10c00315 	stw	r3,12(r2)
			y_old_cord = y_cord;
 1000e40:	e0bffc17 	ldw	r2,-16(fp)
 1000e44:	10c00217 	ldw	r3,8(r2)
 1000e48:	e0bffc17 	ldw	r2,-16(fp)
 1000e4c:	10c00415 	stw	r3,16(r2)
			if(direction == UP && m.get_cord(x_cord, y_cord-1)=='x' && y_cord>0)
 1000e50:	e0bffd07 	ldb	r2,-12(fp)
 1000e54:	10801558 	cmpnei	r2,r2,85
 1000e58:	1000131e 	bne	r2,zero,1000ea8 <_ZN6Player4moveEcR9MatrixMap+0x94>
 1000e5c:	e0bffc17 	ldw	r2,-16(fp)
 1000e60:	11400117 	ldw	r5,4(r2)
 1000e64:	e0bffc17 	ldw	r2,-16(fp)
 1000e68:	10800217 	ldw	r2,8(r2)
 1000e6c:	11bfffc4 	addi	r6,r2,-1
 1000e70:	e13ffe17 	ldw	r4,-8(fp)
 1000e74:	10005300 	call	1000530 <_ZN9MatrixMap8get_cordEii>
 1000e78:	10803fcc 	andi	r2,r2,255
 1000e7c:	1080201c 	xori	r2,r2,128
 1000e80:	10bfe004 	addi	r2,r2,-128
 1000e84:	10801e18 	cmpnei	r2,r2,120
 1000e88:	1000071e 	bne	r2,zero,1000ea8 <_ZN6Player4moveEcR9MatrixMap+0x94>
 1000e8c:	e0bffc17 	ldw	r2,-16(fp)
 1000e90:	10800217 	ldw	r2,8(r2)
 1000e94:	10800050 	cmplti	r2,r2,1
 1000e98:	1000031e 	bne	r2,zero,1000ea8 <_ZN6Player4moveEcR9MatrixMap+0x94>
 1000e9c:	00800044 	movi	r2,1
 1000ea0:	e0bfffc5 	stb	r2,-1(fp)
 1000ea4:	00000106 	br	1000eac <_ZN6Player4moveEcR9MatrixMap+0x98>
 1000ea8:	e03fffc5 	stb	zero,-1(fp)
 1000eac:	e0bfffc3 	ldbu	r2,-1(fp)
 1000eb0:	10803fcc 	andi	r2,r2,255
 1000eb4:	1005003a 	cmpeq	r2,r2,zero
 1000eb8:	1000031e 	bne	r2,zero,1000ec8 <_ZN6Player4moveEcR9MatrixMap+0xb4>
					move_up();
 1000ebc:	e13ffc17 	ldw	r4,-16(fp)
 1000ec0:	1000ac00 	call	1000ac0 <_ZN6Player7move_upEv>
 1000ec4:	00005906 	br	100102c <_ZN6Player4moveEcR9MatrixMap+0x218>
			else if(direction == DOWN && m.get_cord(x_cord, y_cord+1)=='x' && y_cord<SIZE-1)
 1000ec8:	e0bffd07 	ldb	r2,-12(fp)
 1000ecc:	10801118 	cmpnei	r2,r2,68
 1000ed0:	1000131e 	bne	r2,zero,1000f20 <_ZN6Player4moveEcR9MatrixMap+0x10c>
 1000ed4:	e0bffc17 	ldw	r2,-16(fp)
 1000ed8:	11400117 	ldw	r5,4(r2)
 1000edc:	e0bffc17 	ldw	r2,-16(fp)
 1000ee0:	10800217 	ldw	r2,8(r2)
 1000ee4:	11800044 	addi	r6,r2,1
 1000ee8:	e13ffe17 	ldw	r4,-8(fp)
 1000eec:	10005300 	call	1000530 <_ZN9MatrixMap8get_cordEii>
 1000ef0:	10803fcc 	andi	r2,r2,255
 1000ef4:	1080201c 	xori	r2,r2,128
 1000ef8:	10bfe004 	addi	r2,r2,-128
 1000efc:	10801e18 	cmpnei	r2,r2,120
 1000f00:	1000071e 	bne	r2,zero,1000f20 <_ZN6Player4moveEcR9MatrixMap+0x10c>
 1000f04:	e0bffc17 	ldw	r2,-16(fp)
 1000f08:	10800217 	ldw	r2,8(r2)
 1000f0c:	10800288 	cmpgei	r2,r2,10
 1000f10:	1000031e 	bne	r2,zero,1000f20 <_ZN6Player4moveEcR9MatrixMap+0x10c>
 1000f14:	00800044 	movi	r2,1
 1000f18:	e0bfff85 	stb	r2,-2(fp)
 1000f1c:	00000106 	br	1000f24 <_ZN6Player4moveEcR9MatrixMap+0x110>
 1000f20:	e03fff85 	stb	zero,-2(fp)
 1000f24:	e0bfff83 	ldbu	r2,-2(fp)
 1000f28:	10803fcc 	andi	r2,r2,255
 1000f2c:	1005003a 	cmpeq	r2,r2,zero
 1000f30:	1000031e 	bne	r2,zero,1000f40 <_ZN6Player4moveEcR9MatrixMap+0x12c>
					move_down();
 1000f34:	e13ffc17 	ldw	r4,-16(fp)
 1000f38:	1000af40 	call	1000af4 <_ZN6Player9move_downEv>
 1000f3c:	00003b06 	br	100102c <_ZN6Player4moveEcR9MatrixMap+0x218>
			else if(direction == RIGHT && m.get_cord(x_cord+1, y_cord)=='x' && x_cord<SIZE-1)
 1000f40:	e0bffd07 	ldb	r2,-12(fp)
 1000f44:	10801498 	cmpnei	r2,r2,82
 1000f48:	1000131e 	bne	r2,zero,1000f98 <_ZN6Player4moveEcR9MatrixMap+0x184>
 1000f4c:	e0bffc17 	ldw	r2,-16(fp)
 1000f50:	10800117 	ldw	r2,4(r2)
 1000f54:	11400044 	addi	r5,r2,1
 1000f58:	e0bffc17 	ldw	r2,-16(fp)
 1000f5c:	11800217 	ldw	r6,8(r2)
 1000f60:	e13ffe17 	ldw	r4,-8(fp)
 1000f64:	10005300 	call	1000530 <_ZN9MatrixMap8get_cordEii>
 1000f68:	10803fcc 	andi	r2,r2,255
 1000f6c:	1080201c 	xori	r2,r2,128
 1000f70:	10bfe004 	addi	r2,r2,-128
 1000f74:	10801e18 	cmpnei	r2,r2,120
 1000f78:	1000071e 	bne	r2,zero,1000f98 <_ZN6Player4moveEcR9MatrixMap+0x184>
 1000f7c:	e0bffc17 	ldw	r2,-16(fp)
 1000f80:	10800117 	ldw	r2,4(r2)
 1000f84:	10800288 	cmpgei	r2,r2,10
 1000f88:	1000031e 	bne	r2,zero,1000f98 <_ZN6Player4moveEcR9MatrixMap+0x184>
 1000f8c:	00800044 	movi	r2,1
 1000f90:	e0bfff45 	stb	r2,-3(fp)
 1000f94:	00000106 	br	1000f9c <_ZN6Player4moveEcR9MatrixMap+0x188>
 1000f98:	e03fff45 	stb	zero,-3(fp)
 1000f9c:	e0bfff43 	ldbu	r2,-3(fp)
 1000fa0:	10803fcc 	andi	r2,r2,255
 1000fa4:	1005003a 	cmpeq	r2,r2,zero
 1000fa8:	1000031e 	bne	r2,zero,1000fb8 <_ZN6Player4moveEcR9MatrixMap+0x1a4>
					move_right();
 1000fac:	e13ffc17 	ldw	r4,-16(fp)
 1000fb0:	1000a580 	call	1000a58 <_ZN6Player10move_rightEv>
 1000fb4:	00001d06 	br	100102c <_ZN6Player4moveEcR9MatrixMap+0x218>
			else if(direction == LEFT && m.get_cord(x_cord-1, y_cord)=='x' && x_cord>0)
 1000fb8:	e0bffd07 	ldb	r2,-12(fp)
 1000fbc:	10801318 	cmpnei	r2,r2,76
 1000fc0:	1000131e 	bne	r2,zero,1001010 <_ZN6Player4moveEcR9MatrixMap+0x1fc>
 1000fc4:	e0bffc17 	ldw	r2,-16(fp)
 1000fc8:	10800117 	ldw	r2,4(r2)
 1000fcc:	117fffc4 	addi	r5,r2,-1
 1000fd0:	e0bffc17 	ldw	r2,-16(fp)
 1000fd4:	11800217 	ldw	r6,8(r2)
 1000fd8:	e13ffe17 	ldw	r4,-8(fp)
 1000fdc:	10005300 	call	1000530 <_ZN9MatrixMap8get_cordEii>
 1000fe0:	10803fcc 	andi	r2,r2,255
 1000fe4:	1080201c 	xori	r2,r2,128
 1000fe8:	10bfe004 	addi	r2,r2,-128
 1000fec:	10801e18 	cmpnei	r2,r2,120
 1000ff0:	1000071e 	bne	r2,zero,1001010 <_ZN6Player4moveEcR9MatrixMap+0x1fc>
 1000ff4:	e0bffc17 	ldw	r2,-16(fp)
 1000ff8:	10800117 	ldw	r2,4(r2)
 1000ffc:	10800050 	cmplti	r2,r2,1
 1001000:	1000031e 	bne	r2,zero,1001010 <_ZN6Player4moveEcR9MatrixMap+0x1fc>
 1001004:	00800044 	movi	r2,1
 1001008:	e0bfff05 	stb	r2,-4(fp)
 100100c:	00000106 	br	1001014 <_ZN6Player4moveEcR9MatrixMap+0x200>
 1001010:	e03fff05 	stb	zero,-4(fp)
 1001014:	e0bfff03 	ldbu	r2,-4(fp)
 1001018:	10803fcc 	andi	r2,r2,255
 100101c:	1005003a 	cmpeq	r2,r2,zero
 1001020:	1000021e 	bne	r2,zero,100102c <_ZN6Player4moveEcR9MatrixMap+0x218>
					move_left();
 1001024:	e13ffc17 	ldw	r4,-16(fp)
 1001028:	1000a8c0 	call	1000a8c <_ZN6Player9move_leftEv>
	}
 100102c:	e037883a 	mov	sp,fp
 1001030:	dfc00117 	ldw	ra,4(sp)
 1001034:	df000017 	ldw	fp,0(sp)
 1001038:	dec00204 	addi	sp,sp,8
 100103c:	f800283a 	ret

01001040 <_ZN6Player13get_directionEv>:
					printf("Error: could not open Parallel Port device\n");
				 else
					printf("Opened Parallel Port device\n");
	}

	char Player::get_direction(){//returns the direction pressed
 1001040:	defffb04 	addi	sp,sp,-20
 1001044:	df000415 	stw	fp,16(sp)
 1001048:	df000404 	addi	fp,sp,16
 100104c:	e13ffd15 	stw	r4,-12(fp)
		unsigned int key;
		key = alt_up_parallel_port_read_data(parallel_port_dev);
 1001050:	e0bffd17 	ldw	r2,-12(fp)
 1001054:	10800617 	ldw	r2,24(r2)
 1001058:	10800a17 	ldw	r2,40(r2)
 100105c:	10800037 	ldwio	r2,0(r2)
 1001060:	e0bffc15 	stw	r2,-16(fp)

			if (key != 0){
 1001064:	e0bffc17 	ldw	r2,-16(fp)
 1001068:	1005003a 	cmpeq	r2,r2,zero
 100106c:	10001f1e 	bne	r2,zero,10010ec <_ZN6Player13get_directionEv+0xac>
				switch(key){
 1001070:	e0bffc17 	ldw	r2,-16(fp)
 1001074:	e0bfff15 	stw	r2,-4(fp)
 1001078:	e0ffff17 	ldw	r3,-4(fp)
 100107c:	188000a0 	cmpeqi	r2,r3,2
 1001080:	1000111e 	bne	r2,zero,10010c8 <_ZN6Player13get_directionEv+0x88>
 1001084:	e0ffff17 	ldw	r3,-4(fp)
 1001088:	188000e8 	cmpgeui	r2,r3,3
 100108c:	1000041e 	bne	r2,zero,10010a0 <_ZN6Player13get_directionEv+0x60>
 1001090:	e0ffff17 	ldw	r3,-4(fp)
 1001094:	18800060 	cmpeqi	r2,r3,1
 1001098:	1000081e 	bne	r2,zero,10010bc <_ZN6Player13get_directionEv+0x7c>
 100109c:	00001306 	br	10010ec <_ZN6Player13get_directionEv+0xac>
 10010a0:	e0ffff17 	ldw	r3,-4(fp)
 10010a4:	18800120 	cmpeqi	r2,r3,4
 10010a8:	10000a1e 	bne	r2,zero,10010d4 <_ZN6Player13get_directionEv+0x94>
 10010ac:	e0ffff17 	ldw	r3,-4(fp)
 10010b0:	18800220 	cmpeqi	r2,r3,8
 10010b4:	10000a1e 	bne	r2,zero,10010e0 <_ZN6Player13get_directionEv+0xa0>
 10010b8:	00000c06 	br	10010ec <_ZN6Player13get_directionEv+0xac>
					case 1:
						return RIGHT;
 10010bc:	00801484 	movi	r2,82
 10010c0:	e0bffe15 	stw	r2,-8(fp)
 10010c4:	00000b06 	br	10010f4 <_ZN6Player13get_directionEv+0xb4>
						break;
					case 2:
						return LEFT;
 10010c8:	00c01304 	movi	r3,76
 10010cc:	e0fffe15 	stw	r3,-8(fp)
 10010d0:	00000806 	br	10010f4 <_ZN6Player13get_directionEv+0xb4>
						break;
					case 4:
						return DOWN;
 10010d4:	00801104 	movi	r2,68
 10010d8:	e0bffe15 	stw	r2,-8(fp)
 10010dc:	00000506 	br	10010f4 <_ZN6Player13get_directionEv+0xb4>
						break;
					case 8:
						return UP;
 10010e0:	00c01544 	movi	r3,85
 10010e4:	e0fffe15 	stw	r3,-8(fp)
 10010e8:	00000206 	br	10010f4 <_ZN6Player13get_directionEv+0xb4>
						break;
						}
					}
			return STAND;
 10010ec:	008014c4 	movi	r2,83
 10010f0:	e0bffe15 	stw	r2,-8(fp)
 10010f4:	e0bffe17 	ldw	r2,-8(fp)
		}
 10010f8:	e037883a 	mov	sp,fp
 10010fc:	df000017 	ldw	fp,0(sp)
 1001100:	dec00104 	addi	sp,sp,4
 1001104:	f800283a 	ret

01001108 <_ZN6PlayerC1Ev>:
 *  Contains player movement functions and variables
 */
#include "Player.h"
#include "MatrixMap.h"

	Player::Player(){//constructor creates player
 1001108:	defffd04 	addi	sp,sp,-12
 100110c:	dfc00215 	stw	ra,8(sp)
 1001110:	df000115 	stw	fp,4(sp)
 1001114:	df000104 	addi	fp,sp,4
 1001118:	e13fff15 	stw	r4,-4(fp)
 100111c:	e0bfff17 	ldw	r2,-4(fp)
 1001120:	11000704 	addi	r4,r2,28
 1001124:	10002200 	call	1000220 <_ZN4BombC1Ev>

		 //initialises position and health
		 life = 3;
 1001128:	e0ffff17 	ldw	r3,-4(fp)
 100112c:	008000c4 	movi	r2,3
 1001130:	18800515 	stw	r2,20(r3)
		 x_cord = 0;
 1001134:	e0bfff17 	ldw	r2,-4(fp)
 1001138:	10000115 	stw	zero,4(r2)
		 y_cord = 0;
 100113c:	e0bfff17 	ldw	r2,-4(fp)
 1001140:	10000215 	stw	zero,8(r2)

		 //initialises parallel port to read from direction from keys
		 parallel_port_dev = alt_up_parallel_port_open_dev("/dev/parallel_port_0");
 1001144:	010041b4 	movhi	r4,262
 1001148:	2123f204 	addi	r4,r4,-28728
 100114c:	10556fc0 	call	10556fc <alt_up_parallel_port_open_dev>
 1001150:	1007883a 	mov	r3,r2
 1001154:	e0bfff17 	ldw	r2,-4(fp)
 1001158:	10c00615 	stw	r3,24(r2)
			 if (parallel_port_dev == NULL)
 100115c:	e0bfff17 	ldw	r2,-4(fp)
 1001160:	10800617 	ldw	r2,24(r2)
 1001164:	1004c03a 	cmpne	r2,r2,zero
 1001168:	1000041e 	bne	r2,zero,100117c <_ZN6PlayerC1Ev+0x74>
					printf("Error: could not open Parallel Port device\n");
 100116c:	010041b4 	movhi	r4,262
 1001170:	2123f804 	addi	r4,r4,-28704
 1001174:	104574c0 	call	104574c <puts>
 1001178:	00000306 	br	1001188 <_ZN6PlayerC1Ev+0x80>
				 else
					printf("Opened Parallel Port device\n");
 100117c:	010041b4 	movhi	r4,262
 1001180:	21240304 	addi	r4,r4,-28660
 1001184:	104574c0 	call	104574c <puts>
	}
 1001188:	e037883a 	mov	sp,fp
 100118c:	dfc00117 	ldw	ra,4(sp)
 1001190:	df000017 	ldw	fp,0(sp)
 1001194:	dec00204 	addi	sp,sp,8
 1001198:	f800283a 	ret

0100119c <_ZN6PlayerC2Ev>:
 *  Contains player movement functions and variables
 */
#include "Player.h"
#include "MatrixMap.h"

	Player::Player(){//constructor creates player
 100119c:	defffd04 	addi	sp,sp,-12
 10011a0:	dfc00215 	stw	ra,8(sp)
 10011a4:	df000115 	stw	fp,4(sp)
 10011a8:	df000104 	addi	fp,sp,4
 10011ac:	e13fff15 	stw	r4,-4(fp)
 10011b0:	e0bfff17 	ldw	r2,-4(fp)
 10011b4:	11000704 	addi	r4,r2,28
 10011b8:	10002200 	call	1000220 <_ZN4BombC1Ev>

		 //initialises position and health
		 life = 3;
 10011bc:	e0ffff17 	ldw	r3,-4(fp)
 10011c0:	008000c4 	movi	r2,3
 10011c4:	18800515 	stw	r2,20(r3)
		 x_cord = 0;
 10011c8:	e0bfff17 	ldw	r2,-4(fp)
 10011cc:	10000115 	stw	zero,4(r2)
		 y_cord = 0;
 10011d0:	e0bfff17 	ldw	r2,-4(fp)
 10011d4:	10000215 	stw	zero,8(r2)

		 //initialises parallel port to read from direction from keys
		 parallel_port_dev = alt_up_parallel_port_open_dev("/dev/parallel_port_0");
 10011d8:	010041b4 	movhi	r4,262
 10011dc:	2123f204 	addi	r4,r4,-28728
 10011e0:	10556fc0 	call	10556fc <alt_up_parallel_port_open_dev>
 10011e4:	1007883a 	mov	r3,r2
 10011e8:	e0bfff17 	ldw	r2,-4(fp)
 10011ec:	10c00615 	stw	r3,24(r2)
			 if (parallel_port_dev == NULL)
 10011f0:	e0bfff17 	ldw	r2,-4(fp)
 10011f4:	10800617 	ldw	r2,24(r2)
 10011f8:	1004c03a 	cmpne	r2,r2,zero
 10011fc:	1000041e 	bne	r2,zero,1001210 <_ZN6PlayerC2Ev+0x74>
					printf("Error: could not open Parallel Port device\n");
 1001200:	010041b4 	movhi	r4,262
 1001204:	2123f804 	addi	r4,r4,-28704
 1001208:	104574c0 	call	104574c <puts>
 100120c:	00000306 	br	100121c <_ZN6PlayerC2Ev+0x80>
				 else
					printf("Opened Parallel Port device\n");
 1001210:	010041b4 	movhi	r4,262
 1001214:	21240304 	addi	r4,r4,-28660
 1001218:	104574c0 	call	104574c <puts>
	}
 100121c:	e037883a 	mov	sp,fp
 1001220:	dfc00117 	ldw	ra,4(sp)
 1001224:	df000017 	ldw	fp,0(sp)
 1001228:	dec00204 	addi	sp,sp,8
 100122c:	f800283a 	ret

01001230 <_ZN10VGA_Screen16init_char_bufferEv>:
	alt_up_pixel_buffer_dma_dev* pixel_buffer_temp =
			alt_up_pixel_buffer_dma_open_dev("/dev/buffer_dma");
	return pixel_buffer_temp;
}

alt_up_char_buffer_dev* VGA_Screen::init_char_buffer() {
 1001230:	defffc04 	addi	sp,sp,-16
 1001234:	dfc00315 	stw	ra,12(sp)
 1001238:	df000215 	stw	fp,8(sp)
 100123c:	df000204 	addi	fp,sp,8
 1001240:	e13fff15 	stw	r4,-4(fp)
	printf("Initializing Char Buffer \n");
 1001244:	010041b4 	movhi	r4,262
 1001248:	21240a04 	addi	r4,r4,-28632
 100124c:	104574c0 	call	104574c <puts>
	alt_up_char_buffer_dev* char_buffer;
	char_buffer = alt_up_char_buffer_open_dev(
			"/dev/video_character_buffer_with_dma_0");
 1001250:	010041b4 	movhi	r4,262
 1001254:	21241104 	addi	r4,r4,-28604
 1001258:	10557c00 	call	10557c0 <alt_up_char_buffer_open_dev>
 100125c:	e0bffe15 	stw	r2,-8(fp)
	alt_up_char_buffer_init(char_buffer);
 1001260:	e13ffe17 	ldw	r4,-8(fp)
 1001264:	105573c0 	call	105573c <alt_up_char_buffer_init>
	return char_buffer;
 1001268:	e0bffe17 	ldw	r2,-8(fp)

}
 100126c:	e037883a 	mov	sp,fp
 1001270:	dfc00117 	ldw	ra,4(sp)
 1001274:	df000017 	ldw	fp,0(sp)
 1001278:	dec00204 	addi	sp,sp,8
 100127c:	f800283a 	ret

01001280 <_ZN10VGA_Screen17init_pixel_bufferEv>:
	alt_up_pixel_buffer_dma_clear_screen(pixel_buffer, 0);

}

//Private Methods. Does not need to be changed, called by the init() function
alt_up_pixel_buffer_dma_dev* VGA_Screen::init_pixel_buffer() {
 1001280:	defffc04 	addi	sp,sp,-16
 1001284:	dfc00315 	stw	ra,12(sp)
 1001288:	df000215 	stw	fp,8(sp)
 100128c:	df000204 	addi	fp,sp,8
 1001290:	e13fff15 	stw	r4,-4(fp)
	printf("Initializing Pixel Buffer \n");
 1001294:	010041b4 	movhi	r4,262
 1001298:	21241b04 	addi	r4,r4,-28564
 100129c:	104574c0 	call	104574c <puts>
	alt_up_pixel_buffer_dma_dev* pixel_buffer_temp =
			alt_up_pixel_buffer_dma_open_dev("/dev/buffer_dma");
 10012a0:	010041b4 	movhi	r4,262
 10012a4:	21242204 	addi	r4,r4,-28536
 10012a8:	1055a400 	call	1055a40 <alt_up_pixel_buffer_dma_open_dev>
 10012ac:	e0bffe15 	stw	r2,-8(fp)
	return pixel_buffer_temp;
 10012b0:	e0bffe17 	ldw	r2,-8(fp)
}
 10012b4:	e037883a 	mov	sp,fp
 10012b8:	dfc00117 	ldw	ra,4(sp)
 10012bc:	df000017 	ldw	fp,0(sp)
 10012c0:	dec00204 	addi	sp,sp,8
 10012c4:	f800283a 	ret

010012c8 <_ZN10VGA_ScreenC1Ev>:
#define player_color 0x0000
#define a_block_color 0x0234
#define bomb_color 0x6969

// Constructor
VGA_Screen::VGA_Screen() {
 10012c8:	defffd04 	addi	sp,sp,-12
 10012cc:	dfc00215 	stw	ra,8(sp)
 10012d0:	df000115 	stw	fp,4(sp)
 10012d4:	df000104 	addi	fp,sp,4
 10012d8:	e13fff15 	stw	r4,-4(fp)
	printf("Constructing VGA Screen \n");
 10012dc:	010041b4 	movhi	r4,262
 10012e0:	21242604 	addi	r4,r4,-28520
 10012e4:	104574c0 	call	104574c <puts>
	this->pixel_buffer = init_pixel_buffer();
 10012e8:	e13fff17 	ldw	r4,-4(fp)
 10012ec:	10012800 	call	1001280 <_ZN10VGA_Screen17init_pixel_bufferEv>
 10012f0:	1007883a 	mov	r3,r2
 10012f4:	e0bfff17 	ldw	r2,-4(fp)
 10012f8:	10c00015 	stw	r3,0(r2)
	this->char_buffer = init_char_buffer();
 10012fc:	e13fff17 	ldw	r4,-4(fp)
 1001300:	10012300 	call	1001230 <_ZN10VGA_Screen16init_char_bufferEv>
 1001304:	1007883a 	mov	r3,r2
 1001308:	e0bfff17 	ldw	r2,-4(fp)
 100130c:	10c00115 	stw	r3,4(r2)
}
 1001310:	e037883a 	mov	sp,fp
 1001314:	dfc00117 	ldw	ra,4(sp)
 1001318:	df000017 	ldw	fp,0(sp)
 100131c:	dec00204 	addi	sp,sp,8
 1001320:	f800283a 	ret

01001324 <_ZN10VGA_ScreenC2Ev>:
#define player_color 0x0000
#define a_block_color 0x0234
#define bomb_color 0x6969

// Constructor
VGA_Screen::VGA_Screen() {
 1001324:	defffd04 	addi	sp,sp,-12
 1001328:	dfc00215 	stw	ra,8(sp)
 100132c:	df000115 	stw	fp,4(sp)
 1001330:	df000104 	addi	fp,sp,4
 1001334:	e13fff15 	stw	r4,-4(fp)
	printf("Constructing VGA Screen \n");
 1001338:	010041b4 	movhi	r4,262
 100133c:	21242604 	addi	r4,r4,-28520
 1001340:	104574c0 	call	104574c <puts>
	this->pixel_buffer = init_pixel_buffer();
 1001344:	e13fff17 	ldw	r4,-4(fp)
 1001348:	10012800 	call	1001280 <_ZN10VGA_Screen17init_pixel_bufferEv>
 100134c:	1007883a 	mov	r3,r2
 1001350:	e0bfff17 	ldw	r2,-4(fp)
 1001354:	10c00015 	stw	r3,0(r2)
	this->char_buffer = init_char_buffer();
 1001358:	e13fff17 	ldw	r4,-4(fp)
 100135c:	10012300 	call	1001230 <_ZN10VGA_Screen16init_char_bufferEv>
 1001360:	1007883a 	mov	r3,r2
 1001364:	e0bfff17 	ldw	r2,-4(fp)
 1001368:	10c00115 	stw	r3,4(r2)
}
 100136c:	e037883a 	mov	sp,fp
 1001370:	dfc00117 	ldw	ra,4(sp)
 1001374:	df000017 	ldw	fp,0(sp)
 1001378:	dec00204 	addi	sp,sp,8
 100137c:	f800283a 	ret

01001380 <_ZN10VGA_Screen12clear_screenEP27alt_up_pixel_buffer_dma_dev>:
	while (IORD_32DIRECT(drawer_base,20) == 0)
		; // wait until done
}

// Clears screen. Can't clear characters, needs to be checked out
void VGA_Screen::clear_screen(alt_up_pixel_buffer_dma_dev* pixel_buffer) {
 1001380:	defffc04 	addi	sp,sp,-16
 1001384:	dfc00315 	stw	ra,12(sp)
 1001388:	df000215 	stw	fp,8(sp)
 100138c:	df000204 	addi	fp,sp,8
 1001390:	e13ffe15 	stw	r4,-8(fp)
 1001394:	e17fff15 	stw	r5,-4(fp)
	printf("Clearing Screen \n");
 1001398:	010041b4 	movhi	r4,262
 100139c:	21242d04 	addi	r4,r4,-28492
 10013a0:	104574c0 	call	104574c <puts>
	alt_up_pixel_buffer_dma_clear_screen(pixel_buffer, 0);
 10013a4:	e13fff17 	ldw	r4,-4(fp)
 10013a8:	000b883a 	mov	r5,zero
 10013ac:	1055d100 	call	1055d10 <alt_up_pixel_buffer_dma_clear_screen>

}
 10013b0:	e037883a 	mov	sp,fp
 10013b4:	dfc00117 	ldw	ra,4(sp)
 10013b8:	df000017 	ldw	fp,0(sp)
 10013bc:	dec00204 	addi	sp,sp,8
 10013c0:	f800283a 	ret

010013c4 <_ZN10VGA_Screen12paint_screenEP27alt_up_pixel_buffer_dma_devi>:
	}

}
// paints screen black, you can change color in coding
void VGA_Screen::paint_screen(alt_up_pixel_buffer_dma_dev* pixel_buffer,
		int color) {
 10013c4:	defffb04 	addi	sp,sp,-20
 10013c8:	dfc00415 	stw	ra,16(sp)
 10013cc:	df000315 	stw	fp,12(sp)
 10013d0:	df000304 	addi	fp,sp,12
 10013d4:	e13ffd15 	stw	r4,-12(fp)
 10013d8:	e17ffe15 	stw	r5,-8(fp)
 10013dc:	e1bfff15 	stw	r6,-4(fp)
	printf("Painting Screen White \n");
 10013e0:	010041b4 	movhi	r4,262
 10013e4:	21243204 	addi	r4,r4,-28472
 10013e8:	104574c0 	call	104574c <puts>
	IOWR_32DIRECT(drawer_base, 0, 0);
 10013ec:	00884004 	movi	r2,8448
 10013f0:	10000035 	stwio	zero,0(r2)
	// Set x1
	IOWR_32DIRECT(drawer_base, 4, 0);
 10013f4:	00884104 	movi	r2,8452
 10013f8:	10000035 	stwio	zero,0(r2)
	// Set y1
	IOWR_32DIRECT(drawer_base, 8, 320);
 10013fc:	00c84204 	movi	r3,8456
 1001400:	00805004 	movi	r2,320
 1001404:	18800035 	stwio	r2,0(r3)
	// Set x2
	IOWR_32DIRECT(drawer_base, 12, 240);
 1001408:	00c84304 	movi	r3,8460
 100140c:	00803c04 	movi	r2,240
 1001410:	18800035 	stwio	r2,0(r3)
	// Set y2
	IOWR_32DIRECT(drawer_base, 16, color);
 1001414:	00c84404 	movi	r3,8464
 1001418:	e0bfff17 	ldw	r2,-4(fp)
 100141c:	18800035 	stwio	r2,0(r3)
	// Set colour
	IOWR_32DIRECT(drawer_base, 20, 1);
 1001420:	00c84504 	movi	r3,8468
 1001424:	00800044 	movi	r2,1
 1001428:	18800035 	stwio	r2,0(r3)
	// Start drawing
	while (IORD_32DIRECT(drawer_base,20) == 0)
 100142c:	00884504 	movi	r2,8468
 1001430:	10800037 	ldwio	r2,0(r2)
 1001434:	1005003a 	cmpeq	r2,r2,zero
 1001438:	10803fcc 	andi	r2,r2,255
 100143c:	1004c03a 	cmpne	r2,r2,zero
 1001440:	103ffa1e 	bne	r2,zero,100142c <_ZN10VGA_Screen12paint_screenEP27alt_up_pixel_buffer_dma_devi+0x68>
		; // wait until done
}
 1001444:	e037883a 	mov	sp,fp
 1001448:	dfc00117 	ldw	ra,4(sp)
 100144c:	df000017 	ldw	fp,0(sp)
 1001450:	dec00204 	addi	sp,sp,8
 1001454:	f800283a 	ret

01001458 <_ZN10VGA_Screen12draw_patternEP27alt_up_pixel_buffer_dma_deviii>:
				alt_up_pixel_buffer_dma_draw(pixel_buffer, color, x, y);

}
//
void VGA_Screen::draw_pattern(alt_up_pixel_buffer_dma_dev* pixel_buffer,
		int x_0, int y_0, int color) {
 1001458:	defff804 	addi	sp,sp,-32
 100145c:	dfc00715 	stw	ra,28(sp)
 1001460:	df000615 	stw	fp,24(sp)
 1001464:	df000604 	addi	fp,sp,24
 1001468:	e13ffc15 	stw	r4,-16(fp)
 100146c:	e17ffd15 	stw	r5,-12(fp)
 1001470:	e1bffe15 	stw	r6,-8(fp)
 1001474:	e1ffff15 	stw	r7,-4(fp)
	printf("drawing pattern \n");
 1001478:	010041b4 	movhi	r4,262
 100147c:	21243804 	addi	r4,r4,-28448
 1001480:	104574c0 	call	104574c <puts>

	for (int i = 0; i < 4; i++) {
 1001484:	e03ffb15 	stw	zero,-20(fp)
 1001488:	00004f06 	br	10015c8 <_ZN10VGA_Screen12draw_patternEP27alt_up_pixel_buffer_dma_deviii+0x170>
		for (int j = 0; j < 4; j++) {
 100148c:	e03ffa15 	stw	zero,-24(fp)
 1001490:	00004706 	br	10015b0 <_ZN10VGA_Screen12draw_patternEP27alt_up_pixel_buffer_dma_deviii+0x158>
			IOWR_32DIRECT(drawer_base, 0, x_0 + (j*5));
 1001494:	e13ffa17 	ldw	r4,-24(fp)
 1001498:	01400144 	movi	r5,5
 100149c:	10423ec0 	call	10423ec <__mulsi3>
 10014a0:	1007883a 	mov	r3,r2
 10014a4:	e0bffe17 	ldw	r2,-8(fp)
 10014a8:	1887883a 	add	r3,r3,r2
 10014ac:	00884004 	movi	r2,8448
 10014b0:	10c00035 	stwio	r3,0(r2)
			// Set x1
			IOWR_32DIRECT(drawer_base, 4, y_0 + (i*5));
 10014b4:	e13ffb17 	ldw	r4,-20(fp)
 10014b8:	01400144 	movi	r5,5
 10014bc:	10423ec0 	call	10423ec <__mulsi3>
 10014c0:	1007883a 	mov	r3,r2
 10014c4:	e0bfff17 	ldw	r2,-4(fp)
 10014c8:	1887883a 	add	r3,r3,r2
 10014cc:	00884104 	movi	r2,8452
 10014d0:	10c00035 	stwio	r3,0(r2)
			// Set y1
			IOWR_32DIRECT(drawer_base, 8, x_0 + (j*5) + 5);
 10014d4:	e13ffa17 	ldw	r4,-24(fp)
 10014d8:	01400144 	movi	r5,5
 10014dc:	10423ec0 	call	10423ec <__mulsi3>
 10014e0:	1007883a 	mov	r3,r2
 10014e4:	e0bffe17 	ldw	r2,-8(fp)
 10014e8:	1885883a 	add	r2,r3,r2
 10014ec:	10c00144 	addi	r3,r2,5
 10014f0:	00884204 	movi	r2,8456
 10014f4:	10c00035 	stwio	r3,0(r2)
			// Set x2
			IOWR_32DIRECT(drawer_base, 12, y_0 + (i*5) + 5);
 10014f8:	e13ffb17 	ldw	r4,-20(fp)
 10014fc:	01400144 	movi	r5,5
 1001500:	10423ec0 	call	10423ec <__mulsi3>
 1001504:	1007883a 	mov	r3,r2
 1001508:	e0bfff17 	ldw	r2,-4(fp)
 100150c:	1885883a 	add	r2,r3,r2
 1001510:	10c00144 	addi	r3,r2,5
 1001514:	00884304 	movi	r2,8460
 1001518:	10c00035 	stwio	r3,0(r2)
			// Set y2
			if (i % 2 == 0) {
 100151c:	e0bffb17 	ldw	r2,-20(fp)
 1001520:	1080004c 	andi	r2,r2,1
 1001524:	1004c03a 	cmpne	r2,r2,zero
 1001528:	10000b1e 	bne	r2,zero,1001558 <_ZN10VGA_Screen12draw_patternEP27alt_up_pixel_buffer_dma_deviii+0x100>
				if (j % 2 == 0) {
 100152c:	e0bffa17 	ldw	r2,-24(fp)
 1001530:	1080004c 	andi	r2,r2,1
 1001534:	1004c03a 	cmpne	r2,r2,zero
 1001538:	1000031e 	bne	r2,zero,1001548 <_ZN10VGA_Screen12draw_patternEP27alt_up_pixel_buffer_dma_deviii+0xf0>
					IOWR_32DIRECT(drawer_base, 16, 0x0000);
 100153c:	00884404 	movi	r2,8464
 1001540:	10000035 	stwio	zero,0(r2)
 1001544:	00000e06 	br	1001580 <_ZN10VGA_Screen12draw_patternEP27alt_up_pixel_buffer_dma_deviii+0x128>
					// Set colour
				} else {
					IOWR_32DIRECT(drawer_base, 16, 0xFFFF);
 1001548:	00c84404 	movi	r3,8464
 100154c:	00bfffd4 	movui	r2,65535
 1001550:	18800035 	stwio	r2,0(r3)
 1001554:	00000a06 	br	1001580 <_ZN10VGA_Screen12draw_patternEP27alt_up_pixel_buffer_dma_deviii+0x128>
				}
			} else {
				if (j % 2 == 0) {
 1001558:	e0bffa17 	ldw	r2,-24(fp)
 100155c:	1080004c 	andi	r2,r2,1
 1001560:	1004c03a 	cmpne	r2,r2,zero
 1001564:	1000041e 	bne	r2,zero,1001578 <_ZN10VGA_Screen12draw_patternEP27alt_up_pixel_buffer_dma_deviii+0x120>
					IOWR_32DIRECT(drawer_base, 16, 0xFFFF);
 1001568:	00c84404 	movi	r3,8464
 100156c:	00bfffd4 	movui	r2,65535
 1001570:	18800035 	stwio	r2,0(r3)
 1001574:	00000206 	br	1001580 <_ZN10VGA_Screen12draw_patternEP27alt_up_pixel_buffer_dma_deviii+0x128>
					// Set colour
				} else {
					IOWR_32DIRECT(drawer_base, 16, 0x0000);
 1001578:	00884404 	movi	r2,8464
 100157c:	10000035 	stwio	zero,0(r2)
				}
			}
			IOWR_32DIRECT(drawer_base, 20, 1);
 1001580:	00c84504 	movi	r3,8468
 1001584:	00800044 	movi	r2,1
 1001588:	18800035 	stwio	r2,0(r3)
			// Start drawing
			while (IORD_32DIRECT(drawer_base,20) == 0)
 100158c:	00884504 	movi	r2,8468
 1001590:	10800037 	ldwio	r2,0(r2)
 1001594:	1005003a 	cmpeq	r2,r2,zero
 1001598:	10803fcc 	andi	r2,r2,255
 100159c:	1004c03a 	cmpne	r2,r2,zero
 10015a0:	103ffa1e 	bne	r2,zero,100158c <_ZN10VGA_Screen12draw_patternEP27alt_up_pixel_buffer_dma_deviii+0x134>
void VGA_Screen::draw_pattern(alt_up_pixel_buffer_dma_dev* pixel_buffer,
		int x_0, int y_0, int color) {
	printf("drawing pattern \n");

	for (int i = 0; i < 4; i++) {
		for (int j = 0; j < 4; j++) {
 10015a4:	e0bffa17 	ldw	r2,-24(fp)
 10015a8:	10800044 	addi	r2,r2,1
 10015ac:	e0bffa15 	stw	r2,-24(fp)
 10015b0:	e0bffa17 	ldw	r2,-24(fp)
 10015b4:	10800110 	cmplti	r2,r2,4
 10015b8:	103fb61e 	bne	r2,zero,1001494 <_ZN10VGA_Screen12draw_patternEP27alt_up_pixel_buffer_dma_deviii+0x3c>
//
void VGA_Screen::draw_pattern(alt_up_pixel_buffer_dma_dev* pixel_buffer,
		int x_0, int y_0, int color) {
	printf("drawing pattern \n");

	for (int i = 0; i < 4; i++) {
 10015bc:	e0bffb17 	ldw	r2,-20(fp)
 10015c0:	10800044 	addi	r2,r2,1
 10015c4:	e0bffb15 	stw	r2,-20(fp)
 10015c8:	e0bffb17 	ldw	r2,-20(fp)
 10015cc:	10800110 	cmplti	r2,r2,4
 10015d0:	103fae1e 	bne	r2,zero,100148c <_ZN10VGA_Screen12draw_patternEP27alt_up_pixel_buffer_dma_deviii+0x34>
			//color = color + 0x0823FF;
		}

	}

}
 10015d4:	e037883a 	mov	sp,fp
 10015d8:	dfc00117 	ldw	ra,4(sp)
 10015dc:	df000017 	ldw	fp,0(sp)
 10015e0:	dec00204 	addi	sp,sp,8
 10015e4:	f800283a 	ret

010015e8 <_ZN10VGA_Screen10draw_boxesEP27alt_up_pixel_buffer_dma_deviiiii>:
	alt_up_pixel_buffer_dma_draw_line(pixel_buffer, 0, 0, 320, 240, 0x00ff, 0);
}

//
void VGA_Screen::draw_boxes(alt_up_pixel_buffer_dma_dev* pixel_buffer, int x_0,
		int x_1, int y_0, int y_1, int color) {
 10015e8:	defff904 	addi	sp,sp,-28
 10015ec:	dfc00615 	stw	ra,24(sp)
 10015f0:	df000515 	stw	fp,20(sp)
 10015f4:	df000504 	addi	fp,sp,20
 10015f8:	e13ffc15 	stw	r4,-16(fp)
 10015fc:	e17ffd15 	stw	r5,-12(fp)
 1001600:	e1bffe15 	stw	r6,-8(fp)
 1001604:	e1ffff15 	stw	r7,-4(fp)

	printf("Drawing Box \n");
 1001608:	010041b4 	movhi	r4,262
 100160c:	21243d04 	addi	r4,r4,-28428
 1001610:	104574c0 	call	104574c <puts>
	if (color == i_block_color) {
 1001614:	e0c00417 	ldw	r3,16(fp)
 1001618:	00bfe3d4 	movui	r2,65423
 100161c:	1880081e 	bne	r3,r2,1001640 <_ZN10VGA_Screen10draw_boxesEP27alt_up_pixel_buffer_dma_deviiiii+0x58>
		this->draw_pattern(pixel_buffer, x_0, y_0, color);
 1001620:	e0800417 	ldw	r2,16(fp)
 1001624:	d8800015 	stw	r2,0(sp)
 1001628:	e13ffc17 	ldw	r4,-16(fp)
 100162c:	e17ffd17 	ldw	r5,-12(fp)
 1001630:	e1bffe17 	ldw	r6,-8(fp)
 1001634:	e1c00217 	ldw	r7,8(fp)
 1001638:	10014580 	call	1001458 <_ZN10VGA_Screen12draw_patternEP27alt_up_pixel_buffer_dma_deviii>
 100163c:	00001806 	br	10016a0 <_ZN10VGA_Screen10draw_boxesEP27alt_up_pixel_buffer_dma_deviiiii+0xb8>
//	} else if (color == player_color) {
//		this->draw_player(pixel_buffer, x_0, y_0, color);
	} else {
		IOWR_32DIRECT(drawer_base, 0, x_0);
 1001640:	00c84004 	movi	r3,8448
 1001644:	e0bffe17 	ldw	r2,-8(fp)
 1001648:	18800035 	stwio	r2,0(r3)
		// Set x1
		IOWR_32DIRECT(drawer_base, 4, y_0);
 100164c:	00c84104 	movi	r3,8452
 1001650:	e0800217 	ldw	r2,8(fp)
 1001654:	18800035 	stwio	r2,0(r3)
		// Set y1
		IOWR_32DIRECT(drawer_base, 8, x_1);
 1001658:	00c84204 	movi	r3,8456
 100165c:	e0bfff17 	ldw	r2,-4(fp)
 1001660:	18800035 	stwio	r2,0(r3)
		// Set x2
		IOWR_32DIRECT(drawer_base, 12, y_1);
 1001664:	00c84304 	movi	r3,8460
 1001668:	e0800317 	ldw	r2,12(fp)
 100166c:	18800035 	stwio	r2,0(r3)
		// Set y2
		IOWR_32DIRECT(drawer_base, 16, color);
 1001670:	00c84404 	movi	r3,8464
 1001674:	e0800417 	ldw	r2,16(fp)
 1001678:	18800035 	stwio	r2,0(r3)
		// Set colour
		IOWR_32DIRECT(drawer_base, 20, 1);
 100167c:	00c84504 	movi	r3,8468
 1001680:	00800044 	movi	r2,1
 1001684:	18800035 	stwio	r2,0(r3)
		// Start drawing
		while (IORD_32DIRECT(drawer_base,20) == 0)
 1001688:	00884504 	movi	r2,8468
 100168c:	10800037 	ldwio	r2,0(r2)
 1001690:	1005003a 	cmpeq	r2,r2,zero
 1001694:	10803fcc 	andi	r2,r2,255
 1001698:	1004c03a 	cmpne	r2,r2,zero
 100169c:	103ffa1e 	bne	r2,zero,1001688 <_ZN10VGA_Screen10draw_boxesEP27alt_up_pixel_buffer_dma_deviiiii+0xa0>
			; // wait until done
	}
}
 10016a0:	e037883a 	mov	sp,fp
 10016a4:	dfc00117 	ldw	ra,4(sp)
 10016a8:	df000017 	ldw	fp,0(sp)
 10016ac:	dec00204 	addi	sp,sp,8
 10016b0:	f800283a 	ret

010016b4 <_ZN10VGA_Screen24draw_box_from_coordinateEiic>:
		}
	}
}

// Drawing 20x20 box: takes in top left coordinate of box
void VGA_Screen::draw_box_from_coordinate(int x, int y, char c) {
 10016b4:	defff404 	addi	sp,sp,-48
 10016b8:	dfc00b15 	stw	ra,44(sp)
 10016bc:	df000a15 	stw	fp,40(sp)
 10016c0:	df000a04 	addi	fp,sp,40
 10016c4:	e13ffc15 	stw	r4,-16(fp)
 10016c8:	e17ffd15 	stw	r5,-12(fp)
 10016cc:	e1bffe15 	stw	r6,-8(fp)
 10016d0:	e1ffff05 	stb	r7,-4(fp)
	int x_scaled = x * 20 + 50;
 10016d4:	e13ffd17 	ldw	r4,-12(fp)
 10016d8:	01400504 	movi	r5,20
 10016dc:	10423ec0 	call	10423ec <__mulsi3>
 10016e0:	10800c84 	addi	r2,r2,50
 10016e4:	e0bffb15 	stw	r2,-20(fp)
	int y_scaled = y * 20 + 10;
 10016e8:	e13ffe17 	ldw	r4,-8(fp)
 10016ec:	01400504 	movi	r5,20
 10016f0:	10423ec0 	call	10423ec <__mulsi3>
 10016f4:	10800284 	addi	r2,r2,10
 10016f8:	e0bffa15 	stw	r2,-24(fp)
	int color;
	if (c == 'o') {
 10016fc:	e0bfff07 	ldb	r2,-4(fp)
 1001700:	10801bd8 	cmpnei	r2,r2,111
 1001704:	1000031e 	bne	r2,zero,1001714 <_ZN10VGA_Screen24draw_box_from_coordinateEiic+0x60>
		color = i_block_color;
 1001708:	00bfe3d4 	movui	r2,65423
 100170c:	e0bff915 	stw	r2,-28(fp)
 1001710:	00001c06 	br	1001784 <_ZN10VGA_Screen24draw_box_from_coordinateEiic+0xd0>
	} else if (c == 'x') {
 1001714:	e0bfff07 	ldb	r2,-4(fp)
 1001718:	10801e18 	cmpnei	r2,r2,120
 100171c:	1000041e 	bne	r2,zero,1001730 <_ZN10VGA_Screen24draw_box_from_coordinateEiic+0x7c>
		color = path_color;
 1001720:	00803ff4 	movhi	r2,255
 1001724:	10914004 	addi	r2,r2,17664
 1001728:	e0bff915 	stw	r2,-28(fp)
 100172c:	00001506 	br	1001784 <_ZN10VGA_Screen24draw_box_from_coordinateEiic+0xd0>
	} else if (c == 'p') {
 1001730:	e0bfff07 	ldb	r2,-4(fp)
 1001734:	10801c18 	cmpnei	r2,r2,112
 1001738:	1000021e 	bne	r2,zero,1001744 <_ZN10VGA_Screen24draw_box_from_coordinateEiic+0x90>
		color = player_color;
 100173c:	e03ff915 	stw	zero,-28(fp)
 1001740:	00001006 	br	1001784 <_ZN10VGA_Screen24draw_box_from_coordinateEiic+0xd0>
	} else if (c == 'a') {
 1001744:	e0bfff07 	ldb	r2,-4(fp)
 1001748:	10801858 	cmpnei	r2,r2,97
 100174c:	1000031e 	bne	r2,zero,100175c <_ZN10VGA_Screen24draw_box_from_coordinateEiic+0xa8>
		color = a_block_color;
 1001750:	00808d04 	movi	r2,564
 1001754:	e0bff915 	stw	r2,-28(fp)
 1001758:	00000a06 	br	1001784 <_ZN10VGA_Screen24draw_box_from_coordinateEiic+0xd0>
	} else if (c == 'b') {
 100175c:	e0bfff07 	ldb	r2,-4(fp)
 1001760:	10801898 	cmpnei	r2,r2,98
 1001764:	1000031e 	bne	r2,zero,1001774 <_ZN10VGA_Screen24draw_box_from_coordinateEiic+0xc0>
		color = bomb_color;
 1001768:	009a5a44 	movi	r2,26985
 100176c:	e0bff915 	stw	r2,-28(fp)
 1001770:	00000406 	br	1001784 <_ZN10VGA_Screen24draw_box_from_coordinateEiic+0xd0>
	} else {
		printf("check your character array, something is wrong");
 1001774:	010041b4 	movhi	r4,262
 1001778:	21244104 	addi	r4,r4,-28412
 100177c:	10454240 	call	1045424 <printf>
		return;
 1001780:	00000e06 	br	10017bc <_ZN10VGA_Screen24draw_box_from_coordinateEiic+0x108>
	}
	this->draw_boxes(this->pixel_buffer, x_scaled, x_scaled + 20, y_scaled,
			y_scaled + 20, color);
 1001784:	e0bffc17 	ldw	r2,-16(fp)
 1001788:	11400017 	ldw	r5,0(r2)
 100178c:	e0bffb17 	ldw	r2,-20(fp)
 1001790:	11c00504 	addi	r7,r2,20
 1001794:	e0bffa17 	ldw	r2,-24(fp)
 1001798:	10c00504 	addi	r3,r2,20
 100179c:	e0bffa17 	ldw	r2,-24(fp)
 10017a0:	d8800015 	stw	r2,0(sp)
 10017a4:	d8c00115 	stw	r3,4(sp)
 10017a8:	e0bff917 	ldw	r2,-28(fp)
 10017ac:	d8800215 	stw	r2,8(sp)
 10017b0:	e13ffc17 	ldw	r4,-16(fp)
 10017b4:	e1bffb17 	ldw	r6,-20(fp)
 10017b8:	10015e80 	call	10015e8 <_ZN10VGA_Screen10draw_boxesEP27alt_up_pixel_buffer_dma_deviiiii>
}
 10017bc:	e037883a 	mov	sp,fp
 10017c0:	dfc00117 	ldw	ra,4(sp)
 10017c4:	df000017 	ldw	fp,0(sp)
 10017c8:	dec00204 	addi	sp,sp,8
 10017cc:	f800283a 	ret

010017d0 <_ZN10VGA_Screen10clear_bombEii>:

void VGA_Screen::draw_bomb(int x, int y) {
	this->draw_box_from_coordinate(x, y, 'b');
}

void VGA_Screen::clear_bomb(int x, int y) {
 10017d0:	defffb04 	addi	sp,sp,-20
 10017d4:	dfc00415 	stw	ra,16(sp)
 10017d8:	df000315 	stw	fp,12(sp)
 10017dc:	df000304 	addi	fp,sp,12
 10017e0:	e13ffd15 	stw	r4,-12(fp)
 10017e4:	e17ffe15 	stw	r5,-8(fp)
 10017e8:	e1bfff15 	stw	r6,-4(fp)
	this->draw_box_from_coordinate(x, y, 'x');
 10017ec:	e13ffd17 	ldw	r4,-12(fp)
 10017f0:	e17ffe17 	ldw	r5,-8(fp)
 10017f4:	e1bfff17 	ldw	r6,-4(fp)
 10017f8:	01c01e04 	movi	r7,120
 10017fc:	10016b40 	call	10016b4 <_ZN10VGA_Screen24draw_box_from_coordinateEiic>
}
 1001800:	e037883a 	mov	sp,fp
 1001804:	dfc00117 	ldw	ra,4(sp)
 1001808:	df000017 	ldw	fp,0(sp)
 100180c:	dec00204 	addi	sp,sp,8
 1001810:	f800283a 	ret

01001814 <_ZN10VGA_Screen9draw_bombEii>:
		this->draw_box_from_coordinate(old_x, old_y, 'x');
		this->draw_box_from_coordinate(new_x, new_y, 'p');
	}
}

void VGA_Screen::draw_bomb(int x, int y) {
 1001814:	defffb04 	addi	sp,sp,-20
 1001818:	dfc00415 	stw	ra,16(sp)
 100181c:	df000315 	stw	fp,12(sp)
 1001820:	df000304 	addi	fp,sp,12
 1001824:	e13ffd15 	stw	r4,-12(fp)
 1001828:	e17ffe15 	stw	r5,-8(fp)
 100182c:	e1bfff15 	stw	r6,-4(fp)
	this->draw_box_from_coordinate(x, y, 'b');
 1001830:	e13ffd17 	ldw	r4,-12(fp)
 1001834:	e17ffe17 	ldw	r5,-8(fp)
 1001838:	e1bfff17 	ldw	r6,-4(fp)
 100183c:	01c01884 	movi	r7,98
 1001840:	10016b40 	call	10016b4 <_ZN10VGA_Screen24draw_box_from_coordinateEiic>
}
 1001844:	e037883a 	mov	sp,fp
 1001848:	dfc00117 	ldw	ra,4(sp)
 100184c:	df000017 	ldw	fp,0(sp)
 1001850:	dec00204 	addi	sp,sp,8
 1001854:	f800283a 	ret

01001858 <_ZN10VGA_Screen23erase_and_redraw_playerEiiii>:
	this->draw_boxes(this->pixel_buffer, x_scaled, x_scaled + 20, y_scaled,
			y_scaled + 20, color);
}

void VGA_Screen::erase_and_redraw_player(int old_x, int old_y, int new_x,
		int new_y) {
 1001858:	defffa04 	addi	sp,sp,-24
 100185c:	dfc00515 	stw	ra,20(sp)
 1001860:	df000415 	stw	fp,16(sp)
 1001864:	df000404 	addi	fp,sp,16
 1001868:	e13ffc15 	stw	r4,-16(fp)
 100186c:	e17ffd15 	stw	r5,-12(fp)
 1001870:	e1bffe15 	stw	r6,-8(fp)
 1001874:	e1ffff15 	stw	r7,-4(fp)
	if (!((old_x == new_x) && (old_y == new_y))) {
 1001878:	e0fffd17 	ldw	r3,-12(fp)
 100187c:	e0bfff17 	ldw	r2,-4(fp)
 1001880:	1880031e 	bne	r3,r2,1001890 <_ZN10VGA_Screen23erase_and_redraw_playerEiiii+0x38>
 1001884:	e0fffe17 	ldw	r3,-8(fp)
 1001888:	e0800217 	ldw	r2,8(fp)
 100188c:	18800a26 	beq	r3,r2,10018b8 <_ZN10VGA_Screen23erase_and_redraw_playerEiiii+0x60>
		this->draw_box_from_coordinate(old_x, old_y, 'x');
 1001890:	e13ffc17 	ldw	r4,-16(fp)
 1001894:	e17ffd17 	ldw	r5,-12(fp)
 1001898:	e1bffe17 	ldw	r6,-8(fp)
 100189c:	01c01e04 	movi	r7,120
 10018a0:	10016b40 	call	10016b4 <_ZN10VGA_Screen24draw_box_from_coordinateEiic>
		this->draw_box_from_coordinate(new_x, new_y, 'p');
 10018a4:	e13ffc17 	ldw	r4,-16(fp)
 10018a8:	e17fff17 	ldw	r5,-4(fp)
 10018ac:	e1800217 	ldw	r6,8(fp)
 10018b0:	01c01c04 	movi	r7,112
 10018b4:	10016b40 	call	10016b4 <_ZN10VGA_Screen24draw_box_from_coordinateEiic>
	}
}
 10018b8:	e037883a 	mov	sp,fp
 10018bc:	dfc00117 	ldw	ra,4(sp)
 10018c0:	df000017 	ldw	fp,0(sp)
 10018c4:	dec00204 	addi	sp,sp,8
 10018c8:	f800283a 	ret

010018cc <_ZN10VGA_Screen19draw_map_from_arrayEPA11_c>:
//			this->draw_box_from_coordinate(i,j,m_map.map[i][j]);
//		}
//	}
//}

void VGA_Screen::draw_map_from_array(char m_map[11][11]) {
 10018cc:	defffa04 	addi	sp,sp,-24
 10018d0:	dfc00515 	stw	ra,20(sp)
 10018d4:	df000415 	stw	fp,16(sp)
 10018d8:	df000404 	addi	fp,sp,16
 10018dc:	e13ffe15 	stw	r4,-8(fp)
 10018e0:	e17fff15 	stw	r5,-4(fp)
	for (int i = 0; i < 11; i++) {
 10018e4:	e03ffd15 	stw	zero,-12(fp)
 10018e8:	00001b06 	br	1001958 <_ZN10VGA_Screen19draw_map_from_arrayEPA11_c+0x8c>
		for (int j = 0; j < 11; j++) {
 10018ec:	e03ffc15 	stw	zero,-16(fp)
 10018f0:	00001306 	br	1001940 <_ZN10VGA_Screen19draw_map_from_arrayEPA11_c+0x74>
			this->draw_box_from_coordinate(i, j, m_map[i][j]);
 10018f4:	e13ffd17 	ldw	r4,-12(fp)
 10018f8:	014002c4 	movi	r5,11
 10018fc:	10423ec0 	call	10423ec <__mulsi3>
 1001900:	1007883a 	mov	r3,r2
 1001904:	e0bfff17 	ldw	r2,-4(fp)
 1001908:	1887883a 	add	r3,r3,r2
 100190c:	e0bffc17 	ldw	r2,-16(fp)
 1001910:	1885883a 	add	r2,r3,r2
 1001914:	10800003 	ldbu	r2,0(r2)
 1001918:	11c03fcc 	andi	r7,r2,255
 100191c:	39c0201c 	xori	r7,r7,128
 1001920:	39ffe004 	addi	r7,r7,-128
 1001924:	e13ffe17 	ldw	r4,-8(fp)
 1001928:	e17ffd17 	ldw	r5,-12(fp)
 100192c:	e1bffc17 	ldw	r6,-16(fp)
 1001930:	10016b40 	call	10016b4 <_ZN10VGA_Screen24draw_box_from_coordinateEiic>
//	}
//}

void VGA_Screen::draw_map_from_array(char m_map[11][11]) {
	for (int i = 0; i < 11; i++) {
		for (int j = 0; j < 11; j++) {
 1001934:	e0bffc17 	ldw	r2,-16(fp)
 1001938:	10800044 	addi	r2,r2,1
 100193c:	e0bffc15 	stw	r2,-16(fp)
 1001940:	e0bffc17 	ldw	r2,-16(fp)
 1001944:	108002d0 	cmplti	r2,r2,11
 1001948:	103fea1e 	bne	r2,zero,10018f4 <_ZN10VGA_Screen19draw_map_from_arrayEPA11_c+0x28>
//		}
//	}
//}

void VGA_Screen::draw_map_from_array(char m_map[11][11]) {
	for (int i = 0; i < 11; i++) {
 100194c:	e0bffd17 	ldw	r2,-12(fp)
 1001950:	10800044 	addi	r2,r2,1
 1001954:	e0bffd15 	stw	r2,-12(fp)
 1001958:	e0bffd17 	ldw	r2,-12(fp)
 100195c:	108002d0 	cmplti	r2,r2,11
 1001960:	103fe21e 	bne	r2,zero,10018ec <_ZN10VGA_Screen19draw_map_from_arrayEPA11_c+0x20>
		for (int j = 0; j < 11; j++) {
			this->draw_box_from_coordinate(i, j, m_map[i][j]);
		}
	}
}
 1001964:	e037883a 	mov	sp,fp
 1001968:	dfc00117 	ldw	ra,4(sp)
 100196c:	df000017 	ldw	fp,0(sp)
 1001970:	dec00204 	addi	sp,sp,8
 1001974:	f800283a 	ret

01001978 <_ZN10VGA_Screen11draw_playerEP27alt_up_pixel_buffer_dma_deviii>:
			; // wait until done
	}
}
//
void VGA_Screen::draw_player(alt_up_pixel_buffer_dma_dev* pixel_buffer, int x_0,
		int y_0, int color) {
 1001978:	defff704 	addi	sp,sp,-36
 100197c:	dfc00815 	stw	ra,32(sp)
 1001980:	df000715 	stw	fp,28(sp)
 1001984:	dc000615 	stw	r16,24(sp)
 1001988:	df000604 	addi	fp,sp,24
 100198c:	e13ffc15 	stw	r4,-16(fp)
 1001990:	e17ffd15 	stw	r5,-12(fp)
 1001994:	e1bffe15 	stw	r6,-8(fp)
 1001998:	e1ffff15 	stw	r7,-4(fp)
	int x, y;
	for (x = x_0 + 10 - 7; x <= x_0 + 10 + 7; x++)
 100199c:	e0bffe17 	ldw	r2,-8(fp)
 10019a0:	108000c4 	addi	r2,r2,3
 10019a4:	e0bffb15 	stw	r2,-20(fp)
 10019a8:	00001d06 	br	1001a20 <_ZN10VGA_Screen11draw_playerEP27alt_up_pixel_buffer_dma_deviii+0xa8>
		for (y = y_0 + 10 - 7; y <= y_0 + 10 + 7; y++)
 10019ac:	e0bfff17 	ldw	r2,-4(fp)
 10019b0:	108000c4 	addi	r2,r2,3
 10019b4:	e0bffa15 	stw	r2,-24(fp)
 10019b8:	00001206 	br	1001a04 <_ZN10VGA_Screen11draw_playerEP27alt_up_pixel_buffer_dma_deviii+0x8c>
			if (((x * x) + (y * y)) < (7 * 7))
 10019bc:	e13ffb17 	ldw	r4,-20(fp)
 10019c0:	e17ffb17 	ldw	r5,-20(fp)
 10019c4:	10423ec0 	call	10423ec <__mulsi3>
 10019c8:	1021883a 	mov	r16,r2
 10019cc:	e13ffa17 	ldw	r4,-24(fp)
 10019d0:	e17ffa17 	ldw	r5,-24(fp)
 10019d4:	10423ec0 	call	10423ec <__mulsi3>
 10019d8:	8085883a 	add	r2,r16,r2
 10019dc:	10800c48 	cmpgei	r2,r2,49
 10019e0:	1000051e 	bne	r2,zero,10019f8 <_ZN10VGA_Screen11draw_playerEP27alt_up_pixel_buffer_dma_deviii+0x80>
				alt_up_pixel_buffer_dma_draw(pixel_buffer, color, x, y);
 10019e4:	e1400317 	ldw	r5,12(fp)
 10019e8:	e1bffb17 	ldw	r6,-20(fp)
 10019ec:	e1fffa17 	ldw	r7,-24(fp)
 10019f0:	e13ffd17 	ldw	r4,-12(fp)
 10019f4:	1055a800 	call	1055a80 <alt_up_pixel_buffer_dma_draw>
//
void VGA_Screen::draw_player(alt_up_pixel_buffer_dma_dev* pixel_buffer, int x_0,
		int y_0, int color) {
	int x, y;
	for (x = x_0 + 10 - 7; x <= x_0 + 10 + 7; x++)
		for (y = y_0 + 10 - 7; y <= y_0 + 10 + 7; y++)
 10019f8:	e0bffa17 	ldw	r2,-24(fp)
 10019fc:	10800044 	addi	r2,r2,1
 1001a00:	e0bffa15 	stw	r2,-24(fp)
 1001a04:	e0bfff17 	ldw	r2,-4(fp)
 1001a08:	10c00444 	addi	r3,r2,17
 1001a0c:	e0bffa17 	ldw	r2,-24(fp)
 1001a10:	18bfea0e 	bge	r3,r2,10019bc <_ZN10VGA_Screen11draw_playerEP27alt_up_pixel_buffer_dma_deviii+0x44>
}
//
void VGA_Screen::draw_player(alt_up_pixel_buffer_dma_dev* pixel_buffer, int x_0,
		int y_0, int color) {
	int x, y;
	for (x = x_0 + 10 - 7; x <= x_0 + 10 + 7; x++)
 1001a14:	e0bffb17 	ldw	r2,-20(fp)
 1001a18:	10800044 	addi	r2,r2,1
 1001a1c:	e0bffb15 	stw	r2,-20(fp)
 1001a20:	e0bffe17 	ldw	r2,-8(fp)
 1001a24:	10c00444 	addi	r3,r2,17
 1001a28:	e0bffb17 	ldw	r2,-20(fp)
 1001a2c:	18bfdf0e 	bge	r3,r2,10019ac <_ZN10VGA_Screen11draw_playerEP27alt_up_pixel_buffer_dma_deviii+0x34>
		for (y = y_0 + 10 - 7; y <= y_0 + 10 + 7; y++)
			if (((x * x) + (y * y)) < (7 * 7))
				alt_up_pixel_buffer_dma_draw(pixel_buffer, color, x, y);

}
 1001a30:	e037883a 	mov	sp,fp
 1001a34:	dfc00217 	ldw	ra,8(sp)
 1001a38:	df000117 	ldw	fp,4(sp)
 1001a3c:	dc000017 	ldw	r16,0(sp)
 1001a40:	dec00304 	addi	sp,sp,12
 1001a44:	f800283a 	ret

01001a48 <_ZN10VGA_Screen18draw_diagonal_lineEP27alt_up_pixel_buffer_dma_dev>:
	alt_up_char_buffer_string(char_buffer, "Swag", 10, 120);
	alt_up_char_buffer_string(char_buffer, "Swag", 310, 120);
}

// Not sure if this will be useful or not, but kept it anyways
void VGA_Screen::draw_diagonal_line(alt_up_pixel_buffer_dma_dev* pixel_buffer) {
 1001a48:	defff904 	addi	sp,sp,-28
 1001a4c:	dfc00615 	stw	ra,24(sp)
 1001a50:	df000515 	stw	fp,20(sp)
 1001a54:	df000504 	addi	fp,sp,20
 1001a58:	e13ffe15 	stw	r4,-8(fp)
 1001a5c:	e17fff15 	stw	r5,-4(fp)
	printf("Drawing Diagonal Line \n");
 1001a60:	010041b4 	movhi	r4,262
 1001a64:	21244d04 	addi	r4,r4,-28364
 1001a68:	104574c0 	call	104574c <puts>
	alt_up_pixel_buffer_dma_draw_line(pixel_buffer, 0, 0, 320, 240, 0x00ff, 0);
 1001a6c:	00803c04 	movi	r2,240
 1001a70:	d8800015 	stw	r2,0(sp)
 1001a74:	00803fc4 	movi	r2,255
 1001a78:	d8800115 	stw	r2,4(sp)
 1001a7c:	d8000215 	stw	zero,8(sp)
 1001a80:	e13fff17 	ldw	r4,-4(fp)
 1001a84:	000b883a 	mov	r5,zero
 1001a88:	000d883a 	mov	r6,zero
 1001a8c:	01c05004 	movi	r7,320
 1001a90:	1056c440 	call	1056c44 <alt_up_pixel_buffer_dma_draw_line>
}
 1001a94:	e037883a 	mov	sp,fp
 1001a98:	dfc00117 	ldw	ra,4(sp)
 1001a9c:	df000017 	ldw	fp,0(sp)
 1001aa0:	dec00204 	addi	sp,sp,8
 1001aa4:	f800283a 	ret

01001aa8 <_ZN10VGA_Screen14draw_characterEP22alt_up_char_buffer_dev>:
	alt_up_pixel_buffer_dma_clear_screen(pixel_buffer, 0);

}

// TODO Draw a character, needs to take in input
void VGA_Screen::draw_character(alt_up_char_buffer_dev* char_buffer) {
 1001aa8:	defffc04 	addi	sp,sp,-16
 1001aac:	dfc00315 	stw	ra,12(sp)
 1001ab0:	df000215 	stw	fp,8(sp)
 1001ab4:	df000204 	addi	fp,sp,8
 1001ab8:	e13ffe15 	stw	r4,-8(fp)
 1001abc:	e17fff15 	stw	r5,-4(fp)
	printf("Drawing Character \n");
 1001ac0:	010041b4 	movhi	r4,262
 1001ac4:	21245304 	addi	r4,r4,-28340
 1001ac8:	104574c0 	call	104574c <puts>
	alt_up_char_buffer_string(char_buffer, "Swag", 10, 120);
 1001acc:	e13fff17 	ldw	r4,-4(fp)
 1001ad0:	014041b4 	movhi	r5,262
 1001ad4:	29645804 	addi	r5,r5,-28320
 1001ad8:	01800284 	movi	r6,10
 1001adc:	01c01e04 	movi	r7,120
 1001ae0:	10558d00 	call	10558d0 <alt_up_char_buffer_string>
	alt_up_char_buffer_string(char_buffer, "Swag", 310, 120);
 1001ae4:	e13fff17 	ldw	r4,-4(fp)
 1001ae8:	014041b4 	movhi	r5,262
 1001aec:	29645804 	addi	r5,r5,-28320
 1001af0:	01804d84 	movi	r6,310
 1001af4:	01c01e04 	movi	r7,120
 1001af8:	10558d00 	call	10558d0 <alt_up_char_buffer_string>
}
 1001afc:	e037883a 	mov	sp,fp
 1001b00:	dfc00117 	ldw	ra,4(sp)
 1001b04:	df000017 	ldw	fp,0(sp)
 1001b08:	dec00204 	addi	sp,sp,8
 1001b0c:	f800283a 	ret

01001b10 <_ZN10VGA_Screen4initEv>:
	this->pixel_buffer = init_pixel_buffer();
	this->char_buffer = init_char_buffer();
}

// Make sure you call this when creating a VGA_Screen object
void VGA_Screen::init() {
 1001b10:	defffd04 	addi	sp,sp,-12
 1001b14:	dfc00215 	stw	ra,8(sp)
 1001b18:	df000115 	stw	fp,4(sp)
 1001b1c:	df000104 	addi	fp,sp,4
 1001b20:	e13fff15 	stw	r4,-4(fp)
	// Init Screen
	printf("Initializing VGA Screen \n");
 1001b24:	010041b4 	movhi	r4,262
 1001b28:	21245a04 	addi	r4,r4,-28312
 1001b2c:	104574c0 	call	104574c <puts>
	if (this->pixel_buffer == 0) {
 1001b30:	e0bfff17 	ldw	r2,-4(fp)
 1001b34:	10800017 	ldw	r2,0(r2)
 1001b38:	1004c03a 	cmpne	r2,r2,zero
 1001b3c:	1000041e 	bne	r2,zero,1001b50 <_ZN10VGA_Screen4initEv+0x40>
		printf(
				"error initializing pixel buffer (check name in alt_up_pixel_buffer_dma_open_dev)\n");
 1001b40:	010041b4 	movhi	r4,262
 1001b44:	21246104 	addi	r4,r4,-28284
 1001b48:	104574c0 	call	104574c <puts>
		return;
 1001b4c:	00001206 	br	1001b98 <_ZN10VGA_Screen4initEv+0x88>
	}
	alt_up_pixel_buffer_dma_change_back_buffer_address(pixel_buffer,
			PIXEL_BUFFER_BASE);
 1001b50:	e0bfff17 	ldw	r2,-4(fp)
 1001b54:	11000017 	ldw	r4,0(r2)
 1001b58:	01400234 	movhi	r5,8
 1001b5c:	1055c2c0 	call	1055c2c <alt_up_pixel_buffer_dma_change_back_buffer_address>
	alt_up_pixel_buffer_dma_swap_buffers(pixel_buffer);
 1001b60:	e0bfff17 	ldw	r2,-4(fp)
 1001b64:	11000017 	ldw	r4,0(r2)
 1001b68:	1055c840 	call	1055c84 <alt_up_pixel_buffer_dma_swap_buffers>
	while (alt_up_pixel_buffer_dma_check_swap_buffers_status(pixel_buffer))
 1001b6c:	e0bfff17 	ldw	r2,-4(fp)
 1001b70:	11000017 	ldw	r4,0(r2)
 1001b74:	1055cdc0 	call	1055cdc <alt_up_pixel_buffer_dma_check_swap_buffers_status>
 1001b78:	1004c03a 	cmpne	r2,r2,zero
 1001b7c:	10803fcc 	andi	r2,r2,255
 1001b80:	1004c03a 	cmpne	r2,r2,zero
 1001b84:	103ff91e 	bne	r2,zero,1001b6c <_ZN10VGA_Screen4initEv+0x5c>
		;
	alt_up_pixel_buffer_dma_clear_screen(pixel_buffer, 0);
 1001b88:	e0bfff17 	ldw	r2,-4(fp)
 1001b8c:	11000017 	ldw	r4,0(r2)
 1001b90:	000b883a 	mov	r5,zero
 1001b94:	1055d100 	call	1055d10 <alt_up_pixel_buffer_dma_clear_screen>

}
 1001b98:	e037883a 	mov	sp,fp
 1001b9c:	dfc00117 	ldw	ra,4(sp)
 1001ba0:	df000017 	ldw	fp,0(sp)
 1001ba4:	dec00204 	addi	sp,sp,8
 1001ba8:	f800283a 	ret

01001bac <_Z41__static_initialization_and_destruction_0ii>:
				p.get_old_y_cord(), p.get_x_cord(), p.get_y_cord());
		usleep(30000);
	}

	return 0;
}
 1001bac:	defffc04 	addi	sp,sp,-16
 1001bb0:	dfc00315 	stw	ra,12(sp)
 1001bb4:	df000215 	stw	fp,8(sp)
 1001bb8:	df000204 	addi	fp,sp,8
 1001bbc:	e13ffe15 	stw	r4,-8(fp)
 1001bc0:	e17fff15 	stw	r5,-4(fp)
 1001bc4:	e0bffe17 	ldw	r2,-8(fp)
 1001bc8:	10800058 	cmpnei	r2,r2,1
 1001bcc:	1000051e 	bne	r2,zero,1001be4 <_Z41__static_initialization_and_destruction_0ii+0x38>
 1001bd0:	e0ffff17 	ldw	r3,-4(fp)
 1001bd4:	00bfffd4 	movui	r2,65535
 1001bd8:	1880021e 	bne	r3,r2,1001be4 <_Z41__static_initialization_and_destruction_0ii+0x38>
 1001bdc:	d127c284 	addi	r4,gp,-24822
 1001be0:	10024c00 	call	10024c0 <_ZNSt8ios_base4InitC1Ev>
 1001be4:	e0bffe17 	ldw	r2,-8(fp)
 1001be8:	1004c03a 	cmpne	r2,r2,zero
 1001bec:	1000051e 	bne	r2,zero,1001c04 <_Z41__static_initialization_and_destruction_0ii+0x58>
 1001bf0:	e0ffff17 	ldw	r3,-4(fp)
 1001bf4:	00bfffd4 	movui	r2,65535
 1001bf8:	1880021e 	bne	r3,r2,1001c04 <_Z41__static_initialization_and_destruction_0ii+0x58>
 1001bfc:	d127c284 	addi	r4,gp,-24822
 1001c00:	1001e140 	call	1001e14 <_ZNSt8ios_base4InitD1Ev>
 1001c04:	e037883a 	mov	sp,fp
 1001c08:	dfc00117 	ldw	ra,4(sp)
 1001c0c:	df000017 	ldw	fp,0(sp)
 1001c10:	dec00204 	addi	sp,sp,8
 1001c14:	f800283a 	ret

01001c18 <_GLOBAL__D_main>:
 1001c18:	defffe04 	addi	sp,sp,-8
 1001c1c:	dfc00115 	stw	ra,4(sp)
 1001c20:	df000015 	stw	fp,0(sp)
 1001c24:	d839883a 	mov	fp,sp
 1001c28:	0009883a 	mov	r4,zero
 1001c2c:	017fffd4 	movui	r5,65535
 1001c30:	1001bac0 	call	1001bac <_Z41__static_initialization_and_destruction_0ii>
 1001c34:	e037883a 	mov	sp,fp
 1001c38:	dfc00117 	ldw	ra,4(sp)
 1001c3c:	df000017 	ldw	fp,0(sp)
 1001c40:	dec00204 	addi	sp,sp,8
 1001c44:	f800283a 	ret

01001c48 <_GLOBAL__I_main>:
		usleep(30000);
	}

	return 0;
}
 1001c48:	defffe04 	addi	sp,sp,-8
 1001c4c:	dfc00115 	stw	ra,4(sp)
 1001c50:	df000015 	stw	fp,0(sp)
 1001c54:	d839883a 	mov	fp,sp
 1001c58:	01000044 	movi	r4,1
 1001c5c:	017fffd4 	movui	r5,65535
 1001c60:	1001bac0 	call	1001bac <_Z41__static_initialization_and_destruction_0ii>
 1001c64:	e037883a 	mov	sp,fp
 1001c68:	dfc00117 	ldw	ra,4(sp)
 1001c6c:	df000017 	ldw	fp,0(sp)
 1001c70:	dec00204 	addi	sp,sp,8
 1001c74:	f800283a 	ret

01001c78 <main>:
#include "MatrixMap.h"
#include "VGA_Screen.h"
#include "Player.h"
#include "unistd.h"

int main() {
 1001c78:	deffcc04 	addi	sp,sp,-208
 1001c7c:	dfc03315 	stw	ra,204(sp)
 1001c80:	df003215 	stw	fp,200(sp)
 1001c84:	dc803115 	stw	r18,196(sp)
 1001c88:	dc403015 	stw	r17,192(sp)
 1001c8c:	dc002f15 	stw	r16,188(sp)
 1001c90:	df002f04 	addi	fp,sp,188
	Player p;
 1001c94:	e13fd604 	addi	r4,fp,-168
 1001c98:	10011080 	call	1001108 <_ZN6PlayerC1Ev>
	MatrixMap m;
 1001c9c:	e13fe104 	addi	r4,fp,-124
 1001ca0:	10009f80 	call	10009f8 <_ZN9MatrixMapC1Ev>
	m.print_matrix();
 1001ca4:	e13fe104 	addi	r4,fp,-124
 1001ca8:	100059c0 	call	100059c <_ZN9MatrixMap12print_matrixEv>

	VGA_Screen vga_screen;
 1001cac:	e13fd404 	addi	r4,fp,-176
 1001cb0:	10012c80 	call	10012c8 <_ZN10VGA_ScreenC1Ev>
	vga_screen.init();
 1001cb4:	e13fd404 	addi	r4,fp,-176
 1001cb8:	1001b100 	call	1001b10 <_ZN10VGA_Screen4initEv>

	vga_screen.clear_screen(vga_screen.pixel_buffer);
 1001cbc:	e17fd417 	ldw	r5,-176(fp)
 1001cc0:	e13fd404 	addi	r4,fp,-176
 1001cc4:	10013800 	call	1001380 <_ZN10VGA_Screen12clear_screenEP27alt_up_pixel_buffer_dma_dev>
	vga_screen.paint_screen(vga_screen.pixel_buffer, 0xF000);
 1001cc8:	e17fd417 	ldw	r5,-176(fp)
 1001ccc:	e13fd404 	addi	r4,fp,-176
 1001cd0:	01bc0014 	movui	r6,61440
 1001cd4:	10013c40 	call	10013c4 <_ZN10VGA_Screen12paint_screenEP27alt_up_pixel_buffer_dma_devi>
	vga_screen.draw_map_from_array(m.map);
 1001cd8:	e13fd404 	addi	r4,fp,-176
 1001cdc:	e17fe104 	addi	r5,fp,-124
 1001ce0:	10018cc0 	call	10018cc <_ZN10VGA_Screen19draw_map_from_arrayEPA11_c>
	vga_screen.draw_box_from_coordinate(0, 0, 'p');
 1001ce4:	e13fd404 	addi	r4,fp,-176
 1001ce8:	000b883a 	mov	r5,zero
 1001cec:	000d883a 	mov	r6,zero
 1001cf0:	01c01c04 	movi	r7,112
 1001cf4:	10016b40 	call	10016b4 <_ZN10VGA_Screen24draw_box_from_coordinateEiic>
	while (1) {
		p.move(p.get_direction(), m);
 1001cf8:	e13fd604 	addi	r4,fp,-168
 1001cfc:	10010400 	call	1001040 <_ZN6Player13get_directionEv>
 1001d00:	11403fcc 	andi	r5,r2,255
 1001d04:	2940201c 	xori	r5,r5,128
 1001d08:	297fe004 	addi	r5,r5,-128
 1001d0c:	e13fd604 	addi	r4,fp,-168
 1001d10:	e1bfe104 	addi	r6,fp,-124
 1001d14:	1000e140 	call	1000e14 <_ZN6Player4moveEcR9MatrixMap>
		p.place_bomb();
 1001d18:	e13fd604 	addi	r4,fp,-168
 1001d1c:	1000c940 	call	1000c94 <_ZN6Player10place_bombEv>
		if(p.bomb.isActive()){
 1001d20:	e0bfd604 	addi	r2,fp,-168
 1001d24:	11000704 	addi	r4,r2,28
 1001d28:	10002500 	call	1000250 <_ZN4Bomb8isActiveEv>
 1001d2c:	10803fcc 	andi	r2,r2,255
 1001d30:	1005003a 	cmpeq	r2,r2,zero
 1001d34:	10000b1e 	bne	r2,zero,1001d64 <main+0xec>
			vga_screen.draw_bomb(p.bomb.get_x_cord(), p.bomb.get_y_cord());
 1001d38:	e0bfd604 	addi	r2,fp,-168
 1001d3c:	11000704 	addi	r4,r2,28
 1001d40:	100027c0 	call	100027c <_ZN4Bomb10get_x_cordEv>
 1001d44:	1021883a 	mov	r16,r2
 1001d48:	e0bfd604 	addi	r2,fp,-168
 1001d4c:	11000704 	addi	r4,r2,28
 1001d50:	10002a40 	call	10002a4 <_ZN4Bomb10get_y_cordEv>
 1001d54:	100d883a 	mov	r6,r2
 1001d58:	e13fd404 	addi	r4,fp,-176
 1001d5c:	800b883a 	mov	r5,r16
 1001d60:	10018140 	call	1001814 <_ZN10VGA_Screen9draw_bombEii>
		}
		if (p.bomb.check_explosion(vga_screen)) {
 1001d64:	e0bfd604 	addi	r2,fp,-168
 1001d68:	11000704 	addi	r4,r2,28
 1001d6c:	e17fd404 	addi	r5,fp,-176
 1001d70:	10003980 	call	1000398 <_ZN4Bomb15check_explosionER10VGA_Screen>
 1001d74:	10803fcc 	andi	r2,r2,255
 1001d78:	1005003a 	cmpeq	r2,r2,zero
 1001d7c:	1000111e 	bne	r2,zero,1001dc4 <main+0x14c>
			int bomb_x_cord = p.bomb.get_x_cord();
 1001d80:	e0bfd604 	addi	r2,fp,-168
 1001d84:	11000704 	addi	r4,r2,28
 1001d88:	100027c0 	call	100027c <_ZN4Bomb10get_x_cordEv>
 1001d8c:	e0bfd315 	stw	r2,-180(fp)
			int bomb_y_cord = p.bomb.get_y_cord();
 1001d90:	e0bfd604 	addi	r2,fp,-168
 1001d94:	11000704 	addi	r4,r2,28
 1001d98:	10002a40 	call	10002a4 <_ZN4Bomb10get_y_cordEv>
 1001d9c:	e0bfd215 	stw	r2,-184(fp)
			p.check_explosion(bomb_x_cord, bomb_y_cord);
 1001da0:	e13fd604 	addi	r4,fp,-168
 1001da4:	e17fd317 	ldw	r5,-180(fp)
 1001da8:	e1bfd217 	ldw	r6,-184(fp)
 1001dac:	1000d800 	call	1000d80 <_ZN6Player15check_explosionEii>
			m.check_explosion(bomb_x_cord, bomb_y_cord, vga_screen);
 1001db0:	e13fe104 	addi	r4,fp,-124
 1001db4:	e1ffd404 	addi	r7,fp,-176
 1001db8:	e17fd317 	ldw	r5,-180(fp)
 1001dbc:	e1bfd217 	ldw	r6,-184(fp)
 1001dc0:	100064c0 	call	100064c <_ZN9MatrixMap15check_explosionEiiR10VGA_Screen>
		}
		//printf("%c\n", p.get_direction());
		//printf("x = %d   y = %d	cord=%c\n", p.get_x_cord(), p.get_y_cord(), m.get_cord(p.get_x_cord(), p.get_y_cord()));
		vga_screen.erase_and_redraw_player(p.get_old_x_cord(),
				p.get_old_y_cord(), p.get_x_cord(), p.get_y_cord());
 1001dc4:	e13fd604 	addi	r4,fp,-168
 1001dc8:	1000b780 	call	1000b78 <_ZN6Player14get_old_x_cordEv>
 1001dcc:	1023883a 	mov	r17,r2
 1001dd0:	e13fd604 	addi	r4,fp,-168
 1001dd4:	1000ba00 	call	1000ba0 <_ZN6Player14get_old_y_cordEv>
 1001dd8:	1025883a 	mov	r18,r2
 1001ddc:	e13fd604 	addi	r4,fp,-168
 1001de0:	1000b280 	call	1000b28 <_ZN6Player10get_x_cordEv>
 1001de4:	1021883a 	mov	r16,r2
 1001de8:	e13fd604 	addi	r4,fp,-168
 1001dec:	1000b500 	call	1000b50 <_ZN6Player10get_y_cordEv>
 1001df0:	e13fd404 	addi	r4,fp,-176
 1001df4:	d8800015 	stw	r2,0(sp)
 1001df8:	880b883a 	mov	r5,r17
 1001dfc:	900d883a 	mov	r6,r18
 1001e00:	800f883a 	mov	r7,r16
 1001e04:	10018580 	call	1001858 <_ZN10VGA_Screen23erase_and_redraw_playerEiiii>
		usleep(30000);
 1001e08:	011d4c04 	movi	r4,30000
 1001e0c:	105460c0 	call	105460c <usleep>

	vga_screen.clear_screen(vga_screen.pixel_buffer);
	vga_screen.paint_screen(vga_screen.pixel_buffer, 0xF000);
	vga_screen.draw_map_from_array(m.map);
	vga_screen.draw_box_from_coordinate(0, 0, 'p');
	while (1) {
 1001e10:	003fb906 	br	1001cf8 <main+0x80>

01001e14 <_ZNSt8ios_base4InitD1Ev>:
 1001e14:	deffe904 	addi	sp,sp,-92
 1001e18:	008040f4 	movhi	r2,259
 1001e1c:	109cae04 	addi	r2,r2,29368
 1001e20:	00c04174 	movhi	r3,261
 1001e24:	18dfa604 	addi	r3,r3,32408
 1001e28:	d8800615 	stw	r2,24(sp)
 1001e2c:	d809883a 	mov	r4,sp
 1001e30:	00804034 	movhi	r2,256
 1001e34:	1087be04 	addi	r2,r2,7928
 1001e38:	d8c00715 	stw	r3,28(sp)
 1001e3c:	dfc01615 	stw	ra,88(sp)
 1001e40:	d8800915 	stw	r2,36(sp)
 1001e44:	df001515 	stw	fp,84(sp)
 1001e48:	ddc01415 	stw	r23,80(sp)
 1001e4c:	dd801315 	stw	r22,76(sp)
 1001e50:	dd401215 	stw	r21,72(sp)
 1001e54:	dd001115 	stw	r20,68(sp)
 1001e58:	dcc01015 	stw	r19,64(sp)
 1001e5c:	dc800f15 	stw	r18,60(sp)
 1001e60:	dc400e15 	stw	r17,56(sp)
 1001e64:	dc000d15 	stw	r16,52(sp)
 1001e68:	dec00815 	stw	sp,32(sp)
 1001e6c:	dec00a15 	stw	sp,40(sp)
 1001e70:	10424240 	call	1042424 <_Unwind_SjLj_Register>
 1001e74:	017fffc4 	movi	r5,-1
 1001e78:	010041b4 	movhi	r4,262
 1001e7c:	213c4a04 	addi	r4,r4,-3800
 1001e80:	d9400115 	stw	r5,4(sp)
 1001e84:	10346180 	call	1034618 <_ZN9__gnu_cxx18__exchange_and_addEPVii>
 1001e88:	00c00084 	movi	r3,2
 1001e8c:	10c00e26 	beq	r2,r3,1001ec8 <_ZNSt8ios_base4InitD1Ev+0xb4>
 1001e90:	d809883a 	mov	r4,sp
 1001e94:	10424340 	call	1042434 <_Unwind_SjLj_Unregister>
 1001e98:	dfc01617 	ldw	ra,88(sp)
 1001e9c:	df001517 	ldw	fp,84(sp)
 1001ea0:	ddc01417 	ldw	r23,80(sp)
 1001ea4:	dd801317 	ldw	r22,76(sp)
 1001ea8:	dd401217 	ldw	r21,72(sp)
 1001eac:	dd001117 	ldw	r20,68(sp)
 1001eb0:	dcc01017 	ldw	r19,64(sp)
 1001eb4:	dc800f17 	ldw	r18,60(sp)
 1001eb8:	dc400e17 	ldw	r17,56(sp)
 1001ebc:	dc000d17 	ldw	r16,52(sp)
 1001ec0:	dec01704 	addi	sp,sp,92
 1001ec4:	f800283a 	ret
 1001ec8:	00800044 	movi	r2,1
 1001ecc:	d8800115 	stw	r2,4(sp)
 1001ed0:	010041b4 	movhi	r4,262
 1001ed4:	213fc104 	addi	r4,r4,-252
 1001ed8:	102ba680 	call	102ba68 <_ZNSo5flushEv>
 1001edc:	010041b4 	movhi	r4,262
 1001ee0:	213fe404 	addi	r4,r4,-112
 1001ee4:	102ba680 	call	102ba68 <_ZNSo5flushEv>
 1001ee8:	010041b4 	movhi	r4,262
 1001eec:	21000704 	addi	r4,r4,28
 1001ef0:	102ba680 	call	102ba68 <_ZNSo5flushEv>
 1001ef4:	003fe606 	br	1001e90 <_ZNSt8ios_base4InitD1Ev+0x7c>
 1001ef8:	d9000217 	ldw	r4,8(sp)
 1001efc:	1036a2c0 	call	1036a2c <__cxa_begin_catch>
 1001f00:	d8000115 	stw	zero,4(sp)
 1001f04:	10369880 	call	1036988 <__cxa_end_catch>
 1001f08:	003fe106 	br	1001e90 <_ZNSt8ios_base4InitD1Ev+0x7c>

01001f0c <_ZNSt8ios_base4InitD2Ev>:
 1001f0c:	deffe904 	addi	sp,sp,-92
 1001f10:	008040f4 	movhi	r2,259
 1001f14:	109cae04 	addi	r2,r2,29368
 1001f18:	00c04174 	movhi	r3,261
 1001f1c:	18dfaa04 	addi	r3,r3,32424
 1001f20:	d8800615 	stw	r2,24(sp)
 1001f24:	d809883a 	mov	r4,sp
 1001f28:	00804034 	movhi	r2,256
 1001f2c:	1087fc04 	addi	r2,r2,8176
 1001f30:	d8c00715 	stw	r3,28(sp)
 1001f34:	dfc01615 	stw	ra,88(sp)
 1001f38:	d8800915 	stw	r2,36(sp)
 1001f3c:	df001515 	stw	fp,84(sp)
 1001f40:	ddc01415 	stw	r23,80(sp)
 1001f44:	dd801315 	stw	r22,76(sp)
 1001f48:	dd401215 	stw	r21,72(sp)
 1001f4c:	dd001115 	stw	r20,68(sp)
 1001f50:	dcc01015 	stw	r19,64(sp)
 1001f54:	dc800f15 	stw	r18,60(sp)
 1001f58:	dc400e15 	stw	r17,56(sp)
 1001f5c:	dc000d15 	stw	r16,52(sp)
 1001f60:	dec00815 	stw	sp,32(sp)
 1001f64:	dec00a15 	stw	sp,40(sp)
 1001f68:	10424240 	call	1042424 <_Unwind_SjLj_Register>
 1001f6c:	017fffc4 	movi	r5,-1
 1001f70:	010041b4 	movhi	r4,262
 1001f74:	213c4a04 	addi	r4,r4,-3800
 1001f78:	d9400115 	stw	r5,4(sp)
 1001f7c:	10346180 	call	1034618 <_ZN9__gnu_cxx18__exchange_and_addEPVii>
 1001f80:	00c00084 	movi	r3,2
 1001f84:	10c00e26 	beq	r2,r3,1001fc0 <_ZNSt8ios_base4InitD2Ev+0xb4>
 1001f88:	d809883a 	mov	r4,sp
 1001f8c:	10424340 	call	1042434 <_Unwind_SjLj_Unregister>
 1001f90:	dfc01617 	ldw	ra,88(sp)
 1001f94:	df001517 	ldw	fp,84(sp)
 1001f98:	ddc01417 	ldw	r23,80(sp)
 1001f9c:	dd801317 	ldw	r22,76(sp)
 1001fa0:	dd401217 	ldw	r21,72(sp)
 1001fa4:	dd001117 	ldw	r20,68(sp)
 1001fa8:	dcc01017 	ldw	r19,64(sp)
 1001fac:	dc800f17 	ldw	r18,60(sp)
 1001fb0:	dc400e17 	ldw	r17,56(sp)
 1001fb4:	dc000d17 	ldw	r16,52(sp)
 1001fb8:	dec01704 	addi	sp,sp,92
 1001fbc:	f800283a 	ret
 1001fc0:	00800044 	movi	r2,1
 1001fc4:	d8800115 	stw	r2,4(sp)
 1001fc8:	010041b4 	movhi	r4,262
 1001fcc:	213fc104 	addi	r4,r4,-252
 1001fd0:	102ba680 	call	102ba68 <_ZNSo5flushEv>
 1001fd4:	010041b4 	movhi	r4,262
 1001fd8:	213fe404 	addi	r4,r4,-112
 1001fdc:	102ba680 	call	102ba68 <_ZNSo5flushEv>
 1001fe0:	010041b4 	movhi	r4,262
 1001fe4:	21000704 	addi	r4,r4,28
 1001fe8:	102ba680 	call	102ba68 <_ZNSo5flushEv>
 1001fec:	003fe606 	br	1001f88 <_ZNSt8ios_base4InitD2Ev+0x7c>
 1001ff0:	d9000217 	ldw	r4,8(sp)
 1001ff4:	1036a2c0 	call	1036a2c <__cxa_begin_catch>
 1001ff8:	d8000115 	stw	zero,4(sp)
 1001ffc:	10369880 	call	1036988 <__cxa_end_catch>
 1002000:	003fe106 	br	1001f88 <_ZNSt8ios_base4InitD2Ev+0x7c>

01002004 <_ZNSt8ios_base4InitC2Ev>:
 1002004:	deffec04 	addi	sp,sp,-80
 1002008:	008040f4 	movhi	r2,259
 100200c:	109cae04 	addi	r2,r2,29368
 1002010:	d8800615 	stw	r2,24(sp)
 1002014:	00c04174 	movhi	r3,261
 1002018:	18dfae04 	addi	r3,r3,32440
 100201c:	00804034 	movhi	r2,256
 1002020:	1088f804 	addi	r2,r2,9184
 1002024:	d809883a 	mov	r4,sp
 1002028:	d8800915 	stw	r2,36(sp)
 100202c:	dfc01315 	stw	ra,76(sp)
 1002030:	df001215 	stw	fp,72(sp)
 1002034:	ddc01115 	stw	r23,68(sp)
 1002038:	d8c00715 	stw	r3,28(sp)
 100203c:	dec00815 	stw	sp,32(sp)
 1002040:	dec00a15 	stw	sp,40(sp)
 1002044:	10424240 	call	1042424 <_Unwind_SjLj_Register>
 1002048:	00bfffc4 	movi	r2,-1
 100204c:	010041b4 	movhi	r4,262
 1002050:	213c4a04 	addi	r4,r4,-3800
 1002054:	01400044 	movi	r5,1
 1002058:	d8800115 	stw	r2,4(sp)
 100205c:	10346180 	call	1034618 <_ZN9__gnu_cxx18__exchange_and_addEPVii>
 1002060:	10000726 	beq	r2,zero,1002080 <_ZNSt8ios_base4InitC2Ev+0x7c>
 1002064:	d809883a 	mov	r4,sp
 1002068:	10424340 	call	1042434 <_Unwind_SjLj_Unregister>
 100206c:	dfc01317 	ldw	ra,76(sp)
 1002070:	df001217 	ldw	fp,72(sp)
 1002074:	ddc01117 	ldw	r23,68(sp)
 1002078:	dec01404 	addi	sp,sp,80
 100207c:	f800283a 	ret
 1002080:	00c041b4 	movhi	r3,262
 1002084:	18f4a404 	addi	r3,r3,-11632
 1002088:	18800017 	ldw	r2,0(r3)
 100208c:	00c00044 	movi	r3,1
 1002090:	10800217 	ldw	r2,8(r2)
 1002094:	d8800f15 	stw	r2,60(sp)
 1002098:	008041b4 	movhi	r2,262
 100209c:	10802a04 	addi	r2,r2,168
 10020a0:	11000704 	addi	r4,r2,28
 10020a4:	008041b4 	movhi	r2,262
 10020a8:	10b49b04 	addi	r2,r2,-11668
 10020ac:	10c00005 	stb	r3,0(r2)
 10020b0:	008041b4 	movhi	r2,262
 10020b4:	10802a04 	addi	r2,r2,168
 10020b8:	00c041b4 	movhi	r3,262
 10020bc:	18e7ca04 	addi	r3,r3,-24792
 10020c0:	10c00015 	stw	r3,0(r2)
 10020c4:	10000115 	stw	zero,4(r2)
 10020c8:	10000215 	stw	zero,8(r2)
 10020cc:	10000315 	stw	zero,12(r2)
 10020d0:	10000415 	stw	zero,16(r2)
 10020d4:	10000515 	stw	zero,20(r2)
 10020d8:	10000615 	stw	zero,24(r2)
 10020dc:	1005b4c0 	call	1005b4c <_ZNSt6localeC1Ev>
 10020e0:	d8c00f17 	ldw	r3,60(sp)
 10020e4:	010041b4 	movhi	r4,262
 10020e8:	2134a404 	addi	r4,r4,-11632
 10020ec:	20800017 	ldw	r2,0(r4)
 10020f0:	010041b4 	movhi	r4,262
 10020f4:	21002a04 	addi	r4,r4,168
 10020f8:	20c00815 	stw	r3,32(r4)
 10020fc:	10800117 	ldw	r2,4(r2)
 1002100:	00c041b4 	movhi	r3,262
 1002104:	18c02a04 	addi	r3,r3,168
 1002108:	d8800e15 	stw	r2,56(sp)
 100210c:	008041b4 	movhi	r2,262
 1002110:	10803404 	addi	r2,r2,208
 1002114:	11000704 	addi	r4,r2,28
 1002118:	008041b4 	movhi	r2,262
 100211c:	10a79904 	addi	r2,r2,-24988
 1002120:	18800015 	stw	r2,0(r3)
 1002124:	00bfffc4 	movi	r2,-1
 1002128:	18800915 	stw	r2,36(r3)
 100212c:	00c041b4 	movhi	r3,262
 1002130:	18c03404 	addi	r3,r3,208
 1002134:	008041b4 	movhi	r2,262
 1002138:	10a7ca04 	addi	r2,r2,-24792
 100213c:	18800015 	stw	r2,0(r3)
 1002140:	18000115 	stw	zero,4(r3)
 1002144:	18000215 	stw	zero,8(r3)
 1002148:	18000315 	stw	zero,12(r3)
 100214c:	18000415 	stw	zero,16(r3)
 1002150:	18000515 	stw	zero,20(r3)
 1002154:	18000615 	stw	zero,24(r3)
 1002158:	1005b4c0 	call	1005b4c <_ZNSt6localeC1Ev>
 100215c:	00c041b4 	movhi	r3,262
 1002160:	18f4a404 	addi	r3,r3,-11632
 1002164:	d9000e17 	ldw	r4,56(sp)
 1002168:	18800017 	ldw	r2,0(r3)
 100216c:	00c041b4 	movhi	r3,262
 1002170:	18c03404 	addi	r3,r3,208
 1002174:	19000815 	stw	r4,32(r3)
 1002178:	10800317 	ldw	r2,12(r2)
 100217c:	d8800d15 	stw	r2,52(sp)
 1002180:	008041b4 	movhi	r2,262
 1002184:	10803e04 	addi	r2,r2,248
 1002188:	11000704 	addi	r4,r2,28
 100218c:	00bfffc4 	movi	r2,-1
 1002190:	18800915 	stw	r2,36(r3)
 1002194:	008041b4 	movhi	r2,262
 1002198:	10a7ca04 	addi	r2,r2,-24792
 100219c:	00c041b4 	movhi	r3,262
 10021a0:	18c03e04 	addi	r3,r3,248
 10021a4:	18800015 	stw	r2,0(r3)
 10021a8:	008041b4 	movhi	r2,262
 10021ac:	10a79904 	addi	r2,r2,-24988
 10021b0:	00c041b4 	movhi	r3,262
 10021b4:	18c03404 	addi	r3,r3,208
 10021b8:	18800015 	stw	r2,0(r3)
 10021bc:	00c041b4 	movhi	r3,262
 10021c0:	18c03e04 	addi	r3,r3,248
 10021c4:	18000115 	stw	zero,4(r3)
 10021c8:	18000215 	stw	zero,8(r3)
 10021cc:	18000315 	stw	zero,12(r3)
 10021d0:	18000415 	stw	zero,16(r3)
 10021d4:	18000515 	stw	zero,20(r3)
 10021d8:	18000615 	stw	zero,24(r3)
 10021dc:	1005b4c0 	call	1005b4c <_ZNSt6localeC1Ev>
 10021e0:	00bfffc4 	movi	r2,-1
 10021e4:	010041b4 	movhi	r4,262
 10021e8:	21003e04 	addi	r4,r4,248
 10021ec:	20800915 	stw	r2,36(r4)
 10021f0:	d8800d17 	ldw	r2,52(sp)
 10021f4:	00c041b4 	movhi	r3,262
 10021f8:	18e79904 	addi	r3,r3,-24988
 10021fc:	20c00015 	stw	r3,0(r4)
 1002200:	20800815 	stw	r2,32(r4)
 1002204:	00800204 	movi	r2,8
 1002208:	d8800115 	stw	r2,4(sp)
 100220c:	010041b4 	movhi	r4,262
 1002210:	213fc204 	addi	r4,r4,-248
 1002214:	103a7c00 	call	103a7c0 <_ZNSt8ios_baseC2Ev>
 1002218:	008041b4 	movhi	r2,262
 100221c:	10a7bb04 	addi	r2,r2,-24852
 1002220:	010041b4 	movhi	r4,262
 1002224:	213fc204 	addi	r4,r4,-248
 1002228:	10c00504 	addi	r3,r2,20
 100222c:	20c00015 	stw	r3,0(r4)
 1002230:	20001c15 	stw	zero,112(r4)
 1002234:	20001d05 	stb	zero,116(r4)
 1002238:	20001d45 	stb	zero,117(r4)
 100223c:	20001e15 	stw	zero,120(r4)
 1002240:	20001f15 	stw	zero,124(r4)
 1002244:	20002015 	stw	zero,128(r4)
 1002248:	20002115 	stw	zero,132(r4)
 100224c:	20bfff15 	stw	r2,-4(r4)
 1002250:	00c00104 	movi	r3,4
 1002254:	d8c00115 	stw	r3,4(sp)
 1002258:	014041b4 	movhi	r5,262
 100225c:	29402a04 	addi	r5,r5,168
 1002260:	100690c0 	call	100690c <_ZNSt9basic_iosIcSt11char_traitsIcEE4initEPSt15basic_streambufIcS1_E>
 1002264:	008001c4 	movi	r2,7
 1002268:	d8800115 	stw	r2,4(sp)
 100226c:	010041b4 	movhi	r4,262
 1002270:	213f9f04 	addi	r4,r4,-388
 1002274:	103a7c00 	call	103a7c0 <_ZNSt8ios_baseC2Ev>
 1002278:	008041b4 	movhi	r2,262
 100227c:	10a51204 	addi	r2,r2,-27576
 1002280:	010041b4 	movhi	r4,262
 1002284:	213f9f04 	addi	r4,r4,-388
 1002288:	10c00504 	addi	r3,r2,20
 100228c:	20bffe15 	stw	r2,-8(r4)
 1002290:	20c00015 	stw	r3,0(r4)
 1002294:	20001c15 	stw	zero,112(r4)
 1002298:	20001d05 	stb	zero,116(r4)
 100229c:	20001d45 	stb	zero,117(r4)
 10022a0:	20001e15 	stw	zero,120(r4)
 10022a4:	20001f15 	stw	zero,124(r4)
 10022a8:	20002015 	stw	zero,128(r4)
 10022ac:	20002115 	stw	zero,132(r4)
 10022b0:	203fff15 	stw	zero,-4(r4)
 10022b4:	008000c4 	movi	r2,3
 10022b8:	d8800115 	stw	r2,4(sp)
 10022bc:	014041b4 	movhi	r5,262
 10022c0:	29403404 	addi	r5,r5,208
 10022c4:	100690c0 	call	100690c <_ZNSt9basic_iosIcSt11char_traitsIcEE4initEPSt15basic_streambufIcS1_E>
 10022c8:	00800184 	movi	r2,6
 10022cc:	d8800115 	stw	r2,4(sp)
 10022d0:	010041b4 	movhi	r4,262
 10022d4:	213fe504 	addi	r4,r4,-108
 10022d8:	103a7c00 	call	103a7c0 <_ZNSt8ios_baseC2Ev>
 10022dc:	008041b4 	movhi	r2,262
 10022e0:	10a7bb04 	addi	r2,r2,-24852
 10022e4:	010041b4 	movhi	r4,262
 10022e8:	213fe504 	addi	r4,r4,-108
 10022ec:	10c00504 	addi	r3,r2,20
 10022f0:	20c00015 	stw	r3,0(r4)
 10022f4:	20001c15 	stw	zero,112(r4)
 10022f8:	20001d05 	stb	zero,116(r4)
 10022fc:	20001d45 	stb	zero,117(r4)
 1002300:	20001e15 	stw	zero,120(r4)
 1002304:	20001f15 	stw	zero,124(r4)
 1002308:	20002015 	stw	zero,128(r4)
 100230c:	20002115 	stw	zero,132(r4)
 1002310:	20bfff15 	stw	r2,-4(r4)
 1002314:	00c00084 	movi	r3,2
 1002318:	d8c00115 	stw	r3,4(sp)
 100231c:	014041b4 	movhi	r5,262
 1002320:	29403e04 	addi	r5,r5,248
 1002324:	100690c0 	call	100690c <_ZNSt9basic_iosIcSt11char_traitsIcEE4initEPSt15basic_streambufIcS1_E>
 1002328:	00800144 	movi	r2,5
 100232c:	d8800115 	stw	r2,4(sp)
 1002330:	010041b4 	movhi	r4,262
 1002334:	21000804 	addi	r4,r4,32
 1002338:	103a7c00 	call	103a7c0 <_ZNSt8ios_baseC2Ev>
 100233c:	008041b4 	movhi	r2,262
 1002340:	10a7bb04 	addi	r2,r2,-24852
 1002344:	010041b4 	movhi	r4,262
 1002348:	21000804 	addi	r4,r4,32
 100234c:	10c00504 	addi	r3,r2,20
 1002350:	20c00015 	stw	r3,0(r4)
 1002354:	20001c15 	stw	zero,112(r4)
 1002358:	20001d05 	stb	zero,116(r4)
 100235c:	20001d45 	stb	zero,117(r4)
 1002360:	20001e15 	stw	zero,120(r4)
 1002364:	20001f15 	stw	zero,124(r4)
 1002368:	20002015 	stw	zero,128(r4)
 100236c:	20002115 	stw	zero,132(r4)
 1002370:	20bfff15 	stw	r2,-4(r4)
 1002374:	00c00044 	movi	r3,1
 1002378:	d8c00115 	stw	r3,4(sp)
 100237c:	014041b4 	movhi	r5,262
 1002380:	29403e04 	addi	r5,r5,248
 1002384:	100690c0 	call	100690c <_ZNSt9basic_iosIcSt11char_traitsIcEE4initEPSt15basic_streambufIcS1_E>
 1002388:	00c041b4 	movhi	r3,262
 100238c:	18ffc104 	addi	r3,r3,-252
 1002390:	008041b4 	movhi	r2,262
 1002394:	10bf9d04 	addi	r2,r2,-396
 1002398:	10c01e15 	stw	r3,120(r2)
 100239c:	01080004 	movi	r4,8192
 10023a0:	008041b4 	movhi	r2,262
 10023a4:	10bfe404 	addi	r2,r2,-112
 10023a8:	11000415 	stw	r4,16(r2)
 10023ac:	00ffffc4 	movi	r3,-1
 10023b0:	01400044 	movi	r5,1
 10023b4:	010041b4 	movhi	r4,262
 10023b8:	213c4a04 	addi	r4,r4,-3800
 10023bc:	d8c00115 	stw	r3,4(sp)
 10023c0:	103462c0 	call	103462c <_ZN9__gnu_cxx12__atomic_addEPVii>
 10023c4:	d809883a 	mov	r4,sp
 10023c8:	10424340 	call	1042434 <_Unwind_SjLj_Unregister>
 10023cc:	dfc01317 	ldw	ra,76(sp)
 10023d0:	df001217 	ldw	fp,72(sp)
 10023d4:	ddc01117 	ldw	r23,68(sp)
 10023d8:	dec01404 	addi	sp,sp,80
 10023dc:	f800283a 	ret
 10023e0:	d8800217 	ldw	r2,8(sp)
 10023e4:	d8c00117 	ldw	r3,4(sp)
 10023e8:	d8801015 	stw	r2,64(sp)
 10023ec:	00800044 	movi	r2,1
 10023f0:	18802a26 	beq	r3,r2,100249c <_ZNSt8ios_base4InitC2Ev+0x498>
 10023f4:	00800084 	movi	r2,2
 10023f8:	18801f26 	beq	r3,r2,1002478 <_ZNSt8ios_base4InitC2Ev+0x474>
 10023fc:	008000c4 	movi	r2,3
 1002400:	18801426 	beq	r3,r2,1002454 <_ZNSt8ios_base4InitC2Ev+0x450>
 1002404:	00800104 	movi	r2,4
 1002408:	18800e26 	beq	r3,r2,1002444 <_ZNSt8ios_base4InitC2Ev+0x440>
 100240c:	00800144 	movi	r2,5
 1002410:	18800c26 	beq	r3,r2,1002444 <_ZNSt8ios_base4InitC2Ev+0x440>
 1002414:	00800184 	movi	r2,6
 1002418:	18800a26 	beq	r3,r2,1002444 <_ZNSt8ios_base4InitC2Ev+0x440>
 100241c:	008001c4 	movi	r2,7
 1002420:	18800826 	beq	r3,r2,1002444 <_ZNSt8ios_base4InitC2Ev+0x440>
 1002424:	00c041b4 	movhi	r3,262
 1002428:	18c00804 	addi	r3,r3,32
 100242c:	008041b4 	movhi	r2,262
 1002430:	10a50104 	addi	r2,r2,-27644
 1002434:	18800015 	stw	r2,0(r3)
 1002438:	1809883a 	mov	r4,r3
 100243c:	d8000115 	stw	zero,4(sp)
 1002440:	103a6e00 	call	103a6e0 <_ZNSt8ios_baseD2Ev>
 1002444:	d9001017 	ldw	r4,64(sp)
 1002448:	00bfffc4 	movi	r2,-1
 100244c:	d8800115 	stw	r2,4(sp)
 1002450:	10426f00 	call	10426f0 <_Unwind_SjLj_Resume>
 1002454:	00c041b4 	movhi	r3,262
 1002458:	18ffc204 	addi	r3,r3,-248
 100245c:	008041b4 	movhi	r2,262
 1002460:	10a50104 	addi	r2,r2,-27644
 1002464:	18800015 	stw	r2,0(r3)
 1002468:	1809883a 	mov	r4,r3
 100246c:	d8000115 	stw	zero,4(sp)
 1002470:	103a6e00 	call	103a6e0 <_ZNSt8ios_baseD2Ev>
 1002474:	003ff306 	br	1002444 <_ZNSt8ios_base4InitC2Ev+0x440>
 1002478:	00c041b4 	movhi	r3,262
 100247c:	18ff9f04 	addi	r3,r3,-388
 1002480:	008041b4 	movhi	r2,262
 1002484:	10a50104 	addi	r2,r2,-27644
 1002488:	18800015 	stw	r2,0(r3)
 100248c:	1809883a 	mov	r4,r3
 1002490:	d8000115 	stw	zero,4(sp)
 1002494:	103a6e00 	call	103a6e0 <_ZNSt8ios_baseD2Ev>
 1002498:	003fea06 	br	1002444 <_ZNSt8ios_base4InitC2Ev+0x440>
 100249c:	00c041b4 	movhi	r3,262
 10024a0:	18ffe504 	addi	r3,r3,-108
 10024a4:	008041b4 	movhi	r2,262
 10024a8:	10a50104 	addi	r2,r2,-27644
 10024ac:	18800015 	stw	r2,0(r3)
 10024b0:	1809883a 	mov	r4,r3
 10024b4:	d8000115 	stw	zero,4(sp)
 10024b8:	103a6e00 	call	103a6e0 <_ZNSt8ios_baseD2Ev>
 10024bc:	003fe106 	br	1002444 <_ZNSt8ios_base4InitC2Ev+0x440>

010024c0 <_ZNSt8ios_base4InitC1Ev>:
 10024c0:	deffec04 	addi	sp,sp,-80
 10024c4:	008040f4 	movhi	r2,259
 10024c8:	109cae04 	addi	r2,r2,29368
 10024cc:	d8800615 	stw	r2,24(sp)
 10024d0:	00c04174 	movhi	r3,261
 10024d4:	18dfb304 	addi	r3,r3,32460
 10024d8:	00804034 	movhi	r2,256
 10024dc:	108a2704 	addi	r2,r2,10396
 10024e0:	d809883a 	mov	r4,sp
 10024e4:	d8800915 	stw	r2,36(sp)
 10024e8:	dfc01315 	stw	ra,76(sp)
 10024ec:	df001215 	stw	fp,72(sp)
 10024f0:	ddc01115 	stw	r23,68(sp)
 10024f4:	d8c00715 	stw	r3,28(sp)
 10024f8:	dec00815 	stw	sp,32(sp)
 10024fc:	dec00a15 	stw	sp,40(sp)
 1002500:	10424240 	call	1042424 <_Unwind_SjLj_Register>
 1002504:	00bfffc4 	movi	r2,-1
 1002508:	010041b4 	movhi	r4,262
 100250c:	213c4a04 	addi	r4,r4,-3800
 1002510:	01400044 	movi	r5,1
 1002514:	d8800115 	stw	r2,4(sp)
 1002518:	10346180 	call	1034618 <_ZN9__gnu_cxx18__exchange_and_addEPVii>
 100251c:	10000726 	beq	r2,zero,100253c <_ZNSt8ios_base4InitC1Ev+0x7c>
 1002520:	d809883a 	mov	r4,sp
 1002524:	10424340 	call	1042434 <_Unwind_SjLj_Unregister>
 1002528:	dfc01317 	ldw	ra,76(sp)
 100252c:	df001217 	ldw	fp,72(sp)
 1002530:	ddc01117 	ldw	r23,68(sp)
 1002534:	dec01404 	addi	sp,sp,80
 1002538:	f800283a 	ret
 100253c:	00c041b4 	movhi	r3,262
 1002540:	18f4a404 	addi	r3,r3,-11632
 1002544:	18800017 	ldw	r2,0(r3)
 1002548:	00c00044 	movi	r3,1
 100254c:	10800217 	ldw	r2,8(r2)
 1002550:	d8800f15 	stw	r2,60(sp)
 1002554:	008041b4 	movhi	r2,262
 1002558:	10802a04 	addi	r2,r2,168
 100255c:	11000704 	addi	r4,r2,28
 1002560:	008041b4 	movhi	r2,262
 1002564:	10b49b04 	addi	r2,r2,-11668
 1002568:	10c00005 	stb	r3,0(r2)
 100256c:	008041b4 	movhi	r2,262
 1002570:	10802a04 	addi	r2,r2,168
 1002574:	00c041b4 	movhi	r3,262
 1002578:	18e7ca04 	addi	r3,r3,-24792
 100257c:	10c00015 	stw	r3,0(r2)
 1002580:	10000115 	stw	zero,4(r2)
 1002584:	10000215 	stw	zero,8(r2)
 1002588:	10000315 	stw	zero,12(r2)
 100258c:	10000415 	stw	zero,16(r2)
 1002590:	10000515 	stw	zero,20(r2)
 1002594:	10000615 	stw	zero,24(r2)
 1002598:	1005b4c0 	call	1005b4c <_ZNSt6localeC1Ev>
 100259c:	d8c00f17 	ldw	r3,60(sp)
 10025a0:	010041b4 	movhi	r4,262
 10025a4:	2134a404 	addi	r4,r4,-11632
 10025a8:	20800017 	ldw	r2,0(r4)
 10025ac:	010041b4 	movhi	r4,262
 10025b0:	21002a04 	addi	r4,r4,168
 10025b4:	20c00815 	stw	r3,32(r4)
 10025b8:	10800117 	ldw	r2,4(r2)
 10025bc:	00c041b4 	movhi	r3,262
 10025c0:	18c02a04 	addi	r3,r3,168
 10025c4:	d8800e15 	stw	r2,56(sp)
 10025c8:	008041b4 	movhi	r2,262
 10025cc:	10803404 	addi	r2,r2,208
 10025d0:	11000704 	addi	r4,r2,28
 10025d4:	008041b4 	movhi	r2,262
 10025d8:	10a79904 	addi	r2,r2,-24988
 10025dc:	18800015 	stw	r2,0(r3)
 10025e0:	00bfffc4 	movi	r2,-1
 10025e4:	18800915 	stw	r2,36(r3)
 10025e8:	00c041b4 	movhi	r3,262
 10025ec:	18c03404 	addi	r3,r3,208
 10025f0:	008041b4 	movhi	r2,262
 10025f4:	10a7ca04 	addi	r2,r2,-24792
 10025f8:	18800015 	stw	r2,0(r3)
 10025fc:	18000115 	stw	zero,4(r3)
 1002600:	18000215 	stw	zero,8(r3)
 1002604:	18000315 	stw	zero,12(r3)
 1002608:	18000415 	stw	zero,16(r3)
 100260c:	18000515 	stw	zero,20(r3)
 1002610:	18000615 	stw	zero,24(r3)
 1002614:	1005b4c0 	call	1005b4c <_ZNSt6localeC1Ev>
 1002618:	00c041b4 	movhi	r3,262
 100261c:	18f4a404 	addi	r3,r3,-11632
 1002620:	d9000e17 	ldw	r4,56(sp)
 1002624:	18800017 	ldw	r2,0(r3)
 1002628:	00c041b4 	movhi	r3,262
 100262c:	18c03404 	addi	r3,r3,208
 1002630:	19000815 	stw	r4,32(r3)
 1002634:	10800317 	ldw	r2,12(r2)
 1002638:	d8800d15 	stw	r2,52(sp)
 100263c:	008041b4 	movhi	r2,262
 1002640:	10803e04 	addi	r2,r2,248
 1002644:	11000704 	addi	r4,r2,28
 1002648:	00bfffc4 	movi	r2,-1
 100264c:	18800915 	stw	r2,36(r3)
 1002650:	008041b4 	movhi	r2,262
 1002654:	10a7ca04 	addi	r2,r2,-24792
 1002658:	00c041b4 	movhi	r3,262
 100265c:	18c03e04 	addi	r3,r3,248
 1002660:	18800015 	stw	r2,0(r3)
 1002664:	008041b4 	movhi	r2,262
 1002668:	10a79904 	addi	r2,r2,-24988
 100266c:	00c041b4 	movhi	r3,262
 1002670:	18c03404 	addi	r3,r3,208
 1002674:	18800015 	stw	r2,0(r3)
 1002678:	00c041b4 	movhi	r3,262
 100267c:	18c03e04 	addi	r3,r3,248
 1002680:	18000115 	stw	zero,4(r3)
 1002684:	18000215 	stw	zero,8(r3)
 1002688:	18000315 	stw	zero,12(r3)
 100268c:	18000415 	stw	zero,16(r3)
 1002690:	18000515 	stw	zero,20(r3)
 1002694:	18000615 	stw	zero,24(r3)
 1002698:	1005b4c0 	call	1005b4c <_ZNSt6localeC1Ev>
 100269c:	00bfffc4 	movi	r2,-1
 10026a0:	010041b4 	movhi	r4,262
 10026a4:	21003e04 	addi	r4,r4,248
 10026a8:	20800915 	stw	r2,36(r4)
 10026ac:	d8800d17 	ldw	r2,52(sp)
 10026b0:	00c041b4 	movhi	r3,262
 10026b4:	18e79904 	addi	r3,r3,-24988
 10026b8:	20c00015 	stw	r3,0(r4)
 10026bc:	20800815 	stw	r2,32(r4)
 10026c0:	00800204 	movi	r2,8
 10026c4:	d8800115 	stw	r2,4(sp)
 10026c8:	010041b4 	movhi	r4,262
 10026cc:	213fc204 	addi	r4,r4,-248
 10026d0:	103a7c00 	call	103a7c0 <_ZNSt8ios_baseC2Ev>
 10026d4:	008041b4 	movhi	r2,262
 10026d8:	10a7bb04 	addi	r2,r2,-24852
 10026dc:	010041b4 	movhi	r4,262
 10026e0:	213fc204 	addi	r4,r4,-248
 10026e4:	10c00504 	addi	r3,r2,20
 10026e8:	20c00015 	stw	r3,0(r4)
 10026ec:	20001c15 	stw	zero,112(r4)
 10026f0:	20001d05 	stb	zero,116(r4)
 10026f4:	20001d45 	stb	zero,117(r4)
 10026f8:	20001e15 	stw	zero,120(r4)
 10026fc:	20001f15 	stw	zero,124(r4)
 1002700:	20002015 	stw	zero,128(r4)
 1002704:	20002115 	stw	zero,132(r4)
 1002708:	20bfff15 	stw	r2,-4(r4)
 100270c:	00c00104 	movi	r3,4
 1002710:	d8c00115 	stw	r3,4(sp)
 1002714:	014041b4 	movhi	r5,262
 1002718:	29402a04 	addi	r5,r5,168
 100271c:	100690c0 	call	100690c <_ZNSt9basic_iosIcSt11char_traitsIcEE4initEPSt15basic_streambufIcS1_E>
 1002720:	008001c4 	movi	r2,7
 1002724:	d8800115 	stw	r2,4(sp)
 1002728:	010041b4 	movhi	r4,262
 100272c:	213f9f04 	addi	r4,r4,-388
 1002730:	103a7c00 	call	103a7c0 <_ZNSt8ios_baseC2Ev>
 1002734:	008041b4 	movhi	r2,262
 1002738:	10a51204 	addi	r2,r2,-27576
 100273c:	010041b4 	movhi	r4,262
 1002740:	213f9f04 	addi	r4,r4,-388
 1002744:	10c00504 	addi	r3,r2,20
 1002748:	20bffe15 	stw	r2,-8(r4)
 100274c:	20c00015 	stw	r3,0(r4)
 1002750:	20001c15 	stw	zero,112(r4)
 1002754:	20001d05 	stb	zero,116(r4)
 1002758:	20001d45 	stb	zero,117(r4)
 100275c:	20001e15 	stw	zero,120(r4)
 1002760:	20001f15 	stw	zero,124(r4)
 1002764:	20002015 	stw	zero,128(r4)
 1002768:	20002115 	stw	zero,132(r4)
 100276c:	203fff15 	stw	zero,-4(r4)
 1002770:	008000c4 	movi	r2,3
 1002774:	d8800115 	stw	r2,4(sp)
 1002778:	014041b4 	movhi	r5,262
 100277c:	29403404 	addi	r5,r5,208
 1002780:	100690c0 	call	100690c <_ZNSt9basic_iosIcSt11char_traitsIcEE4initEPSt15basic_streambufIcS1_E>
 1002784:	00800184 	movi	r2,6
 1002788:	d8800115 	stw	r2,4(sp)
 100278c:	010041b4 	movhi	r4,262
 1002790:	213fe504 	addi	r4,r4,-108
 1002794:	103a7c00 	call	103a7c0 <_ZNSt8ios_baseC2Ev>
 1002798:	008041b4 	movhi	r2,262
 100279c:	10a7bb04 	addi	r2,r2,-24852
 10027a0:	010041b4 	movhi	r4,262
 10027a4:	213fe504 	addi	r4,r4,-108
 10027a8:	10c00504 	addi	r3,r2,20
 10027ac:	20c00015 	stw	r3,0(r4)
 10027b0:	20001c15 	stw	zero,112(r4)
 10027b4:	20001d05 	stb	zero,116(r4)
 10027b8:	20001d45 	stb	zero,117(r4)
 10027bc:	20001e15 	stw	zero,120(r4)
 10027c0:	20001f15 	stw	zero,124(r4)
 10027c4:	20002015 	stw	zero,128(r4)
 10027c8:	20002115 	stw	zero,132(r4)
 10027cc:	20bfff15 	stw	r2,-4(r4)
 10027d0:	00c00084 	movi	r3,2
 10027d4:	d8c00115 	stw	r3,4(sp)
 10027d8:	014041b4 	movhi	r5,262
 10027dc:	29403e04 	addi	r5,r5,248
 10027e0:	100690c0 	call	100690c <_ZNSt9basic_iosIcSt11char_traitsIcEE4initEPSt15basic_streambufIcS1_E>
 10027e4:	00800144 	movi	r2,5
 10027e8:	d8800115 	stw	r2,4(sp)
 10027ec:	010041b4 	movhi	r4,262
 10027f0:	21000804 	addi	r4,r4,32
 10027f4:	103a7c00 	call	103a7c0 <_ZNSt8ios_baseC2Ev>
 10027f8:	008041b4 	movhi	r2,262
 10027fc:	10a7bb04 	addi	r2,r2,-24852
 1002800:	010041b4 	movhi	r4,262
 1002804:	21000804 	addi	r4,r4,32
 1002808:	10c00504 	addi	r3,r2,20
 100280c:	20c00015 	stw	r3,0(r4)
 1002810:	20001c15 	stw	zero,112(r4)
 1002814:	20001d05 	stb	zero,116(r4)
 1002818:	20001d45 	stb	zero,117(r4)
 100281c:	20001e15 	stw	zero,120(r4)
 1002820:	20001f15 	stw	zero,124(r4)
 1002824:	20002015 	stw	zero,128(r4)
 1002828:	20002115 	stw	zero,132(r4)
 100282c:	20bfff15 	stw	r2,-4(r4)
 1002830:	00c00044 	movi	r3,1
 1002834:	d8c00115 	stw	r3,4(sp)
 1002838:	014041b4 	movhi	r5,262
 100283c:	29403e04 	addi	r5,r5,248
 1002840:	100690c0 	call	100690c <_ZNSt9basic_iosIcSt11char_traitsIcEE4initEPSt15basic_streambufIcS1_E>
 1002844:	00c041b4 	movhi	r3,262
 1002848:	18ffc104 	addi	r3,r3,-252
 100284c:	008041b4 	movhi	r2,262
 1002850:	10bf9d04 	addi	r2,r2,-396
 1002854:	10c01e15 	stw	r3,120(r2)
 1002858:	01080004 	movi	r4,8192
 100285c:	008041b4 	movhi	r2,262
 1002860:	10bfe404 	addi	r2,r2,-112
 1002864:	11000415 	stw	r4,16(r2)
 1002868:	00ffffc4 	movi	r3,-1
 100286c:	01400044 	movi	r5,1
 1002870:	010041b4 	movhi	r4,262
 1002874:	213c4a04 	addi	r4,r4,-3800
 1002878:	d8c00115 	stw	r3,4(sp)
 100287c:	103462c0 	call	103462c <_ZN9__gnu_cxx12__atomic_addEPVii>
 1002880:	d809883a 	mov	r4,sp
 1002884:	10424340 	call	1042434 <_Unwind_SjLj_Unregister>
 1002888:	dfc01317 	ldw	ra,76(sp)
 100288c:	df001217 	ldw	fp,72(sp)
 1002890:	ddc01117 	ldw	r23,68(sp)
 1002894:	dec01404 	addi	sp,sp,80
 1002898:	f800283a 	ret
 100289c:	d8800217 	ldw	r2,8(sp)
 10028a0:	d8c00117 	ldw	r3,4(sp)
 10028a4:	d8801015 	stw	r2,64(sp)
 10028a8:	00800044 	movi	r2,1
 10028ac:	18802a26 	beq	r3,r2,1002958 <_ZNSt8ios_base4InitC1Ev+0x498>
 10028b0:	00800084 	movi	r2,2
 10028b4:	18801f26 	beq	r3,r2,1002934 <_ZNSt8ios_base4InitC1Ev+0x474>
 10028b8:	008000c4 	movi	r2,3
 10028bc:	18801426 	beq	r3,r2,1002910 <_ZNSt8ios_base4InitC1Ev+0x450>
 10028c0:	00800104 	movi	r2,4
 10028c4:	18800e26 	beq	r3,r2,1002900 <_ZNSt8ios_base4InitC1Ev+0x440>
 10028c8:	00800144 	movi	r2,5
 10028cc:	18800c26 	beq	r3,r2,1002900 <_ZNSt8ios_base4InitC1Ev+0x440>
 10028d0:	00800184 	movi	r2,6
 10028d4:	18800a26 	beq	r3,r2,1002900 <_ZNSt8ios_base4InitC1Ev+0x440>
 10028d8:	008001c4 	movi	r2,7
 10028dc:	18800826 	beq	r3,r2,1002900 <_ZNSt8ios_base4InitC1Ev+0x440>
 10028e0:	00c041b4 	movhi	r3,262
 10028e4:	18c00804 	addi	r3,r3,32
 10028e8:	008041b4 	movhi	r2,262
 10028ec:	10a50104 	addi	r2,r2,-27644
 10028f0:	18800015 	stw	r2,0(r3)
 10028f4:	1809883a 	mov	r4,r3
 10028f8:	d8000115 	stw	zero,4(sp)
 10028fc:	103a6e00 	call	103a6e0 <_ZNSt8ios_baseD2Ev>
 1002900:	d9001017 	ldw	r4,64(sp)
 1002904:	00bfffc4 	movi	r2,-1
 1002908:	d8800115 	stw	r2,4(sp)
 100290c:	10426f00 	call	10426f0 <_Unwind_SjLj_Resume>
 1002910:	00c041b4 	movhi	r3,262
 1002914:	18ffc204 	addi	r3,r3,-248
 1002918:	008041b4 	movhi	r2,262
 100291c:	10a50104 	addi	r2,r2,-27644
 1002920:	18800015 	stw	r2,0(r3)
 1002924:	1809883a 	mov	r4,r3
 1002928:	d8000115 	stw	zero,4(sp)
 100292c:	103a6e00 	call	103a6e0 <_ZNSt8ios_baseD2Ev>
 1002930:	003ff306 	br	1002900 <_ZNSt8ios_base4InitC1Ev+0x440>
 1002934:	00c041b4 	movhi	r3,262
 1002938:	18ff9f04 	addi	r3,r3,-388
 100293c:	008041b4 	movhi	r2,262
 1002940:	10a50104 	addi	r2,r2,-27644
 1002944:	18800015 	stw	r2,0(r3)
 1002948:	1809883a 	mov	r4,r3
 100294c:	d8000115 	stw	zero,4(sp)
 1002950:	103a6e00 	call	103a6e0 <_ZNSt8ios_baseD2Ev>
 1002954:	003fea06 	br	1002900 <_ZNSt8ios_base4InitC1Ev+0x440>
 1002958:	00c041b4 	movhi	r3,262
 100295c:	18ffe504 	addi	r3,r3,-108
 1002960:	008041b4 	movhi	r2,262
 1002964:	10a50104 	addi	r2,r2,-27644
 1002968:	18800015 	stw	r2,0(r3)
 100296c:	1809883a 	mov	r4,r3
 1002970:	d8000115 	stw	zero,4(sp)
 1002974:	103a6e00 	call	103a6e0 <_ZNSt8ios_baseD2Ev>
 1002978:	003fe106 	br	1002900 <_ZNSt8ios_base4InitC1Ev+0x440>

0100297c <_ZNSt8ios_base15sync_with_stdioEb>:
 100297c:	deffeb04 	addi	sp,sp,-84
 1002980:	008040f4 	movhi	r2,259
 1002984:	109cae04 	addi	r2,r2,29368
 1002988:	00c04174 	movhi	r3,261
 100298c:	18dfb804 	addi	r3,r3,32480
 1002990:	d8800715 	stw	r2,28(sp)
 1002994:	d9000f05 	stb	r4,60(sp)
 1002998:	00804034 	movhi	r2,256
 100299c:	108ada04 	addi	r2,r2,11112
 10029a0:	d9000104 	addi	r4,sp,4
 10029a4:	d8c00815 	stw	r3,32(sp)
 10029a8:	d8800a15 	stw	r2,40(sp)
 10029ac:	dfc01415 	stw	ra,80(sp)
 10029b0:	df001315 	stw	fp,76(sp)
 10029b4:	ddc01215 	stw	r23,72(sp)
 10029b8:	dec00915 	stw	sp,36(sp)
 10029bc:	dec00b15 	stw	sp,44(sp)
 10029c0:	10424240 	call	1042424 <_Unwind_SjLj_Register>
 10029c4:	00c041b4 	movhi	r3,262
 10029c8:	18f49b04 	addi	r3,r3,-11668
 10029cc:	18c00003 	ldbu	r3,0(r3)
 10029d0:	d8800f03 	ldbu	r2,60(sp)
 10029d4:	d8c00e05 	stb	r3,56(sp)
 10029d8:	1000011e 	bne	r2,zero,10029e0 <_ZNSt8ios_base15sync_with_stdioEb+0x64>
 10029dc:	18000a1e 	bne	r3,zero,1002a08 <_ZNSt8ios_base15sync_with_stdioEb+0x8c>
 10029e0:	d8c00e03 	ldbu	r3,56(sp)
 10029e4:	d9000104 	addi	r4,sp,4
 10029e8:	d8c01115 	stw	r3,68(sp)
 10029ec:	10424340 	call	1042434 <_Unwind_SjLj_Unregister>
 10029f0:	d8801117 	ldw	r2,68(sp)
 10029f4:	dfc01417 	ldw	ra,80(sp)
 10029f8:	df001317 	ldw	fp,76(sp)
 10029fc:	ddc01217 	ldw	r23,72(sp)
 1002a00:	dec01504 	addi	sp,sp,84
 1002a04:	f800283a 	ret
 1002a08:	00bfffc4 	movi	r2,-1
 1002a0c:	d809883a 	mov	r4,sp
 1002a10:	d8800215 	stw	r2,8(sp)
 1002a14:	10024c00 	call	10024c0 <_ZNSt8ios_base4InitC1Ev>
 1002a18:	00c041b4 	movhi	r3,262
 1002a1c:	18f49b04 	addi	r3,r3,-11668
 1002a20:	008041b4 	movhi	r2,262
 1002a24:	10802a04 	addi	r2,r2,168
 1002a28:	18000005 	stb	zero,0(r3)
 1002a2c:	00c041b4 	movhi	r3,262
 1002a30:	18e7ca04 	addi	r3,r3,-24792
 1002a34:	11000704 	addi	r4,r2,28
 1002a38:	10c00015 	stw	r3,0(r2)
 1002a3c:	1003ef00 	call	1003ef0 <_ZNSt6localeD1Ev>
 1002a40:	008041b4 	movhi	r2,262
 1002a44:	10803404 	addi	r2,r2,208
 1002a48:	00c041b4 	movhi	r3,262
 1002a4c:	18e7ca04 	addi	r3,r3,-24792
 1002a50:	11000704 	addi	r4,r2,28
 1002a54:	10c00015 	stw	r3,0(r2)
 1002a58:	1003ef00 	call	1003ef0 <_ZNSt6localeD1Ev>
 1002a5c:	008041b4 	movhi	r2,262
 1002a60:	10803e04 	addi	r2,r2,248
 1002a64:	00c041b4 	movhi	r3,262
 1002a68:	18e7ca04 	addi	r3,r3,-24792
 1002a6c:	11000704 	addi	r4,r2,28
 1002a70:	10c00015 	stw	r3,0(r2)
 1002a74:	1003ef00 	call	1003ef0 <_ZNSt6localeD1Ev>
 1002a78:	008041b4 	movhi	r2,262
 1002a7c:	10b4a404 	addi	r2,r2,-11632
 1002a80:	10c00017 	ldw	r3,0(r2)
 1002a84:	008000c4 	movi	r2,3
 1002a88:	010041b4 	movhi	r4,262
 1002a8c:	21004804 	addi	r4,r4,288
 1002a90:	19400217 	ldw	r5,8(r3)
 1002a94:	01800404 	movi	r6,16
 1002a98:	d8800215 	stw	r2,8(sp)
 1002a9c:	01c10004 	movi	r7,1024
 1002aa0:	1005dcc0 	call	1005dcc <_ZN9__gnu_cxx13stdio_filebufIcSt11char_traitsIcEEC1EP7__sFILESt13_Ios_Openmodem>
 1002aa4:	00c041b4 	movhi	r3,262
 1002aa8:	18f4a404 	addi	r3,r3,-11632
 1002aac:	18800017 	ldw	r2,0(r3)
 1002ab0:	00c00084 	movi	r3,2
 1002ab4:	010041b4 	movhi	r4,262
 1002ab8:	21006504 	addi	r4,r4,404
 1002abc:	11400117 	ldw	r5,4(r2)
 1002ac0:	01800204 	movi	r6,8
 1002ac4:	d8c00215 	stw	r3,8(sp)
 1002ac8:	01c10004 	movi	r7,1024
 1002acc:	1005dcc0 	call	1005dcc <_ZN9__gnu_cxx13stdio_filebufIcSt11char_traitsIcEEC1EP7__sFILESt13_Ios_Openmodem>
 1002ad0:	00c041b4 	movhi	r3,262
 1002ad4:	18f4a404 	addi	r3,r3,-11632
 1002ad8:	18800017 	ldw	r2,0(r3)
 1002adc:	00c00044 	movi	r3,1
 1002ae0:	01800404 	movi	r6,16
 1002ae4:	11400317 	ldw	r5,12(r2)
 1002ae8:	01c10004 	movi	r7,1024
 1002aec:	d8c00215 	stw	r3,8(sp)
 1002af0:	010041b4 	movhi	r4,262
 1002af4:	21008204 	addi	r4,r4,520
 1002af8:	1005dcc0 	call	1005dcc <_ZN9__gnu_cxx13stdio_filebufIcSt11char_traitsIcEEC1EP7__sFILESt13_Ios_Openmodem>
 1002afc:	00800104 	movi	r2,4
 1002b00:	d8800215 	stw	r2,8(sp)
 1002b04:	010041b4 	movhi	r4,262
 1002b08:	213fc204 	addi	r4,r4,-248
 1002b0c:	014041b4 	movhi	r5,262
 1002b10:	29404804 	addi	r5,r5,288
 1002b14:	1006d400 	call	1006d40 <_ZNSt9basic_iosIcSt11char_traitsIcEE5rdbufEPSt15basic_streambufIcS1_E>
 1002b18:	010041b4 	movhi	r4,262
 1002b1c:	213f9f04 	addi	r4,r4,-388
 1002b20:	014041b4 	movhi	r5,262
 1002b24:	29406504 	addi	r5,r5,404
 1002b28:	1006d400 	call	1006d40 <_ZNSt9basic_iosIcSt11char_traitsIcEE5rdbufEPSt15basic_streambufIcS1_E>
 1002b2c:	010041b4 	movhi	r4,262
 1002b30:	213fe504 	addi	r4,r4,-108
 1002b34:	014041b4 	movhi	r5,262
 1002b38:	29408204 	addi	r5,r5,520
 1002b3c:	1006d400 	call	1006d40 <_ZNSt9basic_iosIcSt11char_traitsIcEE5rdbufEPSt15basic_streambufIcS1_E>
 1002b40:	014041b4 	movhi	r5,262
 1002b44:	29408204 	addi	r5,r5,520
 1002b48:	010041b4 	movhi	r4,262
 1002b4c:	21000804 	addi	r4,r4,32
 1002b50:	1006d400 	call	1006d40 <_ZNSt9basic_iosIcSt11char_traitsIcEE5rdbufEPSt15basic_streambufIcS1_E>
 1002b54:	00bfffc4 	movi	r2,-1
 1002b58:	d809883a 	mov	r4,sp
 1002b5c:	d8800215 	stw	r2,8(sp)
 1002b60:	1001e140 	call	1001e14 <_ZNSt8ios_base4InitD1Ev>
 1002b64:	003f9e06 	br	10029e0 <_ZNSt8ios_base15sync_with_stdioEb+0x64>
 1002b68:	d8800317 	ldw	r2,12(sp)
 1002b6c:	d809883a 	mov	r4,sp
 1002b70:	d8000215 	stw	zero,8(sp)
 1002b74:	d8801015 	stw	r2,64(sp)
 1002b78:	1001e140 	call	1001e14 <_ZNSt8ios_base4InitD1Ev>
 1002b7c:	d9001017 	ldw	r4,64(sp)
 1002b80:	00bfffc4 	movi	r2,-1
 1002b84:	d8800215 	stw	r2,8(sp)
 1002b88:	10426f00 	call	10426f0 <_Unwind_SjLj_Resume>

01002b8c <_ZNSt6localeC2EPNS_5_ImplE>:
 1002b8c:	21400015 	stw	r5,0(r4)
 1002b90:	f800283a 	ret

01002b94 <_ZNSt6localeC1EPNS_5_ImplE>:
 1002b94:	21400015 	stw	r5,0(r4)
 1002b98:	f800283a 	ret

01002b9c <_ZNSt6locale5facet13_S_get_c_nameEv>:
 1002b9c:	d0a00804 	addi	r2,gp,-32736
 1002ba0:	f800283a 	ret

01002ba4 <_ZNKSt6locale2id5_M_idEv>:
 1002ba4:	defffe04 	addi	sp,sp,-8
 1002ba8:	dc000015 	stw	r16,0(sp)
 1002bac:	2021883a 	mov	r16,r4
 1002bb0:	80800017 	ldw	r2,0(r16)
 1002bb4:	dfc00115 	stw	ra,4(sp)
 1002bb8:	01400044 	movi	r5,1
 1002bbc:	d127c604 	addi	r4,gp,-24808
 1002bc0:	1000031e 	bne	r2,zero,1002bd0 <_ZNKSt6locale2id5_M_idEv+0x2c>
 1002bc4:	10346180 	call	1034618 <_ZN9__gnu_cxx18__exchange_and_addEPVii>
 1002bc8:	10800044 	addi	r2,r2,1
 1002bcc:	80800015 	stw	r2,0(r16)
 1002bd0:	10bfffc4 	addi	r2,r2,-1
 1002bd4:	dfc00117 	ldw	ra,4(sp)
 1002bd8:	dc000017 	ldw	r16,0(sp)
 1002bdc:	dec00204 	addi	sp,sp,8
 1002be0:	f800283a 	ret

01002be4 <_ZNSt6locale21_S_normalize_categoryEi>:
 1002be4:	deffff04 	addi	sp,sp,-4
 1002be8:	dfc00015 	stw	ra,0(sp)
 1002bec:	20001726 	beq	r4,zero,1002c4c <_ZNSt6locale21_S_normalize_categoryEi+0x68>
 1002bf0:	20800fcc 	andi	r2,r4,63
 1002bf4:	1000121e 	bne	r2,zero,1002c40 <_ZNSt6locale21_S_normalize_categoryEi+0x5c>
 1002bf8:	00800144 	movi	r2,5
 1002bfc:	1100032e 	bgeu	r2,r4,1002c0c <_ZNSt6locale21_S_normalize_categoryEi+0x28>
 1002c00:	010041b4 	movhi	r4,262
 1002c04:	21247604 	addi	r4,r4,-28200
 1002c08:	1039c100 	call	1039c10 <_ZSt21__throw_runtime_errorPKc>
 1002c0c:	2105883a 	add	r2,r4,r4
 1002c10:	1085883a 	add	r2,r2,r2
 1002c14:	00c04034 	movhi	r3,256
 1002c18:	18cb0a04 	addi	r3,r3,11304
 1002c1c:	10c5883a 	add	r2,r2,r3
 1002c20:	11000017 	ldw	r4,0(r2)
 1002c24:	2000683a 	jmp	r4
 1002c28:	01002c5c 	xori	r4,zero,177
 1002c2c:	01002c64 	muli	r4,zero,177
 1002c30:	01002c6c 	andhi	r4,zero,177
 1002c34:	01002c74 	movhi	r4,177
 1002c38:	01002c7c 	xorhi	r4,zero,177
 1002c3c:	01002c84 	movi	r4,178
 1002c40:	00bff004 	movi	r2,-64
 1002c44:	2084703a 	and	r2,r4,r2
 1002c48:	103feb1e 	bne	r2,zero,1002bf8 <_ZNSt6locale21_S_normalize_categoryEi+0x14>
 1002c4c:	2005883a 	mov	r2,r4
 1002c50:	dfc00017 	ldw	ra,0(sp)
 1002c54:	dec00104 	addi	sp,sp,4
 1002c58:	f800283a 	ret
 1002c5c:	00800fc4 	movi	r2,63
 1002c60:	003ffb06 	br	1002c50 <_ZNSt6locale21_S_normalize_categoryEi+0x6c>
 1002c64:	00800104 	movi	r2,4
 1002c68:	003ff906 	br	1002c50 <_ZNSt6locale21_S_normalize_categoryEi+0x6c>
 1002c6c:	00800044 	movi	r2,1
 1002c70:	003ff706 	br	1002c50 <_ZNSt6locale21_S_normalize_categoryEi+0x6c>
 1002c74:	00800404 	movi	r2,16
 1002c78:	003ff506 	br	1002c50 <_ZNSt6locale21_S_normalize_categoryEi+0x6c>
 1002c7c:	00800084 	movi	r2,2
 1002c80:	003ff306 	br	1002c50 <_ZNSt6locale21_S_normalize_categoryEi+0x6c>
 1002c84:	00800204 	movi	r2,8
 1002c88:	003ff106 	br	1002c50 <_ZNSt6locale21_S_normalize_categoryEi+0x6c>

01002c8c <_ZNSt6locale5facetD0Ev>:
 1002c8c:	008041b4 	movhi	r2,262
 1002c90:	10a48d04 	addi	r2,r2,-28108
 1002c94:	20800015 	stw	r2,0(r4)
 1002c98:	1036b441 	jmpi	1036b44 <_ZdlPv>

01002c9c <_ZNSt6locale5facetD1Ev>:
 1002c9c:	008041b4 	movhi	r2,262
 1002ca0:	10a48d04 	addi	r2,r2,-28108
 1002ca4:	20800015 	stw	r2,0(r4)
 1002ca8:	f800283a 	ret

01002cac <_ZNSt6locale5facetD2Ev>:
 1002cac:	008041b4 	movhi	r2,262
 1002cb0:	10a48d04 	addi	r2,r2,-28108
 1002cb4:	20800015 	stw	r2,0(r4)
 1002cb8:	f800283a 	ret

01002cbc <_ZNSt6locale5facet18_S_initialize_onceEv>:
 1002cbc:	d127c504 	addi	r4,gp,-24812
 1002cc0:	d1600804 	addi	r5,gp,-32736
 1002cc4:	000d883a 	mov	r6,zero
 1002cc8:	1035c781 	jmpi	1035c78 <_ZNSt6locale5facet18_S_create_c_localeERPiPKcS1_>

01002ccc <_ZNSt6locale5facet15_S_get_c_localeEv>:
 1002ccc:	d0a7c517 	ldw	r2,-24812(gp)
 1002cd0:	deffff04 	addi	sp,sp,-4
 1002cd4:	dfc00015 	stw	ra,0(sp)
 1002cd8:	10000326 	beq	r2,zero,1002ce8 <_ZNSt6locale5facet15_S_get_c_localeEv+0x1c>
 1002cdc:	dfc00017 	ldw	ra,0(sp)
 1002ce0:	dec00104 	addi	sp,sp,4
 1002ce4:	f800283a 	ret
 1002ce8:	1002cbc0 	call	1002cbc <_ZNSt6locale5facet18_S_initialize_onceEv>
 1002cec:	d0a7c517 	ldw	r2,-24812(gp)
 1002cf0:	dfc00017 	ldw	ra,0(sp)
 1002cf4:	dec00104 	addi	sp,sp,4
 1002cf8:	f800283a 	ret

01002cfc <_ZNSt6localeC1ERKS_>:
 1002cfc:	deffee04 	addi	sp,sp,-72
 1002d00:	008040f4 	movhi	r2,259
 1002d04:	109cae04 	addi	r2,r2,29368
 1002d08:	00c04174 	movhi	r3,261
 1002d0c:	18dfbb04 	addi	r3,r3,32492
 1002d10:	d8800615 	stw	r2,24(sp)
 1002d14:	d9000d15 	stw	r4,52(sp)
 1002d18:	00804034 	movhi	r2,256
 1002d1c:	108b6104 	addi	r2,r2,11652
 1002d20:	d809883a 	mov	r4,sp
 1002d24:	d8c00715 	stw	r3,28(sp)
 1002d28:	d8800915 	stw	r2,36(sp)
 1002d2c:	d9400e15 	stw	r5,56(sp)
 1002d30:	dfc01115 	stw	ra,68(sp)
 1002d34:	df001015 	stw	fp,64(sp)
 1002d38:	ddc00f15 	stw	r23,60(sp)
 1002d3c:	dec00815 	stw	sp,32(sp)
 1002d40:	dec00a15 	stw	sp,40(sp)
 1002d44:	10424240 	call	1042424 <_Unwind_SjLj_Register>
 1002d48:	d8800e17 	ldw	r2,56(sp)
 1002d4c:	d8c00d17 	ldw	r3,52(sp)
 1002d50:	11000017 	ldw	r4,0(r2)
 1002d54:	00800044 	movi	r2,1
 1002d58:	100b883a 	mov	r5,r2
 1002d5c:	19000015 	stw	r4,0(r3)
 1002d60:	d8800115 	stw	r2,4(sp)
 1002d64:	103462c0 	call	103462c <_ZN9__gnu_cxx12__atomic_addEPVii>
 1002d68:	d809883a 	mov	r4,sp
 1002d6c:	10424340 	call	1042434 <_Unwind_SjLj_Unregister>
 1002d70:	dfc01117 	ldw	ra,68(sp)
 1002d74:	df001017 	ldw	fp,64(sp)
 1002d78:	ddc00f17 	ldw	r23,60(sp)
 1002d7c:	dec01204 	addi	sp,sp,72
 1002d80:	f800283a 	ret
 1002d84:	d8800317 	ldw	r2,12(sp)
 1002d88:	00ffffc4 	movi	r3,-1
 1002d8c:	d9000217 	ldw	r4,8(sp)
 1002d90:	10c00226 	beq	r2,r3,1002d9c <_ZNSt6localeC1ERKS_+0xa0>
 1002d94:	d8c00115 	stw	r3,4(sp)
 1002d98:	10426f00 	call	10426f0 <_Unwind_SjLj_Resume>
 1002d9c:	00bfffc4 	movi	r2,-1
 1002da0:	d8800115 	stw	r2,4(sp)
 1002da4:	10371380 	call	1037138 <__cxa_call_unexpected>

01002da8 <_ZNSt6localeC2ERKS_>:
 1002da8:	deffee04 	addi	sp,sp,-72
 1002dac:	008040f4 	movhi	r2,259
 1002db0:	109cae04 	addi	r2,r2,29368
 1002db4:	00c04174 	movhi	r3,261
 1002db8:	18dfbf04 	addi	r3,r3,32508
 1002dbc:	d8800615 	stw	r2,24(sp)
 1002dc0:	d9000d15 	stw	r4,52(sp)
 1002dc4:	00804034 	movhi	r2,256
 1002dc8:	108b8c04 	addi	r2,r2,11824
 1002dcc:	d809883a 	mov	r4,sp
 1002dd0:	d8c00715 	stw	r3,28(sp)
 1002dd4:	d8800915 	stw	r2,36(sp)
 1002dd8:	d9400e15 	stw	r5,56(sp)
 1002ddc:	dfc01115 	stw	ra,68(sp)
 1002de0:	df001015 	stw	fp,64(sp)
 1002de4:	ddc00f15 	stw	r23,60(sp)
 1002de8:	dec00815 	stw	sp,32(sp)
 1002dec:	dec00a15 	stw	sp,40(sp)
 1002df0:	10424240 	call	1042424 <_Unwind_SjLj_Register>
 1002df4:	d8800e17 	ldw	r2,56(sp)
 1002df8:	d8c00d17 	ldw	r3,52(sp)
 1002dfc:	11000017 	ldw	r4,0(r2)
 1002e00:	00800044 	movi	r2,1
 1002e04:	100b883a 	mov	r5,r2
 1002e08:	19000015 	stw	r4,0(r3)
 1002e0c:	d8800115 	stw	r2,4(sp)
 1002e10:	103462c0 	call	103462c <_ZN9__gnu_cxx12__atomic_addEPVii>
 1002e14:	d809883a 	mov	r4,sp
 1002e18:	10424340 	call	1042434 <_Unwind_SjLj_Unregister>
 1002e1c:	dfc01117 	ldw	ra,68(sp)
 1002e20:	df001017 	ldw	fp,64(sp)
 1002e24:	ddc00f17 	ldw	r23,60(sp)
 1002e28:	dec01204 	addi	sp,sp,72
 1002e2c:	f800283a 	ret
 1002e30:	d8800317 	ldw	r2,12(sp)
 1002e34:	00ffffc4 	movi	r3,-1
 1002e38:	d9000217 	ldw	r4,8(sp)
 1002e3c:	10c00226 	beq	r2,r3,1002e48 <_ZNSt6localeC2ERKS_+0xa0>
 1002e40:	d8c00115 	stw	r3,4(sp)
 1002e44:	10426f00 	call	10426f0 <_Unwind_SjLj_Resume>
 1002e48:	00bfffc4 	movi	r2,-1
 1002e4c:	d8800115 	stw	r2,4(sp)
 1002e50:	10371380 	call	1037138 <__cxa_call_unexpected>

01002e54 <_ZNSt6locale5_Impl16_M_install_cacheEPKNS_5facetEm>:
 1002e54:	deffec04 	addi	sp,sp,-80
 1002e58:	008040f4 	movhi	r2,259
 1002e5c:	109cae04 	addi	r2,r2,29368
 1002e60:	00c04174 	movhi	r3,261
 1002e64:	18dfc304 	addi	r3,r3,32524
 1002e68:	d8800615 	stw	r2,24(sp)
 1002e6c:	d9000e15 	stw	r4,56(sp)
 1002e70:	00804034 	movhi	r2,256
 1002e74:	108bcd04 	addi	r2,r2,12084
 1002e78:	d809883a 	mov	r4,sp
 1002e7c:	d8c00715 	stw	r3,28(sp)
 1002e80:	d8800915 	stw	r2,36(sp)
 1002e84:	dfc01315 	stw	ra,76(sp)
 1002e88:	df001215 	stw	fp,72(sp)
 1002e8c:	ddc01115 	stw	r23,68(sp)
 1002e90:	dec00815 	stw	sp,32(sp)
 1002e94:	dec00a15 	stw	sp,40(sp)
 1002e98:	d9801015 	stw	r6,64(sp)
 1002e9c:	d9400f15 	stw	r5,60(sp)
 1002ea0:	10424240 	call	1042424 <_Unwind_SjLj_Register>
 1002ea4:	d8800e17 	ldw	r2,56(sp)
 1002ea8:	d9001017 	ldw	r4,64(sp)
 1002eac:	10c00317 	ldw	r3,12(r2)
 1002eb0:	2105883a 	add	r2,r4,r4
 1002eb4:	1085883a 	add	r2,r2,r2
 1002eb8:	1887883a 	add	r3,r3,r2
 1002ebc:	d8800d15 	stw	r2,52(sp)
 1002ec0:	18800017 	ldw	r2,0(r3)
 1002ec4:	10000f26 	beq	r2,zero,1002f04 <_ZNSt6locale5_Impl16_M_install_cacheEPKNS_5facetEm+0xb0>
 1002ec8:	d9400f17 	ldw	r5,60(sp)
 1002ecc:	28000626 	beq	r5,zero,1002ee8 <_ZNSt6locale5_Impl16_M_install_cacheEPKNS_5facetEm+0x94>
 1002ed0:	28800017 	ldw	r2,0(r5)
 1002ed4:	00c00084 	movi	r3,2
 1002ed8:	2809883a 	mov	r4,r5
 1002edc:	11400117 	ldw	r5,4(r2)
 1002ee0:	d8c00115 	stw	r3,4(sp)
 1002ee4:	283ee83a 	callr	r5
 1002ee8:	d809883a 	mov	r4,sp
 1002eec:	10424340 	call	1042434 <_Unwind_SjLj_Unregister>
 1002ef0:	dfc01317 	ldw	ra,76(sp)
 1002ef4:	df001217 	ldw	fp,72(sp)
 1002ef8:	ddc01117 	ldw	r23,68(sp)
 1002efc:	dec01404 	addi	sp,sp,80
 1002f00:	f800283a 	ret
 1002f04:	d8800f17 	ldw	r2,60(sp)
 1002f08:	01400044 	movi	r5,1
 1002f0c:	d9400115 	stw	r5,4(sp)
 1002f10:	11000104 	addi	r4,r2,4
 1002f14:	103462c0 	call	103462c <_ZN9__gnu_cxx12__atomic_addEPVii>
 1002f18:	d8c00e17 	ldw	r3,56(sp)
 1002f1c:	d9000d17 	ldw	r4,52(sp)
 1002f20:	d9400f17 	ldw	r5,60(sp)
 1002f24:	18800317 	ldw	r2,12(r3)
 1002f28:	2085883a 	add	r2,r4,r2
 1002f2c:	11400015 	stw	r5,0(r2)
 1002f30:	003fed06 	br	1002ee8 <_ZNSt6locale5_Impl16_M_install_cacheEPKNS_5facetEm+0x94>
 1002f34:	d8c00117 	ldw	r3,4(sp)
 1002f38:	00800044 	movi	r2,1
 1002f3c:	d9000217 	ldw	r4,8(sp)
 1002f40:	d9400317 	ldw	r5,12(sp)
 1002f44:	18800426 	beq	r3,r2,1002f58 <_ZNSt6locale5_Impl16_M_install_cacheEPKNS_5facetEm+0x104>
 1002f48:	00bfffc4 	movi	r2,-1
 1002f4c:	28800426 	beq	r5,r2,1002f60 <_ZNSt6locale5_Impl16_M_install_cacheEPKNS_5facetEm+0x10c>
 1002f50:	d8800115 	stw	r2,4(sp)
 1002f54:	10426f00 	call	10426f0 <_Unwind_SjLj_Resume>
 1002f58:	00bfffc4 	movi	r2,-1
 1002f5c:	003ffc06 	br	1002f50 <_ZNSt6locale5_Impl16_M_install_cacheEPKNS_5facetEm+0xfc>
 1002f60:	00bfffc4 	movi	r2,-1
 1002f64:	d8800115 	stw	r2,4(sp)
 1002f68:	10371380 	call	1037138 <__cxa_call_unexpected>

01002f6c <_ZNKSt6locale4nameEv>:
 1002f6c:	deffdd04 	addi	sp,sp,-140
 1002f70:	008040f4 	movhi	r2,259
 1002f74:	109cae04 	addi	r2,r2,29368
 1002f78:	d8800815 	stw	r2,32(sp)
 1002f7c:	00804034 	movhi	r2,256
 1002f80:	108cca04 	addi	r2,r2,13096
 1002f84:	00c04174 	movhi	r3,261
 1002f88:	18dfc644 	addi	r3,r3,32537
 1002f8c:	d8800b15 	stw	r2,44(sp)
 1002f90:	d9001e15 	stw	r4,120(sp)
 1002f94:	d8800104 	addi	r2,sp,4
 1002f98:	d9000204 	addi	r4,sp,8
 1002f9c:	d8c00915 	stw	r3,36(sp)
 1002fa0:	d8800a15 	stw	r2,40(sp)
 1002fa4:	dfc02215 	stw	ra,136(sp)
 1002fa8:	df002115 	stw	fp,132(sp)
 1002fac:	ddc02015 	stw	r23,128(sp)
 1002fb0:	d9401f15 	stw	r5,124(sp)
 1002fb4:	dec00c15 	stw	sp,48(sp)
 1002fb8:	10424240 	call	1042424 <_Unwind_SjLj_Register>
 1002fbc:	d8c01f17 	ldw	r3,124(sp)
 1002fc0:	018041b4 	movhi	r6,262
 1002fc4:	31bc6104 	addi	r6,r6,-3708
 1002fc8:	31000304 	addi	r4,r6,12
 1002fcc:	18800017 	ldw	r2,0(r3)
 1002fd0:	10c00417 	ldw	r3,16(r2)
 1002fd4:	d8801e17 	ldw	r2,120(sp)
 1002fd8:	11000015 	stw	r4,0(r2)
 1002fdc:	19800017 	ldw	r6,0(r3)
 1002fe0:	d8801a15 	stw	r2,104(sp)
 1002fe4:	d9801d15 	stw	r6,116(sp)
 1002fe8:	3000c526 	beq	r6,zero,1003300 <_ZNKSt6locale4nameEv+0x394>
 1002fec:	18800117 	ldw	r2,4(r3)
 1002ff0:	10000f26 	beq	r2,zero,1003030 <_ZNKSt6locale4nameEv+0xc4>
 1002ff4:	d8c00f15 	stw	r3,60(sp)
 1002ff8:	d8001915 	stw	zero,100(sp)
 1002ffc:	d8800f17 	ldw	r2,60(sp)
 1003000:	11000017 	ldw	r4,0(r2)
 1003004:	11400117 	ldw	r5,4(r2)
 1003008:	10462f80 	call	10462f8 <strcmp>
 100300c:	1000181e 	bne	r2,zero,1003070 <_ZNKSt6locale4nameEv+0x104>
 1003010:	d8c01917 	ldw	r3,100(sp)
 1003014:	d9000f17 	ldw	r4,60(sp)
 1003018:	01800144 	movi	r6,5
 100301c:	18c00044 	addi	r3,r3,1
 1003020:	21000104 	addi	r4,r4,4
 1003024:	d8c01915 	stw	r3,100(sp)
 1003028:	d9000f15 	stw	r4,60(sp)
 100302c:	19bff31e 	bne	r3,r6,1002ffc <_ZNKSt6locale4nameEv+0x90>
 1003030:	d9001d17 	ldw	r4,116(sp)
 1003034:	10475080 	call	1047508 <strlen>
 1003038:	00c00084 	movi	r3,2
 100303c:	d8c00315 	stw	r3,12(sp)
 1003040:	d9401d17 	ldw	r5,116(sp)
 1003044:	100d883a 	mov	r6,r2
 1003048:	d9001a17 	ldw	r4,104(sp)
 100304c:	103330c0 	call	103330c <_ZNSs6assignEPKcm>
 1003050:	d9000204 	addi	r4,sp,8
 1003054:	10424340 	call	1042434 <_Unwind_SjLj_Unregister>
 1003058:	d8801e17 	ldw	r2,120(sp)
 100305c:	dfc02217 	ldw	ra,136(sp)
 1003060:	df002117 	ldw	fp,132(sp)
 1003064:	ddc02017 	ldw	r23,128(sp)
 1003068:	dec02304 	addi	sp,sp,140
 100306c:	f800283a 	ret
 1003070:	00800084 	movi	r2,2
 1003074:	d8800315 	stw	r2,12(sp)
 1003078:	d9001a17 	ldw	r4,104(sp)
 100307c:	01402004 	movi	r5,128
 1003080:	10328700 	call	1032870 <_ZNSs7reserveEm>
 1003084:	008041b4 	movhi	r2,262
 1003088:	10b47004 	addi	r2,r2,-11840
 100308c:	10800017 	ldw	r2,0(r2)
 1003090:	d8801c15 	stw	r2,112(sp)
 1003094:	10800017 	ldw	r2,0(r2)
 1003098:	1009883a 	mov	r4,r2
 100309c:	d8801815 	stw	r2,96(sp)
 10030a0:	10475080 	call	1047508 <strlen>
 10030a4:	00c00084 	movi	r3,2
 10030a8:	d8c00315 	stw	r3,12(sp)
 10030ac:	d9401817 	ldw	r5,96(sp)
 10030b0:	100d883a 	mov	r6,r2
 10030b4:	d9001a17 	ldw	r4,104(sp)
 10030b8:	1032b000 	call	1032b00 <_ZNSs6appendEPKcm>
 10030bc:	d9001a17 	ldw	r4,104(sp)
 10030c0:	20800017 	ldw	r2,0(r4)
 10030c4:	113ffd04 	addi	r4,r2,-12
 10030c8:	20c00017 	ldw	r3,0(r4)
 10030cc:	20800117 	ldw	r2,4(r4)
 10030d0:	18c00044 	addi	r3,r3,1
 10030d4:	d8c01715 	stw	r3,92(sp)
 10030d8:	10c00236 	bltu	r2,r3,10030e4 <_ZNKSt6locale4nameEv+0x178>
 10030dc:	20800217 	ldw	r2,8(r4)
 10030e0:	0080050e 	bge	zero,r2,10030f8 <_ZNKSt6locale4nameEv+0x18c>
 10030e4:	01800084 	movi	r6,2
 10030e8:	d9800315 	stw	r6,12(sp)
 10030ec:	d9001a17 	ldw	r4,104(sp)
 10030f0:	d9401717 	ldw	r5,92(sp)
 10030f4:	10328700 	call	1032870 <_ZNSs7reserveEm>
 10030f8:	d8801a17 	ldw	r2,104(sp)
 10030fc:	01000f44 	movi	r4,61
 1003100:	10c00017 	ldw	r3,0(r2)
 1003104:	18bffd17 	ldw	r2,-12(r3)
 1003108:	1887883a 	add	r3,r3,r2
 100310c:	19000005 	stb	r4,0(r3)
 1003110:	d8c01a17 	ldw	r3,104(sp)
 1003114:	d9001717 	ldw	r4,92(sp)
 1003118:	18800017 	ldw	r2,0(r3)
 100311c:	10bffd04 	addi	r2,r2,-12
 1003120:	1107883a 	add	r3,r2,r4
 1003124:	11000015 	stw	r4,0(r2)
 1003128:	10000215 	stw	zero,8(r2)
 100312c:	18000305 	stb	zero,12(r3)
 1003130:	d9801f17 	ldw	r6,124(sp)
 1003134:	30800017 	ldw	r2,0(r6)
 1003138:	10c00417 	ldw	r3,16(r2)
 100313c:	18c00017 	ldw	r3,0(r3)
 1003140:	1809883a 	mov	r4,r3
 1003144:	d8c01615 	stw	r3,88(sp)
 1003148:	10475080 	call	1047508 <strlen>
 100314c:	00c00084 	movi	r3,2
 1003150:	d8c00315 	stw	r3,12(sp)
 1003154:	d9401617 	ldw	r5,88(sp)
 1003158:	100d883a 	mov	r6,r2
 100315c:	d9001a17 	ldw	r4,104(sp)
 1003160:	1032b000 	call	1032b00 <_ZNSs6appendEPKcm>
 1003164:	01000104 	movi	r4,4
 1003168:	d9001015 	stw	r4,64(sp)
 100316c:	d9801a17 	ldw	r6,104(sp)
 1003170:	30800017 	ldw	r2,0(r6)
 1003174:	113ffd17 	ldw	r4,-12(r2)
 1003178:	10bffd04 	addi	r2,r2,-12
 100317c:	10c00117 	ldw	r3,4(r2)
 1003180:	21000044 	addi	r4,r4,1
 1003184:	d9001515 	stw	r4,84(sp)
 1003188:	19000236 	bltu	r3,r4,1003194 <_ZNKSt6locale4nameEv+0x228>
 100318c:	10800217 	ldw	r2,8(r2)
 1003190:	0080050e 	bge	zero,r2,10031a8 <_ZNKSt6locale4nameEv+0x23c>
 1003194:	00800084 	movi	r2,2
 1003198:	d8800315 	stw	r2,12(sp)
 100319c:	d9001a17 	ldw	r4,104(sp)
 10031a0:	d9401517 	ldw	r5,84(sp)
 10031a4:	10328700 	call	1032870 <_ZNSs7reserveEm>
 10031a8:	d8c01a17 	ldw	r3,104(sp)
 10031ac:	d9001c17 	ldw	r4,112(sp)
 10031b0:	d9801017 	ldw	r6,64(sp)
 10031b4:	18800017 	ldw	r2,0(r3)
 10031b8:	218b883a 	add	r5,r4,r6
 10031bc:	10fffd17 	ldw	r3,-12(r2)
 10031c0:	10c5883a 	add	r2,r2,r3
 10031c4:	00c00ec4 	movi	r3,59
 10031c8:	10c00005 	stb	r3,0(r2)
 10031cc:	d9001a17 	ldw	r4,104(sp)
 10031d0:	d9801517 	ldw	r6,84(sp)
 10031d4:	20c00017 	ldw	r3,0(r4)
 10031d8:	193ffd04 	addi	r4,r3,-12
 10031dc:	2185883a 	add	r2,r4,r6
 10031e0:	19bffd15 	stw	r6,-12(r3)
 10031e4:	20000215 	stw	zero,8(r4)
 10031e8:	10800304 	addi	r2,r2,12
 10031ec:	10000005 	stb	zero,0(r2)
 10031f0:	29400017 	ldw	r5,0(r5)
 10031f4:	2809883a 	mov	r4,r5
 10031f8:	d9401415 	stw	r5,80(sp)
 10031fc:	10475080 	call	1047508 <strlen>
 1003200:	00c00084 	movi	r3,2
 1003204:	d8c00315 	stw	r3,12(sp)
 1003208:	d9401417 	ldw	r5,80(sp)
 100320c:	100d883a 	mov	r6,r2
 1003210:	d9001a17 	ldw	r4,104(sp)
 1003214:	1032b000 	call	1032b00 <_ZNSs6appendEPKcm>
 1003218:	d9001a17 	ldw	r4,104(sp)
 100321c:	01800304 	movi	r6,12
 1003220:	20800017 	ldw	r2,0(r4)
 1003224:	1189c83a 	sub	r4,r2,r6
 1003228:	20c00017 	ldw	r3,0(r4)
 100322c:	20800117 	ldw	r2,4(r4)
 1003230:	18c00044 	addi	r3,r3,1
 1003234:	d8c01315 	stw	r3,76(sp)
 1003238:	10c00236 	bltu	r2,r3,1003244 <_ZNKSt6locale4nameEv+0x2d8>
 100323c:	20800217 	ldw	r2,8(r4)
 1003240:	0080050e 	bge	zero,r2,1003258 <_ZNKSt6locale4nameEv+0x2ec>
 1003244:	00800084 	movi	r2,2
 1003248:	d8800315 	stw	r2,12(sp)
 100324c:	d9001a17 	ldw	r4,104(sp)
 1003250:	d9401317 	ldw	r5,76(sp)
 1003254:	10328700 	call	1032870 <_ZNSs7reserveEm>
 1003258:	d8c01a17 	ldw	r3,104(sp)
 100325c:	01000f44 	movi	r4,61
 1003260:	18800017 	ldw	r2,0(r3)
 1003264:	10fffd17 	ldw	r3,-12(r2)
 1003268:	10c5883a 	add	r2,r2,r3
 100326c:	11000005 	stb	r4,0(r2)
 1003270:	d9001a17 	ldw	r4,104(sp)
 1003274:	d9801317 	ldw	r6,76(sp)
 1003278:	20c00017 	ldw	r3,0(r4)
 100327c:	18bffd04 	addi	r2,r3,-12
 1003280:	1189883a 	add	r4,r2,r6
 1003284:	19bffd15 	stw	r6,-12(r3)
 1003288:	10000215 	stw	zero,8(r2)
 100328c:	20000305 	stb	zero,12(r4)
 1003290:	d8801f17 	ldw	r2,124(sp)
 1003294:	10c00017 	ldw	r3,0(r2)
 1003298:	18800417 	ldw	r2,16(r3)
 100329c:	d8c01017 	ldw	r3,64(sp)
 10032a0:	10c5883a 	add	r2,r2,r3
 10032a4:	10800017 	ldw	r2,0(r2)
 10032a8:	1009883a 	mov	r4,r2
 10032ac:	d8801215 	stw	r2,72(sp)
 10032b0:	10475080 	call	1047508 <strlen>
 10032b4:	01000084 	movi	r4,2
 10032b8:	d9000315 	stw	r4,12(sp)
 10032bc:	d9401217 	ldw	r5,72(sp)
 10032c0:	100d883a 	mov	r6,r2
 10032c4:	d9001a17 	ldw	r4,104(sp)
 10032c8:	1032b000 	call	1032b00 <_ZNSs6appendEPKcm>
 10032cc:	d9801017 	ldw	r6,64(sp)
 10032d0:	00800604 	movi	r2,24
 10032d4:	31800104 	addi	r6,r6,4
 10032d8:	d9801015 	stw	r6,64(sp)
 10032dc:	30bfa31e 	bne	r6,r2,100316c <_ZNKSt6locale4nameEv+0x200>
 10032e0:	d9000204 	addi	r4,sp,8
 10032e4:	10424340 	call	1042434 <_Unwind_SjLj_Unregister>
 10032e8:	d8801e17 	ldw	r2,120(sp)
 10032ec:	dfc02217 	ldw	ra,136(sp)
 10032f0:	df002117 	ldw	fp,132(sp)
 10032f4:	ddc02017 	ldw	r23,128(sp)
 10032f8:	dec02304 	addi	sp,sp,140
 10032fc:	f800283a 	ret
 1003300:	00800a84 	movi	r2,42
 1003304:	00c00084 	movi	r3,2
 1003308:	21bffd17 	ldw	r6,-12(r4)
 100330c:	000b883a 	mov	r5,zero
 1003310:	d8800015 	stw	r2,0(sp)
 1003314:	d8c00315 	stw	r3,12(sp)
 1003318:	d9001e17 	ldw	r4,120(sp)
 100331c:	01c00044 	movi	r7,1
 1003320:	10334d40 	call	10334d4 <_ZNSs14_M_replace_auxEmmmc>
 1003324:	003f4a06 	br	1003050 <_ZNKSt6locale4nameEv+0xe4>
 1003328:	d8c00317 	ldw	r3,12(sp)
 100332c:	00800044 	movi	r2,1
 1003330:	d9000417 	ldw	r4,16(sp)
 1003334:	18800326 	beq	r3,r2,1003344 <_ZNKSt6locale4nameEv+0x3d8>
 1003338:	00bfffc4 	movi	r2,-1
 100333c:	d8800315 	stw	r2,12(sp)
 1003340:	10426f00 	call	10426f0 <_Unwind_SjLj_Resume>
 1003344:	d8c01a17 	ldw	r3,104(sp)
 1003348:	d9001b15 	stw	r4,108(sp)
 100334c:	010041b4 	movhi	r4,262
 1003350:	213c6104 	addi	r4,r4,-3708
 1003354:	18800017 	ldw	r2,0(r3)
 1003358:	10bffd04 	addi	r2,r2,-12
 100335c:	d8801115 	stw	r2,68(sp)
 1003360:	2080041e 	bne	r4,r2,1003374 <_ZNKSt6locale4nameEv+0x408>
 1003364:	d9001b17 	ldw	r4,108(sp)
 1003368:	00bfffc4 	movi	r2,-1
 100336c:	d8800315 	stw	r2,12(sp)
 1003370:	10426f00 	call	10426f0 <_Unwind_SjLj_Resume>
 1003374:	d9801117 	ldw	r6,68(sp)
 1003378:	00800044 	movi	r2,1
 100337c:	d8800315 	stw	r2,12(sp)
 1003380:	31000204 	addi	r4,r6,8
 1003384:	017fffc4 	movi	r5,-1
 1003388:	10346180 	call	1034618 <_ZN9__gnu_cxx18__exchange_and_addEPVii>
 100338c:	00bff516 	blt	zero,r2,1003364 <_ZNKSt6locale4nameEv+0x3f8>
 1003390:	d9001117 	ldw	r4,68(sp)
 1003394:	d9400104 	addi	r5,sp,4
 1003398:	10310a80 	call	10310a8 <_ZNSs4_Rep10_M_destroyERKSaIcE>
 100339c:	003ff106 	br	1003364 <_ZNKSt6locale4nameEv+0x3f8>

010033a0 <_ZNKSt6localeeqERKS_>:
 10033a0:	deffdc04 	addi	sp,sp,-144
 10033a4:	008040f4 	movhi	r2,259
 10033a8:	109cae04 	addi	r2,r2,29368
 10033ac:	00c04174 	movhi	r3,261
 10033b0:	18dfc904 	addi	r3,r3,32548
 10033b4:	d8800b15 	stw	r2,44(sp)
 10033b8:	d9001e15 	stw	r4,120(sp)
 10033bc:	00804034 	movhi	r2,256
 10033c0:	108d7604 	addi	r2,r2,13784
 10033c4:	d9000504 	addi	r4,sp,20
 10033c8:	d8c00c15 	stw	r3,48(sp)
 10033cc:	d8800e15 	stw	r2,56(sp)
 10033d0:	dfc02315 	stw	ra,140(sp)
 10033d4:	df002215 	stw	fp,136(sp)
 10033d8:	ddc02115 	stw	r23,132(sp)
 10033dc:	d9401f15 	stw	r5,124(sp)
 10033e0:	dec00d15 	stw	sp,52(sp)
 10033e4:	dec00f15 	stw	sp,60(sp)
 10033e8:	10424240 	call	1042424 <_Unwind_SjLj_Register>
 10033ec:	d8c01e17 	ldw	r3,120(sp)
 10033f0:	d9001f17 	ldw	r4,124(sp)
 10033f4:	18800017 	ldw	r2,0(r3)
 10033f8:	20c00017 	ldw	r3,0(r4)
 10033fc:	10c05426 	beq	r2,r3,1003550 <_ZNKSt6localeeqERKS_+0x1b0>
 1003400:	10800417 	ldw	r2,16(r2)
 1003404:	11000017 	ldw	r4,0(r2)
 1003408:	d8801d15 	stw	r2,116(sp)
 100340c:	20004226 	beq	r4,zero,1003518 <_ZNKSt6localeeqERKS_+0x178>
 1003410:	18c00417 	ldw	r3,16(r3)
 1003414:	19400017 	ldw	r5,0(r3)
 1003418:	d8c01c15 	stw	r3,112(sp)
 100341c:	28003e26 	beq	r5,zero,1003518 <_ZNKSt6localeeqERKS_+0x178>
 1003420:	10462f80 	call	10462f8 <strcmp>
 1003424:	10003c1e 	bne	r2,zero,1003518 <_ZNKSt6localeeqERKS_+0x178>
 1003428:	d8c01d17 	ldw	r3,116(sp)
 100342c:	18800117 	ldw	r2,4(r3)
 1003430:	10004426 	beq	r2,zero,1003544 <_ZNKSt6localeeqERKS_+0x1a4>
 1003434:	00800144 	movi	r2,5
 1003438:	d8800615 	stw	r2,24(sp)
 100343c:	d9401e17 	ldw	r5,120(sp)
 1003440:	d9000204 	addi	r4,sp,8
 1003444:	1002f6c0 	call	1002f6c <_ZNKSt6locale4nameEv>
 1003448:	d8800217 	ldw	r2,8(sp)
 100344c:	01000104 	movi	r4,4
 1003450:	d9000615 	stw	r4,24(sp)
 1003454:	d9401f17 	ldw	r5,124(sp)
 1003458:	d909883a 	add	r4,sp,r4
 100345c:	d8801715 	stw	r2,92(sp)
 1003460:	1002f6c0 	call	1002f6c <_ZNKSt6locale4nameEv>
 1003464:	d9400117 	ldw	r5,4(sp)
 1003468:	d8c01717 	ldw	r3,92(sp)
 100346c:	00bffd04 	movi	r2,-12
 1003470:	1887883a 	add	r3,r3,r2
 1003474:	2885883a 	add	r2,r5,r2
 1003478:	19000017 	ldw	r4,0(r3)
 100347c:	d8801915 	stw	r2,100(sp)
 1003480:	10800017 	ldw	r2,0(r2)
 1003484:	d8c01815 	stw	r3,96(sp)
 1003488:	d9001415 	stw	r4,80(sp)
 100348c:	d8801515 	stw	r2,84(sp)
 1003490:	d9000315 	stw	r4,12(sp)
 1003494:	d8800415 	stw	r2,16(sp)
 1003498:	11002836 	bltu	r2,r4,100353c <_ZNKSt6localeeqERKS_+0x19c>
 100349c:	d9800304 	addi	r6,sp,12
 10034a0:	31800017 	ldw	r6,0(r6)
 10034a4:	d9001717 	ldw	r4,92(sp)
 10034a8:	10451200 	call	1045120 <memcmp>
 10034ac:	d8801615 	stw	r2,88(sp)
 10034b0:	1000041e 	bne	r2,zero,10034c4 <_ZNKSt6localeeqERKS_+0x124>
 10034b4:	d8c01417 	ldw	r3,80(sp)
 10034b8:	d9001517 	ldw	r4,84(sp)
 10034bc:	1907c83a 	sub	r3,r3,r4
 10034c0:	d8c01615 	stw	r3,88(sp)
 10034c4:	d9001917 	ldw	r4,100(sp)
 10034c8:	008041b4 	movhi	r2,262
 10034cc:	10bc6104 	addi	r2,r2,-3708
 10034d0:	2080331e 	bne	r4,r2,10035a0 <_ZNKSt6localeeqERKS_+0x200>
 10034d4:	d9001617 	ldw	r4,88(sp)
 10034d8:	00c041b4 	movhi	r3,262
 10034dc:	18fc6104 	addi	r3,r3,-3708
 10034e0:	2005003a 	cmpeq	r2,r4,zero
 10034e4:	d8802005 	stb	r2,128(sp)
 10034e8:	d8801817 	ldw	r2,96(sp)
 10034ec:	10c0221e 	bne	r2,r3,1003578 <_ZNKSt6localeeqERKS_+0x1d8>
 10034f0:	d9002003 	ldbu	r4,128(sp)
 10034f4:	d9001215 	stw	r4,72(sp)
 10034f8:	d9000504 	addi	r4,sp,20
 10034fc:	10424340 	call	1042434 <_Unwind_SjLj_Unregister>
 1003500:	d8801217 	ldw	r2,72(sp)
 1003504:	dfc02317 	ldw	ra,140(sp)
 1003508:	df002217 	ldw	fp,136(sp)
 100350c:	ddc02117 	ldw	r23,132(sp)
 1003510:	dec02404 	addi	sp,sp,144
 1003514:	f800283a 	ret
 1003518:	d9000504 	addi	r4,sp,20
 100351c:	d8001215 	stw	zero,72(sp)
 1003520:	10424340 	call	1042434 <_Unwind_SjLj_Unregister>
 1003524:	d8801217 	ldw	r2,72(sp)
 1003528:	dfc02317 	ldw	ra,140(sp)
 100352c:	df002217 	ldw	fp,136(sp)
 1003530:	ddc02117 	ldw	r23,132(sp)
 1003534:	dec02404 	addi	sp,sp,144
 1003538:	f800283a 	ret
 100353c:	d9800404 	addi	r6,sp,16
 1003540:	003fd706 	br	10034a0 <_ZNKSt6localeeqERKS_+0x100>
 1003544:	d9001c17 	ldw	r4,112(sp)
 1003548:	20800117 	ldw	r2,4(r4)
 100354c:	103fb91e 	bne	r2,zero,1003434 <_ZNKSt6localeeqERKS_+0x94>
 1003550:	00800044 	movi	r2,1
 1003554:	d9000504 	addi	r4,sp,20
 1003558:	d8801215 	stw	r2,72(sp)
 100355c:	10424340 	call	1042434 <_Unwind_SjLj_Unregister>
 1003560:	d8801217 	ldw	r2,72(sp)
 1003564:	dfc02317 	ldw	ra,140(sp)
 1003568:	df002217 	ldw	fp,136(sp)
 100356c:	ddc02117 	ldw	r23,132(sp)
 1003570:	dec02404 	addi	sp,sp,144
 1003574:	f800283a 	ret
 1003578:	00800044 	movi	r2,1
 100357c:	d8800615 	stw	r2,24(sp)
 1003580:	d8801817 	ldw	r2,96(sp)
 1003584:	017fffc4 	movi	r5,-1
 1003588:	11000204 	addi	r4,r2,8
 100358c:	10346180 	call	1034618 <_ZN9__gnu_cxx18__exchange_and_addEPVii>
 1003590:	00800d0e 	bge	zero,r2,10035c8 <_ZNKSt6localeeqERKS_+0x228>
 1003594:	d8c02003 	ldbu	r3,128(sp)
 1003598:	d8c01215 	stw	r3,72(sp)
 100359c:	003fd606 	br	10034f8 <_ZNKSt6localeeqERKS_+0x158>
 10035a0:	008000c4 	movi	r2,3
 10035a4:	d8800615 	stw	r2,24(sp)
 10035a8:	21000204 	addi	r4,r4,8
 10035ac:	017fffc4 	movi	r5,-1
 10035b0:	10346180 	call	1034618 <_ZN9__gnu_cxx18__exchange_and_addEPVii>
 10035b4:	00bfc716 	blt	zero,r2,10034d4 <_ZNKSt6localeeqERKS_+0x134>
 10035b8:	d9001917 	ldw	r4,100(sp)
 10035bc:	d9400084 	addi	r5,sp,2
 10035c0:	10310a80 	call	10310a8 <_ZNSs4_Rep10_M_destroyERKSaIcE>
 10035c4:	003fc306 	br	10034d4 <_ZNKSt6localeeqERKS_+0x134>
 10035c8:	d9001817 	ldw	r4,96(sp)
 10035cc:	d80b883a 	mov	r5,sp
 10035d0:	10310a80 	call	10310a8 <_ZNSs4_Rep10_M_destroyERKSaIcE>
 10035d4:	003fc606 	br	10034f0 <_ZNKSt6localeeqERKS_+0x150>
 10035d8:	d8c00617 	ldw	r3,24(sp)
 10035dc:	00800044 	movi	r2,1
 10035e0:	d9000717 	ldw	r4,28(sp)
 10035e4:	d9400817 	ldw	r5,32(sp)
 10035e8:	18800426 	beq	r3,r2,10035fc <_ZNKSt6localeeqERKS_+0x25c>
 10035ec:	00800084 	movi	r2,2
 10035f0:	18800626 	beq	r3,r2,100360c <_ZNKSt6localeeqERKS_+0x26c>
 10035f4:	008000c4 	movi	r2,3
 10035f8:	18800426 	beq	r3,r2,100360c <_ZNKSt6localeeqERKS_+0x26c>
 10035fc:	00bfffc4 	movi	r2,-1
 1003600:	28800e26 	beq	r5,r2,100363c <_ZNKSt6localeeqERKS_+0x29c>
 1003604:	d8800615 	stw	r2,24(sp)
 1003608:	10426f00 	call	10426f0 <_Unwind_SjLj_Resume>
 100360c:	d8801717 	ldw	r2,92(sp)
 1003610:	d9401a15 	stw	r5,104(sp)
 1003614:	d9001b15 	stw	r4,108(sp)
 1003618:	10bffd04 	addi	r2,r2,-12
 100361c:	d8801315 	stw	r2,76(sp)
 1003620:	d8c01317 	ldw	r3,76(sp)
 1003624:	008041b4 	movhi	r2,262
 1003628:	10bc6104 	addi	r2,r2,-3708
 100362c:	1880061e 	bne	r3,r2,1003648 <_ZNKSt6localeeqERKS_+0x2a8>
 1003630:	d9001b17 	ldw	r4,108(sp)
 1003634:	d9401a17 	ldw	r5,104(sp)
 1003638:	003ff006 	br	10035fc <_ZNKSt6localeeqERKS_+0x25c>
 100363c:	00bfffc4 	movi	r2,-1
 1003640:	d8800615 	stw	r2,24(sp)
 1003644:	10371380 	call	1037138 <__cxa_call_unexpected>
 1003648:	00800084 	movi	r2,2
 100364c:	d8800615 	stw	r2,24(sp)
 1003650:	19000204 	addi	r4,r3,8
 1003654:	017fffc4 	movi	r5,-1
 1003658:	10346180 	call	1034618 <_ZN9__gnu_cxx18__exchange_and_addEPVii>
 100365c:	00bff416 	blt	zero,r2,1003630 <_ZNKSt6localeeqERKS_+0x290>
 1003660:	d9001317 	ldw	r4,76(sp)
 1003664:	d9400044 	addi	r5,sp,1
 1003668:	10310a80 	call	10310a8 <_ZNSs4_Rep10_M_destroyERKSaIcE>
 100366c:	003ff006 	br	1003630 <_ZNKSt6localeeqERKS_+0x290>

01003670 <_ZNSt6locale5_ImplD1Ev>:
 1003670:	deffe104 	addi	sp,sp,-124
 1003674:	008040f4 	movhi	r2,259
 1003678:	109cae04 	addi	r2,r2,29368
 100367c:	d8800615 	stw	r2,24(sp)
 1003680:	00c04174 	movhi	r3,261
 1003684:	18dfcf04 	addi	r3,r3,32572
 1003688:	00804034 	movhi	r2,256
 100368c:	108e2e04 	addi	r2,r2,14520
 1003690:	d9001415 	stw	r4,80(sp)
 1003694:	d809883a 	mov	r4,sp
 1003698:	d8800915 	stw	r2,36(sp)
 100369c:	dfc01e15 	stw	ra,120(sp)
 10036a0:	df001d15 	stw	fp,116(sp)
 10036a4:	ddc01c15 	stw	r23,112(sp)
 10036a8:	dd801b15 	stw	r22,108(sp)
 10036ac:	dd401a15 	stw	r21,104(sp)
 10036b0:	dd001915 	stw	r20,100(sp)
 10036b4:	dcc01815 	stw	r19,96(sp)
 10036b8:	dc801715 	stw	r18,92(sp)
 10036bc:	dc401615 	stw	r17,88(sp)
 10036c0:	dc001515 	stw	r16,84(sp)
 10036c4:	d8c00715 	stw	r3,28(sp)
 10036c8:	dec00815 	stw	sp,32(sp)
 10036cc:	dec00a15 	stw	sp,40(sp)
 10036d0:	10424240 	call	1042424 <_Unwind_SjLj_Register>
 10036d4:	d8801417 	ldw	r2,80(sp)
 10036d8:	11000117 	ldw	r4,4(r2)
 10036dc:	20002726 	beq	r4,zero,100377c <_ZNSt6locale5_ImplD1Ev+0x10c>
 10036e0:	10800217 	ldw	r2,8(r2)
 10036e4:	10002426 	beq	r2,zero,1003778 <_ZNSt6locale5_ImplD1Ev+0x108>
 10036e8:	d8001115 	stw	zero,68(sp)
 10036ec:	d8000d15 	stw	zero,52(sp)
 10036f0:	d8c01417 	ldw	r3,80(sp)
 10036f4:	18800117 	ldw	r2,4(r3)
 10036f8:	d8c00d17 	ldw	r3,52(sp)
 10036fc:	1885883a 	add	r2,r3,r2
 1003700:	10800017 	ldw	r2,0(r2)
 1003704:	d8801315 	stw	r2,76(sp)
 1003708:	10000e26 	beq	r2,zero,1003744 <_ZNSt6locale5_ImplD1Ev+0xd4>
 100370c:	01000104 	movi	r4,4
 1003710:	d9000115 	stw	r4,4(sp)
 1003714:	017fffc4 	movi	r5,-1
 1003718:	1109883a 	add	r4,r2,r4
 100371c:	10346180 	call	1034618 <_ZN9__gnu_cxx18__exchange_and_addEPVii>
 1003720:	00c00044 	movi	r3,1
 1003724:	10c0071e 	bne	r2,r3,1003744 <_ZNSt6locale5_ImplD1Ev+0xd4>
 1003728:	d8c01317 	ldw	r3,76(sp)
 100372c:	18800017 	ldw	r2,0(r3)
 1003730:	1809883a 	mov	r4,r3
 1003734:	00c000c4 	movi	r3,3
 1003738:	11400117 	ldw	r5,4(r2)
 100373c:	d8c00115 	stw	r3,4(sp)
 1003740:	283ee83a 	callr	r5
 1003744:	d8c01417 	ldw	r3,80(sp)
 1003748:	18800217 	ldw	r2,8(r3)
 100374c:	d8c01117 	ldw	r3,68(sp)
 1003750:	18c00044 	addi	r3,r3,1
 1003754:	d8c01115 	stw	r3,68(sp)
 1003758:	d8c00d17 	ldw	r3,52(sp)
 100375c:	18c00104 	addi	r3,r3,4
 1003760:	d8c00d15 	stw	r3,52(sp)
 1003764:	d8c01117 	ldw	r3,68(sp)
 1003768:	18bfe136 	bltu	r3,r2,10036f0 <_ZNSt6locale5_ImplD1Ev+0x80>
 100376c:	d8801417 	ldw	r2,80(sp)
 1003770:	11000117 	ldw	r4,4(r2)
 1003774:	20000126 	beq	r4,zero,100377c <_ZNSt6locale5_ImplD1Ev+0x10c>
 1003778:	1036b500 	call	1036b50 <_ZdaPv>
 100377c:	d8c01417 	ldw	r3,80(sp)
 1003780:	19000317 	ldw	r4,12(r3)
 1003784:	20002a26 	beq	r4,zero,1003830 <_ZNSt6locale5_ImplD1Ev+0x1c0>
 1003788:	18800217 	ldw	r2,8(r3)
 100378c:	10002726 	beq	r2,zero,100382c <_ZNSt6locale5_ImplD1Ev+0x1bc>
 1003790:	d8001015 	stw	zero,64(sp)
 1003794:	d8000e15 	stw	zero,56(sp)
 1003798:	00000a06 	br	10037c4 <_ZNSt6locale5_ImplD1Ev+0x154>
 100379c:	d8c01417 	ldw	r3,80(sp)
 10037a0:	18800217 	ldw	r2,8(r3)
 10037a4:	d8c01017 	ldw	r3,64(sp)
 10037a8:	18c00044 	addi	r3,r3,1
 10037ac:	d8c01015 	stw	r3,64(sp)
 10037b0:	d8c00e17 	ldw	r3,56(sp)
 10037b4:	18c00104 	addi	r3,r3,4
 10037b8:	d8c00e15 	stw	r3,56(sp)
 10037bc:	d8c01017 	ldw	r3,64(sp)
 10037c0:	1880172e 	bgeu	r3,r2,1003820 <_ZNSt6locale5_ImplD1Ev+0x1b0>
 10037c4:	d8c01417 	ldw	r3,80(sp)
 10037c8:	18800317 	ldw	r2,12(r3)
 10037cc:	d8c00e17 	ldw	r3,56(sp)
 10037d0:	10c5883a 	add	r2,r2,r3
 10037d4:	10800017 	ldw	r2,0(r2)
 10037d8:	d8801215 	stw	r2,72(sp)
 10037dc:	103fef26 	beq	r2,zero,100379c <_ZNSt6locale5_ImplD1Ev+0x12c>
 10037e0:	00800084 	movi	r2,2
 10037e4:	d8800115 	stw	r2,4(sp)
 10037e8:	d8801217 	ldw	r2,72(sp)
 10037ec:	017fffc4 	movi	r5,-1
 10037f0:	11000104 	addi	r4,r2,4
 10037f4:	10346180 	call	1034618 <_ZN9__gnu_cxx18__exchange_and_addEPVii>
 10037f8:	100b883a 	mov	r5,r2
 10037fc:	00800044 	movi	r2,1
 1003800:	28bfe61e 	bne	r5,r2,100379c <_ZNSt6locale5_ImplD1Ev+0x12c>
 1003804:	d8c01217 	ldw	r3,72(sp)
 1003808:	18800017 	ldw	r2,0(r3)
 100380c:	1809883a 	mov	r4,r3
 1003810:	10c00117 	ldw	r3,4(r2)
 1003814:	d9400115 	stw	r5,4(sp)
 1003818:	183ee83a 	callr	r3
 100381c:	003fdf06 	br	100379c <_ZNSt6locale5_ImplD1Ev+0x12c>
 1003820:	d8801417 	ldw	r2,80(sp)
 1003824:	11000317 	ldw	r4,12(r2)
 1003828:	20000126 	beq	r4,zero,1003830 <_ZNSt6locale5_ImplD1Ev+0x1c0>
 100382c:	1036b500 	call	1036b50 <_ZdaPv>
 1003830:	d8c01417 	ldw	r3,80(sp)
 1003834:	18800417 	ldw	r2,16(r3)
 1003838:	10001126 	beq	r2,zero,1003880 <_ZNSt6locale5_ImplD1Ev+0x210>
 100383c:	d8000f15 	stw	zero,60(sp)
 1003840:	d8c01417 	ldw	r3,80(sp)
 1003844:	18800417 	ldw	r2,16(r3)
 1003848:	d8c00f17 	ldw	r3,60(sp)
 100384c:	10c5883a 	add	r2,r2,r3
 1003850:	11000017 	ldw	r4,0(r2)
 1003854:	20000126 	beq	r4,zero,100385c <_ZNSt6locale5_ImplD1Ev+0x1ec>
 1003858:	1036b500 	call	1036b50 <_ZdaPv>
 100385c:	d8800f17 	ldw	r2,60(sp)
 1003860:	00c00604 	movi	r3,24
 1003864:	10800104 	addi	r2,r2,4
 1003868:	d8800f15 	stw	r2,60(sp)
 100386c:	10fff41e 	bne	r2,r3,1003840 <_ZNSt6locale5_ImplD1Ev+0x1d0>
 1003870:	d8801417 	ldw	r2,80(sp)
 1003874:	11000417 	ldw	r4,16(r2)
 1003878:	20000126 	beq	r4,zero,1003880 <_ZNSt6locale5_ImplD1Ev+0x210>
 100387c:	1036b500 	call	1036b50 <_ZdaPv>
 1003880:	d809883a 	mov	r4,sp
 1003884:	10424340 	call	1042434 <_Unwind_SjLj_Unregister>
 1003888:	dfc01e17 	ldw	ra,120(sp)
 100388c:	df001d17 	ldw	fp,116(sp)
 1003890:	ddc01c17 	ldw	r23,112(sp)
 1003894:	dd801b17 	ldw	r22,108(sp)
 1003898:	dd401a17 	ldw	r21,104(sp)
 100389c:	dd001917 	ldw	r20,100(sp)
 10038a0:	dcc01817 	ldw	r19,96(sp)
 10038a4:	dc801717 	ldw	r18,92(sp)
 10038a8:	dc401617 	ldw	r17,88(sp)
 10038ac:	dc001517 	ldw	r16,84(sp)
 10038b0:	dec01f04 	addi	sp,sp,124
 10038b4:	f800283a 	ret
 10038b8:	d8c00117 	ldw	r3,4(sp)
 10038bc:	00800044 	movi	r2,1
 10038c0:	d9000217 	ldw	r4,8(sp)
 10038c4:	d9400317 	ldw	r5,12(sp)
 10038c8:	18800826 	beq	r3,r2,10038ec <_ZNSt6locale5_ImplD1Ev+0x27c>
 10038cc:	00800084 	movi	r2,2
 10038d0:	18800a26 	beq	r3,r2,10038fc <_ZNSt6locale5_ImplD1Ev+0x28c>
 10038d4:	008000c4 	movi	r2,3
 10038d8:	18800426 	beq	r3,r2,10038ec <_ZNSt6locale5_ImplD1Ev+0x27c>
 10038dc:	1036a2c0 	call	1036a2c <__cxa_begin_catch>
 10038e0:	d8000115 	stw	zero,4(sp)
 10038e4:	10369880 	call	1036988 <__cxa_end_catch>
 10038e8:	003fac06 	br	100379c <_ZNSt6locale5_ImplD1Ev+0x12c>
 10038ec:	00bfffc4 	movi	r2,-1
 10038f0:	28800626 	beq	r5,r2,100390c <_ZNSt6locale5_ImplD1Ev+0x29c>
 10038f4:	d8800115 	stw	r2,4(sp)
 10038f8:	10426f00 	call	10426f0 <_Unwind_SjLj_Resume>
 10038fc:	1036a2c0 	call	1036a2c <__cxa_begin_catch>
 1003900:	d8000115 	stw	zero,4(sp)
 1003904:	10369880 	call	1036988 <__cxa_end_catch>
 1003908:	003f8e06 	br	1003744 <_ZNSt6locale5_ImplD1Ev+0xd4>
 100390c:	00bfffc4 	movi	r2,-1
 1003910:	d8800115 	stw	r2,4(sp)
 1003914:	10371380 	call	1037138 <__cxa_call_unexpected>

01003918 <_ZNSt6locale5_ImplC1ERKS0_m>:
 1003918:	deffe504 	addi	sp,sp,-108
 100391c:	008040f4 	movhi	r2,259
 1003920:	109cae04 	addi	r2,r2,29368
 1003924:	00c04174 	movhi	r3,261
 1003928:	18dfd604 	addi	r3,r3,32600
 100392c:	d8800615 	stw	r2,24(sp)
 1003930:	d9001415 	stw	r4,80(sp)
 1003934:	00804034 	movhi	r2,256
 1003938:	108ee304 	addi	r2,r2,15244
 100393c:	d809883a 	mov	r4,sp
 1003940:	d8c00715 	stw	r3,28(sp)
 1003944:	d8800915 	stw	r2,36(sp)
 1003948:	dfc01a15 	stw	ra,104(sp)
 100394c:	df001915 	stw	fp,100(sp)
 1003950:	ddc01815 	stw	r23,96(sp)
 1003954:	d9401515 	stw	r5,84(sp)
 1003958:	dec00815 	stw	sp,32(sp)
 100395c:	dec00a15 	stw	sp,40(sp)
 1003960:	d9801615 	stw	r6,88(sp)
 1003964:	10424240 	call	1042424 <_Unwind_SjLj_Register>
 1003968:	d8801517 	ldw	r2,84(sp)
 100396c:	d8c01417 	ldw	r3,80(sp)
 1003970:	11000217 	ldw	r4,8(r2)
 1003974:	d8801617 	ldw	r2,88(sp)
 1003978:	18000115 	stw	zero,4(r3)
 100397c:	19000215 	stw	r4,8(r3)
 1003980:	18800015 	stw	r2,0(r3)
 1003984:	18000315 	stw	zero,12(r3)
 1003988:	18000415 	stw	zero,16(r3)
 100398c:	00800104 	movi	r2,4
 1003990:	2109883a 	add	r4,r4,r4
 1003994:	d8800115 	stw	r2,4(sp)
 1003998:	2109883a 	add	r4,r4,r4
 100399c:	10368c00 	call	10368c0 <_Znam>
 10039a0:	d8c01417 	ldw	r3,80(sp)
 10039a4:	19000217 	ldw	r4,8(r3)
 10039a8:	18800115 	stw	r2,4(r3)
 10039ac:	20001b26 	beq	r4,zero,1003a1c <_ZNSt6locale5_ImplC1ERKS0_m+0x104>
 10039b0:	d8001215 	stw	zero,72(sp)
 10039b4:	d8000d15 	stw	zero,52(sp)
 10039b8:	d9001517 	ldw	r4,84(sp)
 10039bc:	20800117 	ldw	r2,4(r4)
 10039c0:	d9001417 	ldw	r4,80(sp)
 10039c4:	20c00117 	ldw	r3,4(r4)
 10039c8:	d9000d17 	ldw	r4,52(sp)
 10039cc:	2085883a 	add	r2,r4,r2
 10039d0:	11000017 	ldw	r4,0(r2)
 10039d4:	d8800d17 	ldw	r2,52(sp)
 10039d8:	10c7883a 	add	r3,r2,r3
 10039dc:	19000015 	stw	r4,0(r3)
 10039e0:	20000526 	beq	r4,zero,10039f8 <_ZNSt6locale5_ImplC1ERKS0_m+0xe0>
 10039e4:	00800084 	movi	r2,2
 10039e8:	d8800115 	stw	r2,4(sp)
 10039ec:	21000104 	addi	r4,r4,4
 10039f0:	01400044 	movi	r5,1
 10039f4:	103462c0 	call	103462c <_ZN9__gnu_cxx12__atomic_addEPVii>
 10039f8:	d8c01417 	ldw	r3,80(sp)
 10039fc:	d8801217 	ldw	r2,72(sp)
 1003a00:	19000217 	ldw	r4,8(r3)
 1003a04:	d8c00d17 	ldw	r3,52(sp)
 1003a08:	10800044 	addi	r2,r2,1
 1003a0c:	d8801215 	stw	r2,72(sp)
 1003a10:	18c00104 	addi	r3,r3,4
 1003a14:	d8c00d15 	stw	r3,52(sp)
 1003a18:	113fe736 	bltu	r2,r4,10039b8 <_ZNSt6locale5_ImplC1ERKS0_m+0xa0>
 1003a1c:	00800104 	movi	r2,4
 1003a20:	2109883a 	add	r4,r4,r4
 1003a24:	d8800115 	stw	r2,4(sp)
 1003a28:	2109883a 	add	r4,r4,r4
 1003a2c:	10368c00 	call	10368c0 <_Znam>
 1003a30:	d9001417 	ldw	r4,80(sp)
 1003a34:	20c00217 	ldw	r3,8(r4)
 1003a38:	20800315 	stw	r2,12(r4)
 1003a3c:	18001926 	beq	r3,zero,1003aa4 <_ZNSt6locale5_ImplC1ERKS0_m+0x18c>
 1003a40:	d8001115 	stw	zero,68(sp)
 1003a44:	d8000e15 	stw	zero,56(sp)
 1003a48:	d8c01517 	ldw	r3,84(sp)
 1003a4c:	d9001417 	ldw	r4,80(sp)
 1003a50:	18800317 	ldw	r2,12(r3)
 1003a54:	20c00317 	ldw	r3,12(r4)
 1003a58:	d9000e17 	ldw	r4,56(sp)
 1003a5c:	2085883a 	add	r2,r4,r2
 1003a60:	10800017 	ldw	r2,0(r2)
 1003a64:	20c7883a 	add	r3,r4,r3
 1003a68:	18800015 	stw	r2,0(r3)
 1003a6c:	10000426 	beq	r2,zero,1003a80 <_ZNSt6locale5_ImplC1ERKS0_m+0x168>
 1003a70:	01400044 	movi	r5,1
 1003a74:	d9400115 	stw	r5,4(sp)
 1003a78:	11000104 	addi	r4,r2,4
 1003a7c:	103462c0 	call	103462c <_ZN9__gnu_cxx12__atomic_addEPVii>
 1003a80:	d8c01417 	ldw	r3,80(sp)
 1003a84:	d9001117 	ldw	r4,68(sp)
 1003a88:	18800217 	ldw	r2,8(r3)
 1003a8c:	d8c00e17 	ldw	r3,56(sp)
 1003a90:	21000044 	addi	r4,r4,1
 1003a94:	d9001115 	stw	r4,68(sp)
 1003a98:	18c00104 	addi	r3,r3,4
 1003a9c:	d8c00e15 	stw	r3,56(sp)
 1003aa0:	20bfe936 	bltu	r4,r2,1003a48 <_ZNSt6locale5_ImplC1ERKS0_m+0x130>
 1003aa4:	01000104 	movi	r4,4
 1003aa8:	d9000115 	stw	r4,4(sp)
 1003aac:	01000604 	movi	r4,24
 1003ab0:	10368c00 	call	10368c0 <_Znam>
 1003ab4:	1009883a 	mov	r4,r2
 1003ab8:	d8801417 	ldw	r2,80(sp)
 1003abc:	01800104 	movi	r6,4
 1003ac0:	01400604 	movi	r5,24
 1003ac4:	11000415 	stw	r4,16(r2)
 1003ac8:	0007883a 	mov	r3,zero
 1003acc:	20c5883a 	add	r2,r4,r3
 1003ad0:	1987883a 	add	r3,r3,r6
 1003ad4:	10000015 	stw	zero,0(r2)
 1003ad8:	197ffc1e 	bne	r3,r5,1003acc <_ZNSt6locale5_ImplC1ERKS0_m+0x1b4>
 1003adc:	d8000f15 	stw	zero,60(sp)
 1003ae0:	d8c01517 	ldw	r3,84(sp)
 1003ae4:	d9000f17 	ldw	r4,60(sp)
 1003ae8:	18800417 	ldw	r2,16(r3)
 1003aec:	1105883a 	add	r2,r2,r4
 1003af0:	11000017 	ldw	r4,0(r2)
 1003af4:	20001e26 	beq	r4,zero,1003b70 <_ZNSt6locale5_ImplC1ERKS0_m+0x258>
 1003af8:	10475080 	call	1047508 <strlen>
 1003afc:	d9001417 	ldw	r4,80(sp)
 1003b00:	10800044 	addi	r2,r2,1
 1003b04:	d8801015 	stw	r2,64(sp)
 1003b08:	20c00417 	ldw	r3,16(r4)
 1003b0c:	d9000f17 	ldw	r4,60(sp)
 1003b10:	00800104 	movi	r2,4
 1003b14:	d8800115 	stw	r2,4(sp)
 1003b18:	20c7883a 	add	r3,r4,r3
 1003b1c:	d8c01315 	stw	r3,76(sp)
 1003b20:	d9001017 	ldw	r4,64(sp)
 1003b24:	10368c00 	call	10368c0 <_Znam>
 1003b28:	d9001417 	ldw	r4,80(sp)
 1003b2c:	20c00417 	ldw	r3,16(r4)
 1003b30:	d9001517 	ldw	r4,84(sp)
 1003b34:	21800417 	ldw	r6,16(r4)
 1003b38:	d9001317 	ldw	r4,76(sp)
 1003b3c:	20800015 	stw	r2,0(r4)
 1003b40:	d8800f17 	ldw	r2,60(sp)
 1003b44:	1887883a 	add	r3,r3,r2
 1003b48:	308d883a 	add	r6,r6,r2
 1003b4c:	19000017 	ldw	r4,0(r3)
 1003b50:	31400017 	ldw	r5,0(r6)
 1003b54:	d9801017 	ldw	r6,64(sp)
 1003b58:	10800104 	addi	r2,r2,4
 1003b5c:	d8800f15 	stw	r2,60(sp)
 1003b60:	10451940 	call	1045194 <memcpy>
 1003b64:	d9000f17 	ldw	r4,60(sp)
 1003b68:	00c00604 	movi	r3,24
 1003b6c:	20ffdc1e 	bne	r4,r3,1003ae0 <_ZNSt6locale5_ImplC1ERKS0_m+0x1c8>
 1003b70:	d809883a 	mov	r4,sp
 1003b74:	10424340 	call	1042434 <_Unwind_SjLj_Unregister>
 1003b78:	dfc01a17 	ldw	ra,104(sp)
 1003b7c:	df001917 	ldw	fp,100(sp)
 1003b80:	ddc01817 	ldw	r23,96(sp)
 1003b84:	dec01b04 	addi	sp,sp,108
 1003b88:	f800283a 	ret
 1003b8c:	d8800217 	ldw	r2,8(sp)
 1003b90:	d8c00117 	ldw	r3,4(sp)
 1003b94:	d9000317 	ldw	r4,12(sp)
 1003b98:	d8801715 	stw	r2,92(sp)
 1003b9c:	00800044 	movi	r2,1
 1003ba0:	18800426 	beq	r3,r2,1003bb4 <_ZNSt6locale5_ImplC1ERKS0_m+0x29c>
 1003ba4:	00800084 	movi	r2,2
 1003ba8:	18800e26 	beq	r3,r2,1003be4 <_ZNSt6locale5_ImplC1ERKS0_m+0x2cc>
 1003bac:	008000c4 	movi	r2,3
 1003bb0:	18800526 	beq	r3,r2,1003bc8 <_ZNSt6locale5_ImplC1ERKS0_m+0x2b0>
 1003bb4:	00bfffc4 	movi	r2,-1
 1003bb8:	20800e26 	beq	r4,r2,1003bf4 <_ZNSt6locale5_ImplC1ERKS0_m+0x2dc>
 1003bbc:	d9001717 	ldw	r4,92(sp)
 1003bc0:	d8800115 	stw	r2,4(sp)
 1003bc4:	10426f00 	call	10426f0 <_Unwind_SjLj_Resume>
 1003bc8:	d9001717 	ldw	r4,92(sp)
 1003bcc:	1036a2c0 	call	1036a2c <__cxa_begin_catch>
 1003bd0:	d9001417 	ldw	r4,80(sp)
 1003bd4:	10036700 	call	1003670 <_ZNSt6locale5_ImplD1Ev>
 1003bd8:	008000c4 	movi	r2,3
 1003bdc:	d8800115 	stw	r2,4(sp)
 1003be0:	1035f280 	call	1035f28 <__cxa_rethrow>
 1003be4:	d8000115 	stw	zero,4(sp)
 1003be8:	10369880 	call	1036988 <__cxa_end_catch>
 1003bec:	00bfffc4 	movi	r2,-1
 1003bf0:	003ff206 	br	1003bbc <_ZNSt6locale5_ImplC1ERKS0_m+0x2a4>
 1003bf4:	d9001717 	ldw	r4,92(sp)
 1003bf8:	00bfffc4 	movi	r2,-1
 1003bfc:	d8800115 	stw	r2,4(sp)
 1003c00:	10371380 	call	1037138 <__cxa_call_unexpected>

01003c04 <_ZNSt6locale5_ImplC2ERKS0_m>:
 1003c04:	deffe504 	addi	sp,sp,-108
 1003c08:	008040f4 	movhi	r2,259
 1003c0c:	109cae04 	addi	r2,r2,29368
 1003c10:	00c04174 	movhi	r3,261
 1003c14:	18dfdd04 	addi	r3,r3,32628
 1003c18:	d8800615 	stw	r2,24(sp)
 1003c1c:	d9001415 	stw	r4,80(sp)
 1003c20:	00804034 	movhi	r2,256
 1003c24:	108f9e04 	addi	r2,r2,15992
 1003c28:	d809883a 	mov	r4,sp
 1003c2c:	d8c00715 	stw	r3,28(sp)
 1003c30:	d8800915 	stw	r2,36(sp)
 1003c34:	dfc01a15 	stw	ra,104(sp)
 1003c38:	df001915 	stw	fp,100(sp)
 1003c3c:	ddc01815 	stw	r23,96(sp)
 1003c40:	d9401515 	stw	r5,84(sp)
 1003c44:	dec00815 	stw	sp,32(sp)
 1003c48:	dec00a15 	stw	sp,40(sp)
 1003c4c:	d9801615 	stw	r6,88(sp)
 1003c50:	10424240 	call	1042424 <_Unwind_SjLj_Register>
 1003c54:	d8801517 	ldw	r2,84(sp)
 1003c58:	d8c01417 	ldw	r3,80(sp)
 1003c5c:	11000217 	ldw	r4,8(r2)
 1003c60:	d8801617 	ldw	r2,88(sp)
 1003c64:	18000115 	stw	zero,4(r3)
 1003c68:	19000215 	stw	r4,8(r3)
 1003c6c:	18800015 	stw	r2,0(r3)
 1003c70:	18000315 	stw	zero,12(r3)
 1003c74:	18000415 	stw	zero,16(r3)
 1003c78:	00800104 	movi	r2,4
 1003c7c:	2109883a 	add	r4,r4,r4
 1003c80:	d8800115 	stw	r2,4(sp)
 1003c84:	2109883a 	add	r4,r4,r4
 1003c88:	10368c00 	call	10368c0 <_Znam>
 1003c8c:	d8c01417 	ldw	r3,80(sp)
 1003c90:	19000217 	ldw	r4,8(r3)
 1003c94:	18800115 	stw	r2,4(r3)
 1003c98:	20001b26 	beq	r4,zero,1003d08 <_ZNSt6locale5_ImplC2ERKS0_m+0x104>
 1003c9c:	d8001215 	stw	zero,72(sp)
 1003ca0:	d8000d15 	stw	zero,52(sp)
 1003ca4:	d9001517 	ldw	r4,84(sp)
 1003ca8:	20800117 	ldw	r2,4(r4)
 1003cac:	d9001417 	ldw	r4,80(sp)
 1003cb0:	20c00117 	ldw	r3,4(r4)
 1003cb4:	d9000d17 	ldw	r4,52(sp)
 1003cb8:	1105883a 	add	r2,r2,r4
 1003cbc:	11000017 	ldw	r4,0(r2)
 1003cc0:	d8800d17 	ldw	r2,52(sp)
 1003cc4:	1887883a 	add	r3,r3,r2
 1003cc8:	19000015 	stw	r4,0(r3)
 1003ccc:	20000526 	beq	r4,zero,1003ce4 <_ZNSt6locale5_ImplC2ERKS0_m+0xe0>
 1003cd0:	00800084 	movi	r2,2
 1003cd4:	d8800115 	stw	r2,4(sp)
 1003cd8:	21000104 	addi	r4,r4,4
 1003cdc:	01400044 	movi	r5,1
 1003ce0:	103462c0 	call	103462c <_ZN9__gnu_cxx12__atomic_addEPVii>
 1003ce4:	d8c01417 	ldw	r3,80(sp)
 1003ce8:	d8801217 	ldw	r2,72(sp)
 1003cec:	19000217 	ldw	r4,8(r3)
 1003cf0:	d8c00d17 	ldw	r3,52(sp)
 1003cf4:	10800044 	addi	r2,r2,1
 1003cf8:	d8801215 	stw	r2,72(sp)
 1003cfc:	18c00104 	addi	r3,r3,4
 1003d00:	d8c00d15 	stw	r3,52(sp)
 1003d04:	113fe736 	bltu	r2,r4,1003ca4 <_ZNSt6locale5_ImplC2ERKS0_m+0xa0>
 1003d08:	00800104 	movi	r2,4
 1003d0c:	2109883a 	add	r4,r4,r4
 1003d10:	d8800115 	stw	r2,4(sp)
 1003d14:	2109883a 	add	r4,r4,r4
 1003d18:	10368c00 	call	10368c0 <_Znam>
 1003d1c:	d9001417 	ldw	r4,80(sp)
 1003d20:	20c00217 	ldw	r3,8(r4)
 1003d24:	20800315 	stw	r2,12(r4)
 1003d28:	18001926 	beq	r3,zero,1003d90 <_ZNSt6locale5_ImplC2ERKS0_m+0x18c>
 1003d2c:	d8001115 	stw	zero,68(sp)
 1003d30:	d8000e15 	stw	zero,56(sp)
 1003d34:	d8c01517 	ldw	r3,84(sp)
 1003d38:	d9001417 	ldw	r4,80(sp)
 1003d3c:	18800317 	ldw	r2,12(r3)
 1003d40:	20c00317 	ldw	r3,12(r4)
 1003d44:	d9000e17 	ldw	r4,56(sp)
 1003d48:	2085883a 	add	r2,r4,r2
 1003d4c:	10800017 	ldw	r2,0(r2)
 1003d50:	20c7883a 	add	r3,r4,r3
 1003d54:	18800015 	stw	r2,0(r3)
 1003d58:	10000426 	beq	r2,zero,1003d6c <_ZNSt6locale5_ImplC2ERKS0_m+0x168>
 1003d5c:	01400044 	movi	r5,1
 1003d60:	d9400115 	stw	r5,4(sp)
 1003d64:	11000104 	addi	r4,r2,4
 1003d68:	103462c0 	call	103462c <_ZN9__gnu_cxx12__atomic_addEPVii>
 1003d6c:	d8c01417 	ldw	r3,80(sp)
 1003d70:	d9001117 	ldw	r4,68(sp)
 1003d74:	18800217 	ldw	r2,8(r3)
 1003d78:	d8c00e17 	ldw	r3,56(sp)
 1003d7c:	21000044 	addi	r4,r4,1
 1003d80:	d9001115 	stw	r4,68(sp)
 1003d84:	18c00104 	addi	r3,r3,4
 1003d88:	d8c00e15 	stw	r3,56(sp)
 1003d8c:	20bfe936 	bltu	r4,r2,1003d34 <_ZNSt6locale5_ImplC2ERKS0_m+0x130>
 1003d90:	01000104 	movi	r4,4
 1003d94:	d9000115 	stw	r4,4(sp)
 1003d98:	01000604 	movi	r4,24
 1003d9c:	10368c00 	call	10368c0 <_Znam>
 1003da0:	1009883a 	mov	r4,r2
 1003da4:	d8801417 	ldw	r2,80(sp)
 1003da8:	01800104 	movi	r6,4
 1003dac:	01400604 	movi	r5,24
 1003db0:	11000415 	stw	r4,16(r2)
 1003db4:	0007883a 	mov	r3,zero
 1003db8:	20c5883a 	add	r2,r4,r3
 1003dbc:	1987883a 	add	r3,r3,r6
 1003dc0:	10000015 	stw	zero,0(r2)
 1003dc4:	197ffc1e 	bne	r3,r5,1003db8 <_ZNSt6locale5_ImplC2ERKS0_m+0x1b4>
 1003dc8:	d8000f15 	stw	zero,60(sp)
 1003dcc:	d8c01517 	ldw	r3,84(sp)
 1003dd0:	d9000f17 	ldw	r4,60(sp)
 1003dd4:	18800417 	ldw	r2,16(r3)
 1003dd8:	1105883a 	add	r2,r2,r4
 1003ddc:	11000017 	ldw	r4,0(r2)
 1003de0:	20001e26 	beq	r4,zero,1003e5c <_ZNSt6locale5_ImplC2ERKS0_m+0x258>
 1003de4:	10475080 	call	1047508 <strlen>
 1003de8:	d9001417 	ldw	r4,80(sp)
 1003dec:	10800044 	addi	r2,r2,1
 1003df0:	d8801015 	stw	r2,64(sp)
 1003df4:	20c00417 	ldw	r3,16(r4)
 1003df8:	d9000f17 	ldw	r4,60(sp)
 1003dfc:	00800104 	movi	r2,4
 1003e00:	d8800115 	stw	r2,4(sp)
 1003e04:	20c7883a 	add	r3,r4,r3
 1003e08:	d8c01315 	stw	r3,76(sp)
 1003e0c:	d9001017 	ldw	r4,64(sp)
 1003e10:	10368c00 	call	10368c0 <_Znam>
 1003e14:	d9001417 	ldw	r4,80(sp)
 1003e18:	20c00417 	ldw	r3,16(r4)
 1003e1c:	d9001517 	ldw	r4,84(sp)
 1003e20:	21800417 	ldw	r6,16(r4)
 1003e24:	d9001317 	ldw	r4,76(sp)
 1003e28:	20800015 	stw	r2,0(r4)
 1003e2c:	d8800f17 	ldw	r2,60(sp)
 1003e30:	10c7883a 	add	r3,r2,r3
 1003e34:	118d883a 	add	r6,r2,r6
 1003e38:	19000017 	ldw	r4,0(r3)
 1003e3c:	31400017 	ldw	r5,0(r6)
 1003e40:	d9801017 	ldw	r6,64(sp)
 1003e44:	10800104 	addi	r2,r2,4
 1003e48:	d8800f15 	stw	r2,60(sp)
 1003e4c:	10451940 	call	1045194 <memcpy>
 1003e50:	d9000f17 	ldw	r4,60(sp)
 1003e54:	00c00604 	movi	r3,24
 1003e58:	20ffdc1e 	bne	r4,r3,1003dcc <_ZNSt6locale5_ImplC2ERKS0_m+0x1c8>
 1003e5c:	d809883a 	mov	r4,sp
 1003e60:	10424340 	call	1042434 <_Unwind_SjLj_Unregister>
 1003e64:	dfc01a17 	ldw	ra,104(sp)
 1003e68:	df001917 	ldw	fp,100(sp)
 1003e6c:	ddc01817 	ldw	r23,96(sp)
 1003e70:	dec01b04 	addi	sp,sp,108
 1003e74:	f800283a 	ret
 1003e78:	d8800217 	ldw	r2,8(sp)
 1003e7c:	d8c00117 	ldw	r3,4(sp)
 1003e80:	d9000317 	ldw	r4,12(sp)
 1003e84:	d8801715 	stw	r2,92(sp)
 1003e88:	00800044 	movi	r2,1
 1003e8c:	18800426 	beq	r3,r2,1003ea0 <_ZNSt6locale5_ImplC2ERKS0_m+0x29c>
 1003e90:	00800084 	movi	r2,2
 1003e94:	18800e26 	beq	r3,r2,1003ed0 <_ZNSt6locale5_ImplC2ERKS0_m+0x2cc>
 1003e98:	008000c4 	movi	r2,3
 1003e9c:	18800526 	beq	r3,r2,1003eb4 <_ZNSt6locale5_ImplC2ERKS0_m+0x2b0>
 1003ea0:	00bfffc4 	movi	r2,-1
 1003ea4:	20800e26 	beq	r4,r2,1003ee0 <_ZNSt6locale5_ImplC2ERKS0_m+0x2dc>
 1003ea8:	d9001717 	ldw	r4,92(sp)
 1003eac:	d8800115 	stw	r2,4(sp)
 1003eb0:	10426f00 	call	10426f0 <_Unwind_SjLj_Resume>
 1003eb4:	d9001717 	ldw	r4,92(sp)
 1003eb8:	1036a2c0 	call	1036a2c <__cxa_begin_catch>
 1003ebc:	d9001417 	ldw	r4,80(sp)
 1003ec0:	10036700 	call	1003670 <_ZNSt6locale5_ImplD1Ev>
 1003ec4:	008000c4 	movi	r2,3
 1003ec8:	d8800115 	stw	r2,4(sp)
 1003ecc:	1035f280 	call	1035f28 <__cxa_rethrow>
 1003ed0:	d8000115 	stw	zero,4(sp)
 1003ed4:	10369880 	call	1036988 <__cxa_end_catch>
 1003ed8:	00bfffc4 	movi	r2,-1
 1003edc:	003ff206 	br	1003ea8 <_ZNSt6locale5_ImplC2ERKS0_m+0x2a4>
 1003ee0:	d9001717 	ldw	r4,92(sp)
 1003ee4:	00bfffc4 	movi	r2,-1
 1003ee8:	d8800115 	stw	r2,4(sp)
 1003eec:	10371380 	call	1037138 <__cxa_call_unexpected>

01003ef0 <_ZNSt6localeD1Ev>:
 1003ef0:	deffee04 	addi	sp,sp,-72
 1003ef4:	008040f4 	movhi	r2,259
 1003ef8:	109cae04 	addi	r2,r2,29368
 1003efc:	00c04174 	movhi	r3,261
 1003f00:	18dfe404 	addi	r3,r3,32656
 1003f04:	d8800615 	stw	r2,24(sp)
 1003f08:	d9000e15 	stw	r4,56(sp)
 1003f0c:	00804034 	movhi	r2,256
 1003f10:	108fec04 	addi	r2,r2,16304
 1003f14:	d809883a 	mov	r4,sp
 1003f18:	d8c00715 	stw	r3,28(sp)
 1003f1c:	d8800915 	stw	r2,36(sp)
 1003f20:	dfc01115 	stw	ra,68(sp)
 1003f24:	df001015 	stw	fp,64(sp)
 1003f28:	ddc00f15 	stw	r23,60(sp)
 1003f2c:	dec00815 	stw	sp,32(sp)
 1003f30:	dec00a15 	stw	sp,40(sp)
 1003f34:	10424240 	call	1042424 <_Unwind_SjLj_Register>
 1003f38:	d8800e17 	ldw	r2,56(sp)
 1003f3c:	00c00044 	movi	r3,1
 1003f40:	017fffc4 	movi	r5,-1
 1003f44:	10800017 	ldw	r2,0(r2)
 1003f48:	d8c00115 	stw	r3,4(sp)
 1003f4c:	d8800d15 	stw	r2,52(sp)
 1003f50:	1009883a 	mov	r4,r2
 1003f54:	10346180 	call	1034618 <_ZN9__gnu_cxx18__exchange_and_addEPVii>
 1003f58:	00c00044 	movi	r3,1
 1003f5c:	10c00726 	beq	r2,r3,1003f7c <_ZNSt6localeD1Ev+0x8c>
 1003f60:	d809883a 	mov	r4,sp
 1003f64:	10424340 	call	1042434 <_Unwind_SjLj_Unregister>
 1003f68:	dfc01117 	ldw	ra,68(sp)
 1003f6c:	df001017 	ldw	fp,64(sp)
 1003f70:	ddc00f17 	ldw	r23,60(sp)
 1003f74:	dec01204 	addi	sp,sp,72
 1003f78:	f800283a 	ret
 1003f7c:	d8800d17 	ldw	r2,52(sp)
 1003f80:	103ff726 	beq	r2,zero,1003f60 <_ZNSt6localeD1Ev+0x70>
 1003f84:	1009883a 	mov	r4,r2
 1003f88:	10036700 	call	1003670 <_ZNSt6locale5_ImplD1Ev>
 1003f8c:	d9000d17 	ldw	r4,52(sp)
 1003f90:	1036b440 	call	1036b44 <_ZdlPv>
 1003f94:	d809883a 	mov	r4,sp
 1003f98:	10424340 	call	1042434 <_Unwind_SjLj_Unregister>
 1003f9c:	dfc01117 	ldw	ra,68(sp)
 1003fa0:	df001017 	ldw	fp,64(sp)
 1003fa4:	ddc00f17 	ldw	r23,60(sp)
 1003fa8:	dec01204 	addi	sp,sp,72
 1003fac:	f800283a 	ret
 1003fb0:	d8800317 	ldw	r2,12(sp)
 1003fb4:	00ffffc4 	movi	r3,-1
 1003fb8:	d9000217 	ldw	r4,8(sp)
 1003fbc:	10c00226 	beq	r2,r3,1003fc8 <_ZNSt6localeD1Ev+0xd8>
 1003fc0:	d8c00115 	stw	r3,4(sp)
 1003fc4:	10426f00 	call	10426f0 <_Unwind_SjLj_Resume>
 1003fc8:	00bfffc4 	movi	r2,-1
 1003fcc:	d8800115 	stw	r2,4(sp)
 1003fd0:	10371380 	call	1037138 <__cxa_call_unexpected>

01003fd4 <_ZNSt6localeD2Ev>:
 1003fd4:	deffee04 	addi	sp,sp,-72
 1003fd8:	008040f4 	movhi	r2,259
 1003fdc:	109cae04 	addi	r2,r2,29368
 1003fe0:	00c04174 	movhi	r3,261
 1003fe4:	18dfe804 	addi	r3,r3,32672
 1003fe8:	d8800615 	stw	r2,24(sp)
 1003fec:	d9000e15 	stw	r4,56(sp)
 1003ff0:	00804034 	movhi	r2,256
 1003ff4:	10902504 	addi	r2,r2,16532
 1003ff8:	d809883a 	mov	r4,sp
 1003ffc:	d8c00715 	stw	r3,28(sp)
 1004000:	d8800915 	stw	r2,36(sp)
 1004004:	dfc01115 	stw	ra,68(sp)
 1004008:	df001015 	stw	fp,64(sp)
 100400c:	ddc00f15 	stw	r23,60(sp)
 1004010:	dec00815 	stw	sp,32(sp)
 1004014:	dec00a15 	stw	sp,40(sp)
 1004018:	10424240 	call	1042424 <_Unwind_SjLj_Register>
 100401c:	d8800e17 	ldw	r2,56(sp)
 1004020:	00c00044 	movi	r3,1
 1004024:	017fffc4 	movi	r5,-1
 1004028:	10800017 	ldw	r2,0(r2)
 100402c:	d8c00115 	stw	r3,4(sp)
 1004030:	d8800d15 	stw	r2,52(sp)
 1004034:	1009883a 	mov	r4,r2
 1004038:	10346180 	call	1034618 <_ZN9__gnu_cxx18__exchange_and_addEPVii>
 100403c:	00c00044 	movi	r3,1
 1004040:	10c00726 	beq	r2,r3,1004060 <_ZNSt6localeD2Ev+0x8c>
 1004044:	d809883a 	mov	r4,sp
 1004048:	10424340 	call	1042434 <_Unwind_SjLj_Unregister>
 100404c:	dfc01117 	ldw	ra,68(sp)
 1004050:	df001017 	ldw	fp,64(sp)
 1004054:	ddc00f17 	ldw	r23,60(sp)
 1004058:	dec01204 	addi	sp,sp,72
 100405c:	f800283a 	ret
 1004060:	d8800d17 	ldw	r2,52(sp)
 1004064:	103ff726 	beq	r2,zero,1004044 <_ZNSt6localeD2Ev+0x70>
 1004068:	1009883a 	mov	r4,r2
 100406c:	10036700 	call	1003670 <_ZNSt6locale5_ImplD1Ev>
 1004070:	d9000d17 	ldw	r4,52(sp)
 1004074:	1036b440 	call	1036b44 <_ZdlPv>
 1004078:	d809883a 	mov	r4,sp
 100407c:	10424340 	call	1042434 <_Unwind_SjLj_Unregister>
 1004080:	dfc01117 	ldw	ra,68(sp)
 1004084:	df001017 	ldw	fp,64(sp)
 1004088:	ddc00f17 	ldw	r23,60(sp)
 100408c:	dec01204 	addi	sp,sp,72
 1004090:	f800283a 	ret
 1004094:	d8800317 	ldw	r2,12(sp)
 1004098:	00ffffc4 	movi	r3,-1
 100409c:	d9000217 	ldw	r4,8(sp)
 10040a0:	10c00226 	beq	r2,r3,10040ac <_ZNSt6localeD2Ev+0xd8>
 10040a4:	d8c00115 	stw	r3,4(sp)
 10040a8:	10426f00 	call	10426f0 <_Unwind_SjLj_Resume>
 10040ac:	00bfffc4 	movi	r2,-1
 10040b0:	d8800115 	stw	r2,4(sp)
 10040b4:	10371380 	call	1037138 <__cxa_call_unexpected>

010040b8 <_ZNSt6localeaSERKS_>:
 10040b8:	deffed04 	addi	sp,sp,-76
 10040bc:	008040f4 	movhi	r2,259
 10040c0:	109cae04 	addi	r2,r2,29368
 10040c4:	d8800615 	stw	r2,24(sp)
 10040c8:	00c04174 	movhi	r3,261
 10040cc:	18dfec04 	addi	r3,r3,32688
 10040d0:	00804034 	movhi	r2,256
 10040d4:	10906404 	addi	r2,r2,16784
 10040d8:	d9000e15 	stw	r4,56(sp)
 10040dc:	d809883a 	mov	r4,sp
 10040e0:	d8800915 	stw	r2,36(sp)
 10040e4:	d9400f15 	stw	r5,60(sp)
 10040e8:	dfc01215 	stw	ra,72(sp)
 10040ec:	df001115 	stw	fp,68(sp)
 10040f0:	ddc01015 	stw	r23,64(sp)
 10040f4:	d8c00715 	stw	r3,28(sp)
 10040f8:	dec00815 	stw	sp,32(sp)
 10040fc:	dec00a15 	stw	sp,40(sp)
 1004100:	10424240 	call	1042424 <_Unwind_SjLj_Register>
 1004104:	00800084 	movi	r2,2
 1004108:	d8800115 	stw	r2,4(sp)
 100410c:	d8800f17 	ldw	r2,60(sp)
 1004110:	01400044 	movi	r5,1
 1004114:	11000017 	ldw	r4,0(r2)
 1004118:	103462c0 	call	103462c <_ZN9__gnu_cxx12__atomic_addEPVii>
 100411c:	d8c00e17 	ldw	r3,56(sp)
 1004120:	00800044 	movi	r2,1
 1004124:	017fffc4 	movi	r5,-1
 1004128:	18c00017 	ldw	r3,0(r3)
 100412c:	d8800115 	stw	r2,4(sp)
 1004130:	d8c00d15 	stw	r3,52(sp)
 1004134:	1809883a 	mov	r4,r3
 1004138:	10346180 	call	1034618 <_ZN9__gnu_cxx18__exchange_and_addEPVii>
 100413c:	00c00044 	movi	r3,1
 1004140:	10c00c26 	beq	r2,r3,1004174 <_ZNSt6localeaSERKS_+0xbc>
 1004144:	d8c00f17 	ldw	r3,60(sp)
 1004148:	d809883a 	mov	r4,sp
 100414c:	18800017 	ldw	r2,0(r3)
 1004150:	d8c00e17 	ldw	r3,56(sp)
 1004154:	18800015 	stw	r2,0(r3)
 1004158:	10424340 	call	1042434 <_Unwind_SjLj_Unregister>
 100415c:	d8800e17 	ldw	r2,56(sp)
 1004160:	dfc01217 	ldw	ra,72(sp)
 1004164:	df001117 	ldw	fp,68(sp)
 1004168:	ddc01017 	ldw	r23,64(sp)
 100416c:	dec01304 	addi	sp,sp,76
 1004170:	f800283a 	ret
 1004174:	d8800d17 	ldw	r2,52(sp)
 1004178:	103ff226 	beq	r2,zero,1004144 <_ZNSt6localeaSERKS_+0x8c>
 100417c:	1009883a 	mov	r4,r2
 1004180:	10036700 	call	1003670 <_ZNSt6locale5_ImplD1Ev>
 1004184:	d9000d17 	ldw	r4,52(sp)
 1004188:	1036b440 	call	1036b44 <_ZdlPv>
 100418c:	003fed06 	br	1004144 <_ZNSt6localeaSERKS_+0x8c>
 1004190:	d9400317 	ldw	r5,12(sp)
 1004194:	00bfffc4 	movi	r2,-1
 1004198:	d9000217 	ldw	r4,8(sp)
 100419c:	28800226 	beq	r5,r2,10041a8 <_ZNSt6localeaSERKS_+0xf0>
 10041a0:	d8800115 	stw	r2,4(sp)
 10041a4:	10426f00 	call	10426f0 <_Unwind_SjLj_Resume>
 10041a8:	00bfffc4 	movi	r2,-1
 10041ac:	d8800115 	stw	r2,4(sp)
 10041b0:	10371380 	call	1037138 <__cxa_call_unexpected>

010041b4 <_ZNSt6locale5_ImplD2Ev>:
 10041b4:	deffe104 	addi	sp,sp,-124
 10041b8:	008040f4 	movhi	r2,259
 10041bc:	109cae04 	addi	r2,r2,29368
 10041c0:	d8800615 	stw	r2,24(sp)
 10041c4:	00c04174 	movhi	r3,261
 10041c8:	18dff004 	addi	r3,r3,32704
 10041cc:	00804034 	movhi	r2,256
 10041d0:	1090ff04 	addi	r2,r2,17404
 10041d4:	d9001415 	stw	r4,80(sp)
 10041d8:	d809883a 	mov	r4,sp
 10041dc:	d8800915 	stw	r2,36(sp)
 10041e0:	dfc01e15 	stw	ra,120(sp)
 10041e4:	df001d15 	stw	fp,116(sp)
 10041e8:	ddc01c15 	stw	r23,112(sp)
 10041ec:	dd801b15 	stw	r22,108(sp)
 10041f0:	dd401a15 	stw	r21,104(sp)
 10041f4:	dd001915 	stw	r20,100(sp)
 10041f8:	dcc01815 	stw	r19,96(sp)
 10041fc:	dc801715 	stw	r18,92(sp)
 1004200:	dc401615 	stw	r17,88(sp)
 1004204:	dc001515 	stw	r16,84(sp)
 1004208:	d8c00715 	stw	r3,28(sp)
 100420c:	dec00815 	stw	sp,32(sp)
 1004210:	dec00a15 	stw	sp,40(sp)
 1004214:	10424240 	call	1042424 <_Unwind_SjLj_Register>
 1004218:	d8801417 	ldw	r2,80(sp)
 100421c:	11000117 	ldw	r4,4(r2)
 1004220:	20002726 	beq	r4,zero,10042c0 <_ZNSt6locale5_ImplD2Ev+0x10c>
 1004224:	10800217 	ldw	r2,8(r2)
 1004228:	10002426 	beq	r2,zero,10042bc <_ZNSt6locale5_ImplD2Ev+0x108>
 100422c:	d8001115 	stw	zero,68(sp)
 1004230:	d8000d15 	stw	zero,52(sp)
 1004234:	d8c01417 	ldw	r3,80(sp)
 1004238:	18800117 	ldw	r2,4(r3)
 100423c:	d8c00d17 	ldw	r3,52(sp)
 1004240:	1885883a 	add	r2,r3,r2
 1004244:	10800017 	ldw	r2,0(r2)
 1004248:	d8801315 	stw	r2,76(sp)
 100424c:	10000e26 	beq	r2,zero,1004288 <_ZNSt6locale5_ImplD2Ev+0xd4>
 1004250:	01000104 	movi	r4,4
 1004254:	d9000115 	stw	r4,4(sp)
 1004258:	017fffc4 	movi	r5,-1
 100425c:	1109883a 	add	r4,r2,r4
 1004260:	10346180 	call	1034618 <_ZN9__gnu_cxx18__exchange_and_addEPVii>
 1004264:	00c00044 	movi	r3,1
 1004268:	10c0071e 	bne	r2,r3,1004288 <_ZNSt6locale5_ImplD2Ev+0xd4>
 100426c:	d8c01317 	ldw	r3,76(sp)
 1004270:	18800017 	ldw	r2,0(r3)
 1004274:	1809883a 	mov	r4,r3
 1004278:	00c000c4 	movi	r3,3
 100427c:	11400117 	ldw	r5,4(r2)
 1004280:	d8c00115 	stw	r3,4(sp)
 1004284:	283ee83a 	callr	r5
 1004288:	d8c01417 	ldw	r3,80(sp)
 100428c:	18800217 	ldw	r2,8(r3)
 1004290:	d8c01117 	ldw	r3,68(sp)
 1004294:	18c00044 	addi	r3,r3,1
 1004298:	d8c01115 	stw	r3,68(sp)
 100429c:	d8c00d17 	ldw	r3,52(sp)
 10042a0:	18c00104 	addi	r3,r3,4
 10042a4:	d8c00d15 	stw	r3,52(sp)
 10042a8:	d8c01117 	ldw	r3,68(sp)
 10042ac:	18bfe136 	bltu	r3,r2,1004234 <_ZNSt6locale5_ImplD2Ev+0x80>
 10042b0:	d8801417 	ldw	r2,80(sp)
 10042b4:	11000117 	ldw	r4,4(r2)
 10042b8:	20000126 	beq	r4,zero,10042c0 <_ZNSt6locale5_ImplD2Ev+0x10c>
 10042bc:	1036b500 	call	1036b50 <_ZdaPv>
 10042c0:	d8c01417 	ldw	r3,80(sp)
 10042c4:	19000317 	ldw	r4,12(r3)
 10042c8:	20002a26 	beq	r4,zero,1004374 <_ZNSt6locale5_ImplD2Ev+0x1c0>
 10042cc:	18800217 	ldw	r2,8(r3)
 10042d0:	10002726 	beq	r2,zero,1004370 <_ZNSt6locale5_ImplD2Ev+0x1bc>
 10042d4:	d8001015 	stw	zero,64(sp)
 10042d8:	d8000e15 	stw	zero,56(sp)
 10042dc:	00000a06 	br	1004308 <_ZNSt6locale5_ImplD2Ev+0x154>
 10042e0:	d8c01417 	ldw	r3,80(sp)
 10042e4:	18800217 	ldw	r2,8(r3)
 10042e8:	d8c01017 	ldw	r3,64(sp)
 10042ec:	18c00044 	addi	r3,r3,1
 10042f0:	d8c01015 	stw	r3,64(sp)
 10042f4:	d8c00e17 	ldw	r3,56(sp)
 10042f8:	18c00104 	addi	r3,r3,4
 10042fc:	d8c00e15 	stw	r3,56(sp)
 1004300:	d8c01017 	ldw	r3,64(sp)
 1004304:	1880172e 	bgeu	r3,r2,1004364 <_ZNSt6locale5_ImplD2Ev+0x1b0>
 1004308:	d8c01417 	ldw	r3,80(sp)
 100430c:	18800317 	ldw	r2,12(r3)
 1004310:	d8c00e17 	ldw	r3,56(sp)
 1004314:	10c5883a 	add	r2,r2,r3
 1004318:	10800017 	ldw	r2,0(r2)
 100431c:	d8801215 	stw	r2,72(sp)
 1004320:	103fef26 	beq	r2,zero,10042e0 <_ZNSt6locale5_ImplD2Ev+0x12c>
 1004324:	00800084 	movi	r2,2
 1004328:	d8800115 	stw	r2,4(sp)
 100432c:	d8801217 	ldw	r2,72(sp)
 1004330:	017fffc4 	movi	r5,-1
 1004334:	11000104 	addi	r4,r2,4
 1004338:	10346180 	call	1034618 <_ZN9__gnu_cxx18__exchange_and_addEPVii>
 100433c:	100b883a 	mov	r5,r2
 1004340:	00800044 	movi	r2,1
 1004344:	28bfe61e 	bne	r5,r2,10042e0 <_ZNSt6locale5_ImplD2Ev+0x12c>
 1004348:	d8c01217 	ldw	r3,72(sp)
 100434c:	18800017 	ldw	r2,0(r3)
 1004350:	1809883a 	mov	r4,r3
 1004354:	10c00117 	ldw	r3,4(r2)
 1004358:	d9400115 	stw	r5,4(sp)
 100435c:	183ee83a 	callr	r3
 1004360:	003fdf06 	br	10042e0 <_ZNSt6locale5_ImplD2Ev+0x12c>
 1004364:	d8801417 	ldw	r2,80(sp)
 1004368:	11000317 	ldw	r4,12(r2)
 100436c:	20000126 	beq	r4,zero,1004374 <_ZNSt6locale5_ImplD2Ev+0x1c0>
 1004370:	1036b500 	call	1036b50 <_ZdaPv>
 1004374:	d8c01417 	ldw	r3,80(sp)
 1004378:	18800417 	ldw	r2,16(r3)
 100437c:	10001126 	beq	r2,zero,10043c4 <_ZNSt6locale5_ImplD2Ev+0x210>
 1004380:	d8000f15 	stw	zero,60(sp)
 1004384:	d8c01417 	ldw	r3,80(sp)
 1004388:	18800417 	ldw	r2,16(r3)
 100438c:	d8c00f17 	ldw	r3,60(sp)
 1004390:	10c5883a 	add	r2,r2,r3
 1004394:	11000017 	ldw	r4,0(r2)
 1004398:	20000126 	beq	r4,zero,10043a0 <_ZNSt6locale5_ImplD2Ev+0x1ec>
 100439c:	1036b500 	call	1036b50 <_ZdaPv>
 10043a0:	d8800f17 	ldw	r2,60(sp)
 10043a4:	00c00604 	movi	r3,24
 10043a8:	10800104 	addi	r2,r2,4
 10043ac:	d8800f15 	stw	r2,60(sp)
 10043b0:	10fff41e 	bne	r2,r3,1004384 <_ZNSt6locale5_ImplD2Ev+0x1d0>
 10043b4:	d8801417 	ldw	r2,80(sp)
 10043b8:	11000417 	ldw	r4,16(r2)
 10043bc:	20000126 	beq	r4,zero,10043c4 <_ZNSt6locale5_ImplD2Ev+0x210>
 10043c0:	1036b500 	call	1036b50 <_ZdaPv>
 10043c4:	d809883a 	mov	r4,sp
 10043c8:	10424340 	call	1042434 <_Unwind_SjLj_Unregister>
 10043cc:	dfc01e17 	ldw	ra,120(sp)
 10043d0:	df001d17 	ldw	fp,116(sp)
 10043d4:	ddc01c17 	ldw	r23,112(sp)
 10043d8:	dd801b17 	ldw	r22,108(sp)
 10043dc:	dd401a17 	ldw	r21,104(sp)
 10043e0:	dd001917 	ldw	r20,100(sp)
 10043e4:	dcc01817 	ldw	r19,96(sp)
 10043e8:	dc801717 	ldw	r18,92(sp)
 10043ec:	dc401617 	ldw	r17,88(sp)
 10043f0:	dc001517 	ldw	r16,84(sp)
 10043f4:	dec01f04 	addi	sp,sp,124
 10043f8:	f800283a 	ret
 10043fc:	d8c00117 	ldw	r3,4(sp)
 1004400:	00800044 	movi	r2,1
 1004404:	d9000217 	ldw	r4,8(sp)
 1004408:	d9400317 	ldw	r5,12(sp)
 100440c:	18800826 	beq	r3,r2,1004430 <_ZNSt6locale5_ImplD2Ev+0x27c>
 1004410:	00800084 	movi	r2,2
 1004414:	18800a26 	beq	r3,r2,1004440 <_ZNSt6locale5_ImplD2Ev+0x28c>
 1004418:	008000c4 	movi	r2,3
 100441c:	18800426 	beq	r3,r2,1004430 <_ZNSt6locale5_ImplD2Ev+0x27c>
 1004420:	1036a2c0 	call	1036a2c <__cxa_begin_catch>
 1004424:	d8000115 	stw	zero,4(sp)
 1004428:	10369880 	call	1036988 <__cxa_end_catch>
 100442c:	003fac06 	br	10042e0 <_ZNSt6locale5_ImplD2Ev+0x12c>
 1004430:	00bfffc4 	movi	r2,-1
 1004434:	28800626 	beq	r5,r2,1004450 <_ZNSt6locale5_ImplD2Ev+0x29c>
 1004438:	d8800115 	stw	r2,4(sp)
 100443c:	10426f00 	call	10426f0 <_Unwind_SjLj_Resume>
 1004440:	1036a2c0 	call	1036a2c <__cxa_begin_catch>
 1004444:	d8000115 	stw	zero,4(sp)
 1004448:	10369880 	call	1036988 <__cxa_end_catch>
 100444c:	003f8e06 	br	1004288 <_ZNSt6locale5_ImplD2Ev+0xd4>
 1004450:	00bfffc4 	movi	r2,-1
 1004454:	d8800115 	stw	r2,4(sp)
 1004458:	10371380 	call	1037138 <__cxa_call_unexpected>

0100445c <_ZNSt6locale5_Impl16_M_install_facetEPKNS_2idEPKNS_5facetE>:
 100445c:	deffd704 	addi	sp,sp,-164
 1004460:	008040f4 	movhi	r2,259
 1004464:	109cae04 	addi	r2,r2,29368
 1004468:	d8800615 	stw	r2,24(sp)
 100446c:	00c04174 	movhi	r3,261
 1004470:	18dff704 	addi	r3,r3,32732
 1004474:	00804034 	movhi	r2,256
 1004478:	1091fa04 	addi	r2,r2,18408
 100447c:	d9001a15 	stw	r4,104(sp)
 1004480:	d809883a 	mov	r4,sp
 1004484:	d8800915 	stw	r2,36(sp)
 1004488:	dfc02815 	stw	ra,160(sp)
 100448c:	df002715 	stw	fp,156(sp)
 1004490:	ddc02615 	stw	r23,152(sp)
 1004494:	dd802515 	stw	r22,148(sp)
 1004498:	dd402415 	stw	r21,144(sp)
 100449c:	dd002315 	stw	r20,140(sp)
 10044a0:	dcc02215 	stw	r19,136(sp)
 10044a4:	dc802115 	stw	r18,132(sp)
 10044a8:	dc402015 	stw	r17,128(sp)
 10044ac:	dc001f15 	stw	r16,124(sp)
 10044b0:	d8c00715 	stw	r3,28(sp)
 10044b4:	d9801c15 	stw	r6,112(sp)
 10044b8:	dec00815 	stw	sp,32(sp)
 10044bc:	dec00a15 	stw	sp,40(sp)
 10044c0:	d9401b15 	stw	r5,108(sp)
 10044c4:	10424240 	call	1042424 <_Unwind_SjLj_Register>
 10044c8:	d8801c17 	ldw	r2,112(sp)
 10044cc:	10004826 	beq	r2,zero,10045f0 <_ZNSt6locale5_Impl16_M_install_facetEPKNS_2idEPKNS_5facetE+0x194>
 10044d0:	d9001b17 	ldw	r4,108(sp)
 10044d4:	00ffffc4 	movi	r3,-1
 10044d8:	d8c00115 	stw	r3,4(sp)
 10044dc:	1002ba40 	call	1002ba4 <_ZNKSt6locale2id5_M_idEv>
 10044e0:	d9001a17 	ldw	r4,104(sp)
 10044e4:	d8801515 	stw	r2,84(sp)
 10044e8:	d9401517 	ldw	r5,84(sp)
 10044ec:	20800217 	ldw	r2,8(r4)
 10044f0:	10bfffc4 	addi	r2,r2,-1
 10044f4:	11404c36 	bltu	r2,r5,1004628 <_ZNSt6locale5_Impl16_M_install_facetEPKNS_2idEPKNS_5facetE+0x1cc>
 10044f8:	da801c17 	ldw	r10,112(sp)
 10044fc:	00800144 	movi	r2,5
 1004500:	d8800115 	stw	r2,4(sp)
 1004504:	51000104 	addi	r4,r10,4
 1004508:	01400044 	movi	r5,1
 100450c:	103462c0 	call	103462c <_ZN9__gnu_cxx12__atomic_addEPVii>
 1004510:	d8801a17 	ldw	r2,104(sp)
 1004514:	d9001517 	ldw	r4,84(sp)
 1004518:	10c00117 	ldw	r3,4(r2)
 100451c:	2105883a 	add	r2,r4,r4
 1004520:	1085883a 	add	r2,r2,r2
 1004524:	10c5883a 	add	r2,r2,r3
 1004528:	11400017 	ldw	r5,0(r2)
 100452c:	d8801415 	stw	r2,80(sp)
 1004530:	d9401715 	stw	r5,92(sp)
 1004534:	28009926 	beq	r5,zero,100479c <_ZNSt6locale5_Impl16_M_install_facetEPKNS_2idEPKNS_5facetE+0x340>
 1004538:	01000104 	movi	r4,4
 100453c:	d9000115 	stw	r4,4(sp)
 1004540:	2909883a 	add	r4,r5,r4
 1004544:	017fffc4 	movi	r5,-1
 1004548:	10346180 	call	1034618 <_ZN9__gnu_cxx18__exchange_and_addEPVii>
 100454c:	00c00044 	movi	r3,1
 1004550:	10c09626 	beq	r2,r3,10047ac <_ZNSt6locale5_Impl16_M_install_facetEPKNS_2idEPKNS_5facetE+0x350>
 1004554:	d8801c17 	ldw	r2,112(sp)
 1004558:	da801417 	ldw	r10,80(sp)
 100455c:	50800015 	stw	r2,0(r10)
 1004560:	d9401a17 	ldw	r5,104(sp)
 1004564:	28800217 	ldw	r2,8(r5)
 1004568:	10002126 	beq	r2,zero,10045f0 <_ZNSt6locale5_Impl16_M_install_facetEPKNS_2idEPKNS_5facetE+0x194>
 100456c:	d8000f15 	stw	zero,60(sp)
 1004570:	d8000d15 	stw	zero,52(sp)
 1004574:	d9801a17 	ldw	r6,104(sp)
 1004578:	da800d17 	ldw	r10,52(sp)
 100457c:	30800317 	ldw	r2,12(r6)
 1004580:	da801615 	stw	r10,88(sp)
 1004584:	1285883a 	add	r2,r2,r10
 1004588:	10800017 	ldw	r2,0(r2)
 100458c:	d8800e15 	stw	r2,56(sp)
 1004590:	10000e26 	beq	r2,zero,10045cc <_ZNSt6locale5_Impl16_M_install_facetEPKNS_2idEPKNS_5facetE+0x170>
 1004594:	00800084 	movi	r2,2
 1004598:	d8800115 	stw	r2,4(sp)
 100459c:	d8800e17 	ldw	r2,56(sp)
 10045a0:	017fffc4 	movi	r5,-1
 10045a4:	11000104 	addi	r4,r2,4
 10045a8:	10346180 	call	1034618 <_ZN9__gnu_cxx18__exchange_and_addEPVii>
 10045ac:	100b883a 	mov	r5,r2
 10045b0:	00800044 	movi	r2,1
 10045b4:	28808526 	beq	r5,r2,10047cc <_ZNSt6locale5_Impl16_M_install_facetEPKNS_2idEPKNS_5facetE+0x370>
 10045b8:	d9801a17 	ldw	r6,104(sp)
 10045bc:	da801617 	ldw	r10,88(sp)
 10045c0:	30800317 	ldw	r2,12(r6)
 10045c4:	1285883a 	add	r2,r2,r10
 10045c8:	10000015 	stw	zero,0(r2)
 10045cc:	d8c01a17 	ldw	r3,104(sp)
 10045d0:	d9000f17 	ldw	r4,60(sp)
 10045d4:	d9400d17 	ldw	r5,52(sp)
 10045d8:	18800217 	ldw	r2,8(r3)
 10045dc:	21000044 	addi	r4,r4,1
 10045e0:	29400104 	addi	r5,r5,4
 10045e4:	d9000f15 	stw	r4,60(sp)
 10045e8:	d9400d15 	stw	r5,52(sp)
 10045ec:	20bfe136 	bltu	r4,r2,1004574 <_ZNSt6locale5_Impl16_M_install_facetEPKNS_2idEPKNS_5facetE+0x118>
 10045f0:	d809883a 	mov	r4,sp
 10045f4:	10424340 	call	1042434 <_Unwind_SjLj_Unregister>
 10045f8:	dfc02817 	ldw	ra,160(sp)
 10045fc:	df002717 	ldw	fp,156(sp)
 1004600:	ddc02617 	ldw	r23,152(sp)
 1004604:	dd802517 	ldw	r22,148(sp)
 1004608:	dd402417 	ldw	r21,144(sp)
 100460c:	dd002317 	ldw	r20,140(sp)
 1004610:	dcc02217 	ldw	r19,136(sp)
 1004614:	dc802117 	ldw	r18,132(sp)
 1004618:	dc402017 	ldw	r17,128(sp)
 100461c:	dc001f17 	ldw	r16,124(sp)
 1004620:	dec02904 	addi	sp,sp,164
 1004624:	f800283a 	ret
 1004628:	da801a17 	ldw	r10,104(sp)
 100462c:	29800104 	addi	r6,r5,4
 1004630:	3185883a 	add	r2,r6,r6
 1004634:	52800117 	ldw	r10,4(r10)
 1004638:	1085883a 	add	r2,r2,r2
 100463c:	1009883a 	mov	r4,r2
 1004640:	d9801315 	stw	r6,76(sp)
 1004644:	d8801915 	stw	r2,100(sp)
 1004648:	da801215 	stw	r10,72(sp)
 100464c:	10368c00 	call	10368c0 <_Znam>
 1004650:	d8801115 	stw	r2,68(sp)
 1004654:	d8801a17 	ldw	r2,104(sp)
 1004658:	d8c01117 	ldw	r3,68(sp)
 100465c:	11000217 	ldw	r4,8(r2)
 1004660:	d8c01815 	stw	r3,96(sp)
 1004664:	20000d26 	beq	r4,zero,100469c <_ZNSt6locale5_Impl16_M_install_facetEPKNS_2idEPKNS_5facetE+0x240>
 1004668:	11c00117 	ldw	r7,4(r2)
 100466c:	02400104 	movi	r9,4
 1004670:	000d883a 	mov	r6,zero
 1004674:	000b883a 	mov	r5,zero
 1004678:	02000044 	movi	r8,1
 100467c:	3945883a 	add	r2,r7,r5
 1004680:	da801117 	ldw	r10,68(sp)
 1004684:	10c00017 	ldw	r3,0(r2)
 1004688:	320d883a 	add	r6,r6,r8
 100468c:	5145883a 	add	r2,r10,r5
 1004690:	10c00015 	stw	r3,0(r2)
 1004694:	2a4b883a 	add	r5,r5,r9
 1004698:	313ff81e 	bne	r6,r4,100467c <_ZNSt6locale5_Impl16_M_install_facetEPKNS_2idEPKNS_5facetE+0x220>
 100469c:	d8801317 	ldw	r2,76(sp)
 10046a0:	20800b2e 	bgeu	r4,r2,10046d0 <_ZNSt6locale5_Impl16_M_install_facetEPKNS_2idEPKNS_5facetE+0x274>
 10046a4:	d8c01117 	ldw	r3,68(sp)
 10046a8:	2105883a 	add	r2,r4,r4
 10046ac:	1085883a 	add	r2,r2,r2
 10046b0:	1885883a 	add	r2,r3,r2
 10046b4:	01400044 	movi	r5,1
 10046b8:	00c00104 	movi	r3,4
 10046bc:	d9801317 	ldw	r6,76(sp)
 10046c0:	2149883a 	add	r4,r4,r5
 10046c4:	10000015 	stw	zero,0(r2)
 10046c8:	10c5883a 	add	r2,r2,r3
 10046cc:	21bffb36 	bltu	r4,r6,10046bc <_ZNSt6locale5_Impl16_M_install_facetEPKNS_2idEPKNS_5facetE+0x260>
 10046d0:	da801a17 	ldw	r10,104(sp)
 10046d4:	008001c4 	movi	r2,7
 10046d8:	d9001917 	ldw	r4,100(sp)
 10046dc:	52800317 	ldw	r10,12(r10)
 10046e0:	d8800115 	stw	r2,4(sp)
 10046e4:	da801015 	stw	r10,64(sp)
 10046e8:	10368c00 	call	10368c0 <_Znam>
 10046ec:	100f883a 	mov	r7,r2
 10046f0:	d8801a17 	ldw	r2,104(sp)
 10046f4:	11000217 	ldw	r4,8(r2)
 10046f8:	20000d26 	beq	r4,zero,1004730 <_ZNSt6locale5_Impl16_M_install_facetEPKNS_2idEPKNS_5facetE+0x2d4>
 10046fc:	d9401a17 	ldw	r5,104(sp)
 1004700:	000d883a 	mov	r6,zero
 1004704:	02800044 	movi	r10,1
 1004708:	2a000317 	ldw	r8,12(r5)
 100470c:	02400104 	movi	r9,4
 1004710:	000b883a 	mov	r5,zero
 1004714:	2a05883a 	add	r2,r5,r8
 1004718:	10c00017 	ldw	r3,0(r2)
 100471c:	328d883a 	add	r6,r6,r10
 1004720:	29c5883a 	add	r2,r5,r7
 1004724:	10c00015 	stw	r3,0(r2)
 1004728:	2a4b883a 	add	r5,r5,r9
 100472c:	313ff91e 	bne	r6,r4,1004714 <_ZNSt6locale5_Impl16_M_install_facetEPKNS_2idEPKNS_5facetE+0x2b8>
 1004730:	d9801317 	ldw	r6,76(sp)
 1004734:	21800a2e 	bgeu	r4,r6,1004760 <_ZNSt6locale5_Impl16_M_install_facetEPKNS_2idEPKNS_5facetE+0x304>
 1004738:	2105883a 	add	r2,r4,r4
 100473c:	1085883a 	add	r2,r2,r2
 1004740:	3885883a 	add	r2,r7,r2
 1004744:	01400044 	movi	r5,1
 1004748:	00c00104 	movi	r3,4
 100474c:	da801317 	ldw	r10,76(sp)
 1004750:	2149883a 	add	r4,r4,r5
 1004754:	10000015 	stw	zero,0(r2)
 1004758:	10c5883a 	add	r2,r2,r3
 100475c:	22bffb36 	bltu	r4,r10,100474c <_ZNSt6locale5_Impl16_M_install_facetEPKNS_2idEPKNS_5facetE+0x2f0>
 1004760:	d8c01a17 	ldw	r3,104(sp)
 1004764:	d8801317 	ldw	r2,76(sp)
 1004768:	d9001117 	ldw	r4,68(sp)
 100476c:	d9401217 	ldw	r5,72(sp)
 1004770:	18800215 	stw	r2,8(r3)
 1004774:	19c00315 	stw	r7,12(r3)
 1004778:	19000115 	stw	r4,4(r3)
 100477c:	28000226 	beq	r5,zero,1004788 <_ZNSt6locale5_Impl16_M_install_facetEPKNS_2idEPKNS_5facetE+0x32c>
 1004780:	2809883a 	mov	r4,r5
 1004784:	1036b500 	call	1036b50 <_ZdaPv>
 1004788:	d9801017 	ldw	r6,64(sp)
 100478c:	303f5a26 	beq	r6,zero,10044f8 <_ZNSt6locale5_Impl16_M_install_facetEPKNS_2idEPKNS_5facetE+0x9c>
 1004790:	3009883a 	mov	r4,r6
 1004794:	1036b500 	call	1036b50 <_ZdaPv>
 1004798:	003f5706 	br	10044f8 <_ZNSt6locale5_Impl16_M_install_facetEPKNS_2idEPKNS_5facetE+0x9c>
 100479c:	d9001c17 	ldw	r4,112(sp)
 10047a0:	d8c01417 	ldw	r3,80(sp)
 10047a4:	19000015 	stw	r4,0(r3)
 10047a8:	003f6d06 	br	1004560 <_ZNSt6locale5_Impl16_M_install_facetEPKNS_2idEPKNS_5facetE+0x104>
 10047ac:	d9801717 	ldw	r6,92(sp)
 10047b0:	00c000c4 	movi	r3,3
 10047b4:	30800017 	ldw	r2,0(r6)
 10047b8:	3009883a 	mov	r4,r6
 10047bc:	11400117 	ldw	r5,4(r2)
 10047c0:	d8c00115 	stw	r3,4(sp)
 10047c4:	283ee83a 	callr	r5
 10047c8:	003f6206 	br	1004554 <_ZNSt6locale5_Impl16_M_install_facetEPKNS_2idEPKNS_5facetE+0xf8>
 10047cc:	d8c00e17 	ldw	r3,56(sp)
 10047d0:	18800017 	ldw	r2,0(r3)
 10047d4:	1809883a 	mov	r4,r3
 10047d8:	10c00117 	ldw	r3,4(r2)
 10047dc:	d9400115 	stw	r5,4(sp)
 10047e0:	183ee83a 	callr	r3
 10047e4:	003f7406 	br	10045b8 <_ZNSt6locale5_Impl16_M_install_facetEPKNS_2idEPKNS_5facetE+0x15c>
 10047e8:	d9000117 	ldw	r4,4(sp)
 10047ec:	d9400217 	ldw	r5,8(sp)
 10047f0:	00800044 	movi	r2,1
 10047f4:	d9001e15 	stw	r4,120(sp)
 10047f8:	d9401d15 	stw	r5,116(sp)
 10047fc:	d8c00317 	ldw	r3,12(sp)
 1004800:	20800f26 	beq	r4,r2,1004840 <_ZNSt6locale5_Impl16_M_install_facetEPKNS_2idEPKNS_5facetE+0x3e4>
 1004804:	00800084 	movi	r2,2
 1004808:	20802526 	beq	r4,r2,10048a0 <_ZNSt6locale5_Impl16_M_install_facetEPKNS_2idEPKNS_5facetE+0x444>
 100480c:	008000c4 	movi	r2,3
 1004810:	20800b26 	beq	r4,r2,1004840 <_ZNSt6locale5_Impl16_M_install_facetEPKNS_2idEPKNS_5facetE+0x3e4>
 1004814:	00800104 	movi	r2,4
 1004818:	20800926 	beq	r4,r2,1004840 <_ZNSt6locale5_Impl16_M_install_facetEPKNS_2idEPKNS_5facetE+0x3e4>
 100481c:	00800144 	movi	r2,5
 1004820:	20801926 	beq	r4,r2,1004888 <_ZNSt6locale5_Impl16_M_install_facetEPKNS_2idEPKNS_5facetE+0x42c>
 1004824:	00800184 	movi	r2,6
 1004828:	20800a26 	beq	r4,r2,1004854 <_ZNSt6locale5_Impl16_M_install_facetEPKNS_2idEPKNS_5facetE+0x3f8>
 100482c:	2809883a 	mov	r4,r5
 1004830:	1036a2c0 	call	1036a2c <__cxa_begin_catch>
 1004834:	d8000115 	stw	zero,4(sp)
 1004838:	10369880 	call	1036988 <__cxa_end_catch>
 100483c:	003f5e06 	br	10045b8 <_ZNSt6locale5_Impl16_M_install_facetEPKNS_2idEPKNS_5facetE+0x15c>
 1004840:	00bfffc4 	movi	r2,-1
 1004844:	18800c26 	beq	r3,r2,1004878 <_ZNSt6locale5_Impl16_M_install_facetEPKNS_2idEPKNS_5facetE+0x41c>
 1004848:	d9001d17 	ldw	r4,116(sp)
 100484c:	d8800115 	stw	r2,4(sp)
 1004850:	10426f00 	call	10426f0 <_Unwind_SjLj_Resume>
 1004854:	d9001d17 	ldw	r4,116(sp)
 1004858:	1036a2c0 	call	1036a2c <__cxa_begin_catch>
 100485c:	d8c01817 	ldw	r3,96(sp)
 1004860:	18000226 	beq	r3,zero,100486c <_ZNSt6locale5_Impl16_M_install_facetEPKNS_2idEPKNS_5facetE+0x410>
 1004864:	d9001117 	ldw	r4,68(sp)
 1004868:	1036b500 	call	1036b50 <_ZdaPv>
 100486c:	d9001e17 	ldw	r4,120(sp)
 1004870:	d9000115 	stw	r4,4(sp)
 1004874:	1035f280 	call	1035f28 <__cxa_rethrow>
 1004878:	d9001d17 	ldw	r4,116(sp)
 100487c:	00bfffc4 	movi	r2,-1
 1004880:	d8800115 	stw	r2,4(sp)
 1004884:	10371380 	call	1037138 <__cxa_call_unexpected>
 1004888:	d8000115 	stw	zero,4(sp)
 100488c:	10369880 	call	1036988 <__cxa_end_catch>
 1004890:	d9001d17 	ldw	r4,116(sp)
 1004894:	00bfffc4 	movi	r2,-1
 1004898:	d8800115 	stw	r2,4(sp)
 100489c:	10426f00 	call	10426f0 <_Unwind_SjLj_Resume>
 10048a0:	d9001d17 	ldw	r4,116(sp)
 10048a4:	1036a2c0 	call	1036a2c <__cxa_begin_catch>
 10048a8:	d8000115 	stw	zero,4(sp)
 10048ac:	10369880 	call	1036988 <__cxa_end_catch>
 10048b0:	003f2806 	br	1004554 <_ZNSt6locale5_Impl16_M_install_facetEPKNS_2idEPKNS_5facetE+0xf8>

010048b4 <_ZNSt6locale5_Impl16_M_replace_facetEPKS0_PKNS_2idE>:
 10048b4:	defffc04 	addi	sp,sp,-16
 10048b8:	dc800215 	stw	r18,8(sp)
 10048bc:	2025883a 	mov	r18,r4
 10048c0:	3009883a 	mov	r4,r6
 10048c4:	dc400115 	stw	r17,4(sp)
 10048c8:	dc000015 	stw	r16,0(sp)
 10048cc:	dfc00315 	stw	ra,12(sp)
 10048d0:	2821883a 	mov	r16,r5
 10048d4:	3023883a 	mov	r17,r6
 10048d8:	1002ba40 	call	1002ba4 <_ZNKSt6locale2id5_M_idEv>
 10048dc:	1009883a 	mov	r4,r2
 10048e0:	80800217 	ldw	r2,8(r16)
 10048e4:	10bfffc4 	addi	r2,r2,-1
 10048e8:	11000e36 	bltu	r2,r4,1004924 <_ZNSt6locale5_Impl16_M_replace_facetEPKS0_PKNS_2idE+0x70>
 10048ec:	80c00117 	ldw	r3,4(r16)
 10048f0:	2105883a 	add	r2,r4,r4
 10048f4:	1085883a 	add	r2,r2,r2
 10048f8:	10c5883a 	add	r2,r2,r3
 10048fc:	11800017 	ldw	r6,0(r2)
 1004900:	30000826 	beq	r6,zero,1004924 <_ZNSt6locale5_Impl16_M_replace_facetEPKS0_PKNS_2idE+0x70>
 1004904:	9009883a 	mov	r4,r18
 1004908:	880b883a 	mov	r5,r17
 100490c:	dfc00317 	ldw	ra,12(sp)
 1004910:	dc800217 	ldw	r18,8(sp)
 1004914:	dc400117 	ldw	r17,4(sp)
 1004918:	dc000017 	ldw	r16,0(sp)
 100491c:	dec00404 	addi	sp,sp,16
 1004920:	100445c1 	jmpi	100445c <_ZNSt6locale5_Impl16_M_install_facetEPKNS_2idEPKNS_5facetE>
 1004924:	010041b4 	movhi	r4,262
 1004928:	21248304 	addi	r4,r4,-28148
 100492c:	1039c100 	call	1039c10 <_ZSt21__throw_runtime_errorPKc>

01004930 <_ZNSt6locale5_Impl19_M_replace_categoryEPKS0_PKPKNS_2idE>:
 1004930:	defffc04 	addi	sp,sp,-16
 1004934:	dc000015 	stw	r16,0(sp)
 1004938:	3021883a 	mov	r16,r6
 100493c:	31800017 	ldw	r6,0(r6)
 1004940:	dc800215 	stw	r18,8(sp)
 1004944:	dc400115 	stw	r17,4(sp)
 1004948:	dfc00315 	stw	ra,12(sp)
 100494c:	2025883a 	mov	r18,r4
 1004950:	2823883a 	mov	r17,r5
 1004954:	30000626 	beq	r6,zero,1004970 <_ZNSt6locale5_Impl19_M_replace_categoryEPKS0_PKPKNS_2idE+0x40>
 1004958:	84000104 	addi	r16,r16,4
 100495c:	9009883a 	mov	r4,r18
 1004960:	880b883a 	mov	r5,r17
 1004964:	10048b40 	call	10048b4 <_ZNSt6locale5_Impl16_M_replace_facetEPKS0_PKNS_2idE>
 1004968:	81800017 	ldw	r6,0(r16)
 100496c:	303ffa1e 	bne	r6,zero,1004958 <_ZNSt6locale5_Impl19_M_replace_categoryEPKS0_PKPKNS_2idE+0x28>
 1004970:	dfc00317 	ldw	ra,12(sp)
 1004974:	dc800217 	ldw	r18,8(sp)
 1004978:	dc400117 	ldw	r17,4(sp)
 100497c:	dc000017 	ldw	r16,0(sp)
 1004980:	dec00404 	addi	sp,sp,16
 1004984:	f800283a 	ret

01004988 <_ZNSt6locale5_ImplC2Em>:
 1004988:	deffe804 	addi	sp,sp,-96
 100498c:	008040f4 	movhi	r2,259
 1004990:	109cae04 	addi	r2,r2,29368
 1004994:	00c04174 	movhi	r3,261
 1004998:	18dfff04 	addi	r3,r3,32764
 100499c:	d8800615 	stw	r2,24(sp)
 10049a0:	d9001115 	stw	r4,68(sp)
 10049a4:	00804034 	movhi	r2,256
 10049a8:	10941c04 	addi	r2,r2,20592
 10049ac:	d809883a 	mov	r4,sp
 10049b0:	d8c00715 	stw	r3,28(sp)
 10049b4:	d8800915 	stw	r2,36(sp)
 10049b8:	d9401215 	stw	r5,72(sp)
 10049bc:	dfc01715 	stw	ra,92(sp)
 10049c0:	df001615 	stw	fp,88(sp)
 10049c4:	ddc01515 	stw	r23,84(sp)
 10049c8:	dec00815 	stw	sp,32(sp)
 10049cc:	dec00a15 	stw	sp,40(sp)
 10049d0:	10424240 	call	1042424 <_Unwind_SjLj_Register>
 10049d4:	d9401117 	ldw	r5,68(sp)
 10049d8:	d9801217 	ldw	r6,72(sp)
 10049dc:	008041b4 	movhi	r2,262
 10049e0:	10be7304 	addi	r2,r2,-1588
 10049e4:	00c041b4 	movhi	r3,262
 10049e8:	18fe8104 	addi	r3,r3,-1532
 10049ec:	01000384 	movi	r4,14
 10049f0:	29800015 	stw	r6,0(r5)
 10049f4:	29000215 	stw	r4,8(r5)
 10049f8:	28000415 	stw	zero,16(r5)
 10049fc:	28800115 	stw	r2,4(r5)
 1004a00:	28c00315 	stw	r3,12(r5)
 1004a04:	1013883a 	mov	r9,r2
 1004a08:	1811883a 	mov	r8,r3
 1004a0c:	000d883a 	mov	r6,zero
 1004a10:	000b883a 	mov	r5,zero
 1004a14:	01c00044 	movi	r7,1
 1004a18:	2a05883a 	add	r2,r5,r8
 1004a1c:	2a47883a 	add	r3,r5,r9
 1004a20:	10000015 	stw	zero,0(r2)
 1004a24:	31cd883a 	add	r6,r6,r7
 1004a28:	18000015 	stw	zero,0(r3)
 1004a2c:	29400104 	addi	r5,r5,4
 1004a30:	313ff936 	bltu	r6,r4,1004a18 <_ZNSt6locale5_ImplC2Em+0x90>
 1004a34:	d9401117 	ldw	r5,68(sp)
 1004a38:	00c041b4 	movhi	r3,262
 1004a3c:	18fe6a04 	addi	r3,r3,-1624
 1004a40:	008041b4 	movhi	r2,262
 1004a44:	10be7004 	addi	r2,r2,-1600
 1004a48:	18800015 	stw	r2,0(r3)
 1004a4c:	28c00415 	stw	r3,16(r5)
 1004a50:	00800244 	movi	r2,9
 1004a54:	d8800115 	stw	r2,4(sp)
 1004a58:	1002b9c0 	call	1002b9c <_ZNSt6locale5facet13_S_get_c_nameEv>
 1004a5c:	11000003 	ldbu	r4,0(r2)
 1004a60:	018041b4 	movhi	r6,262
 1004a64:	31be7004 	addi	r6,r6,-1600
 1004a68:	01400104 	movi	r5,4
 1004a6c:	31000005 	stb	r4,0(r6)
 1004a70:	10c00043 	ldbu	r3,1(r2)
 1004a74:	01000604 	movi	r4,24
 1004a78:	30c00045 	stb	r3,1(r6)
 1004a7c:	d8801117 	ldw	r2,68(sp)
 1004a80:	10c00417 	ldw	r3,16(r2)
 1004a84:	28c5883a 	add	r2,r5,r3
 1004a88:	29400104 	addi	r5,r5,4
 1004a8c:	10000015 	stw	zero,0(r2)
 1004a90:	293ffc1e 	bne	r5,r4,1004a84 <_ZNSt6locale5_ImplC2Em+0xfc>
 1004a94:	00800204 	movi	r2,8
 1004a98:	d8800115 	stw	r2,4(sp)
 1004a9c:	010041b4 	movhi	r4,262
 1004aa0:	213e8f04 	addi	r4,r4,-1476
 1004aa4:	000b883a 	mov	r5,zero
 1004aa8:	000d883a 	mov	r6,zero
 1004aac:	01c00044 	movi	r7,1
 1004ab0:	1038d280 	call	1038d28 <_ZNSt5ctypeIcEC1EPKcbm>
 1004ab4:	00c00244 	movi	r3,9
 1004ab8:	d8c00115 	stw	r3,4(sp)
 1004abc:	018041b4 	movhi	r6,262
 1004ac0:	31be8f04 	addi	r6,r6,-1476
 1004ac4:	d9001117 	ldw	r4,68(sp)
 1004ac8:	014041b4 	movhi	r5,262
 1004acc:	297c3c04 	addi	r5,r5,-3856
 1004ad0:	100445c0 	call	100445c <_ZNSt6locale5_Impl16_M_install_facetEPKNS_2idEPKNS_5facetE>
 1004ad4:	008001c4 	movi	r2,7
 1004ad8:	d8800115 	stw	r2,4(sp)
 1004adc:	010041b4 	movhi	r4,262
 1004ae0:	213f1d04 	addi	r4,r4,-908
 1004ae4:	01400044 	movi	r5,1
 1004ae8:	10384100 	call	1038410 <_ZNSt7codecvtIcc10_mbstate_tEC1Em>
 1004aec:	01400244 	movi	r5,9
 1004af0:	d9400115 	stw	r5,4(sp)
 1004af4:	018041b4 	movhi	r6,262
 1004af8:	31bf1d04 	addi	r6,r6,-908
 1004afc:	d9001117 	ldw	r4,68(sp)
 1004b00:	014041b4 	movhi	r5,262
 1004b04:	297c3b04 	addi	r5,r5,-3860
 1004b08:	100445c0 	call	100445c <_ZNSt6locale5_Impl16_M_install_facetEPKNS_2idEPKNS_5facetE>
 1004b0c:	008041b4 	movhi	r2,262
 1004b10:	10bf2f04 	addi	r2,r2,-836
 1004b14:	00c041b4 	movhi	r3,262
 1004b18:	18e53e04 	addi	r3,r3,-27400
 1004b1c:	010041b4 	movhi	r4,262
 1004b20:	213f1a04 	addi	r4,r4,-920
 1004b24:	10c00015 	stw	r3,0(r2)
 1004b28:	01800044 	movi	r6,1
 1004b2c:	00c041b4 	movhi	r3,262
 1004b30:	18e5fb04 	addi	r3,r3,-26644
 1004b34:	20800215 	stw	r2,8(r4)
 1004b38:	11800115 	stw	r6,4(r2)
 1004b3c:	10000215 	stw	zero,8(r2)
 1004b40:	10000315 	stw	zero,12(r2)
 1004b44:	10000405 	stb	zero,16(r2)
 1004b48:	10000515 	stw	zero,20(r2)
 1004b4c:	10000615 	stw	zero,24(r2)
 1004b50:	10000715 	stw	zero,28(r2)
 1004b54:	10000815 	stw	zero,32(r2)
 1004b58:	10000905 	stb	zero,36(r2)
 1004b5c:	10000945 	stb	zero,37(r2)
 1004b60:	10001905 	stb	zero,100(r2)
 1004b64:	21800115 	stw	r6,4(r4)
 1004b68:	20c00015 	stw	r3,0(r4)
 1004b6c:	00800104 	movi	r2,4
 1004b70:	d8800115 	stw	r2,4(sp)
 1004b74:	000b883a 	mov	r5,zero
 1004b78:	10350840 	call	1035084 <_ZNSt8numpunctIcE22_M_initialize_numpunctEPi>
 1004b7c:	00c00244 	movi	r3,9
 1004b80:	d8c00115 	stw	r3,4(sp)
 1004b84:	d9001117 	ldw	r4,68(sp)
 1004b88:	014041b4 	movhi	r5,262
 1004b8c:	297c1604 	addi	r5,r5,-4008
 1004b90:	018041b4 	movhi	r6,262
 1004b94:	31bf1a04 	addi	r6,r6,-920
 1004b98:	100445c0 	call	100445c <_ZNSt6locale5_Impl16_M_install_facetEPKNS_2idEPKNS_5facetE>
 1004b9c:	018041b4 	movhi	r6,262
 1004ba0:	31bc3e04 	addi	r6,r6,-3848
 1004ba4:	01400044 	movi	r5,1
 1004ba8:	008041b4 	movhi	r2,262
 1004bac:	10a58d04 	addi	r2,r2,-27084
 1004bb0:	31400115 	stw	r5,4(r6)
 1004bb4:	30800015 	stw	r2,0(r6)
 1004bb8:	d9001117 	ldw	r4,68(sp)
 1004bbc:	014041b4 	movhi	r5,262
 1004bc0:	297c1704 	addi	r5,r5,-4004
 1004bc4:	100445c0 	call	100445c <_ZNSt6locale5_Impl16_M_install_facetEPKNS_2idEPKNS_5facetE>
 1004bc8:	018041b4 	movhi	r6,262
 1004bcc:	31bc4004 	addi	r6,r6,-3840
 1004bd0:	008041b4 	movhi	r2,262
 1004bd4:	10a58104 	addi	r2,r2,-27132
 1004bd8:	30800015 	stw	r2,0(r6)
 1004bdc:	00800044 	movi	r2,1
 1004be0:	30800115 	stw	r2,4(r6)
 1004be4:	d9001117 	ldw	r4,68(sp)
 1004be8:	014041b4 	movhi	r5,262
 1004bec:	297c1804 	addi	r5,r5,-4000
 1004bf0:	100445c0 	call	100445c <_ZNSt6locale5_Impl16_M_install_facetEPKNS_2idEPKNS_5facetE>
 1004bf4:	00c041b4 	movhi	r3,262
 1004bf8:	18ff1704 	addi	r3,r3,-932
 1004bfc:	01400044 	movi	r5,1
 1004c00:	008041b4 	movhi	r2,262
 1004c04:	10a5f404 	addi	r2,r2,-26672
 1004c08:	19400115 	stw	r5,4(r3)
 1004c0c:	18800015 	stw	r2,0(r3)
 1004c10:	00c000c4 	movi	r3,3
 1004c14:	d8c00115 	stw	r3,4(sp)
 1004c18:	1002ccc0 	call	1002ccc <_ZNSt6locale5facet15_S_get_c_localeEv>
 1004c1c:	018041b4 	movhi	r6,262
 1004c20:	31bf1704 	addi	r6,r6,-932
 1004c24:	30800215 	stw	r2,8(r6)
 1004c28:	00800244 	movi	r2,9
 1004c2c:	d8800115 	stw	r2,4(sp)
 1004c30:	d9001117 	ldw	r4,68(sp)
 1004c34:	014041b4 	movhi	r5,262
 1004c38:	297c1d04 	addi	r5,r5,-3980
 1004c3c:	100445c0 	call	100445c <_ZNSt6locale5_Impl16_M_install_facetEPKNS_2idEPKNS_5facetE>
 1004c40:	008041b4 	movhi	r2,262
 1004c44:	10bf5a04 	addi	r2,r2,-664
 1004c48:	00c041b4 	movhi	r3,262
 1004c4c:	18e54604 	addi	r3,r3,-27368
 1004c50:	010041b4 	movhi	r4,262
 1004c54:	213f2304 	addi	r4,r4,-884
 1004c58:	01400044 	movi	r5,1
 1004c5c:	10c00015 	stw	r3,0(r2)
 1004c60:	00c041b4 	movhi	r3,262
 1004c64:	18e5d204 	addi	r3,r3,-26808
 1004c68:	21400115 	stw	r5,4(r4)
 1004c6c:	20c00015 	stw	r3,0(r4)
 1004c70:	11400115 	stw	r5,4(r2)
 1004c74:	20800215 	stw	r2,8(r4)
 1004c78:	10000215 	stw	zero,8(r2)
 1004c7c:	10000315 	stw	zero,12(r2)
 1004c80:	10000405 	stb	zero,16(r2)
 1004c84:	10000445 	stb	zero,17(r2)
 1004c88:	10000485 	stb	zero,18(r2)
 1004c8c:	10000515 	stw	zero,20(r2)
 1004c90:	10000615 	stw	zero,24(r2)
 1004c94:	10000715 	stw	zero,28(r2)
 1004c98:	10000815 	stw	zero,32(r2)
 1004c9c:	10000915 	stw	zero,36(r2)
 1004ca0:	10000a15 	stw	zero,40(r2)
 1004ca4:	10000b15 	stw	zero,44(r2)
 1004ca8:	10000c15 	stw	zero,48(r2)
 1004cac:	10000d15 	stw	zero,52(r2)
 1004cb0:	100010c5 	stb	zero,67(r2)
 1004cb4:	00c00084 	movi	r3,2
 1004cb8:	d8c00115 	stw	r3,4(sp)
 1004cbc:	000b883a 	mov	r5,zero
 1004cc0:	000d883a 	mov	r6,zero
 1004cc4:	1034bb40 	call	1034bb4 <_ZNSt10moneypunctIcLb0EE24_M_initialize_moneypunctEPiPKc>
 1004cc8:	00800244 	movi	r2,9
 1004ccc:	d8800115 	stw	r2,4(sp)
 1004cd0:	d9001117 	ldw	r4,68(sp)
 1004cd4:	014041b4 	movhi	r5,262
 1004cd8:	297c1204 	addi	r5,r5,-4024
 1004cdc:	018041b4 	movhi	r6,262
 1004ce0:	31bf2304 	addi	r6,r6,-884
 1004ce4:	100445c0 	call	100445c <_ZNSt6locale5_Impl16_M_install_facetEPKNS_2idEPKNS_5facetE>
 1004ce8:	008041b4 	movhi	r2,262
 1004cec:	10bf4904 	addi	r2,r2,-732
 1004cf0:	01800044 	movi	r6,1
 1004cf4:	010041b4 	movhi	r4,262
 1004cf8:	213f2004 	addi	r4,r4,-896
 1004cfc:	014041b4 	movhi	r5,262
 1004d00:	2965df04 	addi	r5,r5,-26756
 1004d04:	00c041b4 	movhi	r3,262
 1004d08:	18e54204 	addi	r3,r3,-27384
 1004d0c:	21400015 	stw	r5,0(r4)
 1004d10:	11800115 	stw	r6,4(r2)
 1004d14:	21800115 	stw	r6,4(r4)
 1004d18:	10c00015 	stw	r3,0(r2)
 1004d1c:	20800215 	stw	r2,8(r4)
 1004d20:	10000215 	stw	zero,8(r2)
 1004d24:	10000315 	stw	zero,12(r2)
 1004d28:	10000405 	stb	zero,16(r2)
 1004d2c:	10000445 	stb	zero,17(r2)
 1004d30:	10000485 	stb	zero,18(r2)
 1004d34:	10000515 	stw	zero,20(r2)
 1004d38:	10000615 	stw	zero,24(r2)
 1004d3c:	10000715 	stw	zero,28(r2)
 1004d40:	10000815 	stw	zero,32(r2)
 1004d44:	10000915 	stw	zero,36(r2)
 1004d48:	10000a15 	stw	zero,40(r2)
 1004d4c:	10000b15 	stw	zero,44(r2)
 1004d50:	10000c15 	stw	zero,48(r2)
 1004d54:	10000d15 	stw	zero,52(r2)
 1004d58:	100010c5 	stb	zero,67(r2)
 1004d5c:	d9800115 	stw	r6,4(sp)
 1004d60:	000b883a 	mov	r5,zero
 1004d64:	000d883a 	mov	r6,zero
 1004d68:	1034cec0 	call	1034cec <_ZNSt10moneypunctIcLb1EE24_M_initialize_moneypunctEPiPKc>
 1004d6c:	00800244 	movi	r2,9
 1004d70:	d8800115 	stw	r2,4(sp)
 1004d74:	d9001117 	ldw	r4,68(sp)
 1004d78:	014041b4 	movhi	r5,262
 1004d7c:	297c1304 	addi	r5,r5,-4020
 1004d80:	018041b4 	movhi	r6,262
 1004d84:	31bf2004 	addi	r6,r6,-896
 1004d88:	100445c0 	call	100445c <_ZNSt6locale5_Impl16_M_install_facetEPKNS_2idEPKNS_5facetE>
 1004d8c:	018041b4 	movhi	r6,262
 1004d90:	31bc4204 	addi	r6,r6,-3832
 1004d94:	008041b4 	movhi	r2,262
 1004d98:	10a5ab04 	addi	r2,r2,-26964
 1004d9c:	00c00044 	movi	r3,1
 1004da0:	30800015 	stw	r2,0(r6)
 1004da4:	30c00115 	stw	r3,4(r6)
 1004da8:	d9001117 	ldw	r4,68(sp)
 1004dac:	014041b4 	movhi	r5,262
 1004db0:	297c1404 	addi	r5,r5,-4016
 1004db4:	100445c0 	call	100445c <_ZNSt6locale5_Impl16_M_install_facetEPKNS_2idEPKNS_5facetE>
 1004db8:	018041b4 	movhi	r6,262
 1004dbc:	31bc4404 	addi	r6,r6,-3824
 1004dc0:	01400044 	movi	r5,1
 1004dc4:	008041b4 	movhi	r2,262
 1004dc8:	10a5a504 	addi	r2,r2,-26988
 1004dcc:	31400115 	stw	r5,4(r6)
 1004dd0:	30800015 	stw	r2,0(r6)
 1004dd4:	d9001117 	ldw	r4,68(sp)
 1004dd8:	014041b4 	movhi	r5,262
 1004ddc:	297c1504 	addi	r5,r5,-4012
 1004de0:	100445c0 	call	100445c <_ZNSt6locale5_Impl16_M_install_facetEPKNS_2idEPKNS_5facetE>
 1004de4:	014041b4 	movhi	r5,262
 1004de8:	297f6b04 	addi	r5,r5,-596
 1004dec:	008041b4 	movhi	r2,262
 1004df0:	10a5f004 	addi	r2,r2,-26688
 1004df4:	01800044 	movi	r6,1
 1004df8:	28800015 	stw	r2,0(r5)
 1004dfc:	29800115 	stw	r6,4(r5)
 1004e00:	28000215 	stw	zero,8(r5)
 1004e04:	28000315 	stw	zero,12(r5)
 1004e08:	28000415 	stw	zero,16(r5)
 1004e0c:	28000515 	stw	zero,20(r5)
 1004e10:	28000615 	stw	zero,24(r5)
 1004e14:	28000715 	stw	zero,28(r5)
 1004e18:	28000815 	stw	zero,32(r5)
 1004e1c:	28000915 	stw	zero,36(r5)
 1004e20:	28000a15 	stw	zero,40(r5)
 1004e24:	28000b15 	stw	zero,44(r5)
 1004e28:	28000c15 	stw	zero,48(r5)
 1004e2c:	28000d15 	stw	zero,52(r5)
 1004e30:	28000e15 	stw	zero,56(r5)
 1004e34:	28000f15 	stw	zero,60(r5)
 1004e38:	28001015 	stw	zero,64(r5)
 1004e3c:	28001115 	stw	zero,68(r5)
 1004e40:	28001215 	stw	zero,72(r5)
 1004e44:	28001315 	stw	zero,76(r5)
 1004e48:	28001415 	stw	zero,80(r5)
 1004e4c:	28001515 	stw	zero,84(r5)
 1004e50:	28001615 	stw	zero,88(r5)
 1004e54:	28001715 	stw	zero,92(r5)
 1004e58:	28001815 	stw	zero,96(r5)
 1004e5c:	28001915 	stw	zero,100(r5)
 1004e60:	28001a15 	stw	zero,104(r5)
 1004e64:	28001b15 	stw	zero,108(r5)
 1004e68:	28001c15 	stw	zero,112(r5)
 1004e6c:	28001d15 	stw	zero,116(r5)
 1004e70:	28001e15 	stw	zero,120(r5)
 1004e74:	28001f15 	stw	zero,124(r5)
 1004e78:	28002015 	stw	zero,128(r5)
 1004e7c:	28002115 	stw	zero,132(r5)
 1004e80:	00800184 	movi	r2,6
 1004e84:	28002215 	stw	zero,136(r5)
 1004e88:	28002315 	stw	zero,140(r5)
 1004e8c:	28002415 	stw	zero,144(r5)
 1004e90:	28002515 	stw	zero,148(r5)
 1004e94:	28002615 	stw	zero,152(r5)
 1004e98:	28002715 	stw	zero,156(r5)
 1004e9c:	28002815 	stw	zero,160(r5)
 1004ea0:	28002915 	stw	zero,164(r5)
 1004ea4:	28002a15 	stw	zero,168(r5)
 1004ea8:	28002b15 	stw	zero,172(r5)
 1004eac:	28002c15 	stw	zero,176(r5)
 1004eb0:	28002d15 	stw	zero,180(r5)
 1004eb4:	28002e15 	stw	zero,184(r5)
 1004eb8:	28002f15 	stw	zero,188(r5)
 1004ebc:	28003015 	stw	zero,192(r5)
 1004ec0:	28003105 	stb	zero,196(r5)
 1004ec4:	d8800115 	stw	r2,4(sp)
 1004ec8:	010041b4 	movhi	r4,262
 1004ecc:	213f2604 	addi	r4,r4,-872
 1004ed0:	1011d0c0 	call	1011d0c <_ZNSt11__timepunctIcEC1EPSt17__timepunct_cacheIcEm>
 1004ed4:	00800244 	movi	r2,9
 1004ed8:	d8800115 	stw	r2,4(sp)
 1004edc:	018041b4 	movhi	r6,262
 1004ee0:	31bf2604 	addi	r6,r6,-872
 1004ee4:	d9001117 	ldw	r4,68(sp)
 1004ee8:	014041b4 	movhi	r5,262
 1004eec:	297c1904 	addi	r5,r5,-3996
 1004ef0:	100445c0 	call	100445c <_ZNSt6locale5_Impl16_M_install_facetEPKNS_2idEPKNS_5facetE>
 1004ef4:	018041b4 	movhi	r6,262
 1004ef8:	31bc4604 	addi	r6,r6,-3816
 1004efc:	008041b4 	movhi	r2,262
 1004f00:	10a56d04 	addi	r2,r2,-27212
 1004f04:	00c00044 	movi	r3,1
 1004f08:	30800015 	stw	r2,0(r6)
 1004f0c:	30c00115 	stw	r3,4(r6)
 1004f10:	d9001117 	ldw	r4,68(sp)
 1004f14:	014041b4 	movhi	r5,262
 1004f18:	297c1b04 	addi	r5,r5,-3988
 1004f1c:	100445c0 	call	100445c <_ZNSt6locale5_Impl16_M_install_facetEPKNS_2idEPKNS_5facetE>
 1004f20:	018041b4 	movhi	r6,262
 1004f24:	31bc4804 	addi	r6,r6,-3808
 1004f28:	01400044 	movi	r5,1
 1004f2c:	008041b4 	movhi	r2,262
 1004f30:	10a57c04 	addi	r2,r2,-27152
 1004f34:	31400115 	stw	r5,4(r6)
 1004f38:	30800015 	stw	r2,0(r6)
 1004f3c:	d9001117 	ldw	r4,68(sp)
 1004f40:	014041b4 	movhi	r5,262
 1004f44:	297c1a04 	addi	r5,r5,-3992
 1004f48:	100445c0 	call	100445c <_ZNSt6locale5_Impl16_M_install_facetEPKNS_2idEPKNS_5facetE>
 1004f4c:	00800144 	movi	r2,5
 1004f50:	d8800115 	stw	r2,4(sp)
 1004f54:	01400044 	movi	r5,1
 1004f58:	010041b4 	movhi	r4,262
 1004f5c:	213f2b04 	addi	r4,r4,-852
 1004f60:	10136500 	call	1013650 <_ZNSt8messagesIcEC1Em>
 1004f64:	01800244 	movi	r6,9
 1004f68:	d9800115 	stw	r6,4(sp)
 1004f6c:	d9001117 	ldw	r4,68(sp)
 1004f70:	018041b4 	movhi	r6,262
 1004f74:	31bf2b04 	addi	r6,r6,-852
 1004f78:	014041b4 	movhi	r5,262
 1004f7c:	297c1c04 	addi	r5,r5,-3984
 1004f80:	100445c0 	call	100445c <_ZNSt6locale5_Impl16_M_install_facetEPKNS_2idEPKNS_5facetE>
 1004f84:	d8801117 	ldw	r2,68(sp)
 1004f88:	010041b4 	movhi	r4,262
 1004f8c:	213c1604 	addi	r4,r4,-4008
 1004f90:	10800317 	ldw	r2,12(r2)
 1004f94:	d8801015 	stw	r2,64(sp)
 1004f98:	1002ba40 	call	1002ba4 <_ZNKSt6locale2id5_M_idEv>
 1004f9c:	d9401117 	ldw	r5,68(sp)
 1004fa0:	d8c01017 	ldw	r3,64(sp)
 1004fa4:	1085883a 	add	r2,r2,r2
 1004fa8:	1085883a 	add	r2,r2,r2
 1004fac:	29400317 	ldw	r5,12(r5)
 1004fb0:	10c5883a 	add	r2,r2,r3
 1004fb4:	00c041b4 	movhi	r3,262
 1004fb8:	18ff2f04 	addi	r3,r3,-836
 1004fbc:	10c00015 	stw	r3,0(r2)
 1004fc0:	d9400f15 	stw	r5,60(sp)
 1004fc4:	010041b4 	movhi	r4,262
 1004fc8:	213c1204 	addi	r4,r4,-4024
 1004fcc:	1002ba40 	call	1002ba4 <_ZNKSt6locale2id5_M_idEv>
 1004fd0:	d9800f17 	ldw	r6,60(sp)
 1004fd4:	1085883a 	add	r2,r2,r2
 1004fd8:	1085883a 	add	r2,r2,r2
 1004fdc:	1185883a 	add	r2,r2,r6
 1004fe0:	00c041b4 	movhi	r3,262
 1004fe4:	18ff5a04 	addi	r3,r3,-664
 1004fe8:	10c00015 	stw	r3,0(r2)
 1004fec:	d8801117 	ldw	r2,68(sp)
 1004ff0:	010041b4 	movhi	r4,262
 1004ff4:	213c1304 	addi	r4,r4,-4020
 1004ff8:	10800317 	ldw	r2,12(r2)
 1004ffc:	d8800e15 	stw	r2,56(sp)
 1005000:	1002ba40 	call	1002ba4 <_ZNKSt6locale2id5_M_idEv>
 1005004:	d9401117 	ldw	r5,68(sp)
 1005008:	d8c00e17 	ldw	r3,56(sp)
 100500c:	1085883a 	add	r2,r2,r2
 1005010:	1085883a 	add	r2,r2,r2
 1005014:	29400317 	ldw	r5,12(r5)
 1005018:	10c5883a 	add	r2,r2,r3
 100501c:	00c041b4 	movhi	r3,262
 1005020:	18ff4904 	addi	r3,r3,-732
 1005024:	10c00015 	stw	r3,0(r2)
 1005028:	d9400d15 	stw	r5,52(sp)
 100502c:	010041b4 	movhi	r4,262
 1005030:	213c1904 	addi	r4,r4,-3996
 1005034:	1002ba40 	call	1002ba4 <_ZNKSt6locale2id5_M_idEv>
 1005038:	d8c00d17 	ldw	r3,52(sp)
 100503c:	1085883a 	add	r2,r2,r2
 1005040:	1085883a 	add	r2,r2,r2
 1005044:	10c5883a 	add	r2,r2,r3
 1005048:	00c041b4 	movhi	r3,262
 100504c:	18ff6b04 	addi	r3,r3,-596
 1005050:	10c00015 	stw	r3,0(r2)
 1005054:	d809883a 	mov	r4,sp
 1005058:	10424340 	call	1042434 <_Unwind_SjLj_Unregister>
 100505c:	dfc01717 	ldw	ra,92(sp)
 1005060:	df001617 	ldw	fp,88(sp)
 1005064:	ddc01517 	ldw	r23,84(sp)
 1005068:	dec01804 	addi	sp,sp,96
 100506c:	f800283a 	ret
 1005070:	d9400217 	ldw	r5,8(sp)
 1005074:	d9800317 	ldw	r6,12(sp)
 1005078:	d8c00117 	ldw	r3,4(sp)
 100507c:	00800044 	movi	r2,1
 1005080:	d9401415 	stw	r5,80(sp)
 1005084:	d9801315 	stw	r6,76(sp)
 1005088:	18802626 	beq	r3,r2,1005124 <_ZNSt6locale5_ImplC2Em+0x79c>
 100508c:	00800084 	movi	r2,2
 1005090:	18801f26 	beq	r3,r2,1005110 <_ZNSt6locale5_ImplC2Em+0x788>
 1005094:	008000c4 	movi	r2,3
 1005098:	18801426 	beq	r3,r2,10050ec <_ZNSt6locale5_ImplC2Em+0x764>
 100509c:	00800104 	movi	r2,4
 10050a0:	18800c26 	beq	r3,r2,10050d4 <_ZNSt6locale5_ImplC2Em+0x74c>
 10050a4:	00800144 	movi	r2,5
 10050a8:	18800a26 	beq	r3,r2,10050d4 <_ZNSt6locale5_ImplC2Em+0x74c>
 10050ac:	00800184 	movi	r2,6
 10050b0:	18800826 	beq	r3,r2,10050d4 <_ZNSt6locale5_ImplC2Em+0x74c>
 10050b4:	008001c4 	movi	r2,7
 10050b8:	18800626 	beq	r3,r2,10050d4 <_ZNSt6locale5_ImplC2Em+0x74c>
 10050bc:	00800204 	movi	r2,8
 10050c0:	18800426 	beq	r3,r2,10050d4 <_ZNSt6locale5_ImplC2Em+0x74c>
 10050c4:	010041b4 	movhi	r4,262
 10050c8:	213f2004 	addi	r4,r4,-896
 10050cc:	d8000115 	stw	zero,4(sp)
 10050d0:	1002cac0 	call	1002cac <_ZNSt6locale5facetD2Ev>
 10050d4:	d9801317 	ldw	r6,76(sp)
 10050d8:	00bfffc4 	movi	r2,-1
 10050dc:	30800826 	beq	r6,r2,1005100 <_ZNSt6locale5_ImplC2Em+0x778>
 10050e0:	d9001417 	ldw	r4,80(sp)
 10050e4:	d8800115 	stw	r2,4(sp)
 10050e8:	10426f00 	call	10426f0 <_Unwind_SjLj_Resume>
 10050ec:	010041b4 	movhi	r4,262
 10050f0:	213f1a04 	addi	r4,r4,-920
 10050f4:	d8000115 	stw	zero,4(sp)
 10050f8:	1002cac0 	call	1002cac <_ZNSt6locale5facetD2Ev>
 10050fc:	003ff506 	br	10050d4 <_ZNSt6locale5_ImplC2Em+0x74c>
 1005100:	d9001417 	ldw	r4,80(sp)
 1005104:	00bfffc4 	movi	r2,-1
 1005108:	d8800115 	stw	r2,4(sp)
 100510c:	10371380 	call	1037138 <__cxa_call_unexpected>
 1005110:	010041b4 	movhi	r4,262
 1005114:	213f1704 	addi	r4,r4,-932
 1005118:	d8000115 	stw	zero,4(sp)
 100511c:	1002cac0 	call	1002cac <_ZNSt6locale5facetD2Ev>
 1005120:	003fec06 	br	10050d4 <_ZNSt6locale5_ImplC2Em+0x74c>
 1005124:	010041b4 	movhi	r4,262
 1005128:	213f2304 	addi	r4,r4,-884
 100512c:	d8000115 	stw	zero,4(sp)
 1005130:	1002cac0 	call	1002cac <_ZNSt6locale5facetD2Ev>
 1005134:	003fe706 	br	10050d4 <_ZNSt6locale5_ImplC2Em+0x74c>

01005138 <_ZNSt6locale5_ImplC1Em>:
 1005138:	deffe804 	addi	sp,sp,-96
 100513c:	008040f4 	movhi	r2,259
 1005140:	109cae04 	addi	r2,r2,29368
 1005144:	00c041b4 	movhi	r3,262
 1005148:	18e00704 	addi	r3,r3,-32740
 100514c:	d8800615 	stw	r2,24(sp)
 1005150:	d9001115 	stw	r4,68(sp)
 1005154:	00804034 	movhi	r2,256
 1005158:	10960804 	addi	r2,r2,22560
 100515c:	d809883a 	mov	r4,sp
 1005160:	d8c00715 	stw	r3,28(sp)
 1005164:	d8800915 	stw	r2,36(sp)
 1005168:	d9401215 	stw	r5,72(sp)
 100516c:	dfc01715 	stw	ra,92(sp)
 1005170:	df001615 	stw	fp,88(sp)
 1005174:	ddc01515 	stw	r23,84(sp)
 1005178:	dec00815 	stw	sp,32(sp)
 100517c:	dec00a15 	stw	sp,40(sp)
 1005180:	10424240 	call	1042424 <_Unwind_SjLj_Register>
 1005184:	d9401117 	ldw	r5,68(sp)
 1005188:	d9801217 	ldw	r6,72(sp)
 100518c:	008041b4 	movhi	r2,262
 1005190:	10be7304 	addi	r2,r2,-1588
 1005194:	00c041b4 	movhi	r3,262
 1005198:	18fe8104 	addi	r3,r3,-1532
 100519c:	01000384 	movi	r4,14
 10051a0:	29800015 	stw	r6,0(r5)
 10051a4:	29000215 	stw	r4,8(r5)
 10051a8:	28000415 	stw	zero,16(r5)
 10051ac:	28800115 	stw	r2,4(r5)
 10051b0:	28c00315 	stw	r3,12(r5)
 10051b4:	1013883a 	mov	r9,r2
 10051b8:	1811883a 	mov	r8,r3
 10051bc:	000d883a 	mov	r6,zero
 10051c0:	000b883a 	mov	r5,zero
 10051c4:	01c00044 	movi	r7,1
 10051c8:	2a05883a 	add	r2,r5,r8
 10051cc:	2a47883a 	add	r3,r5,r9
 10051d0:	10000015 	stw	zero,0(r2)
 10051d4:	31cd883a 	add	r6,r6,r7
 10051d8:	18000015 	stw	zero,0(r3)
 10051dc:	29400104 	addi	r5,r5,4
 10051e0:	313ff936 	bltu	r6,r4,10051c8 <_ZNSt6locale5_ImplC1Em+0x90>
 10051e4:	d9401117 	ldw	r5,68(sp)
 10051e8:	00c041b4 	movhi	r3,262
 10051ec:	18fe6a04 	addi	r3,r3,-1624
 10051f0:	008041b4 	movhi	r2,262
 10051f4:	10be7004 	addi	r2,r2,-1600
 10051f8:	18800015 	stw	r2,0(r3)
 10051fc:	28c00415 	stw	r3,16(r5)
 1005200:	00800244 	movi	r2,9
 1005204:	d8800115 	stw	r2,4(sp)
 1005208:	1002b9c0 	call	1002b9c <_ZNSt6locale5facet13_S_get_c_nameEv>
 100520c:	11000003 	ldbu	r4,0(r2)
 1005210:	018041b4 	movhi	r6,262
 1005214:	31be7004 	addi	r6,r6,-1600
 1005218:	01400104 	movi	r5,4
 100521c:	31000005 	stb	r4,0(r6)
 1005220:	10c00043 	ldbu	r3,1(r2)
 1005224:	01000604 	movi	r4,24
 1005228:	30c00045 	stb	r3,1(r6)
 100522c:	d8801117 	ldw	r2,68(sp)
 1005230:	10c00417 	ldw	r3,16(r2)
 1005234:	28c5883a 	add	r2,r5,r3
 1005238:	29400104 	addi	r5,r5,4
 100523c:	10000015 	stw	zero,0(r2)
 1005240:	293ffc1e 	bne	r5,r4,1005234 <_ZNSt6locale5_ImplC1Em+0xfc>
 1005244:	00800204 	movi	r2,8
 1005248:	d8800115 	stw	r2,4(sp)
 100524c:	010041b4 	movhi	r4,262
 1005250:	213e8f04 	addi	r4,r4,-1476
 1005254:	000b883a 	mov	r5,zero
 1005258:	000d883a 	mov	r6,zero
 100525c:	01c00044 	movi	r7,1
 1005260:	1038d280 	call	1038d28 <_ZNSt5ctypeIcEC1EPKcbm>
 1005264:	00c00244 	movi	r3,9
 1005268:	d8c00115 	stw	r3,4(sp)
 100526c:	018041b4 	movhi	r6,262
 1005270:	31be8f04 	addi	r6,r6,-1476
 1005274:	d9001117 	ldw	r4,68(sp)
 1005278:	014041b4 	movhi	r5,262
 100527c:	297c3c04 	addi	r5,r5,-3856
 1005280:	100445c0 	call	100445c <_ZNSt6locale5_Impl16_M_install_facetEPKNS_2idEPKNS_5facetE>
 1005284:	008001c4 	movi	r2,7
 1005288:	d8800115 	stw	r2,4(sp)
 100528c:	010041b4 	movhi	r4,262
 1005290:	213f1d04 	addi	r4,r4,-908
 1005294:	01400044 	movi	r5,1
 1005298:	10384100 	call	1038410 <_ZNSt7codecvtIcc10_mbstate_tEC1Em>
 100529c:	01400244 	movi	r5,9
 10052a0:	d9400115 	stw	r5,4(sp)
 10052a4:	018041b4 	movhi	r6,262
 10052a8:	31bf1d04 	addi	r6,r6,-908
 10052ac:	d9001117 	ldw	r4,68(sp)
 10052b0:	014041b4 	movhi	r5,262
 10052b4:	297c3b04 	addi	r5,r5,-3860
 10052b8:	100445c0 	call	100445c <_ZNSt6locale5_Impl16_M_install_facetEPKNS_2idEPKNS_5facetE>
 10052bc:	008041b4 	movhi	r2,262
 10052c0:	10bf2f04 	addi	r2,r2,-836
 10052c4:	00c041b4 	movhi	r3,262
 10052c8:	18e53e04 	addi	r3,r3,-27400
 10052cc:	010041b4 	movhi	r4,262
 10052d0:	213f1a04 	addi	r4,r4,-920
 10052d4:	10c00015 	stw	r3,0(r2)
 10052d8:	01800044 	movi	r6,1
 10052dc:	00c041b4 	movhi	r3,262
 10052e0:	18e5fb04 	addi	r3,r3,-26644
 10052e4:	20800215 	stw	r2,8(r4)
 10052e8:	11800115 	stw	r6,4(r2)
 10052ec:	10000215 	stw	zero,8(r2)
 10052f0:	10000315 	stw	zero,12(r2)
 10052f4:	10000405 	stb	zero,16(r2)
 10052f8:	10000515 	stw	zero,20(r2)
 10052fc:	10000615 	stw	zero,24(r2)
 1005300:	10000715 	stw	zero,28(r2)
 1005304:	10000815 	stw	zero,32(r2)
 1005308:	10000905 	stb	zero,36(r2)
 100530c:	10000945 	stb	zero,37(r2)
 1005310:	10001905 	stb	zero,100(r2)
 1005314:	21800115 	stw	r6,4(r4)
 1005318:	20c00015 	stw	r3,0(r4)
 100531c:	00800104 	movi	r2,4
 1005320:	d8800115 	stw	r2,4(sp)
 1005324:	000b883a 	mov	r5,zero
 1005328:	10350840 	call	1035084 <_ZNSt8numpunctIcE22_M_initialize_numpunctEPi>
 100532c:	00c00244 	movi	r3,9
 1005330:	d8c00115 	stw	r3,4(sp)
 1005334:	d9001117 	ldw	r4,68(sp)
 1005338:	014041b4 	movhi	r5,262
 100533c:	297c1604 	addi	r5,r5,-4008
 1005340:	018041b4 	movhi	r6,262
 1005344:	31bf1a04 	addi	r6,r6,-920
 1005348:	100445c0 	call	100445c <_ZNSt6locale5_Impl16_M_install_facetEPKNS_2idEPKNS_5facetE>
 100534c:	018041b4 	movhi	r6,262
 1005350:	31bc3e04 	addi	r6,r6,-3848
 1005354:	01400044 	movi	r5,1
 1005358:	008041b4 	movhi	r2,262
 100535c:	10a58d04 	addi	r2,r2,-27084
 1005360:	31400115 	stw	r5,4(r6)
 1005364:	30800015 	stw	r2,0(r6)
 1005368:	d9001117 	ldw	r4,68(sp)
 100536c:	014041b4 	movhi	r5,262
 1005370:	297c1704 	addi	r5,r5,-4004
 1005374:	100445c0 	call	100445c <_ZNSt6locale5_Impl16_M_install_facetEPKNS_2idEPKNS_5facetE>
 1005378:	018041b4 	movhi	r6,262
 100537c:	31bc4004 	addi	r6,r6,-3840
 1005380:	008041b4 	movhi	r2,262
 1005384:	10a58104 	addi	r2,r2,-27132
 1005388:	30800015 	stw	r2,0(r6)
 100538c:	00800044 	movi	r2,1
 1005390:	30800115 	stw	r2,4(r6)
 1005394:	d9001117 	ldw	r4,68(sp)
 1005398:	014041b4 	movhi	r5,262
 100539c:	297c1804 	addi	r5,r5,-4000
 10053a0:	100445c0 	call	100445c <_ZNSt6locale5_Impl16_M_install_facetEPKNS_2idEPKNS_5facetE>
 10053a4:	00c041b4 	movhi	r3,262
 10053a8:	18ff1704 	addi	r3,r3,-932
 10053ac:	01400044 	movi	r5,1
 10053b0:	008041b4 	movhi	r2,262
 10053b4:	10a5f404 	addi	r2,r2,-26672
 10053b8:	19400115 	stw	r5,4(r3)
 10053bc:	18800015 	stw	r2,0(r3)
 10053c0:	00c000c4 	movi	r3,3
 10053c4:	d8c00115 	stw	r3,4(sp)
 10053c8:	1002ccc0 	call	1002ccc <_ZNSt6locale5facet15_S_get_c_localeEv>
 10053cc:	018041b4 	movhi	r6,262
 10053d0:	31bf1704 	addi	r6,r6,-932
 10053d4:	30800215 	stw	r2,8(r6)
 10053d8:	00800244 	movi	r2,9
 10053dc:	d8800115 	stw	r2,4(sp)
 10053e0:	d9001117 	ldw	r4,68(sp)
 10053e4:	014041b4 	movhi	r5,262
 10053e8:	297c1d04 	addi	r5,r5,-3980
 10053ec:	100445c0 	call	100445c <_ZNSt6locale5_Impl16_M_install_facetEPKNS_2idEPKNS_5facetE>
 10053f0:	008041b4 	movhi	r2,262
 10053f4:	10bf5a04 	addi	r2,r2,-664
 10053f8:	00c041b4 	movhi	r3,262
 10053fc:	18e54604 	addi	r3,r3,-27368
 1005400:	010041b4 	movhi	r4,262
 1005404:	213f2304 	addi	r4,r4,-884
 1005408:	01400044 	movi	r5,1
 100540c:	10c00015 	stw	r3,0(r2)
 1005410:	00c041b4 	movhi	r3,262
 1005414:	18e5d204 	addi	r3,r3,-26808
 1005418:	21400115 	stw	r5,4(r4)
 100541c:	20c00015 	stw	r3,0(r4)
 1005420:	11400115 	stw	r5,4(r2)
 1005424:	20800215 	stw	r2,8(r4)
 1005428:	10000215 	stw	zero,8(r2)
 100542c:	10000315 	stw	zero,12(r2)
 1005430:	10000405 	stb	zero,16(r2)
 1005434:	10000445 	stb	zero,17(r2)
 1005438:	10000485 	stb	zero,18(r2)
 100543c:	10000515 	stw	zero,20(r2)
 1005440:	10000615 	stw	zero,24(r2)
 1005444:	10000715 	stw	zero,28(r2)
 1005448:	10000815 	stw	zero,32(r2)
 100544c:	10000915 	stw	zero,36(r2)
 1005450:	10000a15 	stw	zero,40(r2)
 1005454:	10000b15 	stw	zero,44(r2)
 1005458:	10000c15 	stw	zero,48(r2)
 100545c:	10000d15 	stw	zero,52(r2)
 1005460:	100010c5 	stb	zero,67(r2)
 1005464:	00c00084 	movi	r3,2
 1005468:	d8c00115 	stw	r3,4(sp)
 100546c:	000b883a 	mov	r5,zero
 1005470:	000d883a 	mov	r6,zero
 1005474:	1034bb40 	call	1034bb4 <_ZNSt10moneypunctIcLb0EE24_M_initialize_moneypunctEPiPKc>
 1005478:	00800244 	movi	r2,9
 100547c:	d8800115 	stw	r2,4(sp)
 1005480:	d9001117 	ldw	r4,68(sp)
 1005484:	014041b4 	movhi	r5,262
 1005488:	297c1204 	addi	r5,r5,-4024
 100548c:	018041b4 	movhi	r6,262
 1005490:	31bf2304 	addi	r6,r6,-884
 1005494:	100445c0 	call	100445c <_ZNSt6locale5_Impl16_M_install_facetEPKNS_2idEPKNS_5facetE>
 1005498:	008041b4 	movhi	r2,262
 100549c:	10bf4904 	addi	r2,r2,-732
 10054a0:	01800044 	movi	r6,1
 10054a4:	010041b4 	movhi	r4,262
 10054a8:	213f2004 	addi	r4,r4,-896
 10054ac:	014041b4 	movhi	r5,262
 10054b0:	2965df04 	addi	r5,r5,-26756
 10054b4:	00c041b4 	movhi	r3,262
 10054b8:	18e54204 	addi	r3,r3,-27384
 10054bc:	21400015 	stw	r5,0(r4)
 10054c0:	11800115 	stw	r6,4(r2)
 10054c4:	21800115 	stw	r6,4(r4)
 10054c8:	10c00015 	stw	r3,0(r2)
 10054cc:	20800215 	stw	r2,8(r4)
 10054d0:	10000215 	stw	zero,8(r2)
 10054d4:	10000315 	stw	zero,12(r2)
 10054d8:	10000405 	stb	zero,16(r2)
 10054dc:	10000445 	stb	zero,17(r2)
 10054e0:	10000485 	stb	zero,18(r2)
 10054e4:	10000515 	stw	zero,20(r2)
 10054e8:	10000615 	stw	zero,24(r2)
 10054ec:	10000715 	stw	zero,28(r2)
 10054f0:	10000815 	stw	zero,32(r2)
 10054f4:	10000915 	stw	zero,36(r2)
 10054f8:	10000a15 	stw	zero,40(r2)
 10054fc:	10000b15 	stw	zero,44(r2)
 1005500:	10000c15 	stw	zero,48(r2)
 1005504:	10000d15 	stw	zero,52(r2)
 1005508:	100010c5 	stb	zero,67(r2)
 100550c:	d9800115 	stw	r6,4(sp)
 1005510:	000b883a 	mov	r5,zero
 1005514:	000d883a 	mov	r6,zero
 1005518:	1034cec0 	call	1034cec <_ZNSt10moneypunctIcLb1EE24_M_initialize_moneypunctEPiPKc>
 100551c:	00800244 	movi	r2,9
 1005520:	d8800115 	stw	r2,4(sp)
 1005524:	d9001117 	ldw	r4,68(sp)
 1005528:	014041b4 	movhi	r5,262
 100552c:	297c1304 	addi	r5,r5,-4020
 1005530:	018041b4 	movhi	r6,262
 1005534:	31bf2004 	addi	r6,r6,-896
 1005538:	100445c0 	call	100445c <_ZNSt6locale5_Impl16_M_install_facetEPKNS_2idEPKNS_5facetE>
 100553c:	018041b4 	movhi	r6,262
 1005540:	31bc4204 	addi	r6,r6,-3832
 1005544:	008041b4 	movhi	r2,262
 1005548:	10a5ab04 	addi	r2,r2,-26964
 100554c:	00c00044 	movi	r3,1
 1005550:	30800015 	stw	r2,0(r6)
 1005554:	30c00115 	stw	r3,4(r6)
 1005558:	d9001117 	ldw	r4,68(sp)
 100555c:	014041b4 	movhi	r5,262
 1005560:	297c1404 	addi	r5,r5,-4016
 1005564:	100445c0 	call	100445c <_ZNSt6locale5_Impl16_M_install_facetEPKNS_2idEPKNS_5facetE>
 1005568:	018041b4 	movhi	r6,262
 100556c:	31bc4404 	addi	r6,r6,-3824
 1005570:	01400044 	movi	r5,1
 1005574:	008041b4 	movhi	r2,262
 1005578:	10a5a504 	addi	r2,r2,-26988
 100557c:	31400115 	stw	r5,4(r6)
 1005580:	30800015 	stw	r2,0(r6)
 1005584:	d9001117 	ldw	r4,68(sp)
 1005588:	014041b4 	movhi	r5,262
 100558c:	297c1504 	addi	r5,r5,-4012
 1005590:	100445c0 	call	100445c <_ZNSt6locale5_Impl16_M_install_facetEPKNS_2idEPKNS_5facetE>
 1005594:	014041b4 	movhi	r5,262
 1005598:	297f6b04 	addi	r5,r5,-596
 100559c:	008041b4 	movhi	r2,262
 10055a0:	10a5f004 	addi	r2,r2,-26688
 10055a4:	01800044 	movi	r6,1
 10055a8:	28800015 	stw	r2,0(r5)
 10055ac:	29800115 	stw	r6,4(r5)
 10055b0:	28000215 	stw	zero,8(r5)
 10055b4:	28000315 	stw	zero,12(r5)
 10055b8:	28000415 	stw	zero,16(r5)
 10055bc:	28000515 	stw	zero,20(r5)
 10055c0:	28000615 	stw	zero,24(r5)
 10055c4:	28000715 	stw	zero,28(r5)
 10055c8:	28000815 	stw	zero,32(r5)
 10055cc:	28000915 	stw	zero,36(r5)
 10055d0:	28000a15 	stw	zero,40(r5)
 10055d4:	28000b15 	stw	zero,44(r5)
 10055d8:	28000c15 	stw	zero,48(r5)
 10055dc:	28000d15 	stw	zero,52(r5)
 10055e0:	28000e15 	stw	zero,56(r5)
 10055e4:	28000f15 	stw	zero,60(r5)
 10055e8:	28001015 	stw	zero,64(r5)
 10055ec:	28001115 	stw	zero,68(r5)
 10055f0:	28001215 	stw	zero,72(r5)
 10055f4:	28001315 	stw	zero,76(r5)
 10055f8:	28001415 	stw	zero,80(r5)
 10055fc:	28001515 	stw	zero,84(r5)
 1005600:	28001615 	stw	zero,88(r5)
 1005604:	28001715 	stw	zero,92(r5)
 1005608:	28001815 	stw	zero,96(r5)
 100560c:	28001915 	stw	zero,100(r5)
 1005610:	28001a15 	stw	zero,104(r5)
 1005614:	28001b15 	stw	zero,108(r5)
 1005618:	28001c15 	stw	zero,112(r5)
 100561c:	28001d15 	stw	zero,116(r5)
 1005620:	28001e15 	stw	zero,120(r5)
 1005624:	28001f15 	stw	zero,124(r5)
 1005628:	28002015 	stw	zero,128(r5)
 100562c:	28002115 	stw	zero,132(r5)
 1005630:	00800184 	movi	r2,6
 1005634:	28002215 	stw	zero,136(r5)
 1005638:	28002315 	stw	zero,140(r5)
 100563c:	28002415 	stw	zero,144(r5)
 1005640:	28002515 	stw	zero,148(r5)
 1005644:	28002615 	stw	zero,152(r5)
 1005648:	28002715 	stw	zero,156(r5)
 100564c:	28002815 	stw	zero,160(r5)
 1005650:	28002915 	stw	zero,164(r5)
 1005654:	28002a15 	stw	zero,168(r5)
 1005658:	28002b15 	stw	zero,172(r5)
 100565c:	28002c15 	stw	zero,176(r5)
 1005660:	28002d15 	stw	zero,180(r5)
 1005664:	28002e15 	stw	zero,184(r5)
 1005668:	28002f15 	stw	zero,188(r5)
 100566c:	28003015 	stw	zero,192(r5)
 1005670:	28003105 	stb	zero,196(r5)
 1005674:	d8800115 	stw	r2,4(sp)
 1005678:	010041b4 	movhi	r4,262
 100567c:	213f2604 	addi	r4,r4,-872
 1005680:	1011d0c0 	call	1011d0c <_ZNSt11__timepunctIcEC1EPSt17__timepunct_cacheIcEm>
 1005684:	00800244 	movi	r2,9
 1005688:	d8800115 	stw	r2,4(sp)
 100568c:	018041b4 	movhi	r6,262
 1005690:	31bf2604 	addi	r6,r6,-872
 1005694:	d9001117 	ldw	r4,68(sp)
 1005698:	014041b4 	movhi	r5,262
 100569c:	297c1904 	addi	r5,r5,-3996
 10056a0:	100445c0 	call	100445c <_ZNSt6locale5_Impl16_M_install_facetEPKNS_2idEPKNS_5facetE>
 10056a4:	018041b4 	movhi	r6,262
 10056a8:	31bc4604 	addi	r6,r6,-3816
 10056ac:	008041b4 	movhi	r2,262
 10056b0:	10a56d04 	addi	r2,r2,-27212
 10056b4:	00c00044 	movi	r3,1
 10056b8:	30800015 	stw	r2,0(r6)
 10056bc:	30c00115 	stw	r3,4(r6)
 10056c0:	d9001117 	ldw	r4,68(sp)
 10056c4:	014041b4 	movhi	r5,262
 10056c8:	297c1b04 	addi	r5,r5,-3988
 10056cc:	100445c0 	call	100445c <_ZNSt6locale5_Impl16_M_install_facetEPKNS_2idEPKNS_5facetE>
 10056d0:	018041b4 	movhi	r6,262
 10056d4:	31bc4804 	addi	r6,r6,-3808
 10056d8:	01400044 	movi	r5,1
 10056dc:	008041b4 	movhi	r2,262
 10056e0:	10a57c04 	addi	r2,r2,-27152
 10056e4:	31400115 	stw	r5,4(r6)
 10056e8:	30800015 	stw	r2,0(r6)
 10056ec:	d9001117 	ldw	r4,68(sp)
 10056f0:	014041b4 	movhi	r5,262
 10056f4:	297c1a04 	addi	r5,r5,-3992
 10056f8:	100445c0 	call	100445c <_ZNSt6locale5_Impl16_M_install_facetEPKNS_2idEPKNS_5facetE>
 10056fc:	00800144 	movi	r2,5
 1005700:	d8800115 	stw	r2,4(sp)
 1005704:	01400044 	movi	r5,1
 1005708:	010041b4 	movhi	r4,262
 100570c:	213f2b04 	addi	r4,r4,-852
 1005710:	10136500 	call	1013650 <_ZNSt8messagesIcEC1Em>
 1005714:	01800244 	movi	r6,9
 1005718:	d9800115 	stw	r6,4(sp)
 100571c:	d9001117 	ldw	r4,68(sp)
 1005720:	018041b4 	movhi	r6,262
 1005724:	31bf2b04 	addi	r6,r6,-852
 1005728:	014041b4 	movhi	r5,262
 100572c:	297c1c04 	addi	r5,r5,-3984
 1005730:	100445c0 	call	100445c <_ZNSt6locale5_Impl16_M_install_facetEPKNS_2idEPKNS_5facetE>
 1005734:	d8801117 	ldw	r2,68(sp)
 1005738:	010041b4 	movhi	r4,262
 100573c:	213c1604 	addi	r4,r4,-4008
 1005740:	10800317 	ldw	r2,12(r2)
 1005744:	d8801015 	stw	r2,64(sp)
 1005748:	1002ba40 	call	1002ba4 <_ZNKSt6locale2id5_M_idEv>
 100574c:	d9401117 	ldw	r5,68(sp)
 1005750:	d8c01017 	ldw	r3,64(sp)
 1005754:	1085883a 	add	r2,r2,r2
 1005758:	1085883a 	add	r2,r2,r2
 100575c:	29400317 	ldw	r5,12(r5)
 1005760:	10c5883a 	add	r2,r2,r3
 1005764:	00c041b4 	movhi	r3,262
 1005768:	18ff2f04 	addi	r3,r3,-836
 100576c:	10c00015 	stw	r3,0(r2)
 1005770:	d9400f15 	stw	r5,60(sp)
 1005774:	010041b4 	movhi	r4,262
 1005778:	213c1204 	addi	r4,r4,-4024
 100577c:	1002ba40 	call	1002ba4 <_ZNKSt6locale2id5_M_idEv>
 1005780:	d9800f17 	ldw	r6,60(sp)
 1005784:	1085883a 	add	r2,r2,r2
 1005788:	1085883a 	add	r2,r2,r2
 100578c:	1185883a 	add	r2,r2,r6
 1005790:	00c041b4 	movhi	r3,262
 1005794:	18ff5a04 	addi	r3,r3,-664
 1005798:	10c00015 	stw	r3,0(r2)
 100579c:	d8801117 	ldw	r2,68(sp)
 10057a0:	010041b4 	movhi	r4,262
 10057a4:	213c1304 	addi	r4,r4,-4020
 10057a8:	10800317 	ldw	r2,12(r2)
 10057ac:	d8800e15 	stw	r2,56(sp)
 10057b0:	1002ba40 	call	1002ba4 <_ZNKSt6locale2id5_M_idEv>
 10057b4:	d9401117 	ldw	r5,68(sp)
 10057b8:	d8c00e17 	ldw	r3,56(sp)
 10057bc:	1085883a 	add	r2,r2,r2
 10057c0:	1085883a 	add	r2,r2,r2
 10057c4:	29400317 	ldw	r5,12(r5)
 10057c8:	10c5883a 	add	r2,r2,r3
 10057cc:	00c041b4 	movhi	r3,262
 10057d0:	18ff4904 	addi	r3,r3,-732
 10057d4:	10c00015 	stw	r3,0(r2)
 10057d8:	d9400d15 	stw	r5,52(sp)
 10057dc:	010041b4 	movhi	r4,262
 10057e0:	213c1904 	addi	r4,r4,-3996
 10057e4:	1002ba40 	call	1002ba4 <_ZNKSt6locale2id5_M_idEv>
 10057e8:	d8c00d17 	ldw	r3,52(sp)
 10057ec:	1085883a 	add	r2,r2,r2
 10057f0:	1085883a 	add	r2,r2,r2
 10057f4:	10c5883a 	add	r2,r2,r3
 10057f8:	00c041b4 	movhi	r3,262
 10057fc:	18ff6b04 	addi	r3,r3,-596
 1005800:	10c00015 	stw	r3,0(r2)
 1005804:	d809883a 	mov	r4,sp
 1005808:	10424340 	call	1042434 <_Unwind_SjLj_Unregister>
 100580c:	dfc01717 	ldw	ra,92(sp)
 1005810:	df001617 	ldw	fp,88(sp)
 1005814:	ddc01517 	ldw	r23,84(sp)
 1005818:	dec01804 	addi	sp,sp,96
 100581c:	f800283a 	ret
 1005820:	d9400217 	ldw	r5,8(sp)
 1005824:	d9800317 	ldw	r6,12(sp)
 1005828:	d8c00117 	ldw	r3,4(sp)
 100582c:	00800044 	movi	r2,1
 1005830:	d9401415 	stw	r5,80(sp)
 1005834:	d9801315 	stw	r6,76(sp)
 1005838:	18802626 	beq	r3,r2,10058d4 <_ZNSt6locale5_ImplC1Em+0x79c>
 100583c:	00800084 	movi	r2,2
 1005840:	18801f26 	beq	r3,r2,10058c0 <_ZNSt6locale5_ImplC1Em+0x788>
 1005844:	008000c4 	movi	r2,3
 1005848:	18801426 	beq	r3,r2,100589c <_ZNSt6locale5_ImplC1Em+0x764>
 100584c:	00800104 	movi	r2,4
 1005850:	18800c26 	beq	r3,r2,1005884 <_ZNSt6locale5_ImplC1Em+0x74c>
 1005854:	00800144 	movi	r2,5
 1005858:	18800a26 	beq	r3,r2,1005884 <_ZNSt6locale5_ImplC1Em+0x74c>
 100585c:	00800184 	movi	r2,6
 1005860:	18800826 	beq	r3,r2,1005884 <_ZNSt6locale5_ImplC1Em+0x74c>
 1005864:	008001c4 	movi	r2,7
 1005868:	18800626 	beq	r3,r2,1005884 <_ZNSt6locale5_ImplC1Em+0x74c>
 100586c:	00800204 	movi	r2,8
 1005870:	18800426 	beq	r3,r2,1005884 <_ZNSt6locale5_ImplC1Em+0x74c>
 1005874:	010041b4 	movhi	r4,262
 1005878:	213f2004 	addi	r4,r4,-896
 100587c:	d8000115 	stw	zero,4(sp)
 1005880:	1002cac0 	call	1002cac <_ZNSt6locale5facetD2Ev>
 1005884:	d9801317 	ldw	r6,76(sp)
 1005888:	00bfffc4 	movi	r2,-1
 100588c:	30800826 	beq	r6,r2,10058b0 <_ZNSt6locale5_ImplC1Em+0x778>
 1005890:	d9001417 	ldw	r4,80(sp)
 1005894:	d8800115 	stw	r2,4(sp)
 1005898:	10426f00 	call	10426f0 <_Unwind_SjLj_Resume>
 100589c:	010041b4 	movhi	r4,262
 10058a0:	213f1a04 	addi	r4,r4,-920
 10058a4:	d8000115 	stw	zero,4(sp)
 10058a8:	1002cac0 	call	1002cac <_ZNSt6locale5facetD2Ev>
 10058ac:	003ff506 	br	1005884 <_ZNSt6locale5_ImplC1Em+0x74c>
 10058b0:	d9001417 	ldw	r4,80(sp)
 10058b4:	00bfffc4 	movi	r2,-1
 10058b8:	d8800115 	stw	r2,4(sp)
 10058bc:	10371380 	call	1037138 <__cxa_call_unexpected>
 10058c0:	010041b4 	movhi	r4,262
 10058c4:	213f1704 	addi	r4,r4,-932
 10058c8:	d8000115 	stw	zero,4(sp)
 10058cc:	1002cac0 	call	1002cac <_ZNSt6locale5facetD2Ev>
 10058d0:	003fec06 	br	1005884 <_ZNSt6locale5_ImplC1Em+0x74c>
 10058d4:	010041b4 	movhi	r4,262
 10058d8:	213f2304 	addi	r4,r4,-884
 10058dc:	d8000115 	stw	zero,4(sp)
 10058e0:	1002cac0 	call	1002cac <_ZNSt6locale5facetD2Ev>
 10058e4:	003fe706 	br	1005884 <_ZNSt6locale5_ImplC1Em+0x74c>

010058e8 <_ZNSt6locale18_S_initialize_onceEv>:
 10058e8:	defffe04 	addi	sp,sp,-8
 10058ec:	dc000015 	stw	r16,0(sp)
 10058f0:	040041b4 	movhi	r16,262
 10058f4:	843e6504 	addi	r16,r16,-1644
 10058f8:	8009883a 	mov	r4,r16
 10058fc:	01400084 	movi	r5,2
 1005900:	dfc00115 	stw	ra,4(sp)
 1005904:	10051380 	call	1005138 <_ZNSt6locale5_ImplC1Em>
 1005908:	008041b4 	movhi	r2,262
 100590c:	10bc0e04 	addi	r2,r2,-4040
 1005910:	00c041b4 	movhi	r3,262
 1005914:	18fc0f04 	addi	r3,r3,-4036
 1005918:	800b883a 	mov	r5,r16
 100591c:	010041b4 	movhi	r4,262
 1005920:	213c3d04 	addi	r4,r4,-3852
 1005924:	14000015 	stw	r16,0(r2)
 1005928:	1c000015 	stw	r16,0(r3)
 100592c:	dfc00117 	ldw	ra,4(sp)
 1005930:	dc000017 	ldw	r16,0(sp)
 1005934:	dec00204 	addi	sp,sp,8
 1005938:	1002b941 	jmpi	1002b94 <_ZNSt6localeC1EPNS_5_ImplE>

0100593c <_ZNSt6locale13_S_initializeEv>:
 100593c:	008041b4 	movhi	r2,262
 1005940:	10bc0e04 	addi	r2,r2,-4040
 1005944:	10c00017 	ldw	r3,0(r2)
 1005948:	18000126 	beq	r3,zero,1005950 <_ZNSt6locale13_S_initializeEv+0x14>
 100594c:	f800283a 	ret
 1005950:	10058e81 	jmpi	10058e8 <_ZNSt6locale18_S_initialize_onceEv>

01005954 <_ZNSt6locale7classicEv>:
 1005954:	deffff04 	addi	sp,sp,-4
 1005958:	dfc00015 	stw	ra,0(sp)
 100595c:	100593c0 	call	100593c <_ZNSt6locale13_S_initializeEv>
 1005960:	008041b4 	movhi	r2,262
 1005964:	10bc3d04 	addi	r2,r2,-3852
 1005968:	dfc00017 	ldw	ra,0(sp)
 100596c:	dec00104 	addi	sp,sp,4
 1005970:	f800283a 	ret

01005974 <_ZNSt6locale6globalERKS_>:
 1005974:	deffe704 	addi	sp,sp,-100
 1005978:	008040f4 	movhi	r2,259
 100597c:	109cae04 	addi	r2,r2,29368
 1005980:	00c041b4 	movhi	r3,262
 1005984:	18e00f04 	addi	r3,r3,-32708
 1005988:	d8800815 	stw	r2,32(sp)
 100598c:	d9001315 	stw	r4,76(sp)
 1005990:	00804034 	movhi	r2,256
 1005994:	1096ae04 	addi	r2,r2,23224
 1005998:	d9000204 	addi	r4,sp,8
 100599c:	d8c00915 	stw	r3,36(sp)
 10059a0:	d8800b15 	stw	r2,44(sp)
 10059a4:	d9401415 	stw	r5,80(sp)
 10059a8:	dfc01815 	stw	ra,96(sp)
 10059ac:	df001715 	stw	fp,92(sp)
 10059b0:	ddc01615 	stw	r23,88(sp)
 10059b4:	dec00a15 	stw	sp,40(sp)
 10059b8:	dec00c15 	stw	sp,48(sp)
 10059bc:	10424240 	call	1042424 <_Unwind_SjLj_Register>
 10059c0:	100593c0 	call	100593c <_ZNSt6locale13_S_initializeEv>
 10059c4:	008041b4 	movhi	r2,262
 10059c8:	10bc0f04 	addi	r2,r2,-4036
 10059cc:	10800017 	ldw	r2,0(r2)
 10059d0:	00c000c4 	movi	r3,3
 10059d4:	d8c00315 	stw	r3,12(sp)
 10059d8:	d8801215 	stw	r2,72(sp)
 10059dc:	d8801417 	ldw	r2,80(sp)
 10059e0:	01400044 	movi	r5,1
 10059e4:	11000017 	ldw	r4,0(r2)
 10059e8:	103462c0 	call	103462c <_ZN9__gnu_cxx12__atomic_addEPVii>
 10059ec:	d8c01417 	ldw	r3,80(sp)
 10059f0:	01000144 	movi	r4,5
 10059f4:	d9401417 	ldw	r5,80(sp)
 10059f8:	18800017 	ldw	r2,0(r3)
 10059fc:	00c041b4 	movhi	r3,262
 1005a00:	18fc0f04 	addi	r3,r3,-4036
 1005a04:	18800015 	stw	r2,0(r3)
 1005a08:	d8800104 	addi	r2,sp,4
 1005a0c:	d9000315 	stw	r4,12(sp)
 1005a10:	d8801515 	stw	r2,84(sp)
 1005a14:	1009883a 	mov	r4,r2
 1005a18:	1002f6c0 	call	1002f6c <_ZNKSt6locale4nameEv>
 1005a1c:	00c00104 	movi	r3,4
 1005a20:	d8c00315 	stw	r3,12(sp)
 1005a24:	d9001517 	ldw	r4,84(sp)
 1005a28:	014041b4 	movhi	r5,262
 1005a2c:	29649404 	addi	r5,r5,-28080
 1005a30:	10314a80 	call	10314a8 <_ZNKSs7compareEPKc>
 1005a34:	1000111e 	bne	r2,zero,1005a7c <_ZNSt6locale6globalERKS_+0x108>
 1005a38:	d8800117 	ldw	r2,4(sp)
 1005a3c:	00c041b4 	movhi	r3,262
 1005a40:	18fc6104 	addi	r3,r3,-3708
 1005a44:	10bffd04 	addi	r2,r2,-12
 1005a48:	d8800f15 	stw	r2,60(sp)
 1005a4c:	10c00f1e 	bne	r2,r3,1005a8c <_ZNSt6locale6globalERKS_+0x118>
 1005a50:	d9401217 	ldw	r5,72(sp)
 1005a54:	d9001317 	ldw	r4,76(sp)
 1005a58:	1002b940 	call	1002b94 <_ZNSt6localeC1EPNS_5_ImplE>
 1005a5c:	d9000204 	addi	r4,sp,8
 1005a60:	10424340 	call	1042434 <_Unwind_SjLj_Unregister>
 1005a64:	d8801317 	ldw	r2,76(sp)
 1005a68:	dfc01817 	ldw	ra,96(sp)
 1005a6c:	df001717 	ldw	fp,92(sp)
 1005a70:	ddc01617 	ldw	r23,88(sp)
 1005a74:	dec01904 	addi	sp,sp,100
 1005a78:	f800283a 	ret
 1005a7c:	d9400117 	ldw	r5,4(sp)
 1005a80:	0009883a 	mov	r4,zero
 1005a84:	10447240 	call	1044724 <setlocale>
 1005a88:	003feb06 	br	1005a38 <_ZNSt6locale6globalERKS_+0xc4>
 1005a8c:	d8c00f17 	ldw	r3,60(sp)
 1005a90:	00800044 	movi	r2,1
 1005a94:	d8800315 	stw	r2,12(sp)
 1005a98:	19000204 	addi	r4,r3,8
 1005a9c:	017fffc4 	movi	r5,-1
 1005aa0:	10346180 	call	1034618 <_ZN9__gnu_cxx18__exchange_and_addEPVii>
 1005aa4:	00bfea16 	blt	zero,r2,1005a50 <_ZNSt6locale6globalERKS_+0xdc>
 1005aa8:	d9000f17 	ldw	r4,60(sp)
 1005aac:	d80b883a 	mov	r5,sp
 1005ab0:	10310a80 	call	10310a8 <_ZNSs4_Rep10_M_destroyERKSaIcE>
 1005ab4:	003fe606 	br	1005a50 <_ZNSt6locale6globalERKS_+0xdc>
 1005ab8:	d8c00317 	ldw	r3,12(sp)
 1005abc:	00800044 	movi	r2,1
 1005ac0:	d9000417 	ldw	r4,16(sp)
 1005ac4:	d9400517 	ldw	r5,20(sp)
 1005ac8:	18800426 	beq	r3,r2,1005adc <_ZNSt6locale6globalERKS_+0x168>
 1005acc:	00800084 	movi	r2,2
 1005ad0:	18800e26 	beq	r3,r2,1005b0c <_ZNSt6locale6globalERKS_+0x198>
 1005ad4:	008000c4 	movi	r2,3
 1005ad8:	18800326 	beq	r3,r2,1005ae8 <_ZNSt6locale6globalERKS_+0x174>
 1005adc:	00bfffc4 	movi	r2,-1
 1005ae0:	d8800315 	stw	r2,12(sp)
 1005ae4:	10426f00 	call	10426f0 <_Unwind_SjLj_Resume>
 1005ae8:	d8800117 	ldw	r2,4(sp)
 1005aec:	00c041b4 	movhi	r3,262
 1005af0:	18fc6104 	addi	r3,r3,-3708
 1005af4:	d9001115 	stw	r4,68(sp)
 1005af8:	10bffd04 	addi	r2,r2,-12
 1005afc:	d8801015 	stw	r2,64(sp)
 1005b00:	10c0071e 	bne	r2,r3,1005b20 <_ZNSt6locale6globalERKS_+0x1ac>
 1005b04:	d9001117 	ldw	r4,68(sp)
 1005b08:	003ff406 	br	1005adc <_ZNSt6locale6globalERKS_+0x168>
 1005b0c:	00bfffc4 	movi	r2,-1
 1005b10:	28bff31e 	bne	r5,r2,1005ae0 <_ZNSt6locale6globalERKS_+0x16c>
 1005b14:	00bfffc4 	movi	r2,-1
 1005b18:	d8800315 	stw	r2,12(sp)
 1005b1c:	10371380 	call	1037138 <__cxa_call_unexpected>
 1005b20:	00800084 	movi	r2,2
 1005b24:	d8800315 	stw	r2,12(sp)
 1005b28:	d8801017 	ldw	r2,64(sp)
 1005b2c:	017fffc4 	movi	r5,-1
 1005b30:	11000204 	addi	r4,r2,8
 1005b34:	10346180 	call	1034618 <_ZN9__gnu_cxx18__exchange_and_addEPVii>
 1005b38:	00bff216 	blt	zero,r2,1005b04 <_ZNSt6locale6globalERKS_+0x190>
 1005b3c:	d9001017 	ldw	r4,64(sp)
 1005b40:	d9400044 	addi	r5,sp,1
 1005b44:	10310a80 	call	10310a8 <_ZNSs4_Rep10_M_destroyERKSaIcE>
 1005b48:	003fee06 	br	1005b04 <_ZNSt6locale6globalERKS_+0x190>

01005b4c <_ZNSt6localeC1Ev>:
 1005b4c:	deffef04 	addi	sp,sp,-68
 1005b50:	008040f4 	movhi	r2,259
 1005b54:	109cae04 	addi	r2,r2,29368
 1005b58:	00c041b4 	movhi	r3,262
 1005b5c:	18e01504 	addi	r3,r3,-32684
 1005b60:	d8800615 	stw	r2,24(sp)
 1005b64:	d9000d15 	stw	r4,52(sp)
 1005b68:	00804034 	movhi	r2,256
 1005b6c:	1096fa04 	addi	r2,r2,23528
 1005b70:	d809883a 	mov	r4,sp
 1005b74:	dfc01015 	stw	ra,64(sp)
 1005b78:	d8c00715 	stw	r3,28(sp)
 1005b7c:	d8800915 	stw	r2,36(sp)
 1005b80:	df000f15 	stw	fp,60(sp)
 1005b84:	ddc00e15 	stw	r23,56(sp)
 1005b88:	dec00815 	stw	sp,32(sp)
 1005b8c:	dec00a15 	stw	sp,40(sp)
 1005b90:	10424240 	call	1042424 <_Unwind_SjLj_Register>
 1005b94:	d8800d17 	ldw	r2,52(sp)
 1005b98:	10000015 	stw	zero,0(r2)
 1005b9c:	100593c0 	call	100593c <_ZNSt6locale13_S_initializeEv>
 1005ba0:	01400044 	movi	r5,1
 1005ba4:	d9400115 	stw	r5,4(sp)
 1005ba8:	008041b4 	movhi	r2,262
 1005bac:	10bc0f04 	addi	r2,r2,-4036
 1005bb0:	11000017 	ldw	r4,0(r2)
 1005bb4:	103462c0 	call	103462c <_ZN9__gnu_cxx12__atomic_addEPVii>
 1005bb8:	008041b4 	movhi	r2,262
 1005bbc:	10bc0f04 	addi	r2,r2,-4036
 1005bc0:	10c00017 	ldw	r3,0(r2)
 1005bc4:	d8800d17 	ldw	r2,52(sp)
 1005bc8:	d809883a 	mov	r4,sp
 1005bcc:	10c00015 	stw	r3,0(r2)
 1005bd0:	10424340 	call	1042434 <_Unwind_SjLj_Unregister>
 1005bd4:	dfc01017 	ldw	ra,64(sp)
 1005bd8:	df000f17 	ldw	fp,60(sp)
 1005bdc:	ddc00e17 	ldw	r23,56(sp)
 1005be0:	dec01104 	addi	sp,sp,68
 1005be4:	f800283a 	ret
 1005be8:	d8800317 	ldw	r2,12(sp)
 1005bec:	00ffffc4 	movi	r3,-1
 1005bf0:	d9000217 	ldw	r4,8(sp)
 1005bf4:	10c00226 	beq	r2,r3,1005c00 <_ZNSt6localeC1Ev+0xb4>
 1005bf8:	d8c00115 	stw	r3,4(sp)
 1005bfc:	10426f00 	call	10426f0 <_Unwind_SjLj_Resume>
 1005c00:	00bfffc4 	movi	r2,-1
 1005c04:	d8800115 	stw	r2,4(sp)
 1005c08:	10371380 	call	1037138 <__cxa_call_unexpected>

01005c0c <_ZNSt6localeC2Ev>:
 1005c0c:	deffef04 	addi	sp,sp,-68
 1005c10:	008040f4 	movhi	r2,259
 1005c14:	109cae04 	addi	r2,r2,29368
 1005c18:	00c041b4 	movhi	r3,262
 1005c1c:	18e01904 	addi	r3,r3,-32668
 1005c20:	d8800615 	stw	r2,24(sp)
 1005c24:	d9000d15 	stw	r4,52(sp)
 1005c28:	00804034 	movhi	r2,256
 1005c2c:	10972a04 	addi	r2,r2,23720
 1005c30:	d809883a 	mov	r4,sp
 1005c34:	dfc01015 	stw	ra,64(sp)
 1005c38:	d8c00715 	stw	r3,28(sp)
 1005c3c:	d8800915 	stw	r2,36(sp)
 1005c40:	df000f15 	stw	fp,60(sp)
 1005c44:	ddc00e15 	stw	r23,56(sp)
 1005c48:	dec00815 	stw	sp,32(sp)
 1005c4c:	dec00a15 	stw	sp,40(sp)
 1005c50:	10424240 	call	1042424 <_Unwind_SjLj_Register>
 1005c54:	d8800d17 	ldw	r2,52(sp)
 1005c58:	10000015 	stw	zero,0(r2)
 1005c5c:	100593c0 	call	100593c <_ZNSt6locale13_S_initializeEv>
 1005c60:	01400044 	movi	r5,1
 1005c64:	d9400115 	stw	r5,4(sp)
 1005c68:	008041b4 	movhi	r2,262
 1005c6c:	10bc0f04 	addi	r2,r2,-4036
 1005c70:	11000017 	ldw	r4,0(r2)
 1005c74:	103462c0 	call	103462c <_ZN9__gnu_cxx12__atomic_addEPVii>
 1005c78:	008041b4 	movhi	r2,262
 1005c7c:	10bc0f04 	addi	r2,r2,-4036
 1005c80:	10c00017 	ldw	r3,0(r2)
 1005c84:	d8800d17 	ldw	r2,52(sp)
 1005c88:	d809883a 	mov	r4,sp
 1005c8c:	10c00015 	stw	r3,0(r2)
 1005c90:	10424340 	call	1042434 <_Unwind_SjLj_Unregister>
 1005c94:	dfc01017 	ldw	ra,64(sp)
 1005c98:	df000f17 	ldw	fp,60(sp)
 1005c9c:	ddc00e17 	ldw	r23,56(sp)
 1005ca0:	dec01104 	addi	sp,sp,68
 1005ca4:	f800283a 	ret
 1005ca8:	d8800317 	ldw	r2,12(sp)
 1005cac:	00ffffc4 	movi	r3,-1
 1005cb0:	d9000217 	ldw	r4,8(sp)
 1005cb4:	10c00226 	beq	r2,r3,1005cc0 <_ZNSt6localeC2Ev+0xb4>
 1005cb8:	d8c00115 	stw	r3,4(sp)
 1005cbc:	10426f00 	call	10426f0 <_Unwind_SjLj_Resume>
 1005cc0:	00bfffc4 	movi	r2,-1
 1005cc4:	d8800115 	stw	r2,4(sp)
 1005cc8:	10371380 	call	1037138 <__cxa_call_unexpected>

01005ccc <_ZN9__gnu_cxx4ropeIcSaIcEE8_S_fetchEPNS_13_Rope_RopeRepIcS1_EEm>:
 1005ccc:	20800417 	ldw	r2,16(r4)
 1005cd0:	defffe04 	addi	sp,sp,-8
 1005cd4:	dfc00115 	stw	ra,4(sp)
 1005cd8:	10000526 	beq	r2,zero,1005cf0 <_ZN9__gnu_cxx4ropeIcSaIcEE8_S_fetchEPNS_13_Rope_RopeRepIcS1_EEm+0x24>
 1005cdc:	1145883a 	add	r2,r2,r5
 1005ce0:	10800007 	ldb	r2,0(r2)
 1005ce4:	dfc00117 	ldw	ra,4(sp)
 1005ce8:	dec00204 	addi	sp,sp,8
 1005cec:	f800283a 	ret
 1005cf0:	20c00303 	ldbu	r3,12(r4)
 1005cf4:	00800044 	movi	r2,1
 1005cf8:	18800e26 	beq	r3,r2,1005d34 <_ZN9__gnu_cxx4ropeIcSaIcEE8_S_fetchEPNS_13_Rope_RopeRepIcS1_EEm+0x68>
 1005cfc:	10c00316 	blt	r2,r3,1005d0c <_ZN9__gnu_cxx4ropeIcSaIcEE8_S_fetchEPNS_13_Rope_RopeRepIcS1_EEm+0x40>
 1005d00:	183ffc1e 	bne	r3,zero,1005cf4 <_ZN9__gnu_cxx4ropeIcSaIcEE8_S_fetchEPNS_13_Rope_RopeRepIcS1_EEm+0x28>
 1005d04:	20800617 	ldw	r2,24(r4)
 1005d08:	003ff406 	br	1005cdc <_ZN9__gnu_cxx4ropeIcSaIcEE8_S_fetchEPNS_13_Rope_RopeRepIcS1_EEm+0x10>
 1005d0c:	008000c4 	movi	r2,3
 1005d10:	10fff816 	blt	r2,r3,1005cf4 <_ZN9__gnu_cxx4ropeIcSaIcEE8_S_fetchEPNS_13_Rope_RopeRepIcS1_EEm+0x28>
 1005d14:	21000617 	ldw	r4,24(r4)
 1005d18:	01800044 	movi	r6,1
 1005d1c:	d80f883a 	mov	r7,sp
 1005d20:	20c00017 	ldw	r3,0(r4)
 1005d24:	18800217 	ldw	r2,8(r3)
 1005d28:	103ee83a 	callr	r2
 1005d2c:	d8800007 	ldb	r2,0(sp)
 1005d30:	003fec06 	br	1005ce4 <_ZN9__gnu_cxx4ropeIcSaIcEE8_S_fetchEPNS_13_Rope_RopeRepIcS1_EEm+0x18>
 1005d34:	20c00617 	ldw	r3,24(r4)
 1005d38:	18800017 	ldw	r2,0(r3)
 1005d3c:	28800436 	bltu	r5,r2,1005d50 <_ZN9__gnu_cxx4ropeIcSaIcEE8_S_fetchEPNS_13_Rope_RopeRepIcS1_EEm+0x84>
 1005d40:	21000717 	ldw	r4,28(r4)
 1005d44:	288bc83a 	sub	r5,r5,r2
 1005d48:	20c00303 	ldbu	r3,12(r4)
 1005d4c:	003fe906 	br	1005cf4 <_ZN9__gnu_cxx4ropeIcSaIcEE8_S_fetchEPNS_13_Rope_RopeRepIcS1_EEm+0x28>
 1005d50:	1809883a 	mov	r4,r3
 1005d54:	18c00303 	ldbu	r3,12(r3)
 1005d58:	003fe606 	br	1005cf4 <_ZN9__gnu_cxx4ropeIcSaIcEE8_S_fetchEPNS_13_Rope_RopeRepIcS1_EEm+0x28>

01005d5c <_ZN9__gnu_cxx13stdio_filebufIcSt11char_traitsIcEE4fileEv>:
 1005d5c:	21000904 	addi	r4,r4,36
 1005d60:	103570c1 	jmpi	103570c <_ZNSt12__basic_fileIcE4fileEv>

01005d64 <_ZN9__gnu_cxx13stdio_filebufIcSt11char_traitsIcEE2fdEv>:
 1005d64:	21000904 	addi	r4,r4,36
 1005d68:	10358cc1 	jmpi	10358cc <_ZNSt12__basic_fileIcE2fdEv>

01005d6c <_ZN9__gnu_cxx13stdio_filebufIcSt11char_traitsIcEEC1Ev>:
 1005d6c:	defffe04 	addi	sp,sp,-8
 1005d70:	dc000015 	stw	r16,0(sp)
 1005d74:	dfc00115 	stw	ra,4(sp)
 1005d78:	2021883a 	mov	r16,r4
 1005d7c:	103c6c40 	call	103c6c4 <_ZNSt13basic_filebufIcSt11char_traitsIcEEC2Ev>
 1005d80:	008041b4 	movhi	r2,262
 1005d84:	10a4dc04 	addi	r2,r2,-27792
 1005d88:	80800015 	stw	r2,0(r16)
 1005d8c:	dfc00117 	ldw	ra,4(sp)
 1005d90:	dc000017 	ldw	r16,0(sp)
 1005d94:	dec00204 	addi	sp,sp,8
 1005d98:	f800283a 	ret

01005d9c <_ZN9__gnu_cxx13stdio_filebufIcSt11char_traitsIcEEC2Ev>:
 1005d9c:	defffe04 	addi	sp,sp,-8
 1005da0:	dc000015 	stw	r16,0(sp)
 1005da4:	dfc00115 	stw	ra,4(sp)
 1005da8:	2021883a 	mov	r16,r4
 1005dac:	103c6c40 	call	103c6c4 <_ZNSt13basic_filebufIcSt11char_traitsIcEEC2Ev>
 1005db0:	008041b4 	movhi	r2,262
 1005db4:	10a4dc04 	addi	r2,r2,-27792
 1005db8:	80800015 	stw	r2,0(r16)
 1005dbc:	dfc00117 	ldw	ra,4(sp)
 1005dc0:	dc000017 	ldw	r16,0(sp)
 1005dc4:	dec00204 	addi	sp,sp,8
 1005dc8:	f800283a 	ret

01005dcc <_ZN9__gnu_cxx13stdio_filebufIcSt11char_traitsIcEEC1EP7__sFILESt13_Ios_Openmodem>:
 1005dcc:	deffe804 	addi	sp,sp,-96
 1005dd0:	008040f4 	movhi	r2,259
 1005dd4:	109cae04 	addi	r2,r2,29368
 1005dd8:	00c041b4 	movhi	r3,262
 1005ddc:	18e01d04 	addi	r3,r3,-32652
 1005de0:	d8800615 	stw	r2,24(sp)
 1005de4:	d9000f15 	stw	r4,60(sp)
 1005de8:	00804034 	movhi	r2,256
 1005dec:	1097bf04 	addi	r2,r2,24316
 1005df0:	d809883a 	mov	r4,sp
 1005df4:	d8c00715 	stw	r3,28(sp)
 1005df8:	d9401015 	stw	r5,64(sp)
 1005dfc:	d9801115 	stw	r6,68(sp)
 1005e00:	dfc01715 	stw	ra,92(sp)
 1005e04:	d8800915 	stw	r2,36(sp)
 1005e08:	d9c01215 	stw	r7,72(sp)
 1005e0c:	df001615 	stw	fp,88(sp)
 1005e10:	ddc01515 	stw	r23,84(sp)
 1005e14:	dec00815 	stw	sp,32(sp)
 1005e18:	dec00a15 	stw	sp,40(sp)
 1005e1c:	10424240 	call	1042424 <_Unwind_SjLj_Register>
 1005e20:	d9000f17 	ldw	r4,60(sp)
 1005e24:	00bfffc4 	movi	r2,-1
 1005e28:	d8800115 	stw	r2,4(sp)
 1005e2c:	103c6c40 	call	103c6c4 <_ZNSt13basic_filebufIcSt11char_traitsIcEEC2Ev>
 1005e30:	d8c00f17 	ldw	r3,60(sp)
 1005e34:	008041b4 	movhi	r2,262
 1005e38:	10a4dc04 	addi	r2,r2,-27792
 1005e3c:	d9401017 	ldw	r5,64(sp)
 1005e40:	18800015 	stw	r2,0(r3)
 1005e44:	18c00904 	addi	r3,r3,36
 1005e48:	008000c4 	movi	r2,3
 1005e4c:	d8800115 	stw	r2,4(sp)
 1005e50:	d8c01315 	stw	r3,76(sp)
 1005e54:	1809883a 	mov	r4,r3
 1005e58:	d9801117 	ldw	r6,68(sp)
 1005e5c:	103571c0 	call	103571c <_ZNSt12__basic_fileIcE8sys_openEP7__sFILESt13_Ios_Openmode>
 1005e60:	00800084 	movi	r2,2
 1005e64:	d8800115 	stw	r2,4(sp)
 1005e68:	d9001317 	ldw	r4,76(sp)
 1005e6c:	10357000 	call	1035700 <_ZNKSt12__basic_fileIcE7is_openEv>
 1005e70:	10803fcc 	andi	r2,r2,255
 1005e74:	1000071e 	bne	r2,zero,1005e94 <_ZN9__gnu_cxx13stdio_filebufIcSt11char_traitsIcEEC1EP7__sFILESt13_Ios_Openmodem+0xc8>
 1005e78:	d809883a 	mov	r4,sp
 1005e7c:	10424340 	call	1042434 <_Unwind_SjLj_Unregister>
 1005e80:	dfc01717 	ldw	ra,92(sp)
 1005e84:	df001617 	ldw	fp,88(sp)
 1005e88:	ddc01517 	ldw	r23,84(sp)
 1005e8c:	dec01804 	addi	sp,sp,96
 1005e90:	f800283a 	ret
 1005e94:	d8800f17 	ldw	r2,60(sp)
 1005e98:	d8c01117 	ldw	r3,68(sp)
 1005e9c:	d9000f17 	ldw	r4,60(sp)
 1005ea0:	10c00b15 	stw	r3,44(r2)
 1005ea4:	d8c01217 	ldw	r3,72(sp)
 1005ea8:	10c01315 	stw	r3,76(r2)
 1005eac:	008000c4 	movi	r2,3
 1005eb0:	d8800115 	stw	r2,4(sp)
 1005eb4:	103be3c0 	call	103be3c <_ZNSt13basic_filebufIcSt11char_traitsIcEE27_M_allocate_internal_bufferEv>
 1005eb8:	d8c00f17 	ldw	r3,60(sp)
 1005ebc:	d809883a 	mov	r4,sp
 1005ec0:	18801217 	ldw	r2,72(r3)
 1005ec4:	18000615 	stw	zero,24(r3)
 1005ec8:	18001445 	stb	zero,81(r3)
 1005ecc:	18800315 	stw	r2,12(r3)
 1005ed0:	18001485 	stb	zero,82(r3)
 1005ed4:	18800115 	stw	r2,4(r3)
 1005ed8:	18800215 	stw	r2,8(r3)
 1005edc:	18000515 	stw	zero,20(r3)
 1005ee0:	18000415 	stw	zero,16(r3)
 1005ee4:	10424340 	call	1042434 <_Unwind_SjLj_Unregister>
 1005ee8:	dfc01717 	ldw	ra,92(sp)
 1005eec:	df001617 	ldw	fp,88(sp)
 1005ef0:	ddc01517 	ldw	r23,84(sp)
 1005ef4:	dec01804 	addi	sp,sp,96
 1005ef8:	f800283a 	ret
 1005efc:	d8800217 	ldw	r2,8(sp)
 1005f00:	d9000117 	ldw	r4,4(sp)
 1005f04:	d8c00317 	ldw	r3,12(sp)
 1005f08:	d8801415 	stw	r2,80(sp)
 1005f0c:	00800044 	movi	r2,1
 1005f10:	20800c26 	beq	r4,r2,1005f44 <_ZN9__gnu_cxx13stdio_filebufIcSt11char_traitsIcEEC1EP7__sFILESt13_Ios_Openmodem+0x178>
 1005f14:	00800084 	movi	r2,2
 1005f18:	20801026 	beq	r4,r2,1005f5c <_ZN9__gnu_cxx13stdio_filebufIcSt11char_traitsIcEEC1EP7__sFILESt13_Ios_Openmodem+0x190>
 1005f1c:	d8c00d17 	ldw	r3,52(sp)
 1005f20:	008041b4 	movhi	r2,262
 1005f24:	10a7ca04 	addi	r2,r2,-24792
 1005f28:	18800015 	stw	r2,0(r3)
 1005f2c:	19000704 	addi	r4,r3,28
 1005f30:	1003ef00 	call	1003ef0 <_ZNSt6localeD1Ev>
 1005f34:	00bfffc4 	movi	r2,-1
 1005f38:	d9001417 	ldw	r4,80(sp)
 1005f3c:	d8800115 	stw	r2,4(sp)
 1005f40:	10426f00 	call	10426f0 <_Unwind_SjLj_Resume>
 1005f44:	00bfffc4 	movi	r2,-1
 1005f48:	18bffb1e 	bne	r3,r2,1005f38 <_ZN9__gnu_cxx13stdio_filebufIcSt11char_traitsIcEEC1EP7__sFILESt13_Ios_Openmodem+0x16c>
 1005f4c:	d9001417 	ldw	r4,80(sp)
 1005f50:	00bfffc4 	movi	r2,-1
 1005f54:	d8800115 	stw	r2,4(sp)
 1005f58:	10371380 	call	1037138 <__cxa_call_unexpected>
 1005f5c:	d8800f17 	ldw	r2,60(sp)
 1005f60:	d8800d15 	stw	r2,52(sp)
 1005f64:	d8c00d17 	ldw	r3,52(sp)
 1005f68:	008041b4 	movhi	r2,262
 1005f6c:	10aad504 	addi	r2,r2,-21676
 1005f70:	1809883a 	mov	r4,r3
 1005f74:	18800015 	stw	r2,0(r3)
 1005f78:	103d3940 	call	103d394 <_ZNSt13basic_filebufIcSt11char_traitsIcEE5closeEv>
 1005f7c:	00c00044 	movi	r3,1
 1005f80:	d8c00115 	stw	r3,4(sp)
 1005f84:	d8801417 	ldw	r2,80(sp)
 1005f88:	d8c00d17 	ldw	r3,52(sp)
 1005f8c:	d8800e15 	stw	r2,56(sp)
 1005f90:	19000904 	addi	r4,r3,36
 1005f94:	10358c40 	call	10358c4 <_ZNSt12__basic_fileIcED1Ev>
 1005f98:	d8c00d17 	ldw	r3,52(sp)
 1005f9c:	008041b4 	movhi	r2,262
 1005fa0:	10a7ca04 	addi	r2,r2,-24792
 1005fa4:	18800015 	stw	r2,0(r3)
 1005fa8:	19000704 	addi	r4,r3,28
 1005fac:	1003ef00 	call	1003ef0 <_ZNSt6localeD1Ev>
 1005fb0:	d9000e17 	ldw	r4,56(sp)
 1005fb4:	00bfffc4 	movi	r2,-1
 1005fb8:	d8800115 	stw	r2,4(sp)
 1005fbc:	10426f00 	call	10426f0 <_Unwind_SjLj_Resume>

01005fc0 <_ZN9__gnu_cxx13stdio_filebufIcSt11char_traitsIcEEC2EiSt13_Ios_Openmodem>:
 1005fc0:	deffe804 	addi	sp,sp,-96
 1005fc4:	008040f4 	movhi	r2,259
 1005fc8:	109cae04 	addi	r2,r2,29368
 1005fcc:	00c041b4 	movhi	r3,262
 1005fd0:	18e02204 	addi	r3,r3,-32632
 1005fd4:	d8800615 	stw	r2,24(sp)
 1005fd8:	d9000f15 	stw	r4,60(sp)
 1005fdc:	00804034 	movhi	r2,256
 1005fe0:	10983c04 	addi	r2,r2,24816
 1005fe4:	d809883a 	mov	r4,sp
 1005fe8:	d8c00715 	stw	r3,28(sp)
 1005fec:	d9401015 	stw	r5,64(sp)
 1005ff0:	d9801115 	stw	r6,68(sp)
 1005ff4:	dfc01715 	stw	ra,92(sp)
 1005ff8:	d8800915 	stw	r2,36(sp)
 1005ffc:	d9c01215 	stw	r7,72(sp)
 1006000:	df001615 	stw	fp,88(sp)
 1006004:	ddc01515 	stw	r23,84(sp)
 1006008:	dec00815 	stw	sp,32(sp)
 100600c:	dec00a15 	stw	sp,40(sp)
 1006010:	10424240 	call	1042424 <_Unwind_SjLj_Register>
 1006014:	d9000f17 	ldw	r4,60(sp)
 1006018:	00bfffc4 	movi	r2,-1
 100601c:	d8800115 	stw	r2,4(sp)
 1006020:	103c6c40 	call	103c6c4 <_ZNSt13basic_filebufIcSt11char_traitsIcEEC2Ev>
 1006024:	d8c00f17 	ldw	r3,60(sp)
 1006028:	008041b4 	movhi	r2,262
 100602c:	10a4dc04 	addi	r2,r2,-27792
 1006030:	d9401017 	ldw	r5,64(sp)
 1006034:	18800015 	stw	r2,0(r3)
 1006038:	18c00904 	addi	r3,r3,36
 100603c:	008000c4 	movi	r2,3
 1006040:	d8800115 	stw	r2,4(sp)
 1006044:	d8c01315 	stw	r3,76(sp)
 1006048:	1809883a 	mov	r4,r3
 100604c:	d9801117 	ldw	r6,68(sp)
 1006050:	1035bb40 	call	1035bb4 <_ZNSt12__basic_fileIcE8sys_openEiSt13_Ios_Openmode>
 1006054:	00800084 	movi	r2,2
 1006058:	d8800115 	stw	r2,4(sp)
 100605c:	d9001317 	ldw	r4,76(sp)
 1006060:	10357000 	call	1035700 <_ZNKSt12__basic_fileIcE7is_openEv>
 1006064:	10803fcc 	andi	r2,r2,255
 1006068:	1000071e 	bne	r2,zero,1006088 <_ZN9__gnu_cxx13stdio_filebufIcSt11char_traitsIcEEC2EiSt13_Ios_Openmodem+0xc8>
 100606c:	d809883a 	mov	r4,sp
 1006070:	10424340 	call	1042434 <_Unwind_SjLj_Unregister>
 1006074:	dfc01717 	ldw	ra,92(sp)
 1006078:	df001617 	ldw	fp,88(sp)
 100607c:	ddc01517 	ldw	r23,84(sp)
 1006080:	dec01804 	addi	sp,sp,96
 1006084:	f800283a 	ret
 1006088:	d8800f17 	ldw	r2,60(sp)
 100608c:	d8c01117 	ldw	r3,68(sp)
 1006090:	d9000f17 	ldw	r4,60(sp)
 1006094:	10c00b15 	stw	r3,44(r2)
 1006098:	d8c01217 	ldw	r3,72(sp)
 100609c:	10c01315 	stw	r3,76(r2)
 10060a0:	008000c4 	movi	r2,3
 10060a4:	d8800115 	stw	r2,4(sp)
 10060a8:	103be3c0 	call	103be3c <_ZNSt13basic_filebufIcSt11char_traitsIcEE27_M_allocate_internal_bufferEv>
 10060ac:	d8c00f17 	ldw	r3,60(sp)
 10060b0:	d809883a 	mov	r4,sp
 10060b4:	18801217 	ldw	r2,72(r3)
 10060b8:	18000615 	stw	zero,24(r3)
 10060bc:	18001445 	stb	zero,81(r3)
 10060c0:	18800315 	stw	r2,12(r3)
 10060c4:	18001485 	stb	zero,82(r3)
 10060c8:	18800115 	stw	r2,4(r3)
 10060cc:	18800215 	stw	r2,8(r3)
 10060d0:	18000515 	stw	zero,20(r3)
 10060d4:	18000415 	stw	zero,16(r3)
 10060d8:	10424340 	call	1042434 <_Unwind_SjLj_Unregister>
 10060dc:	dfc01717 	ldw	ra,92(sp)
 10060e0:	df001617 	ldw	fp,88(sp)
 10060e4:	ddc01517 	ldw	r23,84(sp)
 10060e8:	dec01804 	addi	sp,sp,96
 10060ec:	f800283a 	ret
 10060f0:	d8800217 	ldw	r2,8(sp)
 10060f4:	d9000117 	ldw	r4,4(sp)
 10060f8:	d8c00317 	ldw	r3,12(sp)
 10060fc:	d8801415 	stw	r2,80(sp)
 1006100:	00800044 	movi	r2,1
 1006104:	20800c26 	beq	r4,r2,1006138 <_ZN9__gnu_cxx13stdio_filebufIcSt11char_traitsIcEEC2EiSt13_Ios_Openmodem+0x178>
 1006108:	00800084 	movi	r2,2
 100610c:	20801026 	beq	r4,r2,1006150 <_ZN9__gnu_cxx13stdio_filebufIcSt11char_traitsIcEEC2EiSt13_Ios_Openmodem+0x190>
 1006110:	d8c00d17 	ldw	r3,52(sp)
 1006114:	008041b4 	movhi	r2,262
 1006118:	10a7ca04 	addi	r2,r2,-24792
 100611c:	18800015 	stw	r2,0(r3)
 1006120:	19000704 	addi	r4,r3,28
 1006124:	1003ef00 	call	1003ef0 <_ZNSt6localeD1Ev>
 1006128:	00bfffc4 	movi	r2,-1
 100612c:	d9001417 	ldw	r4,80(sp)
 1006130:	d8800115 	stw	r2,4(sp)
 1006134:	10426f00 	call	10426f0 <_Unwind_SjLj_Resume>
 1006138:	00bfffc4 	movi	r2,-1
 100613c:	18bffb1e 	bne	r3,r2,100612c <_ZN9__gnu_cxx13stdio_filebufIcSt11char_traitsIcEEC2EiSt13_Ios_Openmodem+0x16c>
 1006140:	d9001417 	ldw	r4,80(sp)
 1006144:	00bfffc4 	movi	r2,-1
 1006148:	d8800115 	stw	r2,4(sp)
 100614c:	10371380 	call	1037138 <__cxa_call_unexpected>
 1006150:	d8800f17 	ldw	r2,60(sp)
 1006154:	d8800d15 	stw	r2,52(sp)
 1006158:	d8c00d17 	ldw	r3,52(sp)
 100615c:	008041b4 	movhi	r2,262
 1006160:	10aad504 	addi	r2,r2,-21676
 1006164:	1809883a 	mov	r4,r3
 1006168:	18800015 	stw	r2,0(r3)
 100616c:	103d3940 	call	103d394 <_ZNSt13basic_filebufIcSt11char_traitsIcEE5closeEv>
 1006170:	00c00044 	movi	r3,1
 1006174:	d8c00115 	stw	r3,4(sp)
 1006178:	d8801417 	ldw	r2,80(sp)
 100617c:	d8c00d17 	ldw	r3,52(sp)
 1006180:	d8800e15 	stw	r2,56(sp)
 1006184:	19000904 	addi	r4,r3,36
 1006188:	10358c40 	call	10358c4 <_ZNSt12__basic_fileIcED1Ev>
 100618c:	d8c00d17 	ldw	r3,52(sp)
 1006190:	008041b4 	movhi	r2,262
 1006194:	10a7ca04 	addi	r2,r2,-24792
 1006198:	18800015 	stw	r2,0(r3)
 100619c:	19000704 	addi	r4,r3,28
 10061a0:	1003ef00 	call	1003ef0 <_ZNSt6localeD1Ev>
 10061a4:	d9000e17 	ldw	r4,56(sp)
 10061a8:	00bfffc4 	movi	r2,-1
 10061ac:	d8800115 	stw	r2,4(sp)
 10061b0:	10426f00 	call	10426f0 <_Unwind_SjLj_Resume>

010061b4 <_ZN9__gnu_cxx13stdio_filebufIcSt11char_traitsIcEEC2EP7__sFILESt13_Ios_Openmodem>:
 10061b4:	deffe804 	addi	sp,sp,-96
 10061b8:	008040f4 	movhi	r2,259
 10061bc:	109cae04 	addi	r2,r2,29368
 10061c0:	00c041b4 	movhi	r3,262
 10061c4:	18e02704 	addi	r3,r3,-32612
 10061c8:	d8800615 	stw	r2,24(sp)
 10061cc:	d9000f15 	stw	r4,60(sp)
 10061d0:	00804034 	movhi	r2,256
 10061d4:	1098b904 	addi	r2,r2,25316
 10061d8:	d809883a 	mov	r4,sp
 10061dc:	d8c00715 	stw	r3,28(sp)
 10061e0:	d9401015 	stw	r5,64(sp)
 10061e4:	d9801115 	stw	r6,68(sp)
 10061e8:	dfc01715 	stw	ra,92(sp)
 10061ec:	d8800915 	stw	r2,36(sp)
 10061f0:	d9c01215 	stw	r7,72(sp)
 10061f4:	df001615 	stw	fp,88(sp)
 10061f8:	ddc01515 	stw	r23,84(sp)
 10061fc:	dec00815 	stw	sp,32(sp)
 1006200:	dec00a15 	stw	sp,40(sp)
 1006204:	10424240 	call	1042424 <_Unwind_SjLj_Register>
 1006208:	d9000f17 	ldw	r4,60(sp)
 100620c:	00bfffc4 	movi	r2,-1
 1006210:	d8800115 	stw	r2,4(sp)
 1006214:	103c6c40 	call	103c6c4 <_ZNSt13basic_filebufIcSt11char_traitsIcEEC2Ev>
 1006218:	d8c00f17 	ldw	r3,60(sp)
 100621c:	008041b4 	movhi	r2,262
 1006220:	10a4dc04 	addi	r2,r2,-27792
 1006224:	d9401017 	ldw	r5,64(sp)
 1006228:	18800015 	stw	r2,0(r3)
 100622c:	18c00904 	addi	r3,r3,36
 1006230:	008000c4 	movi	r2,3
 1006234:	d8800115 	stw	r2,4(sp)
 1006238:	d8c01315 	stw	r3,76(sp)
 100623c:	1809883a 	mov	r4,r3
 1006240:	d9801117 	ldw	r6,68(sp)
 1006244:	103571c0 	call	103571c <_ZNSt12__basic_fileIcE8sys_openEP7__sFILESt13_Ios_Openmode>
 1006248:	00800084 	movi	r2,2
 100624c:	d8800115 	stw	r2,4(sp)
 1006250:	d9001317 	ldw	r4,76(sp)
 1006254:	10357000 	call	1035700 <_ZNKSt12__basic_fileIcE7is_openEv>
 1006258:	10803fcc 	andi	r2,r2,255
 100625c:	1000071e 	bne	r2,zero,100627c <_ZN9__gnu_cxx13stdio_filebufIcSt11char_traitsIcEEC2EP7__sFILESt13_Ios_Openmodem+0xc8>
 1006260:	d809883a 	mov	r4,sp
 1006264:	10424340 	call	1042434 <_Unwind_SjLj_Unregister>
 1006268:	dfc01717 	ldw	ra,92(sp)
 100626c:	df001617 	ldw	fp,88(sp)
 1006270:	ddc01517 	ldw	r23,84(sp)
 1006274:	dec01804 	addi	sp,sp,96
 1006278:	f800283a 	ret
 100627c:	d8800f17 	ldw	r2,60(sp)
 1006280:	d8c01117 	ldw	r3,68(sp)
 1006284:	d9000f17 	ldw	r4,60(sp)
 1006288:	10c00b15 	stw	r3,44(r2)
 100628c:	d8c01217 	ldw	r3,72(sp)
 1006290:	10c01315 	stw	r3,76(r2)
 1006294:	008000c4 	movi	r2,3
 1006298:	d8800115 	stw	r2,4(sp)
 100629c:	103be3c0 	call	103be3c <_ZNSt13basic_filebufIcSt11char_traitsIcEE27_M_allocate_internal_bufferEv>
 10062a0:	d8c00f17 	ldw	r3,60(sp)
 10062a4:	d809883a 	mov	r4,sp
 10062a8:	18801217 	ldw	r2,72(r3)
 10062ac:	18000615 	stw	zero,24(r3)
 10062b0:	18001445 	stb	zero,81(r3)
 10062b4:	18800315 	stw	r2,12(r3)
 10062b8:	18001485 	stb	zero,82(r3)
 10062bc:	18800115 	stw	r2,4(r3)
 10062c0:	18800215 	stw	r2,8(r3)
 10062c4:	18000515 	stw	zero,20(r3)
 10062c8:	18000415 	stw	zero,16(r3)
 10062cc:	10424340 	call	1042434 <_Unwind_SjLj_Unregister>
 10062d0:	dfc01717 	ldw	ra,92(sp)
 10062d4:	df001617 	ldw	fp,88(sp)
 10062d8:	ddc01517 	ldw	r23,84(sp)
 10062dc:	dec01804 	addi	sp,sp,96
 10062e0:	f800283a 	ret
 10062e4:	d8800217 	ldw	r2,8(sp)
 10062e8:	d9000117 	ldw	r4,4(sp)
 10062ec:	d8c00317 	ldw	r3,12(sp)
 10062f0:	d8801415 	stw	r2,80(sp)
 10062f4:	00800044 	movi	r2,1
 10062f8:	20800c26 	beq	r4,r2,100632c <_ZN9__gnu_cxx13stdio_filebufIcSt11char_traitsIcEEC2EP7__sFILESt13_Ios_Openmodem+0x178>
 10062fc:	00800084 	movi	r2,2
 1006300:	20801026 	beq	r4,r2,1006344 <_ZN9__gnu_cxx13stdio_filebufIcSt11char_traitsIcEEC2EP7__sFILESt13_Ios_Openmodem+0x190>
 1006304:	d8c00d17 	ldw	r3,52(sp)
 1006308:	008041b4 	movhi	r2,262
 100630c:	10a7ca04 	addi	r2,r2,-24792
 1006310:	18800015 	stw	r2,0(r3)
 1006314:	19000704 	addi	r4,r3,28
 1006318:	1003ef00 	call	1003ef0 <_ZNSt6localeD1Ev>
 100631c:	00bfffc4 	movi	r2,-1
 1006320:	d9001417 	ldw	r4,80(sp)
 1006324:	d8800115 	stw	r2,4(sp)
 1006328:	10426f00 	call	10426f0 <_Unwind_SjLj_Resume>
 100632c:	00bfffc4 	movi	r2,-1
 1006330:	18bffb1e 	bne	r3,r2,1006320 <_ZN9__gnu_cxx13stdio_filebufIcSt11char_traitsIcEEC2EP7__sFILESt13_Ios_Openmodem+0x16c>
 1006334:	d9001417 	ldw	r4,80(sp)
 1006338:	00bfffc4 	movi	r2,-1
 100633c:	d8800115 	stw	r2,4(sp)
 1006340:	10371380 	call	1037138 <__cxa_call_unexpected>
 1006344:	d8800f17 	ldw	r2,60(sp)
 1006348:	d8800d15 	stw	r2,52(sp)
 100634c:	d8c00d17 	ldw	r3,52(sp)
 1006350:	008041b4 	movhi	r2,262
 1006354:	10aad504 	addi	r2,r2,-21676
 1006358:	1809883a 	mov	r4,r3
 100635c:	18800015 	stw	r2,0(r3)
 1006360:	103d3940 	call	103d394 <_ZNSt13basic_filebufIcSt11char_traitsIcEE5closeEv>
 1006364:	00c00044 	movi	r3,1
 1006368:	d8c00115 	stw	r3,4(sp)
 100636c:	d8801417 	ldw	r2,80(sp)
 1006370:	d8c00d17 	ldw	r3,52(sp)
 1006374:	d8800e15 	stw	r2,56(sp)
 1006378:	19000904 	addi	r4,r3,36
 100637c:	10358c40 	call	10358c4 <_ZNSt12__basic_fileIcED1Ev>
 1006380:	d8c00d17 	ldw	r3,52(sp)
 1006384:	008041b4 	movhi	r2,262
 1006388:	10a7ca04 	addi	r2,r2,-24792
 100638c:	18800015 	stw	r2,0(r3)
 1006390:	19000704 	addi	r4,r3,28
 1006394:	1003ef00 	call	1003ef0 <_ZNSt6localeD1Ev>
 1006398:	d9000e17 	ldw	r4,56(sp)
 100639c:	00bfffc4 	movi	r2,-1
 10063a0:	d8800115 	stw	r2,4(sp)
 10063a4:	10426f00 	call	10426f0 <_Unwind_SjLj_Resume>

010063a8 <_ZN9__gnu_cxx13stdio_filebufIcSt11char_traitsIcEEC1EiSt13_Ios_Openmodem>:
 10063a8:	deffe804 	addi	sp,sp,-96
 10063ac:	008040f4 	movhi	r2,259
 10063b0:	109cae04 	addi	r2,r2,29368
 10063b4:	00c041b4 	movhi	r3,262
 10063b8:	18e02c04 	addi	r3,r3,-32592
 10063bc:	d8800615 	stw	r2,24(sp)
 10063c0:	d9000f15 	stw	r4,60(sp)
 10063c4:	00804034 	movhi	r2,256
 10063c8:	10993604 	addi	r2,r2,25816
 10063cc:	d809883a 	mov	r4,sp
 10063d0:	d8c00715 	stw	r3,28(sp)
 10063d4:	d9401015 	stw	r5,64(sp)
 10063d8:	d9801115 	stw	r6,68(sp)
 10063dc:	dfc01715 	stw	ra,92(sp)
 10063e0:	d8800915 	stw	r2,36(sp)
 10063e4:	d9c01215 	stw	r7,72(sp)
 10063e8:	df001615 	stw	fp,88(sp)
 10063ec:	ddc01515 	stw	r23,84(sp)
 10063f0:	dec00815 	stw	sp,32(sp)
 10063f4:	dec00a15 	stw	sp,40(sp)
 10063f8:	10424240 	call	1042424 <_Unwind_SjLj_Register>
 10063fc:	d9000f17 	ldw	r4,60(sp)
 1006400:	00bfffc4 	movi	r2,-1
 1006404:	d8800115 	stw	r2,4(sp)
 1006408:	103c6c40 	call	103c6c4 <_ZNSt13basic_filebufIcSt11char_traitsIcEEC2Ev>
 100640c:	d8c00f17 	ldw	r3,60(sp)
 1006410:	008041b4 	movhi	r2,262
 1006414:	10a4dc04 	addi	r2,r2,-27792
 1006418:	d9401017 	ldw	r5,64(sp)
 100641c:	18800015 	stw	r2,0(r3)
 1006420:	18c00904 	addi	r3,r3,36
 1006424:	008000c4 	movi	r2,3
 1006428:	d8800115 	stw	r2,4(sp)
 100642c:	d8c01315 	stw	r3,76(sp)
 1006430:	1809883a 	mov	r4,r3
 1006434:	d9801117 	ldw	r6,68(sp)
 1006438:	1035bb40 	call	1035bb4 <_ZNSt12__basic_fileIcE8sys_openEiSt13_Ios_Openmode>
 100643c:	00800084 	movi	r2,2
 1006440:	d8800115 	stw	r2,4(sp)
 1006444:	d9001317 	ldw	r4,76(sp)
 1006448:	10357000 	call	1035700 <_ZNKSt12__basic_fileIcE7is_openEv>
 100644c:	10803fcc 	andi	r2,r2,255
 1006450:	1000071e 	bne	r2,zero,1006470 <_ZN9__gnu_cxx13stdio_filebufIcSt11char_traitsIcEEC1EiSt13_Ios_Openmodem+0xc8>
 1006454:	d809883a 	mov	r4,sp
 1006458:	10424340 	call	1042434 <_Unwind_SjLj_Unregister>
 100645c:	dfc01717 	ldw	ra,92(sp)
 1006460:	df001617 	ldw	fp,88(sp)
 1006464:	ddc01517 	ldw	r23,84(sp)
 1006468:	dec01804 	addi	sp,sp,96
 100646c:	f800283a 	ret
 1006470:	d8800f17 	ldw	r2,60(sp)
 1006474:	d8c01117 	ldw	r3,68(sp)
 1006478:	d9000f17 	ldw	r4,60(sp)
 100647c:	10c00b15 	stw	r3,44(r2)
 1006480:	d8c01217 	ldw	r3,72(sp)
 1006484:	10c01315 	stw	r3,76(r2)
 1006488:	008000c4 	movi	r2,3
 100648c:	d8800115 	stw	r2,4(sp)
 1006490:	103be3c0 	call	103be3c <_ZNSt13basic_filebufIcSt11char_traitsIcEE27_M_allocate_internal_bufferEv>
 1006494:	d8c00f17 	ldw	r3,60(sp)
 1006498:	d809883a 	mov	r4,sp
 100649c:	18801217 	ldw	r2,72(r3)
 10064a0:	18000615 	stw	zero,24(r3)
 10064a4:	18001445 	stb	zero,81(r3)
 10064a8:	18800315 	stw	r2,12(r3)
 10064ac:	18001485 	stb	zero,82(r3)
 10064b0:	18800115 	stw	r2,4(r3)
 10064b4:	18800215 	stw	r2,8(r3)
 10064b8:	18000515 	stw	zero,20(r3)
 10064bc:	18000415 	stw	zero,16(r3)
 10064c0:	10424340 	call	1042434 <_Unwind_SjLj_Unregister>
 10064c4:	dfc01717 	ldw	ra,92(sp)
 10064c8:	df001617 	ldw	fp,88(sp)
 10064cc:	ddc01517 	ldw	r23,84(sp)
 10064d0:	dec01804 	addi	sp,sp,96
 10064d4:	f800283a 	ret
 10064d8:	d8800217 	ldw	r2,8(sp)
 10064dc:	d9000117 	ldw	r4,4(sp)
 10064e0:	d8c00317 	ldw	r3,12(sp)
 10064e4:	d8801415 	stw	r2,80(sp)
 10064e8:	00800044 	movi	r2,1
 10064ec:	20800c26 	beq	r4,r2,1006520 <_ZN9__gnu_cxx13stdio_filebufIcSt11char_traitsIcEEC1EiSt13_Ios_Openmodem+0x178>
 10064f0:	00800084 	movi	r2,2
 10064f4:	20801026 	beq	r4,r2,1006538 <_ZN9__gnu_cxx13stdio_filebufIcSt11char_traitsIcEEC1EiSt13_Ios_Openmodem+0x190>
 10064f8:	d8c00d17 	ldw	r3,52(sp)
 10064fc:	008041b4 	movhi	r2,262
 1006500:	10a7ca04 	addi	r2,r2,-24792
 1006504:	18800015 	stw	r2,0(r3)
 1006508:	19000704 	addi	r4,r3,28
 100650c:	1003ef00 	call	1003ef0 <_ZNSt6localeD1Ev>
 1006510:	00bfffc4 	movi	r2,-1
 1006514:	d9001417 	ldw	r4,80(sp)
 1006518:	d8800115 	stw	r2,4(sp)
 100651c:	10426f00 	call	10426f0 <_Unwind_SjLj_Resume>
 1006520:	00bfffc4 	movi	r2,-1
 1006524:	18bffb1e 	bne	r3,r2,1006514 <_ZN9__gnu_cxx13stdio_filebufIcSt11char_traitsIcEEC1EiSt13_Ios_Openmodem+0x16c>
 1006528:	d9001417 	ldw	r4,80(sp)
 100652c:	00bfffc4 	movi	r2,-1
 1006530:	d8800115 	stw	r2,4(sp)
 1006534:	10371380 	call	1037138 <__cxa_call_unexpected>
 1006538:	d8800f17 	ldw	r2,60(sp)
 100653c:	d8800d15 	stw	r2,52(sp)
 1006540:	d8c00d17 	ldw	r3,52(sp)
 1006544:	008041b4 	movhi	r2,262
 1006548:	10aad504 	addi	r2,r2,-21676
 100654c:	1809883a 	mov	r4,r3
 1006550:	18800015 	stw	r2,0(r3)
 1006554:	103d3940 	call	103d394 <_ZNSt13basic_filebufIcSt11char_traitsIcEE5closeEv>
 1006558:	00c00044 	movi	r3,1
 100655c:	d8c00115 	stw	r3,4(sp)
 1006560:	d8801417 	ldw	r2,80(sp)
 1006564:	d8c00d17 	ldw	r3,52(sp)
 1006568:	d8800e15 	stw	r2,56(sp)
 100656c:	19000904 	addi	r4,r3,36
 1006570:	10358c40 	call	10358c4 <_ZNSt12__basic_fileIcED1Ev>
 1006574:	d8c00d17 	ldw	r3,52(sp)
 1006578:	008041b4 	movhi	r2,262
 100657c:	10a7ca04 	addi	r2,r2,-24792
 1006580:	18800015 	stw	r2,0(r3)
 1006584:	19000704 	addi	r4,r3,28
 1006588:	1003ef00 	call	1003ef0 <_ZNSt6localeD1Ev>
 100658c:	d9000e17 	ldw	r4,56(sp)
 1006590:	00bfffc4 	movi	r2,-1
 1006594:	d8800115 	stw	r2,4(sp)
 1006598:	10426f00 	call	10426f0 <_Unwind_SjLj_Resume>

0100659c <_ZN9__gnu_cxx13stdio_filebufIcSt11char_traitsIcEED0Ev>:
 100659c:	deffed04 	addi	sp,sp,-76
 10065a0:	008040f4 	movhi	r2,259
 10065a4:	109cae04 	addi	r2,r2,29368
 10065a8:	00c041b4 	movhi	r3,262
 10065ac:	18e03044 	addi	r3,r3,-32575
 10065b0:	d8800615 	stw	r2,24(sp)
 10065b4:	d9000e15 	stw	r4,56(sp)
 10065b8:	00804034 	movhi	r2,256
 10065bc:	10999404 	addi	r2,r2,26192
 10065c0:	d809883a 	mov	r4,sp
 10065c4:	dfc01215 	stw	ra,72(sp)
 10065c8:	d8c00715 	stw	r3,28(sp)
 10065cc:	d8800915 	stw	r2,36(sp)
 10065d0:	df001115 	stw	fp,68(sp)
 10065d4:	ddc01015 	stw	r23,64(sp)
 10065d8:	dec00815 	stw	sp,32(sp)
 10065dc:	dec00a15 	stw	sp,40(sp)
 10065e0:	10424240 	call	1042424 <_Unwind_SjLj_Register>
 10065e4:	d8c00e17 	ldw	r3,56(sp)
 10065e8:	008041b4 	movhi	r2,262
 10065ec:	10aad504 	addi	r2,r2,-21676
 10065f0:	1809883a 	mov	r4,r3
 10065f4:	18800015 	stw	r2,0(r3)
 10065f8:	103d3940 	call	103d394 <_ZNSt13basic_filebufIcSt11char_traitsIcEE5closeEv>
 10065fc:	d8800e17 	ldw	r2,56(sp)
 1006600:	00c00044 	movi	r3,1
 1006604:	d8c00115 	stw	r3,4(sp)
 1006608:	d8800d15 	stw	r2,52(sp)
 100660c:	11000904 	addi	r4,r2,36
 1006610:	10358c40 	call	10358c4 <_ZNSt12__basic_fileIcED1Ev>
 1006614:	d8c00d17 	ldw	r3,52(sp)
 1006618:	008041b4 	movhi	r2,262
 100661c:	10a7ca04 	addi	r2,r2,-24792
 1006620:	19000704 	addi	r4,r3,28
 1006624:	18800015 	stw	r2,0(r3)
 1006628:	1003ef00 	call	1003ef0 <_ZNSt6localeD1Ev>
 100662c:	d9000e17 	ldw	r4,56(sp)
 1006630:	1036b440 	call	1036b44 <_ZdlPv>
 1006634:	d809883a 	mov	r4,sp
 1006638:	10424340 	call	1042434 <_Unwind_SjLj_Unregister>
 100663c:	dfc01217 	ldw	ra,72(sp)
 1006640:	df001117 	ldw	fp,68(sp)
 1006644:	ddc01017 	ldw	r23,64(sp)
 1006648:	dec01304 	addi	sp,sp,76
 100664c:	f800283a 	ret
 1006650:	d8c00217 	ldw	r3,8(sp)
 1006654:	008041b4 	movhi	r2,262
 1006658:	10a7ca04 	addi	r2,r2,-24792
 100665c:	d8c00f15 	stw	r3,60(sp)
 1006660:	d8c00d17 	ldw	r3,52(sp)
 1006664:	18800015 	stw	r2,0(r3)
 1006668:	19000704 	addi	r4,r3,28
 100666c:	1003ef00 	call	1003ef0 <_ZNSt6localeD1Ev>
 1006670:	d9000f17 	ldw	r4,60(sp)
 1006674:	00bfffc4 	movi	r2,-1
 1006678:	d8800115 	stw	r2,4(sp)
 100667c:	10426f00 	call	10426f0 <_Unwind_SjLj_Resume>

01006680 <_ZN9__gnu_cxx13stdio_filebufIcSt11char_traitsIcEED1Ev>:
 1006680:	deffed04 	addi	sp,sp,-76
 1006684:	008040f4 	movhi	r2,259
 1006688:	109cae04 	addi	r2,r2,29368
 100668c:	00c041b4 	movhi	r3,262
 1006690:	18e031c4 	addi	r3,r3,-32569
 1006694:	d8800615 	stw	r2,24(sp)
 1006698:	d9000e15 	stw	r4,56(sp)
 100669c:	00804034 	movhi	r2,256
 10066a0:	1099cb04 	addi	r2,r2,26412
 10066a4:	d809883a 	mov	r4,sp
 10066a8:	dfc01215 	stw	ra,72(sp)
 10066ac:	d8c00715 	stw	r3,28(sp)
 10066b0:	d8800915 	stw	r2,36(sp)
 10066b4:	df001115 	stw	fp,68(sp)
 10066b8:	ddc01015 	stw	r23,64(sp)
 10066bc:	dec00815 	stw	sp,32(sp)
 10066c0:	dec00a15 	stw	sp,40(sp)
 10066c4:	10424240 	call	1042424 <_Unwind_SjLj_Register>
 10066c8:	d8c00e17 	ldw	r3,56(sp)
 10066cc:	008041b4 	movhi	r2,262
 10066d0:	10aad504 	addi	r2,r2,-21676
 10066d4:	1809883a 	mov	r4,r3
 10066d8:	18800015 	stw	r2,0(r3)
 10066dc:	d8c00d15 	stw	r3,52(sp)
 10066e0:	103d3940 	call	103d394 <_ZNSt13basic_filebufIcSt11char_traitsIcEE5closeEv>
 10066e4:	d8800d17 	ldw	r2,52(sp)
 10066e8:	00c00044 	movi	r3,1
 10066ec:	d8c00115 	stw	r3,4(sp)
 10066f0:	11000904 	addi	r4,r2,36
 10066f4:	10358c40 	call	10358c4 <_ZNSt12__basic_fileIcED1Ev>
 10066f8:	d8c00d17 	ldw	r3,52(sp)
 10066fc:	008041b4 	movhi	r2,262
 1006700:	10a7ca04 	addi	r2,r2,-24792
 1006704:	19000704 	addi	r4,r3,28
 1006708:	18800015 	stw	r2,0(r3)
 100670c:	1003ef00 	call	1003ef0 <_ZNSt6localeD1Ev>
 1006710:	d809883a 	mov	r4,sp
 1006714:	10424340 	call	1042434 <_Unwind_SjLj_Unregister>
 1006718:	dfc01217 	ldw	ra,72(sp)
 100671c:	df001117 	ldw	fp,68(sp)
 1006720:	ddc01017 	ldw	r23,64(sp)
 1006724:	dec01304 	addi	sp,sp,76
 1006728:	f800283a 	ret
 100672c:	d8c00217 	ldw	r3,8(sp)
 1006730:	008041b4 	movhi	r2,262
 1006734:	10a7ca04 	addi	r2,r2,-24792
 1006738:	d8c00f15 	stw	r3,60(sp)
 100673c:	d8c00d17 	ldw	r3,52(sp)
 1006740:	18800015 	stw	r2,0(r3)
 1006744:	19000704 	addi	r4,r3,28
 1006748:	1003ef00 	call	1003ef0 <_ZNSt6localeD1Ev>
 100674c:	d9000f17 	ldw	r4,60(sp)
 1006750:	00bfffc4 	movi	r2,-1
 1006754:	d8800115 	stw	r2,4(sp)
 1006758:	10426f00 	call	10426f0 <_Unwind_SjLj_Resume>

0100675c <_ZN9__gnu_cxx13stdio_filebufIcSt11char_traitsIcEED2Ev>:
 100675c:	deffed04 	addi	sp,sp,-76
 1006760:	008040f4 	movhi	r2,259
 1006764:	109cae04 	addi	r2,r2,29368
 1006768:	00c041b4 	movhi	r3,262
 100676c:	18e03344 	addi	r3,r3,-32563
 1006770:	d8800615 	stw	r2,24(sp)
 1006774:	d9000e15 	stw	r4,56(sp)
 1006778:	00804034 	movhi	r2,256
 100677c:	109a0204 	addi	r2,r2,26632
 1006780:	d809883a 	mov	r4,sp
 1006784:	dfc01215 	stw	ra,72(sp)
 1006788:	d8c00715 	stw	r3,28(sp)
 100678c:	d8800915 	stw	r2,36(sp)
 1006790:	df001115 	stw	fp,68(sp)
 1006794:	ddc01015 	stw	r23,64(sp)
 1006798:	dec00815 	stw	sp,32(sp)
 100679c:	dec00a15 	stw	sp,40(sp)
 10067a0:	10424240 	call	1042424 <_Unwind_SjLj_Register>
 10067a4:	d8c00e17 	ldw	r3,56(sp)
 10067a8:	008041b4 	movhi	r2,262
 10067ac:	10aad504 	addi	r2,r2,-21676
 10067b0:	1809883a 	mov	r4,r3
 10067b4:	18800015 	stw	r2,0(r3)
 10067b8:	d8c00d15 	stw	r3,52(sp)
 10067bc:	103d3940 	call	103d394 <_ZNSt13basic_filebufIcSt11char_traitsIcEE5closeEv>
 10067c0:	d8800d17 	ldw	r2,52(sp)
 10067c4:	00c00044 	movi	r3,1
 10067c8:	d8c00115 	stw	r3,4(sp)
 10067cc:	11000904 	addi	r4,r2,36
 10067d0:	10358c40 	call	10358c4 <_ZNSt12__basic_fileIcED1Ev>
 10067d4:	d8c00d17 	ldw	r3,52(sp)
 10067d8:	008041b4 	movhi	r2,262
 10067dc:	10a7ca04 	addi	r2,r2,-24792
 10067e0:	19000704 	addi	r4,r3,28
 10067e4:	18800015 	stw	r2,0(r3)
 10067e8:	1003ef00 	call	1003ef0 <_ZNSt6localeD1Ev>
 10067ec:	d809883a 	mov	r4,sp
 10067f0:	10424340 	call	1042434 <_Unwind_SjLj_Unregister>
 10067f4:	dfc01217 	ldw	ra,72(sp)
 10067f8:	df001117 	ldw	fp,68(sp)
 10067fc:	ddc01017 	ldw	r23,64(sp)
 1006800:	dec01304 	addi	sp,sp,76
 1006804:	f800283a 	ret
 1006808:	d8c00217 	ldw	r3,8(sp)
 100680c:	008041b4 	movhi	r2,262
 1006810:	10a7ca04 	addi	r2,r2,-24792
 1006814:	d8c00f15 	stw	r3,60(sp)
 1006818:	d8c00d17 	ldw	r3,52(sp)
 100681c:	18800015 	stw	r2,0(r3)
 1006820:	19000704 	addi	r4,r3,28
 1006824:	1003ef00 	call	1003ef0 <_ZNSt6localeD1Ev>
 1006828:	d9000f17 	ldw	r4,60(sp)
 100682c:	00bfffc4 	movi	r2,-1
 1006830:	d8800115 	stw	r2,4(sp)
 1006834:	10426f00 	call	10426f0 <_Unwind_SjLj_Resume>

01006838 <_ZNKSt9basic_iosIcSt11char_traitsIcEE7rdstateEv>:
 1006838:	20800517 	ldw	r2,20(r4)
 100683c:	f800283a 	ret

01006840 <_ZNKSt9basic_iosIcSt11char_traitsIcEE4failEv>:
 1006840:	20800517 	ldw	r2,20(r4)
 1006844:	1080014c 	andi	r2,r2,5
 1006848:	1004c03a 	cmpne	r2,r2,zero
 100684c:	f800283a 	ret

01006850 <_ZNKSt9basic_iosIcSt11char_traitsIcEE10exceptionsEv>:
 1006850:	20800417 	ldw	r2,16(r4)
 1006854:	f800283a 	ret

01006858 <_ZNKSt9basic_iosIcSt11char_traitsIcEE3tieEv>:
 1006858:	20801c17 	ldw	r2,112(r4)
 100685c:	f800283a 	ret

01006860 <_ZNSt9basic_iosIcSt11char_traitsIcEE3tieEPSo>:
 1006860:	20801c17 	ldw	r2,112(r4)
 1006864:	21401c15 	stw	r5,112(r4)
 1006868:	f800283a 	ret

0100686c <_ZNKSt9basic_iosIcSt11char_traitsIcEE5rdbufEv>:
 100686c:	20801e17 	ldw	r2,120(r4)
 1006870:	f800283a 	ret

01006874 <_ZNSt9basic_iosIcSt11char_traitsIcEE15_M_cache_localeERKSt6locale>:
 1006874:	defffd04 	addi	sp,sp,-12
 1006878:	dc400115 	stw	r17,4(sp)
 100687c:	2023883a 	mov	r17,r4
 1006880:	2809883a 	mov	r4,r5
 1006884:	dc000015 	stw	r16,0(sp)
 1006888:	dfc00215 	stw	ra,8(sp)
 100688c:	2821883a 	mov	r16,r5
 1006890:	100f8600 	call	100f860 <_ZSt9has_facetISt5ctypeIcEEbRKSt6locale>
 1006894:	10803fcc 	andi	r2,r2,255
 1006898:	8009883a 	mov	r4,r16
 100689c:	10001526 	beq	r2,zero,10068f4 <_ZNSt9basic_iosIcSt11char_traitsIcEE15_M_cache_localeERKSt6locale+0x80>
 10068a0:	1038c540 	call	1038c54 <_ZSt9use_facetISt5ctypeIcEERKT_RKSt6locale>
 10068a4:	88801f15 	stw	r2,124(r17)
 10068a8:	8009883a 	mov	r4,r16
 10068ac:	100f4900 	call	100f490 <_ZSt9has_facetISt7num_putIcSt19ostreambuf_iteratorIcSt11char_traitsIcEEEEbRKSt6locale>
 10068b0:	10803fcc 	andi	r2,r2,255
 10068b4:	8009883a 	mov	r4,r16
 10068b8:	10001226 	beq	r2,zero,1006904 <_ZNSt9basic_iosIcSt11char_traitsIcEE15_M_cache_localeERKSt6locale+0x90>
 10068bc:	100fc6c0 	call	100fc6c <_ZSt9use_facetISt7num_putIcSt19ostreambuf_iteratorIcSt11char_traitsIcEEEERKT_RKSt6locale>
 10068c0:	88802015 	stw	r2,128(r17)
 10068c4:	8009883a 	mov	r4,r16
 10068c8:	100f39c0 	call	100f39c <_ZSt9has_facetISt7num_getIcSt19istreambuf_iteratorIcSt11char_traitsIcEEEEbRKSt6locale>
 10068cc:	10803fcc 	andi	r2,r2,255
 10068d0:	10000a26 	beq	r2,zero,10068fc <_ZNSt9basic_iosIcSt11char_traitsIcEE15_M_cache_localeERKSt6locale+0x88>
 10068d4:	8009883a 	mov	r4,r16
 10068d8:	100fc140 	call	100fc14 <_ZSt9use_facetISt7num_getIcSt19istreambuf_iteratorIcSt11char_traitsIcEEEERKT_RKSt6locale>
 10068dc:	88802115 	stw	r2,132(r17)
 10068e0:	dfc00217 	ldw	ra,8(sp)
 10068e4:	dc400117 	ldw	r17,4(sp)
 10068e8:	dc000017 	ldw	r16,0(sp)
 10068ec:	dec00304 	addi	sp,sp,12
 10068f0:	f800283a 	ret
 10068f4:	88001f15 	stw	zero,124(r17)
 10068f8:	003feb06 	br	10068a8 <_ZNSt9basic_iosIcSt11char_traitsIcEE15_M_cache_localeERKSt6locale+0x34>
 10068fc:	88002115 	stw	zero,132(r17)
 1006900:	003ff706 	br	10068e0 <_ZNSt9basic_iosIcSt11char_traitsIcEE15_M_cache_localeERKSt6locale+0x6c>
 1006904:	88002015 	stw	zero,128(r17)
 1006908:	003fee06 	br	10068c4 <_ZNSt9basic_iosIcSt11char_traitsIcEE15_M_cache_localeERKSt6locale+0x50>

0100690c <_ZNSt9basic_iosIcSt11char_traitsIcEE4initEPSt15basic_streambufIcS1_E>:
 100690c:	defffd04 	addi	sp,sp,-12
 1006910:	dfc00215 	stw	ra,8(sp)
 1006914:	dc800115 	stw	r18,4(sp)
 1006918:	dc000015 	stw	r16,0(sp)
 100691c:	2825883a 	mov	r18,r5
 1006920:	2021883a 	mov	r16,r4
 1006924:	103b0680 	call	103b068 <_ZNSt8ios_base7_M_initEv>
 1006928:	81401b04 	addi	r5,r16,108
 100692c:	8009883a 	mov	r4,r16
 1006930:	10068740 	call	1006874 <_ZNSt9basic_iosIcSt11char_traitsIcEE15_M_cache_localeERKSt6locale>
 1006934:	9005003a 	cmpeq	r2,r18,zero
 1006938:	80800515 	stw	r2,20(r16)
 100693c:	80001d05 	stb	zero,116(r16)
 1006940:	80001d45 	stb	zero,117(r16)
 1006944:	80001c15 	stw	zero,112(r16)
 1006948:	80000415 	stw	zero,16(r16)
 100694c:	84801e15 	stw	r18,120(r16)
 1006950:	dfc00217 	ldw	ra,8(sp)
 1006954:	dc800117 	ldw	r18,4(sp)
 1006958:	dc000017 	ldw	r16,0(sp)
 100695c:	dec00304 	addi	sp,sp,12
 1006960:	f800283a 	ret

01006964 <_ZNSt9basic_iosIcSt11char_traitsIcEEC1Ev>:
 1006964:	defffe04 	addi	sp,sp,-8
 1006968:	dc000015 	stw	r16,0(sp)
 100696c:	dfc00115 	stw	ra,4(sp)
 1006970:	2021883a 	mov	r16,r4
 1006974:	103a7c00 	call	103a7c0 <_ZNSt8ios_baseC2Ev>
 1006978:	008041b4 	movhi	r2,262
 100697c:	10a50104 	addi	r2,r2,-27644
 1006980:	80800015 	stw	r2,0(r16)
 1006984:	80002115 	stw	zero,132(r16)
 1006988:	80001c15 	stw	zero,112(r16)
 100698c:	80001d05 	stb	zero,116(r16)
 1006990:	80001d45 	stb	zero,117(r16)
 1006994:	80001e15 	stw	zero,120(r16)
 1006998:	80001f15 	stw	zero,124(r16)
 100699c:	80002015 	stw	zero,128(r16)
 10069a0:	dfc00117 	ldw	ra,4(sp)
 10069a4:	dc000017 	ldw	r16,0(sp)
 10069a8:	dec00204 	addi	sp,sp,8
 10069ac:	f800283a 	ret

010069b0 <_ZNSt9basic_iosIcSt11char_traitsIcEEC2Ev>:
 10069b0:	defffe04 	addi	sp,sp,-8
 10069b4:	dc000015 	stw	r16,0(sp)
 10069b8:	dfc00115 	stw	ra,4(sp)
 10069bc:	2021883a 	mov	r16,r4
 10069c0:	103a7c00 	call	103a7c0 <_ZNSt8ios_baseC2Ev>
 10069c4:	008041b4 	movhi	r2,262
 10069c8:	10a50104 	addi	r2,r2,-27644
 10069cc:	80800015 	stw	r2,0(r16)
 10069d0:	80002115 	stw	zero,132(r16)
 10069d4:	80001c15 	stw	zero,112(r16)
 10069d8:	80001d05 	stb	zero,116(r16)
 10069dc:	80001d45 	stb	zero,117(r16)
 10069e0:	80001e15 	stw	zero,120(r16)
 10069e4:	80001f15 	stw	zero,124(r16)
 10069e8:	80002015 	stw	zero,128(r16)
 10069ec:	dfc00117 	ldw	ra,4(sp)
 10069f0:	dc000017 	ldw	r16,0(sp)
 10069f4:	dec00204 	addi	sp,sp,8
 10069f8:	f800283a 	ret

010069fc <_ZNKSt9basic_iosIcSt11char_traitsIcEE6narrowEcc>:
 10069fc:	21001f17 	ldw	r4,124(r4)
 1006a00:	defffd04 	addi	sp,sp,-12
 1006a04:	dfc00215 	stw	ra,8(sp)
 1006a08:	dc400115 	stw	r17,4(sp)
 1006a0c:	dc000015 	stw	r16,0(sp)
 1006a10:	20001f26 	beq	r4,zero,1006a90 <_ZNKSt9basic_iosIcSt11char_traitsIcEE6narrowEcc+0x94>
 1006a14:	28803fcc 	andi	r2,r5,255
 1006a18:	1105883a 	add	r2,r2,r4
 1006a1c:	14404704 	addi	r17,r2,284
 1006a20:	88800047 	ldb	r2,1(r17)
 1006a24:	10000526 	beq	r2,zero,1006a3c <_ZNKSt9basic_iosIcSt11char_traitsIcEE6narrowEcc+0x40>
 1006a28:	dfc00217 	ldw	ra,8(sp)
 1006a2c:	dc400117 	ldw	r17,4(sp)
 1006a30:	dc000017 	ldw	r16,0(sp)
 1006a34:	dec00304 	addi	sp,sp,12
 1006a38:	f800283a 	ret
 1006a3c:	20800017 	ldw	r2,0(r4)
 1006a40:	34003fcc 	andi	r16,r6,255
 1006a44:	8400201c 	xori	r16,r16,128
 1006a48:	10c00817 	ldw	r3,32(r2)
 1006a4c:	29403fcc 	andi	r5,r5,255
 1006a50:	843fe004 	addi	r16,r16,-128
 1006a54:	2940201c 	xori	r5,r5,128
 1006a58:	297fe004 	addi	r5,r5,-128
 1006a5c:	800d883a 	mov	r6,r16
 1006a60:	183ee83a 	callr	r3
 1006a64:	1007883a 	mov	r3,r2
 1006a68:	18803fcc 	andi	r2,r3,255
 1006a6c:	1080201c 	xori	r2,r2,128
 1006a70:	10bfe004 	addi	r2,r2,-128
 1006a74:	80bfec26 	beq	r16,r2,1006a28 <_ZNKSt9basic_iosIcSt11char_traitsIcEE6narrowEcc+0x2c>
 1006a78:	88c00045 	stb	r3,1(r17)
 1006a7c:	dfc00217 	ldw	ra,8(sp)
 1006a80:	dc400117 	ldw	r17,4(sp)
 1006a84:	dc000017 	ldw	r16,0(sp)
 1006a88:	dec00304 	addi	sp,sp,12
 1006a8c:	f800283a 	ret
 1006a90:	103910c0 	call	103910c <_ZSt16__throw_bad_castv>

01006a94 <_ZNSt9basic_iosIcSt11char_traitsIcEED0Ev>:
 1006a94:	defffe04 	addi	sp,sp,-8
 1006a98:	008041b4 	movhi	r2,262
 1006a9c:	10a50104 	addi	r2,r2,-27644
 1006aa0:	dc400015 	stw	r17,0(sp)
 1006aa4:	20800015 	stw	r2,0(r4)
 1006aa8:	2023883a 	mov	r17,r4
 1006aac:	dfc00115 	stw	ra,4(sp)
 1006ab0:	103a6e00 	call	103a6e0 <_ZNSt8ios_baseD2Ev>
 1006ab4:	8809883a 	mov	r4,r17
 1006ab8:	dfc00117 	ldw	ra,4(sp)
 1006abc:	dc400017 	ldw	r17,0(sp)
 1006ac0:	dec00204 	addi	sp,sp,8
 1006ac4:	1036b441 	jmpi	1036b44 <_ZdlPv>

01006ac8 <_ZNSt9basic_iosIcSt11char_traitsIcEED1Ev>:
 1006ac8:	008041b4 	movhi	r2,262
 1006acc:	10a50104 	addi	r2,r2,-27644
 1006ad0:	20800015 	stw	r2,0(r4)
 1006ad4:	103a6e01 	jmpi	103a6e0 <_ZNSt8ios_baseD2Ev>

01006ad8 <_ZNSt9basic_iosIcSt11char_traitsIcEED2Ev>:
 1006ad8:	008041b4 	movhi	r2,262
 1006adc:	10a50104 	addi	r2,r2,-27644
 1006ae0:	20800015 	stw	r2,0(r4)
 1006ae4:	103a6e01 	jmpi	103a6e0 <_ZNSt8ios_baseD2Ev>

01006ae8 <_ZNSt9basic_iosIcSt11char_traitsIcEEC1EPSt15basic_streambufIcS1_E>:
 1006ae8:	deffed04 	addi	sp,sp,-76
 1006aec:	008040f4 	movhi	r2,259
 1006af0:	109cae04 	addi	r2,r2,29368
 1006af4:	00c041b4 	movhi	r3,262
 1006af8:	18e03504 	addi	r3,r3,-32556
 1006afc:	d8800615 	stw	r2,24(sp)
 1006b00:	d9000d15 	stw	r4,52(sp)
 1006b04:	00804034 	movhi	r2,256
 1006b08:	109ae804 	addi	r2,r2,27552
 1006b0c:	d809883a 	mov	r4,sp
 1006b10:	d8c00715 	stw	r3,28(sp)
 1006b14:	d9400e15 	stw	r5,56(sp)
 1006b18:	dfc01215 	stw	ra,72(sp)
 1006b1c:	d8800915 	stw	r2,36(sp)
 1006b20:	df001115 	stw	fp,68(sp)
 1006b24:	ddc01015 	stw	r23,64(sp)
 1006b28:	dec00815 	stw	sp,32(sp)
 1006b2c:	dec00a15 	stw	sp,40(sp)
 1006b30:	10424240 	call	1042424 <_Unwind_SjLj_Register>
 1006b34:	d9000d17 	ldw	r4,52(sp)
 1006b38:	00bfffc4 	movi	r2,-1
 1006b3c:	d8800115 	stw	r2,4(sp)
 1006b40:	103a7c00 	call	103a7c0 <_ZNSt8ios_baseC2Ev>
 1006b44:	d8c00d17 	ldw	r3,52(sp)
 1006b48:	008041b4 	movhi	r2,262
 1006b4c:	10a50104 	addi	r2,r2,-27644
 1006b50:	18001d05 	stb	zero,116(r3)
 1006b54:	18800015 	stw	r2,0(r3)
 1006b58:	18001c15 	stw	zero,112(r3)
 1006b5c:	18001d45 	stb	zero,117(r3)
 1006b60:	18001e15 	stw	zero,120(r3)
 1006b64:	18001f15 	stw	zero,124(r3)
 1006b68:	18002015 	stw	zero,128(r3)
 1006b6c:	18002115 	stw	zero,132(r3)
 1006b70:	00800044 	movi	r2,1
 1006b74:	d8800115 	stw	r2,4(sp)
 1006b78:	d9400e17 	ldw	r5,56(sp)
 1006b7c:	d9000d17 	ldw	r4,52(sp)
 1006b80:	100690c0 	call	100690c <_ZNSt9basic_iosIcSt11char_traitsIcEE4initEPSt15basic_streambufIcS1_E>
 1006b84:	d809883a 	mov	r4,sp
 1006b88:	10424340 	call	1042434 <_Unwind_SjLj_Unregister>
 1006b8c:	dfc01217 	ldw	ra,72(sp)
 1006b90:	df001117 	ldw	fp,68(sp)
 1006b94:	ddc01017 	ldw	r23,64(sp)
 1006b98:	dec01304 	addi	sp,sp,76
 1006b9c:	f800283a 	ret
 1006ba0:	d8800217 	ldw	r2,8(sp)
 1006ba4:	d9000d17 	ldw	r4,52(sp)
 1006ba8:	d8000115 	stw	zero,4(sp)
 1006bac:	d8800f15 	stw	r2,60(sp)
 1006bb0:	103a6e00 	call	103a6e0 <_ZNSt8ios_baseD2Ev>
 1006bb4:	d9000f17 	ldw	r4,60(sp)
 1006bb8:	00bfffc4 	movi	r2,-1
 1006bbc:	d8800115 	stw	r2,4(sp)
 1006bc0:	10426f00 	call	10426f0 <_Unwind_SjLj_Resume>

01006bc4 <_ZNSt9basic_iosIcSt11char_traitsIcEEC2EPSt15basic_streambufIcS1_E>:
 1006bc4:	deffed04 	addi	sp,sp,-76
 1006bc8:	008040f4 	movhi	r2,259
 1006bcc:	109cae04 	addi	r2,r2,29368
 1006bd0:	00c041b4 	movhi	r3,262
 1006bd4:	18e03684 	addi	r3,r3,-32550
 1006bd8:	d8800615 	stw	r2,24(sp)
 1006bdc:	d9000d15 	stw	r4,52(sp)
 1006be0:	00804034 	movhi	r2,256
 1006be4:	109b1f04 	addi	r2,r2,27772
 1006be8:	d809883a 	mov	r4,sp
 1006bec:	d8c00715 	stw	r3,28(sp)
 1006bf0:	d9400e15 	stw	r5,56(sp)
 1006bf4:	dfc01215 	stw	ra,72(sp)
 1006bf8:	d8800915 	stw	r2,36(sp)
 1006bfc:	df001115 	stw	fp,68(sp)
 1006c00:	ddc01015 	stw	r23,64(sp)
 1006c04:	dec00815 	stw	sp,32(sp)
 1006c08:	dec00a15 	stw	sp,40(sp)
 1006c0c:	10424240 	call	1042424 <_Unwind_SjLj_Register>
 1006c10:	d9000d17 	ldw	r4,52(sp)
 1006c14:	00bfffc4 	movi	r2,-1
 1006c18:	d8800115 	stw	r2,4(sp)
 1006c1c:	103a7c00 	call	103a7c0 <_ZNSt8ios_baseC2Ev>
 1006c20:	d8c00d17 	ldw	r3,52(sp)
 1006c24:	008041b4 	movhi	r2,262
 1006c28:	10a50104 	addi	r2,r2,-27644
 1006c2c:	18001d05 	stb	zero,116(r3)
 1006c30:	18800015 	stw	r2,0(r3)
 1006c34:	18001c15 	stw	zero,112(r3)
 1006c38:	18001d45 	stb	zero,117(r3)
 1006c3c:	18001e15 	stw	zero,120(r3)
 1006c40:	18001f15 	stw	zero,124(r3)
 1006c44:	18002015 	stw	zero,128(r3)
 1006c48:	18002115 	stw	zero,132(r3)
 1006c4c:	00800044 	movi	r2,1
 1006c50:	d8800115 	stw	r2,4(sp)
 1006c54:	d9400e17 	ldw	r5,56(sp)
 1006c58:	d9000d17 	ldw	r4,52(sp)
 1006c5c:	100690c0 	call	100690c <_ZNSt9basic_iosIcSt11char_traitsIcEE4initEPSt15basic_streambufIcS1_E>
 1006c60:	d809883a 	mov	r4,sp
 1006c64:	10424340 	call	1042434 <_Unwind_SjLj_Unregister>
 1006c68:	dfc01217 	ldw	ra,72(sp)
 1006c6c:	df001117 	ldw	fp,68(sp)
 1006c70:	ddc01017 	ldw	r23,64(sp)
 1006c74:	dec01304 	addi	sp,sp,76
 1006c78:	f800283a 	ret
 1006c7c:	d8800217 	ldw	r2,8(sp)
 1006c80:	d9000d17 	ldw	r4,52(sp)
 1006c84:	d8000115 	stw	zero,4(sp)
 1006c88:	d8800f15 	stw	r2,60(sp)
 1006c8c:	103a6e00 	call	103a6e0 <_ZNSt8ios_baseD2Ev>
 1006c90:	d9000f17 	ldw	r4,60(sp)
 1006c94:	00bfffc4 	movi	r2,-1
 1006c98:	d8800115 	stw	r2,4(sp)
 1006c9c:	10426f00 	call	10426f0 <_Unwind_SjLj_Resume>

01006ca0 <_ZNKSt9basic_iosIcSt11char_traitsIcEE4goodEv>:
 1006ca0:	20800517 	ldw	r2,20(r4)
 1006ca4:	1005003a 	cmpeq	r2,r2,zero
 1006ca8:	f800283a 	ret

01006cac <_ZNKSt9basic_iosIcSt11char_traitsIcEE3badEv>:
 1006cac:	20800517 	ldw	r2,20(r4)
 1006cb0:	1080004c 	andi	r2,r2,1
 1006cb4:	f800283a 	ret

01006cb8 <_ZNKSt9basic_iosIcSt11char_traitsIcEE3eofEv>:
 1006cb8:	20800517 	ldw	r2,20(r4)
 1006cbc:	1004d07a 	srli	r2,r2,1
 1006cc0:	1080004c 	andi	r2,r2,1
 1006cc4:	f800283a 	ret

01006cc8 <_ZNSt9basic_iosIcSt11char_traitsIcEE11_M_setstateESt12_Ios_Iostate>:
 1006cc8:	20800517 	ldw	r2,20(r4)
 1006ccc:	20c00417 	ldw	r3,16(r4)
 1006cd0:	deffff04 	addi	sp,sp,-4
 1006cd4:	1144b03a 	or	r2,r2,r5
 1006cd8:	28c6703a 	and	r3,r5,r3
 1006cdc:	dfc00015 	stw	ra,0(sp)
 1006ce0:	20800515 	stw	r2,20(r4)
 1006ce4:	1800031e 	bne	r3,zero,1006cf4 <_ZNSt9basic_iosIcSt11char_traitsIcEE11_M_setstateESt12_Ios_Iostate+0x2c>
 1006ce8:	dfc00017 	ldw	ra,0(sp)
 1006cec:	dec00104 	addi	sp,sp,4
 1006cf0:	f800283a 	ret
 1006cf4:	1035f280 	call	1035f28 <__cxa_rethrow>

01006cf8 <_ZNSt9basic_iosIcSt11char_traitsIcEE5clearESt12_Ios_Iostate>:
 1006cf8:	20801e17 	ldw	r2,120(r4)
 1006cfc:	deffff04 	addi	sp,sp,-4
 1006d00:	dfc00015 	stw	ra,0(sp)
 1006d04:	10000826 	beq	r2,zero,1006d28 <_ZNSt9basic_iosIcSt11char_traitsIcEE5clearESt12_Ios_Iostate+0x30>
 1006d08:	21400515 	stw	r5,20(r4)
 1006d0c:	20c00517 	ldw	r3,20(r4)
 1006d10:	20800417 	ldw	r2,16(r4)
 1006d14:	10c4703a 	and	r2,r2,r3
 1006d18:	1000061e 	bne	r2,zero,1006d34 <_ZNSt9basic_iosIcSt11char_traitsIcEE5clearESt12_Ios_Iostate+0x3c>
 1006d1c:	dfc00017 	ldw	ra,0(sp)
 1006d20:	dec00104 	addi	sp,sp,4
 1006d24:	f800283a 	ret
 1006d28:	28800054 	ori	r2,r5,1
 1006d2c:	20800515 	stw	r2,20(r4)
 1006d30:	003ff606 	br	1006d0c <_ZNSt9basic_iosIcSt11char_traitsIcEE5clearESt12_Ios_Iostate+0x14>
 1006d34:	010041b4 	movhi	r4,262
 1006d38:	2124fa04 	addi	r4,r4,-27672
 1006d3c:	10391a80 	call	10391a8 <_ZSt19__throw_ios_failurePKc>

01006d40 <_ZNSt9basic_iosIcSt11char_traitsIcEE5rdbufEPSt15basic_streambufIcS1_E>:
 1006d40:	defffe04 	addi	sp,sp,-8
 1006d44:	dc400015 	stw	r17,0(sp)
 1006d48:	24401e17 	ldw	r17,120(r4)
 1006d4c:	21401e15 	stw	r5,120(r4)
 1006d50:	000b883a 	mov	r5,zero
 1006d54:	dfc00115 	stw	ra,4(sp)
 1006d58:	1006cf80 	call	1006cf8 <_ZNSt9basic_iosIcSt11char_traitsIcEE5clearESt12_Ios_Iostate>
 1006d5c:	8805883a 	mov	r2,r17
 1006d60:	dfc00117 	ldw	ra,4(sp)
 1006d64:	dc400017 	ldw	r17,0(sp)
 1006d68:	dec00204 	addi	sp,sp,8
 1006d6c:	f800283a 	ret

01006d70 <_ZNSt9basic_iosIcSt11char_traitsIcEE10exceptionsESt12_Ios_Iostate>:
 1006d70:	21400415 	stw	r5,16(r4)
 1006d74:	21400517 	ldw	r5,20(r4)
 1006d78:	1006cf81 	jmpi	1006cf8 <_ZNSt9basic_iosIcSt11char_traitsIcEE5clearESt12_Ios_Iostate>

01006d7c <_ZNSt9basic_iosIcSt11char_traitsIcEE8setstateESt12_Ios_Iostate>:
 1006d7c:	20800517 	ldw	r2,20(r4)
 1006d80:	288ab03a 	or	r5,r5,r2
 1006d84:	1006cf81 	jmpi	1006cf8 <_ZNSt9basic_iosIcSt11char_traitsIcEE5clearESt12_Ios_Iostate>

01006d88 <_ZNKSt9basic_iosIcSt11char_traitsIcEEntEv>:
 1006d88:	20800517 	ldw	r2,20(r4)
 1006d8c:	1080014c 	andi	r2,r2,5
 1006d90:	1004c03a 	cmpne	r2,r2,zero
 1006d94:	f800283a 	ret

01006d98 <_ZNKSt9basic_iosIcSt11char_traitsIcEEcvPvEv>:
 1006d98:	20800517 	ldw	r2,20(r4)
 1006d9c:	0007883a 	mov	r3,zero
 1006da0:	1080014c 	andi	r2,r2,5
 1006da4:	1000011e 	bne	r2,zero,1006dac <_ZNKSt9basic_iosIcSt11char_traitsIcEEcvPvEv+0x14>
 1006da8:	2007883a 	mov	r3,r4
 1006dac:	1805883a 	mov	r2,r3
 1006db0:	f800283a 	ret

01006db4 <_ZNSt9basic_iosIcSt11char_traitsIcEE5imbueERKSt6locale>:
 1006db4:	deffe704 	addi	sp,sp,-100
 1006db8:	008040f4 	movhi	r2,259
 1006dbc:	109cae04 	addi	r2,r2,29368
 1006dc0:	00c041b4 	movhi	r3,262
 1006dc4:	18e03804 	addi	r3,r3,-32544
 1006dc8:	d8800815 	stw	r2,32(sp)
 1006dcc:	d9001115 	stw	r4,68(sp)
 1006dd0:	00804034 	movhi	r2,256
 1006dd4:	109bb004 	addi	r2,r2,28352
 1006dd8:	d9000204 	addi	r4,sp,8
 1006ddc:	d8c00915 	stw	r3,36(sp)
 1006de0:	d9801315 	stw	r6,76(sp)
 1006de4:	dfc01815 	stw	ra,96(sp)
 1006de8:	d8800b15 	stw	r2,44(sp)
 1006dec:	d9401215 	stw	r5,72(sp)
 1006df0:	df001715 	stw	fp,92(sp)
 1006df4:	ddc01615 	stw	r23,88(sp)
 1006df8:	dec00a15 	stw	sp,40(sp)
 1006dfc:	dec00c15 	stw	sp,48(sp)
 1006e00:	10424240 	call	1042424 <_Unwind_SjLj_Register>
 1006e04:	d8801217 	ldw	r2,72(sp)
 1006e08:	d9001117 	ldw	r4,68(sp)
 1006e0c:	11401b04 	addi	r5,r2,108
 1006e10:	1002cfc0 	call	1002cfc <_ZNSt6localeC1ERKS_>
 1006e14:	d8c01117 	ldw	r3,68(sp)
 1006e18:	00800084 	movi	r2,2
 1006e1c:	d8800315 	stw	r2,12(sp)
 1006e20:	d8c00f15 	stw	r3,60(sp)
 1006e24:	d9000104 	addi	r4,sp,4
 1006e28:	d9401217 	ldw	r5,72(sp)
 1006e2c:	d9801317 	ldw	r6,76(sp)
 1006e30:	103b0000 	call	103b000 <_ZNSt8ios_base5imbueERKSt6locale>
 1006e34:	d9000104 	addi	r4,sp,4
 1006e38:	1003ef00 	call	1003ef0 <_ZNSt6localeD1Ev>
 1006e3c:	d9001217 	ldw	r4,72(sp)
 1006e40:	d9401317 	ldw	r5,76(sp)
 1006e44:	10068740 	call	1006874 <_ZNSt9basic_iosIcSt11char_traitsIcEE15_M_cache_localeERKSt6locale>
 1006e48:	d8801217 	ldw	r2,72(sp)
 1006e4c:	10801e17 	ldw	r2,120(r2)
 1006e50:	d8801015 	stw	r2,64(sp)
 1006e54:	10001226 	beq	r2,zero,1006ea0 <_ZNSt9basic_iosIcSt11char_traitsIcEE5imbueERKSt6locale+0xec>
 1006e58:	10c00704 	addi	r3,r2,28
 1006e5c:	180b883a 	mov	r5,r3
 1006e60:	d809883a 	mov	r4,sp
 1006e64:	d8c01415 	stw	r3,80(sp)
 1006e68:	1002cfc0 	call	1002cfc <_ZNSt6localeC1ERKS_>
 1006e6c:	d8c01017 	ldw	r3,64(sp)
 1006e70:	d9401317 	ldw	r5,76(sp)
 1006e74:	18800017 	ldw	r2,0(r3)
 1006e78:	1809883a 	mov	r4,r3
 1006e7c:	00c00044 	movi	r3,1
 1006e80:	11800217 	ldw	r6,8(r2)
 1006e84:	d8c00315 	stw	r3,12(sp)
 1006e88:	303ee83a 	callr	r6
 1006e8c:	d9001417 	ldw	r4,80(sp)
 1006e90:	d9401317 	ldw	r5,76(sp)
 1006e94:	10040b80 	call	10040b8 <_ZNSt6localeaSERKS_>
 1006e98:	d809883a 	mov	r4,sp
 1006e9c:	1003ef00 	call	1003ef0 <_ZNSt6localeD1Ev>
 1006ea0:	d9000204 	addi	r4,sp,8
 1006ea4:	10424340 	call	1042434 <_Unwind_SjLj_Unregister>
 1006ea8:	d8801117 	ldw	r2,68(sp)
 1006eac:	dfc01817 	ldw	ra,96(sp)
 1006eb0:	df001717 	ldw	fp,92(sp)
 1006eb4:	ddc01617 	ldw	r23,88(sp)
 1006eb8:	dec01904 	addi	sp,sp,100
 1006ebc:	f800283a 	ret
 1006ec0:	d8800417 	ldw	r2,16(sp)
 1006ec4:	d8c00317 	ldw	r3,12(sp)
 1006ec8:	d8801515 	stw	r2,84(sp)
 1006ecc:	00800044 	movi	r2,1
 1006ed0:	18800226 	beq	r3,r2,1006edc <_ZNSt9basic_iosIcSt11char_traitsIcEE5imbueERKSt6locale+0x128>
 1006ed4:	d809883a 	mov	r4,sp
 1006ed8:	1003ef00 	call	1003ef0 <_ZNSt6localeD1Ev>
 1006edc:	d9000f17 	ldw	r4,60(sp)
 1006ee0:	1003ef00 	call	1003ef0 <_ZNSt6localeD1Ev>
 1006ee4:	d9001517 	ldw	r4,84(sp)
 1006ee8:	00bfffc4 	movi	r2,-1
 1006eec:	d8800315 	stw	r2,12(sp)
 1006ef0:	10426f00 	call	10426f0 <_Unwind_SjLj_Resume>

01006ef4 <_ZNKSt9basic_iosIcSt11char_traitsIcEE5widenEc>:
 1006ef4:	deffbc04 	addi	sp,sp,-272
 1006ef8:	dc004015 	stw	r16,256(sp)
 1006efc:	24001f17 	ldw	r16,124(r4)
 1006f00:	dfc04315 	stw	ra,268(sp)
 1006f04:	dc804215 	stw	r18,264(sp)
 1006f08:	dc404115 	stw	r17,260(sp)
 1006f0c:	80003326 	beq	r16,zero,1006fdc <_ZNKSt9basic_iosIcSt11char_traitsIcEE5widenEc+0xe8>
 1006f10:	80800707 	ldb	r2,28(r16)
 1006f14:	2825883a 	mov	r18,r5
 1006f18:	1000271e 	bne	r2,zero,1006fb8 <_ZNKSt9basic_iosIcSt11char_traitsIcEE5widenEc+0xc4>
 1006f1c:	0007883a 	mov	r3,zero
 1006f20:	01004004 	movi	r4,256
 1006f24:	d8c5883a 	add	r2,sp,r3
 1006f28:	10c00005 	stb	r3,0(r2)
 1006f2c:	18c00044 	addi	r3,r3,1
 1006f30:	193ffc1e 	bne	r3,r4,1006f24 <_ZNKSt9basic_iosIcSt11char_traitsIcEE5widenEc+0x30>
 1006f34:	80800017 	ldw	r2,0(r16)
 1006f38:	84400744 	addi	r17,r16,29
 1006f3c:	8009883a 	mov	r4,r16
 1006f40:	12000717 	ldw	r8,28(r2)
 1006f44:	d80b883a 	mov	r5,sp
 1006f48:	d9804004 	addi	r6,sp,256
 1006f4c:	880f883a 	mov	r7,r17
 1006f50:	403ee83a 	callr	r8
 1006f54:	00c00044 	movi	r3,1
 1006f58:	80c00705 	stb	r3,28(r16)
 1006f5c:	880b883a 	mov	r5,r17
 1006f60:	d809883a 	mov	r4,sp
 1006f64:	01804004 	movi	r6,256
 1006f68:	10451200 	call	1045120 <memcmp>
 1006f6c:	10000226 	beq	r2,zero,1006f78 <_ZNKSt9basic_iosIcSt11char_traitsIcEE5widenEc+0x84>
 1006f70:	00800084 	movi	r2,2
 1006f74:	80800705 	stb	r2,28(r16)
 1006f78:	80800017 	ldw	r2,0(r16)
 1006f7c:	91403fcc 	andi	r5,r18,255
 1006f80:	2940201c 	xori	r5,r5,128
 1006f84:	10c00617 	ldw	r3,24(r2)
 1006f88:	8009883a 	mov	r4,r16
 1006f8c:	297fe004 	addi	r5,r5,-128
 1006f90:	183ee83a 	callr	r3
 1006f94:	10803fcc 	andi	r2,r2,255
 1006f98:	1080201c 	xori	r2,r2,128
 1006f9c:	10bfe004 	addi	r2,r2,-128
 1006fa0:	dfc04317 	ldw	ra,268(sp)
 1006fa4:	dc804217 	ldw	r18,264(sp)
 1006fa8:	dc404117 	ldw	r17,260(sp)
 1006fac:	dc004017 	ldw	r16,256(sp)
 1006fb0:	dec04404 	addi	sp,sp,272
 1006fb4:	f800283a 	ret
 1006fb8:	28803fcc 	andi	r2,r5,255
 1006fbc:	1405883a 	add	r2,r2,r16
 1006fc0:	10800747 	ldb	r2,29(r2)
 1006fc4:	dfc04317 	ldw	ra,268(sp)
 1006fc8:	dc804217 	ldw	r18,264(sp)
 1006fcc:	dc404117 	ldw	r17,260(sp)
 1006fd0:	dc004017 	ldw	r16,256(sp)
 1006fd4:	dec04404 	addi	sp,sp,272
 1006fd8:	f800283a 	ret
 1006fdc:	103910c0 	call	103910c <_ZSt16__throw_bad_castv>

01006fe0 <_ZNKSt9basic_iosIcSt11char_traitsIcEE4fillEv>:
 1006fe0:	20801d43 	ldbu	r2,117(r4)
 1006fe4:	defffe04 	addi	sp,sp,-8
 1006fe8:	dc000015 	stw	r16,0(sp)
 1006fec:	dfc00115 	stw	ra,4(sp)
 1006ff0:	2021883a 	mov	r16,r4
 1006ff4:	01400804 	movi	r5,32
 1006ff8:	1000041e 	bne	r2,zero,100700c <_ZNKSt9basic_iosIcSt11char_traitsIcEE4fillEv+0x2c>
 1006ffc:	1006ef40 	call	1006ef4 <_ZNKSt9basic_iosIcSt11char_traitsIcEE5widenEc>
 1007000:	00c00044 	movi	r3,1
 1007004:	80c01d45 	stb	r3,117(r16)
 1007008:	80801d05 	stb	r2,116(r16)
 100700c:	80801d07 	ldb	r2,116(r16)
 1007010:	dfc00117 	ldw	ra,4(sp)
 1007014:	dc000017 	ldw	r16,0(sp)
 1007018:	dec00204 	addi	sp,sp,8
 100701c:	f800283a 	ret

01007020 <_ZNSt9basic_iosIcSt11char_traitsIcEE4fillEc>:
 1007020:	20801d43 	ldbu	r2,117(r4)
 1007024:	defffd04 	addi	sp,sp,-12
 1007028:	dc400115 	stw	r17,4(sp)
 100702c:	dc000015 	stw	r16,0(sp)
 1007030:	2823883a 	mov	r17,r5
 1007034:	dfc00215 	stw	ra,8(sp)
 1007038:	2021883a 	mov	r16,r4
 100703c:	01400804 	movi	r5,32
 1007040:	1000041e 	bne	r2,zero,1007054 <_ZNSt9basic_iosIcSt11char_traitsIcEE4fillEc+0x34>
 1007044:	1006ef40 	call	1006ef4 <_ZNKSt9basic_iosIcSt11char_traitsIcEE5widenEc>
 1007048:	00c00044 	movi	r3,1
 100704c:	80c01d45 	stb	r3,117(r16)
 1007050:	80801d05 	stb	r2,116(r16)
 1007054:	80801d03 	ldbu	r2,116(r16)
 1007058:	84401d05 	stb	r17,116(r16)
 100705c:	10803fcc 	andi	r2,r2,255
 1007060:	1080201c 	xori	r2,r2,128
 1007064:	10bfe004 	addi	r2,r2,-128
 1007068:	dfc00217 	ldw	ra,8(sp)
 100706c:	dc400117 	ldw	r17,4(sp)
 1007070:	dc000017 	ldw	r16,0(sp)
 1007074:	dec00304 	addi	sp,sp,12
 1007078:	f800283a 	ret

0100707c <_ZNSt9basic_iosIcSt11char_traitsIcEE7copyfmtERKS2_>:
 100707c:	defff904 	addi	sp,sp,-28
 1007080:	dc800315 	stw	r18,12(sp)
 1007084:	dc000115 	stw	r16,4(sp)
 1007088:	dfc00615 	stw	ra,24(sp)
 100708c:	dd000515 	stw	r20,20(sp)
 1007090:	dcc00415 	stw	r19,16(sp)
 1007094:	dc400215 	stw	r17,8(sp)
 1007098:	2021883a 	mov	r16,r4
 100709c:	2825883a 	mov	r18,r5
 10070a0:	21404826 	beq	r4,r5,10071c4 <_ZNSt9basic_iosIcSt11char_traitsIcEE7copyfmtERKS2_+0x148>
 10070a4:	29001917 	ldw	r4,100(r5)
 10070a8:	00800204 	movi	r2,8
 10070ac:	11004e16 	blt	r2,r4,10071e8 <_ZNSt9basic_iosIcSt11char_traitsIcEE7copyfmtERKS2_+0x16c>
 10070b0:	85000904 	addi	r20,r16,36
 10070b4:	a027883a 	mov	r19,r20
 10070b8:	94400617 	ldw	r17,24(r18)
 10070bc:	88000326 	beq	r17,zero,10070cc <_ZNSt9basic_iosIcSt11char_traitsIcEE7copyfmtERKS2_+0x50>
 10070c0:	89000304 	addi	r4,r17,12
 10070c4:	01400044 	movi	r5,1
 10070c8:	103462c0 	call	103462c <_ZN9__gnu_cxx12__atomic_addEPVii>
 10070cc:	8009883a 	mov	r4,r16
 10070d0:	000b883a 	mov	r5,zero
 10070d4:	103a3000 	call	103a300 <_ZNSt8ios_base17_M_call_callbacksENS_5eventE>
 10070d8:	81001a17 	ldw	r4,104(r16)
 10070dc:	24c00326 	beq	r4,r19,10070ec <_ZNSt9basic_iosIcSt11char_traitsIcEE7copyfmtERKS2_+0x70>
 10070e0:	20000126 	beq	r4,zero,10070e8 <_ZNSt9basic_iosIcSt11char_traitsIcEE7copyfmtERKS2_+0x6c>
 10070e4:	1036b500 	call	1036b50 <_ZdaPv>
 10070e8:	80001a15 	stw	zero,104(r16)
 10070ec:	8009883a 	mov	r4,r16
 10070f0:	103a29c0 	call	103a29c <_ZNSt8ios_base20_M_dispose_callbacksEv>
 10070f4:	92001917 	ldw	r8,100(r18)
 10070f8:	84400615 	stw	r17,24(r16)
 10070fc:	02000d0e 	bge	zero,r8,1007134 <_ZNSt9basic_iosIcSt11char_traitsIcEE7copyfmtERKS2_+0xb8>
 1007100:	92401a17 	ldw	r9,104(r18)
 1007104:	a00b883a 	mov	r5,r20
 1007108:	000f883a 	mov	r7,zero
 100710c:	000d883a 	mov	r6,zero
 1007110:	3245883a 	add	r2,r6,r9
 1007114:	10c00117 	ldw	r3,4(r2)
 1007118:	11000017 	ldw	r4,0(r2)
 100711c:	39c00044 	addi	r7,r7,1
 1007120:	28c00115 	stw	r3,4(r5)
 1007124:	29000015 	stw	r4,0(r5)
 1007128:	31800204 	addi	r6,r6,8
 100712c:	29400204 	addi	r5,r5,8
 1007130:	3a3ff716 	blt	r7,r8,1007110 <_ZNSt9basic_iosIcSt11char_traitsIcEE7copyfmtERKS2_+0x94>
 1007134:	90800317 	ldw	r2,12(r18)
 1007138:	90c00217 	ldw	r3,8(r18)
 100713c:	91000117 	ldw	r4,4(r18)
 1007140:	91401c17 	ldw	r5,112(r18)
 1007144:	91801d43 	ldbu	r6,117(r18)
 1007148:	85001a15 	stw	r20,104(r16)
 100714c:	82001915 	stw	r8,100(r16)
 1007150:	80800315 	stw	r2,12(r16)
 1007154:	80c00215 	stw	r3,8(r16)
 1007158:	81000115 	stw	r4,4(r16)
 100715c:	81401c15 	stw	r5,112(r16)
 1007160:	30003626 	beq	r6,zero,100723c <_ZNSt9basic_iosIcSt11char_traitsIcEE7copyfmtERKS2_+0x1c0>
 1007164:	80801d43 	ldbu	r2,117(r16)
 1007168:	94401d03 	ldbu	r17,116(r18)
 100716c:	10002c26 	beq	r2,zero,1007220 <_ZNSt9basic_iosIcSt11char_traitsIcEE7copyfmtERKS2_+0x1a4>
 1007170:	84401d05 	stb	r17,116(r16)
 1007174:	d809883a 	mov	r4,sp
 1007178:	84401b04 	addi	r17,r16,108
 100717c:	91401b04 	addi	r5,r18,108
 1007180:	1002cfc0 	call	1002cfc <_ZNSt6localeC1ERKS_>
 1007184:	d80b883a 	mov	r5,sp
 1007188:	8809883a 	mov	r4,r17
 100718c:	10040b80 	call	10040b8 <_ZNSt6localeaSERKS_>
 1007190:	d809883a 	mov	r4,sp
 1007194:	1003ef00 	call	1003ef0 <_ZNSt6localeD1Ev>
 1007198:	880b883a 	mov	r5,r17
 100719c:	8009883a 	mov	r4,r16
 10071a0:	10068740 	call	1006874 <_ZNSt9basic_iosIcSt11char_traitsIcEE15_M_cache_localeERKSt6locale>
 10071a4:	8009883a 	mov	r4,r16
 10071a8:	01400084 	movi	r5,2
 10071ac:	103a3000 	call	103a300 <_ZNSt8ios_base17_M_call_callbacksENS_5eventE>
 10071b0:	90800417 	ldw	r2,16(r18)
 10071b4:	81400517 	ldw	r5,20(r16)
 10071b8:	8009883a 	mov	r4,r16
 10071bc:	80800415 	stw	r2,16(r16)
 10071c0:	1006cf80 	call	1006cf8 <_ZNSt9basic_iosIcSt11char_traitsIcEE5clearESt12_Ios_Iostate>
 10071c4:	8005883a 	mov	r2,r16
 10071c8:	dfc00617 	ldw	ra,24(sp)
 10071cc:	dd000517 	ldw	r20,20(sp)
 10071d0:	dcc00417 	ldw	r19,16(sp)
 10071d4:	dc800317 	ldw	r18,12(sp)
 10071d8:	dc400217 	ldw	r17,8(sp)
 10071dc:	dc000117 	ldw	r16,4(sp)
 10071e0:	dec00704 	addi	sp,sp,28
 10071e4:	f800283a 	ret
 10071e8:	200890fa 	slli	r4,r4,3
 10071ec:	10368c00 	call	10368c0 <_Znam>
 10071f0:	91001917 	ldw	r4,100(r18)
 10071f4:	1029883a 	mov	r20,r2
 10071f8:	20001726 	beq	r4,zero,1007258 <_ZNSt9basic_iosIcSt11char_traitsIcEE7copyfmtERKS2_+0x1dc>
 10071fc:	0007883a 	mov	r3,zero
 1007200:	81400904 	addi	r5,r16,36
 1007204:	18c00044 	addi	r3,r3,1
 1007208:	10000015 	stw	zero,0(r2)
 100720c:	10000115 	stw	zero,4(r2)
 1007210:	10800204 	addi	r2,r2,8
 1007214:	20fffb1e 	bne	r4,r3,1007204 <_ZNSt9basic_iosIcSt11char_traitsIcEE7copyfmtERKS2_+0x188>
 1007218:	2827883a 	mov	r19,r5
 100721c:	003fa606 	br	10070b8 <_ZNSt9basic_iosIcSt11char_traitsIcEE7copyfmtERKS2_+0x3c>
 1007220:	8009883a 	mov	r4,r16
 1007224:	01400804 	movi	r5,32
 1007228:	1006ef40 	call	1006ef4 <_ZNKSt9basic_iosIcSt11char_traitsIcEE5widenEc>
 100722c:	80801d05 	stb	r2,116(r16)
 1007230:	00800044 	movi	r2,1
 1007234:	80801d45 	stb	r2,117(r16)
 1007238:	003fcd06 	br	1007170 <_ZNSt9basic_iosIcSt11char_traitsIcEE7copyfmtERKS2_+0xf4>
 100723c:	9009883a 	mov	r4,r18
 1007240:	01400804 	movi	r5,32
 1007244:	1006ef40 	call	1006ef4 <_ZNKSt9basic_iosIcSt11char_traitsIcEE5widenEc>
 1007248:	90801d05 	stb	r2,116(r18)
 100724c:	00800044 	movi	r2,1
 1007250:	90801d45 	stb	r2,117(r18)
 1007254:	003fc306 	br	1007164 <_ZNSt9basic_iosIcSt11char_traitsIcEE7copyfmtERKS2_+0xe8>
 1007258:	84c00904 	addi	r19,r16,36
 100725c:	003f9606 	br	10070b8 <_ZNSt9basic_iosIcSt11char_traitsIcEE7copyfmtERKS2_+0x3c>

01007260 <_ZNSirsEPFRSiS_E>:
 1007260:	2807883a 	mov	r3,r5
 1007264:	1800683a 	jmp	r3

01007268 <_ZNSirsEPFRSt9basic_iosIcSt11char_traitsIcEES3_E>:
 1007268:	20800017 	ldw	r2,0(r4)
 100726c:	defffe04 	addi	sp,sp,-8
 1007270:	dc400015 	stw	r17,0(sp)
 1007274:	2023883a 	mov	r17,r4
 1007278:	113ffd17 	ldw	r4,-12(r2)
 100727c:	dfc00115 	stw	ra,4(sp)
 1007280:	8909883a 	add	r4,r17,r4
 1007284:	283ee83a 	callr	r5
 1007288:	8805883a 	mov	r2,r17
 100728c:	dfc00117 	ldw	ra,4(sp)
 1007290:	dc400017 	ldw	r17,0(sp)
 1007294:	dec00204 	addi	sp,sp,8
 1007298:	f800283a 	ret

0100729c <_ZNSirsEPFRSt8ios_baseS0_E>:
 100729c:	20800017 	ldw	r2,0(r4)
 10072a0:	defffe04 	addi	sp,sp,-8
 10072a4:	dc400015 	stw	r17,0(sp)
 10072a8:	2023883a 	mov	r17,r4
 10072ac:	113ffd17 	ldw	r4,-12(r2)
 10072b0:	dfc00115 	stw	ra,4(sp)
 10072b4:	8909883a 	add	r4,r17,r4
 10072b8:	283ee83a 	callr	r5
 10072bc:	8805883a 	mov	r2,r17
 10072c0:	dfc00117 	ldw	ra,4(sp)
 10072c4:	dc400017 	ldw	r17,0(sp)
 10072c8:	dec00204 	addi	sp,sp,8
 10072cc:	f800283a 	ret

010072d0 <_ZNKSi6gcountEv>:
 10072d0:	20800117 	ldw	r2,4(r4)
 10072d4:	f800283a 	ret

010072d8 <_ZNSiC2Ev>:
 10072d8:	28800017 	ldw	r2,0(r5)
 10072dc:	29800117 	ldw	r6,4(r5)
 10072e0:	10fffd17 	ldw	r3,-12(r2)
 10072e4:	20800015 	stw	r2,0(r4)
 10072e8:	20000115 	stw	zero,4(r4)
 10072ec:	20c9883a 	add	r4,r4,r3
 10072f0:	21800015 	stw	r6,0(r4)
 10072f4:	f800283a 	ret

010072f8 <_ZNKSi6sentrycvbEv>:
 10072f8:	20800003 	ldbu	r2,0(r4)
 10072fc:	f800283a 	ret

01007300 <_ZStrsIcSt11char_traitsIcEERSt13basic_istreamIT_T0_ES6_St12_Setiosflags>:
 1007300:	21800017 	ldw	r6,0(r4)
 1007304:	2005883a 	mov	r2,r4
 1007308:	30fffd17 	ldw	r3,-12(r6)
 100730c:	20c9883a 	add	r4,r4,r3
 1007310:	21000304 	addi	r4,r4,12
 1007314:	20c00017 	ldw	r3,0(r4)
 1007318:	1946b03a 	or	r3,r3,r5
 100731c:	20c00015 	stw	r3,0(r4)
 1007320:	f800283a 	ret

01007324 <_ZStrsIcSt11char_traitsIcEERSt13basic_istreamIT_T0_ES6_St14_Resetiosflags>:
 1007324:	21800017 	ldw	r6,0(r4)
 1007328:	2005883a 	mov	r2,r4
 100732c:	014a303a 	nor	r5,zero,r5
 1007330:	30fffd17 	ldw	r3,-12(r6)
 1007334:	20c9883a 	add	r4,r4,r3
 1007338:	21000304 	addi	r4,r4,12
 100733c:	20c00017 	ldw	r3,0(r4)
 1007340:	1946703a 	and	r3,r3,r5
 1007344:	20c00015 	stw	r3,0(r4)
 1007348:	f800283a 	ret

0100734c <_ZStrsIcSt11char_traitsIcEERSt13basic_istreamIT_T0_ES6_St13_Setprecision>:
 100734c:	21800017 	ldw	r6,0(r4)
 1007350:	2005883a 	mov	r2,r4
 1007354:	30fffd17 	ldw	r3,-12(r6)
 1007358:	20c9883a 	add	r4,r4,r3
 100735c:	21400115 	stw	r5,4(r4)
 1007360:	f800283a 	ret

01007364 <_ZStrsIcSt11char_traitsIcEERSt13basic_istreamIT_T0_ES6_St5_Setw>:
 1007364:	21800017 	ldw	r6,0(r4)
 1007368:	2005883a 	mov	r2,r4
 100736c:	30fffd17 	ldw	r3,-12(r6)
 1007370:	20c9883a 	add	r4,r4,r3
 1007374:	21400215 	stw	r5,8(r4)
 1007378:	f800283a 	ret

0100737c <_ZStrsIcSt11char_traitsIcEERSt13basic_istreamIT_T0_ES6_St8_SetfillIS3_E>:
 100737c:	20800017 	ldw	r2,0(r4)
 1007380:	defffc04 	addi	sp,sp,-16
 1007384:	dc000015 	stw	r16,0(sp)
 1007388:	10fffd17 	ldw	r3,-12(r2)
 100738c:	dc800215 	stw	r18,8(sp)
 1007390:	dc400115 	stw	r17,4(sp)
 1007394:	20e1883a 	add	r16,r4,r3
 1007398:	80801d43 	ldbu	r2,117(r16)
 100739c:	2023883a 	mov	r17,r4
 10073a0:	2825883a 	mov	r18,r5
 10073a4:	dfc00315 	stw	ra,12(sp)
 10073a8:	01400804 	movi	r5,32
 10073ac:	8009883a 	mov	r4,r16
 10073b0:	1000041e 	bne	r2,zero,10073c4 <_ZStrsIcSt11char_traitsIcEERSt13basic_istreamIT_T0_ES6_St8_SetfillIS3_E+0x48>
 10073b4:	1006ef40 	call	1006ef4 <_ZNKSt9basic_iosIcSt11char_traitsIcEE5widenEc>
 10073b8:	00c00044 	movi	r3,1
 10073bc:	80c01d45 	stb	r3,117(r16)
 10073c0:	80801d05 	stb	r2,116(r16)
 10073c4:	8805883a 	mov	r2,r17
 10073c8:	84801d05 	stb	r18,116(r16)
 10073cc:	dfc00317 	ldw	ra,12(sp)
 10073d0:	dc800217 	ldw	r18,8(sp)
 10073d4:	dc400117 	ldw	r17,4(sp)
 10073d8:	dc000017 	ldw	r16,0(sp)
 10073dc:	dec00404 	addi	sp,sp,16
 10073e0:	f800283a 	ret

010073e4 <_ZStrsISt11char_traitsIcEERSt13basic_istreamIcT_ES5_Pa>:
 10073e4:	100cbd41 	jmpi	100cbd4 <_ZStrsIcSt11char_traitsIcEERSt13basic_istreamIT_T0_ES6_PS3_>

010073e8 <_ZStrsISt11char_traitsIcEERSt13basic_istreamIcT_ES5_Ph>:
 10073e8:	100cbd41 	jmpi	100cbd4 <_ZStrsIcSt11char_traitsIcEERSt13basic_istreamIT_T0_ES6_PS3_>

010073ec <_ZNSi7getlineEPcl>:
 10073ec:	20800017 	ldw	r2,0(r4)
 10073f0:	defffc04 	addi	sp,sp,-16
 10073f4:	dc400015 	stw	r17,0(sp)
 10073f8:	2023883a 	mov	r17,r4
 10073fc:	113ffd17 	ldw	r4,-12(r2)
 1007400:	dcc00115 	stw	r19,4(sp)
 1007404:	2827883a 	mov	r19,r5
 1007408:	8909883a 	add	r4,r17,r4
 100740c:	01400284 	movi	r5,10
 1007410:	dd400215 	stw	r21,8(sp)
 1007414:	dfc00315 	stw	ra,12(sp)
 1007418:	302b883a 	mov	r21,r6
 100741c:	1006ef40 	call	1006ef4 <_ZNKSt9basic_iosIcSt11char_traitsIcEE5widenEc>
 1007420:	11c03fcc 	andi	r7,r2,255
 1007424:	39c0201c 	xori	r7,r7,128
 1007428:	8809883a 	mov	r4,r17
 100742c:	980b883a 	mov	r5,r19
 1007430:	a80d883a 	mov	r6,r21
 1007434:	39ffe004 	addi	r7,r7,-128
 1007438:	dfc00317 	ldw	ra,12(sp)
 100743c:	dd400217 	ldw	r21,8(sp)
 1007440:	dcc00117 	ldw	r19,4(sp)
 1007444:	dc400017 	ldw	r17,0(sp)
 1007448:	dec00404 	addi	sp,sp,16
 100744c:	100bcf01 	jmpi	100bcf0 <_ZNSi7getlineEPclc>

01007450 <_ZTv0_n12_NSiD1Ev>:
 1007450:	20800017 	ldw	r2,0(r4)
 1007454:	10fffd17 	ldw	r3,-12(r2)
 1007458:	20c9883a 	add	r4,r4,r3
 100745c:	10074601 	jmpi	1007460 <_ZNSiD1Ev>

01007460 <_ZNSiD1Ev>:
 1007460:	00c041b4 	movhi	r3,262
 1007464:	18e51204 	addi	r3,r3,-27576
 1007468:	18800504 	addi	r2,r3,20
 100746c:	21800204 	addi	r6,r4,8
 1007470:	20800215 	stw	r2,8(r4)
 1007474:	20c00015 	stw	r3,0(r4)
 1007478:	008041b4 	movhi	r2,262
 100747c:	10a50104 	addi	r2,r2,-27644
 1007480:	20000115 	stw	zero,4(r4)
 1007484:	3009883a 	mov	r4,r6
 1007488:	30800015 	stw	r2,0(r6)
 100748c:	103a6e01 	jmpi	103a6e0 <_ZNSt8ios_baseD2Ev>

01007490 <_ZNSiC2EPSt15basic_streambufIcSt11char_traitsIcEE>:
 1007490:	2a000017 	ldw	r8,0(r5)
 1007494:	2a400117 	ldw	r9,4(r5)
 1007498:	200f883a 	mov	r7,r4
 100749c:	40bffd17 	ldw	r2,-12(r8)
 10074a0:	22000015 	stw	r8,0(r4)
 10074a4:	20000115 	stw	zero,4(r4)
 10074a8:	2085883a 	add	r2,r4,r2
 10074ac:	12400015 	stw	r9,0(r2)
 10074b0:	22000017 	ldw	r8,0(r4)
 10074b4:	300b883a 	mov	r5,r6
 10074b8:	413ffd17 	ldw	r4,-12(r8)
 10074bc:	3909883a 	add	r4,r7,r4
 10074c0:	100690c1 	jmpi	100690c <_ZNSt9basic_iosIcSt11char_traitsIcEE4initEPSt15basic_streambufIcS1_E>

010074c4 <_ZStrsIcSt11char_traitsIcEERSt13basic_istreamIT_T0_ES6_St8_Setbase>:
 10074c4:	20c00017 	ldw	r3,0(r4)
 10074c8:	00800204 	movi	r2,8
 10074cc:	01801004 	movi	r6,64
 10074d0:	18fffd17 	ldw	r3,-12(r3)
 10074d4:	28800426 	beq	r5,r2,10074e8 <_ZStrsIcSt11char_traitsIcEERSt13basic_istreamIT_T0_ES6_St8_Setbase+0x24>
 10074d8:	00800284 	movi	r2,10
 10074dc:	29800420 	cmpeqi	r6,r5,16
 10074e0:	28800926 	beq	r5,r2,1007508 <_ZStrsIcSt11char_traitsIcEERSt13basic_istreamIT_T0_ES6_St8_Setbase+0x44>
 10074e4:	300c90fa 	slli	r6,r6,3
 10074e8:	20c7883a 	add	r3,r4,r3
 10074ec:	2005883a 	mov	r2,r4
 10074f0:	19000317 	ldw	r4,12(r3)
 10074f4:	017fed44 	movi	r5,-75
 10074f8:	2148703a 	and	r4,r4,r5
 10074fc:	3108b03a 	or	r4,r6,r4
 1007500:	19000315 	stw	r4,12(r3)
 1007504:	f800283a 	ret
 1007508:	20c7883a 	add	r3,r4,r3
 100750c:	2005883a 	mov	r2,r4
 1007510:	19000317 	ldw	r4,12(r3)
 1007514:	017fed44 	movi	r5,-75
 1007518:	01800084 	movi	r6,2
 100751c:	2148703a 	and	r4,r4,r5
 1007520:	3108b03a 	or	r4,r6,r4
 1007524:	19000315 	stw	r4,12(r3)
 1007528:	f800283a 	ret

0100752c <_ZNSiC1Ev>:
 100752c:	defffd04 	addi	sp,sp,-12
 1007530:	dc000015 	stw	r16,0(sp)
 1007534:	24000204 	addi	r16,r4,8
 1007538:	dc800115 	stw	r18,4(sp)
 100753c:	2025883a 	mov	r18,r4
 1007540:	8009883a 	mov	r4,r16
 1007544:	dfc00215 	stw	ra,8(sp)
 1007548:	103a7c00 	call	103a7c0 <_ZNSt8ios_baseC2Ev>
 100754c:	00c041b4 	movhi	r3,262
 1007550:	18e51204 	addi	r3,r3,-27576
 1007554:	008041b4 	movhi	r2,262
 1007558:	10a50104 	addi	r2,r2,-27644
 100755c:	80800015 	stw	r2,0(r16)
 1007560:	80001d05 	stb	zero,116(r16)
 1007564:	18800504 	addi	r2,r3,20
 1007568:	80002115 	stw	zero,132(r16)
 100756c:	90800215 	stw	r2,8(r18)
 1007570:	90000115 	stw	zero,4(r18)
 1007574:	80001c15 	stw	zero,112(r16)
 1007578:	80001d45 	stb	zero,117(r16)
 100757c:	80001e15 	stw	zero,120(r16)
 1007580:	80001f15 	stw	zero,124(r16)
 1007584:	80002015 	stw	zero,128(r16)
 1007588:	90c00015 	stw	r3,0(r18)
 100758c:	dfc00217 	ldw	ra,8(sp)
 1007590:	dc800117 	ldw	r18,4(sp)
 1007594:	dc000017 	ldw	r16,0(sp)
 1007598:	dec00304 	addi	sp,sp,12
 100759c:	f800283a 	ret

010075a0 <_ZNSiD2Ev>:
 10075a0:	28800017 	ldw	r2,0(r5)
 10075a4:	29800117 	ldw	r6,4(r5)
 10075a8:	10fffd17 	ldw	r3,-12(r2)
 10075ac:	20800015 	stw	r2,0(r4)
 10075b0:	20000115 	stw	zero,4(r4)
 10075b4:	20c9883a 	add	r4,r4,r3
 10075b8:	21800015 	stw	r6,0(r4)
 10075bc:	f800283a 	ret

010075c0 <_ZNSiC1EPSt15basic_streambufIcSt11char_traitsIcEE>:
 10075c0:	deffec04 	addi	sp,sp,-80
 10075c4:	008040f4 	movhi	r2,259
 10075c8:	109cae04 	addi	r2,r2,29368
 10075cc:	00c041b4 	movhi	r3,262
 10075d0:	18e03a04 	addi	r3,r3,-32536
 10075d4:	d8800615 	stw	r2,24(sp)
 10075d8:	d9000e15 	stw	r4,56(sp)
 10075dc:	00804034 	movhi	r2,256
 10075e0:	109da704 	addi	r2,r2,30364
 10075e4:	d809883a 	mov	r4,sp
 10075e8:	d8c00715 	stw	r3,28(sp)
 10075ec:	d9400f15 	stw	r5,60(sp)
 10075f0:	dfc01315 	stw	ra,76(sp)
 10075f4:	d8800915 	stw	r2,36(sp)
 10075f8:	df001215 	stw	fp,72(sp)
 10075fc:	ddc01115 	stw	r23,68(sp)
 1007600:	dec00815 	stw	sp,32(sp)
 1007604:	dec00a15 	stw	sp,40(sp)
 1007608:	10424240 	call	1042424 <_Unwind_SjLj_Register>
 100760c:	d8800e17 	ldw	r2,56(sp)
 1007610:	10800204 	addi	r2,r2,8
 1007614:	d8800d15 	stw	r2,52(sp)
 1007618:	d9000d17 	ldw	r4,52(sp)
 100761c:	00bfffc4 	movi	r2,-1
 1007620:	d8800115 	stw	r2,4(sp)
 1007624:	103a7c00 	call	103a7c0 <_ZNSt8ios_baseC2Ev>
 1007628:	d8c00d17 	ldw	r3,52(sp)
 100762c:	008041b4 	movhi	r2,262
 1007630:	10a51204 	addi	r2,r2,-27576
 1007634:	18001d05 	stb	zero,116(r3)
 1007638:	d8c00e17 	ldw	r3,56(sp)
 100763c:	d9400f17 	ldw	r5,60(sp)
 1007640:	18800015 	stw	r2,0(r3)
 1007644:	d8c00d17 	ldw	r3,52(sp)
 1007648:	10800504 	addi	r2,r2,20
 100764c:	18800015 	stw	r2,0(r3)
 1007650:	d8800e17 	ldw	r2,56(sp)
 1007654:	18001c15 	stw	zero,112(r3)
 1007658:	18001d45 	stb	zero,117(r3)
 100765c:	10000115 	stw	zero,4(r2)
 1007660:	18001e15 	stw	zero,120(r3)
 1007664:	18001f15 	stw	zero,124(r3)
 1007668:	18002015 	stw	zero,128(r3)
 100766c:	18002115 	stw	zero,132(r3)
 1007670:	00800044 	movi	r2,1
 1007674:	d8800115 	stw	r2,4(sp)
 1007678:	1809883a 	mov	r4,r3
 100767c:	100690c0 	call	100690c <_ZNSt9basic_iosIcSt11char_traitsIcEE4initEPSt15basic_streambufIcS1_E>
 1007680:	d809883a 	mov	r4,sp
 1007684:	10424340 	call	1042434 <_Unwind_SjLj_Unregister>
 1007688:	dfc01317 	ldw	ra,76(sp)
 100768c:	df001217 	ldw	fp,72(sp)
 1007690:	ddc01117 	ldw	r23,68(sp)
 1007694:	dec01404 	addi	sp,sp,80
 1007698:	f800283a 	ret
 100769c:	d8c00217 	ldw	r3,8(sp)
 10076a0:	008041b4 	movhi	r2,262
 10076a4:	10a50104 	addi	r2,r2,-27644
 10076a8:	d8c01015 	stw	r3,64(sp)
 10076ac:	d8c00d17 	ldw	r3,52(sp)
 10076b0:	18800015 	stw	r2,0(r3)
 10076b4:	1809883a 	mov	r4,r3
 10076b8:	d8000115 	stw	zero,4(sp)
 10076bc:	103a6e00 	call	103a6e0 <_ZNSt8ios_baseD2Ev>
 10076c0:	d9001017 	ldw	r4,64(sp)
 10076c4:	00bfffc4 	movi	r2,-1
 10076c8:	d8800115 	stw	r2,4(sp)
 10076cc:	10426f00 	call	10426f0 <_Unwind_SjLj_Resume>

010076d0 <_ZTv0_n12_NSiD0Ev>:
 10076d0:	20800017 	ldw	r2,0(r4)
 10076d4:	10fffd17 	ldw	r3,-12(r2)
 10076d8:	20c9883a 	add	r4,r4,r3
 10076dc:	10076e01 	jmpi	10076e0 <_ZNSiD0Ev>

010076e0 <_ZNSiD0Ev>:
 10076e0:	00c041b4 	movhi	r3,262
 10076e4:	18e51204 	addi	r3,r3,-27576
 10076e8:	defffe04 	addi	sp,sp,-8
 10076ec:	18800504 	addi	r2,r3,20
 10076f0:	20c00015 	stw	r3,0(r4)
 10076f4:	dc400015 	stw	r17,0(sp)
 10076f8:	20800215 	stw	r2,8(r4)
 10076fc:	2023883a 	mov	r17,r4
 1007700:	008041b4 	movhi	r2,262
 1007704:	10a50104 	addi	r2,r2,-27644
 1007708:	21000204 	addi	r4,r4,8
 100770c:	20800015 	stw	r2,0(r4)
 1007710:	88000115 	stw	zero,4(r17)
 1007714:	dfc00115 	stw	ra,4(sp)
 1007718:	103a6e00 	call	103a6e0 <_ZNSt8ios_baseD2Ev>
 100771c:	8809883a 	mov	r4,r17
 1007720:	dfc00117 	ldw	ra,4(sp)
 1007724:	dc400017 	ldw	r17,0(sp)
 1007728:	dec00204 	addi	sp,sp,8
 100772c:	1036b441 	jmpi	1036b44 <_ZdlPv>

01007730 <_ZNSi5seekgExSt12_Ios_Seekdir>:
 1007730:	deffdc04 	addi	sp,sp,-144
 1007734:	008040f4 	movhi	r2,259
 1007738:	109cae04 	addi	r2,r2,29368
 100773c:	d8800c15 	stw	r2,48(sp)
 1007740:	00804034 	movhi	r2,256
 1007744:	109e1c04 	addi	r2,r2,30832
 1007748:	00c041b4 	movhi	r3,262
 100774c:	18e03c04 	addi	r3,r3,-32528
 1007750:	d8800f15 	stw	r2,60(sp)
 1007754:	d9001415 	stw	r4,80(sp)
 1007758:	d8800204 	addi	r2,sp,8
 100775c:	d9000604 	addi	r4,sp,24
 1007760:	d8c00d15 	stw	r3,52(sp)
 1007764:	d8800e15 	stw	r2,56(sp)
 1007768:	dfc02315 	stw	ra,140(sp)
 100776c:	df002215 	stw	fp,136(sp)
 1007770:	ddc02115 	stw	r23,132(sp)
 1007774:	dd802015 	stw	r22,128(sp)
 1007778:	dd401f15 	stw	r21,124(sp)
 100777c:	dd001e15 	stw	r20,120(sp)
 1007780:	dcc01d15 	stw	r19,116(sp)
 1007784:	dc801c15 	stw	r18,112(sp)
 1007788:	dc401b15 	stw	r17,108(sp)
 100778c:	dc001a15 	stw	r16,104(sp)
 1007790:	dec01015 	stw	sp,64(sp)
 1007794:	d9401515 	stw	r5,84(sp)
 1007798:	d9801615 	stw	r6,88(sp)
 100779c:	d9c01715 	stw	r7,92(sp)
 10077a0:	10424240 	call	1042424 <_Unwind_SjLj_Register>
 10077a4:	d8c01417 	ldw	r3,80(sp)
 10077a8:	18800017 	ldw	r2,0(r3)
 10077ac:	d8c01315 	stw	r3,76(sp)
 10077b0:	10fffd17 	ldw	r3,-12(r2)
 10077b4:	d8801417 	ldw	r2,80(sp)
 10077b8:	10c7883a 	add	r3,r2,r3
 10077bc:	18800517 	ldw	r2,20(r3)
 10077c0:	1080014c 	andi	r2,r2,5
 10077c4:	10000f26 	beq	r2,zero,1007804 <_ZNSi5seekgExSt12_Ios_Seekdir+0xd4>
 10077c8:	d9000604 	addi	r4,sp,24
 10077cc:	10424340 	call	1042434 <_Unwind_SjLj_Unregister>
 10077d0:	d8801417 	ldw	r2,80(sp)
 10077d4:	dfc02317 	ldw	ra,140(sp)
 10077d8:	df002217 	ldw	fp,136(sp)
 10077dc:	ddc02117 	ldw	r23,132(sp)
 10077e0:	dd802017 	ldw	r22,128(sp)
 10077e4:	dd401f17 	ldw	r21,124(sp)
 10077e8:	dd001e17 	ldw	r20,120(sp)
 10077ec:	dcc01d17 	ldw	r19,116(sp)
 10077f0:	dc801c17 	ldw	r18,112(sp)
 10077f4:	dc401b17 	ldw	r17,108(sp)
 10077f8:	dc001a17 	ldw	r16,104(sp)
 10077fc:	dec02404 	addi	sp,sp,144
 1007800:	f800283a 	ret
 1007804:	19401e17 	ldw	r5,120(r3)
 1007808:	d8801717 	ldw	r2,92(sp)
 100780c:	d9c01617 	ldw	r7,88(sp)
 1007810:	28c00017 	ldw	r3,0(r5)
 1007814:	d8800015 	stw	r2,0(sp)
 1007818:	00800204 	movi	r2,8
 100781c:	d8800115 	stw	r2,4(sp)
 1007820:	00800084 	movi	r2,2
 1007824:	1a000417 	ldw	r8,16(r3)
 1007828:	d8800715 	stw	r2,28(sp)
 100782c:	d9000204 	addi	r4,sp,8
 1007830:	d9801517 	ldw	r6,84(sp)
 1007834:	403ee83a 	callr	r8
 1007838:	d9800217 	ldw	r6,8(sp)
 100783c:	00bfffc4 	movi	r2,-1
 1007840:	d9c00317 	ldw	r7,12(sp)
 1007844:	30bfe01e 	bne	r6,r2,10077c8 <_ZNSi5seekgExSt12_Ios_Seekdir+0x98>
 1007848:	11ffdf1e 	bne	r2,r7,10077c8 <_ZNSi5seekgExSt12_Ios_Seekdir+0x98>
 100784c:	d8c01417 	ldw	r3,80(sp)
 1007850:	18800017 	ldw	r2,0(r3)
 1007854:	113ffd17 	ldw	r4,-12(r2)
 1007858:	1909883a 	add	r4,r3,r4
 100785c:	21400517 	ldw	r5,20(r4)
 1007860:	d9800715 	stw	r6,28(sp)
 1007864:	29400114 	ori	r5,r5,4
 1007868:	1006cf80 	call	1006cf8 <_ZNSt9basic_iosIcSt11char_traitsIcEE5clearESt12_Ios_Iostate>
 100786c:	003fd606 	br	10077c8 <_ZNSi5seekgExSt12_Ios_Seekdir+0x98>
 1007870:	d8800817 	ldw	r2,32(sp)
 1007874:	d8c00717 	ldw	r3,28(sp)
 1007878:	d8801815 	stw	r2,96(sp)
 100787c:	00800044 	movi	r2,1
 1007880:	d8c01915 	stw	r3,100(sp)
 1007884:	18800626 	beq	r3,r2,10078a0 <_ZNSi5seekgExSt12_Ios_Seekdir+0x170>
 1007888:	d8000715 	stw	zero,28(sp)
 100788c:	10369880 	call	1036988 <__cxa_end_catch>
 1007890:	d9001817 	ldw	r4,96(sp)
 1007894:	00bfffc4 	movi	r2,-1
 1007898:	d8800715 	stw	r2,28(sp)
 100789c:	10426f00 	call	10426f0 <_Unwind_SjLj_Resume>
 10078a0:	d9001817 	ldw	r4,96(sp)
 10078a4:	1036a2c0 	call	1036a2c <__cxa_begin_catch>
 10078a8:	d8801417 	ldw	r2,80(sp)
 10078ac:	10c00017 	ldw	r3,0(r2)
 10078b0:	193ffd17 	ldw	r4,-12(r3)
 10078b4:	d8c01317 	ldw	r3,76(sp)
 10078b8:	1909883a 	add	r4,r3,r4
 10078bc:	21400504 	addi	r5,r4,20
 10078c0:	28800017 	ldw	r2,0(r5)
 10078c4:	d8c01917 	ldw	r3,100(sp)
 10078c8:	10c4b03a 	or	r2,r2,r3
 10078cc:	28800015 	stw	r2,0(r5)
 10078d0:	20c00417 	ldw	r3,16(r4)
 10078d4:	d8801917 	ldw	r2,100(sp)
 10078d8:	1886703a 	and	r3,r3,r2
 10078dc:	1800031e 	bne	r3,zero,10078ec <_ZNSi5seekgExSt12_Ios_Seekdir+0x1bc>
 10078e0:	d8000715 	stw	zero,28(sp)
 10078e4:	10369880 	call	1036988 <__cxa_end_catch>
 10078e8:	003fb706 	br	10077c8 <_ZNSi5seekgExSt12_Ios_Seekdir+0x98>
 10078ec:	d8800715 	stw	r2,28(sp)
 10078f0:	1035f280 	call	1035f28 <__cxa_rethrow>

010078f4 <_ZNSi5seekgESt4fposI10_mbstate_tE>:
 10078f4:	deffd704 	addi	sp,sp,-164
 10078f8:	008040f4 	movhi	r2,259
 10078fc:	109cae04 	addi	r2,r2,29368
 1007900:	d8801115 	stw	r2,68(sp)
 1007904:	00804034 	movhi	r2,256
 1007908:	109e9804 	addi	r2,r2,31328
 100790c:	00c041b4 	movhi	r3,262
 1007910:	18e04004 	addi	r3,r3,-32512
 1007914:	d8801415 	stw	r2,80(sp)
 1007918:	d9001915 	stw	r4,100(sp)
 100791c:	d8800304 	addi	r2,sp,12
 1007920:	d9000b04 	addi	r4,sp,44
 1007924:	d8c01215 	stw	r3,72(sp)
 1007928:	d8801315 	stw	r2,76(sp)
 100792c:	dfc02515 	stw	ra,148(sp)
 1007930:	df002415 	stw	fp,144(sp)
 1007934:	ddc02315 	stw	r23,140(sp)
 1007938:	dd802215 	stw	r22,136(sp)
 100793c:	dd402115 	stw	r21,132(sp)
 1007940:	dd002015 	stw	r20,128(sp)
 1007944:	dcc01f15 	stw	r19,124(sp)
 1007948:	dc801e15 	stw	r18,120(sp)
 100794c:	dc401d15 	stw	r17,116(sp)
 1007950:	dc001c15 	stw	r16,112(sp)
 1007954:	d9402615 	stw	r5,152(sp)
 1007958:	d9802715 	stw	r6,156(sp)
 100795c:	d9c02815 	stw	r7,160(sp)
 1007960:	dec01515 	stw	sp,84(sp)
 1007964:	10424240 	call	1042424 <_Unwind_SjLj_Register>
 1007968:	d8c01917 	ldw	r3,100(sp)
 100796c:	18800017 	ldw	r2,0(r3)
 1007970:	d8c01815 	stw	r3,96(sp)
 1007974:	10fffd17 	ldw	r3,-12(r2)
 1007978:	d8801917 	ldw	r2,100(sp)
 100797c:	10c7883a 	add	r3,r2,r3
 1007980:	18800517 	ldw	r2,20(r3)
 1007984:	1080014c 	andi	r2,r2,5
 1007988:	10000f26 	beq	r2,zero,10079c8 <_ZNSi5seekgESt4fposI10_mbstate_tE+0xd4>
 100798c:	d9000b04 	addi	r4,sp,44
 1007990:	10424340 	call	1042434 <_Unwind_SjLj_Unregister>
 1007994:	d8801917 	ldw	r2,100(sp)
 1007998:	dfc02517 	ldw	ra,148(sp)
 100799c:	df002417 	ldw	fp,144(sp)
 10079a0:	ddc02317 	ldw	r23,140(sp)
 10079a4:	dd802217 	ldw	r22,136(sp)
 10079a8:	dd402117 	ldw	r21,132(sp)
 10079ac:	dd002017 	ldw	r20,128(sp)
 10079b0:	dcc01f17 	ldw	r19,124(sp)
 10079b4:	dc801e17 	ldw	r18,120(sp)
 10079b8:	dc401d17 	ldw	r17,116(sp)
 10079bc:	dc001c17 	ldw	r16,112(sp)
 10079c0:	dec02904 	addi	sp,sp,164
 10079c4:	f800283a 	ret
 10079c8:	d8802617 	ldw	r2,152(sp)
 10079cc:	19c01e17 	ldw	r7,120(r3)
 10079d0:	d8c02917 	ldw	r3,164(sp)
 10079d4:	d8800715 	stw	r2,28(sp)
 10079d8:	d8802717 	ldw	r2,156(sp)
 10079dc:	d8c00a15 	stw	r3,40(sp)
 10079e0:	380b883a 	mov	r5,r7
 10079e4:	d8800815 	stw	r2,32(sp)
 10079e8:	d8802817 	ldw	r2,160(sp)
 10079ec:	d9000304 	addi	r4,sp,12
 10079f0:	d8800915 	stw	r2,36(sp)
 10079f4:	00800204 	movi	r2,8
 10079f8:	39800017 	ldw	r6,0(r7)
 10079fc:	d8c00917 	ldw	r3,36(sp)
 1007a00:	d8800215 	stw	r2,8(sp)
 1007a04:	d8800a17 	ldw	r2,40(sp)
 1007a08:	d8c00015 	stw	r3,0(sp)
 1007a0c:	d9c00817 	ldw	r7,32(sp)
 1007a10:	d8800115 	stw	r2,4(sp)
 1007a14:	00800084 	movi	r2,2
 1007a18:	30c00517 	ldw	r3,20(r6)
 1007a1c:	d8800c15 	stw	r2,48(sp)
 1007a20:	d9800717 	ldw	r6,28(sp)
 1007a24:	183ee83a 	callr	r3
 1007a28:	d9800317 	ldw	r6,12(sp)
 1007a2c:	00bfffc4 	movi	r2,-1
 1007a30:	d9c00417 	ldw	r7,16(sp)
 1007a34:	30bfd51e 	bne	r6,r2,100798c <_ZNSi5seekgESt4fposI10_mbstate_tE+0x98>
 1007a38:	11ffd41e 	bne	r2,r7,100798c <_ZNSi5seekgESt4fposI10_mbstate_tE+0x98>
 1007a3c:	d8c01917 	ldw	r3,100(sp)
 1007a40:	18800017 	ldw	r2,0(r3)
 1007a44:	113ffd17 	ldw	r4,-12(r2)
 1007a48:	1909883a 	add	r4,r3,r4
 1007a4c:	21400517 	ldw	r5,20(r4)
 1007a50:	d9800c15 	stw	r6,48(sp)
 1007a54:	29400114 	ori	r5,r5,4
 1007a58:	1006cf80 	call	1006cf8 <_ZNSt9basic_iosIcSt11char_traitsIcEE5clearESt12_Ios_Iostate>
 1007a5c:	003fcb06 	br	100798c <_ZNSi5seekgESt4fposI10_mbstate_tE+0x98>
 1007a60:	d8800d17 	ldw	r2,52(sp)
 1007a64:	d8c00c17 	ldw	r3,48(sp)
 1007a68:	d8801a15 	stw	r2,104(sp)
 1007a6c:	00800044 	movi	r2,1
 1007a70:	d8c01b15 	stw	r3,108(sp)
 1007a74:	18800626 	beq	r3,r2,1007a90 <_ZNSi5seekgESt4fposI10_mbstate_tE+0x19c>
 1007a78:	d8000c15 	stw	zero,48(sp)
 1007a7c:	10369880 	call	1036988 <__cxa_end_catch>
 1007a80:	d9001a17 	ldw	r4,104(sp)
 1007a84:	00bfffc4 	movi	r2,-1
 1007a88:	d8800c15 	stw	r2,48(sp)
 1007a8c:	10426f00 	call	10426f0 <_Unwind_SjLj_Resume>
 1007a90:	d9001a17 	ldw	r4,104(sp)
 1007a94:	1036a2c0 	call	1036a2c <__cxa_begin_catch>
 1007a98:	d8801917 	ldw	r2,100(sp)
 1007a9c:	10c00017 	ldw	r3,0(r2)
 1007aa0:	193ffd17 	ldw	r4,-12(r3)
 1007aa4:	d8c01817 	ldw	r3,96(sp)
 1007aa8:	1909883a 	add	r4,r3,r4
 1007aac:	21400504 	addi	r5,r4,20
 1007ab0:	28800017 	ldw	r2,0(r5)
 1007ab4:	d8c01b17 	ldw	r3,108(sp)
 1007ab8:	10c4b03a 	or	r2,r2,r3
 1007abc:	28800015 	stw	r2,0(r5)
 1007ac0:	20c00417 	ldw	r3,16(r4)
 1007ac4:	d8801b17 	ldw	r2,108(sp)
 1007ac8:	1886703a 	and	r3,r3,r2
 1007acc:	1800031e 	bne	r3,zero,1007adc <_ZNSi5seekgESt4fposI10_mbstate_tE+0x1e8>
 1007ad0:	d8000c15 	stw	zero,48(sp)
 1007ad4:	10369880 	call	1036988 <__cxa_end_catch>
 1007ad8:	003fac06 	br	100798c <_ZNSi5seekgESt4fposI10_mbstate_tE+0x98>
 1007adc:	d8800c15 	stw	r2,48(sp)
 1007ae0:	1035f280 	call	1035f28 <__cxa_rethrow>

01007ae4 <_ZNSi5tellgEv>:
 1007ae4:	deffe204 	addi	sp,sp,-120
 1007ae8:	008040f4 	movhi	r2,259
 1007aec:	109cae04 	addi	r2,r2,29368
 1007af0:	d8800815 	stw	r2,32(sp)
 1007af4:	00804034 	movhi	r2,256
 1007af8:	109f0104 	addi	r2,r2,31748
 1007afc:	d8800b15 	stw	r2,44(sp)
 1007b00:	d8800204 	addi	r2,sp,8
 1007b04:	00c041b4 	movhi	r3,262
 1007b08:	18e04404 	addi	r3,r3,-32496
 1007b0c:	d9001015 	stw	r4,64(sp)
 1007b10:	1009883a 	mov	r4,r2
 1007b14:	d8c00915 	stw	r3,36(sp)
 1007b18:	d8800a15 	stw	r2,40(sp)
 1007b1c:	d9401115 	stw	r5,68(sp)
 1007b20:	dfc01d15 	stw	ra,116(sp)
 1007b24:	df001c15 	stw	fp,112(sp)
 1007b28:	ddc01b15 	stw	r23,108(sp)
 1007b2c:	dd801a15 	stw	r22,104(sp)
 1007b30:	dd401915 	stw	r21,100(sp)
 1007b34:	dd001815 	stw	r20,96(sp)
 1007b38:	dcc01715 	stw	r19,92(sp)
 1007b3c:	dc801615 	stw	r18,88(sp)
 1007b40:	dc401515 	stw	r17,84(sp)
 1007b44:	dc001415 	stw	r16,80(sp)
 1007b48:	dec00c15 	stw	sp,48(sp)
 1007b4c:	10424240 	call	1042424 <_Unwind_SjLj_Register>
 1007b50:	d9401017 	ldw	r5,64(sp)
 1007b54:	0005883a 	mov	r2,zero
 1007b58:	013fffc4 	movi	r4,-1
 1007b5c:	29000115 	stw	r4,4(r5)
 1007b60:	28800215 	stw	r2,8(r5)
 1007b64:	29000015 	stw	r4,0(r5)
 1007b68:	28000315 	stw	zero,12(r5)
 1007b6c:	d8801117 	ldw	r2,68(sp)
 1007b70:	d8800f15 	stw	r2,60(sp)
 1007b74:	10800017 	ldw	r2,0(r2)
 1007b78:	d9400f17 	ldw	r5,60(sp)
 1007b7c:	10fffd17 	ldw	r3,-12(r2)
 1007b80:	28c7883a 	add	r3,r5,r3
 1007b84:	18800517 	ldw	r2,20(r3)
 1007b88:	1080014c 	andi	r2,r2,5
 1007b8c:	10000f26 	beq	r2,zero,1007bcc <_ZNSi5tellgEv+0xe8>
 1007b90:	d9000204 	addi	r4,sp,8
 1007b94:	10424340 	call	1042434 <_Unwind_SjLj_Unregister>
 1007b98:	d8801017 	ldw	r2,64(sp)
 1007b9c:	dfc01d17 	ldw	ra,116(sp)
 1007ba0:	df001c17 	ldw	fp,112(sp)
 1007ba4:	ddc01b17 	ldw	r23,108(sp)
 1007ba8:	dd801a17 	ldw	r22,104(sp)
 1007bac:	dd401917 	ldw	r21,100(sp)
 1007bb0:	dd001817 	ldw	r20,96(sp)
 1007bb4:	dcc01717 	ldw	r19,92(sp)
 1007bb8:	dc801617 	ldw	r18,88(sp)
 1007bbc:	dc401517 	ldw	r17,84(sp)
 1007bc0:	dc001417 	ldw	r16,80(sp)
 1007bc4:	dec01e04 	addi	sp,sp,120
 1007bc8:	f800283a 	ret
 1007bcc:	19401e17 	ldw	r5,120(r3)
 1007bd0:	00800044 	movi	r2,1
 1007bd4:	00c00204 	movi	r3,8
 1007bd8:	29000017 	ldw	r4,0(r5)
 1007bdc:	d8800015 	stw	r2,0(sp)
 1007be0:	d8c00115 	stw	r3,4(sp)
 1007be4:	00800084 	movi	r2,2
 1007be8:	22000417 	ldw	r8,16(r4)
 1007bec:	d8800315 	stw	r2,12(sp)
 1007bf0:	d9001017 	ldw	r4,64(sp)
 1007bf4:	000d883a 	mov	r6,zero
 1007bf8:	000f883a 	mov	r7,zero
 1007bfc:	403ee83a 	callr	r8
 1007c00:	003fe306 	br	1007b90 <_ZNSi5tellgEv+0xac>
 1007c04:	d8800317 	ldw	r2,12(sp)
 1007c08:	d8c00417 	ldw	r3,16(sp)
 1007c0c:	d8801315 	stw	r2,76(sp)
 1007c10:	d9401317 	ldw	r5,76(sp)
 1007c14:	00800044 	movi	r2,1
 1007c18:	d8c01215 	stw	r3,72(sp)
 1007c1c:	28800626 	beq	r5,r2,1007c38 <_ZNSi5tellgEv+0x154>
 1007c20:	d8000315 	stw	zero,12(sp)
 1007c24:	10369880 	call	1036988 <__cxa_end_catch>
 1007c28:	d9001217 	ldw	r4,72(sp)
 1007c2c:	00bfffc4 	movi	r2,-1
 1007c30:	d8800315 	stw	r2,12(sp)
 1007c34:	10426f00 	call	10426f0 <_Unwind_SjLj_Resume>
 1007c38:	d9001217 	ldw	r4,72(sp)
 1007c3c:	1036a2c0 	call	1036a2c <__cxa_begin_catch>
 1007c40:	d8801117 	ldw	r2,68(sp)
 1007c44:	10c00017 	ldw	r3,0(r2)
 1007c48:	193ffd17 	ldw	r4,-12(r3)
 1007c4c:	d8c00f17 	ldw	r3,60(sp)
 1007c50:	1909883a 	add	r4,r3,r4
 1007c54:	21400504 	addi	r5,r4,20
 1007c58:	28800017 	ldw	r2,0(r5)
 1007c5c:	d8c01317 	ldw	r3,76(sp)
 1007c60:	10c4b03a 	or	r2,r2,r3
 1007c64:	28800015 	stw	r2,0(r5)
 1007c68:	20c00417 	ldw	r3,16(r4)
 1007c6c:	d9401317 	ldw	r5,76(sp)
 1007c70:	1946703a 	and	r3,r3,r5
 1007c74:	1800031e 	bne	r3,zero,1007c84 <_ZNSi5tellgEv+0x1a0>
 1007c78:	d8000315 	stw	zero,12(sp)
 1007c7c:	10369880 	call	1036988 <__cxa_end_catch>
 1007c80:	003fc306 	br	1007b90 <_ZNSi5tellgEv+0xac>
 1007c84:	d9400315 	stw	r5,12(sp)
 1007c88:	1035f280 	call	1035f28 <__cxa_rethrow>

01007c8c <_ZSt2wsIcSt11char_traitsIcEERSt13basic_istreamIT_T0_ES6_>:
 1007c8c:	deffea04 	addi	sp,sp,-88
 1007c90:	008040f4 	movhi	r2,259
 1007c94:	109cae04 	addi	r2,r2,29368
 1007c98:	00c041b4 	movhi	r3,262
 1007c9c:	18e04804 	addi	r3,r3,-32480
 1007ca0:	d8800715 	stw	r2,28(sp)
 1007ca4:	d9001115 	stw	r4,68(sp)
 1007ca8:	00804034 	movhi	r2,256
 1007cac:	109fa304 	addi	r2,r2,32396
 1007cb0:	d9000104 	addi	r4,sp,4
 1007cb4:	dfc01515 	stw	ra,84(sp)
 1007cb8:	d8c00815 	stw	r3,32(sp)
 1007cbc:	d8800a15 	stw	r2,40(sp)
 1007cc0:	df001415 	stw	fp,80(sp)
 1007cc4:	ddc01315 	stw	r23,76(sp)
 1007cc8:	dec00915 	stw	sp,36(sp)
 1007ccc:	dec00b15 	stw	sp,44(sp)
 1007cd0:	10424240 	call	1042424 <_Unwind_SjLj_Register>
 1007cd4:	d8c01117 	ldw	r3,68(sp)
 1007cd8:	d809883a 	mov	r4,sp
 1007cdc:	18800017 	ldw	r2,0(r3)
 1007ce0:	117ffd17 	ldw	r5,-12(r2)
 1007ce4:	194b883a 	add	r5,r3,r5
 1007ce8:	29401b04 	addi	r5,r5,108
 1007cec:	1002cfc0 	call	1002cfc <_ZNSt6localeC1ERKS_>
 1007cf0:	00800044 	movi	r2,1
 1007cf4:	d8800215 	stw	r2,8(sp)
 1007cf8:	d809883a 	mov	r4,sp
 1007cfc:	1038c540 	call	1038c54 <_ZSt9use_facetISt5ctypeIcEERKT_RKSt6locale>
 1007d00:	d809883a 	mov	r4,sp
 1007d04:	d8800f15 	stw	r2,60(sp)
 1007d08:	1003ef00 	call	1003ef0 <_ZNSt6localeD1Ev>
 1007d0c:	d9001117 	ldw	r4,68(sp)
 1007d10:	20800017 	ldw	r2,0(r4)
 1007d14:	d9001015 	stw	r4,64(sp)
 1007d18:	10fffd17 	ldw	r3,-12(r2)
 1007d1c:	20c7883a 	add	r3,r4,r3
 1007d20:	18c01e17 	ldw	r3,120(r3)
 1007d24:	d8c00e15 	stw	r3,56(sp)
 1007d28:	d9000e17 	ldw	r4,56(sp)
 1007d2c:	18c00217 	ldw	r3,8(r3)
 1007d30:	20800317 	ldw	r2,12(r4)
 1007d34:	18804c2e 	bgeu	r3,r2,1007e68 <_ZSt2wsIcSt11char_traitsIcEERSt13basic_istreamIT_T0_ES6_+0x1dc>
 1007d38:	18c00003 	ldbu	r3,0(r3)
 1007d3c:	00bfffc4 	movi	r2,-1
 1007d40:	18802726 	beq	r3,r2,1007de0 <_ZSt2wsIcSt11char_traitsIcEERSt13basic_istreamIT_T0_ES6_+0x154>
 1007d44:	d9000f17 	ldw	r4,60(sp)
 1007d48:	18c03fcc 	andi	r3,r3,255
 1007d4c:	20800617 	ldw	r2,24(r4)
 1007d50:	1887883a 	add	r3,r3,r2
 1007d54:	19000007 	ldb	r4,0(r3)
 1007d58:	2100020c 	andi	r4,r4,8
 1007d5c:	20001826 	beq	r4,zero,1007dc0 <_ZSt2wsIcSt11char_traitsIcEERSt13basic_istreamIT_T0_ES6_+0x134>
 1007d60:	d8800e17 	ldw	r2,56(sp)
 1007d64:	10c00217 	ldw	r3,8(r2)
 1007d68:	10800317 	ldw	r2,12(r2)
 1007d6c:	18802e2e 	bgeu	r3,r2,1007e28 <_ZSt2wsIcSt11char_traitsIcEERSt13basic_istreamIT_T0_ES6_+0x19c>
 1007d70:	18800044 	addi	r2,r3,1
 1007d74:	19000003 	ldbu	r4,0(r3)
 1007d78:	d8c00e17 	ldw	r3,56(sp)
 1007d7c:	18800215 	stw	r2,8(r3)
 1007d80:	017fffc4 	movi	r5,-1
 1007d84:	21401626 	beq	r4,r5,1007de0 <_ZSt2wsIcSt11char_traitsIcEERSt13basic_istreamIT_T0_ES6_+0x154>
 1007d88:	d8800e17 	ldw	r2,56(sp)
 1007d8c:	11000217 	ldw	r4,8(r2)
 1007d90:	10800317 	ldw	r2,12(r2)
 1007d94:	20802c2e 	bgeu	r4,r2,1007e48 <_ZSt2wsIcSt11char_traitsIcEERSt13basic_istreamIT_T0_ES6_+0x1bc>
 1007d98:	20c00003 	ldbu	r3,0(r4)
 1007d9c:	00bfffc4 	movi	r2,-1
 1007da0:	18800f26 	beq	r3,r2,1007de0 <_ZSt2wsIcSt11char_traitsIcEERSt13basic_istreamIT_T0_ES6_+0x154>
 1007da4:	d9000f17 	ldw	r4,60(sp)
 1007da8:	20800617 	ldw	r2,24(r4)
 1007dac:	19003fcc 	andi	r4,r3,255
 1007db0:	1105883a 	add	r2,r2,r4
 1007db4:	10c00007 	ldb	r3,0(r2)
 1007db8:	18c0020c 	andi	r3,r3,8
 1007dbc:	183fe81e 	bne	r3,zero,1007d60 <_ZSt2wsIcSt11char_traitsIcEERSt13basic_istreamIT_T0_ES6_+0xd4>
 1007dc0:	d9000104 	addi	r4,sp,4
 1007dc4:	10424340 	call	1042434 <_Unwind_SjLj_Unregister>
 1007dc8:	d8801117 	ldw	r2,68(sp)
 1007dcc:	dfc01517 	ldw	ra,84(sp)
 1007dd0:	df001417 	ldw	fp,80(sp)
 1007dd4:	ddc01317 	ldw	r23,76(sp)
 1007dd8:	dec01604 	addi	sp,sp,88
 1007ddc:	f800283a 	ret
 1007de0:	d8c01117 	ldw	r3,68(sp)
 1007de4:	18800017 	ldw	r2,0(r3)
 1007de8:	113ffd17 	ldw	r4,-12(r2)
 1007dec:	d8801017 	ldw	r2,64(sp)
 1007df0:	1109883a 	add	r4,r2,r4
 1007df4:	21400517 	ldw	r5,20(r4)
 1007df8:	00bfffc4 	movi	r2,-1
 1007dfc:	d8800215 	stw	r2,8(sp)
 1007e00:	29400094 	ori	r5,r5,2
 1007e04:	1006cf80 	call	1006cf8 <_ZNSt9basic_iosIcSt11char_traitsIcEE5clearESt12_Ios_Iostate>
 1007e08:	d9000104 	addi	r4,sp,4
 1007e0c:	10424340 	call	1042434 <_Unwind_SjLj_Unregister>
 1007e10:	d8801117 	ldw	r2,68(sp)
 1007e14:	dfc01517 	ldw	ra,84(sp)
 1007e18:	df001417 	ldw	fp,80(sp)
 1007e1c:	ddc01317 	ldw	r23,76(sp)
 1007e20:	dec01604 	addi	sp,sp,88
 1007e24:	f800283a 	ret
 1007e28:	d9000e17 	ldw	r4,56(sp)
 1007e2c:	00ffffc4 	movi	r3,-1
 1007e30:	20800017 	ldw	r2,0(r4)
 1007e34:	11400a17 	ldw	r5,40(r2)
 1007e38:	d8c00215 	stw	r3,8(sp)
 1007e3c:	283ee83a 	callr	r5
 1007e40:	1009883a 	mov	r4,r2
 1007e44:	003fce06 	br	1007d80 <_ZSt2wsIcSt11char_traitsIcEERSt13basic_istreamIT_T0_ES6_+0xf4>
 1007e48:	d8c00e17 	ldw	r3,56(sp)
 1007e4c:	18800017 	ldw	r2,0(r3)
 1007e50:	1809883a 	mov	r4,r3
 1007e54:	10c00917 	ldw	r3,36(r2)
 1007e58:	d9400215 	stw	r5,8(sp)
 1007e5c:	183ee83a 	callr	r3
 1007e60:	1007883a 	mov	r3,r2
 1007e64:	003fcd06 	br	1007d9c <_ZSt2wsIcSt11char_traitsIcEERSt13basic_istreamIT_T0_ES6_+0x110>
 1007e68:	d8c00e17 	ldw	r3,56(sp)
 1007e6c:	18800017 	ldw	r2,0(r3)
 1007e70:	1809883a 	mov	r4,r3
 1007e74:	00ffffc4 	movi	r3,-1
 1007e78:	11400917 	ldw	r5,36(r2)
 1007e7c:	d8c00215 	stw	r3,8(sp)
 1007e80:	283ee83a 	callr	r5
 1007e84:	1007883a 	mov	r3,r2
 1007e88:	003fac06 	br	1007d3c <_ZSt2wsIcSt11char_traitsIcEERSt13basic_istreamIT_T0_ES6_+0xb0>
 1007e8c:	d8800317 	ldw	r2,12(sp)
 1007e90:	d809883a 	mov	r4,sp
 1007e94:	d8801215 	stw	r2,72(sp)
 1007e98:	1003ef00 	call	1003ef0 <_ZNSt6localeD1Ev>
 1007e9c:	d9001217 	ldw	r4,72(sp)
 1007ea0:	00bfffc4 	movi	r2,-1
 1007ea4:	d8800215 	stw	r2,8(sp)
 1007ea8:	10426f00 	call	10426f0 <_Unwind_SjLj_Resume>

01007eac <_ZNSi6sentryC1ERSib>:
 1007eac:	29c00017 	ldw	r7,0(r5)
 1007eb0:	defffb04 	addi	sp,sp,-20
 1007eb4:	dcc00315 	stw	r19,12(sp)
 1007eb8:	38fffd17 	ldw	r3,-12(r7)
 1007ebc:	2027883a 	mov	r19,r4
 1007ec0:	20000005 	stb	zero,0(r4)
 1007ec4:	28c9883a 	add	r4,r5,r3
 1007ec8:	20800517 	ldw	r2,20(r4)
 1007ecc:	dc400115 	stw	r17,4(sp)
 1007ed0:	dc000015 	stw	r16,0(sp)
 1007ed4:	dfc00415 	stw	ra,16(sp)
 1007ed8:	dc800215 	stw	r18,8(sp)
 1007edc:	2823883a 	mov	r17,r5
 1007ee0:	3021883a 	mov	r16,r6
 1007ee4:	1000061e 	bne	r2,zero,1007f00 <_ZNSi6sentryC1ERSib+0x54>
 1007ee8:	21001c17 	ldw	r4,112(r4)
 1007eec:	20000226 	beq	r4,zero,1007ef8 <_ZNSi6sentryC1ERSib+0x4c>
 1007ef0:	102ba680 	call	102ba68 <_ZNSo5flushEv>
 1007ef4:	89c00017 	ldw	r7,0(r17)
 1007ef8:	80803fcc 	andi	r2,r16,255
 1007efc:	10001826 	beq	r2,zero,1007f60 <_ZNSi6sentryC1ERSib+0xb4>
 1007f00:	000b883a 	mov	r5,zero
 1007f04:	38bffd17 	ldw	r2,-12(r7)
 1007f08:	8889883a 	add	r4,r17,r2
 1007f0c:	20800517 	ldw	r2,20(r4)
 1007f10:	1000011e 	bne	r2,zero,1007f18 <_ZNSi6sentryC1ERSib+0x6c>
 1007f14:	28000926 	beq	r5,zero,1007f3c <_ZNSi6sentryC1ERSib+0x90>
 1007f18:	29400114 	ori	r5,r5,4
 1007f1c:	114ab03a 	or	r5,r2,r5
 1007f20:	dfc00417 	ldw	ra,16(sp)
 1007f24:	dcc00317 	ldw	r19,12(sp)
 1007f28:	dc800217 	ldw	r18,8(sp)
 1007f2c:	dc400117 	ldw	r17,4(sp)
 1007f30:	dc000017 	ldw	r16,0(sp)
 1007f34:	dec00504 	addi	sp,sp,20
 1007f38:	1006cf81 	jmpi	1006cf8 <_ZNSt9basic_iosIcSt11char_traitsIcEE5clearESt12_Ios_Iostate>
 1007f3c:	00800044 	movi	r2,1
 1007f40:	98800005 	stb	r2,0(r19)
 1007f44:	dfc00417 	ldw	ra,16(sp)
 1007f48:	dcc00317 	ldw	r19,12(sp)
 1007f4c:	dc800217 	ldw	r18,8(sp)
 1007f50:	dc400117 	ldw	r17,4(sp)
 1007f54:	dc000017 	ldw	r16,0(sp)
 1007f58:	dec00504 	addi	sp,sp,20
 1007f5c:	f800283a 	ret
 1007f60:	38fffd17 	ldw	r3,-12(r7)
 1007f64:	88c9883a 	add	r4,r17,r3
 1007f68:	20800317 	ldw	r2,12(r4)
 1007f6c:	1084000c 	andi	r2,r2,4096
 1007f70:	103fe326 	beq	r2,zero,1007f00 <_ZNSi6sentryC1ERSib+0x54>
 1007f74:	24001e17 	ldw	r16,120(r4)
 1007f78:	81000217 	ldw	r4,8(r16)
 1007f7c:	80800317 	ldw	r2,12(r16)
 1007f80:	2080332e 	bgeu	r4,r2,1008050 <_ZNSi6sentryC1ERSib+0x1a4>
 1007f84:	20c00003 	ldbu	r3,0(r4)
 1007f88:	38bffd17 	ldw	r2,-12(r7)
 1007f8c:	8885883a 	add	r2,r17,r2
 1007f90:	14801f17 	ldw	r18,124(r2)
 1007f94:	90002d26 	beq	r18,zero,100804c <_ZNSi6sentryC1ERSib+0x1a0>
 1007f98:	00bfffc4 	movi	r2,-1
 1007f9c:	18801d26 	beq	r3,r2,1008014 <_ZNSi6sentryC1ERSib+0x168>
 1007fa0:	90800617 	ldw	r2,24(r18)
 1007fa4:	19003fcc 	andi	r4,r3,255
 1007fa8:	1105883a 	add	r2,r2,r4
 1007fac:	10c00007 	ldb	r3,0(r2)
 1007fb0:	18c0020c 	andi	r3,r3,8
 1007fb4:	183fd226 	beq	r3,zero,1007f00 <_ZNSi6sentryC1ERSib+0x54>
 1007fb8:	80c00217 	ldw	r3,8(r16)
 1007fbc:	80800317 	ldw	r2,12(r16)
 1007fc0:	1880162e 	bgeu	r3,r2,100801c <_ZNSi6sentryC1ERSib+0x170>
 1007fc4:	18800044 	addi	r2,r3,1
 1007fc8:	19000003 	ldbu	r4,0(r3)
 1007fcc:	80800215 	stw	r2,8(r16)
 1007fd0:	20bfffe0 	cmpeqi	r2,r4,-1
 1007fd4:	10000e1e 	bne	r2,zero,1008010 <_ZNSi6sentryC1ERSib+0x164>
 1007fd8:	81000217 	ldw	r4,8(r16)
 1007fdc:	80800317 	ldw	r2,12(r16)
 1007fe0:	2080142e 	bgeu	r4,r2,1008034 <_ZNSi6sentryC1ERSib+0x188>
 1007fe4:	20c00003 	ldbu	r3,0(r4)
 1007fe8:	00bfffc4 	movi	r2,-1
 1007fec:	18800826 	beq	r3,r2,1008010 <_ZNSi6sentryC1ERSib+0x164>
 1007ff0:	90800617 	ldw	r2,24(r18)
 1007ff4:	19003fcc 	andi	r4,r3,255
 1007ff8:	1105883a 	add	r2,r2,r4
 1007ffc:	10c00007 	ldb	r3,0(r2)
 1008000:	18c0020c 	andi	r3,r3,8
 1008004:	183fec1e 	bne	r3,zero,1007fb8 <_ZNSi6sentryC1ERSib+0x10c>
 1008008:	89c00017 	ldw	r7,0(r17)
 100800c:	003fbc06 	br	1007f00 <_ZNSi6sentryC1ERSib+0x54>
 1008010:	89c00017 	ldw	r7,0(r17)
 1008014:	01400084 	movi	r5,2
 1008018:	003fba06 	br	1007f04 <_ZNSi6sentryC1ERSib+0x58>
 100801c:	80800017 	ldw	r2,0(r16)
 1008020:	8009883a 	mov	r4,r16
 1008024:	10c00a17 	ldw	r3,40(r2)
 1008028:	183ee83a 	callr	r3
 100802c:	1009883a 	mov	r4,r2
 1008030:	003fe706 	br	1007fd0 <_ZNSi6sentryC1ERSib+0x124>
 1008034:	80800017 	ldw	r2,0(r16)
 1008038:	8009883a 	mov	r4,r16
 100803c:	10c00917 	ldw	r3,36(r2)
 1008040:	183ee83a 	callr	r3
 1008044:	1007883a 	mov	r3,r2
 1008048:	003fe706 	br	1007fe8 <_ZNSi6sentryC1ERSib+0x13c>
 100804c:	103910c0 	call	103910c <_ZSt16__throw_bad_castv>
 1008050:	80800017 	ldw	r2,0(r16)
 1008054:	8009883a 	mov	r4,r16
 1008058:	10c00917 	ldw	r3,36(r2)
 100805c:	183ee83a 	callr	r3
 1008060:	89c00017 	ldw	r7,0(r17)
 1008064:	1007883a 	mov	r3,r2
 1008068:	003fc706 	br	1007f88 <_ZNSi6sentryC1ERSib+0xdc>

0100806c <_ZStrsIcSt11char_traitsIcEERSt13basic_istreamIT_T0_ES6_RS3_>:
 100806c:	deffe304 	addi	sp,sp,-116
 1008070:	008040f4 	movhi	r2,259
 1008074:	109cae04 	addi	r2,r2,29368
 1008078:	00c041b4 	movhi	r3,262
 100807c:	18e04a04 	addi	r3,r3,-32472
 1008080:	d8800715 	stw	r2,28(sp)
 1008084:	d9000f15 	stw	r4,60(sp)
 1008088:	00804074 	movhi	r2,257
 100808c:	10a06f04 	addi	r2,r2,-32324
 1008090:	d9000104 	addi	r4,sp,4
 1008094:	dfc01c15 	stw	ra,112(sp)
 1008098:	d8c00815 	stw	r3,32(sp)
 100809c:	d8800a15 	stw	r2,40(sp)
 10080a0:	d9401015 	stw	r5,64(sp)
 10080a4:	df001b15 	stw	fp,108(sp)
 10080a8:	ddc01a15 	stw	r23,104(sp)
 10080ac:	dd801915 	stw	r22,100(sp)
 10080b0:	dd401815 	stw	r21,96(sp)
 10080b4:	dd001715 	stw	r20,92(sp)
 10080b8:	dcc01615 	stw	r19,88(sp)
 10080bc:	dc801515 	stw	r18,84(sp)
 10080c0:	dc401415 	stw	r17,80(sp)
 10080c4:	dc001315 	stw	r16,76(sp)
 10080c8:	dec00915 	stw	sp,36(sp)
 10080cc:	dec00b15 	stw	sp,44(sp)
 10080d0:	10424240 	call	1042424 <_Unwind_SjLj_Register>
 10080d4:	d9400f17 	ldw	r5,60(sp)
 10080d8:	00bfffc4 	movi	r2,-1
 10080dc:	d809883a 	mov	r4,sp
 10080e0:	000d883a 	mov	r6,zero
 10080e4:	d8800215 	stw	r2,8(sp)
 10080e8:	1007eac0 	call	1007eac <_ZNSi6sentryC1ERSib>
 10080ec:	d8800003 	ldbu	r2,0(sp)
 10080f0:	10000f1e 	bne	r2,zero,1008130 <_ZStrsIcSt11char_traitsIcEERSt13basic_istreamIT_T0_ES6_RS3_+0xc4>
 10080f4:	d9000104 	addi	r4,sp,4
 10080f8:	10424340 	call	1042434 <_Unwind_SjLj_Unregister>
 10080fc:	d8800f17 	ldw	r2,60(sp)
 1008100:	dfc01c17 	ldw	ra,112(sp)
 1008104:	df001b17 	ldw	fp,108(sp)
 1008108:	ddc01a17 	ldw	r23,104(sp)
 100810c:	dd801917 	ldw	r22,100(sp)
 1008110:	dd401817 	ldw	r21,96(sp)
 1008114:	dd001717 	ldw	r20,92(sp)
 1008118:	dcc01617 	ldw	r19,88(sp)
 100811c:	dc801517 	ldw	r18,84(sp)
 1008120:	dc401417 	ldw	r17,80(sp)
 1008124:	dc001317 	ldw	r16,76(sp)
 1008128:	dec01d04 	addi	sp,sp,116
 100812c:	f800283a 	ret
 1008130:	d8c00f17 	ldw	r3,60(sp)
 1008134:	18800017 	ldw	r2,0(r3)
 1008138:	d8c00e15 	stw	r3,56(sp)
 100813c:	10fffd17 	ldw	r3,-12(r2)
 1008140:	d8800f17 	ldw	r2,60(sp)
 1008144:	10c7883a 	add	r3,r2,r3
 1008148:	19001e17 	ldw	r4,120(r3)
 100814c:	20c00217 	ldw	r3,8(r4)
 1008150:	20800317 	ldw	r2,12(r4)
 1008154:	1880122e 	bgeu	r3,r2,10081a0 <_ZStrsIcSt11char_traitsIcEERSt13basic_istreamIT_T0_ES6_RS3_+0x134>
 1008158:	18800044 	addi	r2,r3,1
 100815c:	19800003 	ldbu	r6,0(r3)
 1008160:	20800215 	stw	r2,8(r4)
 1008164:	00bfffc4 	movi	r2,-1
 1008168:	30800326 	beq	r6,r2,1008178 <_ZStrsIcSt11char_traitsIcEERSt13basic_istreamIT_T0_ES6_RS3_+0x10c>
 100816c:	d8c01017 	ldw	r3,64(sp)
 1008170:	19800005 	stb	r6,0(r3)
 1008174:	003fdf06 	br	10080f4 <_ZStrsIcSt11char_traitsIcEERSt13basic_istreamIT_T0_ES6_RS3_+0x88>
 1008178:	d8c00f17 	ldw	r3,60(sp)
 100817c:	18800017 	ldw	r2,0(r3)
 1008180:	113ffd17 	ldw	r4,-12(r2)
 1008184:	d8800e17 	ldw	r2,56(sp)
 1008188:	1109883a 	add	r4,r2,r4
 100818c:	21400517 	ldw	r5,20(r4)
 1008190:	d9800215 	stw	r6,8(sp)
 1008194:	29400194 	ori	r5,r5,6
 1008198:	1006cf80 	call	1006cf8 <_ZNSt9basic_iosIcSt11char_traitsIcEE5clearESt12_Ios_Iostate>
 100819c:	003fd506 	br	10080f4 <_ZStrsIcSt11char_traitsIcEERSt13basic_istreamIT_T0_ES6_RS3_+0x88>
 10081a0:	20800017 	ldw	r2,0(r4)
 10081a4:	00c00084 	movi	r3,2
 10081a8:	11400a17 	ldw	r5,40(r2)
 10081ac:	d8c00215 	stw	r3,8(sp)
 10081b0:	283ee83a 	callr	r5
 10081b4:	100d883a 	mov	r6,r2
 10081b8:	003fea06 	br	1008164 <_ZStrsIcSt11char_traitsIcEERSt13basic_istreamIT_T0_ES6_RS3_+0xf8>
 10081bc:	d8800317 	ldw	r2,12(sp)
 10081c0:	d8c00217 	ldw	r3,8(sp)
 10081c4:	d8801115 	stw	r2,68(sp)
 10081c8:	00800044 	movi	r2,1
 10081cc:	d8c01215 	stw	r3,72(sp)
 10081d0:	18800626 	beq	r3,r2,10081ec <_ZStrsIcSt11char_traitsIcEERSt13basic_istreamIT_T0_ES6_RS3_+0x180>
 10081d4:	d8000215 	stw	zero,8(sp)
 10081d8:	10369880 	call	1036988 <__cxa_end_catch>
 10081dc:	d9001117 	ldw	r4,68(sp)
 10081e0:	00bfffc4 	movi	r2,-1
 10081e4:	d8800215 	stw	r2,8(sp)
 10081e8:	10426f00 	call	10426f0 <_Unwind_SjLj_Resume>
 10081ec:	d9001117 	ldw	r4,68(sp)
 10081f0:	1036a2c0 	call	1036a2c <__cxa_begin_catch>
 10081f4:	d8800f17 	ldw	r2,60(sp)
 10081f8:	10c00017 	ldw	r3,0(r2)
 10081fc:	193ffd17 	ldw	r4,-12(r3)
 1008200:	d8c00e17 	ldw	r3,56(sp)
 1008204:	1909883a 	add	r4,r3,r4
 1008208:	21400504 	addi	r5,r4,20
 100820c:	28800017 	ldw	r2,0(r5)
 1008210:	d8c01217 	ldw	r3,72(sp)
 1008214:	10c4b03a 	or	r2,r2,r3
 1008218:	28800015 	stw	r2,0(r5)
 100821c:	20c00417 	ldw	r3,16(r4)
 1008220:	d8801217 	ldw	r2,72(sp)
 1008224:	1886703a 	and	r3,r3,r2
